ARM GAS  C:\Users\xavieran\AppData\Local\Temp\ccwd941Y.s 			page 1


   1              		.syntax unified
   2              		.cpu cortex-m3
   3              		.fpu softvfp
   4              		.eabi_attribute 20, 1
   5              		.eabi_attribute 21, 1
   6              		.eabi_attribute 23, 3
   7              		.eabi_attribute 24, 1
   8              		.eabi_attribute 25, 1
   9              		.eabi_attribute 26, 1
  10              		.eabi_attribute 30, 6
  11              		.eabi_attribute 34, 1
  12              		.eabi_attribute 18, 4
  13              		.thumb
  14              		.file	"cyfitter_cfg.c"
  15              		.text
  16              	.Ltext0:
  17              		.cfi_sections	.debug_frame
  18              		.section	.text.CYMEMZERO,"ax",%progbits
  19              		.align	2
  20              		.thumb
  21              		.thumb_func
  22              		.type	CYMEMZERO, %function
  23              	CYMEMZERO:
  24              	.LFB0:
  25              		.file 1 ".\\Generated_Source\\PSoC5\\cyfitter_cfg.c"
   1:.\Generated_Source\PSoC5/cyfitter_cfg.c **** /*******************************************************************************
   2:.\Generated_Source\PSoC5/cyfitter_cfg.c **** * FILENAME: cyfitter_cfg.c
   3:.\Generated_Source\PSoC5/cyfitter_cfg.c **** * 
   4:.\Generated_Source\PSoC5/cyfitter_cfg.c **** * PSoC Creator  3.2 SP1
   5:.\Generated_Source\PSoC5/cyfitter_cfg.c **** *
   6:.\Generated_Source\PSoC5/cyfitter_cfg.c **** * DESCRIPTION:
   7:.\Generated_Source\PSoC5/cyfitter_cfg.c **** * This file contains device initialization code.
   8:.\Generated_Source\PSoC5/cyfitter_cfg.c **** * Except for the user defined sections in CyClockStartupError(), this file should not be modified.
   9:.\Generated_Source\PSoC5/cyfitter_cfg.c **** * This file is automatically generated by PSoC Creator.
  10:.\Generated_Source\PSoC5/cyfitter_cfg.c **** *
  11:.\Generated_Source\PSoC5/cyfitter_cfg.c **** ********************************************************************************
  12:.\Generated_Source\PSoC5/cyfitter_cfg.c **** * Copyright (c) 2007-2015 Cypress Semiconductor.  All rights reserved.
  13:.\Generated_Source\PSoC5/cyfitter_cfg.c **** * You may use this file only in accordance with the license, terms, conditions, 
  14:.\Generated_Source\PSoC5/cyfitter_cfg.c **** * disclaimers, and limitations in the end user license agreement accompanying 
  15:.\Generated_Source\PSoC5/cyfitter_cfg.c **** * the software package with which this file was provided.
  16:.\Generated_Source\PSoC5/cyfitter_cfg.c **** ********************************************************************************/
  17:.\Generated_Source\PSoC5/cyfitter_cfg.c **** 
  18:.\Generated_Source\PSoC5/cyfitter_cfg.c **** #include <string.h>
  19:.\Generated_Source\PSoC5/cyfitter_cfg.c **** #include "cytypes.h"
  20:.\Generated_Source\PSoC5/cyfitter_cfg.c **** #include "cydevice_trm.h"
  21:.\Generated_Source\PSoC5/cyfitter_cfg.c **** #include "cyfitter.h"
  22:.\Generated_Source\PSoC5/cyfitter_cfg.c **** #include "CyLib.h"
  23:.\Generated_Source\PSoC5/cyfitter_cfg.c **** #include "cyfitter_cfg.h"
  24:.\Generated_Source\PSoC5/cyfitter_cfg.c **** 
  25:.\Generated_Source\PSoC5/cyfitter_cfg.c **** #define CY_NEED_CYCLOCKSTARTUPERROR 1
  26:.\Generated_Source\PSoC5/cyfitter_cfg.c **** 
  27:.\Generated_Source\PSoC5/cyfitter_cfg.c **** 
  28:.\Generated_Source\PSoC5/cyfitter_cfg.c **** #if defined(__GNUC__) || defined(__ARMCC_VERSION)
  29:.\Generated_Source\PSoC5/cyfitter_cfg.c ****     #define CYPACKED 
  30:.\Generated_Source\PSoC5/cyfitter_cfg.c ****     #define CYPACKED_ATTR __attribute__ ((packed))
  31:.\Generated_Source\PSoC5/cyfitter_cfg.c ****     #define CYALIGNED __attribute__ ((aligned))
  32:.\Generated_Source\PSoC5/cyfitter_cfg.c ****     #define CY_CFG_UNUSED __attribute__ ((unused))
ARM GAS  C:\Users\xavieran\AppData\Local\Temp\ccwd941Y.s 			page 2


  33:.\Generated_Source\PSoC5/cyfitter_cfg.c ****     #define CY_CFG_SECTION __attribute__ ((section(".psocinit")))
  34:.\Generated_Source\PSoC5/cyfitter_cfg.c ****     
  35:.\Generated_Source\PSoC5/cyfitter_cfg.c ****     #if defined(__ARMCC_VERSION)
  36:.\Generated_Source\PSoC5/cyfitter_cfg.c ****         #define CY_CFG_MEMORY_BARRIER() __memory_changed()
  37:.\Generated_Source\PSoC5/cyfitter_cfg.c ****     #else
  38:.\Generated_Source\PSoC5/cyfitter_cfg.c ****         #define CY_CFG_MEMORY_BARRIER() __sync_synchronize()
  39:.\Generated_Source\PSoC5/cyfitter_cfg.c ****     #endif
  40:.\Generated_Source\PSoC5/cyfitter_cfg.c ****     
  41:.\Generated_Source\PSoC5/cyfitter_cfg.c **** #elif defined(__ICCARM__)
  42:.\Generated_Source\PSoC5/cyfitter_cfg.c ****     #include <intrinsics.h>
  43:.\Generated_Source\PSoC5/cyfitter_cfg.c **** 
  44:.\Generated_Source\PSoC5/cyfitter_cfg.c ****     #define CYPACKED __packed
  45:.\Generated_Source\PSoC5/cyfitter_cfg.c ****     #define CYPACKED_ATTR 
  46:.\Generated_Source\PSoC5/cyfitter_cfg.c ****     #define CYALIGNED _Pragma("data_alignment=4")
  47:.\Generated_Source\PSoC5/cyfitter_cfg.c ****     #define CY_CFG_UNUSED _Pragma("diag_suppress=Pe177")
  48:.\Generated_Source\PSoC5/cyfitter_cfg.c ****     #define CY_CFG_SECTION _Pragma("location=\".psocinit\"")
  49:.\Generated_Source\PSoC5/cyfitter_cfg.c ****     
  50:.\Generated_Source\PSoC5/cyfitter_cfg.c ****     #define CY_CFG_MEMORY_BARRIER() __DMB()
  51:.\Generated_Source\PSoC5/cyfitter_cfg.c ****     
  52:.\Generated_Source\PSoC5/cyfitter_cfg.c **** #else
  53:.\Generated_Source\PSoC5/cyfitter_cfg.c ****     #error Unsupported toolchain
  54:.\Generated_Source\PSoC5/cyfitter_cfg.c **** #endif
  55:.\Generated_Source\PSoC5/cyfitter_cfg.c **** 
  56:.\Generated_Source\PSoC5/cyfitter_cfg.c **** 
  57:.\Generated_Source\PSoC5/cyfitter_cfg.c **** CY_CFG_UNUSED
  58:.\Generated_Source\PSoC5/cyfitter_cfg.c **** static void CYMEMZERO(void *s, size_t n);
  59:.\Generated_Source\PSoC5/cyfitter_cfg.c **** CY_CFG_UNUSED
  60:.\Generated_Source\PSoC5/cyfitter_cfg.c **** static void CYMEMZERO(void *s, size_t n)
  61:.\Generated_Source\PSoC5/cyfitter_cfg.c **** {
  26              		.loc 1 61 0
  27              		.cfi_startproc
  28              		@ args = 0, pretend = 0, frame = 8
  29              		@ frame_needed = 1, uses_anonymous_args = 0
  30 0000 80B5     		push	{r7, lr}
  31              		.cfi_def_cfa_offset 8
  32              		.cfi_offset 7, -8
  33              		.cfi_offset 14, -4
  34 0002 82B0     		sub	sp, sp, #8
  35              		.cfi_def_cfa_offset 16
  36 0004 00AF     		add	r7, sp, #0
  37              		.cfi_def_cfa_register 7
  38 0006 7860     		str	r0, [r7, #4]
  39 0008 3960     		str	r1, [r7]
  62:.\Generated_Source\PSoC5/cyfitter_cfg.c **** 	(void)memset(s, 0, n);
  40              		.loc 1 62 0
  41 000a 7868     		ldr	r0, [r7, #4]
  42 000c 0021     		movs	r1, #0
  43 000e 3A68     		ldr	r2, [r7]
  44 0010 FFF7FEFF 		bl	memset
  63:.\Generated_Source\PSoC5/cyfitter_cfg.c **** }
  45              		.loc 1 63 0
  46 0014 0837     		adds	r7, r7, #8
  47 0016 BD46     		mov	sp, r7
  48              		@ sp needed
  49 0018 80BD     		pop	{r7, pc}
  50              		.cfi_endproc
  51              	.LFE0:
ARM GAS  C:\Users\xavieran\AppData\Local\Temp\ccwd941Y.s 			page 3


  52              		.size	CYMEMZERO, .-CYMEMZERO
  53 001a 00BF     		.section	.text.CYCONFIGCPY,"ax",%progbits
  54              		.align	2
  55              		.thumb
  56              		.thumb_func
  57              		.type	CYCONFIGCPY, %function
  58              	CYCONFIGCPY:
  59              	.LFB1:
  64:.\Generated_Source\PSoC5/cyfitter_cfg.c **** CY_CFG_UNUSED
  65:.\Generated_Source\PSoC5/cyfitter_cfg.c **** static void CYCONFIGCPY(void *dest, const void *src, size_t n);
  66:.\Generated_Source\PSoC5/cyfitter_cfg.c **** CY_CFG_UNUSED
  67:.\Generated_Source\PSoC5/cyfitter_cfg.c **** static void CYCONFIGCPY(void *dest, const void *src, size_t n)
  68:.\Generated_Source\PSoC5/cyfitter_cfg.c **** {
  60              		.loc 1 68 0
  61              		.cfi_startproc
  62              		@ args = 0, pretend = 0, frame = 16
  63              		@ frame_needed = 1, uses_anonymous_args = 0
  64 0000 80B5     		push	{r7, lr}
  65              		.cfi_def_cfa_offset 8
  66              		.cfi_offset 7, -8
  67              		.cfi_offset 14, -4
  68 0002 84B0     		sub	sp, sp, #16
  69              		.cfi_def_cfa_offset 24
  70 0004 00AF     		add	r7, sp, #0
  71              		.cfi_def_cfa_register 7
  72 0006 F860     		str	r0, [r7, #12]
  73 0008 B960     		str	r1, [r7, #8]
  74 000a 7A60     		str	r2, [r7, #4]
  69:.\Generated_Source\PSoC5/cyfitter_cfg.c **** 	(void)memcpy(dest, src, n);
  75              		.loc 1 69 0
  76 000c F868     		ldr	r0, [r7, #12]
  77 000e B968     		ldr	r1, [r7, #8]
  78 0010 7A68     		ldr	r2, [r7, #4]
  79 0012 FFF7FEFF 		bl	memcpy
  70:.\Generated_Source\PSoC5/cyfitter_cfg.c **** }
  80              		.loc 1 70 0
  81 0016 1037     		adds	r7, r7, #16
  82 0018 BD46     		mov	sp, r7
  83              		@ sp needed
  84 001a 80BD     		pop	{r7, pc}
  85              		.cfi_endproc
  86              	.LFE1:
  87              		.size	CYCONFIGCPY, .-CYCONFIGCPY
  88              		.section	.text.CYCONFIGCPYCODE,"ax",%progbits
  89              		.align	2
  90              		.thumb
  91              		.thumb_func
  92              		.type	CYCONFIGCPYCODE, %function
  93              	CYCONFIGCPYCODE:
  94              	.LFB2:
  71:.\Generated_Source\PSoC5/cyfitter_cfg.c **** CY_CFG_UNUSED
  72:.\Generated_Source\PSoC5/cyfitter_cfg.c **** static void CYCONFIGCPYCODE(void *dest, const void *src, size_t n);
  73:.\Generated_Source\PSoC5/cyfitter_cfg.c **** CY_CFG_UNUSED
  74:.\Generated_Source\PSoC5/cyfitter_cfg.c **** static void CYCONFIGCPYCODE(void *dest, const void *src, size_t n)
  75:.\Generated_Source\PSoC5/cyfitter_cfg.c **** {
  95              		.loc 1 75 0
  96              		.cfi_startproc
ARM GAS  C:\Users\xavieran\AppData\Local\Temp\ccwd941Y.s 			page 4


  97              		@ args = 0, pretend = 0, frame = 16
  98              		@ frame_needed = 1, uses_anonymous_args = 0
  99 0000 80B5     		push	{r7, lr}
 100              		.cfi_def_cfa_offset 8
 101              		.cfi_offset 7, -8
 102              		.cfi_offset 14, -4
 103 0002 84B0     		sub	sp, sp, #16
 104              		.cfi_def_cfa_offset 24
 105 0004 00AF     		add	r7, sp, #0
 106              		.cfi_def_cfa_register 7
 107 0006 F860     		str	r0, [r7, #12]
 108 0008 B960     		str	r1, [r7, #8]
 109 000a 7A60     		str	r2, [r7, #4]
  76:.\Generated_Source\PSoC5/cyfitter_cfg.c **** 	(void)memcpy(dest, src, n);
 110              		.loc 1 76 0
 111 000c F868     		ldr	r0, [r7, #12]
 112 000e B968     		ldr	r1, [r7, #8]
 113 0010 7A68     		ldr	r2, [r7, #4]
 114 0012 FFF7FEFF 		bl	memcpy
  77:.\Generated_Source\PSoC5/cyfitter_cfg.c **** }
 115              		.loc 1 77 0
 116 0016 1037     		adds	r7, r7, #16
 117 0018 BD46     		mov	sp, r7
 118              		@ sp needed
 119 001a 80BD     		pop	{r7, pc}
 120              		.cfi_endproc
 121              	.LFE2:
 122              		.size	CYCONFIGCPYCODE, .-CYCONFIGCPYCODE
 123              		.section	.text.CyClockStartupError,"ax",%progbits
 124              		.align	2
 125              		.thumb
 126              		.thumb_func
 127              		.type	CyClockStartupError, %function
 128              	CyClockStartupError:
 129              	.LFB3:
  78:.\Generated_Source\PSoC5/cyfitter_cfg.c **** 
  79:.\Generated_Source\PSoC5/cyfitter_cfg.c **** 
  80:.\Generated_Source\PSoC5/cyfitter_cfg.c **** 
  81:.\Generated_Source\PSoC5/cyfitter_cfg.c **** /* Clock startup error codes                                                   */
  82:.\Generated_Source\PSoC5/cyfitter_cfg.c **** #define CYCLOCKSTART_NO_ERROR    0u
  83:.\Generated_Source\PSoC5/cyfitter_cfg.c **** #define CYCLOCKSTART_XTAL_ERROR  1u
  84:.\Generated_Source\PSoC5/cyfitter_cfg.c **** #define CYCLOCKSTART_32KHZ_ERROR 2u
  85:.\Generated_Source\PSoC5/cyfitter_cfg.c **** #define CYCLOCKSTART_PLL_ERROR   3u
  86:.\Generated_Source\PSoC5/cyfitter_cfg.c **** 
  87:.\Generated_Source\PSoC5/cyfitter_cfg.c **** #ifdef CY_NEED_CYCLOCKSTARTUPERROR
  88:.\Generated_Source\PSoC5/cyfitter_cfg.c **** /*******************************************************************************
  89:.\Generated_Source\PSoC5/cyfitter_cfg.c **** * Function Name: CyClockStartupError
  90:.\Generated_Source\PSoC5/cyfitter_cfg.c **** ********************************************************************************
  91:.\Generated_Source\PSoC5/cyfitter_cfg.c **** * Summary:
  92:.\Generated_Source\PSoC5/cyfitter_cfg.c **** *  If an error is encountered during clock configuration (crystal startup error,
  93:.\Generated_Source\PSoC5/cyfitter_cfg.c **** *  PLL lock error, etc.), the system will end up here.  Unless reimplemented by
  94:.\Generated_Source\PSoC5/cyfitter_cfg.c **** *  the customer, this function will stop in an infinite loop.
  95:.\Generated_Source\PSoC5/cyfitter_cfg.c **** *
  96:.\Generated_Source\PSoC5/cyfitter_cfg.c **** * Parameters:
  97:.\Generated_Source\PSoC5/cyfitter_cfg.c **** *   void
  98:.\Generated_Source\PSoC5/cyfitter_cfg.c **** *
  99:.\Generated_Source\PSoC5/cyfitter_cfg.c **** * Return:
ARM GAS  C:\Users\xavieran\AppData\Local\Temp\ccwd941Y.s 			page 5


 100:.\Generated_Source\PSoC5/cyfitter_cfg.c **** *   void
 101:.\Generated_Source\PSoC5/cyfitter_cfg.c **** *
 102:.\Generated_Source\PSoC5/cyfitter_cfg.c **** *******************************************************************************/
 103:.\Generated_Source\PSoC5/cyfitter_cfg.c **** CY_CFG_UNUSED
 104:.\Generated_Source\PSoC5/cyfitter_cfg.c **** static void CyClockStartupError(uint8 errorCode);
 105:.\Generated_Source\PSoC5/cyfitter_cfg.c **** CY_CFG_UNUSED
 106:.\Generated_Source\PSoC5/cyfitter_cfg.c **** static void CyClockStartupError(uint8 errorCode)
 107:.\Generated_Source\PSoC5/cyfitter_cfg.c **** {
 130              		.loc 1 107 0
 131              		.cfi_startproc
 132              		@ args = 0, pretend = 0, frame = 8
 133              		@ frame_needed = 1, uses_anonymous_args = 0
 134              		@ link register save eliminated.
 135 0000 80B4     		push	{r7}
 136              		.cfi_def_cfa_offset 4
 137              		.cfi_offset 7, -4
 138 0002 83B0     		sub	sp, sp, #12
 139              		.cfi_def_cfa_offset 16
 140 0004 00AF     		add	r7, sp, #0
 141              		.cfi_def_cfa_register 7
 142 0006 0346     		mov	r3, r0
 143 0008 FB71     		strb	r3, [r7, #7]
 144              	.L5:
 108:.\Generated_Source\PSoC5/cyfitter_cfg.c ****     /* To remove the compiler warning if errorCode not used.                */
 109:.\Generated_Source\PSoC5/cyfitter_cfg.c ****     errorCode = errorCode;
 110:.\Generated_Source\PSoC5/cyfitter_cfg.c **** 
 111:.\Generated_Source\PSoC5/cyfitter_cfg.c ****     /* `#START CyClockStartupError` */
 112:.\Generated_Source\PSoC5/cyfitter_cfg.c **** 
 113:.\Generated_Source\PSoC5/cyfitter_cfg.c ****     /* If we have a clock startup error (bad MHz crystal, PLL lock, etc.),  */
 114:.\Generated_Source\PSoC5/cyfitter_cfg.c ****     /* we will end up here to allow the customer to implement something to  */
 115:.\Generated_Source\PSoC5/cyfitter_cfg.c ****     /* deal with the clock condition.                                       */
 116:.\Generated_Source\PSoC5/cyfitter_cfg.c **** 
 117:.\Generated_Source\PSoC5/cyfitter_cfg.c ****     /* `#END` */
 118:.\Generated_Source\PSoC5/cyfitter_cfg.c **** 
 119:.\Generated_Source\PSoC5/cyfitter_cfg.c ****     /* If nothing else, stop here since the clocks have not started         */
 120:.\Generated_Source\PSoC5/cyfitter_cfg.c ****     /* correctly.                                                           */
 121:.\Generated_Source\PSoC5/cyfitter_cfg.c ****     while(1) {}
 145              		.loc 1 121 0 discriminator 1
 146 000a FEE7     		b	.L5
 147              		.cfi_endproc
 148              	.LFE3:
 149              		.size	CyClockStartupError, .-CyClockStartupError
 150              		.section	.text.cfg_write_bytes32,"ax",%progbits
 151              		.align	2
 152              		.thumb
 153              		.thumb_func
 154              		.type	cfg_write_bytes32, %function
 155              	cfg_write_bytes32:
 156              	.LFB4:
 122:.\Generated_Source\PSoC5/cyfitter_cfg.c **** }
 123:.\Generated_Source\PSoC5/cyfitter_cfg.c **** #endif
 124:.\Generated_Source\PSoC5/cyfitter_cfg.c **** 
 125:.\Generated_Source\PSoC5/cyfitter_cfg.c **** #define CY_CFG_BASE_ADDR_COUNT 41u
 126:.\Generated_Source\PSoC5/cyfitter_cfg.c **** CYPACKED typedef struct
 127:.\Generated_Source\PSoC5/cyfitter_cfg.c **** {
 128:.\Generated_Source\PSoC5/cyfitter_cfg.c **** 	uint8 offset;
 129:.\Generated_Source\PSoC5/cyfitter_cfg.c **** 	uint8 value;
ARM GAS  C:\Users\xavieran\AppData\Local\Temp\ccwd941Y.s 			page 6


 130:.\Generated_Source\PSoC5/cyfitter_cfg.c **** } CYPACKED_ATTR cy_cfg_addrvalue_t;
 131:.\Generated_Source\PSoC5/cyfitter_cfg.c **** 
 132:.\Generated_Source\PSoC5/cyfitter_cfg.c **** 
 133:.\Generated_Source\PSoC5/cyfitter_cfg.c **** 
 134:.\Generated_Source\PSoC5/cyfitter_cfg.c **** /*******************************************************************************
 135:.\Generated_Source\PSoC5/cyfitter_cfg.c **** * Function Name: cfg_write_bytes32
 136:.\Generated_Source\PSoC5/cyfitter_cfg.c **** ********************************************************************************
 137:.\Generated_Source\PSoC5/cyfitter_cfg.c **** * Summary:
 138:.\Generated_Source\PSoC5/cyfitter_cfg.c **** *  This function is used for setting up the chip configuration areas that
 139:.\Generated_Source\PSoC5/cyfitter_cfg.c **** *  contain relatively sparse data.
 140:.\Generated_Source\PSoC5/cyfitter_cfg.c **** *
 141:.\Generated_Source\PSoC5/cyfitter_cfg.c **** * Parameters:
 142:.\Generated_Source\PSoC5/cyfitter_cfg.c **** *   void
 143:.\Generated_Source\PSoC5/cyfitter_cfg.c **** *
 144:.\Generated_Source\PSoC5/cyfitter_cfg.c **** * Return:
 145:.\Generated_Source\PSoC5/cyfitter_cfg.c **** *   void
 146:.\Generated_Source\PSoC5/cyfitter_cfg.c **** *
 147:.\Generated_Source\PSoC5/cyfitter_cfg.c **** *******************************************************************************/
 148:.\Generated_Source\PSoC5/cyfitter_cfg.c **** static void cfg_write_bytes32(const uint32 addr_table[], const cy_cfg_addrvalue_t data_table[]);
 149:.\Generated_Source\PSoC5/cyfitter_cfg.c **** static void cfg_write_bytes32(const uint32 addr_table[], const cy_cfg_addrvalue_t data_table[])
 150:.\Generated_Source\PSoC5/cyfitter_cfg.c **** {
 157              		.loc 1 150 0
 158              		.cfi_startproc
 159              		@ args = 0, pretend = 0, frame = 24
 160              		@ frame_needed = 1, uses_anonymous_args = 0
 161              		@ link register save eliminated.
 162 0000 80B4     		push	{r7}
 163              		.cfi_def_cfa_offset 4
 164              		.cfi_offset 7, -4
 165 0002 87B0     		sub	sp, sp, #28
 166              		.cfi_def_cfa_offset 32
 167 0004 00AF     		add	r7, sp, #0
 168              		.cfi_def_cfa_register 7
 169 0006 7860     		str	r0, [r7, #4]
 170 0008 3960     		str	r1, [r7]
 151:.\Generated_Source\PSoC5/cyfitter_cfg.c **** 	/* For 32-bit little-endian architectures */
 152:.\Generated_Source\PSoC5/cyfitter_cfg.c **** 	uint32 i, j = 0u;
 171              		.loc 1 152 0
 172 000a 0023     		movs	r3, #0
 173 000c 3B61     		str	r3, [r7, #16]
 153:.\Generated_Source\PSoC5/cyfitter_cfg.c **** 	for (i = 0u; i < CY_CFG_BASE_ADDR_COUNT; i++)
 174              		.loc 1 153 0
 175 000e 0023     		movs	r3, #0
 176 0010 7B61     		str	r3, [r7, #20]
 177 0012 26E0     		b	.L7
 178              	.L10:
 179              	.LBB2:
 154:.\Generated_Source\PSoC5/cyfitter_cfg.c **** 	{
 155:.\Generated_Source\PSoC5/cyfitter_cfg.c **** 		uint32 baseAddr = addr_table[i];
 180              		.loc 1 155 0
 181 0014 7B69     		ldr	r3, [r7, #20]
 182 0016 9B00     		lsls	r3, r3, #2
 183 0018 7A68     		ldr	r2, [r7, #4]
 184 001a 1344     		add	r3, r3, r2
 185 001c 1B68     		ldr	r3, [r3]
 186 001e BB60     		str	r3, [r7, #8]
 156:.\Generated_Source\PSoC5/cyfitter_cfg.c **** 		uint8 count = (uint8)baseAddr;
ARM GAS  C:\Users\xavieran\AppData\Local\Temp\ccwd941Y.s 			page 7


 187              		.loc 1 156 0
 188 0020 BB68     		ldr	r3, [r7, #8]
 189 0022 FB73     		strb	r3, [r7, #15]
 157:.\Generated_Source\PSoC5/cyfitter_cfg.c **** 		baseAddr &= 0xFFFFFF00u;
 190              		.loc 1 157 0
 191 0024 BB68     		ldr	r3, [r7, #8]
 192 0026 23F0FF03 		bic	r3, r3, #255
 193 002a BB60     		str	r3, [r7, #8]
 158:.\Generated_Source\PSoC5/cyfitter_cfg.c **** 		while (count != 0u)
 194              		.loc 1 158 0
 195 002c 13E0     		b	.L8
 196              	.L9:
 159:.\Generated_Source\PSoC5/cyfitter_cfg.c **** 		{
 160:.\Generated_Source\PSoC5/cyfitter_cfg.c **** 			CY_SET_XTND_REG8((void CYFAR *)(baseAddr + data_table[j].offset), data_table[j].value);
 197              		.loc 1 160 0
 198 002e 3B69     		ldr	r3, [r7, #16]
 199 0030 5B00     		lsls	r3, r3, #1
 200 0032 3A68     		ldr	r2, [r7]
 201 0034 1344     		add	r3, r3, r2
 202 0036 1B78     		ldrb	r3, [r3]	@ zero_extendqisi2
 203 0038 1A46     		mov	r2, r3
 204 003a BB68     		ldr	r3, [r7, #8]
 205 003c 1344     		add	r3, r3, r2
 206 003e 3A69     		ldr	r2, [r7, #16]
 207 0040 5200     		lsls	r2, r2, #1
 208 0042 3968     		ldr	r1, [r7]
 209 0044 0A44     		add	r2, r2, r1
 210 0046 5278     		ldrb	r2, [r2, #1]	@ zero_extendqisi2
 211 0048 1A70     		strb	r2, [r3]
 161:.\Generated_Source\PSoC5/cyfitter_cfg.c **** 			j++;
 212              		.loc 1 161 0
 213 004a 3B69     		ldr	r3, [r7, #16]
 214 004c 0133     		adds	r3, r3, #1
 215 004e 3B61     		str	r3, [r7, #16]
 162:.\Generated_Source\PSoC5/cyfitter_cfg.c **** 			count--;
 216              		.loc 1 162 0
 217 0050 FB7B     		ldrb	r3, [r7, #15]	@ zero_extendqisi2
 218 0052 013B     		subs	r3, r3, #1
 219 0054 FB73     		strb	r3, [r7, #15]
 220              	.L8:
 158:.\Generated_Source\PSoC5/cyfitter_cfg.c **** 		while (count != 0u)
 221              		.loc 1 158 0 discriminator 1
 222 0056 FB7B     		ldrb	r3, [r7, #15]	@ zero_extendqisi2
 223 0058 002B     		cmp	r3, #0
 224 005a E8D1     		bne	.L9
 225              	.LBE2:
 153:.\Generated_Source\PSoC5/cyfitter_cfg.c **** 	for (i = 0u; i < CY_CFG_BASE_ADDR_COUNT; i++)
 226              		.loc 1 153 0
 227 005c 7B69     		ldr	r3, [r7, #20]
 228 005e 0133     		adds	r3, r3, #1
 229 0060 7B61     		str	r3, [r7, #20]
 230              	.L7:
 153:.\Generated_Source\PSoC5/cyfitter_cfg.c **** 	for (i = 0u; i < CY_CFG_BASE_ADDR_COUNT; i++)
 231              		.loc 1 153 0 is_stmt 0 discriminator 1
 232 0062 7B69     		ldr	r3, [r7, #20]
 233 0064 282B     		cmp	r3, #40
 234 0066 D5D9     		bls	.L10
ARM GAS  C:\Users\xavieran\AppData\Local\Temp\ccwd941Y.s 			page 8


 163:.\Generated_Source\PSoC5/cyfitter_cfg.c **** 		}
 164:.\Generated_Source\PSoC5/cyfitter_cfg.c **** 	}
 165:.\Generated_Source\PSoC5/cyfitter_cfg.c **** }
 235              		.loc 1 165 0 is_stmt 1
 236 0068 1C37     		adds	r7, r7, #28
 237 006a BD46     		mov	sp, r7
 238              		@ sp needed
 239 006c 5DF8047B 		ldr	r7, [sp], #4
 240 0070 7047     		bx	lr
 241              		.cfi_endproc
 242              	.LFE4:
 243              		.size	cfg_write_bytes32, .-cfg_write_bytes32
 244 0072 00BF     		.section	.text.ClockSetup,"ax",%progbits
 245              		.align	2
 246              		.thumb
 247              		.thumb_func
 248              		.type	ClockSetup, %function
 249              	ClockSetup:
 250              	.LFB5:
 166:.\Generated_Source\PSoC5/cyfitter_cfg.c **** 
 167:.\Generated_Source\PSoC5/cyfitter_cfg.c **** /*******************************************************************************
 168:.\Generated_Source\PSoC5/cyfitter_cfg.c **** * Function Name: ClockSetup
 169:.\Generated_Source\PSoC5/cyfitter_cfg.c **** ********************************************************************************
 170:.\Generated_Source\PSoC5/cyfitter_cfg.c **** *
 171:.\Generated_Source\PSoC5/cyfitter_cfg.c **** * Summary:
 172:.\Generated_Source\PSoC5/cyfitter_cfg.c **** *  Performs the initialization of all of the clocks in the device based on the
 173:.\Generated_Source\PSoC5/cyfitter_cfg.c **** *  settings in the Clock tab of the DWR.  This includes enabling the requested
 174:.\Generated_Source\PSoC5/cyfitter_cfg.c **** *  clocks and setting the necessary dividers to produce the desired frequency. 
 175:.\Generated_Source\PSoC5/cyfitter_cfg.c **** *
 176:.\Generated_Source\PSoC5/cyfitter_cfg.c **** * Parameters:
 177:.\Generated_Source\PSoC5/cyfitter_cfg.c **** *  void
 178:.\Generated_Source\PSoC5/cyfitter_cfg.c **** *
 179:.\Generated_Source\PSoC5/cyfitter_cfg.c **** * Return:
 180:.\Generated_Source\PSoC5/cyfitter_cfg.c **** *  void
 181:.\Generated_Source\PSoC5/cyfitter_cfg.c **** *
 182:.\Generated_Source\PSoC5/cyfitter_cfg.c **** *******************************************************************************/
 183:.\Generated_Source\PSoC5/cyfitter_cfg.c **** static void ClockSetup(void);
 184:.\Generated_Source\PSoC5/cyfitter_cfg.c **** static void ClockSetup(void)
 185:.\Generated_Source\PSoC5/cyfitter_cfg.c **** {
 251              		.loc 1 185 0
 252              		.cfi_startproc
 253              		@ args = 0, pretend = 0, frame = 8
 254              		@ frame_needed = 1, uses_anonymous_args = 0
 255 0000 80B5     		push	{r7, lr}
 256              		.cfi_def_cfa_offset 8
 257              		.cfi_offset 7, -8
 258              		.cfi_offset 14, -4
 259 0002 82B0     		sub	sp, sp, #8
 260              		.cfi_def_cfa_offset 16
 261 0004 00AF     		add	r7, sp, #0
 262              		.cfi_def_cfa_register 7
 186:.\Generated_Source\PSoC5/cyfitter_cfg.c **** 	uint32 timeout;
 187:.\Generated_Source\PSoC5/cyfitter_cfg.c **** 	uint8 pllLock;
 188:.\Generated_Source\PSoC5/cyfitter_cfg.c **** 
 189:.\Generated_Source\PSoC5/cyfitter_cfg.c **** 
 190:.\Generated_Source\PSoC5/cyfitter_cfg.c **** 	/* Configure Digital Clocks based on settings from Clock DWR */
 191:.\Generated_Source\PSoC5/cyfitter_cfg.c **** 	CY_SET_XTND_REG16((void CYFAR *)(CYREG_CLKDIST_DCFG0_CFG0), 0x0000u);
ARM GAS  C:\Users\xavieran\AppData\Local\Temp\ccwd941Y.s 			page 9


 263              		.loc 1 191 0
 264 0006 404B     		ldr	r3, .L16
 265 0008 0022     		movs	r2, #0
 266 000a 1A80     		strh	r2, [r3]	@ movhi
 192:.\Generated_Source\PSoC5/cyfitter_cfg.c **** 	CY_SET_XTND_REG8((void CYFAR *)(CYREG_CLKDIST_DCFG0_CFG0 + 0x2u), 0x19u);
 267              		.loc 1 192 0
 268 000c 3F4B     		ldr	r3, .L16+4
 269 000e 1922     		movs	r2, #25
 270 0010 1A70     		strb	r2, [r3]
 193:.\Generated_Source\PSoC5/cyfitter_cfg.c **** 	CY_SET_XTND_REG16((void CYFAR *)(CYREG_CLKDIST_DCFG1_CFG0), 0x0001u);
 271              		.loc 1 193 0
 272 0012 3F4B     		ldr	r3, .L16+8
 273 0014 0122     		movs	r2, #1
 274 0016 1A80     		strh	r2, [r3]	@ movhi
 194:.\Generated_Source\PSoC5/cyfitter_cfg.c **** 	CY_SET_XTND_REG8((void CYFAR *)(CYREG_CLKDIST_DCFG1_CFG0 + 0x2u), 0x19u);
 275              		.loc 1 194 0
 276 0018 3E4B     		ldr	r3, .L16+12
 277 001a 1922     		movs	r2, #25
 278 001c 1A70     		strb	r2, [r3]
 195:.\Generated_Source\PSoC5/cyfitter_cfg.c **** 	CY_SET_XTND_REG16((void CYFAR *)(CYREG_CLKDIST_DCFG2_CFG0), 0x0009u);
 279              		.loc 1 195 0
 280 001e 3E4B     		ldr	r3, .L16+16
 281 0020 0922     		movs	r2, #9
 282 0022 1A80     		strh	r2, [r3]	@ movhi
 196:.\Generated_Source\PSoC5/cyfitter_cfg.c **** 	CY_SET_XTND_REG8((void CYFAR *)(CYREG_CLKDIST_DCFG2_CFG0 + 0x2u), 0x18u);
 283              		.loc 1 196 0
 284 0024 3D4B     		ldr	r3, .L16+20
 285 0026 1822     		movs	r2, #24
 286 0028 1A70     		strb	r2, [r3]
 197:.\Generated_Source\PSoC5/cyfitter_cfg.c **** 	CY_SET_XTND_REG16((void CYFAR *)(CYREG_CLKDIST_DCFG3_CFG0), 0x0041u);
 287              		.loc 1 197 0
 288 002a 3D4B     		ldr	r3, .L16+24
 289 002c 4122     		movs	r2, #65
 290 002e 1A80     		strh	r2, [r3]	@ movhi
 198:.\Generated_Source\PSoC5/cyfitter_cfg.c **** 	CY_SET_XTND_REG8((void CYFAR *)(CYREG_CLKDIST_DCFG3_CFG0 + 0x2u), 0x18u);
 291              		.loc 1 198 0
 292 0030 3C4B     		ldr	r3, .L16+28
 293 0032 1822     		movs	r2, #24
 294 0034 1A70     		strb	r2, [r3]
 199:.\Generated_Source\PSoC5/cyfitter_cfg.c **** 	CY_SET_XTND_REG16((void CYFAR *)(CYREG_CLKDIST_DCFG4_CFG0), 0x0671u);
 295              		.loc 1 199 0
 296 0036 3C4B     		ldr	r3, .L16+32
 297 0038 40F27162 		movw	r2, #1649
 298 003c 1A80     		strh	r2, [r3]	@ movhi
 200:.\Generated_Source\PSoC5/cyfitter_cfg.c **** 	CY_SET_XTND_REG8((void CYFAR *)(CYREG_CLKDIST_DCFG4_CFG0 + 0x2u), 0x18u);
 299              		.loc 1 200 0
 300 003e 3B4B     		ldr	r3, .L16+36
 301 0040 1822     		movs	r2, #24
 302 0042 1A70     		strb	r2, [r3]
 201:.\Generated_Source\PSoC5/cyfitter_cfg.c **** 	CY_SET_XTND_REG16((void CYFAR *)(CYREG_CLKDIST_DCFG5_CFG0), 0x19C7u);
 303              		.loc 1 201 0
 304 0044 3A4B     		ldr	r3, .L16+40
 305 0046 41F6C712 		movw	r2, #6599
 306 004a 1A80     		strh	r2, [r3]	@ movhi
 202:.\Generated_Source\PSoC5/cyfitter_cfg.c **** 	CY_SET_XTND_REG8((void CYFAR *)(CYREG_CLKDIST_DCFG5_CFG0 + 0x2u), 0x18u);
 307              		.loc 1 202 0
 308 004c 394B     		ldr	r3, .L16+44
ARM GAS  C:\Users\xavieran\AppData\Local\Temp\ccwd941Y.s 			page 10


 309 004e 1822     		movs	r2, #24
 310 0050 1A70     		strb	r2, [r3]
 203:.\Generated_Source\PSoC5/cyfitter_cfg.c **** 
 204:.\Generated_Source\PSoC5/cyfitter_cfg.c **** 	/* Configure ILO based on settings from Clock DWR */
 205:.\Generated_Source\PSoC5/cyfitter_cfg.c **** 	CY_SET_XTND_REG8((void CYFAR *)(CYREG_SLOWCLK_ILO_CR0), 0x06u);
 311              		.loc 1 205 0
 312 0052 394B     		ldr	r3, .L16+48
 313 0054 0622     		movs	r2, #6
 314 0056 1A70     		strb	r2, [r3]
 206:.\Generated_Source\PSoC5/cyfitter_cfg.c **** 
 207:.\Generated_Source\PSoC5/cyfitter_cfg.c **** 	/* Configure IMO based on settings from Clock DWR */
 208:.\Generated_Source\PSoC5/cyfitter_cfg.c **** 	CY_SET_XTND_REG8((void CYFAR *)(CYREG_FASTCLK_IMO_CR), 0x52u);
 315              		.loc 1 208 0
 316 0058 384B     		ldr	r3, .L16+52
 317 005a 5222     		movs	r2, #82
 318 005c 1A70     		strb	r2, [r3]
 209:.\Generated_Source\PSoC5/cyfitter_cfg.c **** 	CY_SET_XTND_REG8((void CYFAR *)(CYREG_IMO_TR1), (CY_GET_XTND_REG8((void CYFAR *)CYREG_FLSHID_CUST_
 319              		.loc 1 209 0
 320 005e 384B     		ldr	r3, .L16+56
 321 0060 384A     		ldr	r2, .L16+60
 322 0062 1278     		ldrb	r2, [r2]
 323 0064 D2B2     		uxtb	r2, r2
 324 0066 1A70     		strb	r2, [r3]
 210:.\Generated_Source\PSoC5/cyfitter_cfg.c **** 
 211:.\Generated_Source\PSoC5/cyfitter_cfg.c **** 	/* Configure PLL based on settings from Clock DWR */
 212:.\Generated_Source\PSoC5/cyfitter_cfg.c **** 	CY_SET_XTND_REG16((void CYFAR *)(CYREG_FASTCLK_PLL_P), 0x0B21u);
 325              		.loc 1 212 0
 326 0068 374B     		ldr	r3, .L16+64
 327 006a 40F62132 		movw	r2, #2849
 328 006e 1A80     		strh	r2, [r3]	@ movhi
 213:.\Generated_Source\PSoC5/cyfitter_cfg.c **** 	CY_SET_XTND_REG16((void CYFAR *)(CYREG_FASTCLK_PLL_CFG0), 0x1251u);
 329              		.loc 1 213 0
 330 0070 364B     		ldr	r3, .L16+68
 331 0072 41F25122 		movw	r2, #4689
 332 0076 1A80     		strh	r2, [r3]	@ movhi
 214:.\Generated_Source\PSoC5/cyfitter_cfg.c **** 	/* Wait up to 250us for the PLL to lock */
 215:.\Generated_Source\PSoC5/cyfitter_cfg.c **** 	pllLock = 0u;
 333              		.loc 1 215 0
 334 0078 0023     		movs	r3, #0
 335 007a FB70     		strb	r3, [r7, #3]
 216:.\Generated_Source\PSoC5/cyfitter_cfg.c **** 	for (timeout = 250u / 10u; (timeout > 0u) && (pllLock != 0x03u); timeout--)
 336              		.loc 1 216 0
 337 007c 1923     		movs	r3, #25
 338 007e 7B60     		str	r3, [r7, #4]
 339 0080 14E0     		b	.L12
 340              	.L14:
 217:.\Generated_Source\PSoC5/cyfitter_cfg.c **** 	{ 
 218:.\Generated_Source\PSoC5/cyfitter_cfg.c **** 		pllLock = 0x03u & ((uint8)((uint8)pllLock << 1) | ((CY_GET_XTND_REG8((void CYFAR *)CYREG_FASTCLK_
 341              		.loc 1 218 0 discriminator 1
 342 0082 FB78     		ldrb	r3, [r7, #3]
 343 0084 5B00     		lsls	r3, r3, #1
 344 0086 DAB2     		uxtb	r2, r3
 345 0088 314B     		ldr	r3, .L16+72
 346 008a 1B78     		ldrb	r3, [r3]
 347 008c DBB2     		uxtb	r3, r3
 348 008e 03F00103 		and	r3, r3, #1
 349 0092 DBB2     		uxtb	r3, r3
ARM GAS  C:\Users\xavieran\AppData\Local\Temp\ccwd941Y.s 			page 11


 350 0094 1343     		orrs	r3, r3, r2
 351 0096 DBB2     		uxtb	r3, r3
 352 0098 03F00303 		and	r3, r3, #3
 353 009c FB70     		strb	r3, [r7, #3]
 219:.\Generated_Source\PSoC5/cyfitter_cfg.c **** 		CyDelayCycles(10u * 48u); /* Delay 10us based on 48MHz clock */
 354              		.loc 1 219 0 discriminator 1
 355 009e 4FF4F070 		mov	r0, #480
 356 00a2 FFF7FEFF 		bl	CyDelayCycles
 216:.\Generated_Source\PSoC5/cyfitter_cfg.c **** 	for (timeout = 250u / 10u; (timeout > 0u) && (pllLock != 0x03u); timeout--)
 357              		.loc 1 216 0 discriminator 1
 358 00a6 7B68     		ldr	r3, [r7, #4]
 359 00a8 013B     		subs	r3, r3, #1
 360 00aa 7B60     		str	r3, [r7, #4]
 361              	.L12:
 362 00ac 7B68     		ldr	r3, [r7, #4]
 363 00ae 002B     		cmp	r3, #0
 364 00b0 02D0     		beq	.L13
 216:.\Generated_Source\PSoC5/cyfitter_cfg.c **** 	for (timeout = 250u / 10u; (timeout > 0u) && (pllLock != 0x03u); timeout--)
 365              		.loc 1 216 0 is_stmt 0 discriminator 2
 366 00b2 FB78     		ldrb	r3, [r7, #3]	@ zero_extendqisi2
 367 00b4 032B     		cmp	r3, #3
 368 00b6 E4D1     		bne	.L14
 369              	.L13:
 220:.\Generated_Source\PSoC5/cyfitter_cfg.c **** 	}
 221:.\Generated_Source\PSoC5/cyfitter_cfg.c **** 	/* If we ran out of time the PLL didn't lock so go to the error function */
 222:.\Generated_Source\PSoC5/cyfitter_cfg.c **** 	if (timeout == 0u)
 370              		.loc 1 222 0 is_stmt 1
 371 00b8 7B68     		ldr	r3, [r7, #4]
 372 00ba 002B     		cmp	r3, #0
 373 00bc 02D1     		bne	.L15
 223:.\Generated_Source\PSoC5/cyfitter_cfg.c **** 	{
 224:.\Generated_Source\PSoC5/cyfitter_cfg.c **** 		CyClockStartupError(CYCLOCKSTART_PLL_ERROR);
 374              		.loc 1 224 0
 375 00be 0320     		movs	r0, #3
 376 00c0 FFF7FEFF 		bl	CyClockStartupError
 377              	.L15:
 225:.\Generated_Source\PSoC5/cyfitter_cfg.c **** 	}
 226:.\Generated_Source\PSoC5/cyfitter_cfg.c **** 
 227:.\Generated_Source\PSoC5/cyfitter_cfg.c **** 	/* Configure Bus/Master Clock based on settings from Clock DWR */
 228:.\Generated_Source\PSoC5/cyfitter_cfg.c **** 	CY_SET_XTND_REG16((void CYFAR *)(CYREG_CLKDIST_MSTR0), 0x0100u);
 378              		.loc 1 228 0
 379 00c4 234B     		ldr	r3, .L16+76
 380 00c6 4FF48072 		mov	r2, #256
 381 00ca 1A80     		strh	r2, [r3]	@ movhi
 229:.\Generated_Source\PSoC5/cyfitter_cfg.c **** 	CY_SET_XTND_REG8((void CYFAR *)(CYREG_CLKDIST_MSTR0), 0x07u);
 382              		.loc 1 229 0
 383 00cc 214B     		ldr	r3, .L16+76
 384 00ce 0722     		movs	r2, #7
 385 00d0 1A70     		strb	r2, [r3]
 230:.\Generated_Source\PSoC5/cyfitter_cfg.c **** 	CY_SET_XTND_REG8((void CYFAR *)(CYREG_CLKDIST_BCFG0), 0x00u);
 386              		.loc 1 230 0
 387 00d2 214B     		ldr	r3, .L16+80
 388 00d4 0022     		movs	r2, #0
 389 00d6 1A70     		strb	r2, [r3]
 231:.\Generated_Source\PSoC5/cyfitter_cfg.c **** 	CY_SET_XTND_REG8((void CYFAR *)(CYREG_CLKDIST_BCFG2), 0x48u);
 390              		.loc 1 231 0
 391 00d8 204B     		ldr	r3, .L16+84
ARM GAS  C:\Users\xavieran\AppData\Local\Temp\ccwd941Y.s 			page 12


 392 00da 4822     		movs	r2, #72
 393 00dc 1A70     		strb	r2, [r3]
 232:.\Generated_Source\PSoC5/cyfitter_cfg.c **** 	CY_SET_XTND_REG8((void CYFAR *)(CYREG_CLKDIST_MSTR0), 0x00u);
 394              		.loc 1 232 0
 395 00de 1D4B     		ldr	r3, .L16+76
 396 00e0 0022     		movs	r2, #0
 397 00e2 1A70     		strb	r2, [r3]
 233:.\Generated_Source\PSoC5/cyfitter_cfg.c **** 
 234:.\Generated_Source\PSoC5/cyfitter_cfg.c **** 	/* Configure USB Clock based on settings from Clock DWR */
 235:.\Generated_Source\PSoC5/cyfitter_cfg.c **** 	CY_SET_XTND_REG8((void CYFAR *)(CYREG_CLKDIST_UCFG), 0x00u);
 398              		.loc 1 235 0
 399 00e4 1E4B     		ldr	r3, .L16+88
 400 00e6 0022     		movs	r2, #0
 401 00e8 1A70     		strb	r2, [r3]
 236:.\Generated_Source\PSoC5/cyfitter_cfg.c **** 	CY_SET_XTND_REG8((void CYFAR *)(CYREG_CLKDIST_LD), 0x02u);
 402              		.loc 1 236 0
 403 00ea 1E4B     		ldr	r3, .L16+92
 404 00ec 0222     		movs	r2, #2
 405 00ee 1A70     		strb	r2, [r3]
 237:.\Generated_Source\PSoC5/cyfitter_cfg.c **** 
 238:.\Generated_Source\PSoC5/cyfitter_cfg.c **** 	CY_SET_XTND_REG8((void CYFAR *)(CYREG_PM_ACT_CFG2), ((CY_GET_XTND_REG8((void CYFAR *)CYREG_PM_ACT_
 406              		.loc 1 238 0
 407 00f0 1D4B     		ldr	r3, .L16+96
 408 00f2 1D4A     		ldr	r2, .L16+96
 409 00f4 1278     		ldrb	r2, [r2]
 410 00f6 D2B2     		uxtb	r2, r2
 411 00f8 42F03F02 		orr	r2, r2, #63
 412 00fc D2B2     		uxtb	r2, r2
 413 00fe 1A70     		strb	r2, [r3]
 239:.\Generated_Source\PSoC5/cyfitter_cfg.c **** }
 414              		.loc 1 239 0
 415 0100 0837     		adds	r7, r7, #8
 416 0102 BD46     		mov	sp, r7
 417              		@ sp needed
 418 0104 80BD     		pop	{r7, pc}
 419              	.L17:
 420 0106 00BF     		.align	2
 421              	.L16:
 422 0108 80400040 		.word	1073758336
 423 010c 82400040 		.word	1073758338
 424 0110 84400040 		.word	1073758340
 425 0114 86400040 		.word	1073758342
 426 0118 88400040 		.word	1073758344
 427 011c 8A400040 		.word	1073758346
 428 0120 8C400040 		.word	1073758348
 429 0124 8E400040 		.word	1073758350
 430 0128 90400040 		.word	1073758352
 431 012c 92400040 		.word	1073758354
 432 0130 94400040 		.word	1073758356
 433 0134 96400040 		.word	1073758358
 434 0138 00430040 		.word	1073758976
 435 013c 00420040 		.word	1073758720
 436 0140 A1460040 		.word	1073759905
 437 0144 0F010049 		.word	1224737039
 438 0148 22420040 		.word	1073758754
 439 014c 20420040 		.word	1073758752
 440 0150 25420040 		.word	1073758757
ARM GAS  C:\Users\xavieran\AppData\Local\Temp\ccwd941Y.s 			page 13


 441 0154 04400040 		.word	1073758212
 442 0158 06400040 		.word	1073758214
 443 015c 08400040 		.word	1073758216
 444 0160 09400040 		.word	1073758217
 445 0164 01400040 		.word	1073758209
 446 0168 A2430040 		.word	1073759138
 447              		.cfi_endproc
 448              	.LFE5:
 449              		.size	ClockSetup, .-ClockSetup
 450              		.section	.text.AnalogSetDefault,"ax",%progbits
 451              		.align	2
 452              		.thumb
 453              		.thumb_func
 454              		.type	AnalogSetDefault, %function
 455              	AnalogSetDefault:
 456              	.LFB6:
 240:.\Generated_Source\PSoC5/cyfitter_cfg.c **** 
 241:.\Generated_Source\PSoC5/cyfitter_cfg.c **** 
 242:.\Generated_Source\PSoC5/cyfitter_cfg.c **** /* Analog API Functions */
 243:.\Generated_Source\PSoC5/cyfitter_cfg.c **** 
 244:.\Generated_Source\PSoC5/cyfitter_cfg.c **** 
 245:.\Generated_Source\PSoC5/cyfitter_cfg.c **** /*******************************************************************************
 246:.\Generated_Source\PSoC5/cyfitter_cfg.c **** * Function Name: AnalogSetDefault
 247:.\Generated_Source\PSoC5/cyfitter_cfg.c **** ********************************************************************************
 248:.\Generated_Source\PSoC5/cyfitter_cfg.c **** *
 249:.\Generated_Source\PSoC5/cyfitter_cfg.c **** * Summary:
 250:.\Generated_Source\PSoC5/cyfitter_cfg.c **** *  Sets up the analog portions of the chip to default values based on chip
 251:.\Generated_Source\PSoC5/cyfitter_cfg.c **** *  configuration options from the project.
 252:.\Generated_Source\PSoC5/cyfitter_cfg.c **** *
 253:.\Generated_Source\PSoC5/cyfitter_cfg.c **** * Parameters:
 254:.\Generated_Source\PSoC5/cyfitter_cfg.c **** *  void
 255:.\Generated_Source\PSoC5/cyfitter_cfg.c **** *
 256:.\Generated_Source\PSoC5/cyfitter_cfg.c **** * Return:
 257:.\Generated_Source\PSoC5/cyfitter_cfg.c **** *  void
 258:.\Generated_Source\PSoC5/cyfitter_cfg.c **** *
 259:.\Generated_Source\PSoC5/cyfitter_cfg.c **** *******************************************************************************/
 260:.\Generated_Source\PSoC5/cyfitter_cfg.c **** static void AnalogSetDefault(void);
 261:.\Generated_Source\PSoC5/cyfitter_cfg.c **** static void AnalogSetDefault(void)
 262:.\Generated_Source\PSoC5/cyfitter_cfg.c **** {
 457              		.loc 1 262 0
 458              		.cfi_startproc
 459              		@ args = 0, pretend = 0, frame = 8
 460              		@ frame_needed = 1, uses_anonymous_args = 0
 461              		@ link register save eliminated.
 462 0000 80B4     		push	{r7}
 463              		.cfi_def_cfa_offset 4
 464              		.cfi_offset 7, -4
 465 0002 83B0     		sub	sp, sp, #12
 466              		.cfi_def_cfa_offset 16
 467 0004 00AF     		add	r7, sp, #0
 468              		.cfi_def_cfa_register 7
 263:.\Generated_Source\PSoC5/cyfitter_cfg.c **** 	uint8 bg_xover_inl_trim = CY_GET_XTND_REG8((void CYFAR *)(CYREG_FLSHID_MFG_CFG_BG_XOVER_INL_TRIM +
 469              		.loc 1 263 0
 470 0006 0B4B     		ldr	r3, .L19
 471 0008 1B78     		ldrb	r3, [r3]
 472 000a FB71     		strb	r3, [r7, #7]
 264:.\Generated_Source\PSoC5/cyfitter_cfg.c **** 	CY_SET_XTND_REG8((void CYFAR *)(CYREG_BG_DFT0), (bg_xover_inl_trim & 0x07u));
ARM GAS  C:\Users\xavieran\AppData\Local\Temp\ccwd941Y.s 			page 14


 473              		.loc 1 264 0
 474 000c 0A4B     		ldr	r3, .L19+4
 475 000e FA79     		ldrb	r2, [r7, #7]
 476 0010 02F00702 		and	r2, r2, #7
 477 0014 D2B2     		uxtb	r2, r2
 478 0016 1A70     		strb	r2, [r3]
 265:.\Generated_Source\PSoC5/cyfitter_cfg.c **** 	CY_SET_XTND_REG8((void CYFAR *)(CYREG_BG_DFT1), ((bg_xover_inl_trim >> 4) & 0x0Fu));
 479              		.loc 1 265 0
 480 0018 084B     		ldr	r3, .L19+8
 481 001a FA79     		ldrb	r2, [r7, #7]	@ zero_extendqisi2
 482 001c 1209     		lsrs	r2, r2, #4
 483 001e D2B2     		uxtb	r2, r2
 484 0020 1A70     		strb	r2, [r3]
 266:.\Generated_Source\PSoC5/cyfitter_cfg.c **** 	CY_SET_XTND_REG8((void CYFAR *)CYREG_PUMP_CR0, 0x44u);
 485              		.loc 1 266 0
 486 0022 074B     		ldr	r3, .L19+12
 487 0024 4422     		movs	r2, #68
 488 0026 1A70     		strb	r2, [r3]
 267:.\Generated_Source\PSoC5/cyfitter_cfg.c **** }
 489              		.loc 1 267 0
 490 0028 0C37     		adds	r7, r7, #12
 491 002a BD46     		mov	sp, r7
 492              		@ sp needed
 493 002c 5DF8047B 		ldr	r7, [sp], #4
 494 0030 7047     		bx	lr
 495              	.L20:
 496 0032 00BF     		.align	2
 497              	.L19:
 498 0034 CF010049 		.word	1224737231
 499 0038 6E580040 		.word	1073764462
 500 003c 6F580040 		.word	1073764463
 501 0040 76580040 		.word	1073764470
 502              		.cfi_endproc
 503              	.LFE6:
 504              		.size	AnalogSetDefault, .-AnalogSetDefault
 505              		.section	.text.SetAnalogRoutingPumps,"ax",%progbits
 506              		.align	2
 507              		.global	SetAnalogRoutingPumps
 508              		.thumb
 509              		.thumb_func
 510              		.type	SetAnalogRoutingPumps, %function
 511              	SetAnalogRoutingPumps:
 512              	.LFB7:
 268:.\Generated_Source\PSoC5/cyfitter_cfg.c **** 
 269:.\Generated_Source\PSoC5/cyfitter_cfg.c **** 
 270:.\Generated_Source\PSoC5/cyfitter_cfg.c **** /*******************************************************************************
 271:.\Generated_Source\PSoC5/cyfitter_cfg.c **** * Function Name: SetAnalogRoutingPumps
 272:.\Generated_Source\PSoC5/cyfitter_cfg.c **** ********************************************************************************
 273:.\Generated_Source\PSoC5/cyfitter_cfg.c **** *
 274:.\Generated_Source\PSoC5/cyfitter_cfg.c **** * Summary:
 275:.\Generated_Source\PSoC5/cyfitter_cfg.c **** * Enables or disables the analog pumps feeding analog routing switches.
 276:.\Generated_Source\PSoC5/cyfitter_cfg.c **** * Intended to be called at startup, based on the Vdda system configuration;
 277:.\Generated_Source\PSoC5/cyfitter_cfg.c **** * may be called during operation when the user informs us that the Vdda voltage
 278:.\Generated_Source\PSoC5/cyfitter_cfg.c **** * crossed the pump threshold.
 279:.\Generated_Source\PSoC5/cyfitter_cfg.c **** *
 280:.\Generated_Source\PSoC5/cyfitter_cfg.c **** * Parameters:
 281:.\Generated_Source\PSoC5/cyfitter_cfg.c **** *  enabled - 1 to enable the pumps, 0 to disable the pumps
ARM GAS  C:\Users\xavieran\AppData\Local\Temp\ccwd941Y.s 			page 15


 282:.\Generated_Source\PSoC5/cyfitter_cfg.c **** *
 283:.\Generated_Source\PSoC5/cyfitter_cfg.c **** * Return:
 284:.\Generated_Source\PSoC5/cyfitter_cfg.c **** *  void
 285:.\Generated_Source\PSoC5/cyfitter_cfg.c **** *
 286:.\Generated_Source\PSoC5/cyfitter_cfg.c **** *******************************************************************************/
 287:.\Generated_Source\PSoC5/cyfitter_cfg.c **** void SetAnalogRoutingPumps(uint8 enabled)
 288:.\Generated_Source\PSoC5/cyfitter_cfg.c **** {
 513              		.loc 1 288 0
 514              		.cfi_startproc
 515              		@ args = 0, pretend = 0, frame = 16
 516              		@ frame_needed = 1, uses_anonymous_args = 0
 517              		@ link register save eliminated.
 518 0000 80B4     		push	{r7}
 519              		.cfi_def_cfa_offset 4
 520              		.cfi_offset 7, -4
 521 0002 85B0     		sub	sp, sp, #20
 522              		.cfi_def_cfa_offset 24
 523 0004 00AF     		add	r7, sp, #0
 524              		.cfi_def_cfa_register 7
 525 0006 0346     		mov	r3, r0
 526 0008 FB71     		strb	r3, [r7, #7]
 289:.\Generated_Source\PSoC5/cyfitter_cfg.c **** 	uint8 regValue = CY_GET_XTND_REG8((void CYFAR *)CYREG_PUMP_CR0);
 527              		.loc 1 289 0
 528 000a 064B     		ldr	r3, .L24
 529 000c 1B78     		ldrb	r3, [r3]
 530 000e FB73     		strb	r3, [r7, #15]
 290:.\Generated_Source\PSoC5/cyfitter_cfg.c **** 	if (enabled != 0u)
 531              		.loc 1 290 0
 532 0010 FB79     		ldrb	r3, [r7, #7]	@ zero_extendqisi2
 533 0012 002B     		cmp	r3, #0
 291:.\Generated_Source\PSoC5/cyfitter_cfg.c **** 	{
 292:.\Generated_Source\PSoC5/cyfitter_cfg.c **** 		regValue |= 0x00u;
 293:.\Generated_Source\PSoC5/cyfitter_cfg.c **** 	}
 294:.\Generated_Source\PSoC5/cyfitter_cfg.c **** 	else
 295:.\Generated_Source\PSoC5/cyfitter_cfg.c **** 	{
 296:.\Generated_Source\PSoC5/cyfitter_cfg.c **** 		regValue &= (uint8)~0x00u;
 297:.\Generated_Source\PSoC5/cyfitter_cfg.c **** 	}
 298:.\Generated_Source\PSoC5/cyfitter_cfg.c **** 	CY_SET_XTND_REG8((void CYFAR *)CYREG_PUMP_CR0, regValue);
 534              		.loc 1 298 0
 535 0014 034B     		ldr	r3, .L24
 536 0016 FA7B     		ldrb	r2, [r7, #15]
 537 0018 1A70     		strb	r2, [r3]
 299:.\Generated_Source\PSoC5/cyfitter_cfg.c **** }
 538              		.loc 1 299 0
 539 001a 1437     		adds	r7, r7, #20
 540 001c BD46     		mov	sp, r7
 541              		@ sp needed
 542 001e 5DF8047B 		ldr	r7, [sp], #4
 543 0022 7047     		bx	lr
 544              	.L25:
 545              		.align	2
 546              	.L24:
 547 0024 76580040 		.word	1073764470
 548              		.cfi_endproc
 549              	.LFE7:
 550              		.size	SetAnalogRoutingPumps, .-SetAnalogRoutingPumps
 551              		.section	.text.cyfitter_cfg,"ax",%progbits
ARM GAS  C:\Users\xavieran\AppData\Local\Temp\ccwd941Y.s 			page 16


 552              		.align	2
 553              		.global	cyfitter_cfg
 554              		.thumb
 555              		.thumb_func
 556              		.type	cyfitter_cfg, %function
 557              	cyfitter_cfg:
 558              	.LFB8:
 300:.\Generated_Source\PSoC5/cyfitter_cfg.c **** 
 301:.\Generated_Source\PSoC5/cyfitter_cfg.c **** #define CY_AMUX_UNUSED CYREG_BOOST_SR
 302:.\Generated_Source\PSoC5/cyfitter_cfg.c **** 
 303:.\Generated_Source\PSoC5/cyfitter_cfg.c **** 
 304:.\Generated_Source\PSoC5/cyfitter_cfg.c **** /*******************************************************************************
 305:.\Generated_Source\PSoC5/cyfitter_cfg.c **** * Function Name: cyfitter_cfg
 306:.\Generated_Source\PSoC5/cyfitter_cfg.c **** ********************************************************************************
 307:.\Generated_Source\PSoC5/cyfitter_cfg.c **** * Summary:
 308:.\Generated_Source\PSoC5/cyfitter_cfg.c **** *  This function is called by the start-up code for the selected device. It
 309:.\Generated_Source\PSoC5/cyfitter_cfg.c **** *  performs all of the necessary device configuration based on the design
 310:.\Generated_Source\PSoC5/cyfitter_cfg.c **** *  settings.  This includes settings from the Design Wide Resources (DWR) such
 311:.\Generated_Source\PSoC5/cyfitter_cfg.c **** *  as Clocks and Pins as well as any component configuration that is necessary.
 312:.\Generated_Source\PSoC5/cyfitter_cfg.c **** *
 313:.\Generated_Source\PSoC5/cyfitter_cfg.c **** * Parameters:  
 314:.\Generated_Source\PSoC5/cyfitter_cfg.c **** *   void
 315:.\Generated_Source\PSoC5/cyfitter_cfg.c **** *
 316:.\Generated_Source\PSoC5/cyfitter_cfg.c **** * Return:
 317:.\Generated_Source\PSoC5/cyfitter_cfg.c **** *   void
 318:.\Generated_Source\PSoC5/cyfitter_cfg.c **** *
 319:.\Generated_Source\PSoC5/cyfitter_cfg.c **** *******************************************************************************/
 320:.\Generated_Source\PSoC5/cyfitter_cfg.c **** 
 321:.\Generated_Source\PSoC5/cyfitter_cfg.c **** void cyfitter_cfg(void)
 322:.\Generated_Source\PSoC5/cyfitter_cfg.c **** {
 559              		.loc 1 322 0
 560              		.cfi_startproc
 561              		@ args = 0, pretend = 0, frame = 24
 562              		@ frame_needed = 1, uses_anonymous_args = 0
 563 0000 80B5     		push	{r7, lr}
 564              		.cfi_def_cfa_offset 8
 565              		.cfi_offset 7, -8
 566              		.cfi_offset 14, -4
 567 0002 86B0     		sub	sp, sp, #24
 568              		.cfi_def_cfa_offset 32
 569 0004 00AF     		add	r7, sp, #0
 570              		.cfi_def_cfa_register 7
 323:.\Generated_Source\PSoC5/cyfitter_cfg.c **** 	/* IOPINS0_0 Address: CYREG_PRT0_DR Size (bytes): 10 */
 324:.\Generated_Source\PSoC5/cyfitter_cfg.c **** 	static const uint8 CYCODE BS_IOPINS0_0_VAL[] = {
 325:.\Generated_Source\PSoC5/cyfitter_cfg.c **** 		0x03u, 0x00u, 0x00u, 0xF4u, 0xF7u, 0x00u, 0xF0u, 0x00u, 0x00u, 0x00u};
 326:.\Generated_Source\PSoC5/cyfitter_cfg.c **** 
 327:.\Generated_Source\PSoC5/cyfitter_cfg.c **** 	/* IOPINS0_7 Address: CYREG_PRT12_DR Size (bytes): 10 */
 328:.\Generated_Source\PSoC5/cyfitter_cfg.c **** 	static const uint8 CYCODE BS_IOPINS0_7_VAL[] = {
 329:.\Generated_Source\PSoC5/cyfitter_cfg.c **** 		0x03u, 0x00u, 0xC0u, 0x2Cu, 0xAFu, 0x00u, 0x2Cu, 0x00u, 0x00u, 0x00u};
 330:.\Generated_Source\PSoC5/cyfitter_cfg.c **** 
 331:.\Generated_Source\PSoC5/cyfitter_cfg.c **** 	/* IOPINS0_8 Address: CYREG_PRT15_DR Size (bytes): 10 */
 332:.\Generated_Source\PSoC5/cyfitter_cfg.c **** 	static const uint8 CYCODE BS_IOPINS0_8_VAL[] = {
 333:.\Generated_Source\PSoC5/cyfitter_cfg.c **** 		0x00u, 0x00u, 0x20u, 0x18u, 0x18u, 0x00u, 0x18u, 0x00u, 0xC0u, 0x00u};
 334:.\Generated_Source\PSoC5/cyfitter_cfg.c **** 
 335:.\Generated_Source\PSoC5/cyfitter_cfg.c **** 	/* IOPINS0_1 Address: CYREG_PRT1_DR Size (bytes): 10 */
 336:.\Generated_Source\PSoC5/cyfitter_cfg.c **** 	static const uint8 CYCODE BS_IOPINS0_1_VAL[] = {
 337:.\Generated_Source\PSoC5/cyfitter_cfg.c **** 		0xC0u, 0x00u, 0x00u, 0x00u, 0xC0u, 0x00u, 0xC0u, 0x00u, 0x00u, 0x00u};
ARM GAS  C:\Users\xavieran\AppData\Local\Temp\ccwd941Y.s 			page 17


 338:.\Generated_Source\PSoC5/cyfitter_cfg.c **** 
 339:.\Generated_Source\PSoC5/cyfitter_cfg.c **** 	/* IOPINS0_2 Address: CYREG_PRT2_DR Size (bytes): 10 */
 340:.\Generated_Source\PSoC5/cyfitter_cfg.c **** 	static const uint8 CYCODE BS_IOPINS0_2_VAL[] = {
 341:.\Generated_Source\PSoC5/cyfitter_cfg.c **** 		0x30u, 0x00u, 0x05u, 0x00u, 0x30u, 0x00u, 0x30u, 0x00u, 0x00u, 0x00u};
 342:.\Generated_Source\PSoC5/cyfitter_cfg.c **** 
 343:.\Generated_Source\PSoC5/cyfitter_cfg.c **** 	/* IOPINS0_3 Address: CYREG_PRT3_DR Size (bytes): 10 */
 344:.\Generated_Source\PSoC5/cyfitter_cfg.c **** 	static const uint8 CYCODE BS_IOPINS0_3_VAL[] = {
 345:.\Generated_Source\PSoC5/cyfitter_cfg.c **** 		0x08u, 0x00u, 0x04u, 0x08u, 0x08u, 0x00u, 0x08u, 0x00u, 0x00u, 0x00u};
 346:.\Generated_Source\PSoC5/cyfitter_cfg.c **** 
 347:.\Generated_Source\PSoC5/cyfitter_cfg.c **** 	/* IOPINS0_4 Address: CYREG_PRT4_DM0 Size (bytes): 8 */
 348:.\Generated_Source\PSoC5/cyfitter_cfg.c **** 	static const uint8 CYCODE BS_IOPINS0_4_VAL[] = {
 349:.\Generated_Source\PSoC5/cyfitter_cfg.c **** 		0xF0u, 0x03u, 0x03u, 0x00u, 0x03u, 0x00u, 0x00u, 0x01u};
 350:.\Generated_Source\PSoC5/cyfitter_cfg.c **** 
 351:.\Generated_Source\PSoC5/cyfitter_cfg.c **** 	/* IOPINS0_5 Address: CYREG_PRT5_DM0 Size (bytes): 8 */
 352:.\Generated_Source\PSoC5/cyfitter_cfg.c **** 	static const uint8 CYCODE BS_IOPINS0_5_VAL[] = {
 353:.\Generated_Source\PSoC5/cyfitter_cfg.c **** 		0xD0u, 0xA3u, 0x73u, 0x00u, 0x82u, 0x00u, 0x00u, 0x00u};
 354:.\Generated_Source\PSoC5/cyfitter_cfg.c **** 
 355:.\Generated_Source\PSoC5/cyfitter_cfg.c **** 	/* IOPINS0_6 Address: CYREG_PRT6_DM0 Size (bytes): 8 */
 356:.\Generated_Source\PSoC5/cyfitter_cfg.c **** 	static const uint8 CYCODE BS_IOPINS0_6_VAL[] = {
 357:.\Generated_Source\PSoC5/cyfitter_cfg.c **** 		0x1Fu, 0xF0u, 0xE0u, 0x00u, 0x10u, 0x00u, 0x00u, 0x00u};
 358:.\Generated_Source\PSoC5/cyfitter_cfg.c **** 
 359:.\Generated_Source\PSoC5/cyfitter_cfg.c **** #ifdef CYGlobalIntDisable
 360:.\Generated_Source\PSoC5/cyfitter_cfg.c **** 	/* Disable interrupts by default. Let user enable if/when they want. */
 361:.\Generated_Source\PSoC5/cyfitter_cfg.c **** 	CYGlobalIntDisable
 571              		.loc 1 361 0
 572              	@ 361 ".\Generated_Source\PSoC5\cyfitter_cfg.c" 1
 573 0006 72B6     		CPSID   i
 574              	@ 0 "" 2
 362:.\Generated_Source\PSoC5/cyfitter_cfg.c **** #endif
 363:.\Generated_Source\PSoC5/cyfitter_cfg.c **** 
 364:.\Generated_Source\PSoC5/cyfitter_cfg.c **** 
 365:.\Generated_Source\PSoC5/cyfitter_cfg.c **** 	/* Set Flash Cycles based on max possible frequency in case a glitch occurs during ClockSetup(). *
 366:.\Generated_Source\PSoC5/cyfitter_cfg.c **** 	CY_SET_XTND_REG8((void CYFAR *)(CYREG_CACHE_CC_CTL), (((CYDEV_INSTRUCT_CACHE_ENABLED) != 0) ? 0x61
 575              		.loc 1 366 0
 576              		.thumb
 577 0008 574B     		ldr	r3, .L31
 578 000a 6122     		movs	r2, #97
 579 000c 1A70     		strb	r2, [r3]
 367:.\Generated_Source\PSoC5/cyfitter_cfg.c **** 	/* Setup clocks based on selections from Clock DWR */
 368:.\Generated_Source\PSoC5/cyfitter_cfg.c **** 	ClockSetup();
 580              		.loc 1 368 0
 581 000e FFF7FEFF 		bl	ClockSetup
 369:.\Generated_Source\PSoC5/cyfitter_cfg.c **** 	/* Set Flash Cycles based on newly configured 66.00MHz Bus Clock. */
 370:.\Generated_Source\PSoC5/cyfitter_cfg.c **** 	CY_SET_XTND_REG8((void CYFAR *)(CYREG_CACHE_CC_CTL), (((CYDEV_INSTRUCT_CACHE_ENABLED) != 0) ? 0x01
 582              		.loc 1 370 0
 583 0012 554B     		ldr	r3, .L31
 584 0014 0122     		movs	r2, #1
 585 0016 1A70     		strb	r2, [r3]
 586              	.LBB3:
 371:.\Generated_Source\PSoC5/cyfitter_cfg.c **** 	{
 372:.\Generated_Source\PSoC5/cyfitter_cfg.c **** 		static const uint32 CYCODE cy_cfg_addr_table[] = {
 373:.\Generated_Source\PSoC5/cyfitter_cfg.c **** 			0x40004503u, /* Base address: 0x40004500 Count: 3 */
 374:.\Generated_Source\PSoC5/cyfitter_cfg.c **** 			0x40004F08u, /* Base address: 0x40004F00 Count: 8 */
 375:.\Generated_Source\PSoC5/cyfitter_cfg.c **** 			0x4000520Eu, /* Base address: 0x40005200 Count: 14 */
 376:.\Generated_Source\PSoC5/cyfitter_cfg.c **** 			0x40006405u, /* Base address: 0x40006400 Count: 5 */
 377:.\Generated_Source\PSoC5/cyfitter_cfg.c **** 			0x40006502u, /* Base address: 0x40006500 Count: 2 */
 378:.\Generated_Source\PSoC5/cyfitter_cfg.c **** 			0x40010104u, /* Base address: 0x40010100 Count: 4 */
ARM GAS  C:\Users\xavieran\AppData\Local\Temp\ccwd941Y.s 			page 18


 379:.\Generated_Source\PSoC5/cyfitter_cfg.c **** 			0x40010250u, /* Base address: 0x40010200 Count: 80 */
 380:.\Generated_Source\PSoC5/cyfitter_cfg.c **** 			0x40010339u, /* Base address: 0x40010300 Count: 57 */
 381:.\Generated_Source\PSoC5/cyfitter_cfg.c **** 			0x4001045Du, /* Base address: 0x40010400 Count: 93 */
 382:.\Generated_Source\PSoC5/cyfitter_cfg.c **** 			0x4001053Eu, /* Base address: 0x40010500 Count: 62 */
 383:.\Generated_Source\PSoC5/cyfitter_cfg.c **** 			0x40010648u, /* Base address: 0x40010600 Count: 72 */
 384:.\Generated_Source\PSoC5/cyfitter_cfg.c **** 			0x4001074Eu, /* Base address: 0x40010700 Count: 78 */
 385:.\Generated_Source\PSoC5/cyfitter_cfg.c **** 			0x40010843u, /* Base address: 0x40010800 Count: 67 */
 386:.\Generated_Source\PSoC5/cyfitter_cfg.c **** 			0x40010946u, /* Base address: 0x40010900 Count: 70 */
 387:.\Generated_Source\PSoC5/cyfitter_cfg.c **** 			0x40010A4Au, /* Base address: 0x40010A00 Count: 74 */
 388:.\Generated_Source\PSoC5/cyfitter_cfg.c **** 			0x40010B52u, /* Base address: 0x40010B00 Count: 82 */
 389:.\Generated_Source\PSoC5/cyfitter_cfg.c **** 			0x40010C47u, /* Base address: 0x40010C00 Count: 71 */
 390:.\Generated_Source\PSoC5/cyfitter_cfg.c **** 			0x40010D43u, /* Base address: 0x40010D00 Count: 67 */
 391:.\Generated_Source\PSoC5/cyfitter_cfg.c **** 			0x40010E3Du, /* Base address: 0x40010E00 Count: 61 */
 392:.\Generated_Source\PSoC5/cyfitter_cfg.c **** 			0x40010F30u, /* Base address: 0x40010F00 Count: 48 */
 393:.\Generated_Source\PSoC5/cyfitter_cfg.c **** 			0x4001144Cu, /* Base address: 0x40011400 Count: 76 */
 394:.\Generated_Source\PSoC5/cyfitter_cfg.c **** 			0x4001152Cu, /* Base address: 0x40011500 Count: 44 */
 395:.\Generated_Source\PSoC5/cyfitter_cfg.c **** 			0x40011615u, /* Base address: 0x40011600 Count: 21 */
 396:.\Generated_Source\PSoC5/cyfitter_cfg.c **** 			0x4001173Eu, /* Base address: 0x40011700 Count: 62 */
 397:.\Generated_Source\PSoC5/cyfitter_cfg.c **** 			0x40011804u, /* Base address: 0x40011800 Count: 4 */
 398:.\Generated_Source\PSoC5/cyfitter_cfg.c **** 			0x4001190Fu, /* Base address: 0x40011900 Count: 15 */
 399:.\Generated_Source\PSoC5/cyfitter_cfg.c **** 			0x40011B09u, /* Base address: 0x40011B00 Count: 9 */
 400:.\Generated_Source\PSoC5/cyfitter_cfg.c **** 			0x40014015u, /* Base address: 0x40014000 Count: 21 */
 401:.\Generated_Source\PSoC5/cyfitter_cfg.c **** 			0x40014117u, /* Base address: 0x40014100 Count: 23 */
 402:.\Generated_Source\PSoC5/cyfitter_cfg.c **** 			0x40014214u, /* Base address: 0x40014200 Count: 20 */
 403:.\Generated_Source\PSoC5/cyfitter_cfg.c **** 			0x4001430Fu, /* Base address: 0x40014300 Count: 15 */
 404:.\Generated_Source\PSoC5/cyfitter_cfg.c **** 			0x4001440Eu, /* Base address: 0x40014400 Count: 14 */
 405:.\Generated_Source\PSoC5/cyfitter_cfg.c **** 			0x40014513u, /* Base address: 0x40014500 Count: 19 */
 406:.\Generated_Source\PSoC5/cyfitter_cfg.c **** 			0x4001460Cu, /* Base address: 0x40014600 Count: 12 */
 407:.\Generated_Source\PSoC5/cyfitter_cfg.c **** 			0x4001470Du, /* Base address: 0x40014700 Count: 13 */
 408:.\Generated_Source\PSoC5/cyfitter_cfg.c **** 			0x40014819u, /* Base address: 0x40014800 Count: 25 */
 409:.\Generated_Source\PSoC5/cyfitter_cfg.c **** 			0x40014911u, /* Base address: 0x40014900 Count: 17 */
 410:.\Generated_Source\PSoC5/cyfitter_cfg.c **** 			0x40014C20u, /* Base address: 0x40014C00 Count: 32 */
 411:.\Generated_Source\PSoC5/cyfitter_cfg.c **** 			0x40014D12u, /* Base address: 0x40014D00 Count: 18 */
 412:.\Generated_Source\PSoC5/cyfitter_cfg.c **** 			0x40015004u, /* Base address: 0x40015000 Count: 4 */
 413:.\Generated_Source\PSoC5/cyfitter_cfg.c **** 			0x40015101u, /* Base address: 0x40015100 Count: 1 */
 414:.\Generated_Source\PSoC5/cyfitter_cfg.c **** 		};
 415:.\Generated_Source\PSoC5/cyfitter_cfg.c **** 
 416:.\Generated_Source\PSoC5/cyfitter_cfg.c **** 		static const cy_cfg_addrvalue_t CYCODE cy_cfg_data_table[] = {
 417:.\Generated_Source\PSoC5/cyfitter_cfg.c **** 			{0x00u, 0x02u},
 418:.\Generated_Source\PSoC5/cyfitter_cfg.c **** 			{0x60u, 0x02u},
 419:.\Generated_Source\PSoC5/cyfitter_cfg.c **** 			{0x7Eu, 0x02u},
 420:.\Generated_Source\PSoC5/cyfitter_cfg.c **** 			{0x01u, 0x10u},
 421:.\Generated_Source\PSoC5/cyfitter_cfg.c **** 			{0x0Au, 0x36u},
 422:.\Generated_Source\PSoC5/cyfitter_cfg.c **** 			{0x0Du, 0x40u},
 423:.\Generated_Source\PSoC5/cyfitter_cfg.c **** 			{0x16u, 0x36u},
 424:.\Generated_Source\PSoC5/cyfitter_cfg.c **** 			{0x19u, 0x40u},
 425:.\Generated_Source\PSoC5/cyfitter_cfg.c **** 			{0x22u, 0x36u},
 426:.\Generated_Source\PSoC5/cyfitter_cfg.c **** 			{0x25u, 0x40u},
 427:.\Generated_Source\PSoC5/cyfitter_cfg.c **** 			{0x2Eu, 0x36u},
 428:.\Generated_Source\PSoC5/cyfitter_cfg.c **** 			{0x00u, 0x90u},
 429:.\Generated_Source\PSoC5/cyfitter_cfg.c **** 			{0x01u, 0x50u},
 430:.\Generated_Source\PSoC5/cyfitter_cfg.c **** 			{0x04u, 0x03u},
 431:.\Generated_Source\PSoC5/cyfitter_cfg.c **** 			{0x08u, 0x80u},
 432:.\Generated_Source\PSoC5/cyfitter_cfg.c **** 			{0x09u, 0xC0u},
 433:.\Generated_Source\PSoC5/cyfitter_cfg.c **** 			{0x11u, 0x10u},
 434:.\Generated_Source\PSoC5/cyfitter_cfg.c **** 			{0x19u, 0x08u},
 435:.\Generated_Source\PSoC5/cyfitter_cfg.c **** 			{0x20u, 0x02u},
ARM GAS  C:\Users\xavieran\AppData\Local\Temp\ccwd941Y.s 			page 19


 436:.\Generated_Source\PSoC5/cyfitter_cfg.c **** 			{0x21u, 0x01u},
 437:.\Generated_Source\PSoC5/cyfitter_cfg.c **** 			{0x28u, 0x82u},
 438:.\Generated_Source\PSoC5/cyfitter_cfg.c **** 			{0x30u, 0x10u},
 439:.\Generated_Source\PSoC5/cyfitter_cfg.c **** 			{0x78u, 0x08u},
 440:.\Generated_Source\PSoC5/cyfitter_cfg.c **** 			{0x79u, 0x18u},
 441:.\Generated_Source\PSoC5/cyfitter_cfg.c **** 			{0x7Cu, 0x40u},
 442:.\Generated_Source\PSoC5/cyfitter_cfg.c **** 			{0x2Bu, 0x04u},
 443:.\Generated_Source\PSoC5/cyfitter_cfg.c **** 			{0x2Du, 0x0Fu},
 444:.\Generated_Source\PSoC5/cyfitter_cfg.c **** 			{0x3Du, 0x08u},
 445:.\Generated_Source\PSoC5/cyfitter_cfg.c **** 			{0x83u, 0x0Du},
 446:.\Generated_Source\PSoC5/cyfitter_cfg.c **** 			{0x86u, 0x0Du},
 447:.\Generated_Source\PSoC5/cyfitter_cfg.c **** 			{0x85u, 0x0Fu},
 448:.\Generated_Source\PSoC5/cyfitter_cfg.c **** 			{0x87u, 0x0Du},
 449:.\Generated_Source\PSoC5/cyfitter_cfg.c **** 			{0xE0u, 0x82u},
 450:.\Generated_Source\PSoC5/cyfitter_cfg.c **** 			{0xE2u, 0x04u},
 451:.\Generated_Source\PSoC5/cyfitter_cfg.c **** 			{0xE4u, 0x10u},
 452:.\Generated_Source\PSoC5/cyfitter_cfg.c **** 			{0xE6u, 0x80u},
 453:.\Generated_Source\PSoC5/cyfitter_cfg.c **** 			{0x02u, 0x01u},
 454:.\Generated_Source\PSoC5/cyfitter_cfg.c **** 			{0x06u, 0x02u},
 455:.\Generated_Source\PSoC5/cyfitter_cfg.c **** 			{0x0Bu, 0x01u},
 456:.\Generated_Source\PSoC5/cyfitter_cfg.c **** 			{0x17u, 0x01u},
 457:.\Generated_Source\PSoC5/cyfitter_cfg.c **** 			{0x30u, 0x02u},
 458:.\Generated_Source\PSoC5/cyfitter_cfg.c **** 			{0x32u, 0x01u},
 459:.\Generated_Source\PSoC5/cyfitter_cfg.c **** 			{0x33u, 0x01u},
 460:.\Generated_Source\PSoC5/cyfitter_cfg.c **** 			{0x40u, 0x30u},
 461:.\Generated_Source\PSoC5/cyfitter_cfg.c **** 			{0x41u, 0x06u},
 462:.\Generated_Source\PSoC5/cyfitter_cfg.c **** 			{0x49u, 0xFFu},
 463:.\Generated_Source\PSoC5/cyfitter_cfg.c **** 			{0x4Au, 0xFFu},
 464:.\Generated_Source\PSoC5/cyfitter_cfg.c **** 			{0x4Bu, 0xFFu},
 465:.\Generated_Source\PSoC5/cyfitter_cfg.c **** 			{0x4Du, 0xA0u},
 466:.\Generated_Source\PSoC5/cyfitter_cfg.c **** 			{0x4Fu, 0x04u},
 467:.\Generated_Source\PSoC5/cyfitter_cfg.c **** 			{0x50u, 0x18u},
 468:.\Generated_Source\PSoC5/cyfitter_cfg.c **** 			{0x58u, 0x04u},
 469:.\Generated_Source\PSoC5/cyfitter_cfg.c **** 			{0x59u, 0x04u},
 470:.\Generated_Source\PSoC5/cyfitter_cfg.c **** 			{0x5Au, 0x04u},
 471:.\Generated_Source\PSoC5/cyfitter_cfg.c **** 			{0x5Bu, 0x04u},
 472:.\Generated_Source\PSoC5/cyfitter_cfg.c **** 			{0x5Cu, 0x44u},
 473:.\Generated_Source\PSoC5/cyfitter_cfg.c **** 			{0x5Du, 0x04u},
 474:.\Generated_Source\PSoC5/cyfitter_cfg.c **** 			{0x5Fu, 0x01u},
 475:.\Generated_Source\PSoC5/cyfitter_cfg.c **** 			{0x60u, 0x40u},
 476:.\Generated_Source\PSoC5/cyfitter_cfg.c **** 			{0x62u, 0xC0u},
 477:.\Generated_Source\PSoC5/cyfitter_cfg.c **** 			{0x64u, 0x40u},
 478:.\Generated_Source\PSoC5/cyfitter_cfg.c **** 			{0x65u, 0x40u},
 479:.\Generated_Source\PSoC5/cyfitter_cfg.c **** 			{0x66u, 0xC0u},
 480:.\Generated_Source\PSoC5/cyfitter_cfg.c **** 			{0x68u, 0xC0u},
 481:.\Generated_Source\PSoC5/cyfitter_cfg.c **** 			{0x6Au, 0xC0u},
 482:.\Generated_Source\PSoC5/cyfitter_cfg.c **** 			{0x6Cu, 0xC0u},
 483:.\Generated_Source\PSoC5/cyfitter_cfg.c **** 			{0x6Eu, 0xC0u},
 484:.\Generated_Source\PSoC5/cyfitter_cfg.c **** 			{0x80u, 0x01u},
 485:.\Generated_Source\PSoC5/cyfitter_cfg.c **** 			{0x81u, 0x02u},
 486:.\Generated_Source\PSoC5/cyfitter_cfg.c **** 			{0x85u, 0x02u},
 487:.\Generated_Source\PSoC5/cyfitter_cfg.c **** 			{0x89u, 0x02u},
 488:.\Generated_Source\PSoC5/cyfitter_cfg.c **** 			{0x8Cu, 0x01u},
 489:.\Generated_Source\PSoC5/cyfitter_cfg.c **** 			{0x8Du, 0x08u},
 490:.\Generated_Source\PSoC5/cyfitter_cfg.c **** 			{0x91u, 0x02u},
 491:.\Generated_Source\PSoC5/cyfitter_cfg.c **** 			{0x97u, 0x08u},
 492:.\Generated_Source\PSoC5/cyfitter_cfg.c **** 			{0x99u, 0x02u},
ARM GAS  C:\Users\xavieran\AppData\Local\Temp\ccwd941Y.s 			page 20


 493:.\Generated_Source\PSoC5/cyfitter_cfg.c **** 			{0x9Eu, 0x01u},
 494:.\Generated_Source\PSoC5/cyfitter_cfg.c **** 			{0x9Fu, 0x01u},
 495:.\Generated_Source\PSoC5/cyfitter_cfg.c **** 			{0xA1u, 0x04u},
 496:.\Generated_Source\PSoC5/cyfitter_cfg.c **** 			{0xA7u, 0x10u},
 497:.\Generated_Source\PSoC5/cyfitter_cfg.c **** 			{0xABu, 0x10u},
 498:.\Generated_Source\PSoC5/cyfitter_cfg.c **** 			{0xB1u, 0x07u},
 499:.\Generated_Source\PSoC5/cyfitter_cfg.c **** 			{0xB3u, 0x10u},
 500:.\Generated_Source\PSoC5/cyfitter_cfg.c **** 			{0xB6u, 0x01u},
 501:.\Generated_Source\PSoC5/cyfitter_cfg.c **** 			{0xB7u, 0x08u},
 502:.\Generated_Source\PSoC5/cyfitter_cfg.c **** 			{0xB9u, 0x02u},
 503:.\Generated_Source\PSoC5/cyfitter_cfg.c **** 			{0xBFu, 0x05u},
 504:.\Generated_Source\PSoC5/cyfitter_cfg.c **** 			{0xC0u, 0x60u},
 505:.\Generated_Source\PSoC5/cyfitter_cfg.c **** 			{0xC1u, 0x03u},
 506:.\Generated_Source\PSoC5/cyfitter_cfg.c **** 			{0xC5u, 0xD1u},
 507:.\Generated_Source\PSoC5/cyfitter_cfg.c **** 			{0xC7u, 0x02u},
 508:.\Generated_Source\PSoC5/cyfitter_cfg.c **** 			{0xC8u, 0x13u},
 509:.\Generated_Source\PSoC5/cyfitter_cfg.c **** 			{0xC9u, 0xFFu},
 510:.\Generated_Source\PSoC5/cyfitter_cfg.c **** 			{0xCAu, 0xFFu},
 511:.\Generated_Source\PSoC5/cyfitter_cfg.c **** 			{0xCBu, 0xFFu},
 512:.\Generated_Source\PSoC5/cyfitter_cfg.c **** 			{0xCDu, 0xAFu},
 513:.\Generated_Source\PSoC5/cyfitter_cfg.c **** 			{0xCEu, 0x0Fu},
 514:.\Generated_Source\PSoC5/cyfitter_cfg.c **** 			{0xCFu, 0x04u},
 515:.\Generated_Source\PSoC5/cyfitter_cfg.c **** 			{0xD0u, 0x18u},
 516:.\Generated_Source\PSoC5/cyfitter_cfg.c **** 			{0xD4u, 0x05u},
 517:.\Generated_Source\PSoC5/cyfitter_cfg.c **** 			{0xD8u, 0x04u},
 518:.\Generated_Source\PSoC5/cyfitter_cfg.c **** 			{0xD9u, 0x04u},
 519:.\Generated_Source\PSoC5/cyfitter_cfg.c **** 			{0xDAu, 0x04u},
 520:.\Generated_Source\PSoC5/cyfitter_cfg.c **** 			{0xDBu, 0x04u},
 521:.\Generated_Source\PSoC5/cyfitter_cfg.c **** 			{0xDCu, 0x42u},
 522:.\Generated_Source\PSoC5/cyfitter_cfg.c **** 			{0xDDu, 0x44u},
 523:.\Generated_Source\PSoC5/cyfitter_cfg.c **** 			{0xDFu, 0x01u},
 524:.\Generated_Source\PSoC5/cyfitter_cfg.c **** 			{0xE0u, 0x40u},
 525:.\Generated_Source\PSoC5/cyfitter_cfg.c **** 			{0xE2u, 0xC0u},
 526:.\Generated_Source\PSoC5/cyfitter_cfg.c **** 			{0xE4u, 0x40u},
 527:.\Generated_Source\PSoC5/cyfitter_cfg.c **** 			{0xE5u, 0x40u},
 528:.\Generated_Source\PSoC5/cyfitter_cfg.c **** 			{0xE6u, 0xC0u},
 529:.\Generated_Source\PSoC5/cyfitter_cfg.c **** 			{0xE8u, 0xC0u},
 530:.\Generated_Source\PSoC5/cyfitter_cfg.c **** 			{0xEAu, 0xC0u},
 531:.\Generated_Source\PSoC5/cyfitter_cfg.c **** 			{0xECu, 0xC0u},
 532:.\Generated_Source\PSoC5/cyfitter_cfg.c **** 			{0xEEu, 0xC0u},
 533:.\Generated_Source\PSoC5/cyfitter_cfg.c **** 			{0x00u, 0x80u},
 534:.\Generated_Source\PSoC5/cyfitter_cfg.c **** 			{0x03u, 0x80u},
 535:.\Generated_Source\PSoC5/cyfitter_cfg.c **** 			{0x05u, 0x04u},
 536:.\Generated_Source\PSoC5/cyfitter_cfg.c **** 			{0x06u, 0x80u},
 537:.\Generated_Source\PSoC5/cyfitter_cfg.c **** 			{0x0Au, 0x01u},
 538:.\Generated_Source\PSoC5/cyfitter_cfg.c **** 			{0x1Au, 0x01u},
 539:.\Generated_Source\PSoC5/cyfitter_cfg.c **** 			{0x1Cu, 0x40u},
 540:.\Generated_Source\PSoC5/cyfitter_cfg.c **** 			{0x1Du, 0x08u},
 541:.\Generated_Source\PSoC5/cyfitter_cfg.c **** 			{0x20u, 0x80u},
 542:.\Generated_Source\PSoC5/cyfitter_cfg.c **** 			{0x22u, 0x44u},
 543:.\Generated_Source\PSoC5/cyfitter_cfg.c **** 			{0x27u, 0x10u},
 544:.\Generated_Source\PSoC5/cyfitter_cfg.c **** 			{0x28u, 0x40u},
 545:.\Generated_Source\PSoC5/cyfitter_cfg.c **** 			{0x29u, 0x10u},
 546:.\Generated_Source\PSoC5/cyfitter_cfg.c **** 			{0x2Au, 0x21u},
 547:.\Generated_Source\PSoC5/cyfitter_cfg.c **** 			{0x2Bu, 0x10u},
 548:.\Generated_Source\PSoC5/cyfitter_cfg.c **** 			{0x31u, 0x04u},
 549:.\Generated_Source\PSoC5/cyfitter_cfg.c **** 			{0x32u, 0x11u},
ARM GAS  C:\Users\xavieran\AppData\Local\Temp\ccwd941Y.s 			page 21


 550:.\Generated_Source\PSoC5/cyfitter_cfg.c **** 			{0x33u, 0x40u},
 551:.\Generated_Source\PSoC5/cyfitter_cfg.c **** 			{0x35u, 0x04u},
 552:.\Generated_Source\PSoC5/cyfitter_cfg.c **** 			{0x38u, 0x44u},
 553:.\Generated_Source\PSoC5/cyfitter_cfg.c **** 			{0x39u, 0x02u},
 554:.\Generated_Source\PSoC5/cyfitter_cfg.c **** 			{0x3Au, 0x10u},
 555:.\Generated_Source\PSoC5/cyfitter_cfg.c **** 			{0x3Eu, 0x20u},
 556:.\Generated_Source\PSoC5/cyfitter_cfg.c **** 			{0x41u, 0x04u},
 557:.\Generated_Source\PSoC5/cyfitter_cfg.c **** 			{0x45u, 0x08u},
 558:.\Generated_Source\PSoC5/cyfitter_cfg.c **** 			{0x46u, 0x20u},
 559:.\Generated_Source\PSoC5/cyfitter_cfg.c **** 			{0x49u, 0x15u},
 560:.\Generated_Source\PSoC5/cyfitter_cfg.c **** 			{0x4Cu, 0x04u},
 561:.\Generated_Source\PSoC5/cyfitter_cfg.c **** 			{0x4Fu, 0x20u},
 562:.\Generated_Source\PSoC5/cyfitter_cfg.c **** 			{0x50u, 0x04u},
 563:.\Generated_Source\PSoC5/cyfitter_cfg.c **** 			{0x51u, 0x04u},
 564:.\Generated_Source\PSoC5/cyfitter_cfg.c **** 			{0x59u, 0x01u},
 565:.\Generated_Source\PSoC5/cyfitter_cfg.c **** 			{0x5Au, 0x88u},
 566:.\Generated_Source\PSoC5/cyfitter_cfg.c **** 			{0x6Cu, 0x60u},
 567:.\Generated_Source\PSoC5/cyfitter_cfg.c **** 			{0x6Eu, 0x80u},
 568:.\Generated_Source\PSoC5/cyfitter_cfg.c **** 			{0x6Fu, 0x04u},
 569:.\Generated_Source\PSoC5/cyfitter_cfg.c **** 			{0x74u, 0x80u},
 570:.\Generated_Source\PSoC5/cyfitter_cfg.c **** 			{0x77u, 0x08u},
 571:.\Generated_Source\PSoC5/cyfitter_cfg.c **** 			{0x86u, 0x40u},
 572:.\Generated_Source\PSoC5/cyfitter_cfg.c **** 			{0x87u, 0x08u},
 573:.\Generated_Source\PSoC5/cyfitter_cfg.c **** 			{0x88u, 0x40u},
 574:.\Generated_Source\PSoC5/cyfitter_cfg.c **** 			{0x8Cu, 0x80u},
 575:.\Generated_Source\PSoC5/cyfitter_cfg.c **** 			{0x8Fu, 0x44u},
 576:.\Generated_Source\PSoC5/cyfitter_cfg.c **** 			{0x90u, 0x04u},
 577:.\Generated_Source\PSoC5/cyfitter_cfg.c **** 			{0x9Au, 0x10u},
 578:.\Generated_Source\PSoC5/cyfitter_cfg.c **** 			{0xB2u, 0x10u},
 579:.\Generated_Source\PSoC5/cyfitter_cfg.c **** 			{0xB4u, 0x04u},
 580:.\Generated_Source\PSoC5/cyfitter_cfg.c **** 			{0xC0u, 0x39u},
 581:.\Generated_Source\PSoC5/cyfitter_cfg.c **** 			{0xC2u, 0x01u},
 582:.\Generated_Source\PSoC5/cyfitter_cfg.c **** 			{0xCAu, 0x07u},
 583:.\Generated_Source\PSoC5/cyfitter_cfg.c **** 			{0xCCu, 0x4Fu},
 584:.\Generated_Source\PSoC5/cyfitter_cfg.c **** 			{0xCEu, 0x2Fu},
 585:.\Generated_Source\PSoC5/cyfitter_cfg.c **** 			{0xD0u, 0x42u},
 586:.\Generated_Source\PSoC5/cyfitter_cfg.c **** 			{0xD2u, 0x24u},
 587:.\Generated_Source\PSoC5/cyfitter_cfg.c **** 			{0xD6u, 0x0Bu},
 588:.\Generated_Source\PSoC5/cyfitter_cfg.c **** 			{0xE6u, 0x50u},
 589:.\Generated_Source\PSoC5/cyfitter_cfg.c **** 			{0xE8u, 0x04u},
 590:.\Generated_Source\PSoC5/cyfitter_cfg.c **** 			{0x00u, 0xFFu},
 591:.\Generated_Source\PSoC5/cyfitter_cfg.c **** 			{0x01u, 0x40u},
 592:.\Generated_Source\PSoC5/cyfitter_cfg.c **** 			{0x03u, 0x07u},
 593:.\Generated_Source\PSoC5/cyfitter_cfg.c **** 			{0x04u, 0xA5u},
 594:.\Generated_Source\PSoC5/cyfitter_cfg.c **** 			{0x05u, 0x22u},
 595:.\Generated_Source\PSoC5/cyfitter_cfg.c **** 			{0x06u, 0x4Au},
 596:.\Generated_Source\PSoC5/cyfitter_cfg.c **** 			{0x07u, 0x05u},
 597:.\Generated_Source\PSoC5/cyfitter_cfg.c **** 			{0x08u, 0xA9u},
 598:.\Generated_Source\PSoC5/cyfitter_cfg.c **** 			{0x09u, 0x01u},
 599:.\Generated_Source\PSoC5/cyfitter_cfg.c **** 			{0x0Au, 0x54u},
 600:.\Generated_Source\PSoC5/cyfitter_cfg.c **** 			{0x0Du, 0x03u},
 601:.\Generated_Source\PSoC5/cyfitter_cfg.c **** 			{0x0Eu, 0xB5u},
 602:.\Generated_Source\PSoC5/cyfitter_cfg.c **** 			{0x11u, 0x10u},
 603:.\Generated_Source\PSoC5/cyfitter_cfg.c **** 			{0x12u, 0x01u},
 604:.\Generated_Source\PSoC5/cyfitter_cfg.c **** 			{0x13u, 0x07u},
 605:.\Generated_Source\PSoC5/cyfitter_cfg.c **** 			{0x14u, 0x4Du},
 606:.\Generated_Source\PSoC5/cyfitter_cfg.c **** 			{0x15u, 0x08u},
ARM GAS  C:\Users\xavieran\AppData\Local\Temp\ccwd941Y.s 			page 22


 607:.\Generated_Source\PSoC5/cyfitter_cfg.c **** 			{0x16u, 0x92u},
 608:.\Generated_Source\PSoC5/cyfitter_cfg.c **** 			{0x17u, 0x07u},
 609:.\Generated_Source\PSoC5/cyfitter_cfg.c **** 			{0x18u, 0x04u},
 610:.\Generated_Source\PSoC5/cyfitter_cfg.c **** 			{0x19u, 0x01u},
 611:.\Generated_Source\PSoC5/cyfitter_cfg.c **** 			{0x1Cu, 0x02u},
 612:.\Generated_Source\PSoC5/cyfitter_cfg.c **** 			{0x1Du, 0x7Fu},
 613:.\Generated_Source\PSoC5/cyfitter_cfg.c **** 			{0x21u, 0x03u},
 614:.\Generated_Source\PSoC5/cyfitter_cfg.c **** 			{0x22u, 0x04u},
 615:.\Generated_Source\PSoC5/cyfitter_cfg.c **** 			{0x24u, 0xCCu},
 616:.\Generated_Source\PSoC5/cyfitter_cfg.c **** 			{0x25u, 0x01u},
 617:.\Generated_Source\PSoC5/cyfitter_cfg.c **** 			{0x26u, 0x13u},
 618:.\Generated_Source\PSoC5/cyfitter_cfg.c **** 			{0x29u, 0x3Au},
 619:.\Generated_Source\PSoC5/cyfitter_cfg.c **** 			{0x2Au, 0x02u},
 620:.\Generated_Source\PSoC5/cyfitter_cfg.c **** 			{0x2Bu, 0x04u},
 621:.\Generated_Source\PSoC5/cyfitter_cfg.c **** 			{0x2Cu, 0x1Au},
 622:.\Generated_Source\PSoC5/cyfitter_cfg.c **** 			{0x2Du, 0x05u},
 623:.\Generated_Source\PSoC5/cyfitter_cfg.c **** 			{0x2Eu, 0x60u},
 624:.\Generated_Source\PSoC5/cyfitter_cfg.c **** 			{0x2Fu, 0x78u},
 625:.\Generated_Source\PSoC5/cyfitter_cfg.c **** 			{0x36u, 0xFFu},
 626:.\Generated_Source\PSoC5/cyfitter_cfg.c **** 			{0x37u, 0x7Fu},
 627:.\Generated_Source\PSoC5/cyfitter_cfg.c **** 			{0x3Eu, 0x40u},
 628:.\Generated_Source\PSoC5/cyfitter_cfg.c **** 			{0x3Fu, 0x40u},
 629:.\Generated_Source\PSoC5/cyfitter_cfg.c **** 			{0x40u, 0x45u},
 630:.\Generated_Source\PSoC5/cyfitter_cfg.c **** 			{0x49u, 0xFFu},
 631:.\Generated_Source\PSoC5/cyfitter_cfg.c **** 			{0x4Au, 0xFFu},
 632:.\Generated_Source\PSoC5/cyfitter_cfg.c **** 			{0x4Bu, 0xFFu},
 633:.\Generated_Source\PSoC5/cyfitter_cfg.c **** 			{0x4Fu, 0x01u},
 634:.\Generated_Source\PSoC5/cyfitter_cfg.c **** 			{0x50u, 0x18u},
 635:.\Generated_Source\PSoC5/cyfitter_cfg.c **** 			{0x52u, 0x80u},
 636:.\Generated_Source\PSoC5/cyfitter_cfg.c **** 			{0x58u, 0x04u},
 637:.\Generated_Source\PSoC5/cyfitter_cfg.c **** 			{0x59u, 0x04u},
 638:.\Generated_Source\PSoC5/cyfitter_cfg.c **** 			{0x5Au, 0x04u},
 639:.\Generated_Source\PSoC5/cyfitter_cfg.c **** 			{0x5Bu, 0x04u},
 640:.\Generated_Source\PSoC5/cyfitter_cfg.c **** 			{0x5Du, 0x55u},
 641:.\Generated_Source\PSoC5/cyfitter_cfg.c **** 			{0x5Fu, 0x01u},
 642:.\Generated_Source\PSoC5/cyfitter_cfg.c **** 			{0x60u, 0x40u},
 643:.\Generated_Source\PSoC5/cyfitter_cfg.c **** 			{0x62u, 0x40u},
 644:.\Generated_Source\PSoC5/cyfitter_cfg.c **** 			{0x64u, 0x40u},
 645:.\Generated_Source\PSoC5/cyfitter_cfg.c **** 			{0x65u, 0x40u},
 646:.\Generated_Source\PSoC5/cyfitter_cfg.c **** 			{0x66u, 0x80u},
 647:.\Generated_Source\PSoC5/cyfitter_cfg.c **** 			{0x68u, 0x80u},
 648:.\Generated_Source\PSoC5/cyfitter_cfg.c **** 			{0x6Au, 0x80u},
 649:.\Generated_Source\PSoC5/cyfitter_cfg.c **** 			{0x6Cu, 0x80u},
 650:.\Generated_Source\PSoC5/cyfitter_cfg.c **** 			{0x6Eu, 0x80u},
 651:.\Generated_Source\PSoC5/cyfitter_cfg.c **** 			{0x84u, 0x01u},
 652:.\Generated_Source\PSoC5/cyfitter_cfg.c **** 			{0x8Cu, 0x01u},
 653:.\Generated_Source\PSoC5/cyfitter_cfg.c **** 			{0x92u, 0x01u},
 654:.\Generated_Source\PSoC5/cyfitter_cfg.c **** 			{0x94u, 0x01u},
 655:.\Generated_Source\PSoC5/cyfitter_cfg.c **** 			{0x9Eu, 0x02u},
 656:.\Generated_Source\PSoC5/cyfitter_cfg.c **** 			{0xA0u, 0x01u},
 657:.\Generated_Source\PSoC5/cyfitter_cfg.c **** 			{0xA4u, 0x01u},
 658:.\Generated_Source\PSoC5/cyfitter_cfg.c **** 			{0xB2u, 0x03u},
 659:.\Generated_Source\PSoC5/cyfitter_cfg.c **** 			{0xC0u, 0x15u},
 660:.\Generated_Source\PSoC5/cyfitter_cfg.c **** 			{0xC9u, 0xFFu},
 661:.\Generated_Source\PSoC5/cyfitter_cfg.c **** 			{0xCAu, 0xFFu},
 662:.\Generated_Source\PSoC5/cyfitter_cfg.c **** 			{0xCBu, 0xFFu},
 663:.\Generated_Source\PSoC5/cyfitter_cfg.c **** 			{0xCDu, 0x83u},
ARM GAS  C:\Users\xavieran\AppData\Local\Temp\ccwd941Y.s 			page 23


 664:.\Generated_Source\PSoC5/cyfitter_cfg.c **** 			{0xCEu, 0x03u},
 665:.\Generated_Source\PSoC5/cyfitter_cfg.c **** 			{0xCFu, 0x01u},
 666:.\Generated_Source\PSoC5/cyfitter_cfg.c **** 			{0xD0u, 0x18u},
 667:.\Generated_Source\PSoC5/cyfitter_cfg.c **** 			{0xD2u, 0x80u},
 668:.\Generated_Source\PSoC5/cyfitter_cfg.c **** 			{0xD8u, 0x04u},
 669:.\Generated_Source\PSoC5/cyfitter_cfg.c **** 			{0xDAu, 0x04u},
 670:.\Generated_Source\PSoC5/cyfitter_cfg.c **** 			{0xDBu, 0x04u},
 671:.\Generated_Source\PSoC5/cyfitter_cfg.c **** 			{0xDCu, 0x02u},
 672:.\Generated_Source\PSoC5/cyfitter_cfg.c **** 			{0xDDu, 0x45u},
 673:.\Generated_Source\PSoC5/cyfitter_cfg.c **** 			{0xDFu, 0x01u},
 674:.\Generated_Source\PSoC5/cyfitter_cfg.c **** 			{0xE0u, 0x40u},
 675:.\Generated_Source\PSoC5/cyfitter_cfg.c **** 			{0xE2u, 0x40u},
 676:.\Generated_Source\PSoC5/cyfitter_cfg.c **** 			{0xE4u, 0x40u},
 677:.\Generated_Source\PSoC5/cyfitter_cfg.c **** 			{0xE5u, 0x40u},
 678:.\Generated_Source\PSoC5/cyfitter_cfg.c **** 			{0xE6u, 0x80u},
 679:.\Generated_Source\PSoC5/cyfitter_cfg.c **** 			{0xE8u, 0x80u},
 680:.\Generated_Source\PSoC5/cyfitter_cfg.c **** 			{0xEAu, 0x80u},
 681:.\Generated_Source\PSoC5/cyfitter_cfg.c **** 			{0xECu, 0x80u},
 682:.\Generated_Source\PSoC5/cyfitter_cfg.c **** 			{0xEEu, 0x80u},
 683:.\Generated_Source\PSoC5/cyfitter_cfg.c **** 			{0x00u, 0x04u},
 684:.\Generated_Source\PSoC5/cyfitter_cfg.c **** 			{0x01u, 0x20u},
 685:.\Generated_Source\PSoC5/cyfitter_cfg.c **** 			{0x02u, 0x03u},
 686:.\Generated_Source\PSoC5/cyfitter_cfg.c **** 			{0x03u, 0xA0u},
 687:.\Generated_Source\PSoC5/cyfitter_cfg.c **** 			{0x04u, 0x04u},
 688:.\Generated_Source\PSoC5/cyfitter_cfg.c **** 			{0x05u, 0x40u},
 689:.\Generated_Source\PSoC5/cyfitter_cfg.c **** 			{0x08u, 0x94u},
 690:.\Generated_Source\PSoC5/cyfitter_cfg.c **** 			{0x09u, 0x02u},
 691:.\Generated_Source\PSoC5/cyfitter_cfg.c **** 			{0x0Au, 0x25u},
 692:.\Generated_Source\PSoC5/cyfitter_cfg.c **** 			{0x0Cu, 0x04u},
 693:.\Generated_Source\PSoC5/cyfitter_cfg.c **** 			{0x0Fu, 0x41u},
 694:.\Generated_Source\PSoC5/cyfitter_cfg.c **** 			{0x10u, 0x80u},
 695:.\Generated_Source\PSoC5/cyfitter_cfg.c **** 			{0x12u, 0x10u},
 696:.\Generated_Source\PSoC5/cyfitter_cfg.c **** 			{0x13u, 0x50u},
 697:.\Generated_Source\PSoC5/cyfitter_cfg.c **** 			{0x14u, 0x40u},
 698:.\Generated_Source\PSoC5/cyfitter_cfg.c **** 			{0x16u, 0x10u},
 699:.\Generated_Source\PSoC5/cyfitter_cfg.c **** 			{0x18u, 0x02u},
 700:.\Generated_Source\PSoC5/cyfitter_cfg.c **** 			{0x1Fu, 0x08u},
 701:.\Generated_Source\PSoC5/cyfitter_cfg.c **** 			{0x23u, 0x01u},
 702:.\Generated_Source\PSoC5/cyfitter_cfg.c **** 			{0x28u, 0x92u},
 703:.\Generated_Source\PSoC5/cyfitter_cfg.c **** 			{0x29u, 0x20u},
 704:.\Generated_Source\PSoC5/cyfitter_cfg.c **** 			{0x30u, 0x05u},
 705:.\Generated_Source\PSoC5/cyfitter_cfg.c **** 			{0x31u, 0x40u},
 706:.\Generated_Source\PSoC5/cyfitter_cfg.c **** 			{0x33u, 0x90u},
 707:.\Generated_Source\PSoC5/cyfitter_cfg.c **** 			{0x38u, 0x04u},
 708:.\Generated_Source\PSoC5/cyfitter_cfg.c **** 			{0x39u, 0x80u},
 709:.\Generated_Source\PSoC5/cyfitter_cfg.c **** 			{0x3Au, 0x01u},
 710:.\Generated_Source\PSoC5/cyfitter_cfg.c **** 			{0x3Bu, 0x10u},
 711:.\Generated_Source\PSoC5/cyfitter_cfg.c **** 			{0x42u, 0x40u},
 712:.\Generated_Source\PSoC5/cyfitter_cfg.c **** 			{0x47u, 0x80u},
 713:.\Generated_Source\PSoC5/cyfitter_cfg.c **** 			{0x48u, 0x02u},
 714:.\Generated_Source\PSoC5/cyfitter_cfg.c **** 			{0x4Cu, 0x02u},
 715:.\Generated_Source\PSoC5/cyfitter_cfg.c **** 			{0x72u, 0x40u},
 716:.\Generated_Source\PSoC5/cyfitter_cfg.c **** 			{0x73u, 0x80u},
 717:.\Generated_Source\PSoC5/cyfitter_cfg.c **** 			{0x76u, 0x80u},
 718:.\Generated_Source\PSoC5/cyfitter_cfg.c **** 			{0x84u, 0x01u},
 719:.\Generated_Source\PSoC5/cyfitter_cfg.c **** 			{0x86u, 0x10u},
 720:.\Generated_Source\PSoC5/cyfitter_cfg.c **** 			{0x8Cu, 0x01u},
ARM GAS  C:\Users\xavieran\AppData\Local\Temp\ccwd941Y.s 			page 24


 721:.\Generated_Source\PSoC5/cyfitter_cfg.c **** 			{0x8Du, 0x21u},
 722:.\Generated_Source\PSoC5/cyfitter_cfg.c **** 			{0x90u, 0x04u},
 723:.\Generated_Source\PSoC5/cyfitter_cfg.c **** 			{0x92u, 0x01u},
 724:.\Generated_Source\PSoC5/cyfitter_cfg.c **** 			{0x95u, 0x02u},
 725:.\Generated_Source\PSoC5/cyfitter_cfg.c **** 			{0x96u, 0x22u},
 726:.\Generated_Source\PSoC5/cyfitter_cfg.c **** 			{0x9Au, 0x11u},
 727:.\Generated_Source\PSoC5/cyfitter_cfg.c **** 			{0x9Eu, 0x80u},
 728:.\Generated_Source\PSoC5/cyfitter_cfg.c **** 			{0xA7u, 0x80u},
 729:.\Generated_Source\PSoC5/cyfitter_cfg.c **** 			{0xA8u, 0x20u},
 730:.\Generated_Source\PSoC5/cyfitter_cfg.c **** 			{0xABu, 0x10u},
 731:.\Generated_Source\PSoC5/cyfitter_cfg.c **** 			{0xB0u, 0x40u},
 732:.\Generated_Source\PSoC5/cyfitter_cfg.c **** 			{0xB4u, 0x40u},
 733:.\Generated_Source\PSoC5/cyfitter_cfg.c **** 			{0xC0u, 0xAFu},
 734:.\Generated_Source\PSoC5/cyfitter_cfg.c **** 			{0xC2u, 0xBFu},
 735:.\Generated_Source\PSoC5/cyfitter_cfg.c **** 			{0xC4u, 0x3Fu},
 736:.\Generated_Source\PSoC5/cyfitter_cfg.c **** 			{0xCAu, 0x0Fu},
 737:.\Generated_Source\PSoC5/cyfitter_cfg.c **** 			{0xCCu, 0x0Fu},
 738:.\Generated_Source\PSoC5/cyfitter_cfg.c **** 			{0xCEu, 0x0Fu},
 739:.\Generated_Source\PSoC5/cyfitter_cfg.c **** 			{0xD0u, 0x11u},
 740:.\Generated_Source\PSoC5/cyfitter_cfg.c **** 			{0xD2u, 0x18u},
 741:.\Generated_Source\PSoC5/cyfitter_cfg.c **** 			{0xE2u, 0x80u},
 742:.\Generated_Source\PSoC5/cyfitter_cfg.c **** 			{0xE8u, 0x80u},
 743:.\Generated_Source\PSoC5/cyfitter_cfg.c **** 			{0xEAu, 0x12u},
 744:.\Generated_Source\PSoC5/cyfitter_cfg.c **** 			{0xEEu, 0x10u},
 745:.\Generated_Source\PSoC5/cyfitter_cfg.c **** 			{0x03u, 0x01u},
 746:.\Generated_Source\PSoC5/cyfitter_cfg.c **** 			{0x2Fu, 0x01u},
 747:.\Generated_Source\PSoC5/cyfitter_cfg.c **** 			{0x31u, 0x01u},
 748:.\Generated_Source\PSoC5/cyfitter_cfg.c **** 			{0x3Fu, 0x01u},
 749:.\Generated_Source\PSoC5/cyfitter_cfg.c **** 			{0x40u, 0x45u},
 750:.\Generated_Source\PSoC5/cyfitter_cfg.c **** 			{0x45u, 0xECu},
 751:.\Generated_Source\PSoC5/cyfitter_cfg.c **** 			{0x47u, 0x20u},
 752:.\Generated_Source\PSoC5/cyfitter_cfg.c **** 			{0x48u, 0x23u},
 753:.\Generated_Source\PSoC5/cyfitter_cfg.c **** 			{0x49u, 0xFFu},
 754:.\Generated_Source\PSoC5/cyfitter_cfg.c **** 			{0x4Au, 0xFFu},
 755:.\Generated_Source\PSoC5/cyfitter_cfg.c **** 			{0x4Bu, 0xFFu},
 756:.\Generated_Source\PSoC5/cyfitter_cfg.c **** 			{0x4Du, 0x83u},
 757:.\Generated_Source\PSoC5/cyfitter_cfg.c **** 			{0x4Eu, 0x03u},
 758:.\Generated_Source\PSoC5/cyfitter_cfg.c **** 			{0x4Fu, 0x01u},
 759:.\Generated_Source\PSoC5/cyfitter_cfg.c **** 			{0x50u, 0x18u},
 760:.\Generated_Source\PSoC5/cyfitter_cfg.c **** 			{0x54u, 0x01u},
 761:.\Generated_Source\PSoC5/cyfitter_cfg.c **** 			{0x59u, 0x04u},
 762:.\Generated_Source\PSoC5/cyfitter_cfg.c **** 			{0x5Au, 0x04u},
 763:.\Generated_Source\PSoC5/cyfitter_cfg.c **** 			{0x5Bu, 0x04u},
 764:.\Generated_Source\PSoC5/cyfitter_cfg.c **** 			{0x5Du, 0x55u},
 765:.\Generated_Source\PSoC5/cyfitter_cfg.c **** 			{0x5Fu, 0x01u},
 766:.\Generated_Source\PSoC5/cyfitter_cfg.c **** 			{0x60u, 0x40u},
 767:.\Generated_Source\PSoC5/cyfitter_cfg.c **** 			{0x62u, 0x40u},
 768:.\Generated_Source\PSoC5/cyfitter_cfg.c **** 			{0x64u, 0x40u},
 769:.\Generated_Source\PSoC5/cyfitter_cfg.c **** 			{0x65u, 0x40u},
 770:.\Generated_Source\PSoC5/cyfitter_cfg.c **** 			{0x66u, 0x80u},
 771:.\Generated_Source\PSoC5/cyfitter_cfg.c **** 			{0x68u, 0x80u},
 772:.\Generated_Source\PSoC5/cyfitter_cfg.c **** 			{0x6Au, 0x80u},
 773:.\Generated_Source\PSoC5/cyfitter_cfg.c **** 			{0x6Cu, 0x80u},
 774:.\Generated_Source\PSoC5/cyfitter_cfg.c **** 			{0x6Eu, 0x80u},
 775:.\Generated_Source\PSoC5/cyfitter_cfg.c **** 			{0x80u, 0x08u},
 776:.\Generated_Source\PSoC5/cyfitter_cfg.c **** 			{0x81u, 0xE2u},
 777:.\Generated_Source\PSoC5/cyfitter_cfg.c **** 			{0x82u, 0x02u},
ARM GAS  C:\Users\xavieran\AppData\Local\Temp\ccwd941Y.s 			page 25


 778:.\Generated_Source\PSoC5/cyfitter_cfg.c **** 			{0x85u, 0x5Du},
 779:.\Generated_Source\PSoC5/cyfitter_cfg.c **** 			{0x86u, 0x0Bu},
 780:.\Generated_Source\PSoC5/cyfitter_cfg.c **** 			{0x87u, 0xA2u},
 781:.\Generated_Source\PSoC5/cyfitter_cfg.c **** 			{0x88u, 0x0Fu},
 782:.\Generated_Source\PSoC5/cyfitter_cfg.c **** 			{0x89u, 0x92u},
 783:.\Generated_Source\PSoC5/cyfitter_cfg.c **** 			{0x8Bu, 0x60u},
 784:.\Generated_Source\PSoC5/cyfitter_cfg.c **** 			{0x8Cu, 0x10u},
 785:.\Generated_Source\PSoC5/cyfitter_cfg.c **** 			{0x8Du, 0x40u},
 786:.\Generated_Source\PSoC5/cyfitter_cfg.c **** 			{0x8Eu, 0x0Bu},
 787:.\Generated_Source\PSoC5/cyfitter_cfg.c **** 			{0x8Fu, 0x1Du},
 788:.\Generated_Source\PSoC5/cyfitter_cfg.c **** 			{0x92u, 0x14u},
 789:.\Generated_Source\PSoC5/cyfitter_cfg.c **** 			{0x93u, 0xFFu},
 790:.\Generated_Source\PSoC5/cyfitter_cfg.c **** 			{0x94u, 0x01u},
 791:.\Generated_Source\PSoC5/cyfitter_cfg.c **** 			{0x95u, 0x3Du},
 792:.\Generated_Source\PSoC5/cyfitter_cfg.c **** 			{0x97u, 0xC2u},
 793:.\Generated_Source\PSoC5/cyfitter_cfg.c **** 			{0x98u, 0x01u},
 794:.\Generated_Source\PSoC5/cyfitter_cfg.c **** 			{0x99u, 0x01u},
 795:.\Generated_Source\PSoC5/cyfitter_cfg.c **** 			{0x9Cu, 0x03u},
 796:.\Generated_Source\PSoC5/cyfitter_cfg.c **** 			{0x9Fu, 0x02u},
 797:.\Generated_Source\PSoC5/cyfitter_cfg.c **** 			{0xA0u, 0x1Fu},
 798:.\Generated_Source\PSoC5/cyfitter_cfg.c **** 			{0xA3u, 0x08u},
 799:.\Generated_Source\PSoC5/cyfitter_cfg.c **** 			{0xA5u, 0x04u},
 800:.\Generated_Source\PSoC5/cyfitter_cfg.c **** 			{0xA6u, 0x01u},
 801:.\Generated_Source\PSoC5/cyfitter_cfg.c **** 			{0xA7u, 0xE0u},
 802:.\Generated_Source\PSoC5/cyfitter_cfg.c **** 			{0xA8u, 0x02u},
 803:.\Generated_Source\PSoC5/cyfitter_cfg.c **** 			{0xA9u, 0x01u},
 804:.\Generated_Source\PSoC5/cyfitter_cfg.c **** 			{0xAAu, 0x09u},
 805:.\Generated_Source\PSoC5/cyfitter_cfg.c **** 			{0xACu, 0x03u},
 806:.\Generated_Source\PSoC5/cyfitter_cfg.c **** 			{0xADu, 0x0Du},
 807:.\Generated_Source\PSoC5/cyfitter_cfg.c **** 			{0xB4u, 0x1Fu},
 808:.\Generated_Source\PSoC5/cyfitter_cfg.c **** 			{0xB5u, 0xFFu},
 809:.\Generated_Source\PSoC5/cyfitter_cfg.c **** 			{0xBFu, 0x10u},
 810:.\Generated_Source\PSoC5/cyfitter_cfg.c **** 			{0xD2u, 0xF6u},
 811:.\Generated_Source\PSoC5/cyfitter_cfg.c **** 			{0xD8u, 0x04u},
 812:.\Generated_Source\PSoC5/cyfitter_cfg.c **** 			{0xD9u, 0x04u},
 813:.\Generated_Source\PSoC5/cyfitter_cfg.c **** 			{0xDBu, 0x04u},
 814:.\Generated_Source\PSoC5/cyfitter_cfg.c **** 			{0xDCu, 0x02u},
 815:.\Generated_Source\PSoC5/cyfitter_cfg.c **** 			{0xDDu, 0x20u},
 816:.\Generated_Source\PSoC5/cyfitter_cfg.c **** 			{0xDFu, 0x01u},
 817:.\Generated_Source\PSoC5/cyfitter_cfg.c **** 			{0x02u, 0x52u},
 818:.\Generated_Source\PSoC5/cyfitter_cfg.c **** 			{0x03u, 0x08u},
 819:.\Generated_Source\PSoC5/cyfitter_cfg.c **** 			{0x08u, 0x80u},
 820:.\Generated_Source\PSoC5/cyfitter_cfg.c **** 			{0x09u, 0x01u},
 821:.\Generated_Source\PSoC5/cyfitter_cfg.c **** 			{0x0Au, 0x04u},
 822:.\Generated_Source\PSoC5/cyfitter_cfg.c **** 			{0x0Bu, 0x10u},
 823:.\Generated_Source\PSoC5/cyfitter_cfg.c **** 			{0x0Cu, 0x04u},
 824:.\Generated_Source\PSoC5/cyfitter_cfg.c **** 			{0x0Fu, 0x10u},
 825:.\Generated_Source\PSoC5/cyfitter_cfg.c **** 			{0x11u, 0x45u},
 826:.\Generated_Source\PSoC5/cyfitter_cfg.c **** 			{0x12u, 0x04u},
 827:.\Generated_Source\PSoC5/cyfitter_cfg.c **** 			{0x14u, 0x02u},
 828:.\Generated_Source\PSoC5/cyfitter_cfg.c **** 			{0x15u, 0x40u},
 829:.\Generated_Source\PSoC5/cyfitter_cfg.c **** 			{0x18u, 0x04u},
 830:.\Generated_Source\PSoC5/cyfitter_cfg.c **** 			{0x19u, 0x20u},
 831:.\Generated_Source\PSoC5/cyfitter_cfg.c **** 			{0x22u, 0x20u},
 832:.\Generated_Source\PSoC5/cyfitter_cfg.c **** 			{0x27u, 0x80u},
 833:.\Generated_Source\PSoC5/cyfitter_cfg.c **** 			{0x28u, 0x86u},
 834:.\Generated_Source\PSoC5/cyfitter_cfg.c **** 			{0x2Au, 0x05u},
ARM GAS  C:\Users\xavieran\AppData\Local\Temp\ccwd941Y.s 			page 26


 835:.\Generated_Source\PSoC5/cyfitter_cfg.c **** 			{0x2Bu, 0x20u},
 836:.\Generated_Source\PSoC5/cyfitter_cfg.c **** 			{0x2Du, 0x01u},
 837:.\Generated_Source\PSoC5/cyfitter_cfg.c **** 			{0x2Eu, 0xC0u},
 838:.\Generated_Source\PSoC5/cyfitter_cfg.c **** 			{0x2Fu, 0x80u},
 839:.\Generated_Source\PSoC5/cyfitter_cfg.c **** 			{0x30u, 0xC0u},
 840:.\Generated_Source\PSoC5/cyfitter_cfg.c **** 			{0x31u, 0x10u},
 841:.\Generated_Source\PSoC5/cyfitter_cfg.c **** 			{0x32u, 0x06u},
 842:.\Generated_Source\PSoC5/cyfitter_cfg.c **** 			{0x33u, 0x08u},
 843:.\Generated_Source\PSoC5/cyfitter_cfg.c **** 			{0x38u, 0x04u},
 844:.\Generated_Source\PSoC5/cyfitter_cfg.c **** 			{0x39u, 0x01u},
 845:.\Generated_Source\PSoC5/cyfitter_cfg.c **** 			{0x3Au, 0x50u},
 846:.\Generated_Source\PSoC5/cyfitter_cfg.c **** 			{0x3Bu, 0x40u},
 847:.\Generated_Source\PSoC5/cyfitter_cfg.c **** 			{0x3Fu, 0x02u},
 848:.\Generated_Source\PSoC5/cyfitter_cfg.c **** 			{0x40u, 0x02u},
 849:.\Generated_Source\PSoC5/cyfitter_cfg.c **** 			{0x41u, 0x40u},
 850:.\Generated_Source\PSoC5/cyfitter_cfg.c **** 			{0x46u, 0x80u},
 851:.\Generated_Source\PSoC5/cyfitter_cfg.c **** 			{0x4Cu, 0x02u},
 852:.\Generated_Source\PSoC5/cyfitter_cfg.c **** 			{0x4Fu, 0x05u},
 853:.\Generated_Source\PSoC5/cyfitter_cfg.c **** 			{0x54u, 0x02u},
 854:.\Generated_Source\PSoC5/cyfitter_cfg.c **** 			{0x57u, 0x01u},
 855:.\Generated_Source\PSoC5/cyfitter_cfg.c **** 			{0x5Fu, 0x85u},
 856:.\Generated_Source\PSoC5/cyfitter_cfg.c **** 			{0x69u, 0x14u},
 857:.\Generated_Source\PSoC5/cyfitter_cfg.c **** 			{0x6Bu, 0x10u},
 858:.\Generated_Source\PSoC5/cyfitter_cfg.c **** 			{0x70u, 0x80u},
 859:.\Generated_Source\PSoC5/cyfitter_cfg.c **** 			{0x71u, 0x12u},
 860:.\Generated_Source\PSoC5/cyfitter_cfg.c **** 			{0x72u, 0x04u},
 861:.\Generated_Source\PSoC5/cyfitter_cfg.c **** 			{0x73u, 0x10u},
 862:.\Generated_Source\PSoC5/cyfitter_cfg.c **** 			{0x92u, 0x40u},
 863:.\Generated_Source\PSoC5/cyfitter_cfg.c **** 			{0x95u, 0x80u},
 864:.\Generated_Source\PSoC5/cyfitter_cfg.c **** 			{0x96u, 0x24u},
 865:.\Generated_Source\PSoC5/cyfitter_cfg.c **** 			{0x97u, 0x10u},
 866:.\Generated_Source\PSoC5/cyfitter_cfg.c **** 			{0x98u, 0x81u},
 867:.\Generated_Source\PSoC5/cyfitter_cfg.c **** 			{0x9Au, 0x10u},
 868:.\Generated_Source\PSoC5/cyfitter_cfg.c **** 			{0x9Cu, 0x40u},
 869:.\Generated_Source\PSoC5/cyfitter_cfg.c **** 			{0x9Du, 0x20u},
 870:.\Generated_Source\PSoC5/cyfitter_cfg.c **** 			{0x9Fu, 0x10u},
 871:.\Generated_Source\PSoC5/cyfitter_cfg.c **** 			{0xA1u, 0x01u},
 872:.\Generated_Source\PSoC5/cyfitter_cfg.c **** 			{0xA2u, 0x02u},
 873:.\Generated_Source\PSoC5/cyfitter_cfg.c **** 			{0xA3u, 0x28u},
 874:.\Generated_Source\PSoC5/cyfitter_cfg.c **** 			{0xA4u, 0x82u},
 875:.\Generated_Source\PSoC5/cyfitter_cfg.c **** 			{0xA5u, 0x02u},
 876:.\Generated_Source\PSoC5/cyfitter_cfg.c **** 			{0xA7u, 0x80u},
 877:.\Generated_Source\PSoC5/cyfitter_cfg.c **** 			{0xABu, 0x80u},
 878:.\Generated_Source\PSoC5/cyfitter_cfg.c **** 			{0xADu, 0x21u},
 879:.\Generated_Source\PSoC5/cyfitter_cfg.c **** 			{0xB0u, 0x02u},
 880:.\Generated_Source\PSoC5/cyfitter_cfg.c **** 			{0xB2u, 0x01u},
 881:.\Generated_Source\PSoC5/cyfitter_cfg.c **** 			{0xB3u, 0x48u},
 882:.\Generated_Source\PSoC5/cyfitter_cfg.c **** 			{0xC0u, 0x0Fu},
 883:.\Generated_Source\PSoC5/cyfitter_cfg.c **** 			{0xC2u, 0x0Fu},
 884:.\Generated_Source\PSoC5/cyfitter_cfg.c **** 			{0xC4u, 0x0Fu},
 885:.\Generated_Source\PSoC5/cyfitter_cfg.c **** 			{0xCAu, 0x1Fu},
 886:.\Generated_Source\PSoC5/cyfitter_cfg.c **** 			{0xCCu, 0x0Fu},
 887:.\Generated_Source\PSoC5/cyfitter_cfg.c **** 			{0xCEu, 0x8Fu},
 888:.\Generated_Source\PSoC5/cyfitter_cfg.c **** 			{0xD0u, 0x80u},
 889:.\Generated_Source\PSoC5/cyfitter_cfg.c **** 			{0xD2u, 0x10u},
 890:.\Generated_Source\PSoC5/cyfitter_cfg.c **** 			{0xD6u, 0xD0u},
 891:.\Generated_Source\PSoC5/cyfitter_cfg.c **** 			{0xE0u, 0x80u},
ARM GAS  C:\Users\xavieran\AppData\Local\Temp\ccwd941Y.s 			page 27


 892:.\Generated_Source\PSoC5/cyfitter_cfg.c **** 			{0xE2u, 0x04u},
 893:.\Generated_Source\PSoC5/cyfitter_cfg.c **** 			{0xE4u, 0x04u},
 894:.\Generated_Source\PSoC5/cyfitter_cfg.c **** 			{0xECu, 0x04u},
 895:.\Generated_Source\PSoC5/cyfitter_cfg.c **** 			{0x03u, 0x06u},
 896:.\Generated_Source\PSoC5/cyfitter_cfg.c **** 			{0x07u, 0x06u},
 897:.\Generated_Source\PSoC5/cyfitter_cfg.c **** 			{0x0Cu, 0x06u},
 898:.\Generated_Source\PSoC5/cyfitter_cfg.c **** 			{0x0Du, 0x06u},
 899:.\Generated_Source\PSoC5/cyfitter_cfg.c **** 			{0x0Eu, 0x01u},
 900:.\Generated_Source\PSoC5/cyfitter_cfg.c **** 			{0x11u, 0x06u},
 901:.\Generated_Source\PSoC5/cyfitter_cfg.c **** 			{0x14u, 0x01u},
 902:.\Generated_Source\PSoC5/cyfitter_cfg.c **** 			{0x15u, 0x04u},
 903:.\Generated_Source\PSoC5/cyfitter_cfg.c **** 			{0x16u, 0x0Eu},
 904:.\Generated_Source\PSoC5/cyfitter_cfg.c **** 			{0x17u, 0x03u},
 905:.\Generated_Source\PSoC5/cyfitter_cfg.c **** 			{0x18u, 0x01u},
 906:.\Generated_Source\PSoC5/cyfitter_cfg.c **** 			{0x19u, 0x02u},
 907:.\Generated_Source\PSoC5/cyfitter_cfg.c **** 			{0x1Au, 0x08u},
 908:.\Generated_Source\PSoC5/cyfitter_cfg.c **** 			{0x1Bu, 0x0Cu},
 909:.\Generated_Source\PSoC5/cyfitter_cfg.c **** 			{0x1Cu, 0x02u},
 910:.\Generated_Source\PSoC5/cyfitter_cfg.c **** 			{0x1Eu, 0x05u},
 911:.\Generated_Source\PSoC5/cyfitter_cfg.c **** 			{0x1Fu, 0x06u},
 912:.\Generated_Source\PSoC5/cyfitter_cfg.c **** 			{0x20u, 0x03u},
 913:.\Generated_Source\PSoC5/cyfitter_cfg.c **** 			{0x22u, 0x04u},
 914:.\Generated_Source\PSoC5/cyfitter_cfg.c **** 			{0x25u, 0x02u},
 915:.\Generated_Source\PSoC5/cyfitter_cfg.c **** 			{0x27u, 0x08u},
 916:.\Generated_Source\PSoC5/cyfitter_cfg.c **** 			{0x28u, 0x07u},
 917:.\Generated_Source\PSoC5/cyfitter_cfg.c **** 			{0x2Bu, 0x06u},
 918:.\Generated_Source\PSoC5/cyfitter_cfg.c **** 			{0x2Cu, 0x07u},
 919:.\Generated_Source\PSoC5/cyfitter_cfg.c **** 			{0x32u, 0x0Fu},
 920:.\Generated_Source\PSoC5/cyfitter_cfg.c **** 			{0x33u, 0x0Eu},
 921:.\Generated_Source\PSoC5/cyfitter_cfg.c **** 			{0x37u, 0x01u},
 922:.\Generated_Source\PSoC5/cyfitter_cfg.c **** 			{0x3Au, 0x08u},
 923:.\Generated_Source\PSoC5/cyfitter_cfg.c **** 			{0x3Bu, 0x08u},
 924:.\Generated_Source\PSoC5/cyfitter_cfg.c **** 			{0x58u, 0x04u},
 925:.\Generated_Source\PSoC5/cyfitter_cfg.c **** 			{0x59u, 0x04u},
 926:.\Generated_Source\PSoC5/cyfitter_cfg.c **** 			{0x5Cu, 0x22u},
 927:.\Generated_Source\PSoC5/cyfitter_cfg.c **** 			{0x5Fu, 0x01u},
 928:.\Generated_Source\PSoC5/cyfitter_cfg.c **** 			{0x80u, 0x02u},
 929:.\Generated_Source\PSoC5/cyfitter_cfg.c **** 			{0x82u, 0x01u},
 930:.\Generated_Source\PSoC5/cyfitter_cfg.c **** 			{0x84u, 0x01u},
 931:.\Generated_Source\PSoC5/cyfitter_cfg.c **** 			{0x86u, 0x06u},
 932:.\Generated_Source\PSoC5/cyfitter_cfg.c **** 			{0x8Au, 0x03u},
 933:.\Generated_Source\PSoC5/cyfitter_cfg.c **** 			{0x8Cu, 0x01u},
 934:.\Generated_Source\PSoC5/cyfitter_cfg.c **** 			{0x8Eu, 0x02u},
 935:.\Generated_Source\PSoC5/cyfitter_cfg.c **** 			{0x93u, 0x02u},
 936:.\Generated_Source\PSoC5/cyfitter_cfg.c **** 			{0x94u, 0x08u},
 937:.\Generated_Source\PSoC5/cyfitter_cfg.c **** 			{0x96u, 0x10u},
 938:.\Generated_Source\PSoC5/cyfitter_cfg.c **** 			{0x98u, 0x01u},
 939:.\Generated_Source\PSoC5/cyfitter_cfg.c **** 			{0x9Au, 0x04u},
 940:.\Generated_Source\PSoC5/cyfitter_cfg.c **** 			{0xA2u, 0x03u},
 941:.\Generated_Source\PSoC5/cyfitter_cfg.c **** 			{0xA3u, 0x01u},
 942:.\Generated_Source\PSoC5/cyfitter_cfg.c **** 			{0xA8u, 0x08u},
 943:.\Generated_Source\PSoC5/cyfitter_cfg.c **** 			{0xAAu, 0x10u},
 944:.\Generated_Source\PSoC5/cyfitter_cfg.c **** 			{0xABu, 0x04u},
 945:.\Generated_Source\PSoC5/cyfitter_cfg.c **** 			{0xADu, 0x08u},
 946:.\Generated_Source\PSoC5/cyfitter_cfg.c **** 			{0xAEu, 0x03u},
 947:.\Generated_Source\PSoC5/cyfitter_cfg.c **** 			{0xB0u, 0x18u},
 948:.\Generated_Source\PSoC5/cyfitter_cfg.c **** 			{0xB1u, 0x04u},
ARM GAS  C:\Users\xavieran\AppData\Local\Temp\ccwd941Y.s 			page 28


 949:.\Generated_Source\PSoC5/cyfitter_cfg.c **** 			{0xB3u, 0x01u},
 950:.\Generated_Source\PSoC5/cyfitter_cfg.c **** 			{0xB4u, 0x07u},
 951:.\Generated_Source\PSoC5/cyfitter_cfg.c **** 			{0xB5u, 0x08u},
 952:.\Generated_Source\PSoC5/cyfitter_cfg.c **** 			{0xB7u, 0x02u},
 953:.\Generated_Source\PSoC5/cyfitter_cfg.c **** 			{0xBAu, 0x20u},
 954:.\Generated_Source\PSoC5/cyfitter_cfg.c **** 			{0xBFu, 0x10u},
 955:.\Generated_Source\PSoC5/cyfitter_cfg.c **** 			{0xD6u, 0x08u},
 956:.\Generated_Source\PSoC5/cyfitter_cfg.c **** 			{0xD8u, 0x04u},
 957:.\Generated_Source\PSoC5/cyfitter_cfg.c **** 			{0xD9u, 0x04u},
 958:.\Generated_Source\PSoC5/cyfitter_cfg.c **** 			{0xDBu, 0x04u},
 959:.\Generated_Source\PSoC5/cyfitter_cfg.c **** 			{0xDCu, 0x22u},
 960:.\Generated_Source\PSoC5/cyfitter_cfg.c **** 			{0xDDu, 0x90u},
 961:.\Generated_Source\PSoC5/cyfitter_cfg.c **** 			{0xDFu, 0x01u},
 962:.\Generated_Source\PSoC5/cyfitter_cfg.c **** 			{0x00u, 0x24u},
 963:.\Generated_Source\PSoC5/cyfitter_cfg.c **** 			{0x02u, 0x80u},
 964:.\Generated_Source\PSoC5/cyfitter_cfg.c **** 			{0x03u, 0x01u},
 965:.\Generated_Source\PSoC5/cyfitter_cfg.c **** 			{0x06u, 0x01u},
 966:.\Generated_Source\PSoC5/cyfitter_cfg.c **** 			{0x08u, 0x08u},
 967:.\Generated_Source\PSoC5/cyfitter_cfg.c **** 			{0x0Au, 0x04u},
 968:.\Generated_Source\PSoC5/cyfitter_cfg.c **** 			{0x0Eu, 0x14u},
 969:.\Generated_Source\PSoC5/cyfitter_cfg.c **** 			{0x0Fu, 0x02u},
 970:.\Generated_Source\PSoC5/cyfitter_cfg.c **** 			{0x10u, 0x40u},
 971:.\Generated_Source\PSoC5/cyfitter_cfg.c **** 			{0x11u, 0x10u},
 972:.\Generated_Source\PSoC5/cyfitter_cfg.c **** 			{0x13u, 0x40u},
 973:.\Generated_Source\PSoC5/cyfitter_cfg.c **** 			{0x16u, 0x08u},
 974:.\Generated_Source\PSoC5/cyfitter_cfg.c **** 			{0x17u, 0x42u},
 975:.\Generated_Source\PSoC5/cyfitter_cfg.c **** 			{0x18u, 0x04u},
 976:.\Generated_Source\PSoC5/cyfitter_cfg.c **** 			{0x19u, 0x01u},
 977:.\Generated_Source\PSoC5/cyfitter_cfg.c **** 			{0x1Eu, 0x10u},
 978:.\Generated_Source\PSoC5/cyfitter_cfg.c **** 			{0x20u, 0x20u},
 979:.\Generated_Source\PSoC5/cyfitter_cfg.c **** 			{0x22u, 0xD0u},
 980:.\Generated_Source\PSoC5/cyfitter_cfg.c **** 			{0x23u, 0x40u},
 981:.\Generated_Source\PSoC5/cyfitter_cfg.c **** 			{0x24u, 0x10u},
 982:.\Generated_Source\PSoC5/cyfitter_cfg.c **** 			{0x25u, 0x40u},
 983:.\Generated_Source\PSoC5/cyfitter_cfg.c **** 			{0x27u, 0x10u},
 984:.\Generated_Source\PSoC5/cyfitter_cfg.c **** 			{0x28u, 0x48u},
 985:.\Generated_Source\PSoC5/cyfitter_cfg.c **** 			{0x29u, 0x40u},
 986:.\Generated_Source\PSoC5/cyfitter_cfg.c **** 			{0x2Eu, 0x04u},
 987:.\Generated_Source\PSoC5/cyfitter_cfg.c **** 			{0x2Fu, 0x04u},
 988:.\Generated_Source\PSoC5/cyfitter_cfg.c **** 			{0x33u, 0x01u},
 989:.\Generated_Source\PSoC5/cyfitter_cfg.c **** 			{0x36u, 0x08u},
 990:.\Generated_Source\PSoC5/cyfitter_cfg.c **** 			{0x37u, 0x52u},
 991:.\Generated_Source\PSoC5/cyfitter_cfg.c **** 			{0x3Cu, 0x80u},
 992:.\Generated_Source\PSoC5/cyfitter_cfg.c **** 			{0x3Eu, 0x08u},
 993:.\Generated_Source\PSoC5/cyfitter_cfg.c **** 			{0x3Fu, 0x02u},
 994:.\Generated_Source\PSoC5/cyfitter_cfg.c **** 			{0x58u, 0x80u},
 995:.\Generated_Source\PSoC5/cyfitter_cfg.c **** 			{0x59u, 0x10u},
 996:.\Generated_Source\PSoC5/cyfitter_cfg.c **** 			{0x5Bu, 0x04u},
 997:.\Generated_Source\PSoC5/cyfitter_cfg.c **** 			{0x60u, 0x08u},
 998:.\Generated_Source\PSoC5/cyfitter_cfg.c **** 			{0x61u, 0x40u},
 999:.\Generated_Source\PSoC5/cyfitter_cfg.c **** 			{0x62u, 0x08u},
1000:.\Generated_Source\PSoC5/cyfitter_cfg.c **** 			{0x91u, 0x10u},
1001:.\Generated_Source\PSoC5/cyfitter_cfg.c **** 			{0x92u, 0x04u},
1002:.\Generated_Source\PSoC5/cyfitter_cfg.c **** 			{0x93u, 0x08u},
1003:.\Generated_Source\PSoC5/cyfitter_cfg.c **** 			{0x94u, 0x10u},
1004:.\Generated_Source\PSoC5/cyfitter_cfg.c **** 			{0x96u, 0x90u},
1005:.\Generated_Source\PSoC5/cyfitter_cfg.c **** 			{0x97u, 0x40u},
ARM GAS  C:\Users\xavieran\AppData\Local\Temp\ccwd941Y.s 			page 29


1006:.\Generated_Source\PSoC5/cyfitter_cfg.c **** 			{0x98u, 0x40u},
1007:.\Generated_Source\PSoC5/cyfitter_cfg.c **** 			{0x9Au, 0x09u},
1008:.\Generated_Source\PSoC5/cyfitter_cfg.c **** 			{0x9Bu, 0x41u},
1009:.\Generated_Source\PSoC5/cyfitter_cfg.c **** 			{0x9Du, 0x01u},
1010:.\Generated_Source\PSoC5/cyfitter_cfg.c **** 			{0x9Fu, 0x02u},
1011:.\Generated_Source\PSoC5/cyfitter_cfg.c **** 			{0xA0u, 0x42u},
1012:.\Generated_Source\PSoC5/cyfitter_cfg.c **** 			{0xA3u, 0x11u},
1013:.\Generated_Source\PSoC5/cyfitter_cfg.c **** 			{0xA4u, 0x30u},
1014:.\Generated_Source\PSoC5/cyfitter_cfg.c **** 			{0xA5u, 0x40u},
1015:.\Generated_Source\PSoC5/cyfitter_cfg.c **** 			{0xA9u, 0x04u},
1016:.\Generated_Source\PSoC5/cyfitter_cfg.c **** 			{0xAAu, 0x05u},
1017:.\Generated_Source\PSoC5/cyfitter_cfg.c **** 			{0xB2u, 0x08u},
1018:.\Generated_Source\PSoC5/cyfitter_cfg.c **** 			{0xB3u, 0x10u},
1019:.\Generated_Source\PSoC5/cyfitter_cfg.c **** 			{0xB5u, 0x84u},
1020:.\Generated_Source\PSoC5/cyfitter_cfg.c **** 			{0xC0u, 0x8Fu},
1021:.\Generated_Source\PSoC5/cyfitter_cfg.c **** 			{0xC2u, 0xE6u},
1022:.\Generated_Source\PSoC5/cyfitter_cfg.c **** 			{0xC4u, 0xDBu},
1023:.\Generated_Source\PSoC5/cyfitter_cfg.c **** 			{0xCAu, 0x6Du},
1024:.\Generated_Source\PSoC5/cyfitter_cfg.c **** 			{0xCCu, 0xF1u},
1025:.\Generated_Source\PSoC5/cyfitter_cfg.c **** 			{0xCEu, 0xD0u},
1026:.\Generated_Source\PSoC5/cyfitter_cfg.c **** 			{0xD6u, 0x0Eu},
1027:.\Generated_Source\PSoC5/cyfitter_cfg.c **** 			{0xD8u, 0x0Eu},
1028:.\Generated_Source\PSoC5/cyfitter_cfg.c **** 			{0xE0u, 0x80u},
1029:.\Generated_Source\PSoC5/cyfitter_cfg.c **** 			{0xE2u, 0x04u},
1030:.\Generated_Source\PSoC5/cyfitter_cfg.c **** 			{0xE4u, 0x04u},
1031:.\Generated_Source\PSoC5/cyfitter_cfg.c **** 			{0xE8u, 0x20u},
1032:.\Generated_Source\PSoC5/cyfitter_cfg.c **** 			{0x01u, 0x01u},
1033:.\Generated_Source\PSoC5/cyfitter_cfg.c **** 			{0x09u, 0x01u},
1034:.\Generated_Source\PSoC5/cyfitter_cfg.c **** 			{0x0Au, 0x01u},
1035:.\Generated_Source\PSoC5/cyfitter_cfg.c **** 			{0x0Fu, 0x04u},
1036:.\Generated_Source\PSoC5/cyfitter_cfg.c **** 			{0x10u, 0x01u},
1037:.\Generated_Source\PSoC5/cyfitter_cfg.c **** 			{0x11u, 0x02u},
1038:.\Generated_Source\PSoC5/cyfitter_cfg.c **** 			{0x1Du, 0x01u},
1039:.\Generated_Source\PSoC5/cyfitter_cfg.c **** 			{0x1Eu, 0x01u},
1040:.\Generated_Source\PSoC5/cyfitter_cfg.c **** 			{0x21u, 0x01u},
1041:.\Generated_Source\PSoC5/cyfitter_cfg.c **** 			{0x22u, 0x01u},
1042:.\Generated_Source\PSoC5/cyfitter_cfg.c **** 			{0x27u, 0x01u},
1043:.\Generated_Source\PSoC5/cyfitter_cfg.c **** 			{0x2Du, 0x01u},
1044:.\Generated_Source\PSoC5/cyfitter_cfg.c **** 			{0x2Eu, 0x01u},
1045:.\Generated_Source\PSoC5/cyfitter_cfg.c **** 			{0x31u, 0x04u},
1046:.\Generated_Source\PSoC5/cyfitter_cfg.c **** 			{0x34u, 0x01u},
1047:.\Generated_Source\PSoC5/cyfitter_cfg.c **** 			{0x35u, 0x03u},
1048:.\Generated_Source\PSoC5/cyfitter_cfg.c **** 			{0x39u, 0x20u},
1049:.\Generated_Source\PSoC5/cyfitter_cfg.c **** 			{0x3Eu, 0x10u},
1050:.\Generated_Source\PSoC5/cyfitter_cfg.c **** 			{0x3Fu, 0x10u},
1051:.\Generated_Source\PSoC5/cyfitter_cfg.c **** 			{0x58u, 0x04u},
1052:.\Generated_Source\PSoC5/cyfitter_cfg.c **** 			{0x59u, 0x04u},
1053:.\Generated_Source\PSoC5/cyfitter_cfg.c **** 			{0x5Cu, 0x20u},
1054:.\Generated_Source\PSoC5/cyfitter_cfg.c **** 			{0x5Fu, 0x01u},
1055:.\Generated_Source\PSoC5/cyfitter_cfg.c **** 			{0x80u, 0x01u},
1056:.\Generated_Source\PSoC5/cyfitter_cfg.c **** 			{0x82u, 0x02u},
1057:.\Generated_Source\PSoC5/cyfitter_cfg.c **** 			{0x83u, 0x02u},
1058:.\Generated_Source\PSoC5/cyfitter_cfg.c **** 			{0x87u, 0x01u},
1059:.\Generated_Source\PSoC5/cyfitter_cfg.c **** 			{0x8Cu, 0x05u},
1060:.\Generated_Source\PSoC5/cyfitter_cfg.c **** 			{0x8Fu, 0x04u},
1061:.\Generated_Source\PSoC5/cyfitter_cfg.c **** 			{0x91u, 0x03u},
1062:.\Generated_Source\PSoC5/cyfitter_cfg.c **** 			{0x94u, 0x01u},
ARM GAS  C:\Users\xavieran\AppData\Local\Temp\ccwd941Y.s 			page 30


1063:.\Generated_Source\PSoC5/cyfitter_cfg.c **** 			{0x95u, 0x03u},
1064:.\Generated_Source\PSoC5/cyfitter_cfg.c **** 			{0x96u, 0x0Eu},
1065:.\Generated_Source\PSoC5/cyfitter_cfg.c **** 			{0x98u, 0x01u},
1066:.\Generated_Source\PSoC5/cyfitter_cfg.c **** 			{0x9Au, 0x08u},
1067:.\Generated_Source\PSoC5/cyfitter_cfg.c **** 			{0x9Cu, 0x04u},
1068:.\Generated_Source\PSoC5/cyfitter_cfg.c **** 			{0x9Eu, 0x01u},
1069:.\Generated_Source\PSoC5/cyfitter_cfg.c **** 			{0x9Fu, 0x02u},
1070:.\Generated_Source\PSoC5/cyfitter_cfg.c **** 			{0xA0u, 0x04u},
1071:.\Generated_Source\PSoC5/cyfitter_cfg.c **** 			{0xA2u, 0x01u},
1072:.\Generated_Source\PSoC5/cyfitter_cfg.c **** 			{0xA5u, 0x02u},
1073:.\Generated_Source\PSoC5/cyfitter_cfg.c **** 			{0xA8u, 0x05u},
1074:.\Generated_Source\PSoC5/cyfitter_cfg.c **** 			{0xA9u, 0x02u},
1075:.\Generated_Source\PSoC5/cyfitter_cfg.c **** 			{0xACu, 0x05u},
1076:.\Generated_Source\PSoC5/cyfitter_cfg.c **** 			{0xB2u, 0x0Fu},
1077:.\Generated_Source\PSoC5/cyfitter_cfg.c **** 			{0xB3u, 0x03u},
1078:.\Generated_Source\PSoC5/cyfitter_cfg.c **** 			{0xB7u, 0x04u},
1079:.\Generated_Source\PSoC5/cyfitter_cfg.c **** 			{0xBAu, 0x08u},
1080:.\Generated_Source\PSoC5/cyfitter_cfg.c **** 			{0xC0u, 0x53u},
1081:.\Generated_Source\PSoC5/cyfitter_cfg.c **** 			{0xC4u, 0x01u},
1082:.\Generated_Source\PSoC5/cyfitter_cfg.c **** 			{0xC6u, 0xD0u},
1083:.\Generated_Source\PSoC5/cyfitter_cfg.c **** 			{0xC7u, 0xB0u},
1084:.\Generated_Source\PSoC5/cyfitter_cfg.c **** 			{0xC8u, 0x28u},
1085:.\Generated_Source\PSoC5/cyfitter_cfg.c **** 			{0xC9u, 0xFFu},
1086:.\Generated_Source\PSoC5/cyfitter_cfg.c **** 			{0xCAu, 0x7Fu},
1087:.\Generated_Source\PSoC5/cyfitter_cfg.c **** 			{0xCBu, 0xFFu},
1088:.\Generated_Source\PSoC5/cyfitter_cfg.c **** 			{0xCCu, 0x42u},
1089:.\Generated_Source\PSoC5/cyfitter_cfg.c **** 			{0xCDu, 0xA0u},
1090:.\Generated_Source\PSoC5/cyfitter_cfg.c **** 			{0xCEu, 0x70u},
1091:.\Generated_Source\PSoC5/cyfitter_cfg.c **** 			{0xD0u, 0x0Cu},
1092:.\Generated_Source\PSoC5/cyfitter_cfg.c **** 			{0xD4u, 0x20u},
1093:.\Generated_Source\PSoC5/cyfitter_cfg.c **** 			{0xD6u, 0x04u},
1094:.\Generated_Source\PSoC5/cyfitter_cfg.c **** 			{0xD8u, 0x04u},
1095:.\Generated_Source\PSoC5/cyfitter_cfg.c **** 			{0xD9u, 0x04u},
1096:.\Generated_Source\PSoC5/cyfitter_cfg.c **** 			{0xDAu, 0x04u},
1097:.\Generated_Source\PSoC5/cyfitter_cfg.c **** 			{0xDBu, 0x04u},
1098:.\Generated_Source\PSoC5/cyfitter_cfg.c **** 			{0xDCu, 0x22u},
1099:.\Generated_Source\PSoC5/cyfitter_cfg.c **** 			{0xDDu, 0x22u},
1100:.\Generated_Source\PSoC5/cyfitter_cfg.c **** 			{0xDFu, 0x01u},
1101:.\Generated_Source\PSoC5/cyfitter_cfg.c **** 			{0xE1u, 0x09u},
1102:.\Generated_Source\PSoC5/cyfitter_cfg.c **** 			{0xE2u, 0x40u},
1103:.\Generated_Source\PSoC5/cyfitter_cfg.c **** 			{0xE3u, 0x09u},
1104:.\Generated_Source\PSoC5/cyfitter_cfg.c **** 			{0xE4u, 0x30u},
1105:.\Generated_Source\PSoC5/cyfitter_cfg.c **** 			{0xE5u, 0x09u},
1106:.\Generated_Source\PSoC5/cyfitter_cfg.c **** 			{0x00u, 0x20u},
1107:.\Generated_Source\PSoC5/cyfitter_cfg.c **** 			{0x04u, 0x02u},
1108:.\Generated_Source\PSoC5/cyfitter_cfg.c **** 			{0x07u, 0x02u},
1109:.\Generated_Source\PSoC5/cyfitter_cfg.c **** 			{0x08u, 0x48u},
1110:.\Generated_Source\PSoC5/cyfitter_cfg.c **** 			{0x0Au, 0x92u},
1111:.\Generated_Source\PSoC5/cyfitter_cfg.c **** 			{0x0Eu, 0x2Cu},
1112:.\Generated_Source\PSoC5/cyfitter_cfg.c **** 			{0x0Fu, 0x02u},
1113:.\Generated_Source\PSoC5/cyfitter_cfg.c **** 			{0x12u, 0x80u},
1114:.\Generated_Source\PSoC5/cyfitter_cfg.c **** 			{0x13u, 0x40u},
1115:.\Generated_Source\PSoC5/cyfitter_cfg.c **** 			{0x15u, 0x02u},
1116:.\Generated_Source\PSoC5/cyfitter_cfg.c **** 			{0x16u, 0x08u},
1117:.\Generated_Source\PSoC5/cyfitter_cfg.c **** 			{0x17u, 0x40u},
1118:.\Generated_Source\PSoC5/cyfitter_cfg.c **** 			{0x19u, 0x20u},
1119:.\Generated_Source\PSoC5/cyfitter_cfg.c **** 			{0x1Du, 0x04u},
ARM GAS  C:\Users\xavieran\AppData\Local\Temp\ccwd941Y.s 			page 31


1120:.\Generated_Source\PSoC5/cyfitter_cfg.c **** 			{0x1Eu, 0x20u},
1121:.\Generated_Source\PSoC5/cyfitter_cfg.c **** 			{0x20u, 0x04u},
1122:.\Generated_Source\PSoC5/cyfitter_cfg.c **** 			{0x22u, 0x01u},
1123:.\Generated_Source\PSoC5/cyfitter_cfg.c **** 			{0x25u, 0x04u},
1124:.\Generated_Source\PSoC5/cyfitter_cfg.c **** 			{0x26u, 0x80u},
1125:.\Generated_Source\PSoC5/cyfitter_cfg.c **** 			{0x27u, 0x01u},
1126:.\Generated_Source\PSoC5/cyfitter_cfg.c **** 			{0x28u, 0x81u},
1127:.\Generated_Source\PSoC5/cyfitter_cfg.c **** 			{0x2Bu, 0x11u},
1128:.\Generated_Source\PSoC5/cyfitter_cfg.c **** 			{0x2Fu, 0x18u},
1129:.\Generated_Source\PSoC5/cyfitter_cfg.c **** 			{0x31u, 0x01u},
1130:.\Generated_Source\PSoC5/cyfitter_cfg.c **** 			{0x33u, 0x40u},
1131:.\Generated_Source\PSoC5/cyfitter_cfg.c **** 			{0x34u, 0x84u},
1132:.\Generated_Source\PSoC5/cyfitter_cfg.c **** 			{0x36u, 0x06u},
1133:.\Generated_Source\PSoC5/cyfitter_cfg.c **** 			{0x39u, 0x02u},
1134:.\Generated_Source\PSoC5/cyfitter_cfg.c **** 			{0x3Au, 0x03u},
1135:.\Generated_Source\PSoC5/cyfitter_cfg.c **** 			{0x3Bu, 0x60u},
1136:.\Generated_Source\PSoC5/cyfitter_cfg.c **** 			{0x3Du, 0x88u},
1137:.\Generated_Source\PSoC5/cyfitter_cfg.c **** 			{0x3Eu, 0x02u},
1138:.\Generated_Source\PSoC5/cyfitter_cfg.c **** 			{0x44u, 0x80u},
1139:.\Generated_Source\PSoC5/cyfitter_cfg.c **** 			{0x45u, 0x40u},
1140:.\Generated_Source\PSoC5/cyfitter_cfg.c **** 			{0x47u, 0x0Au},
1141:.\Generated_Source\PSoC5/cyfitter_cfg.c **** 			{0x4Cu, 0x01u},
1142:.\Generated_Source\PSoC5/cyfitter_cfg.c **** 			{0x4Eu, 0x02u},
1143:.\Generated_Source\PSoC5/cyfitter_cfg.c **** 			{0x54u, 0x02u},
1144:.\Generated_Source\PSoC5/cyfitter_cfg.c **** 			{0x57u, 0x10u},
1145:.\Generated_Source\PSoC5/cyfitter_cfg.c **** 			{0x5Cu, 0x18u},
1146:.\Generated_Source\PSoC5/cyfitter_cfg.c **** 			{0x5Du, 0x80u},
1147:.\Generated_Source\PSoC5/cyfitter_cfg.c **** 			{0x5Eu, 0x02u},
1148:.\Generated_Source\PSoC5/cyfitter_cfg.c **** 			{0x65u, 0x22u},
1149:.\Generated_Source\PSoC5/cyfitter_cfg.c **** 			{0x67u, 0x02u},
1150:.\Generated_Source\PSoC5/cyfitter_cfg.c **** 			{0x89u, 0x02u},
1151:.\Generated_Source\PSoC5/cyfitter_cfg.c **** 			{0x8Fu, 0x68u},
1152:.\Generated_Source\PSoC5/cyfitter_cfg.c **** 			{0x91u, 0x10u},
1153:.\Generated_Source\PSoC5/cyfitter_cfg.c **** 			{0x93u, 0x0Au},
1154:.\Generated_Source\PSoC5/cyfitter_cfg.c **** 			{0x94u, 0x04u},
1155:.\Generated_Source\PSoC5/cyfitter_cfg.c **** 			{0x96u, 0x02u},
1156:.\Generated_Source\PSoC5/cyfitter_cfg.c **** 			{0x97u, 0x60u},
1157:.\Generated_Source\PSoC5/cyfitter_cfg.c **** 			{0x98u, 0x01u},
1158:.\Generated_Source\PSoC5/cyfitter_cfg.c **** 			{0x9Au, 0x01u},
1159:.\Generated_Source\PSoC5/cyfitter_cfg.c **** 			{0x9Bu, 0x08u},
1160:.\Generated_Source\PSoC5/cyfitter_cfg.c **** 			{0x9Cu, 0x04u},
1161:.\Generated_Source\PSoC5/cyfitter_cfg.c **** 			{0x9Fu, 0x42u},
1162:.\Generated_Source\PSoC5/cyfitter_cfg.c **** 			{0xA0u, 0x40u},
1163:.\Generated_Source\PSoC5/cyfitter_cfg.c **** 			{0xA2u, 0x02u},
1164:.\Generated_Source\PSoC5/cyfitter_cfg.c **** 			{0xA4u, 0x20u},
1165:.\Generated_Source\PSoC5/cyfitter_cfg.c **** 			{0xA6u, 0x04u},
1166:.\Generated_Source\PSoC5/cyfitter_cfg.c **** 			{0xA7u, 0x30u},
1167:.\Generated_Source\PSoC5/cyfitter_cfg.c **** 			{0xA8u, 0x80u},
1168:.\Generated_Source\PSoC5/cyfitter_cfg.c **** 			{0xAEu, 0x06u},
1169:.\Generated_Source\PSoC5/cyfitter_cfg.c **** 			{0xB2u, 0x02u},
1170:.\Generated_Source\PSoC5/cyfitter_cfg.c **** 			{0xB3u, 0x01u},
1171:.\Generated_Source\PSoC5/cyfitter_cfg.c **** 			{0xB6u, 0x60u},
1172:.\Generated_Source\PSoC5/cyfitter_cfg.c **** 			{0xC0u, 0x92u},
1173:.\Generated_Source\PSoC5/cyfitter_cfg.c **** 			{0xC2u, 0xE9u},
1174:.\Generated_Source\PSoC5/cyfitter_cfg.c **** 			{0xC4u, 0xD9u},
1175:.\Generated_Source\PSoC5/cyfitter_cfg.c **** 			{0xCAu, 0x6Bu},
1176:.\Generated_Source\PSoC5/cyfitter_cfg.c **** 			{0xCCu, 0xD9u},
ARM GAS  C:\Users\xavieran\AppData\Local\Temp\ccwd941Y.s 			page 32


1177:.\Generated_Source\PSoC5/cyfitter_cfg.c **** 			{0xCEu, 0xDDu},
1178:.\Generated_Source\PSoC5/cyfitter_cfg.c **** 			{0xD0u, 0x50u},
1179:.\Generated_Source\PSoC5/cyfitter_cfg.c **** 			{0xD2u, 0x10u},
1180:.\Generated_Source\PSoC5/cyfitter_cfg.c **** 			{0xD6u, 0xF0u},
1181:.\Generated_Source\PSoC5/cyfitter_cfg.c **** 			{0xD8u, 0xB0u},
1182:.\Generated_Source\PSoC5/cyfitter_cfg.c **** 			{0xE0u, 0x50u},
1183:.\Generated_Source\PSoC5/cyfitter_cfg.c **** 			{0xE2u, 0x80u},
1184:.\Generated_Source\PSoC5/cyfitter_cfg.c **** 			{0xE8u, 0x80u},
1185:.\Generated_Source\PSoC5/cyfitter_cfg.c **** 			{0xEAu, 0x10u},
1186:.\Generated_Source\PSoC5/cyfitter_cfg.c **** 			{0xECu, 0x20u},
1187:.\Generated_Source\PSoC5/cyfitter_cfg.c **** 			{0xEEu, 0x09u},
1188:.\Generated_Source\PSoC5/cyfitter_cfg.c **** 			{0x00u, 0x02u},
1189:.\Generated_Source\PSoC5/cyfitter_cfg.c **** 			{0x08u, 0x01u},
1190:.\Generated_Source\PSoC5/cyfitter_cfg.c **** 			{0x0Cu, 0x02u},
1191:.\Generated_Source\PSoC5/cyfitter_cfg.c **** 			{0x14u, 0x01u},
1192:.\Generated_Source\PSoC5/cyfitter_cfg.c **** 			{0x15u, 0x01u},
1193:.\Generated_Source\PSoC5/cyfitter_cfg.c **** 			{0x18u, 0x01u},
1194:.\Generated_Source\PSoC5/cyfitter_cfg.c **** 			{0x1Du, 0x02u},
1195:.\Generated_Source\PSoC5/cyfitter_cfg.c **** 			{0x1Fu, 0x04u},
1196:.\Generated_Source\PSoC5/cyfitter_cfg.c **** 			{0x20u, 0x02u},
1197:.\Generated_Source\PSoC5/cyfitter_cfg.c **** 			{0x25u, 0x02u},
1198:.\Generated_Source\PSoC5/cyfitter_cfg.c **** 			{0x27u, 0x04u},
1199:.\Generated_Source\PSoC5/cyfitter_cfg.c **** 			{0x28u, 0x02u},
1200:.\Generated_Source\PSoC5/cyfitter_cfg.c **** 			{0x29u, 0x01u},
1201:.\Generated_Source\PSoC5/cyfitter_cfg.c **** 			{0x2Cu, 0x02u},
1202:.\Generated_Source\PSoC5/cyfitter_cfg.c **** 			{0x30u, 0x02u},
1203:.\Generated_Source\PSoC5/cyfitter_cfg.c **** 			{0x32u, 0x01u},
1204:.\Generated_Source\PSoC5/cyfitter_cfg.c **** 			{0x35u, 0x07u},
1205:.\Generated_Source\PSoC5/cyfitter_cfg.c **** 			{0x38u, 0x0Au},
1206:.\Generated_Source\PSoC5/cyfitter_cfg.c **** 			{0x39u, 0x20u},
1207:.\Generated_Source\PSoC5/cyfitter_cfg.c **** 			{0x3Eu, 0x01u},
1208:.\Generated_Source\PSoC5/cyfitter_cfg.c **** 			{0x3Fu, 0x10u},
1209:.\Generated_Source\PSoC5/cyfitter_cfg.c **** 			{0x58u, 0x04u},
1210:.\Generated_Source\PSoC5/cyfitter_cfg.c **** 			{0x59u, 0x04u},
1211:.\Generated_Source\PSoC5/cyfitter_cfg.c **** 			{0x5Cu, 0x02u},
1212:.\Generated_Source\PSoC5/cyfitter_cfg.c **** 			{0x5Fu, 0x01u},
1213:.\Generated_Source\PSoC5/cyfitter_cfg.c **** 			{0x82u, 0x02u},
1214:.\Generated_Source\PSoC5/cyfitter_cfg.c **** 			{0x84u, 0x10u},
1215:.\Generated_Source\PSoC5/cyfitter_cfg.c **** 			{0x87u, 0x01u},
1216:.\Generated_Source\PSoC5/cyfitter_cfg.c **** 			{0x8Au, 0x0Fu},
1217:.\Generated_Source\PSoC5/cyfitter_cfg.c **** 			{0x8Eu, 0x08u},
1218:.\Generated_Source\PSoC5/cyfitter_cfg.c **** 			{0x90u, 0x0Fu},
1219:.\Generated_Source\PSoC5/cyfitter_cfg.c **** 			{0x96u, 0x01u},
1220:.\Generated_Source\PSoC5/cyfitter_cfg.c **** 			{0x98u, 0x0Fu},
1221:.\Generated_Source\PSoC5/cyfitter_cfg.c **** 			{0x9Eu, 0x0Fu},
1222:.\Generated_Source\PSoC5/cyfitter_cfg.c **** 			{0xA2u, 0x04u},
1223:.\Generated_Source\PSoC5/cyfitter_cfg.c **** 			{0xA6u, 0x20u},
1224:.\Generated_Source\PSoC5/cyfitter_cfg.c **** 			{0xA8u, 0x10u},
1225:.\Generated_Source\PSoC5/cyfitter_cfg.c **** 			{0xAEu, 0x08u},
1226:.\Generated_Source\PSoC5/cyfitter_cfg.c **** 			{0xB0u, 0x10u},
1227:.\Generated_Source\PSoC5/cyfitter_cfg.c **** 			{0xB2u, 0x0Fu},
1228:.\Generated_Source\PSoC5/cyfitter_cfg.c **** 			{0xB4u, 0x20u},
1229:.\Generated_Source\PSoC5/cyfitter_cfg.c **** 			{0xB5u, 0x01u},
1230:.\Generated_Source\PSoC5/cyfitter_cfg.c **** 			{0xB8u, 0x02u},
1231:.\Generated_Source\PSoC5/cyfitter_cfg.c **** 			{0xBEu, 0x05u},
1232:.\Generated_Source\PSoC5/cyfitter_cfg.c **** 			{0xC0u, 0x42u},
1233:.\Generated_Source\PSoC5/cyfitter_cfg.c **** 			{0xC6u, 0x05u},
ARM GAS  C:\Users\xavieran\AppData\Local\Temp\ccwd941Y.s 			page 33


1234:.\Generated_Source\PSoC5/cyfitter_cfg.c **** 			{0xC7u, 0x02u},
1235:.\Generated_Source\PSoC5/cyfitter_cfg.c **** 			{0xC8u, 0x14u},
1236:.\Generated_Source\PSoC5/cyfitter_cfg.c **** 			{0xC9u, 0xFFu},
1237:.\Generated_Source\PSoC5/cyfitter_cfg.c **** 			{0xCAu, 0xFFu},
1238:.\Generated_Source\PSoC5/cyfitter_cfg.c **** 			{0xCBu, 0xFFu},
1239:.\Generated_Source\PSoC5/cyfitter_cfg.c **** 			{0xCCu, 0x42u},
1240:.\Generated_Source\PSoC5/cyfitter_cfg.c **** 			{0xCDu, 0xA0u},
1241:.\Generated_Source\PSoC5/cyfitter_cfg.c **** 			{0xCEu, 0x70u},
1242:.\Generated_Source\PSoC5/cyfitter_cfg.c **** 			{0xD0u, 0x08u},
1243:.\Generated_Source\PSoC5/cyfitter_cfg.c **** 			{0xD1u, 0x10u},
1244:.\Generated_Source\PSoC5/cyfitter_cfg.c **** 			{0xD6u, 0x08u},
1245:.\Generated_Source\PSoC5/cyfitter_cfg.c **** 			{0xD8u, 0x04u},
1246:.\Generated_Source\PSoC5/cyfitter_cfg.c **** 			{0xD9u, 0x04u},
1247:.\Generated_Source\PSoC5/cyfitter_cfg.c **** 			{0xDAu, 0x04u},
1248:.\Generated_Source\PSoC5/cyfitter_cfg.c **** 			{0xDBu, 0x04u},
1249:.\Generated_Source\PSoC5/cyfitter_cfg.c **** 			{0xDCu, 0x88u},
1250:.\Generated_Source\PSoC5/cyfitter_cfg.c **** 			{0xDDu, 0x92u},
1251:.\Generated_Source\PSoC5/cyfitter_cfg.c **** 			{0xDFu, 0x01u},
1252:.\Generated_Source\PSoC5/cyfitter_cfg.c **** 			{0xE1u, 0x48u},
1253:.\Generated_Source\PSoC5/cyfitter_cfg.c **** 			{0xE2u, 0x40u},
1254:.\Generated_Source\PSoC5/cyfitter_cfg.c **** 			{0xE3u, 0x48u},
1255:.\Generated_Source\PSoC5/cyfitter_cfg.c **** 			{0xE4u, 0x80u},
1256:.\Generated_Source\PSoC5/cyfitter_cfg.c **** 			{0xE5u, 0x48u},
1257:.\Generated_Source\PSoC5/cyfitter_cfg.c **** 			{0xE6u, 0x80u},
1258:.\Generated_Source\PSoC5/cyfitter_cfg.c **** 			{0xE7u, 0x48u},
1259:.\Generated_Source\PSoC5/cyfitter_cfg.c **** 			{0x00u, 0x80u},
1260:.\Generated_Source\PSoC5/cyfitter_cfg.c **** 			{0x01u, 0x38u},
1261:.\Generated_Source\PSoC5/cyfitter_cfg.c **** 			{0x02u, 0x01u},
1262:.\Generated_Source\PSoC5/cyfitter_cfg.c **** 			{0x03u, 0x40u},
1263:.\Generated_Source\PSoC5/cyfitter_cfg.c **** 			{0x04u, 0x20u},
1264:.\Generated_Source\PSoC5/cyfitter_cfg.c **** 			{0x06u, 0x01u},
1265:.\Generated_Source\PSoC5/cyfitter_cfg.c **** 			{0x07u, 0x40u},
1266:.\Generated_Source\PSoC5/cyfitter_cfg.c **** 			{0x0Au, 0x02u},
1267:.\Generated_Source\PSoC5/cyfitter_cfg.c **** 			{0x0Bu, 0x68u},
1268:.\Generated_Source\PSoC5/cyfitter_cfg.c **** 			{0x0Cu, 0x08u},
1269:.\Generated_Source\PSoC5/cyfitter_cfg.c **** 			{0x0Eu, 0x08u},
1270:.\Generated_Source\PSoC5/cyfitter_cfg.c **** 			{0x10u, 0x2Bu},
1271:.\Generated_Source\PSoC5/cyfitter_cfg.c **** 			{0x13u, 0x02u},
1272:.\Generated_Source\PSoC5/cyfitter_cfg.c **** 			{0x14u, 0x01u},
1273:.\Generated_Source\PSoC5/cyfitter_cfg.c **** 			{0x16u, 0x08u},
1274:.\Generated_Source\PSoC5/cyfitter_cfg.c **** 			{0x17u, 0x02u},
1275:.\Generated_Source\PSoC5/cyfitter_cfg.c **** 			{0x18u, 0x60u},
1276:.\Generated_Source\PSoC5/cyfitter_cfg.c **** 			{0x19u, 0x08u},
1277:.\Generated_Source\PSoC5/cyfitter_cfg.c **** 			{0x1Au, 0x04u},
1278:.\Generated_Source\PSoC5/cyfitter_cfg.c **** 			{0x1Du, 0x04u},
1279:.\Generated_Source\PSoC5/cyfitter_cfg.c **** 			{0x1Fu, 0x05u},
1280:.\Generated_Source\PSoC5/cyfitter_cfg.c **** 			{0x22u, 0x20u},
1281:.\Generated_Source\PSoC5/cyfitter_cfg.c **** 			{0x27u, 0x08u},
1282:.\Generated_Source\PSoC5/cyfitter_cfg.c **** 			{0x2Cu, 0x08u},
1283:.\Generated_Source\PSoC5/cyfitter_cfg.c **** 			{0x2Eu, 0x08u},
1284:.\Generated_Source\PSoC5/cyfitter_cfg.c **** 			{0x2Fu, 0x10u},
1285:.\Generated_Source\PSoC5/cyfitter_cfg.c **** 			{0x35u, 0x08u},
1286:.\Generated_Source\PSoC5/cyfitter_cfg.c **** 			{0x37u, 0x40u},
1287:.\Generated_Source\PSoC5/cyfitter_cfg.c **** 			{0x38u, 0x08u},
1288:.\Generated_Source\PSoC5/cyfitter_cfg.c **** 			{0x40u, 0x44u},
1289:.\Generated_Source\PSoC5/cyfitter_cfg.c **** 			{0x50u, 0x08u},
1290:.\Generated_Source\PSoC5/cyfitter_cfg.c **** 			{0x53u, 0x40u},
ARM GAS  C:\Users\xavieran\AppData\Local\Temp\ccwd941Y.s 			page 34


1291:.\Generated_Source\PSoC5/cyfitter_cfg.c **** 			{0x5Au, 0x40u},
1292:.\Generated_Source\PSoC5/cyfitter_cfg.c **** 			{0x5Bu, 0x10u},
1293:.\Generated_Source\PSoC5/cyfitter_cfg.c **** 			{0x7Bu, 0x01u},
1294:.\Generated_Source\PSoC5/cyfitter_cfg.c **** 			{0x83u, 0x10u},
1295:.\Generated_Source\PSoC5/cyfitter_cfg.c **** 			{0x8Bu, 0x04u},
1296:.\Generated_Source\PSoC5/cyfitter_cfg.c **** 			{0x8Du, 0x01u},
1297:.\Generated_Source\PSoC5/cyfitter_cfg.c **** 			{0x8Fu, 0x10u},
1298:.\Generated_Source\PSoC5/cyfitter_cfg.c **** 			{0x90u, 0x08u},
1299:.\Generated_Source\PSoC5/cyfitter_cfg.c **** 			{0x97u, 0xA8u},
1300:.\Generated_Source\PSoC5/cyfitter_cfg.c **** 			{0x99u, 0x20u},
1301:.\Generated_Source\PSoC5/cyfitter_cfg.c **** 			{0x9Cu, 0x84u},
1302:.\Generated_Source\PSoC5/cyfitter_cfg.c **** 			{0x9Du, 0x0Cu},
1303:.\Generated_Source\PSoC5/cyfitter_cfg.c **** 			{0x9Eu, 0x0Au},
1304:.\Generated_Source\PSoC5/cyfitter_cfg.c **** 			{0x9Fu, 0x42u},
1305:.\Generated_Source\PSoC5/cyfitter_cfg.c **** 			{0xA0u, 0x42u},
1306:.\Generated_Source\PSoC5/cyfitter_cfg.c **** 			{0xA5u, 0x01u},
1307:.\Generated_Source\PSoC5/cyfitter_cfg.c **** 			{0xA7u, 0x20u},
1308:.\Generated_Source\PSoC5/cyfitter_cfg.c **** 			{0xABu, 0x10u},
1309:.\Generated_Source\PSoC5/cyfitter_cfg.c **** 			{0xACu, 0x01u},
1310:.\Generated_Source\PSoC5/cyfitter_cfg.c **** 			{0xAFu, 0x01u},
1311:.\Generated_Source\PSoC5/cyfitter_cfg.c **** 			{0xB0u, 0x40u},
1312:.\Generated_Source\PSoC5/cyfitter_cfg.c **** 			{0xB4u, 0x06u},
1313:.\Generated_Source\PSoC5/cyfitter_cfg.c **** 			{0xB7u, 0x08u},
1314:.\Generated_Source\PSoC5/cyfitter_cfg.c **** 			{0xC0u, 0xDFu},
1315:.\Generated_Source\PSoC5/cyfitter_cfg.c **** 			{0xC2u, 0x6Fu},
1316:.\Generated_Source\PSoC5/cyfitter_cfg.c **** 			{0xC4u, 0xDFu},
1317:.\Generated_Source\PSoC5/cyfitter_cfg.c **** 			{0xCAu, 0x60u},
1318:.\Generated_Source\PSoC5/cyfitter_cfg.c **** 			{0xCCu, 0x50u},
1319:.\Generated_Source\PSoC5/cyfitter_cfg.c **** 			{0xCEu, 0x02u},
1320:.\Generated_Source\PSoC5/cyfitter_cfg.c **** 			{0xD0u, 0x05u},
1321:.\Generated_Source\PSoC5/cyfitter_cfg.c **** 			{0xD6u, 0x0Cu},
1322:.\Generated_Source\PSoC5/cyfitter_cfg.c **** 			{0xDEu, 0x08u},
1323:.\Generated_Source\PSoC5/cyfitter_cfg.c **** 			{0xE2u, 0x94u},
1324:.\Generated_Source\PSoC5/cyfitter_cfg.c **** 			{0xEAu, 0x02u},
1325:.\Generated_Source\PSoC5/cyfitter_cfg.c **** 			{0xEEu, 0x68u},
1326:.\Generated_Source\PSoC5/cyfitter_cfg.c **** 			{0x03u, 0x01u},
1327:.\Generated_Source\PSoC5/cyfitter_cfg.c **** 			{0x05u, 0x0Eu},
1328:.\Generated_Source\PSoC5/cyfitter_cfg.c **** 			{0x06u, 0x20u},
1329:.\Generated_Source\PSoC5/cyfitter_cfg.c **** 			{0x07u, 0x30u},
1330:.\Generated_Source\PSoC5/cyfitter_cfg.c **** 			{0x0Du, 0x46u},
1331:.\Generated_Source\PSoC5/cyfitter_cfg.c **** 			{0x0Eu, 0x18u},
1332:.\Generated_Source\PSoC5/cyfitter_cfg.c **** 			{0x0Fu, 0xA9u},
1333:.\Generated_Source\PSoC5/cyfitter_cfg.c **** 			{0x10u, 0x0Fu},
1334:.\Generated_Source\PSoC5/cyfitter_cfg.c **** 			{0x11u, 0x2Au},
1335:.\Generated_Source\PSoC5/cyfitter_cfg.c **** 			{0x13u, 0x54u},
1336:.\Generated_Source\PSoC5/cyfitter_cfg.c **** 			{0x14u, 0x10u},
1337:.\Generated_Source\PSoC5/cyfitter_cfg.c **** 			{0x15u, 0xFFu},
1338:.\Generated_Source\PSoC5/cyfitter_cfg.c **** 			{0x16u, 0x01u},
1339:.\Generated_Source\PSoC5/cyfitter_cfg.c **** 			{0x18u, 0x04u},
1340:.\Generated_Source\PSoC5/cyfitter_cfg.c **** 			{0x1Au, 0x08u},
1341:.\Generated_Source\PSoC5/cyfitter_cfg.c **** 			{0x1Du, 0x33u},
1342:.\Generated_Source\PSoC5/cyfitter_cfg.c **** 			{0x1Fu, 0x0Cu},
1343:.\Generated_Source\PSoC5/cyfitter_cfg.c **** 			{0x21u, 0x40u},
1344:.\Generated_Source\PSoC5/cyfitter_cfg.c **** 			{0x22u, 0x14u},
1345:.\Generated_Source\PSoC5/cyfitter_cfg.c **** 			{0x23u, 0x13u},
1346:.\Generated_Source\PSoC5/cyfitter_cfg.c **** 			{0x25u, 0x80u},
1347:.\Generated_Source\PSoC5/cyfitter_cfg.c **** 			{0x26u, 0x08u},
ARM GAS  C:\Users\xavieran\AppData\Local\Temp\ccwd941Y.s 			page 35


1348:.\Generated_Source\PSoC5/cyfitter_cfg.c **** 			{0x27u, 0x56u},
1349:.\Generated_Source\PSoC5/cyfitter_cfg.c **** 			{0x28u, 0x3Fu},
1350:.\Generated_Source\PSoC5/cyfitter_cfg.c **** 			{0x2Cu, 0x10u},
1351:.\Generated_Source\PSoC5/cyfitter_cfg.c **** 			{0x2Eu, 0x02u},
1352:.\Generated_Source\PSoC5/cyfitter_cfg.c **** 			{0x31u, 0xFFu},
1353:.\Generated_Source\PSoC5/cyfitter_cfg.c **** 			{0x34u, 0x3Fu},
1354:.\Generated_Source\PSoC5/cyfitter_cfg.c **** 			{0x38u, 0x20u},
1355:.\Generated_Source\PSoC5/cyfitter_cfg.c **** 			{0x42u, 0x01u},
1356:.\Generated_Source\PSoC5/cyfitter_cfg.c **** 			{0x47u, 0xE0u},
1357:.\Generated_Source\PSoC5/cyfitter_cfg.c **** 			{0x48u, 0x20u},
1358:.\Generated_Source\PSoC5/cyfitter_cfg.c **** 			{0x49u, 0xFFu},
1359:.\Generated_Source\PSoC5/cyfitter_cfg.c **** 			{0x4Au, 0xFFu},
1360:.\Generated_Source\PSoC5/cyfitter_cfg.c **** 			{0x4Bu, 0xFFu},
1361:.\Generated_Source\PSoC5/cyfitter_cfg.c **** 			{0x4Fu, 0x83u},
1362:.\Generated_Source\PSoC5/cyfitter_cfg.c **** 			{0x58u, 0x04u},
1363:.\Generated_Source\PSoC5/cyfitter_cfg.c **** 			{0x59u, 0x04u},
1364:.\Generated_Source\PSoC5/cyfitter_cfg.c **** 			{0x5Au, 0x04u},
1365:.\Generated_Source\PSoC5/cyfitter_cfg.c **** 			{0x5Bu, 0x04u},
1366:.\Generated_Source\PSoC5/cyfitter_cfg.c **** 			{0x5Cu, 0x22u},
1367:.\Generated_Source\PSoC5/cyfitter_cfg.c **** 			{0x5Du, 0x08u},
1368:.\Generated_Source\PSoC5/cyfitter_cfg.c **** 			{0x5Fu, 0x31u},
1369:.\Generated_Source\PSoC5/cyfitter_cfg.c **** 			{0x81u, 0x01u},
1370:.\Generated_Source\PSoC5/cyfitter_cfg.c **** 			{0x83u, 0x02u},
1371:.\Generated_Source\PSoC5/cyfitter_cfg.c **** 			{0x85u, 0x06u},
1372:.\Generated_Source\PSoC5/cyfitter_cfg.c **** 			{0x8Du, 0x01u},
1373:.\Generated_Source\PSoC5/cyfitter_cfg.c **** 			{0x8Fu, 0x02u},
1374:.\Generated_Source\PSoC5/cyfitter_cfg.c **** 			{0x93u, 0x02u},
1375:.\Generated_Source\PSoC5/cyfitter_cfg.c **** 			{0x95u, 0x08u},
1376:.\Generated_Source\PSoC5/cyfitter_cfg.c **** 			{0x97u, 0x05u},
1377:.\Generated_Source\PSoC5/cyfitter_cfg.c **** 			{0x9Du, 0x01u},
1378:.\Generated_Source\PSoC5/cyfitter_cfg.c **** 			{0x9Fu, 0x04u},
1379:.\Generated_Source\PSoC5/cyfitter_cfg.c **** 			{0xA7u, 0x10u},
1380:.\Generated_Source\PSoC5/cyfitter_cfg.c **** 			{0xA9u, 0x0Fu},
1381:.\Generated_Source\PSoC5/cyfitter_cfg.c **** 			{0xADu, 0x05u},
1382:.\Generated_Source\PSoC5/cyfitter_cfg.c **** 			{0xAFu, 0x0Au},
1383:.\Generated_Source\PSoC5/cyfitter_cfg.c **** 			{0xB5u, 0x1Fu},
1384:.\Generated_Source\PSoC5/cyfitter_cfg.c **** 			{0xD9u, 0x04u},
1385:.\Generated_Source\PSoC5/cyfitter_cfg.c **** 			{0xDCu, 0x20u},
1386:.\Generated_Source\PSoC5/cyfitter_cfg.c **** 			{0xDFu, 0x01u},
1387:.\Generated_Source\PSoC5/cyfitter_cfg.c **** 			{0x00u, 0x80u},
1388:.\Generated_Source\PSoC5/cyfitter_cfg.c **** 			{0x01u, 0x08u},
1389:.\Generated_Source\PSoC5/cyfitter_cfg.c **** 			{0x0Bu, 0xA8u},
1390:.\Generated_Source\PSoC5/cyfitter_cfg.c **** 			{0x10u, 0x04u},
1391:.\Generated_Source\PSoC5/cyfitter_cfg.c **** 			{0x13u, 0x8Au},
1392:.\Generated_Source\PSoC5/cyfitter_cfg.c **** 			{0x19u, 0x20u},
1393:.\Generated_Source\PSoC5/cyfitter_cfg.c **** 			{0x20u, 0xC0u},
1394:.\Generated_Source\PSoC5/cyfitter_cfg.c **** 			{0x27u, 0x08u},
1395:.\Generated_Source\PSoC5/cyfitter_cfg.c **** 			{0x29u, 0x05u},
1396:.\Generated_Source\PSoC5/cyfitter_cfg.c **** 			{0x2Cu, 0x06u},
1397:.\Generated_Source\PSoC5/cyfitter_cfg.c **** 			{0x2Fu, 0x20u},
1398:.\Generated_Source\PSoC5/cyfitter_cfg.c **** 			{0x30u, 0x06u},
1399:.\Generated_Source\PSoC5/cyfitter_cfg.c **** 			{0x33u, 0x40u},
1400:.\Generated_Source\PSoC5/cyfitter_cfg.c **** 			{0x35u, 0x05u},
1401:.\Generated_Source\PSoC5/cyfitter_cfg.c **** 			{0x37u, 0xC2u},
1402:.\Generated_Source\PSoC5/cyfitter_cfg.c **** 			{0x38u, 0x40u},
1403:.\Generated_Source\PSoC5/cyfitter_cfg.c **** 			{0x39u, 0x01u},
1404:.\Generated_Source\PSoC5/cyfitter_cfg.c **** 			{0x3Au, 0x08u},
ARM GAS  C:\Users\xavieran\AppData\Local\Temp\ccwd941Y.s 			page 36


1405:.\Generated_Source\PSoC5/cyfitter_cfg.c **** 			{0x3Cu, 0x80u},
1406:.\Generated_Source\PSoC5/cyfitter_cfg.c **** 			{0x3Du, 0x03u},
1407:.\Generated_Source\PSoC5/cyfitter_cfg.c **** 			{0x3Eu, 0x08u},
1408:.\Generated_Source\PSoC5/cyfitter_cfg.c **** 			{0x42u, 0x02u},
1409:.\Generated_Source\PSoC5/cyfitter_cfg.c **** 			{0x52u, 0x01u},
1410:.\Generated_Source\PSoC5/cyfitter_cfg.c **** 			{0x58u, 0x40u},
1411:.\Generated_Source\PSoC5/cyfitter_cfg.c **** 			{0x5Bu, 0x15u},
1412:.\Generated_Source\PSoC5/cyfitter_cfg.c **** 			{0x60u, 0x88u},
1413:.\Generated_Source\PSoC5/cyfitter_cfg.c **** 			{0x62u, 0x04u},
1414:.\Generated_Source\PSoC5/cyfitter_cfg.c **** 			{0x63u, 0x02u},
1415:.\Generated_Source\PSoC5/cyfitter_cfg.c **** 			{0x78u, 0x01u},
1416:.\Generated_Source\PSoC5/cyfitter_cfg.c **** 			{0x82u, 0x05u},
1417:.\Generated_Source\PSoC5/cyfitter_cfg.c **** 			{0x87u, 0x01u},
1418:.\Generated_Source\PSoC5/cyfitter_cfg.c **** 			{0x88u, 0x40u},
1419:.\Generated_Source\PSoC5/cyfitter_cfg.c **** 			{0x8Cu, 0x08u},
1420:.\Generated_Source\PSoC5/cyfitter_cfg.c **** 			{0x8Fu, 0x04u},
1421:.\Generated_Source\PSoC5/cyfitter_cfg.c **** 			{0xC0u, 0x05u},
1422:.\Generated_Source\PSoC5/cyfitter_cfg.c **** 			{0xC2u, 0x0Eu},
1423:.\Generated_Source\PSoC5/cyfitter_cfg.c **** 			{0xC4u, 0x0Fu},
1424:.\Generated_Source\PSoC5/cyfitter_cfg.c **** 			{0xCAu, 0x73u},
1425:.\Generated_Source\PSoC5/cyfitter_cfg.c **** 			{0xCCu, 0xDBu},
1426:.\Generated_Source\PSoC5/cyfitter_cfg.c **** 			{0xCEu, 0xDBu},
1427:.\Generated_Source\PSoC5/cyfitter_cfg.c **** 			{0xD0u, 0x08u},
1428:.\Generated_Source\PSoC5/cyfitter_cfg.c **** 			{0xD6u, 0x0Fu},
1429:.\Generated_Source\PSoC5/cyfitter_cfg.c **** 			{0xD8u, 0x0Fu},
1430:.\Generated_Source\PSoC5/cyfitter_cfg.c **** 			{0xDEu, 0x01u},
1431:.\Generated_Source\PSoC5/cyfitter_cfg.c **** 			{0xE0u, 0x80u},
1432:.\Generated_Source\PSoC5/cyfitter_cfg.c **** 			{0xE2u, 0x01u},
1433:.\Generated_Source\PSoC5/cyfitter_cfg.c **** 			{0xE4u, 0x10u},
1434:.\Generated_Source\PSoC5/cyfitter_cfg.c **** 			{0xE6u, 0x80u},
1435:.\Generated_Source\PSoC5/cyfitter_cfg.c **** 			{0x05u, 0x01u},
1436:.\Generated_Source\PSoC5/cyfitter_cfg.c **** 			{0x17u, 0x01u},
1437:.\Generated_Source\PSoC5/cyfitter_cfg.c **** 			{0x1Au, 0x01u},
1438:.\Generated_Source\PSoC5/cyfitter_cfg.c **** 			{0x2Eu, 0x01u},
1439:.\Generated_Source\PSoC5/cyfitter_cfg.c **** 			{0x30u, 0x01u},
1440:.\Generated_Source\PSoC5/cyfitter_cfg.c **** 			{0x33u, 0x01u},
1441:.\Generated_Source\PSoC5/cyfitter_cfg.c **** 			{0x40u, 0x30u},
1442:.\Generated_Source\PSoC5/cyfitter_cfg.c **** 			{0x41u, 0x02u},
1443:.\Generated_Source\PSoC5/cyfitter_cfg.c **** 			{0x49u, 0xFFu},
1444:.\Generated_Source\PSoC5/cyfitter_cfg.c **** 			{0x4Au, 0xFFu},
1445:.\Generated_Source\PSoC5/cyfitter_cfg.c **** 			{0x4Bu, 0xFFu},
1446:.\Generated_Source\PSoC5/cyfitter_cfg.c **** 			{0x4Du, 0xA0u},
1447:.\Generated_Source\PSoC5/cyfitter_cfg.c **** 			{0x4Fu, 0x04u},
1448:.\Generated_Source\PSoC5/cyfitter_cfg.c **** 			{0x50u, 0x18u},
1449:.\Generated_Source\PSoC5/cyfitter_cfg.c **** 			{0x58u, 0x04u},
1450:.\Generated_Source\PSoC5/cyfitter_cfg.c **** 			{0x59u, 0x04u},
1451:.\Generated_Source\PSoC5/cyfitter_cfg.c **** 			{0x5Au, 0x04u},
1452:.\Generated_Source\PSoC5/cyfitter_cfg.c **** 			{0x5Cu, 0x33u},
1453:.\Generated_Source\PSoC5/cyfitter_cfg.c **** 			{0x5Du, 0x03u},
1454:.\Generated_Source\PSoC5/cyfitter_cfg.c **** 			{0x5Fu, 0x01u},
1455:.\Generated_Source\PSoC5/cyfitter_cfg.c **** 			{0x60u, 0x40u},
1456:.\Generated_Source\PSoC5/cyfitter_cfg.c **** 			{0x62u, 0xC0u},
1457:.\Generated_Source\PSoC5/cyfitter_cfg.c **** 			{0x64u, 0x40u},
1458:.\Generated_Source\PSoC5/cyfitter_cfg.c **** 			{0x65u, 0x40u},
1459:.\Generated_Source\PSoC5/cyfitter_cfg.c **** 			{0x66u, 0xC0u},
1460:.\Generated_Source\PSoC5/cyfitter_cfg.c **** 			{0x68u, 0xC0u},
1461:.\Generated_Source\PSoC5/cyfitter_cfg.c **** 			{0x6Au, 0xC0u},
ARM GAS  C:\Users\xavieran\AppData\Local\Temp\ccwd941Y.s 			page 37


1462:.\Generated_Source\PSoC5/cyfitter_cfg.c **** 			{0x6Cu, 0xC0u},
1463:.\Generated_Source\PSoC5/cyfitter_cfg.c **** 			{0x6Eu, 0xC0u},
1464:.\Generated_Source\PSoC5/cyfitter_cfg.c **** 			{0x84u, 0x01u},
1465:.\Generated_Source\PSoC5/cyfitter_cfg.c **** 			{0x85u, 0x01u},
1466:.\Generated_Source\PSoC5/cyfitter_cfg.c **** 			{0x8Au, 0x02u},
1467:.\Generated_Source\PSoC5/cyfitter_cfg.c **** 			{0x92u, 0x01u},
1468:.\Generated_Source\PSoC5/cyfitter_cfg.c **** 			{0x9Fu, 0x04u},
1469:.\Generated_Source\PSoC5/cyfitter_cfg.c **** 			{0xA1u, 0x01u},
1470:.\Generated_Source\PSoC5/cyfitter_cfg.c **** 			{0xA6u, 0x02u},
1471:.\Generated_Source\PSoC5/cyfitter_cfg.c **** 			{0xA8u, 0x04u},
1472:.\Generated_Source\PSoC5/cyfitter_cfg.c **** 			{0xAFu, 0x02u},
1473:.\Generated_Source\PSoC5/cyfitter_cfg.c **** 			{0xB2u, 0x01u},
1474:.\Generated_Source\PSoC5/cyfitter_cfg.c **** 			{0xB3u, 0x02u},
1475:.\Generated_Source\PSoC5/cyfitter_cfg.c **** 			{0xB4u, 0x02u},
1476:.\Generated_Source\PSoC5/cyfitter_cfg.c **** 			{0xB5u, 0x04u},
1477:.\Generated_Source\PSoC5/cyfitter_cfg.c **** 			{0xB6u, 0x04u},
1478:.\Generated_Source\PSoC5/cyfitter_cfg.c **** 			{0xB7u, 0x01u},
1479:.\Generated_Source\PSoC5/cyfitter_cfg.c **** 			{0xBEu, 0x10u},
1480:.\Generated_Source\PSoC5/cyfitter_cfg.c **** 			{0xC0u, 0x20u},
1481:.\Generated_Source\PSoC5/cyfitter_cfg.c **** 			{0xC1u, 0x03u},
1482:.\Generated_Source\PSoC5/cyfitter_cfg.c **** 			{0xC5u, 0xD0u},
1483:.\Generated_Source\PSoC5/cyfitter_cfg.c **** 			{0xC6u, 0x20u},
1484:.\Generated_Source\PSoC5/cyfitter_cfg.c **** 			{0xC7u, 0x51u},
1485:.\Generated_Source\PSoC5/cyfitter_cfg.c **** 			{0xC8u, 0x3Au},
1486:.\Generated_Source\PSoC5/cyfitter_cfg.c **** 			{0xC9u, 0xFFu},
1487:.\Generated_Source\PSoC5/cyfitter_cfg.c **** 			{0xCAu, 0xFFu},
1488:.\Generated_Source\PSoC5/cyfitter_cfg.c **** 			{0xCBu, 0xFFu},
1489:.\Generated_Source\PSoC5/cyfitter_cfg.c **** 			{0xCDu, 0xAFu},
1490:.\Generated_Source\PSoC5/cyfitter_cfg.c **** 			{0xCEu, 0x0Fu},
1491:.\Generated_Source\PSoC5/cyfitter_cfg.c **** 			{0xCFu, 0x04u},
1492:.\Generated_Source\PSoC5/cyfitter_cfg.c **** 			{0xD0u, 0x18u},
1493:.\Generated_Source\PSoC5/cyfitter_cfg.c **** 			{0xD2u, 0x80u},
1494:.\Generated_Source\PSoC5/cyfitter_cfg.c **** 			{0xD4u, 0x07u},
1495:.\Generated_Source\PSoC5/cyfitter_cfg.c **** 			{0xD8u, 0x04u},
1496:.\Generated_Source\PSoC5/cyfitter_cfg.c **** 			{0xD9u, 0x04u},
1497:.\Generated_Source\PSoC5/cyfitter_cfg.c **** 			{0xDAu, 0x04u},
1498:.\Generated_Source\PSoC5/cyfitter_cfg.c **** 			{0xDBu, 0x04u},
1499:.\Generated_Source\PSoC5/cyfitter_cfg.c **** 			{0xDCu, 0x33u},
1500:.\Generated_Source\PSoC5/cyfitter_cfg.c **** 			{0xDDu, 0x33u},
1501:.\Generated_Source\PSoC5/cyfitter_cfg.c **** 			{0xDFu, 0x01u},
1502:.\Generated_Source\PSoC5/cyfitter_cfg.c **** 			{0xE0u, 0x40u},
1503:.\Generated_Source\PSoC5/cyfitter_cfg.c **** 			{0xE2u, 0xC0u},
1504:.\Generated_Source\PSoC5/cyfitter_cfg.c **** 			{0xE4u, 0x40u},
1505:.\Generated_Source\PSoC5/cyfitter_cfg.c **** 			{0xE5u, 0x40u},
1506:.\Generated_Source\PSoC5/cyfitter_cfg.c **** 			{0xE6u, 0xC0u},
1507:.\Generated_Source\PSoC5/cyfitter_cfg.c **** 			{0xE8u, 0xC0u},
1508:.\Generated_Source\PSoC5/cyfitter_cfg.c **** 			{0xEAu, 0xC0u},
1509:.\Generated_Source\PSoC5/cyfitter_cfg.c **** 			{0xECu, 0xC0u},
1510:.\Generated_Source\PSoC5/cyfitter_cfg.c **** 			{0xEEu, 0xC0u},
1511:.\Generated_Source\PSoC5/cyfitter_cfg.c **** 			{0x07u, 0x14u},
1512:.\Generated_Source\PSoC5/cyfitter_cfg.c **** 			{0x09u, 0x10u},
1513:.\Generated_Source\PSoC5/cyfitter_cfg.c **** 			{0x0Cu, 0x02u},
1514:.\Generated_Source\PSoC5/cyfitter_cfg.c **** 			{0x10u, 0x02u},
1515:.\Generated_Source\PSoC5/cyfitter_cfg.c **** 			{0x16u, 0x14u},
1516:.\Generated_Source\PSoC5/cyfitter_cfg.c **** 			{0x1Au, 0x80u},
1517:.\Generated_Source\PSoC5/cyfitter_cfg.c **** 			{0x1Eu, 0x28u},
1518:.\Generated_Source\PSoC5/cyfitter_cfg.c **** 			{0x1Fu, 0x80u},
ARM GAS  C:\Users\xavieran\AppData\Local\Temp\ccwd941Y.s 			page 38


1519:.\Generated_Source\PSoC5/cyfitter_cfg.c **** 			{0x21u, 0x08u},
1520:.\Generated_Source\PSoC5/cyfitter_cfg.c **** 			{0x25u, 0x10u},
1521:.\Generated_Source\PSoC5/cyfitter_cfg.c **** 			{0x26u, 0x40u},
1522:.\Generated_Source\PSoC5/cyfitter_cfg.c **** 			{0x27u, 0x14u},
1523:.\Generated_Source\PSoC5/cyfitter_cfg.c **** 			{0x2Cu, 0x02u},
1524:.\Generated_Source\PSoC5/cyfitter_cfg.c **** 			{0x2Fu, 0x80u},
1525:.\Generated_Source\PSoC5/cyfitter_cfg.c **** 			{0x33u, 0x04u},
1526:.\Generated_Source\PSoC5/cyfitter_cfg.c **** 			{0x37u, 0x40u},
1527:.\Generated_Source\PSoC5/cyfitter_cfg.c **** 			{0x3Au, 0x04u},
1528:.\Generated_Source\PSoC5/cyfitter_cfg.c **** 			{0x3Du, 0x08u},
1529:.\Generated_Source\PSoC5/cyfitter_cfg.c **** 			{0x41u, 0x20u},
1530:.\Generated_Source\PSoC5/cyfitter_cfg.c **** 			{0x43u, 0x04u},
1531:.\Generated_Source\PSoC5/cyfitter_cfg.c **** 			{0x45u, 0x10u},
1532:.\Generated_Source\PSoC5/cyfitter_cfg.c **** 			{0x46u, 0x10u},
1533:.\Generated_Source\PSoC5/cyfitter_cfg.c **** 			{0x4Du, 0x01u},
1534:.\Generated_Source\PSoC5/cyfitter_cfg.c **** 			{0x54u, 0x02u},
1535:.\Generated_Source\PSoC5/cyfitter_cfg.c **** 			{0x55u, 0x24u},
1536:.\Generated_Source\PSoC5/cyfitter_cfg.c **** 			{0x56u, 0x14u},
1537:.\Generated_Source\PSoC5/cyfitter_cfg.c **** 			{0x5Du, 0x01u},
1538:.\Generated_Source\PSoC5/cyfitter_cfg.c **** 			{0x5Eu, 0xA8u},
1539:.\Generated_Source\PSoC5/cyfitter_cfg.c **** 			{0x77u, 0x40u},
1540:.\Generated_Source\PSoC5/cyfitter_cfg.c **** 			{0x82u, 0x40u},
1541:.\Generated_Source\PSoC5/cyfitter_cfg.c **** 			{0x89u, 0x08u},
1542:.\Generated_Source\PSoC5/cyfitter_cfg.c **** 			{0xA5u, 0x08u},
1543:.\Generated_Source\PSoC5/cyfitter_cfg.c **** 			{0xB3u, 0x5Cu},
1544:.\Generated_Source\PSoC5/cyfitter_cfg.c **** 			{0xC0u, 0x60u},
1545:.\Generated_Source\PSoC5/cyfitter_cfg.c **** 			{0xC2u, 0x12u},
1546:.\Generated_Source\PSoC5/cyfitter_cfg.c **** 			{0xC4u, 0x61u},
1547:.\Generated_Source\PSoC5/cyfitter_cfg.c **** 			{0xCAu, 0x90u},
1548:.\Generated_Source\PSoC5/cyfitter_cfg.c **** 			{0xCCu, 0x12u},
1549:.\Generated_Source\PSoC5/cyfitter_cfg.c **** 			{0xCEu, 0x42u},
1550:.\Generated_Source\PSoC5/cyfitter_cfg.c **** 			{0xD0u, 0x66u},
1551:.\Generated_Source\PSoC5/cyfitter_cfg.c **** 			{0xD6u, 0xF0u},
1552:.\Generated_Source\PSoC5/cyfitter_cfg.c **** 			{0xE6u, 0x20u},
1553:.\Generated_Source\PSoC5/cyfitter_cfg.c **** 			{0xEAu, 0x01u},
1554:.\Generated_Source\PSoC5/cyfitter_cfg.c **** 			{0xEEu, 0x08u},
1555:.\Generated_Source\PSoC5/cyfitter_cfg.c **** 			{0x40u, 0x45u},
1556:.\Generated_Source\PSoC5/cyfitter_cfg.c **** 			{0x41u, 0x03u},
1557:.\Generated_Source\PSoC5/cyfitter_cfg.c **** 			{0x49u, 0xFFu},
1558:.\Generated_Source\PSoC5/cyfitter_cfg.c **** 			{0x4Au, 0xFFu},
1559:.\Generated_Source\PSoC5/cyfitter_cfg.c **** 			{0x4Bu, 0xFFu},
1560:.\Generated_Source\PSoC5/cyfitter_cfg.c **** 			{0x4Fu, 0x01u},
1561:.\Generated_Source\PSoC5/cyfitter_cfg.c **** 			{0x50u, 0x18u},
1562:.\Generated_Source\PSoC5/cyfitter_cfg.c **** 			{0x56u, 0x08u},
1563:.\Generated_Source\PSoC5/cyfitter_cfg.c **** 			{0x5Au, 0x04u},
1564:.\Generated_Source\PSoC5/cyfitter_cfg.c **** 			{0x5Bu, 0x04u},
1565:.\Generated_Source\PSoC5/cyfitter_cfg.c **** 			{0x5Du, 0x93u},
1566:.\Generated_Source\PSoC5/cyfitter_cfg.c **** 			{0x5Fu, 0x01u},
1567:.\Generated_Source\PSoC5/cyfitter_cfg.c **** 			{0x60u, 0x40u},
1568:.\Generated_Source\PSoC5/cyfitter_cfg.c **** 			{0x62u, 0x40u},
1569:.\Generated_Source\PSoC5/cyfitter_cfg.c **** 			{0x64u, 0x40u},
1570:.\Generated_Source\PSoC5/cyfitter_cfg.c **** 			{0x65u, 0x40u},
1571:.\Generated_Source\PSoC5/cyfitter_cfg.c **** 			{0x66u, 0x80u},
1572:.\Generated_Source\PSoC5/cyfitter_cfg.c **** 			{0x68u, 0x80u},
1573:.\Generated_Source\PSoC5/cyfitter_cfg.c **** 			{0x6Au, 0x80u},
1574:.\Generated_Source\PSoC5/cyfitter_cfg.c **** 			{0x6Cu, 0x80u},
1575:.\Generated_Source\PSoC5/cyfitter_cfg.c **** 			{0x6Eu, 0x80u},
ARM GAS  C:\Users\xavieran\AppData\Local\Temp\ccwd941Y.s 			page 39


1576:.\Generated_Source\PSoC5/cyfitter_cfg.c **** 			{0x00u, 0x04u},
1577:.\Generated_Source\PSoC5/cyfitter_cfg.c **** 			{0x02u, 0x02u},
1578:.\Generated_Source\PSoC5/cyfitter_cfg.c **** 			{0x03u, 0x80u},
1579:.\Generated_Source\PSoC5/cyfitter_cfg.c **** 			{0x08u, 0x02u},
1580:.\Generated_Source\PSoC5/cyfitter_cfg.c **** 			{0x0Au, 0x28u},
1581:.\Generated_Source\PSoC5/cyfitter_cfg.c **** 			{0x0Bu, 0x02u},
1582:.\Generated_Source\PSoC5/cyfitter_cfg.c **** 			{0x11u, 0x10u},
1583:.\Generated_Source\PSoC5/cyfitter_cfg.c **** 			{0x12u, 0x20u},
1584:.\Generated_Source\PSoC5/cyfitter_cfg.c **** 			{0x1Au, 0x60u},
1585:.\Generated_Source\PSoC5/cyfitter_cfg.c **** 			{0x1Bu, 0x88u},
1586:.\Generated_Source\PSoC5/cyfitter_cfg.c **** 			{0x21u, 0x40u},
1587:.\Generated_Source\PSoC5/cyfitter_cfg.c **** 			{0x23u, 0x04u},
1588:.\Generated_Source\PSoC5/cyfitter_cfg.c **** 			{0x28u, 0x41u},
1589:.\Generated_Source\PSoC5/cyfitter_cfg.c **** 			{0x29u, 0x20u},
1590:.\Generated_Source\PSoC5/cyfitter_cfg.c **** 			{0x2Au, 0x04u},
1591:.\Generated_Source\PSoC5/cyfitter_cfg.c **** 			{0x32u, 0x16u},
1592:.\Generated_Source\PSoC5/cyfitter_cfg.c **** 			{0x33u, 0x80u},
1593:.\Generated_Source\PSoC5/cyfitter_cfg.c **** 			{0x39u, 0x80u},
1594:.\Generated_Source\PSoC5/cyfitter_cfg.c **** 			{0x3Au, 0x01u},
1595:.\Generated_Source\PSoC5/cyfitter_cfg.c **** 			{0x3Bu, 0x14u},
1596:.\Generated_Source\PSoC5/cyfitter_cfg.c **** 			{0x40u, 0x02u},
1597:.\Generated_Source\PSoC5/cyfitter_cfg.c **** 			{0x41u, 0x0Cu},
1598:.\Generated_Source\PSoC5/cyfitter_cfg.c **** 			{0x45u, 0x08u},
1599:.\Generated_Source\PSoC5/cyfitter_cfg.c **** 			{0x46u, 0x80u},
1600:.\Generated_Source\PSoC5/cyfitter_cfg.c **** 			{0x48u, 0x02u},
1601:.\Generated_Source\PSoC5/cyfitter_cfg.c **** 			{0x49u, 0x0Au},
1602:.\Generated_Source\PSoC5/cyfitter_cfg.c **** 			{0x4Cu, 0x02u},
1603:.\Generated_Source\PSoC5/cyfitter_cfg.c **** 			{0x50u, 0x02u},
1604:.\Generated_Source\PSoC5/cyfitter_cfg.c **** 			{0x53u, 0x01u},
1605:.\Generated_Source\PSoC5/cyfitter_cfg.c **** 			{0x59u, 0x0Au},
1606:.\Generated_Source\PSoC5/cyfitter_cfg.c **** 			{0x5Au, 0x40u},
1607:.\Generated_Source\PSoC5/cyfitter_cfg.c **** 			{0x5Fu, 0x80u},
1608:.\Generated_Source\PSoC5/cyfitter_cfg.c **** 			{0x64u, 0x02u},
1609:.\Generated_Source\PSoC5/cyfitter_cfg.c **** 			{0x66u, 0x80u},
1610:.\Generated_Source\PSoC5/cyfitter_cfg.c **** 			{0x79u, 0x08u},
1611:.\Generated_Source\PSoC5/cyfitter_cfg.c **** 			{0x87u, 0x80u},
1612:.\Generated_Source\PSoC5/cyfitter_cfg.c **** 			{0x90u, 0x04u},
1613:.\Generated_Source\PSoC5/cyfitter_cfg.c **** 			{0x91u, 0x10u},
1614:.\Generated_Source\PSoC5/cyfitter_cfg.c **** 			{0x92u, 0x08u},
1615:.\Generated_Source\PSoC5/cyfitter_cfg.c **** 			{0x96u, 0x20u},
1616:.\Generated_Source\PSoC5/cyfitter_cfg.c **** 			{0x97u, 0x40u},
1617:.\Generated_Source\PSoC5/cyfitter_cfg.c **** 			{0x98u, 0x41u},
1618:.\Generated_Source\PSoC5/cyfitter_cfg.c **** 			{0x99u, 0x20u},
1619:.\Generated_Source\PSoC5/cyfitter_cfg.c **** 			{0x9Au, 0x05u},
1620:.\Generated_Source\PSoC5/cyfitter_cfg.c **** 			{0xA2u, 0x22u},
1621:.\Generated_Source\PSoC5/cyfitter_cfg.c **** 			{0xA7u, 0x80u},
1622:.\Generated_Source\PSoC5/cyfitter_cfg.c **** 			{0xA8u, 0x02u},
1623:.\Generated_Source\PSoC5/cyfitter_cfg.c **** 			{0xC0u, 0x0Du},
1624:.\Generated_Source\PSoC5/cyfitter_cfg.c **** 			{0xC2u, 0x0Fu},
1625:.\Generated_Source\PSoC5/cyfitter_cfg.c **** 			{0xC4u, 0x06u},
1626:.\Generated_Source\PSoC5/cyfitter_cfg.c **** 			{0xCAu, 0x0Fu},
1627:.\Generated_Source\PSoC5/cyfitter_cfg.c **** 			{0xCCu, 0x0Fu},
1628:.\Generated_Source\PSoC5/cyfitter_cfg.c **** 			{0xCEu, 0x0Fu},
1629:.\Generated_Source\PSoC5/cyfitter_cfg.c **** 			{0xD0u, 0xCAu},
1630:.\Generated_Source\PSoC5/cyfitter_cfg.c **** 			{0xD2u, 0x18u},
1631:.\Generated_Source\PSoC5/cyfitter_cfg.c **** 			{0xD6u, 0x1Bu},
1632:.\Generated_Source\PSoC5/cyfitter_cfg.c **** 			{0xD8u, 0x10u},
ARM GAS  C:\Users\xavieran\AppData\Local\Temp\ccwd941Y.s 			page 40


1633:.\Generated_Source\PSoC5/cyfitter_cfg.c **** 			{0xDEu, 0x02u},
1634:.\Generated_Source\PSoC5/cyfitter_cfg.c **** 			{0xE2u, 0x08u},
1635:.\Generated_Source\PSoC5/cyfitter_cfg.c **** 			{0xE4u, 0x82u},
1636:.\Generated_Source\PSoC5/cyfitter_cfg.c **** 			{0xEAu, 0x02u},
1637:.\Generated_Source\PSoC5/cyfitter_cfg.c **** 			{0xEEu, 0x05u},
1638:.\Generated_Source\PSoC5/cyfitter_cfg.c **** 			{0x38u, 0xA0u},
1639:.\Generated_Source\PSoC5/cyfitter_cfg.c **** 			{0x3Eu, 0x50u},
1640:.\Generated_Source\PSoC5/cyfitter_cfg.c **** 			{0x58u, 0x04u},
1641:.\Generated_Source\PSoC5/cyfitter_cfg.c **** 			{0x5Fu, 0x01u},
1642:.\Generated_Source\PSoC5/cyfitter_cfg.c **** 			{0x1Fu, 0x60u},
1643:.\Generated_Source\PSoC5/cyfitter_cfg.c **** 			{0x87u, 0x40u},
1644:.\Generated_Source\PSoC5/cyfitter_cfg.c **** 			{0x88u, 0x20u},
1645:.\Generated_Source\PSoC5/cyfitter_cfg.c **** 			{0x89u, 0x10u},
1646:.\Generated_Source\PSoC5/cyfitter_cfg.c **** 			{0x8Fu, 0x04u},
1647:.\Generated_Source\PSoC5/cyfitter_cfg.c **** 			{0x91u, 0x10u},
1648:.\Generated_Source\PSoC5/cyfitter_cfg.c **** 			{0x9Cu, 0x80u},
1649:.\Generated_Source\PSoC5/cyfitter_cfg.c **** 			{0x9Fu, 0x06u},
1650:.\Generated_Source\PSoC5/cyfitter_cfg.c **** 			{0xA0u, 0x02u},
1651:.\Generated_Source\PSoC5/cyfitter_cfg.c **** 			{0xA4u, 0x20u},
1652:.\Generated_Source\PSoC5/cyfitter_cfg.c **** 			{0xAAu, 0x10u},
1653:.\Generated_Source\PSoC5/cyfitter_cfg.c **** 			{0xABu, 0x10u},
1654:.\Generated_Source\PSoC5/cyfitter_cfg.c **** 			{0xB5u, 0x10u},
1655:.\Generated_Source\PSoC5/cyfitter_cfg.c **** 			{0xE4u, 0x82u},
1656:.\Generated_Source\PSoC5/cyfitter_cfg.c **** 			{0xEAu, 0x02u},
1657:.\Generated_Source\PSoC5/cyfitter_cfg.c **** 			{0x88u, 0x80u},
1658:.\Generated_Source\PSoC5/cyfitter_cfg.c **** 			{0x9Cu, 0x80u},
1659:.\Generated_Source\PSoC5/cyfitter_cfg.c **** 			{0xAFu, 0x20u},
1660:.\Generated_Source\PSoC5/cyfitter_cfg.c **** 			{0xB0u, 0x02u},
1661:.\Generated_Source\PSoC5/cyfitter_cfg.c **** 			{0xB3u, 0x02u},
1662:.\Generated_Source\PSoC5/cyfitter_cfg.c **** 			{0xE8u, 0x20u},
1663:.\Generated_Source\PSoC5/cyfitter_cfg.c **** 			{0xEAu, 0x01u},
1664:.\Generated_Source\PSoC5/cyfitter_cfg.c **** 			{0xECu, 0x20u},
1665:.\Generated_Source\PSoC5/cyfitter_cfg.c **** 			{0xEEu, 0x80u},
1666:.\Generated_Source\PSoC5/cyfitter_cfg.c **** 			{0x0Au, 0x14u},
1667:.\Generated_Source\PSoC5/cyfitter_cfg.c **** 			{0x0Eu, 0x40u},
1668:.\Generated_Source\PSoC5/cyfitter_cfg.c **** 			{0x0Fu, 0x02u},
1669:.\Generated_Source\PSoC5/cyfitter_cfg.c **** 			{0x32u, 0x04u},
1670:.\Generated_Source\PSoC5/cyfitter_cfg.c **** 			{0x33u, 0x80u},
1671:.\Generated_Source\PSoC5/cyfitter_cfg.c **** 			{0x36u, 0x08u},
1672:.\Generated_Source\PSoC5/cyfitter_cfg.c **** 			{0x37u, 0x40u},
1673:.\Generated_Source\PSoC5/cyfitter_cfg.c **** 			{0x3Fu, 0x80u},
1674:.\Generated_Source\PSoC5/cyfitter_cfg.c **** 			{0x55u, 0x10u},
1675:.\Generated_Source\PSoC5/cyfitter_cfg.c **** 			{0x58u, 0x10u},
1676:.\Generated_Source\PSoC5/cyfitter_cfg.c **** 			{0x83u, 0x40u},
1677:.\Generated_Source\PSoC5/cyfitter_cfg.c **** 			{0x86u, 0x04u},
1678:.\Generated_Source\PSoC5/cyfitter_cfg.c **** 			{0x8Au, 0x08u},
1679:.\Generated_Source\PSoC5/cyfitter_cfg.c **** 			{0x8Bu, 0x01u},
1680:.\Generated_Source\PSoC5/cyfitter_cfg.c **** 			{0x8Eu, 0x10u},
1681:.\Generated_Source\PSoC5/cyfitter_cfg.c **** 			{0xC2u, 0xF0u},
1682:.\Generated_Source\PSoC5/cyfitter_cfg.c **** 			{0xCCu, 0xF0u},
1683:.\Generated_Source\PSoC5/cyfitter_cfg.c **** 			{0xCEu, 0x20u},
1684:.\Generated_Source\PSoC5/cyfitter_cfg.c **** 			{0xD4u, 0xC0u},
1685:.\Generated_Source\PSoC5/cyfitter_cfg.c **** 			{0xE0u, 0x40u},
1686:.\Generated_Source\PSoC5/cyfitter_cfg.c **** 			{0xE2u, 0x20u},
1687:.\Generated_Source\PSoC5/cyfitter_cfg.c **** 			{0x33u, 0x11u},
1688:.\Generated_Source\PSoC5/cyfitter_cfg.c **** 			{0x36u, 0x01u},
1689:.\Generated_Source\PSoC5/cyfitter_cfg.c **** 			{0x37u, 0x20u},
ARM GAS  C:\Users\xavieran\AppData\Local\Temp\ccwd941Y.s 			page 41


1690:.\Generated_Source\PSoC5/cyfitter_cfg.c **** 			{0x59u, 0x01u},
1691:.\Generated_Source\PSoC5/cyfitter_cfg.c **** 			{0x5Cu, 0x01u},
1692:.\Generated_Source\PSoC5/cyfitter_cfg.c **** 			{0x62u, 0x04u},
1693:.\Generated_Source\PSoC5/cyfitter_cfg.c **** 			{0x66u, 0x01u},
1694:.\Generated_Source\PSoC5/cyfitter_cfg.c **** 			{0x84u, 0x10u},
1695:.\Generated_Source\PSoC5/cyfitter_cfg.c **** 			{0x87u, 0x10u},
1696:.\Generated_Source\PSoC5/cyfitter_cfg.c **** 			{0x8Cu, 0x10u},
1697:.\Generated_Source\PSoC5/cyfitter_cfg.c **** 			{0x8Du, 0x10u},
1698:.\Generated_Source\PSoC5/cyfitter_cfg.c **** 			{0x96u, 0x08u},
1699:.\Generated_Source\PSoC5/cyfitter_cfg.c **** 			{0x9Cu, 0x10u},
1700:.\Generated_Source\PSoC5/cyfitter_cfg.c **** 			{0x9Fu, 0x40u},
1701:.\Generated_Source\PSoC5/cyfitter_cfg.c **** 			{0xA5u, 0x10u},
1702:.\Generated_Source\PSoC5/cyfitter_cfg.c **** 			{0xA7u, 0x80u},
1703:.\Generated_Source\PSoC5/cyfitter_cfg.c **** 			{0xAAu, 0x40u},
1704:.\Generated_Source\PSoC5/cyfitter_cfg.c **** 			{0xCCu, 0xF0u},
1705:.\Generated_Source\PSoC5/cyfitter_cfg.c **** 			{0xD6u, 0xC0u},
1706:.\Generated_Source\PSoC5/cyfitter_cfg.c **** 			{0xD8u, 0xC0u},
1707:.\Generated_Source\PSoC5/cyfitter_cfg.c **** 			{0xE2u, 0x10u},
1708:.\Generated_Source\PSoC5/cyfitter_cfg.c **** 			{0xE6u, 0x40u},
1709:.\Generated_Source\PSoC5/cyfitter_cfg.c **** 			{0xE8u, 0x20u},
1710:.\Generated_Source\PSoC5/cyfitter_cfg.c **** 			{0x10u, 0x40u},
1711:.\Generated_Source\PSoC5/cyfitter_cfg.c **** 			{0x3Eu, 0x10u},
1712:.\Generated_Source\PSoC5/cyfitter_cfg.c **** 			{0x50u, 0x10u},
1713:.\Generated_Source\PSoC5/cyfitter_cfg.c **** 			{0x8Au, 0x04u},
1714:.\Generated_Source\PSoC5/cyfitter_cfg.c **** 			{0x90u, 0x20u},
1715:.\Generated_Source\PSoC5/cyfitter_cfg.c **** 			{0x93u, 0x10u},
1716:.\Generated_Source\PSoC5/cyfitter_cfg.c **** 			{0x96u, 0x08u},
1717:.\Generated_Source\PSoC5/cyfitter_cfg.c **** 			{0x9Cu, 0x40u},
1718:.\Generated_Source\PSoC5/cyfitter_cfg.c **** 			{0x9Du, 0x01u},
1719:.\Generated_Source\PSoC5/cyfitter_cfg.c **** 			{0x9Fu, 0x70u},
1720:.\Generated_Source\PSoC5/cyfitter_cfg.c **** 			{0xA7u, 0x80u},
1721:.\Generated_Source\PSoC5/cyfitter_cfg.c **** 			{0xAAu, 0x05u},
1722:.\Generated_Source\PSoC5/cyfitter_cfg.c **** 			{0xAFu, 0x01u},
1723:.\Generated_Source\PSoC5/cyfitter_cfg.c **** 			{0xB0u, 0x40u},
1724:.\Generated_Source\PSoC5/cyfitter_cfg.c **** 			{0xB4u, 0x01u},
1725:.\Generated_Source\PSoC5/cyfitter_cfg.c **** 			{0xB6u, 0x01u},
1726:.\Generated_Source\PSoC5/cyfitter_cfg.c **** 			{0xC4u, 0x10u},
1727:.\Generated_Source\PSoC5/cyfitter_cfg.c **** 			{0xCEu, 0x20u},
1728:.\Generated_Source\PSoC5/cyfitter_cfg.c **** 			{0xD4u, 0x20u},
1729:.\Generated_Source\PSoC5/cyfitter_cfg.c **** 			{0xEAu, 0xE0u},
1730:.\Generated_Source\PSoC5/cyfitter_cfg.c **** 			{0x18u, 0x40u},
1731:.\Generated_Source\PSoC5/cyfitter_cfg.c **** 			{0x19u, 0x40u},
1732:.\Generated_Source\PSoC5/cyfitter_cfg.c **** 			{0x1Cu, 0x08u},
1733:.\Generated_Source\PSoC5/cyfitter_cfg.c **** 			{0x1Du, 0x01u},
1734:.\Generated_Source\PSoC5/cyfitter_cfg.c **** 			{0x80u, 0x40u},
1735:.\Generated_Source\PSoC5/cyfitter_cfg.c **** 			{0x83u, 0x10u},
1736:.\Generated_Source\PSoC5/cyfitter_cfg.c **** 			{0x89u, 0x40u},
1737:.\Generated_Source\PSoC5/cyfitter_cfg.c **** 			{0x93u, 0x10u},
1738:.\Generated_Source\PSoC5/cyfitter_cfg.c **** 			{0x96u, 0x10u},
1739:.\Generated_Source\PSoC5/cyfitter_cfg.c **** 			{0x9Du, 0x01u},
1740:.\Generated_Source\PSoC5/cyfitter_cfg.c **** 			{0x9Fu, 0x70u},
1741:.\Generated_Source\PSoC5/cyfitter_cfg.c **** 			{0xA7u, 0x80u},
1742:.\Generated_Source\PSoC5/cyfitter_cfg.c **** 			{0xC6u, 0xF0u},
1743:.\Generated_Source\PSoC5/cyfitter_cfg.c **** 			{0xE2u, 0x20u},
1744:.\Generated_Source\PSoC5/cyfitter_cfg.c **** 			{0xE4u, 0x20u},
1745:.\Generated_Source\PSoC5/cyfitter_cfg.c **** 			{0x00u, 0x02u},
1746:.\Generated_Source\PSoC5/cyfitter_cfg.c **** 			{0x01u, 0x40u},
ARM GAS  C:\Users\xavieran\AppData\Local\Temp\ccwd941Y.s 			page 42


1747:.\Generated_Source\PSoC5/cyfitter_cfg.c **** 			{0x06u, 0x80u},
1748:.\Generated_Source\PSoC5/cyfitter_cfg.c **** 			{0x07u, 0x04u},
1749:.\Generated_Source\PSoC5/cyfitter_cfg.c **** 			{0x08u, 0x02u},
1750:.\Generated_Source\PSoC5/cyfitter_cfg.c **** 			{0x5Du, 0x08u},
1751:.\Generated_Source\PSoC5/cyfitter_cfg.c **** 			{0x83u, 0x04u},
1752:.\Generated_Source\PSoC5/cyfitter_cfg.c **** 			{0x8Bu, 0x40u},
1753:.\Generated_Source\PSoC5/cyfitter_cfg.c **** 			{0x8Du, 0x40u},
1754:.\Generated_Source\PSoC5/cyfitter_cfg.c **** 			{0xC0u, 0x0Fu},
1755:.\Generated_Source\PSoC5/cyfitter_cfg.c **** 			{0xC2u, 0x08u},
1756:.\Generated_Source\PSoC5/cyfitter_cfg.c **** 			{0xD6u, 0x01u},
1757:.\Generated_Source\PSoC5/cyfitter_cfg.c **** 			{0xE2u, 0x02u},
1758:.\Generated_Source\PSoC5/cyfitter_cfg.c **** 			{0xE6u, 0x01u},
1759:.\Generated_Source\PSoC5/cyfitter_cfg.c **** 			{0x03u, 0x20u},
1760:.\Generated_Source\PSoC5/cyfitter_cfg.c **** 			{0x08u, 0x01u},
1761:.\Generated_Source\PSoC5/cyfitter_cfg.c **** 			{0x09u, 0x04u},
1762:.\Generated_Source\PSoC5/cyfitter_cfg.c **** 			{0x0Fu, 0x80u},
1763:.\Generated_Source\PSoC5/cyfitter_cfg.c **** 			{0x5Bu, 0x04u},
1764:.\Generated_Source\PSoC5/cyfitter_cfg.c **** 			{0x62u, 0x10u},
1765:.\Generated_Source\PSoC5/cyfitter_cfg.c **** 			{0x7Au, 0x20u},
1766:.\Generated_Source\PSoC5/cyfitter_cfg.c **** 			{0x7Bu, 0x40u},
1767:.\Generated_Source\PSoC5/cyfitter_cfg.c **** 			{0x83u, 0x40u},
1768:.\Generated_Source\PSoC5/cyfitter_cfg.c **** 			{0x97u, 0x80u},
1769:.\Generated_Source\PSoC5/cyfitter_cfg.c **** 			{0x9Du, 0x08u},
1770:.\Generated_Source\PSoC5/cyfitter_cfg.c **** 			{0xACu, 0x01u},
1771:.\Generated_Source\PSoC5/cyfitter_cfg.c **** 			{0xAEu, 0x80u},
1772:.\Generated_Source\PSoC5/cyfitter_cfg.c **** 			{0xB4u, 0x02u},
1773:.\Generated_Source\PSoC5/cyfitter_cfg.c **** 			{0xC0u, 0x08u},
1774:.\Generated_Source\PSoC5/cyfitter_cfg.c **** 			{0xC2u, 0x0Cu},
1775:.\Generated_Source\PSoC5/cyfitter_cfg.c **** 			{0xD6u, 0x02u},
1776:.\Generated_Source\PSoC5/cyfitter_cfg.c **** 			{0xD8u, 0x02u},
1777:.\Generated_Source\PSoC5/cyfitter_cfg.c **** 			{0xEAu, 0x08u},
1778:.\Generated_Source\PSoC5/cyfitter_cfg.c **** 			{0x05u, 0x04u},
1779:.\Generated_Source\PSoC5/cyfitter_cfg.c **** 			{0x97u, 0x80u},
1780:.\Generated_Source\PSoC5/cyfitter_cfg.c **** 			{0x98u, 0x01u},
1781:.\Generated_Source\PSoC5/cyfitter_cfg.c **** 			{0x9Du, 0x0Cu},
1782:.\Generated_Source\PSoC5/cyfitter_cfg.c **** 			{0x9Eu, 0x10u},
1783:.\Generated_Source\PSoC5/cyfitter_cfg.c **** 			{0x9Fu, 0x04u},
1784:.\Generated_Source\PSoC5/cyfitter_cfg.c **** 			{0xA2u, 0x20u},
1785:.\Generated_Source\PSoC5/cyfitter_cfg.c **** 			{0xA9u, 0x04u},
1786:.\Generated_Source\PSoC5/cyfitter_cfg.c **** 			{0xAFu, 0x20u},
1787:.\Generated_Source\PSoC5/cyfitter_cfg.c **** 			{0xB5u, 0x04u},
1788:.\Generated_Source\PSoC5/cyfitter_cfg.c **** 			{0xC0u, 0x04u},
1789:.\Generated_Source\PSoC5/cyfitter_cfg.c **** 			{0xEEu, 0x02u},
1790:.\Generated_Source\PSoC5/cyfitter_cfg.c **** 			{0x0Bu, 0x84u},
1791:.\Generated_Source\PSoC5/cyfitter_cfg.c **** 			{0x0Fu, 0x80u},
1792:.\Generated_Source\PSoC5/cyfitter_cfg.c **** 			{0x81u, 0x08u},
1793:.\Generated_Source\PSoC5/cyfitter_cfg.c **** 			{0x83u, 0x40u},
1794:.\Generated_Source\PSoC5/cyfitter_cfg.c **** 			{0x89u, 0x02u},
1795:.\Generated_Source\PSoC5/cyfitter_cfg.c **** 			{0x97u, 0x80u},
1796:.\Generated_Source\PSoC5/cyfitter_cfg.c **** 			{0x98u, 0x01u},
1797:.\Generated_Source\PSoC5/cyfitter_cfg.c **** 			{0x9Du, 0x08u},
1798:.\Generated_Source\PSoC5/cyfitter_cfg.c **** 			{0x9Eu, 0x10u},
1799:.\Generated_Source\PSoC5/cyfitter_cfg.c **** 			{0x9Fu, 0x04u},
1800:.\Generated_Source\PSoC5/cyfitter_cfg.c **** 			{0xA2u, 0x20u},
1801:.\Generated_Source\PSoC5/cyfitter_cfg.c **** 			{0xC2u, 0x0Eu},
1802:.\Generated_Source\PSoC5/cyfitter_cfg.c **** 			{0xE0u, 0x01u},
1803:.\Generated_Source\PSoC5/cyfitter_cfg.c **** 			{0x25u, 0x20u},
ARM GAS  C:\Users\xavieran\AppData\Local\Temp\ccwd941Y.s 			page 43


1804:.\Generated_Source\PSoC5/cyfitter_cfg.c **** 			{0x5Fu, 0x10u},
1805:.\Generated_Source\PSoC5/cyfitter_cfg.c **** 			{0x67u, 0x80u},
1806:.\Generated_Source\PSoC5/cyfitter_cfg.c **** 			{0x6Bu, 0x08u},
1807:.\Generated_Source\PSoC5/cyfitter_cfg.c **** 			{0x6Fu, 0x20u},
1808:.\Generated_Source\PSoC5/cyfitter_cfg.c **** 			{0x73u, 0x08u},
1809:.\Generated_Source\PSoC5/cyfitter_cfg.c **** 			{0x84u, 0x44u},
1810:.\Generated_Source\PSoC5/cyfitter_cfg.c **** 			{0x87u, 0x48u},
1811:.\Generated_Source\PSoC5/cyfitter_cfg.c **** 			{0x89u, 0x20u},
1812:.\Generated_Source\PSoC5/cyfitter_cfg.c **** 			{0x93u, 0x10u},
1813:.\Generated_Source\PSoC5/cyfitter_cfg.c **** 			{0x96u, 0x10u},
1814:.\Generated_Source\PSoC5/cyfitter_cfg.c **** 			{0x9Fu, 0x40u},
1815:.\Generated_Source\PSoC5/cyfitter_cfg.c **** 			{0xA0u, 0x04u},
1816:.\Generated_Source\PSoC5/cyfitter_cfg.c **** 			{0xABu, 0x80u},
1817:.\Generated_Source\PSoC5/cyfitter_cfg.c **** 			{0xAFu, 0x20u},
1818:.\Generated_Source\PSoC5/cyfitter_cfg.c **** 			{0xC8u, 0x20u},
1819:.\Generated_Source\PSoC5/cyfitter_cfg.c **** 			{0xD6u, 0x20u},
1820:.\Generated_Source\PSoC5/cyfitter_cfg.c **** 			{0xD8u, 0x80u},
1821:.\Generated_Source\PSoC5/cyfitter_cfg.c **** 			{0xDAu, 0xC0u},
1822:.\Generated_Source\PSoC5/cyfitter_cfg.c **** 			{0xDCu, 0x20u},
1823:.\Generated_Source\PSoC5/cyfitter_cfg.c **** 			{0xE0u, 0x40u},
1824:.\Generated_Source\PSoC5/cyfitter_cfg.c **** 			{0xE2u, 0x10u},
1825:.\Generated_Source\PSoC5/cyfitter_cfg.c **** 			{0xE4u, 0x40u},
1826:.\Generated_Source\PSoC5/cyfitter_cfg.c **** 			{0xEAu, 0x40u},
1827:.\Generated_Source\PSoC5/cyfitter_cfg.c **** 			{0xEEu, 0x20u},
1828:.\Generated_Source\PSoC5/cyfitter_cfg.c **** 			{0x00u, 0x80u},
1829:.\Generated_Source\PSoC5/cyfitter_cfg.c **** 			{0x21u, 0x40u},
1830:.\Generated_Source\PSoC5/cyfitter_cfg.c **** 			{0x5Bu, 0x20u},
1831:.\Generated_Source\PSoC5/cyfitter_cfg.c **** 			{0x79u, 0x80u},
1832:.\Generated_Source\PSoC5/cyfitter_cfg.c **** 			{0x83u, 0x40u},
1833:.\Generated_Source\PSoC5/cyfitter_cfg.c **** 			{0x8Bu, 0x20u},
1834:.\Generated_Source\PSoC5/cyfitter_cfg.c **** 			{0x9Fu, 0x40u},
1835:.\Generated_Source\PSoC5/cyfitter_cfg.c **** 			{0xA4u, 0x40u},
1836:.\Generated_Source\PSoC5/cyfitter_cfg.c **** 			{0xAAu, 0x10u},
1837:.\Generated_Source\PSoC5/cyfitter_cfg.c **** 			{0xAFu, 0x20u},
1838:.\Generated_Source\PSoC5/cyfitter_cfg.c **** 			{0xC0u, 0x40u},
1839:.\Generated_Source\PSoC5/cyfitter_cfg.c **** 			{0xC8u, 0x10u},
1840:.\Generated_Source\PSoC5/cyfitter_cfg.c **** 			{0xD4u, 0x80u},
1841:.\Generated_Source\PSoC5/cyfitter_cfg.c **** 			{0xDCu, 0x80u},
1842:.\Generated_Source\PSoC5/cyfitter_cfg.c **** 			{0xE6u, 0x80u},
1843:.\Generated_Source\PSoC5/cyfitter_cfg.c **** 			{0xEAu, 0x80u},
1844:.\Generated_Source\PSoC5/cyfitter_cfg.c **** 			{0xEEu, 0x10u},
1845:.\Generated_Source\PSoC5/cyfitter_cfg.c **** 			{0x09u, 0x10u},
1846:.\Generated_Source\PSoC5/cyfitter_cfg.c **** 			{0x0Fu, 0x08u},
1847:.\Generated_Source\PSoC5/cyfitter_cfg.c **** 			{0x12u, 0x10u},
1848:.\Generated_Source\PSoC5/cyfitter_cfg.c **** 			{0x13u, 0x20u},
1849:.\Generated_Source\PSoC5/cyfitter_cfg.c **** 			{0x17u, 0x04u},
1850:.\Generated_Source\PSoC5/cyfitter_cfg.c **** 			{0x62u, 0x02u},
1851:.\Generated_Source\PSoC5/cyfitter_cfg.c **** 			{0x67u, 0x08u},
1852:.\Generated_Source\PSoC5/cyfitter_cfg.c **** 			{0x72u, 0x20u},
1853:.\Generated_Source\PSoC5/cyfitter_cfg.c **** 			{0x78u, 0x01u},
1854:.\Generated_Source\PSoC5/cyfitter_cfg.c **** 			{0x7Eu, 0x20u},
1855:.\Generated_Source\PSoC5/cyfitter_cfg.c **** 			{0x87u, 0x08u},
1856:.\Generated_Source\PSoC5/cyfitter_cfg.c **** 			{0x89u, 0x10u},
1857:.\Generated_Source\PSoC5/cyfitter_cfg.c **** 			{0x8Au, 0x20u},
1858:.\Generated_Source\PSoC5/cyfitter_cfg.c **** 			{0x8Bu, 0x04u},
1859:.\Generated_Source\PSoC5/cyfitter_cfg.c **** 			{0x8Du, 0x10u},
1860:.\Generated_Source\PSoC5/cyfitter_cfg.c **** 			{0x98u, 0x01u},
ARM GAS  C:\Users\xavieran\AppData\Local\Temp\ccwd941Y.s 			page 44


1861:.\Generated_Source\PSoC5/cyfitter_cfg.c **** 			{0x99u, 0x0Au},
1862:.\Generated_Source\PSoC5/cyfitter_cfg.c **** 			{0x9Eu, 0x10u},
1863:.\Generated_Source\PSoC5/cyfitter_cfg.c **** 			{0x9Fu, 0x04u},
1864:.\Generated_Source\PSoC5/cyfitter_cfg.c **** 			{0xA2u, 0x20u},
1865:.\Generated_Source\PSoC5/cyfitter_cfg.c **** 			{0xA7u, 0x04u},
1866:.\Generated_Source\PSoC5/cyfitter_cfg.c **** 			{0xAFu, 0x04u},
1867:.\Generated_Source\PSoC5/cyfitter_cfg.c **** 			{0xB7u, 0x04u},
1868:.\Generated_Source\PSoC5/cyfitter_cfg.c **** 			{0xC2u, 0x03u},
1869:.\Generated_Source\PSoC5/cyfitter_cfg.c **** 			{0xC4u, 0x0Eu},
1870:.\Generated_Source\PSoC5/cyfitter_cfg.c **** 			{0xD8u, 0x03u},
1871:.\Generated_Source\PSoC5/cyfitter_cfg.c **** 			{0xDCu, 0x01u},
1872:.\Generated_Source\PSoC5/cyfitter_cfg.c **** 			{0xDEu, 0x03u},
1873:.\Generated_Source\PSoC5/cyfitter_cfg.c **** 			{0xE0u, 0x01u},
1874:.\Generated_Source\PSoC5/cyfitter_cfg.c **** 			{0xE4u, 0x01u},
1875:.\Generated_Source\PSoC5/cyfitter_cfg.c **** 			{0xE6u, 0x0Cu},
1876:.\Generated_Source\PSoC5/cyfitter_cfg.c **** 			{0xEAu, 0x02u},
1877:.\Generated_Source\PSoC5/cyfitter_cfg.c **** 			{0x0Du, 0x10u},
1878:.\Generated_Source\PSoC5/cyfitter_cfg.c **** 			{0x10u, 0x10u},
1879:.\Generated_Source\PSoC5/cyfitter_cfg.c **** 			{0x57u, 0x08u},
1880:.\Generated_Source\PSoC5/cyfitter_cfg.c **** 			{0x5Du, 0x08u},
1881:.\Generated_Source\PSoC5/cyfitter_cfg.c **** 			{0x75u, 0x02u},
1882:.\Generated_Source\PSoC5/cyfitter_cfg.c **** 			{0x88u, 0x10u},
1883:.\Generated_Source\PSoC5/cyfitter_cfg.c **** 			{0x95u, 0x20u},
1884:.\Generated_Source\PSoC5/cyfitter_cfg.c **** 			{0x99u, 0x0Au},
1885:.\Generated_Source\PSoC5/cyfitter_cfg.c **** 			{0xA3u, 0x08u},
1886:.\Generated_Source\PSoC5/cyfitter_cfg.c **** 			{0xABu, 0x20u},
1887:.\Generated_Source\PSoC5/cyfitter_cfg.c **** 			{0xB2u, 0x02u},
1888:.\Generated_Source\PSoC5/cyfitter_cfg.c **** 			{0xC2u, 0x01u},
1889:.\Generated_Source\PSoC5/cyfitter_cfg.c **** 			{0xC4u, 0x08u},
1890:.\Generated_Source\PSoC5/cyfitter_cfg.c **** 			{0xD4u, 0x02u},
1891:.\Generated_Source\PSoC5/cyfitter_cfg.c **** 			{0xD6u, 0x01u},
1892:.\Generated_Source\PSoC5/cyfitter_cfg.c **** 			{0xDEu, 0x04u},
1893:.\Generated_Source\PSoC5/cyfitter_cfg.c **** 			{0xE2u, 0x04u},
1894:.\Generated_Source\PSoC5/cyfitter_cfg.c **** 			{0xECu, 0x04u},
1895:.\Generated_Source\PSoC5/cyfitter_cfg.c **** 			{0x10u, 0x0Cu},
1896:.\Generated_Source\PSoC5/cyfitter_cfg.c **** 			{0x11u, 0x01u},
1897:.\Generated_Source\PSoC5/cyfitter_cfg.c **** 			{0x1Au, 0x0Cu},
1898:.\Generated_Source\PSoC5/cyfitter_cfg.c **** 			{0x1Bu, 0x01u},
1899:.\Generated_Source\PSoC5/cyfitter_cfg.c **** 			{0x10u, 0x01u},
1900:.\Generated_Source\PSoC5/cyfitter_cfg.c **** 		};
1901:.\Generated_Source\PSoC5/cyfitter_cfg.c **** 
1902:.\Generated_Source\PSoC5/cyfitter_cfg.c **** 
1903:.\Generated_Source\PSoC5/cyfitter_cfg.c **** 
1904:.\Generated_Source\PSoC5/cyfitter_cfg.c **** 		CYPACKED typedef struct {
1905:.\Generated_Source\PSoC5/cyfitter_cfg.c **** 			void CYFAR *address;
1906:.\Generated_Source\PSoC5/cyfitter_cfg.c **** 			uint16 size;
1907:.\Generated_Source\PSoC5/cyfitter_cfg.c **** 		} CYPACKED_ATTR cfg_memset_t;
1908:.\Generated_Source\PSoC5/cyfitter_cfg.c **** 
1909:.\Generated_Source\PSoC5/cyfitter_cfg.c **** 
1910:.\Generated_Source\PSoC5/cyfitter_cfg.c **** 		CYPACKED typedef struct {
1911:.\Generated_Source\PSoC5/cyfitter_cfg.c **** 			void CYFAR *dest;
1912:.\Generated_Source\PSoC5/cyfitter_cfg.c **** 			const void CYCODE *src;
1913:.\Generated_Source\PSoC5/cyfitter_cfg.c **** 			uint16 size;
1914:.\Generated_Source\PSoC5/cyfitter_cfg.c **** 		} CYPACKED_ATTR cfg_memcpy_t;
1915:.\Generated_Source\PSoC5/cyfitter_cfg.c **** 
1916:.\Generated_Source\PSoC5/cyfitter_cfg.c **** 		static const cfg_memset_t CYCODE cfg_memset_list [] = {
1917:.\Generated_Source\PSoC5/cyfitter_cfg.c **** 			/* address, size */
ARM GAS  C:\Users\xavieran\AppData\Local\Temp\ccwd941Y.s 			page 45


1918:.\Generated_Source\PSoC5/cyfitter_cfg.c **** 			{(void CYFAR *)(CYREG_I2C_XCFG), 25u},
1919:.\Generated_Source\PSoC5/cyfitter_cfg.c **** 			{(void CYFAR *)(CYREG_TMR0_CFG0), 48u},
1920:.\Generated_Source\PSoC5/cyfitter_cfg.c **** 			{(void CYFAR *)(CYDEV_UCFG_B0_P0_U0_BASE), 4096u},
1921:.\Generated_Source\PSoC5/cyfitter_cfg.c **** 			{(void CYFAR *)(CYDEV_UCFG_B1_P2_U0_BASE), 640u},
1922:.\Generated_Source\PSoC5/cyfitter_cfg.c **** 			{(void CYFAR *)(CYDEV_UCFG_B1_P3_ROUTE_BASE), 1280u},
1923:.\Generated_Source\PSoC5/cyfitter_cfg.c **** 			{(void CYFAR *)(CYDEV_UCFG_DSI0_BASE), 2560u},
1924:.\Generated_Source\PSoC5/cyfitter_cfg.c **** 			{(void CYFAR *)(CYDEV_UCFG_DSI12_BASE), 512u},
1925:.\Generated_Source\PSoC5/cyfitter_cfg.c **** 			{(void CYFAR *)(CYREG_BCTL1_MDCLK_EN), 16u},
1926:.\Generated_Source\PSoC5/cyfitter_cfg.c **** 		};
1927:.\Generated_Source\PSoC5/cyfitter_cfg.c **** 
1928:.\Generated_Source\PSoC5/cyfitter_cfg.c **** 		/* IOPORT_7 Address: CYDEV_PRTDSI_PRT12_BASE Size (bytes): 6 */
1929:.\Generated_Source\PSoC5/cyfitter_cfg.c **** 		static const uint8 CYCODE BS_IOPORT_7_VAL[] = {
1930:.\Generated_Source\PSoC5/cyfitter_cfg.c **** 			0x23u, 0x24u, 0x00u, 0x00u, 0x03u, 0x00u};
1931:.\Generated_Source\PSoC5/cyfitter_cfg.c **** 
1932:.\Generated_Source\PSoC5/cyfitter_cfg.c **** 		/* IDMUX_IRQ Address: CYREG_IDMUX_IRQ_CTL0 Size (bytes): 8 */
1933:.\Generated_Source\PSoC5/cyfitter_cfg.c **** 		static const uint8 CYCODE BS_IDMUX_IRQ_VAL[] = {
1934:.\Generated_Source\PSoC5/cyfitter_cfg.c **** 			0xBFu, 0xE8u, 0x03u, 0xC0u, 0x00u, 0x00u, 0x00u, 0x00u};
1935:.\Generated_Source\PSoC5/cyfitter_cfg.c **** 
1936:.\Generated_Source\PSoC5/cyfitter_cfg.c **** 		/* UDB_1_1_0_CONFIG Address: CYDEV_UCFG_B1_P3_U1_BASE Size (bytes): 128 */
1937:.\Generated_Source\PSoC5/cyfitter_cfg.c **** 		static const uint8 CYCODE BS_UDB_1_1_0_CONFIG_VAL[] = {
1938:.\Generated_Source\PSoC5/cyfitter_cfg.c **** 			0x00u, 0x06u, 0x02u, 0x00u, 0x00u, 0x01u, 0x01u, 0x00u, 0x00u, 0x04u, 0x00u, 0x00u, 0x00u, 0x01u
1939:.\Generated_Source\PSoC5/cyfitter_cfg.c **** 			0x00u, 0x20u, 0x10u, 0x00u, 0x00u, 0x1Cu, 0x03u, 0x02u, 0x00u, 0x0Au, 0x01u, 0x10u, 0x00u, 0x3Fu
1940:.\Generated_Source\PSoC5/cyfitter_cfg.c **** 			0x00u, 0x02u, 0x00u, 0x00u, 0x00u, 0x02u, 0x04u, 0x18u, 0x08u, 0x18u, 0x00u, 0x06u, 0x00u, 0x12u
1941:.\Generated_Source\PSoC5/cyfitter_cfg.c **** 			0x10u, 0x00u, 0x07u, 0x00u, 0x00u, 0x1Fu, 0x08u, 0x20u, 0x00u, 0xA0u, 0x08u, 0x00u, 0x00u, 0x00u
1942:.\Generated_Source\PSoC5/cyfitter_cfg.c **** 			0x15u, 0x03u, 0x00u, 0x00u, 0x00u, 0xECu, 0x00u, 0x20u, 0x23u, 0xFFu, 0xFFu, 0xFFu, 0x00u, 0x83u
1943:.\Generated_Source\PSoC5/cyfitter_cfg.c **** 			0x18u, 0x00u, 0x00u, 0x00u, 0x01u, 0x00u, 0x00u, 0x00u, 0x04u, 0x04u, 0x04u, 0x04u, 0x22u, 0x33u
1944:.\Generated_Source\PSoC5/cyfitter_cfg.c **** 			0x40u, 0x00u, 0x40u, 0x00u, 0x40u, 0x40u, 0x80u, 0x00u, 0x80u, 0x00u, 0x80u, 0x00u, 0x80u, 0x00u
1945:.\Generated_Source\PSoC5/cyfitter_cfg.c **** 			0x00u, 0x00u, 0x00u, 0x00u, 0x00u, 0x00u, 0x00u, 0x00u, 0x00u, 0x00u, 0x00u, 0x00u, 0x00u, 0x00u
1946:.\Generated_Source\PSoC5/cyfitter_cfg.c **** 
1947:.\Generated_Source\PSoC5/cyfitter_cfg.c **** 		/* UCFG_BCTL0 Address: CYREG_BCTL0_MDCLK_EN Size (bytes): 16 */
1948:.\Generated_Source\PSoC5/cyfitter_cfg.c **** 		static const uint8 CYCODE BS_UCFG_BCTL0_VAL[] = {
1949:.\Generated_Source\PSoC5/cyfitter_cfg.c **** 			0x34u, 0x01u, 0x00u, 0x00u, 0x00u, 0x00u, 0x00u, 0x00u, 0x14u, 0x00u, 0x34u, 0x00u, 0x04u, 0x01u
1950:.\Generated_Source\PSoC5/cyfitter_cfg.c **** 
1951:.\Generated_Source\PSoC5/cyfitter_cfg.c **** 		static const cfg_memcpy_t CYCODE cfg_memcpy_list [] = {
1952:.\Generated_Source\PSoC5/cyfitter_cfg.c **** 			/* dest, src, size */
1953:.\Generated_Source\PSoC5/cyfitter_cfg.c **** 			{(void CYFAR *)(CYDEV_PRTDSI_PRT12_BASE), BS_IOPORT_7_VAL, 6u},
1954:.\Generated_Source\PSoC5/cyfitter_cfg.c **** 			{(void CYFAR *)(CYREG_IDMUX_IRQ_CTL0), BS_IDMUX_IRQ_VAL, 8u},
1955:.\Generated_Source\PSoC5/cyfitter_cfg.c **** 			{(void CYFAR *)(CYDEV_UCFG_B1_P3_U1_BASE), BS_UDB_1_1_0_CONFIG_VAL, 128u},
1956:.\Generated_Source\PSoC5/cyfitter_cfg.c **** 			{(void CYFAR *)(CYREG_BCTL0_MDCLK_EN), BS_UCFG_BCTL0_VAL, 16u},
1957:.\Generated_Source\PSoC5/cyfitter_cfg.c **** 		};
1958:.\Generated_Source\PSoC5/cyfitter_cfg.c **** 
1959:.\Generated_Source\PSoC5/cyfitter_cfg.c **** 		uint8 CYDATA i;
1960:.\Generated_Source\PSoC5/cyfitter_cfg.c **** 
1961:.\Generated_Source\PSoC5/cyfitter_cfg.c **** 		/* Zero out critical memory blocks before beginning configuration */
1962:.\Generated_Source\PSoC5/cyfitter_cfg.c **** 		for (i = 0u; i < (sizeof(cfg_memset_list)/sizeof(cfg_memset_list[0])); i++)
 587              		.loc 1 1962 0
 588 0018 0023     		movs	r3, #0
 589 001a FB75     		strb	r3, [r7, #23]
 590 001c 13E0     		b	.L27
 591              	.L28:
 592              	.LBB4:
1963:.\Generated_Source\PSoC5/cyfitter_cfg.c **** 		{
1964:.\Generated_Source\PSoC5/cyfitter_cfg.c **** 			const cfg_memset_t CYCODE * CYDATA ms = &cfg_memset_list[i];
 593              		.loc 1 1964 0 discriminator 2
 594 001e FA7D     		ldrb	r2, [r7, #23]	@ zero_extendqisi2
 595 0020 1346     		mov	r3, r2
 596 0022 5B00     		lsls	r3, r3, #1
ARM GAS  C:\Users\xavieran\AppData\Local\Temp\ccwd941Y.s 			page 46


 597 0024 1344     		add	r3, r3, r2
 598 0026 5B00     		lsls	r3, r3, #1
 599 0028 504A     		ldr	r2, .L31+4
 600 002a 1344     		add	r3, r3, r2
 601 002c 3B61     		str	r3, [r7, #16]
1965:.\Generated_Source\PSoC5/cyfitter_cfg.c **** 			CYMEMZERO(ms->address, (size_t)(uint32)(ms->size));
 602              		.loc 1 1965 0 discriminator 2
 603 002e 3B69     		ldr	r3, [r7, #16]
 604 0030 1A68     		ldr	r2, [r3]	@ unaligned
 605 0032 3B69     		ldr	r3, [r7, #16]
 606 0034 9B88     		ldrh	r3, [r3, #4]	@ unaligned
 607 0036 9BB2     		uxth	r3, r3
 608 0038 1046     		mov	r0, r2
 609 003a 1946     		mov	r1, r3
 610 003c FFF7FEFF 		bl	CYMEMZERO
 611              	.LBE4:
1962:.\Generated_Source\PSoC5/cyfitter_cfg.c **** 		for (i = 0u; i < (sizeof(cfg_memset_list)/sizeof(cfg_memset_list[0])); i++)
 612              		.loc 1 1962 0 discriminator 2
 613 0040 FB7D     		ldrb	r3, [r7, #23]	@ zero_extendqisi2
 614 0042 0133     		adds	r3, r3, #1
 615 0044 FB75     		strb	r3, [r7, #23]
 616              	.L27:
1962:.\Generated_Source\PSoC5/cyfitter_cfg.c **** 		for (i = 0u; i < (sizeof(cfg_memset_list)/sizeof(cfg_memset_list[0])); i++)
 617              		.loc 1 1962 0 is_stmt 0 discriminator 1
 618 0046 FB7D     		ldrb	r3, [r7, #23]	@ zero_extendqisi2
 619 0048 072B     		cmp	r3, #7
 620 004a E8D9     		bls	.L28
1966:.\Generated_Source\PSoC5/cyfitter_cfg.c **** 		}
1967:.\Generated_Source\PSoC5/cyfitter_cfg.c **** 
1968:.\Generated_Source\PSoC5/cyfitter_cfg.c **** 		/* Copy device configuration data into registers */
1969:.\Generated_Source\PSoC5/cyfitter_cfg.c **** 		for (i = 0u; i < (sizeof(cfg_memcpy_list)/sizeof(cfg_memcpy_list[0])); i++)
 621              		.loc 1 1969 0 is_stmt 1
 622 004c 0023     		movs	r3, #0
 623 004e FB75     		strb	r3, [r7, #23]
 624 0050 1CE0     		b	.L29
 625              	.L30:
 626              	.LBB5:
1970:.\Generated_Source\PSoC5/cyfitter_cfg.c **** 		{
1971:.\Generated_Source\PSoC5/cyfitter_cfg.c **** 			const cfg_memcpy_t CYCODE * CYDATA mc = &cfg_memcpy_list[i];
 627              		.loc 1 1971 0 discriminator 2
 628 0052 FA7D     		ldrb	r2, [r7, #23]	@ zero_extendqisi2
 629 0054 1346     		mov	r3, r2
 630 0056 9B00     		lsls	r3, r3, #2
 631 0058 1344     		add	r3, r3, r2
 632 005a 5B00     		lsls	r3, r3, #1
 633 005c 444A     		ldr	r2, .L31+8
 634 005e 1344     		add	r3, r3, r2
 635 0060 FB60     		str	r3, [r7, #12]
1972:.\Generated_Source\PSoC5/cyfitter_cfg.c **** 			void * CYDATA destPtr = mc->dest;
 636              		.loc 1 1972 0 discriminator 2
 637 0062 FB68     		ldr	r3, [r7, #12]
 638 0064 1B68     		ldr	r3, [r3]	@ unaligned
 639 0066 BB60     		str	r3, [r7, #8]
1973:.\Generated_Source\PSoC5/cyfitter_cfg.c **** 			const void CYCODE * CYDATA srcPtr = mc->src;
 640              		.loc 1 1973 0 discriminator 2
 641 0068 FB68     		ldr	r3, [r7, #12]
 642 006a 5B68     		ldr	r3, [r3, #4]	@ unaligned
ARM GAS  C:\Users\xavieran\AppData\Local\Temp\ccwd941Y.s 			page 47


 643 006c 7B60     		str	r3, [r7, #4]
1974:.\Generated_Source\PSoC5/cyfitter_cfg.c **** 			uint16 CYDATA numBytes = mc->size;
 644              		.loc 1 1974 0 discriminator 2
 645 006e FB68     		ldr	r3, [r7, #12]
 646 0070 1A7A     		ldrb	r2, [r3, #8]	@ zero_extendqisi2
 647 0072 5B7A     		ldrb	r3, [r3, #9]	@ zero_extendqisi2
 648 0074 1B02     		lsls	r3, r3, #8
 649 0076 1343     		orrs	r3, r3, r2
 650 0078 7B80     		strh	r3, [r7, #2]	@ movhi
1975:.\Generated_Source\PSoC5/cyfitter_cfg.c **** 			CYCONFIGCPYCODE(destPtr, srcPtr, numBytes);
 651              		.loc 1 1975 0 discriminator 2
 652 007a 7B88     		ldrh	r3, [r7, #2]
 653 007c B868     		ldr	r0, [r7, #8]
 654 007e 7968     		ldr	r1, [r7, #4]
 655 0080 1A46     		mov	r2, r3
 656 0082 FFF7FEFF 		bl	CYCONFIGCPYCODE
 657              	.LBE5:
1969:.\Generated_Source\PSoC5/cyfitter_cfg.c **** 		for (i = 0u; i < (sizeof(cfg_memcpy_list)/sizeof(cfg_memcpy_list[0])); i++)
 658              		.loc 1 1969 0 discriminator 2
 659 0086 FB7D     		ldrb	r3, [r7, #23]	@ zero_extendqisi2
 660 0088 0133     		adds	r3, r3, #1
 661 008a FB75     		strb	r3, [r7, #23]
 662              	.L29:
1969:.\Generated_Source\PSoC5/cyfitter_cfg.c **** 		for (i = 0u; i < (sizeof(cfg_memcpy_list)/sizeof(cfg_memcpy_list[0])); i++)
 663              		.loc 1 1969 0 is_stmt 0 discriminator 1
 664 008c FB7D     		ldrb	r3, [r7, #23]	@ zero_extendqisi2
 665 008e 032B     		cmp	r3, #3
 666 0090 DFD9     		bls	.L30
1976:.\Generated_Source\PSoC5/cyfitter_cfg.c **** 		}
1977:.\Generated_Source\PSoC5/cyfitter_cfg.c **** 
1978:.\Generated_Source\PSoC5/cyfitter_cfg.c **** 		cfg_write_bytes32(cy_cfg_addr_table, cy_cfg_data_table);
 667              		.loc 1 1978 0 is_stmt 1
 668 0092 3848     		ldr	r0, .L31+12
 669 0094 3849     		ldr	r1, .L31+16
 670 0096 FFF7FEFF 		bl	cfg_write_bytes32
1979:.\Generated_Source\PSoC5/cyfitter_cfg.c **** 
1980:.\Generated_Source\PSoC5/cyfitter_cfg.c **** 		/* Perform normal device configuration. Order is not critical for these items. */
1981:.\Generated_Source\PSoC5/cyfitter_cfg.c **** 		CYMEMZERO((void CYFAR *)(CYREG_PHUB_CFGMEM0_CFG0), 4u);
 671              		.loc 1 1981 0
 672 009a 3848     		ldr	r0, .L31+20
 673 009c 0421     		movs	r1, #4
 674 009e FFF7FEFF 		bl	CYMEMZERO
1982:.\Generated_Source\PSoC5/cyfitter_cfg.c **** 
1983:.\Generated_Source\PSoC5/cyfitter_cfg.c **** 		/* Enable digital routing */
1984:.\Generated_Source\PSoC5/cyfitter_cfg.c **** 		CY_SET_XTND_REG8((void CYFAR *)CYREG_BCTL0_BANK_CTL, CY_GET_XTND_REG8((void CYFAR *)CYREG_BCTL0_B
 675              		.loc 1 1984 0
 676 00a2 374B     		ldr	r3, .L31+24
 677 00a4 364A     		ldr	r2, .L31+24
 678 00a6 1278     		ldrb	r2, [r2]
 679 00a8 D2B2     		uxtb	r2, r2
 680 00aa 42F00202 		orr	r2, r2, #2
 681 00ae D2B2     		uxtb	r2, r2
 682 00b0 1A70     		strb	r2, [r3]
1985:.\Generated_Source\PSoC5/cyfitter_cfg.c **** 		CY_SET_XTND_REG8((void CYFAR *)CYREG_BCTL1_BANK_CTL, CY_GET_XTND_REG8((void CYFAR *)CYREG_BCTL1_B
 683              		.loc 1 1985 0
 684 00b2 344B     		ldr	r3, .L31+28
 685 00b4 334A     		ldr	r2, .L31+28
ARM GAS  C:\Users\xavieran\AppData\Local\Temp\ccwd941Y.s 			page 48


 686 00b6 1278     		ldrb	r2, [r2]
 687 00b8 D2B2     		uxtb	r2, r2
 688 00ba 42F00202 		orr	r2, r2, #2
 689 00be D2B2     		uxtb	r2, r2
 690 00c0 1A70     		strb	r2, [r3]
1986:.\Generated_Source\PSoC5/cyfitter_cfg.c **** 
1987:.\Generated_Source\PSoC5/cyfitter_cfg.c **** 		/* Enable UDB array */
1988:.\Generated_Source\PSoC5/cyfitter_cfg.c **** 		CY_SET_XTND_REG8((void CYFAR *)CYREG_PM_ACT_CFG0, CY_GET_XTND_REG8((void CYFAR *)CYREG_PM_ACT_CFG
 691              		.loc 1 1988 0
 692 00c2 314B     		ldr	r3, .L31+32
 693 00c4 304A     		ldr	r2, .L31+32
 694 00c6 1278     		ldrb	r2, [r2]
 695 00c8 D2B2     		uxtb	r2, r2
 696 00ca 42F04002 		orr	r2, r2, #64
 697 00ce D2B2     		uxtb	r2, r2
 698 00d0 1A70     		strb	r2, [r3]
1989:.\Generated_Source\PSoC5/cyfitter_cfg.c **** 		CY_SET_XTND_REG8((void CYFAR *)CYREG_PM_AVAIL_CR2, CY_GET_XTND_REG8((void CYFAR *)CYREG_PM_AVAIL_
 699              		.loc 1 1989 0
 700 00d2 2E4B     		ldr	r3, .L31+36
 701 00d4 2D4A     		ldr	r2, .L31+36
 702 00d6 1278     		ldrb	r2, [r2]
 703 00d8 D2B2     		uxtb	r2, r2
 704 00da 42F01002 		orr	r2, r2, #16
 705 00de D2B2     		uxtb	r2, r2
 706 00e0 1A70     		strb	r2, [r3]
 707              	.LBE3:
1990:.\Generated_Source\PSoC5/cyfitter_cfg.c **** 	}
1991:.\Generated_Source\PSoC5/cyfitter_cfg.c **** 
1992:.\Generated_Source\PSoC5/cyfitter_cfg.c **** 
1993:.\Generated_Source\PSoC5/cyfitter_cfg.c **** 	/* Perform second pass device configuration. These items must be configured in specific order afte
1994:.\Generated_Source\PSoC5/cyfitter_cfg.c **** 	CYCONFIGCPYCODE((void CYFAR *)(CYREG_PRT0_DR), (const void CYCODE *)(BS_IOPINS0_0_VAL), 10u);
 708              		.loc 1 1994 0
 709 00e2 2B48     		ldr	r0, .L31+40
 710 00e4 2B49     		ldr	r1, .L31+44
 711 00e6 0A22     		movs	r2, #10
 712 00e8 FFF7FEFF 		bl	CYCONFIGCPYCODE
1995:.\Generated_Source\PSoC5/cyfitter_cfg.c **** 	CYCONFIGCPYCODE((void CYFAR *)(CYREG_PRT12_DR), (const void CYCODE *)(BS_IOPINS0_7_VAL), 10u);
 713              		.loc 1 1995 0
 714 00ec 2A48     		ldr	r0, .L31+48
 715 00ee 2B49     		ldr	r1, .L31+52
 716 00f0 0A22     		movs	r2, #10
 717 00f2 FFF7FEFF 		bl	CYCONFIGCPYCODE
1996:.\Generated_Source\PSoC5/cyfitter_cfg.c **** 	CYCONFIGCPYCODE((void CYFAR *)(CYREG_PRT15_DR), (const void CYCODE *)(BS_IOPINS0_8_VAL), 10u);
 718              		.loc 1 1996 0
 719 00f6 2A48     		ldr	r0, .L31+56
 720 00f8 2A49     		ldr	r1, .L31+60
 721 00fa 0A22     		movs	r2, #10
 722 00fc FFF7FEFF 		bl	CYCONFIGCPYCODE
1997:.\Generated_Source\PSoC5/cyfitter_cfg.c **** 	CYCONFIGCPYCODE((void CYFAR *)(CYREG_PRT1_DR), (const void CYCODE *)(BS_IOPINS0_1_VAL), 10u);
 723              		.loc 1 1997 0
 724 0100 2948     		ldr	r0, .L31+64
 725 0102 2A49     		ldr	r1, .L31+68
 726 0104 0A22     		movs	r2, #10
 727 0106 FFF7FEFF 		bl	CYCONFIGCPYCODE
1998:.\Generated_Source\PSoC5/cyfitter_cfg.c **** 	CYCONFIGCPYCODE((void CYFAR *)(CYREG_PRT2_DR), (const void CYCODE *)(BS_IOPINS0_2_VAL), 10u);
 728              		.loc 1 1998 0
 729 010a 2948     		ldr	r0, .L31+72
ARM GAS  C:\Users\xavieran\AppData\Local\Temp\ccwd941Y.s 			page 49


 730 010c 2949     		ldr	r1, .L31+76
 731 010e 0A22     		movs	r2, #10
 732 0110 FFF7FEFF 		bl	CYCONFIGCPYCODE
1999:.\Generated_Source\PSoC5/cyfitter_cfg.c **** 	CYCONFIGCPYCODE((void CYFAR *)(CYREG_PRT3_DR), (const void CYCODE *)(BS_IOPINS0_3_VAL), 10u);
 733              		.loc 1 1999 0
 734 0114 2848     		ldr	r0, .L31+80
 735 0116 2949     		ldr	r1, .L31+84
 736 0118 0A22     		movs	r2, #10
 737 011a FFF7FEFF 		bl	CYCONFIGCPYCODE
2000:.\Generated_Source\PSoC5/cyfitter_cfg.c **** 	CYCONFIGCPYCODE((void CYFAR *)(CYREG_PRT4_DM0), (const void CYCODE *)(BS_IOPINS0_4_VAL), 8u);
 738              		.loc 1 2000 0
 739 011e 2848     		ldr	r0, .L31+88
 740 0120 2849     		ldr	r1, .L31+92
 741 0122 0822     		movs	r2, #8
 742 0124 FFF7FEFF 		bl	CYCONFIGCPYCODE
2001:.\Generated_Source\PSoC5/cyfitter_cfg.c **** 	CYCONFIGCPYCODE((void CYFAR *)(CYREG_PRT5_DM0), (const void CYCODE *)(BS_IOPINS0_5_VAL), 8u);
 743              		.loc 1 2001 0
 744 0128 2748     		ldr	r0, .L31+96
 745 012a 2849     		ldr	r1, .L31+100
 746 012c 0822     		movs	r2, #8
 747 012e FFF7FEFF 		bl	CYCONFIGCPYCODE
2002:.\Generated_Source\PSoC5/cyfitter_cfg.c **** 	CYCONFIGCPYCODE((void CYFAR *)(CYREG_PRT6_DM0), (const void CYCODE *)(BS_IOPINS0_6_VAL), 8u);
 748              		.loc 1 2002 0
 749 0132 2748     		ldr	r0, .L31+104
 750 0134 2749     		ldr	r1, .L31+108
 751 0136 0822     		movs	r2, #8
 752 0138 FFF7FEFF 		bl	CYCONFIGCPYCODE
2003:.\Generated_Source\PSoC5/cyfitter_cfg.c **** 	CY_SET_XTND_REG8((void CYFAR *)(CYREG_B1_P3_U1_CFG27), 0x84u);
 753              		.loc 1 2003 0
 754 013c 264B     		ldr	r3, .L31+112
 755 013e 8422     		movs	r2, #132
 756 0140 1A70     		strb	r2, [r3]
2004:.\Generated_Source\PSoC5/cyfitter_cfg.c **** 	/* Switch Boost to the precision bandgap reference from its internal reference */
2005:.\Generated_Source\PSoC5/cyfitter_cfg.c **** 	CY_SET_REG8((void CYXDATA *)CYREG_BOOST_CR2, (CY_GET_REG8((void CYXDATA *)CYREG_BOOST_CR2) | 0x08u
 757              		.loc 1 2005 0
 758 0142 264B     		ldr	r3, .L31+116
 759 0144 254A     		ldr	r2, .L31+116
 760 0146 1278     		ldrb	r2, [r2]
 761 0148 D2B2     		uxtb	r2, r2
 762 014a 42F00802 		orr	r2, r2, #8
 763 014e D2B2     		uxtb	r2, r2
 764 0150 1A70     		strb	r2, [r3]
2006:.\Generated_Source\PSoC5/cyfitter_cfg.c **** 
2007:.\Generated_Source\PSoC5/cyfitter_cfg.c **** 	/* Perform basic analog initialization to defaults */
2008:.\Generated_Source\PSoC5/cyfitter_cfg.c **** 	AnalogSetDefault();
 765              		.loc 1 2008 0
 766 0152 FFF7FEFF 		bl	AnalogSetDefault
2009:.\Generated_Source\PSoC5/cyfitter_cfg.c **** 
2010:.\Generated_Source\PSoC5/cyfitter_cfg.c **** 	/* Configure alternate active mode */
2011:.\Generated_Source\PSoC5/cyfitter_cfg.c **** 	CYCONFIGCPY((void CYFAR *)CYDEV_PM_STBY_BASE, (const void CYFAR *)CYDEV_PM_ACT_BASE, 14u);
 767              		.loc 1 2011 0
 768 0156 2248     		ldr	r0, .L31+120
 769 0158 0B49     		ldr	r1, .L31+32
 770 015a 0E22     		movs	r2, #14
 771 015c FFF7FEFF 		bl	CYCONFIGCPY
2012:.\Generated_Source\PSoC5/cyfitter_cfg.c **** }
 772              		.loc 1 2012 0
ARM GAS  C:\Users\xavieran\AppData\Local\Temp\ccwd941Y.s 			page 50


 773 0160 1837     		adds	r7, r7, #24
 774 0162 BD46     		mov	sp, r7
 775              		@ sp needed
 776 0164 80BD     		pop	{r7, pc}
 777              	.L32:
 778 0166 00BF     		.align	2
 779              	.L31:
 780 0168 00480040 		.word	1073760256
 781 016c 00000000 		.word	cfg_memset_list.4899
 782 0170 30000000 		.word	cfg_memcpy_list.4904
 783 0174 58000000 		.word	cy_cfg_addr_table.4888
 784 0178 FC000000 		.word	cy_cfg_data_table.4889
 785 017c 00760040 		.word	1073772032
 786 0180 03500140 		.word	1073827843
 787 0184 13500140 		.word	1073827859
 788 0188 A0430040 		.word	1073759136
 789 018c C2430040 		.word	1073759170
 790 0190 00510040 		.word	1073762560
 791 0194 940C0000 		.word	BS_IOPINS0_0_VAL.4879
 792 0198 C0510040 		.word	1073762752
 793 019c A00C0000 		.word	BS_IOPINS0_7_VAL.4880
 794 01a0 F0510040 		.word	1073762800
 795 01a4 AC0C0000 		.word	BS_IOPINS0_8_VAL.4881
 796 01a8 10510040 		.word	1073762576
 797 01ac B80C0000 		.word	BS_IOPINS0_1_VAL.4882
 798 01b0 20510040 		.word	1073762592
 799 01b4 C40C0000 		.word	BS_IOPINS0_2_VAL.4883
 800 01b8 30510040 		.word	1073762608
 801 01bc D00C0000 		.word	BS_IOPINS0_3_VAL.4884
 802 01c0 42510040 		.word	1073762626
 803 01c4 DC0C0000 		.word	BS_IOPINS0_4_VAL.4885
 804 01c8 52510040 		.word	1073762642
 805 01cc E40C0000 		.word	BS_IOPINS0_5_VAL.4886
 806 01d0 62510040 		.word	1073762658
 807 01d4 EC0C0000 		.word	BS_IOPINS0_6_VAL.4887
 808 01d8 DB160140 		.word	1073813211
 809 01dc 22430040 		.word	1073759010
 810 01e0 B0430040 		.word	1073759152
 811              		.cfi_endproc
 812              	.LFE8:
 813              		.size	cyfitter_cfg, .-cyfitter_cfg
 814              		.section	.rodata
 815              		.align	2
 816              		.type	cfg_memset_list.4899, %object
 817              		.size	cfg_memset_list.4899, 48
 818              	cfg_memset_list.4899:
 819 0000 C8490040 		.word	1073760712
 820 0004 1900     		.short	25
 821 0006 004F0040 		.4byte	1073762048
 822 000a 3000     		.short	48
 823 000c 00000140 		.word	1073807360
 824 0010 0010     		.short	4096
 825 0012 00140140 		.4byte	1073812480
 826 0016 8002     		.short	640
 827 0018 00170140 		.word	1073813248
 828 001c 0005     		.short	1280
 829 001e 00400140 		.4byte	1073823744
ARM GAS  C:\Users\xavieran\AppData\Local\Temp\ccwd941Y.s 			page 51


 830 0022 000A     		.short	2560
 831 0024 004C0140 		.word	1073826816
 832 0028 0002     		.short	512
 833 002a 10500140 		.4byte	1073827856
 834 002e 1000     		.short	16
 835              		.align	2
 836              		.type	cfg_memcpy_list.4904, %object
 837              		.size	cfg_memcpy_list.4904, 40
 838              	cfg_memcpy_list.4904:
 839 0030 60520040 		.word	1073762912
 840 0034 8C0D0000 		.word	BS_IOPORT_7_VAL.4900
 841 0038 0600     		.short	6
 842 003a 00510140 		.4byte	1073828096
 843 003e 840D0000 		.4byte	BS_IDMUX_IRQ_VAL.4901
 844 0042 0800     		.short	8
 845 0044 80160140 		.word	1073813120
 846 0048 040D0000 		.word	BS_UDB_1_1_0_CONFIG_VAL.4902
 847 004c 8000     		.short	128
 848 004e 00500140 		.4byte	1073827840
 849 0052 F40C0000 		.4byte	BS_UCFG_BCTL0_VAL.4903
 850 0056 1000     		.short	16
 851              		.align	2
 852              		.type	cy_cfg_addr_table.4888, %object
 853              		.size	cy_cfg_addr_table.4888, 164
 854              	cy_cfg_addr_table.4888:
 855 0058 03450040 		.word	1073759491
 856 005c 084F0040 		.word	1073762056
 857 0060 0E520040 		.word	1073762830
 858 0064 05640040 		.word	1073767429
 859 0068 02650040 		.word	1073767682
 860 006c 04010140 		.word	1073807620
 861 0070 50020140 		.word	1073807952
 862 0074 39030140 		.word	1073808185
 863 0078 5D040140 		.word	1073808477
 864 007c 3E050140 		.word	1073808702
 865 0080 48060140 		.word	1073808968
 866 0084 4E070140 		.word	1073809230
 867 0088 43080140 		.word	1073809475
 868 008c 46090140 		.word	1073809734
 869 0090 4A0A0140 		.word	1073809994
 870 0094 520B0140 		.word	1073810258
 871 0098 470C0140 		.word	1073810503
 872 009c 430D0140 		.word	1073810755
 873 00a0 3D0E0140 		.word	1073811005
 874 00a4 300F0140 		.word	1073811248
 875 00a8 4C140140 		.word	1073812556
 876 00ac 2C150140 		.word	1073812780
 877 00b0 15160140 		.word	1073813013
 878 00b4 3E170140 		.word	1073813310
 879 00b8 04180140 		.word	1073813508
 880 00bc 0F190140 		.word	1073813775
 881 00c0 091B0140 		.word	1073814281
 882 00c4 15400140 		.word	1073823765
 883 00c8 17410140 		.word	1073824023
 884 00cc 14420140 		.word	1073824276
 885 00d0 0F430140 		.word	1073824527
 886 00d4 0E440140 		.word	1073824782
ARM GAS  C:\Users\xavieran\AppData\Local\Temp\ccwd941Y.s 			page 52


 887 00d8 13450140 		.word	1073825043
 888 00dc 0C460140 		.word	1073825292
 889 00e0 0D470140 		.word	1073825549
 890 00e4 19480140 		.word	1073825817
 891 00e8 11490140 		.word	1073826065
 892 00ec 204C0140 		.word	1073826848
 893 00f0 124D0140 		.word	1073827090
 894 00f4 04500140 		.word	1073827844
 895 00f8 01510140 		.word	1073828097
 896              		.align	2
 897              		.type	cy_cfg_data_table.4889, %object
 898              		.size	cy_cfg_data_table.4889, 2966
 899              	cy_cfg_data_table.4889:
 900 00fc 00       		.byte	0
 901 00fd 02       		.byte	2
 902 00fe 60       		.byte	96
 903 00ff 02       		.byte	2
 904 0100 7E       		.byte	126
 905 0101 02       		.byte	2
 906 0102 01       		.byte	1
 907 0103 10       		.byte	16
 908 0104 0A       		.byte	10
 909 0105 36       		.byte	54
 910 0106 0D       		.byte	13
 911 0107 40       		.byte	64
 912 0108 16       		.byte	22
 913 0109 36       		.byte	54
 914 010a 19       		.byte	25
 915 010b 40       		.byte	64
 916 010c 22       		.byte	34
 917 010d 36       		.byte	54
 918 010e 25       		.byte	37
 919 010f 40       		.byte	64
 920 0110 2E       		.byte	46
 921 0111 36       		.byte	54
 922 0112 00       		.byte	0
 923 0113 90       		.byte	-112
 924 0114 01       		.byte	1
 925 0115 50       		.byte	80
 926 0116 04       		.byte	4
 927 0117 03       		.byte	3
 928 0118 08       		.byte	8
 929 0119 80       		.byte	-128
 930 011a 09       		.byte	9
 931 011b C0       		.byte	-64
 932 011c 11       		.byte	17
 933 011d 10       		.byte	16
 934 011e 19       		.byte	25
 935 011f 08       		.byte	8
 936 0120 20       		.byte	32
 937 0121 02       		.byte	2
 938 0122 21       		.byte	33
 939 0123 01       		.byte	1
 940 0124 28       		.byte	40
 941 0125 82       		.byte	-126
 942 0126 30       		.byte	48
 943 0127 10       		.byte	16
ARM GAS  C:\Users\xavieran\AppData\Local\Temp\ccwd941Y.s 			page 53


 944 0128 78       		.byte	120
 945 0129 08       		.byte	8
 946 012a 79       		.byte	121
 947 012b 18       		.byte	24
 948 012c 7C       		.byte	124
 949 012d 40       		.byte	64
 950 012e 2B       		.byte	43
 951 012f 04       		.byte	4
 952 0130 2D       		.byte	45
 953 0131 0F       		.byte	15
 954 0132 3D       		.byte	61
 955 0133 08       		.byte	8
 956 0134 83       		.byte	-125
 957 0135 0D       		.byte	13
 958 0136 86       		.byte	-122
 959 0137 0D       		.byte	13
 960 0138 85       		.byte	-123
 961 0139 0F       		.byte	15
 962 013a 87       		.byte	-121
 963 013b 0D       		.byte	13
 964 013c E0       		.byte	-32
 965 013d 82       		.byte	-126
 966 013e E2       		.byte	-30
 967 013f 04       		.byte	4
 968 0140 E4       		.byte	-28
 969 0141 10       		.byte	16
 970 0142 E6       		.byte	-26
 971 0143 80       		.byte	-128
 972 0144 02       		.byte	2
 973 0145 01       		.byte	1
 974 0146 06       		.byte	6
 975 0147 02       		.byte	2
 976 0148 0B       		.byte	11
 977 0149 01       		.byte	1
 978 014a 17       		.byte	23
 979 014b 01       		.byte	1
 980 014c 30       		.byte	48
 981 014d 02       		.byte	2
 982 014e 32       		.byte	50
 983 014f 01       		.byte	1
 984 0150 33       		.byte	51
 985 0151 01       		.byte	1
 986 0152 40       		.byte	64
 987 0153 30       		.byte	48
 988 0154 41       		.byte	65
 989 0155 06       		.byte	6
 990 0156 49       		.byte	73
 991 0157 FF       		.byte	-1
 992 0158 4A       		.byte	74
 993 0159 FF       		.byte	-1
 994 015a 4B       		.byte	75
 995 015b FF       		.byte	-1
 996 015c 4D       		.byte	77
 997 015d A0       		.byte	-96
 998 015e 4F       		.byte	79
 999 015f 04       		.byte	4
 1000 0160 50       		.byte	80
ARM GAS  C:\Users\xavieran\AppData\Local\Temp\ccwd941Y.s 			page 54


 1001 0161 18       		.byte	24
 1002 0162 58       		.byte	88
 1003 0163 04       		.byte	4
 1004 0164 59       		.byte	89
 1005 0165 04       		.byte	4
 1006 0166 5A       		.byte	90
 1007 0167 04       		.byte	4
 1008 0168 5B       		.byte	91
 1009 0169 04       		.byte	4
 1010 016a 5C       		.byte	92
 1011 016b 44       		.byte	68
 1012 016c 5D       		.byte	93
 1013 016d 04       		.byte	4
 1014 016e 5F       		.byte	95
 1015 016f 01       		.byte	1
 1016 0170 60       		.byte	96
 1017 0171 40       		.byte	64
 1018 0172 62       		.byte	98
 1019 0173 C0       		.byte	-64
 1020 0174 64       		.byte	100
 1021 0175 40       		.byte	64
 1022 0176 65       		.byte	101
 1023 0177 40       		.byte	64
 1024 0178 66       		.byte	102
 1025 0179 C0       		.byte	-64
 1026 017a 68       		.byte	104
 1027 017b C0       		.byte	-64
 1028 017c 6A       		.byte	106
 1029 017d C0       		.byte	-64
 1030 017e 6C       		.byte	108
 1031 017f C0       		.byte	-64
 1032 0180 6E       		.byte	110
 1033 0181 C0       		.byte	-64
 1034 0182 80       		.byte	-128
 1035 0183 01       		.byte	1
 1036 0184 81       		.byte	-127
 1037 0185 02       		.byte	2
 1038 0186 85       		.byte	-123
 1039 0187 02       		.byte	2
 1040 0188 89       		.byte	-119
 1041 0189 02       		.byte	2
 1042 018a 8C       		.byte	-116
 1043 018b 01       		.byte	1
 1044 018c 8D       		.byte	-115
 1045 018d 08       		.byte	8
 1046 018e 91       		.byte	-111
 1047 018f 02       		.byte	2
 1048 0190 97       		.byte	-105
 1049 0191 08       		.byte	8
 1050 0192 99       		.byte	-103
 1051 0193 02       		.byte	2
 1052 0194 9E       		.byte	-98
 1053 0195 01       		.byte	1
 1054 0196 9F       		.byte	-97
 1055 0197 01       		.byte	1
 1056 0198 A1       		.byte	-95
 1057 0199 04       		.byte	4
ARM GAS  C:\Users\xavieran\AppData\Local\Temp\ccwd941Y.s 			page 55


 1058 019a A7       		.byte	-89
 1059 019b 10       		.byte	16
 1060 019c AB       		.byte	-85
 1061 019d 10       		.byte	16
 1062 019e B1       		.byte	-79
 1063 019f 07       		.byte	7
 1064 01a0 B3       		.byte	-77
 1065 01a1 10       		.byte	16
 1066 01a2 B6       		.byte	-74
 1067 01a3 01       		.byte	1
 1068 01a4 B7       		.byte	-73
 1069 01a5 08       		.byte	8
 1070 01a6 B9       		.byte	-71
 1071 01a7 02       		.byte	2
 1072 01a8 BF       		.byte	-65
 1073 01a9 05       		.byte	5
 1074 01aa C0       		.byte	-64
 1075 01ab 60       		.byte	96
 1076 01ac C1       		.byte	-63
 1077 01ad 03       		.byte	3
 1078 01ae C5       		.byte	-59
 1079 01af D1       		.byte	-47
 1080 01b0 C7       		.byte	-57
 1081 01b1 02       		.byte	2
 1082 01b2 C8       		.byte	-56
 1083 01b3 13       		.byte	19
 1084 01b4 C9       		.byte	-55
 1085 01b5 FF       		.byte	-1
 1086 01b6 CA       		.byte	-54
 1087 01b7 FF       		.byte	-1
 1088 01b8 CB       		.byte	-53
 1089 01b9 FF       		.byte	-1
 1090 01ba CD       		.byte	-51
 1091 01bb AF       		.byte	-81
 1092 01bc CE       		.byte	-50
 1093 01bd 0F       		.byte	15
 1094 01be CF       		.byte	-49
 1095 01bf 04       		.byte	4
 1096 01c0 D0       		.byte	-48
 1097 01c1 18       		.byte	24
 1098 01c2 D4       		.byte	-44
 1099 01c3 05       		.byte	5
 1100 01c4 D8       		.byte	-40
 1101 01c5 04       		.byte	4
 1102 01c6 D9       		.byte	-39
 1103 01c7 04       		.byte	4
 1104 01c8 DA       		.byte	-38
 1105 01c9 04       		.byte	4
 1106 01ca DB       		.byte	-37
 1107 01cb 04       		.byte	4
 1108 01cc DC       		.byte	-36
 1109 01cd 42       		.byte	66
 1110 01ce DD       		.byte	-35
 1111 01cf 44       		.byte	68
 1112 01d0 DF       		.byte	-33
 1113 01d1 01       		.byte	1
 1114 01d2 E0       		.byte	-32
ARM GAS  C:\Users\xavieran\AppData\Local\Temp\ccwd941Y.s 			page 56


 1115 01d3 40       		.byte	64
 1116 01d4 E2       		.byte	-30
 1117 01d5 C0       		.byte	-64
 1118 01d6 E4       		.byte	-28
 1119 01d7 40       		.byte	64
 1120 01d8 E5       		.byte	-27
 1121 01d9 40       		.byte	64
 1122 01da E6       		.byte	-26
 1123 01db C0       		.byte	-64
 1124 01dc E8       		.byte	-24
 1125 01dd C0       		.byte	-64
 1126 01de EA       		.byte	-22
 1127 01df C0       		.byte	-64
 1128 01e0 EC       		.byte	-20
 1129 01e1 C0       		.byte	-64
 1130 01e2 EE       		.byte	-18
 1131 01e3 C0       		.byte	-64
 1132 01e4 00       		.byte	0
 1133 01e5 80       		.byte	-128
 1134 01e6 03       		.byte	3
 1135 01e7 80       		.byte	-128
 1136 01e8 05       		.byte	5
 1137 01e9 04       		.byte	4
 1138 01ea 06       		.byte	6
 1139 01eb 80       		.byte	-128
 1140 01ec 0A       		.byte	10
 1141 01ed 01       		.byte	1
 1142 01ee 1A       		.byte	26
 1143 01ef 01       		.byte	1
 1144 01f0 1C       		.byte	28
 1145 01f1 40       		.byte	64
 1146 01f2 1D       		.byte	29
 1147 01f3 08       		.byte	8
 1148 01f4 20       		.byte	32
 1149 01f5 80       		.byte	-128
 1150 01f6 22       		.byte	34
 1151 01f7 44       		.byte	68
 1152 01f8 27       		.byte	39
 1153 01f9 10       		.byte	16
 1154 01fa 28       		.byte	40
 1155 01fb 40       		.byte	64
 1156 01fc 29       		.byte	41
 1157 01fd 10       		.byte	16
 1158 01fe 2A       		.byte	42
 1159 01ff 21       		.byte	33
 1160 0200 2B       		.byte	43
 1161 0201 10       		.byte	16
 1162 0202 31       		.byte	49
 1163 0203 04       		.byte	4
 1164 0204 32       		.byte	50
 1165 0205 11       		.byte	17
 1166 0206 33       		.byte	51
 1167 0207 40       		.byte	64
 1168 0208 35       		.byte	53
 1169 0209 04       		.byte	4
 1170 020a 38       		.byte	56
 1171 020b 44       		.byte	68
ARM GAS  C:\Users\xavieran\AppData\Local\Temp\ccwd941Y.s 			page 57


 1172 020c 39       		.byte	57
 1173 020d 02       		.byte	2
 1174 020e 3A       		.byte	58
 1175 020f 10       		.byte	16
 1176 0210 3E       		.byte	62
 1177 0211 20       		.byte	32
 1178 0212 41       		.byte	65
 1179 0213 04       		.byte	4
 1180 0214 45       		.byte	69
 1181 0215 08       		.byte	8
 1182 0216 46       		.byte	70
 1183 0217 20       		.byte	32
 1184 0218 49       		.byte	73
 1185 0219 15       		.byte	21
 1186 021a 4C       		.byte	76
 1187 021b 04       		.byte	4
 1188 021c 4F       		.byte	79
 1189 021d 20       		.byte	32
 1190 021e 50       		.byte	80
 1191 021f 04       		.byte	4
 1192 0220 51       		.byte	81
 1193 0221 04       		.byte	4
 1194 0222 59       		.byte	89
 1195 0223 01       		.byte	1
 1196 0224 5A       		.byte	90
 1197 0225 88       		.byte	-120
 1198 0226 6C       		.byte	108
 1199 0227 60       		.byte	96
 1200 0228 6E       		.byte	110
 1201 0229 80       		.byte	-128
 1202 022a 6F       		.byte	111
 1203 022b 04       		.byte	4
 1204 022c 74       		.byte	116
 1205 022d 80       		.byte	-128
 1206 022e 77       		.byte	119
 1207 022f 08       		.byte	8
 1208 0230 86       		.byte	-122
 1209 0231 40       		.byte	64
 1210 0232 87       		.byte	-121
 1211 0233 08       		.byte	8
 1212 0234 88       		.byte	-120
 1213 0235 40       		.byte	64
 1214 0236 8C       		.byte	-116
 1215 0237 80       		.byte	-128
 1216 0238 8F       		.byte	-113
 1217 0239 44       		.byte	68
 1218 023a 90       		.byte	-112
 1219 023b 04       		.byte	4
 1220 023c 9A       		.byte	-102
 1221 023d 10       		.byte	16
 1222 023e B2       		.byte	-78
 1223 023f 10       		.byte	16
 1224 0240 B4       		.byte	-76
 1225 0241 04       		.byte	4
 1226 0242 C0       		.byte	-64
 1227 0243 39       		.byte	57
 1228 0244 C2       		.byte	-62
ARM GAS  C:\Users\xavieran\AppData\Local\Temp\ccwd941Y.s 			page 58


 1229 0245 01       		.byte	1
 1230 0246 CA       		.byte	-54
 1231 0247 07       		.byte	7
 1232 0248 CC       		.byte	-52
 1233 0249 4F       		.byte	79
 1234 024a CE       		.byte	-50
 1235 024b 2F       		.byte	47
 1236 024c D0       		.byte	-48
 1237 024d 42       		.byte	66
 1238 024e D2       		.byte	-46
 1239 024f 24       		.byte	36
 1240 0250 D6       		.byte	-42
 1241 0251 0B       		.byte	11
 1242 0252 E6       		.byte	-26
 1243 0253 50       		.byte	80
 1244 0254 E8       		.byte	-24
 1245 0255 04       		.byte	4
 1246 0256 00       		.byte	0
 1247 0257 FF       		.byte	-1
 1248 0258 01       		.byte	1
 1249 0259 40       		.byte	64
 1250 025a 03       		.byte	3
 1251 025b 07       		.byte	7
 1252 025c 04       		.byte	4
 1253 025d A5       		.byte	-91
 1254 025e 05       		.byte	5
 1255 025f 22       		.byte	34
 1256 0260 06       		.byte	6
 1257 0261 4A       		.byte	74
 1258 0262 07       		.byte	7
 1259 0263 05       		.byte	5
 1260 0264 08       		.byte	8
 1261 0265 A9       		.byte	-87
 1262 0266 09       		.byte	9
 1263 0267 01       		.byte	1
 1264 0268 0A       		.byte	10
 1265 0269 54       		.byte	84
 1266 026a 0D       		.byte	13
 1267 026b 03       		.byte	3
 1268 026c 0E       		.byte	14
 1269 026d B5       		.byte	-75
 1270 026e 11       		.byte	17
 1271 026f 10       		.byte	16
 1272 0270 12       		.byte	18
 1273 0271 01       		.byte	1
 1274 0272 13       		.byte	19
 1275 0273 07       		.byte	7
 1276 0274 14       		.byte	20
 1277 0275 4D       		.byte	77
 1278 0276 15       		.byte	21
 1279 0277 08       		.byte	8
 1280 0278 16       		.byte	22
 1281 0279 92       		.byte	-110
 1282 027a 17       		.byte	23
 1283 027b 07       		.byte	7
 1284 027c 18       		.byte	24
 1285 027d 04       		.byte	4
ARM GAS  C:\Users\xavieran\AppData\Local\Temp\ccwd941Y.s 			page 59


 1286 027e 19       		.byte	25
 1287 027f 01       		.byte	1
 1288 0280 1C       		.byte	28
 1289 0281 02       		.byte	2
 1290 0282 1D       		.byte	29
 1291 0283 7F       		.byte	127
 1292 0284 21       		.byte	33
 1293 0285 03       		.byte	3
 1294 0286 22       		.byte	34
 1295 0287 04       		.byte	4
 1296 0288 24       		.byte	36
 1297 0289 CC       		.byte	-52
 1298 028a 25       		.byte	37
 1299 028b 01       		.byte	1
 1300 028c 26       		.byte	38
 1301 028d 13       		.byte	19
 1302 028e 29       		.byte	41
 1303 028f 3A       		.byte	58
 1304 0290 2A       		.byte	42
 1305 0291 02       		.byte	2
 1306 0292 2B       		.byte	43
 1307 0293 04       		.byte	4
 1308 0294 2C       		.byte	44
 1309 0295 1A       		.byte	26
 1310 0296 2D       		.byte	45
 1311 0297 05       		.byte	5
 1312 0298 2E       		.byte	46
 1313 0299 60       		.byte	96
 1314 029a 2F       		.byte	47
 1315 029b 78       		.byte	120
 1316 029c 36       		.byte	54
 1317 029d FF       		.byte	-1
 1318 029e 37       		.byte	55
 1319 029f 7F       		.byte	127
 1320 02a0 3E       		.byte	62
 1321 02a1 40       		.byte	64
 1322 02a2 3F       		.byte	63
 1323 02a3 40       		.byte	64
 1324 02a4 40       		.byte	64
 1325 02a5 45       		.byte	69
 1326 02a6 49       		.byte	73
 1327 02a7 FF       		.byte	-1
 1328 02a8 4A       		.byte	74
 1329 02a9 FF       		.byte	-1
 1330 02aa 4B       		.byte	75
 1331 02ab FF       		.byte	-1
 1332 02ac 4F       		.byte	79
 1333 02ad 01       		.byte	1
 1334 02ae 50       		.byte	80
 1335 02af 18       		.byte	24
 1336 02b0 52       		.byte	82
 1337 02b1 80       		.byte	-128
 1338 02b2 58       		.byte	88
 1339 02b3 04       		.byte	4
 1340 02b4 59       		.byte	89
 1341 02b5 04       		.byte	4
 1342 02b6 5A       		.byte	90
ARM GAS  C:\Users\xavieran\AppData\Local\Temp\ccwd941Y.s 			page 60


 1343 02b7 04       		.byte	4
 1344 02b8 5B       		.byte	91
 1345 02b9 04       		.byte	4
 1346 02ba 5D       		.byte	93
 1347 02bb 55       		.byte	85
 1348 02bc 5F       		.byte	95
 1349 02bd 01       		.byte	1
 1350 02be 60       		.byte	96
 1351 02bf 40       		.byte	64
 1352 02c0 62       		.byte	98
 1353 02c1 40       		.byte	64
 1354 02c2 64       		.byte	100
 1355 02c3 40       		.byte	64
 1356 02c4 65       		.byte	101
 1357 02c5 40       		.byte	64
 1358 02c6 66       		.byte	102
 1359 02c7 80       		.byte	-128
 1360 02c8 68       		.byte	104
 1361 02c9 80       		.byte	-128
 1362 02ca 6A       		.byte	106
 1363 02cb 80       		.byte	-128
 1364 02cc 6C       		.byte	108
 1365 02cd 80       		.byte	-128
 1366 02ce 6E       		.byte	110
 1367 02cf 80       		.byte	-128
 1368 02d0 84       		.byte	-124
 1369 02d1 01       		.byte	1
 1370 02d2 8C       		.byte	-116
 1371 02d3 01       		.byte	1
 1372 02d4 92       		.byte	-110
 1373 02d5 01       		.byte	1
 1374 02d6 94       		.byte	-108
 1375 02d7 01       		.byte	1
 1376 02d8 9E       		.byte	-98
 1377 02d9 02       		.byte	2
 1378 02da A0       		.byte	-96
 1379 02db 01       		.byte	1
 1380 02dc A4       		.byte	-92
 1381 02dd 01       		.byte	1
 1382 02de B2       		.byte	-78
 1383 02df 03       		.byte	3
 1384 02e0 C0       		.byte	-64
 1385 02e1 15       		.byte	21
 1386 02e2 C9       		.byte	-55
 1387 02e3 FF       		.byte	-1
 1388 02e4 CA       		.byte	-54
 1389 02e5 FF       		.byte	-1
 1390 02e6 CB       		.byte	-53
 1391 02e7 FF       		.byte	-1
 1392 02e8 CD       		.byte	-51
 1393 02e9 83       		.byte	-125
 1394 02ea CE       		.byte	-50
 1395 02eb 03       		.byte	3
 1396 02ec CF       		.byte	-49
 1397 02ed 01       		.byte	1
 1398 02ee D0       		.byte	-48
 1399 02ef 18       		.byte	24
ARM GAS  C:\Users\xavieran\AppData\Local\Temp\ccwd941Y.s 			page 61


 1400 02f0 D2       		.byte	-46
 1401 02f1 80       		.byte	-128
 1402 02f2 D8       		.byte	-40
 1403 02f3 04       		.byte	4
 1404 02f4 DA       		.byte	-38
 1405 02f5 04       		.byte	4
 1406 02f6 DB       		.byte	-37
 1407 02f7 04       		.byte	4
 1408 02f8 DC       		.byte	-36
 1409 02f9 02       		.byte	2
 1410 02fa DD       		.byte	-35
 1411 02fb 45       		.byte	69
 1412 02fc DF       		.byte	-33
 1413 02fd 01       		.byte	1
 1414 02fe E0       		.byte	-32
 1415 02ff 40       		.byte	64
 1416 0300 E2       		.byte	-30
 1417 0301 40       		.byte	64
 1418 0302 E4       		.byte	-28
 1419 0303 40       		.byte	64
 1420 0304 E5       		.byte	-27
 1421 0305 40       		.byte	64
 1422 0306 E6       		.byte	-26
 1423 0307 80       		.byte	-128
 1424 0308 E8       		.byte	-24
 1425 0309 80       		.byte	-128
 1426 030a EA       		.byte	-22
 1427 030b 80       		.byte	-128
 1428 030c EC       		.byte	-20
 1429 030d 80       		.byte	-128
 1430 030e EE       		.byte	-18
 1431 030f 80       		.byte	-128
 1432 0310 00       		.byte	0
 1433 0311 04       		.byte	4
 1434 0312 01       		.byte	1
 1435 0313 20       		.byte	32
 1436 0314 02       		.byte	2
 1437 0315 03       		.byte	3
 1438 0316 03       		.byte	3
 1439 0317 A0       		.byte	-96
 1440 0318 04       		.byte	4
 1441 0319 04       		.byte	4
 1442 031a 05       		.byte	5
 1443 031b 40       		.byte	64
 1444 031c 08       		.byte	8
 1445 031d 94       		.byte	-108
 1446 031e 09       		.byte	9
 1447 031f 02       		.byte	2
 1448 0320 0A       		.byte	10
 1449 0321 25       		.byte	37
 1450 0322 0C       		.byte	12
 1451 0323 04       		.byte	4
 1452 0324 0F       		.byte	15
 1453 0325 41       		.byte	65
 1454 0326 10       		.byte	16
 1455 0327 80       		.byte	-128
 1456 0328 12       		.byte	18
ARM GAS  C:\Users\xavieran\AppData\Local\Temp\ccwd941Y.s 			page 62


 1457 0329 10       		.byte	16
 1458 032a 13       		.byte	19
 1459 032b 50       		.byte	80
 1460 032c 14       		.byte	20
 1461 032d 40       		.byte	64
 1462 032e 16       		.byte	22
 1463 032f 10       		.byte	16
 1464 0330 18       		.byte	24
 1465 0331 02       		.byte	2
 1466 0332 1F       		.byte	31
 1467 0333 08       		.byte	8
 1468 0334 23       		.byte	35
 1469 0335 01       		.byte	1
 1470 0336 28       		.byte	40
 1471 0337 92       		.byte	-110
 1472 0338 29       		.byte	41
 1473 0339 20       		.byte	32
 1474 033a 30       		.byte	48
 1475 033b 05       		.byte	5
 1476 033c 31       		.byte	49
 1477 033d 40       		.byte	64
 1478 033e 33       		.byte	51
 1479 033f 90       		.byte	-112
 1480 0340 38       		.byte	56
 1481 0341 04       		.byte	4
 1482 0342 39       		.byte	57
 1483 0343 80       		.byte	-128
 1484 0344 3A       		.byte	58
 1485 0345 01       		.byte	1
 1486 0346 3B       		.byte	59
 1487 0347 10       		.byte	16
 1488 0348 42       		.byte	66
 1489 0349 40       		.byte	64
 1490 034a 47       		.byte	71
 1491 034b 80       		.byte	-128
 1492 034c 48       		.byte	72
 1493 034d 02       		.byte	2
 1494 034e 4C       		.byte	76
 1495 034f 02       		.byte	2
 1496 0350 72       		.byte	114
 1497 0351 40       		.byte	64
 1498 0352 73       		.byte	115
 1499 0353 80       		.byte	-128
 1500 0354 76       		.byte	118
 1501 0355 80       		.byte	-128
 1502 0356 84       		.byte	-124
 1503 0357 01       		.byte	1
 1504 0358 86       		.byte	-122
 1505 0359 10       		.byte	16
 1506 035a 8C       		.byte	-116
 1507 035b 01       		.byte	1
 1508 035c 8D       		.byte	-115
 1509 035d 21       		.byte	33
 1510 035e 90       		.byte	-112
 1511 035f 04       		.byte	4
 1512 0360 92       		.byte	-110
 1513 0361 01       		.byte	1
ARM GAS  C:\Users\xavieran\AppData\Local\Temp\ccwd941Y.s 			page 63


 1514 0362 95       		.byte	-107
 1515 0363 02       		.byte	2
 1516 0364 96       		.byte	-106
 1517 0365 22       		.byte	34
 1518 0366 9A       		.byte	-102
 1519 0367 11       		.byte	17
 1520 0368 9E       		.byte	-98
 1521 0369 80       		.byte	-128
 1522 036a A7       		.byte	-89
 1523 036b 80       		.byte	-128
 1524 036c A8       		.byte	-88
 1525 036d 20       		.byte	32
 1526 036e AB       		.byte	-85
 1527 036f 10       		.byte	16
 1528 0370 B0       		.byte	-80
 1529 0371 40       		.byte	64
 1530 0372 B4       		.byte	-76
 1531 0373 40       		.byte	64
 1532 0374 C0       		.byte	-64
 1533 0375 AF       		.byte	-81
 1534 0376 C2       		.byte	-62
 1535 0377 BF       		.byte	-65
 1536 0378 C4       		.byte	-60
 1537 0379 3F       		.byte	63
 1538 037a CA       		.byte	-54
 1539 037b 0F       		.byte	15
 1540 037c CC       		.byte	-52
 1541 037d 0F       		.byte	15
 1542 037e CE       		.byte	-50
 1543 037f 0F       		.byte	15
 1544 0380 D0       		.byte	-48
 1545 0381 11       		.byte	17
 1546 0382 D2       		.byte	-46
 1547 0383 18       		.byte	24
 1548 0384 E2       		.byte	-30
 1549 0385 80       		.byte	-128
 1550 0386 E8       		.byte	-24
 1551 0387 80       		.byte	-128
 1552 0388 EA       		.byte	-22
 1553 0389 12       		.byte	18
 1554 038a EE       		.byte	-18
 1555 038b 10       		.byte	16
 1556 038c 03       		.byte	3
 1557 038d 01       		.byte	1
 1558 038e 2F       		.byte	47
 1559 038f 01       		.byte	1
 1560 0390 31       		.byte	49
 1561 0391 01       		.byte	1
 1562 0392 3F       		.byte	63
 1563 0393 01       		.byte	1
 1564 0394 40       		.byte	64
 1565 0395 45       		.byte	69
 1566 0396 45       		.byte	69
 1567 0397 EC       		.byte	-20
 1568 0398 47       		.byte	71
 1569 0399 20       		.byte	32
 1570 039a 48       		.byte	72
ARM GAS  C:\Users\xavieran\AppData\Local\Temp\ccwd941Y.s 			page 64


 1571 039b 23       		.byte	35
 1572 039c 49       		.byte	73
 1573 039d FF       		.byte	-1
 1574 039e 4A       		.byte	74
 1575 039f FF       		.byte	-1
 1576 03a0 4B       		.byte	75
 1577 03a1 FF       		.byte	-1
 1578 03a2 4D       		.byte	77
 1579 03a3 83       		.byte	-125
 1580 03a4 4E       		.byte	78
 1581 03a5 03       		.byte	3
 1582 03a6 4F       		.byte	79
 1583 03a7 01       		.byte	1
 1584 03a8 50       		.byte	80
 1585 03a9 18       		.byte	24
 1586 03aa 54       		.byte	84
 1587 03ab 01       		.byte	1
 1588 03ac 59       		.byte	89
 1589 03ad 04       		.byte	4
 1590 03ae 5A       		.byte	90
 1591 03af 04       		.byte	4
 1592 03b0 5B       		.byte	91
 1593 03b1 04       		.byte	4
 1594 03b2 5D       		.byte	93
 1595 03b3 55       		.byte	85
 1596 03b4 5F       		.byte	95
 1597 03b5 01       		.byte	1
 1598 03b6 60       		.byte	96
 1599 03b7 40       		.byte	64
 1600 03b8 62       		.byte	98
 1601 03b9 40       		.byte	64
 1602 03ba 64       		.byte	100
 1603 03bb 40       		.byte	64
 1604 03bc 65       		.byte	101
 1605 03bd 40       		.byte	64
 1606 03be 66       		.byte	102
 1607 03bf 80       		.byte	-128
 1608 03c0 68       		.byte	104
 1609 03c1 80       		.byte	-128
 1610 03c2 6A       		.byte	106
 1611 03c3 80       		.byte	-128
 1612 03c4 6C       		.byte	108
 1613 03c5 80       		.byte	-128
 1614 03c6 6E       		.byte	110
 1615 03c7 80       		.byte	-128
 1616 03c8 80       		.byte	-128
 1617 03c9 08       		.byte	8
 1618 03ca 81       		.byte	-127
 1619 03cb E2       		.byte	-30
 1620 03cc 82       		.byte	-126
 1621 03cd 02       		.byte	2
 1622 03ce 85       		.byte	-123
 1623 03cf 5D       		.byte	93
 1624 03d0 86       		.byte	-122
 1625 03d1 0B       		.byte	11
 1626 03d2 87       		.byte	-121
 1627 03d3 A2       		.byte	-94
ARM GAS  C:\Users\xavieran\AppData\Local\Temp\ccwd941Y.s 			page 65


 1628 03d4 88       		.byte	-120
 1629 03d5 0F       		.byte	15
 1630 03d6 89       		.byte	-119
 1631 03d7 92       		.byte	-110
 1632 03d8 8B       		.byte	-117
 1633 03d9 60       		.byte	96
 1634 03da 8C       		.byte	-116
 1635 03db 10       		.byte	16
 1636 03dc 8D       		.byte	-115
 1637 03dd 40       		.byte	64
 1638 03de 8E       		.byte	-114
 1639 03df 0B       		.byte	11
 1640 03e0 8F       		.byte	-113
 1641 03e1 1D       		.byte	29
 1642 03e2 92       		.byte	-110
 1643 03e3 14       		.byte	20
 1644 03e4 93       		.byte	-109
 1645 03e5 FF       		.byte	-1
 1646 03e6 94       		.byte	-108
 1647 03e7 01       		.byte	1
 1648 03e8 95       		.byte	-107
 1649 03e9 3D       		.byte	61
 1650 03ea 97       		.byte	-105
 1651 03eb C2       		.byte	-62
 1652 03ec 98       		.byte	-104
 1653 03ed 01       		.byte	1
 1654 03ee 99       		.byte	-103
 1655 03ef 01       		.byte	1
 1656 03f0 9C       		.byte	-100
 1657 03f1 03       		.byte	3
 1658 03f2 9F       		.byte	-97
 1659 03f3 02       		.byte	2
 1660 03f4 A0       		.byte	-96
 1661 03f5 1F       		.byte	31
 1662 03f6 A3       		.byte	-93
 1663 03f7 08       		.byte	8
 1664 03f8 A5       		.byte	-91
 1665 03f9 04       		.byte	4
 1666 03fa A6       		.byte	-90
 1667 03fb 01       		.byte	1
 1668 03fc A7       		.byte	-89
 1669 03fd E0       		.byte	-32
 1670 03fe A8       		.byte	-88
 1671 03ff 02       		.byte	2
 1672 0400 A9       		.byte	-87
 1673 0401 01       		.byte	1
 1674 0402 AA       		.byte	-86
 1675 0403 09       		.byte	9
 1676 0404 AC       		.byte	-84
 1677 0405 03       		.byte	3
 1678 0406 AD       		.byte	-83
 1679 0407 0D       		.byte	13
 1680 0408 B4       		.byte	-76
 1681 0409 1F       		.byte	31
 1682 040a B5       		.byte	-75
 1683 040b FF       		.byte	-1
 1684 040c BF       		.byte	-65
ARM GAS  C:\Users\xavieran\AppData\Local\Temp\ccwd941Y.s 			page 66


 1685 040d 10       		.byte	16
 1686 040e D2       		.byte	-46
 1687 040f F6       		.byte	-10
 1688 0410 D8       		.byte	-40
 1689 0411 04       		.byte	4
 1690 0412 D9       		.byte	-39
 1691 0413 04       		.byte	4
 1692 0414 DB       		.byte	-37
 1693 0415 04       		.byte	4
 1694 0416 DC       		.byte	-36
 1695 0417 02       		.byte	2
 1696 0418 DD       		.byte	-35
 1697 0419 20       		.byte	32
 1698 041a DF       		.byte	-33
 1699 041b 01       		.byte	1
 1700 041c 02       		.byte	2
 1701 041d 52       		.byte	82
 1702 041e 03       		.byte	3
 1703 041f 08       		.byte	8
 1704 0420 08       		.byte	8
 1705 0421 80       		.byte	-128
 1706 0422 09       		.byte	9
 1707 0423 01       		.byte	1
 1708 0424 0A       		.byte	10
 1709 0425 04       		.byte	4
 1710 0426 0B       		.byte	11
 1711 0427 10       		.byte	16
 1712 0428 0C       		.byte	12
 1713 0429 04       		.byte	4
 1714 042a 0F       		.byte	15
 1715 042b 10       		.byte	16
 1716 042c 11       		.byte	17
 1717 042d 45       		.byte	69
 1718 042e 12       		.byte	18
 1719 042f 04       		.byte	4
 1720 0430 14       		.byte	20
 1721 0431 02       		.byte	2
 1722 0432 15       		.byte	21
 1723 0433 40       		.byte	64
 1724 0434 18       		.byte	24
 1725 0435 04       		.byte	4
 1726 0436 19       		.byte	25
 1727 0437 20       		.byte	32
 1728 0438 22       		.byte	34
 1729 0439 20       		.byte	32
 1730 043a 27       		.byte	39
 1731 043b 80       		.byte	-128
 1732 043c 28       		.byte	40
 1733 043d 86       		.byte	-122
 1734 043e 2A       		.byte	42
 1735 043f 05       		.byte	5
 1736 0440 2B       		.byte	43
 1737 0441 20       		.byte	32
 1738 0442 2D       		.byte	45
 1739 0443 01       		.byte	1
 1740 0444 2E       		.byte	46
 1741 0445 C0       		.byte	-64
ARM GAS  C:\Users\xavieran\AppData\Local\Temp\ccwd941Y.s 			page 67


 1742 0446 2F       		.byte	47
 1743 0447 80       		.byte	-128
 1744 0448 30       		.byte	48
 1745 0449 C0       		.byte	-64
 1746 044a 31       		.byte	49
 1747 044b 10       		.byte	16
 1748 044c 32       		.byte	50
 1749 044d 06       		.byte	6
 1750 044e 33       		.byte	51
 1751 044f 08       		.byte	8
 1752 0450 38       		.byte	56
 1753 0451 04       		.byte	4
 1754 0452 39       		.byte	57
 1755 0453 01       		.byte	1
 1756 0454 3A       		.byte	58
 1757 0455 50       		.byte	80
 1758 0456 3B       		.byte	59
 1759 0457 40       		.byte	64
 1760 0458 3F       		.byte	63
 1761 0459 02       		.byte	2
 1762 045a 40       		.byte	64
 1763 045b 02       		.byte	2
 1764 045c 41       		.byte	65
 1765 045d 40       		.byte	64
 1766 045e 46       		.byte	70
 1767 045f 80       		.byte	-128
 1768 0460 4C       		.byte	76
 1769 0461 02       		.byte	2
 1770 0462 4F       		.byte	79
 1771 0463 05       		.byte	5
 1772 0464 54       		.byte	84
 1773 0465 02       		.byte	2
 1774 0466 57       		.byte	87
 1775 0467 01       		.byte	1
 1776 0468 5F       		.byte	95
 1777 0469 85       		.byte	-123
 1778 046a 69       		.byte	105
 1779 046b 14       		.byte	20
 1780 046c 6B       		.byte	107
 1781 046d 10       		.byte	16
 1782 046e 70       		.byte	112
 1783 046f 80       		.byte	-128
 1784 0470 71       		.byte	113
 1785 0471 12       		.byte	18
 1786 0472 72       		.byte	114
 1787 0473 04       		.byte	4
 1788 0474 73       		.byte	115
 1789 0475 10       		.byte	16
 1790 0476 92       		.byte	-110
 1791 0477 40       		.byte	64
 1792 0478 95       		.byte	-107
 1793 0479 80       		.byte	-128
 1794 047a 96       		.byte	-106
 1795 047b 24       		.byte	36
 1796 047c 97       		.byte	-105
 1797 047d 10       		.byte	16
 1798 047e 98       		.byte	-104
ARM GAS  C:\Users\xavieran\AppData\Local\Temp\ccwd941Y.s 			page 68


 1799 047f 81       		.byte	-127
 1800 0480 9A       		.byte	-102
 1801 0481 10       		.byte	16
 1802 0482 9C       		.byte	-100
 1803 0483 40       		.byte	64
 1804 0484 9D       		.byte	-99
 1805 0485 20       		.byte	32
 1806 0486 9F       		.byte	-97
 1807 0487 10       		.byte	16
 1808 0488 A1       		.byte	-95
 1809 0489 01       		.byte	1
 1810 048a A2       		.byte	-94
 1811 048b 02       		.byte	2
 1812 048c A3       		.byte	-93
 1813 048d 28       		.byte	40
 1814 048e A4       		.byte	-92
 1815 048f 82       		.byte	-126
 1816 0490 A5       		.byte	-91
 1817 0491 02       		.byte	2
 1818 0492 A7       		.byte	-89
 1819 0493 80       		.byte	-128
 1820 0494 AB       		.byte	-85
 1821 0495 80       		.byte	-128
 1822 0496 AD       		.byte	-83
 1823 0497 21       		.byte	33
 1824 0498 B0       		.byte	-80
 1825 0499 02       		.byte	2
 1826 049a B2       		.byte	-78
 1827 049b 01       		.byte	1
 1828 049c B3       		.byte	-77
 1829 049d 48       		.byte	72
 1830 049e C0       		.byte	-64
 1831 049f 0F       		.byte	15
 1832 04a0 C2       		.byte	-62
 1833 04a1 0F       		.byte	15
 1834 04a2 C4       		.byte	-60
 1835 04a3 0F       		.byte	15
 1836 04a4 CA       		.byte	-54
 1837 04a5 1F       		.byte	31
 1838 04a6 CC       		.byte	-52
 1839 04a7 0F       		.byte	15
 1840 04a8 CE       		.byte	-50
 1841 04a9 8F       		.byte	-113
 1842 04aa D0       		.byte	-48
 1843 04ab 80       		.byte	-128
 1844 04ac D2       		.byte	-46
 1845 04ad 10       		.byte	16
 1846 04ae D6       		.byte	-42
 1847 04af D0       		.byte	-48
 1848 04b0 E0       		.byte	-32
 1849 04b1 80       		.byte	-128
 1850 04b2 E2       		.byte	-30
 1851 04b3 04       		.byte	4
 1852 04b4 E4       		.byte	-28
 1853 04b5 04       		.byte	4
 1854 04b6 EC       		.byte	-20
 1855 04b7 04       		.byte	4
ARM GAS  C:\Users\xavieran\AppData\Local\Temp\ccwd941Y.s 			page 69


 1856 04b8 03       		.byte	3
 1857 04b9 06       		.byte	6
 1858 04ba 07       		.byte	7
 1859 04bb 06       		.byte	6
 1860 04bc 0C       		.byte	12
 1861 04bd 06       		.byte	6
 1862 04be 0D       		.byte	13
 1863 04bf 06       		.byte	6
 1864 04c0 0E       		.byte	14
 1865 04c1 01       		.byte	1
 1866 04c2 11       		.byte	17
 1867 04c3 06       		.byte	6
 1868 04c4 14       		.byte	20
 1869 04c5 01       		.byte	1
 1870 04c6 15       		.byte	21
 1871 04c7 04       		.byte	4
 1872 04c8 16       		.byte	22
 1873 04c9 0E       		.byte	14
 1874 04ca 17       		.byte	23
 1875 04cb 03       		.byte	3
 1876 04cc 18       		.byte	24
 1877 04cd 01       		.byte	1
 1878 04ce 19       		.byte	25
 1879 04cf 02       		.byte	2
 1880 04d0 1A       		.byte	26
 1881 04d1 08       		.byte	8
 1882 04d2 1B       		.byte	27
 1883 04d3 0C       		.byte	12
 1884 04d4 1C       		.byte	28
 1885 04d5 02       		.byte	2
 1886 04d6 1E       		.byte	30
 1887 04d7 05       		.byte	5
 1888 04d8 1F       		.byte	31
 1889 04d9 06       		.byte	6
 1890 04da 20       		.byte	32
 1891 04db 03       		.byte	3
 1892 04dc 22       		.byte	34
 1893 04dd 04       		.byte	4
 1894 04de 25       		.byte	37
 1895 04df 02       		.byte	2
 1896 04e0 27       		.byte	39
 1897 04e1 08       		.byte	8
 1898 04e2 28       		.byte	40
 1899 04e3 07       		.byte	7
 1900 04e4 2B       		.byte	43
 1901 04e5 06       		.byte	6
 1902 04e6 2C       		.byte	44
 1903 04e7 07       		.byte	7
 1904 04e8 32       		.byte	50
 1905 04e9 0F       		.byte	15
 1906 04ea 33       		.byte	51
 1907 04eb 0E       		.byte	14
 1908 04ec 37       		.byte	55
 1909 04ed 01       		.byte	1
 1910 04ee 3A       		.byte	58
 1911 04ef 08       		.byte	8
 1912 04f0 3B       		.byte	59
ARM GAS  C:\Users\xavieran\AppData\Local\Temp\ccwd941Y.s 			page 70


 1913 04f1 08       		.byte	8
 1914 04f2 58       		.byte	88
 1915 04f3 04       		.byte	4
 1916 04f4 59       		.byte	89
 1917 04f5 04       		.byte	4
 1918 04f6 5C       		.byte	92
 1919 04f7 22       		.byte	34
 1920 04f8 5F       		.byte	95
 1921 04f9 01       		.byte	1
 1922 04fa 80       		.byte	-128
 1923 04fb 02       		.byte	2
 1924 04fc 82       		.byte	-126
 1925 04fd 01       		.byte	1
 1926 04fe 84       		.byte	-124
 1927 04ff 01       		.byte	1
 1928 0500 86       		.byte	-122
 1929 0501 06       		.byte	6
 1930 0502 8A       		.byte	-118
 1931 0503 03       		.byte	3
 1932 0504 8C       		.byte	-116
 1933 0505 01       		.byte	1
 1934 0506 8E       		.byte	-114
 1935 0507 02       		.byte	2
 1936 0508 93       		.byte	-109
 1937 0509 02       		.byte	2
 1938 050a 94       		.byte	-108
 1939 050b 08       		.byte	8
 1940 050c 96       		.byte	-106
 1941 050d 10       		.byte	16
 1942 050e 98       		.byte	-104
 1943 050f 01       		.byte	1
 1944 0510 9A       		.byte	-102
 1945 0511 04       		.byte	4
 1946 0512 A2       		.byte	-94
 1947 0513 03       		.byte	3
 1948 0514 A3       		.byte	-93
 1949 0515 01       		.byte	1
 1950 0516 A8       		.byte	-88
 1951 0517 08       		.byte	8
 1952 0518 AA       		.byte	-86
 1953 0519 10       		.byte	16
 1954 051a AB       		.byte	-85
 1955 051b 04       		.byte	4
 1956 051c AD       		.byte	-83
 1957 051d 08       		.byte	8
 1958 051e AE       		.byte	-82
 1959 051f 03       		.byte	3
 1960 0520 B0       		.byte	-80
 1961 0521 18       		.byte	24
 1962 0522 B1       		.byte	-79
 1963 0523 04       		.byte	4
 1964 0524 B3       		.byte	-77
 1965 0525 01       		.byte	1
 1966 0526 B4       		.byte	-76
 1967 0527 07       		.byte	7
 1968 0528 B5       		.byte	-75
 1969 0529 08       		.byte	8
ARM GAS  C:\Users\xavieran\AppData\Local\Temp\ccwd941Y.s 			page 71


 1970 052a B7       		.byte	-73
 1971 052b 02       		.byte	2
 1972 052c BA       		.byte	-70
 1973 052d 20       		.byte	32
 1974 052e BF       		.byte	-65
 1975 052f 10       		.byte	16
 1976 0530 D6       		.byte	-42
 1977 0531 08       		.byte	8
 1978 0532 D8       		.byte	-40
 1979 0533 04       		.byte	4
 1980 0534 D9       		.byte	-39
 1981 0535 04       		.byte	4
 1982 0536 DB       		.byte	-37
 1983 0537 04       		.byte	4
 1984 0538 DC       		.byte	-36
 1985 0539 22       		.byte	34
 1986 053a DD       		.byte	-35
 1987 053b 90       		.byte	-112
 1988 053c DF       		.byte	-33
 1989 053d 01       		.byte	1
 1990 053e 00       		.byte	0
 1991 053f 24       		.byte	36
 1992 0540 02       		.byte	2
 1993 0541 80       		.byte	-128
 1994 0542 03       		.byte	3
 1995 0543 01       		.byte	1
 1996 0544 06       		.byte	6
 1997 0545 01       		.byte	1
 1998 0546 08       		.byte	8
 1999 0547 08       		.byte	8
 2000 0548 0A       		.byte	10
 2001 0549 04       		.byte	4
 2002 054a 0E       		.byte	14
 2003 054b 14       		.byte	20
 2004 054c 0F       		.byte	15
 2005 054d 02       		.byte	2
 2006 054e 10       		.byte	16
 2007 054f 40       		.byte	64
 2008 0550 11       		.byte	17
 2009 0551 10       		.byte	16
 2010 0552 13       		.byte	19
 2011 0553 40       		.byte	64
 2012 0554 16       		.byte	22
 2013 0555 08       		.byte	8
 2014 0556 17       		.byte	23
 2015 0557 42       		.byte	66
 2016 0558 18       		.byte	24
 2017 0559 04       		.byte	4
 2018 055a 19       		.byte	25
 2019 055b 01       		.byte	1
 2020 055c 1E       		.byte	30
 2021 055d 10       		.byte	16
 2022 055e 20       		.byte	32
 2023 055f 20       		.byte	32
 2024 0560 22       		.byte	34
 2025 0561 D0       		.byte	-48
 2026 0562 23       		.byte	35
ARM GAS  C:\Users\xavieran\AppData\Local\Temp\ccwd941Y.s 			page 72


 2027 0563 40       		.byte	64
 2028 0564 24       		.byte	36
 2029 0565 10       		.byte	16
 2030 0566 25       		.byte	37
 2031 0567 40       		.byte	64
 2032 0568 27       		.byte	39
 2033 0569 10       		.byte	16
 2034 056a 28       		.byte	40
 2035 056b 48       		.byte	72
 2036 056c 29       		.byte	41
 2037 056d 40       		.byte	64
 2038 056e 2E       		.byte	46
 2039 056f 04       		.byte	4
 2040 0570 2F       		.byte	47
 2041 0571 04       		.byte	4
 2042 0572 33       		.byte	51
 2043 0573 01       		.byte	1
 2044 0574 36       		.byte	54
 2045 0575 08       		.byte	8
 2046 0576 37       		.byte	55
 2047 0577 52       		.byte	82
 2048 0578 3C       		.byte	60
 2049 0579 80       		.byte	-128
 2050 057a 3E       		.byte	62
 2051 057b 08       		.byte	8
 2052 057c 3F       		.byte	63
 2053 057d 02       		.byte	2
 2054 057e 58       		.byte	88
 2055 057f 80       		.byte	-128
 2056 0580 59       		.byte	89
 2057 0581 10       		.byte	16
 2058 0582 5B       		.byte	91
 2059 0583 04       		.byte	4
 2060 0584 60       		.byte	96
 2061 0585 08       		.byte	8
 2062 0586 61       		.byte	97
 2063 0587 40       		.byte	64
 2064 0588 62       		.byte	98
 2065 0589 08       		.byte	8
 2066 058a 91       		.byte	-111
 2067 058b 10       		.byte	16
 2068 058c 92       		.byte	-110
 2069 058d 04       		.byte	4
 2070 058e 93       		.byte	-109
 2071 058f 08       		.byte	8
 2072 0590 94       		.byte	-108
 2073 0591 10       		.byte	16
 2074 0592 96       		.byte	-106
 2075 0593 90       		.byte	-112
 2076 0594 97       		.byte	-105
 2077 0595 40       		.byte	64
 2078 0596 98       		.byte	-104
 2079 0597 40       		.byte	64
 2080 0598 9A       		.byte	-102
 2081 0599 09       		.byte	9
 2082 059a 9B       		.byte	-101
 2083 059b 41       		.byte	65
ARM GAS  C:\Users\xavieran\AppData\Local\Temp\ccwd941Y.s 			page 73


 2084 059c 9D       		.byte	-99
 2085 059d 01       		.byte	1
 2086 059e 9F       		.byte	-97
 2087 059f 02       		.byte	2
 2088 05a0 A0       		.byte	-96
 2089 05a1 42       		.byte	66
 2090 05a2 A3       		.byte	-93
 2091 05a3 11       		.byte	17
 2092 05a4 A4       		.byte	-92
 2093 05a5 30       		.byte	48
 2094 05a6 A5       		.byte	-91
 2095 05a7 40       		.byte	64
 2096 05a8 A9       		.byte	-87
 2097 05a9 04       		.byte	4
 2098 05aa AA       		.byte	-86
 2099 05ab 05       		.byte	5
 2100 05ac B2       		.byte	-78
 2101 05ad 08       		.byte	8
 2102 05ae B3       		.byte	-77
 2103 05af 10       		.byte	16
 2104 05b0 B5       		.byte	-75
 2105 05b1 84       		.byte	-124
 2106 05b2 C0       		.byte	-64
 2107 05b3 8F       		.byte	-113
 2108 05b4 C2       		.byte	-62
 2109 05b5 E6       		.byte	-26
 2110 05b6 C4       		.byte	-60
 2111 05b7 DB       		.byte	-37
 2112 05b8 CA       		.byte	-54
 2113 05b9 6D       		.byte	109
 2114 05ba CC       		.byte	-52
 2115 05bb F1       		.byte	-15
 2116 05bc CE       		.byte	-50
 2117 05bd D0       		.byte	-48
 2118 05be D6       		.byte	-42
 2119 05bf 0E       		.byte	14
 2120 05c0 D8       		.byte	-40
 2121 05c1 0E       		.byte	14
 2122 05c2 E0       		.byte	-32
 2123 05c3 80       		.byte	-128
 2124 05c4 E2       		.byte	-30
 2125 05c5 04       		.byte	4
 2126 05c6 E4       		.byte	-28
 2127 05c7 04       		.byte	4
 2128 05c8 E8       		.byte	-24
 2129 05c9 20       		.byte	32
 2130 05ca 01       		.byte	1
 2131 05cb 01       		.byte	1
 2132 05cc 09       		.byte	9
 2133 05cd 01       		.byte	1
 2134 05ce 0A       		.byte	10
 2135 05cf 01       		.byte	1
 2136 05d0 0F       		.byte	15
 2137 05d1 04       		.byte	4
 2138 05d2 10       		.byte	16
 2139 05d3 01       		.byte	1
 2140 05d4 11       		.byte	17
ARM GAS  C:\Users\xavieran\AppData\Local\Temp\ccwd941Y.s 			page 74


 2141 05d5 02       		.byte	2
 2142 05d6 1D       		.byte	29
 2143 05d7 01       		.byte	1
 2144 05d8 1E       		.byte	30
 2145 05d9 01       		.byte	1
 2146 05da 21       		.byte	33
 2147 05db 01       		.byte	1
 2148 05dc 22       		.byte	34
 2149 05dd 01       		.byte	1
 2150 05de 27       		.byte	39
 2151 05df 01       		.byte	1
 2152 05e0 2D       		.byte	45
 2153 05e1 01       		.byte	1
 2154 05e2 2E       		.byte	46
 2155 05e3 01       		.byte	1
 2156 05e4 31       		.byte	49
 2157 05e5 04       		.byte	4
 2158 05e6 34       		.byte	52
 2159 05e7 01       		.byte	1
 2160 05e8 35       		.byte	53
 2161 05e9 03       		.byte	3
 2162 05ea 39       		.byte	57
 2163 05eb 20       		.byte	32
 2164 05ec 3E       		.byte	62
 2165 05ed 10       		.byte	16
 2166 05ee 3F       		.byte	63
 2167 05ef 10       		.byte	16
 2168 05f0 58       		.byte	88
 2169 05f1 04       		.byte	4
 2170 05f2 59       		.byte	89
 2171 05f3 04       		.byte	4
 2172 05f4 5C       		.byte	92
 2173 05f5 20       		.byte	32
 2174 05f6 5F       		.byte	95
 2175 05f7 01       		.byte	1
 2176 05f8 80       		.byte	-128
 2177 05f9 01       		.byte	1
 2178 05fa 82       		.byte	-126
 2179 05fb 02       		.byte	2
 2180 05fc 83       		.byte	-125
 2181 05fd 02       		.byte	2
 2182 05fe 87       		.byte	-121
 2183 05ff 01       		.byte	1
 2184 0600 8C       		.byte	-116
 2185 0601 05       		.byte	5
 2186 0602 8F       		.byte	-113
 2187 0603 04       		.byte	4
 2188 0604 91       		.byte	-111
 2189 0605 03       		.byte	3
 2190 0606 94       		.byte	-108
 2191 0607 01       		.byte	1
 2192 0608 95       		.byte	-107
 2193 0609 03       		.byte	3
 2194 060a 96       		.byte	-106
 2195 060b 0E       		.byte	14
 2196 060c 98       		.byte	-104
 2197 060d 01       		.byte	1
ARM GAS  C:\Users\xavieran\AppData\Local\Temp\ccwd941Y.s 			page 75


 2198 060e 9A       		.byte	-102
 2199 060f 08       		.byte	8
 2200 0610 9C       		.byte	-100
 2201 0611 04       		.byte	4
 2202 0612 9E       		.byte	-98
 2203 0613 01       		.byte	1
 2204 0614 9F       		.byte	-97
 2205 0615 02       		.byte	2
 2206 0616 A0       		.byte	-96
 2207 0617 04       		.byte	4
 2208 0618 A2       		.byte	-94
 2209 0619 01       		.byte	1
 2210 061a A5       		.byte	-91
 2211 061b 02       		.byte	2
 2212 061c A8       		.byte	-88
 2213 061d 05       		.byte	5
 2214 061e A9       		.byte	-87
 2215 061f 02       		.byte	2
 2216 0620 AC       		.byte	-84
 2217 0621 05       		.byte	5
 2218 0622 B2       		.byte	-78
 2219 0623 0F       		.byte	15
 2220 0624 B3       		.byte	-77
 2221 0625 03       		.byte	3
 2222 0626 B7       		.byte	-73
 2223 0627 04       		.byte	4
 2224 0628 BA       		.byte	-70
 2225 0629 08       		.byte	8
 2226 062a C0       		.byte	-64
 2227 062b 53       		.byte	83
 2228 062c C4       		.byte	-60
 2229 062d 01       		.byte	1
 2230 062e C6       		.byte	-58
 2231 062f D0       		.byte	-48
 2232 0630 C7       		.byte	-57
 2233 0631 B0       		.byte	-80
 2234 0632 C8       		.byte	-56
 2235 0633 28       		.byte	40
 2236 0634 C9       		.byte	-55
 2237 0635 FF       		.byte	-1
 2238 0636 CA       		.byte	-54
 2239 0637 7F       		.byte	127
 2240 0638 CB       		.byte	-53
 2241 0639 FF       		.byte	-1
 2242 063a CC       		.byte	-52
 2243 063b 42       		.byte	66
 2244 063c CD       		.byte	-51
 2245 063d A0       		.byte	-96
 2246 063e CE       		.byte	-50
 2247 063f 70       		.byte	112
 2248 0640 D0       		.byte	-48
 2249 0641 0C       		.byte	12
 2250 0642 D4       		.byte	-44
 2251 0643 20       		.byte	32
 2252 0644 D6       		.byte	-42
 2253 0645 04       		.byte	4
 2254 0646 D8       		.byte	-40
ARM GAS  C:\Users\xavieran\AppData\Local\Temp\ccwd941Y.s 			page 76


 2255 0647 04       		.byte	4
 2256 0648 D9       		.byte	-39
 2257 0649 04       		.byte	4
 2258 064a DA       		.byte	-38
 2259 064b 04       		.byte	4
 2260 064c DB       		.byte	-37
 2261 064d 04       		.byte	4
 2262 064e DC       		.byte	-36
 2263 064f 22       		.byte	34
 2264 0650 DD       		.byte	-35
 2265 0651 22       		.byte	34
 2266 0652 DF       		.byte	-33
 2267 0653 01       		.byte	1
 2268 0654 E1       		.byte	-31
 2269 0655 09       		.byte	9
 2270 0656 E2       		.byte	-30
 2271 0657 40       		.byte	64
 2272 0658 E3       		.byte	-29
 2273 0659 09       		.byte	9
 2274 065a E4       		.byte	-28
 2275 065b 30       		.byte	48
 2276 065c E5       		.byte	-27
 2277 065d 09       		.byte	9
 2278 065e 00       		.byte	0
 2279 065f 20       		.byte	32
 2280 0660 04       		.byte	4
 2281 0661 02       		.byte	2
 2282 0662 07       		.byte	7
 2283 0663 02       		.byte	2
 2284 0664 08       		.byte	8
 2285 0665 48       		.byte	72
 2286 0666 0A       		.byte	10
 2287 0667 92       		.byte	-110
 2288 0668 0E       		.byte	14
 2289 0669 2C       		.byte	44
 2290 066a 0F       		.byte	15
 2291 066b 02       		.byte	2
 2292 066c 12       		.byte	18
 2293 066d 80       		.byte	-128
 2294 066e 13       		.byte	19
 2295 066f 40       		.byte	64
 2296 0670 15       		.byte	21
 2297 0671 02       		.byte	2
 2298 0672 16       		.byte	22
 2299 0673 08       		.byte	8
 2300 0674 17       		.byte	23
 2301 0675 40       		.byte	64
 2302 0676 19       		.byte	25
 2303 0677 20       		.byte	32
 2304 0678 1D       		.byte	29
 2305 0679 04       		.byte	4
 2306 067a 1E       		.byte	30
 2307 067b 20       		.byte	32
 2308 067c 20       		.byte	32
 2309 067d 04       		.byte	4
 2310 067e 22       		.byte	34
 2311 067f 01       		.byte	1
ARM GAS  C:\Users\xavieran\AppData\Local\Temp\ccwd941Y.s 			page 77


 2312 0680 25       		.byte	37
 2313 0681 04       		.byte	4
 2314 0682 26       		.byte	38
 2315 0683 80       		.byte	-128
 2316 0684 27       		.byte	39
 2317 0685 01       		.byte	1
 2318 0686 28       		.byte	40
 2319 0687 81       		.byte	-127
 2320 0688 2B       		.byte	43
 2321 0689 11       		.byte	17
 2322 068a 2F       		.byte	47
 2323 068b 18       		.byte	24
 2324 068c 31       		.byte	49
 2325 068d 01       		.byte	1
 2326 068e 33       		.byte	51
 2327 068f 40       		.byte	64
 2328 0690 34       		.byte	52
 2329 0691 84       		.byte	-124
 2330 0692 36       		.byte	54
 2331 0693 06       		.byte	6
 2332 0694 39       		.byte	57
 2333 0695 02       		.byte	2
 2334 0696 3A       		.byte	58
 2335 0697 03       		.byte	3
 2336 0698 3B       		.byte	59
 2337 0699 60       		.byte	96
 2338 069a 3D       		.byte	61
 2339 069b 88       		.byte	-120
 2340 069c 3E       		.byte	62
 2341 069d 02       		.byte	2
 2342 069e 44       		.byte	68
 2343 069f 80       		.byte	-128
 2344 06a0 45       		.byte	69
 2345 06a1 40       		.byte	64
 2346 06a2 47       		.byte	71
 2347 06a3 0A       		.byte	10
 2348 06a4 4C       		.byte	76
 2349 06a5 01       		.byte	1
 2350 06a6 4E       		.byte	78
 2351 06a7 02       		.byte	2
 2352 06a8 54       		.byte	84
 2353 06a9 02       		.byte	2
 2354 06aa 57       		.byte	87
 2355 06ab 10       		.byte	16
 2356 06ac 5C       		.byte	92
 2357 06ad 18       		.byte	24
 2358 06ae 5D       		.byte	93
 2359 06af 80       		.byte	-128
 2360 06b0 5E       		.byte	94
 2361 06b1 02       		.byte	2
 2362 06b2 65       		.byte	101
 2363 06b3 22       		.byte	34
 2364 06b4 67       		.byte	103
 2365 06b5 02       		.byte	2
 2366 06b6 89       		.byte	-119
 2367 06b7 02       		.byte	2
 2368 06b8 8F       		.byte	-113
ARM GAS  C:\Users\xavieran\AppData\Local\Temp\ccwd941Y.s 			page 78


 2369 06b9 68       		.byte	104
 2370 06ba 91       		.byte	-111
 2371 06bb 10       		.byte	16
 2372 06bc 93       		.byte	-109
 2373 06bd 0A       		.byte	10
 2374 06be 94       		.byte	-108
 2375 06bf 04       		.byte	4
 2376 06c0 96       		.byte	-106
 2377 06c1 02       		.byte	2
 2378 06c2 97       		.byte	-105
 2379 06c3 60       		.byte	96
 2380 06c4 98       		.byte	-104
 2381 06c5 01       		.byte	1
 2382 06c6 9A       		.byte	-102
 2383 06c7 01       		.byte	1
 2384 06c8 9B       		.byte	-101
 2385 06c9 08       		.byte	8
 2386 06ca 9C       		.byte	-100
 2387 06cb 04       		.byte	4
 2388 06cc 9F       		.byte	-97
 2389 06cd 42       		.byte	66
 2390 06ce A0       		.byte	-96
 2391 06cf 40       		.byte	64
 2392 06d0 A2       		.byte	-94
 2393 06d1 02       		.byte	2
 2394 06d2 A4       		.byte	-92
 2395 06d3 20       		.byte	32
 2396 06d4 A6       		.byte	-90
 2397 06d5 04       		.byte	4
 2398 06d6 A7       		.byte	-89
 2399 06d7 30       		.byte	48
 2400 06d8 A8       		.byte	-88
 2401 06d9 80       		.byte	-128
 2402 06da AE       		.byte	-82
 2403 06db 06       		.byte	6
 2404 06dc B2       		.byte	-78
 2405 06dd 02       		.byte	2
 2406 06de B3       		.byte	-77
 2407 06df 01       		.byte	1
 2408 06e0 B6       		.byte	-74
 2409 06e1 60       		.byte	96
 2410 06e2 C0       		.byte	-64
 2411 06e3 92       		.byte	-110
 2412 06e4 C2       		.byte	-62
 2413 06e5 E9       		.byte	-23
 2414 06e6 C4       		.byte	-60
 2415 06e7 D9       		.byte	-39
 2416 06e8 CA       		.byte	-54
 2417 06e9 6B       		.byte	107
 2418 06ea CC       		.byte	-52
 2419 06eb D9       		.byte	-39
 2420 06ec CE       		.byte	-50
 2421 06ed DD       		.byte	-35
 2422 06ee D0       		.byte	-48
 2423 06ef 50       		.byte	80
 2424 06f0 D2       		.byte	-46
 2425 06f1 10       		.byte	16
ARM GAS  C:\Users\xavieran\AppData\Local\Temp\ccwd941Y.s 			page 79


 2426 06f2 D6       		.byte	-42
 2427 06f3 F0       		.byte	-16
 2428 06f4 D8       		.byte	-40
 2429 06f5 B0       		.byte	-80
 2430 06f6 E0       		.byte	-32
 2431 06f7 50       		.byte	80
 2432 06f8 E2       		.byte	-30
 2433 06f9 80       		.byte	-128
 2434 06fa E8       		.byte	-24
 2435 06fb 80       		.byte	-128
 2436 06fc EA       		.byte	-22
 2437 06fd 10       		.byte	16
 2438 06fe EC       		.byte	-20
 2439 06ff 20       		.byte	32
 2440 0700 EE       		.byte	-18
 2441 0701 09       		.byte	9
 2442 0702 00       		.byte	0
 2443 0703 02       		.byte	2
 2444 0704 08       		.byte	8
 2445 0705 01       		.byte	1
 2446 0706 0C       		.byte	12
 2447 0707 02       		.byte	2
 2448 0708 14       		.byte	20
 2449 0709 01       		.byte	1
 2450 070a 15       		.byte	21
 2451 070b 01       		.byte	1
 2452 070c 18       		.byte	24
 2453 070d 01       		.byte	1
 2454 070e 1D       		.byte	29
 2455 070f 02       		.byte	2
 2456 0710 1F       		.byte	31
 2457 0711 04       		.byte	4
 2458 0712 20       		.byte	32
 2459 0713 02       		.byte	2
 2460 0714 25       		.byte	37
 2461 0715 02       		.byte	2
 2462 0716 27       		.byte	39
 2463 0717 04       		.byte	4
 2464 0718 28       		.byte	40
 2465 0719 02       		.byte	2
 2466 071a 29       		.byte	41
 2467 071b 01       		.byte	1
 2468 071c 2C       		.byte	44
 2469 071d 02       		.byte	2
 2470 071e 30       		.byte	48
 2471 071f 02       		.byte	2
 2472 0720 32       		.byte	50
 2473 0721 01       		.byte	1
 2474 0722 35       		.byte	53
 2475 0723 07       		.byte	7
 2476 0724 38       		.byte	56
 2477 0725 0A       		.byte	10
 2478 0726 39       		.byte	57
 2479 0727 20       		.byte	32
 2480 0728 3E       		.byte	62
 2481 0729 01       		.byte	1
 2482 072a 3F       		.byte	63
ARM GAS  C:\Users\xavieran\AppData\Local\Temp\ccwd941Y.s 			page 80


 2483 072b 10       		.byte	16
 2484 072c 58       		.byte	88
 2485 072d 04       		.byte	4
 2486 072e 59       		.byte	89
 2487 072f 04       		.byte	4
 2488 0730 5C       		.byte	92
 2489 0731 02       		.byte	2
 2490 0732 5F       		.byte	95
 2491 0733 01       		.byte	1
 2492 0734 82       		.byte	-126
 2493 0735 02       		.byte	2
 2494 0736 84       		.byte	-124
 2495 0737 10       		.byte	16
 2496 0738 87       		.byte	-121
 2497 0739 01       		.byte	1
 2498 073a 8A       		.byte	-118
 2499 073b 0F       		.byte	15
 2500 073c 8E       		.byte	-114
 2501 073d 08       		.byte	8
 2502 073e 90       		.byte	-112
 2503 073f 0F       		.byte	15
 2504 0740 96       		.byte	-106
 2505 0741 01       		.byte	1
 2506 0742 98       		.byte	-104
 2507 0743 0F       		.byte	15
 2508 0744 9E       		.byte	-98
 2509 0745 0F       		.byte	15
 2510 0746 A2       		.byte	-94
 2511 0747 04       		.byte	4
 2512 0748 A6       		.byte	-90
 2513 0749 20       		.byte	32
 2514 074a A8       		.byte	-88
 2515 074b 10       		.byte	16
 2516 074c AE       		.byte	-82
 2517 074d 08       		.byte	8
 2518 074e B0       		.byte	-80
 2519 074f 10       		.byte	16
 2520 0750 B2       		.byte	-78
 2521 0751 0F       		.byte	15
 2522 0752 B4       		.byte	-76
 2523 0753 20       		.byte	32
 2524 0754 B5       		.byte	-75
 2525 0755 01       		.byte	1
 2526 0756 B8       		.byte	-72
 2527 0757 02       		.byte	2
 2528 0758 BE       		.byte	-66
 2529 0759 05       		.byte	5
 2530 075a C0       		.byte	-64
 2531 075b 42       		.byte	66
 2532 075c C6       		.byte	-58
 2533 075d 05       		.byte	5
 2534 075e C7       		.byte	-57
 2535 075f 02       		.byte	2
 2536 0760 C8       		.byte	-56
 2537 0761 14       		.byte	20
 2538 0762 C9       		.byte	-55
 2539 0763 FF       		.byte	-1
ARM GAS  C:\Users\xavieran\AppData\Local\Temp\ccwd941Y.s 			page 81


 2540 0764 CA       		.byte	-54
 2541 0765 FF       		.byte	-1
 2542 0766 CB       		.byte	-53
 2543 0767 FF       		.byte	-1
 2544 0768 CC       		.byte	-52
 2545 0769 42       		.byte	66
 2546 076a CD       		.byte	-51
 2547 076b A0       		.byte	-96
 2548 076c CE       		.byte	-50
 2549 076d 70       		.byte	112
 2550 076e D0       		.byte	-48
 2551 076f 08       		.byte	8
 2552 0770 D1       		.byte	-47
 2553 0771 10       		.byte	16
 2554 0772 D6       		.byte	-42
 2555 0773 08       		.byte	8
 2556 0774 D8       		.byte	-40
 2557 0775 04       		.byte	4
 2558 0776 D9       		.byte	-39
 2559 0777 04       		.byte	4
 2560 0778 DA       		.byte	-38
 2561 0779 04       		.byte	4
 2562 077a DB       		.byte	-37
 2563 077b 04       		.byte	4
 2564 077c DC       		.byte	-36
 2565 077d 88       		.byte	-120
 2566 077e DD       		.byte	-35
 2567 077f 92       		.byte	-110
 2568 0780 DF       		.byte	-33
 2569 0781 01       		.byte	1
 2570 0782 E1       		.byte	-31
 2571 0783 48       		.byte	72
 2572 0784 E2       		.byte	-30
 2573 0785 40       		.byte	64
 2574 0786 E3       		.byte	-29
 2575 0787 48       		.byte	72
 2576 0788 E4       		.byte	-28
 2577 0789 80       		.byte	-128
 2578 078a E5       		.byte	-27
 2579 078b 48       		.byte	72
 2580 078c E6       		.byte	-26
 2581 078d 80       		.byte	-128
 2582 078e E7       		.byte	-25
 2583 078f 48       		.byte	72
 2584 0790 00       		.byte	0
 2585 0791 80       		.byte	-128
 2586 0792 01       		.byte	1
 2587 0793 38       		.byte	56
 2588 0794 02       		.byte	2
 2589 0795 01       		.byte	1
 2590 0796 03       		.byte	3
 2591 0797 40       		.byte	64
 2592 0798 04       		.byte	4
 2593 0799 20       		.byte	32
 2594 079a 06       		.byte	6
 2595 079b 01       		.byte	1
 2596 079c 07       		.byte	7
ARM GAS  C:\Users\xavieran\AppData\Local\Temp\ccwd941Y.s 			page 82


 2597 079d 40       		.byte	64
 2598 079e 0A       		.byte	10
 2599 079f 02       		.byte	2
 2600 07a0 0B       		.byte	11
 2601 07a1 68       		.byte	104
 2602 07a2 0C       		.byte	12
 2603 07a3 08       		.byte	8
 2604 07a4 0E       		.byte	14
 2605 07a5 08       		.byte	8
 2606 07a6 10       		.byte	16
 2607 07a7 2B       		.byte	43
 2608 07a8 13       		.byte	19
 2609 07a9 02       		.byte	2
 2610 07aa 14       		.byte	20
 2611 07ab 01       		.byte	1
 2612 07ac 16       		.byte	22
 2613 07ad 08       		.byte	8
 2614 07ae 17       		.byte	23
 2615 07af 02       		.byte	2
 2616 07b0 18       		.byte	24
 2617 07b1 60       		.byte	96
 2618 07b2 19       		.byte	25
 2619 07b3 08       		.byte	8
 2620 07b4 1A       		.byte	26
 2621 07b5 04       		.byte	4
 2622 07b6 1D       		.byte	29
 2623 07b7 04       		.byte	4
 2624 07b8 1F       		.byte	31
 2625 07b9 05       		.byte	5
 2626 07ba 22       		.byte	34
 2627 07bb 20       		.byte	32
 2628 07bc 27       		.byte	39
 2629 07bd 08       		.byte	8
 2630 07be 2C       		.byte	44
 2631 07bf 08       		.byte	8
 2632 07c0 2E       		.byte	46
 2633 07c1 08       		.byte	8
 2634 07c2 2F       		.byte	47
 2635 07c3 10       		.byte	16
 2636 07c4 35       		.byte	53
 2637 07c5 08       		.byte	8
 2638 07c6 37       		.byte	55
 2639 07c7 40       		.byte	64
 2640 07c8 38       		.byte	56
 2641 07c9 08       		.byte	8
 2642 07ca 40       		.byte	64
 2643 07cb 44       		.byte	68
 2644 07cc 50       		.byte	80
 2645 07cd 08       		.byte	8
 2646 07ce 53       		.byte	83
 2647 07cf 40       		.byte	64
 2648 07d0 5A       		.byte	90
 2649 07d1 40       		.byte	64
 2650 07d2 5B       		.byte	91
 2651 07d3 10       		.byte	16
 2652 07d4 7B       		.byte	123
 2653 07d5 01       		.byte	1
ARM GAS  C:\Users\xavieran\AppData\Local\Temp\ccwd941Y.s 			page 83


 2654 07d6 83       		.byte	-125
 2655 07d7 10       		.byte	16
 2656 07d8 8B       		.byte	-117
 2657 07d9 04       		.byte	4
 2658 07da 8D       		.byte	-115
 2659 07db 01       		.byte	1
 2660 07dc 8F       		.byte	-113
 2661 07dd 10       		.byte	16
 2662 07de 90       		.byte	-112
 2663 07df 08       		.byte	8
 2664 07e0 97       		.byte	-105
 2665 07e1 A8       		.byte	-88
 2666 07e2 99       		.byte	-103
 2667 07e3 20       		.byte	32
 2668 07e4 9C       		.byte	-100
 2669 07e5 84       		.byte	-124
 2670 07e6 9D       		.byte	-99
 2671 07e7 0C       		.byte	12
 2672 07e8 9E       		.byte	-98
 2673 07e9 0A       		.byte	10
 2674 07ea 9F       		.byte	-97
 2675 07eb 42       		.byte	66
 2676 07ec A0       		.byte	-96
 2677 07ed 42       		.byte	66
 2678 07ee A5       		.byte	-91
 2679 07ef 01       		.byte	1
 2680 07f0 A7       		.byte	-89
 2681 07f1 20       		.byte	32
 2682 07f2 AB       		.byte	-85
 2683 07f3 10       		.byte	16
 2684 07f4 AC       		.byte	-84
 2685 07f5 01       		.byte	1
 2686 07f6 AF       		.byte	-81
 2687 07f7 01       		.byte	1
 2688 07f8 B0       		.byte	-80
 2689 07f9 40       		.byte	64
 2690 07fa B4       		.byte	-76
 2691 07fb 06       		.byte	6
 2692 07fc B7       		.byte	-73
 2693 07fd 08       		.byte	8
 2694 07fe C0       		.byte	-64
 2695 07ff DF       		.byte	-33
 2696 0800 C2       		.byte	-62
 2697 0801 6F       		.byte	111
 2698 0802 C4       		.byte	-60
 2699 0803 DF       		.byte	-33
 2700 0804 CA       		.byte	-54
 2701 0805 60       		.byte	96
 2702 0806 CC       		.byte	-52
 2703 0807 50       		.byte	80
 2704 0808 CE       		.byte	-50
 2705 0809 02       		.byte	2
 2706 080a D0       		.byte	-48
 2707 080b 05       		.byte	5
 2708 080c D6       		.byte	-42
 2709 080d 0C       		.byte	12
 2710 080e DE       		.byte	-34
ARM GAS  C:\Users\xavieran\AppData\Local\Temp\ccwd941Y.s 			page 84


 2711 080f 08       		.byte	8
 2712 0810 E2       		.byte	-30
 2713 0811 94       		.byte	-108
 2714 0812 EA       		.byte	-22
 2715 0813 02       		.byte	2
 2716 0814 EE       		.byte	-18
 2717 0815 68       		.byte	104
 2718 0816 03       		.byte	3
 2719 0817 01       		.byte	1
 2720 0818 05       		.byte	5
 2721 0819 0E       		.byte	14
 2722 081a 06       		.byte	6
 2723 081b 20       		.byte	32
 2724 081c 07       		.byte	7
 2725 081d 30       		.byte	48
 2726 081e 0D       		.byte	13
 2727 081f 46       		.byte	70
 2728 0820 0E       		.byte	14
 2729 0821 18       		.byte	24
 2730 0822 0F       		.byte	15
 2731 0823 A9       		.byte	-87
 2732 0824 10       		.byte	16
 2733 0825 0F       		.byte	15
 2734 0826 11       		.byte	17
 2735 0827 2A       		.byte	42
 2736 0828 13       		.byte	19
 2737 0829 54       		.byte	84
 2738 082a 14       		.byte	20
 2739 082b 10       		.byte	16
 2740 082c 15       		.byte	21
 2741 082d FF       		.byte	-1
 2742 082e 16       		.byte	22
 2743 082f 01       		.byte	1
 2744 0830 18       		.byte	24
 2745 0831 04       		.byte	4
 2746 0832 1A       		.byte	26
 2747 0833 08       		.byte	8
 2748 0834 1D       		.byte	29
 2749 0835 33       		.byte	51
 2750 0836 1F       		.byte	31
 2751 0837 0C       		.byte	12
 2752 0838 21       		.byte	33
 2753 0839 40       		.byte	64
 2754 083a 22       		.byte	34
 2755 083b 14       		.byte	20
 2756 083c 23       		.byte	35
 2757 083d 13       		.byte	19
 2758 083e 25       		.byte	37
 2759 083f 80       		.byte	-128
 2760 0840 26       		.byte	38
 2761 0841 08       		.byte	8
 2762 0842 27       		.byte	39
 2763 0843 56       		.byte	86
 2764 0844 28       		.byte	40
 2765 0845 3F       		.byte	63
 2766 0846 2C       		.byte	44
 2767 0847 10       		.byte	16
ARM GAS  C:\Users\xavieran\AppData\Local\Temp\ccwd941Y.s 			page 85


 2768 0848 2E       		.byte	46
 2769 0849 02       		.byte	2
 2770 084a 31       		.byte	49
 2771 084b FF       		.byte	-1
 2772 084c 34       		.byte	52
 2773 084d 3F       		.byte	63
 2774 084e 38       		.byte	56
 2775 084f 20       		.byte	32
 2776 0850 42       		.byte	66
 2777 0851 01       		.byte	1
 2778 0852 47       		.byte	71
 2779 0853 E0       		.byte	-32
 2780 0854 48       		.byte	72
 2781 0855 20       		.byte	32
 2782 0856 49       		.byte	73
 2783 0857 FF       		.byte	-1
 2784 0858 4A       		.byte	74
 2785 0859 FF       		.byte	-1
 2786 085a 4B       		.byte	75
 2787 085b FF       		.byte	-1
 2788 085c 4F       		.byte	79
 2789 085d 83       		.byte	-125
 2790 085e 58       		.byte	88
 2791 085f 04       		.byte	4
 2792 0860 59       		.byte	89
 2793 0861 04       		.byte	4
 2794 0862 5A       		.byte	90
 2795 0863 04       		.byte	4
 2796 0864 5B       		.byte	91
 2797 0865 04       		.byte	4
 2798 0866 5C       		.byte	92
 2799 0867 22       		.byte	34
 2800 0868 5D       		.byte	93
 2801 0869 08       		.byte	8
 2802 086a 5F       		.byte	95
 2803 086b 31       		.byte	49
 2804 086c 81       		.byte	-127
 2805 086d 01       		.byte	1
 2806 086e 83       		.byte	-125
 2807 086f 02       		.byte	2
 2808 0870 85       		.byte	-123
 2809 0871 06       		.byte	6
 2810 0872 8D       		.byte	-115
 2811 0873 01       		.byte	1
 2812 0874 8F       		.byte	-113
 2813 0875 02       		.byte	2
 2814 0876 93       		.byte	-109
 2815 0877 02       		.byte	2
 2816 0878 95       		.byte	-107
 2817 0879 08       		.byte	8
 2818 087a 97       		.byte	-105
 2819 087b 05       		.byte	5
 2820 087c 9D       		.byte	-99
 2821 087d 01       		.byte	1
 2822 087e 9F       		.byte	-97
 2823 087f 04       		.byte	4
 2824 0880 A7       		.byte	-89
ARM GAS  C:\Users\xavieran\AppData\Local\Temp\ccwd941Y.s 			page 86


 2825 0881 10       		.byte	16
 2826 0882 A9       		.byte	-87
 2827 0883 0F       		.byte	15
 2828 0884 AD       		.byte	-83
 2829 0885 05       		.byte	5
 2830 0886 AF       		.byte	-81
 2831 0887 0A       		.byte	10
 2832 0888 B5       		.byte	-75
 2833 0889 1F       		.byte	31
 2834 088a D9       		.byte	-39
 2835 088b 04       		.byte	4
 2836 088c DC       		.byte	-36
 2837 088d 20       		.byte	32
 2838 088e DF       		.byte	-33
 2839 088f 01       		.byte	1
 2840 0890 00       		.byte	0
 2841 0891 80       		.byte	-128
 2842 0892 01       		.byte	1
 2843 0893 08       		.byte	8
 2844 0894 0B       		.byte	11
 2845 0895 A8       		.byte	-88
 2846 0896 10       		.byte	16
 2847 0897 04       		.byte	4
 2848 0898 13       		.byte	19
 2849 0899 8A       		.byte	-118
 2850 089a 19       		.byte	25
 2851 089b 20       		.byte	32
 2852 089c 20       		.byte	32
 2853 089d C0       		.byte	-64
 2854 089e 27       		.byte	39
 2855 089f 08       		.byte	8
 2856 08a0 29       		.byte	41
 2857 08a1 05       		.byte	5
 2858 08a2 2C       		.byte	44
 2859 08a3 06       		.byte	6
 2860 08a4 2F       		.byte	47
 2861 08a5 20       		.byte	32
 2862 08a6 30       		.byte	48
 2863 08a7 06       		.byte	6
 2864 08a8 33       		.byte	51
 2865 08a9 40       		.byte	64
 2866 08aa 35       		.byte	53
 2867 08ab 05       		.byte	5
 2868 08ac 37       		.byte	55
 2869 08ad C2       		.byte	-62
 2870 08ae 38       		.byte	56
 2871 08af 40       		.byte	64
 2872 08b0 39       		.byte	57
 2873 08b1 01       		.byte	1
 2874 08b2 3A       		.byte	58
 2875 08b3 08       		.byte	8
 2876 08b4 3C       		.byte	60
 2877 08b5 80       		.byte	-128
 2878 08b6 3D       		.byte	61
 2879 08b7 03       		.byte	3
 2880 08b8 3E       		.byte	62
 2881 08b9 08       		.byte	8
ARM GAS  C:\Users\xavieran\AppData\Local\Temp\ccwd941Y.s 			page 87


 2882 08ba 42       		.byte	66
 2883 08bb 02       		.byte	2
 2884 08bc 52       		.byte	82
 2885 08bd 01       		.byte	1
 2886 08be 58       		.byte	88
 2887 08bf 40       		.byte	64
 2888 08c0 5B       		.byte	91
 2889 08c1 15       		.byte	21
 2890 08c2 60       		.byte	96
 2891 08c3 88       		.byte	-120
 2892 08c4 62       		.byte	98
 2893 08c5 04       		.byte	4
 2894 08c6 63       		.byte	99
 2895 08c7 02       		.byte	2
 2896 08c8 78       		.byte	120
 2897 08c9 01       		.byte	1
 2898 08ca 82       		.byte	-126
 2899 08cb 05       		.byte	5
 2900 08cc 87       		.byte	-121
 2901 08cd 01       		.byte	1
 2902 08ce 88       		.byte	-120
 2903 08cf 40       		.byte	64
 2904 08d0 8C       		.byte	-116
 2905 08d1 08       		.byte	8
 2906 08d2 8F       		.byte	-113
 2907 08d3 04       		.byte	4
 2908 08d4 C0       		.byte	-64
 2909 08d5 05       		.byte	5
 2910 08d6 C2       		.byte	-62
 2911 08d7 0E       		.byte	14
 2912 08d8 C4       		.byte	-60
 2913 08d9 0F       		.byte	15
 2914 08da CA       		.byte	-54
 2915 08db 73       		.byte	115
 2916 08dc CC       		.byte	-52
 2917 08dd DB       		.byte	-37
 2918 08de CE       		.byte	-50
 2919 08df DB       		.byte	-37
 2920 08e0 D0       		.byte	-48
 2921 08e1 08       		.byte	8
 2922 08e2 D6       		.byte	-42
 2923 08e3 0F       		.byte	15
 2924 08e4 D8       		.byte	-40
 2925 08e5 0F       		.byte	15
 2926 08e6 DE       		.byte	-34
 2927 08e7 01       		.byte	1
 2928 08e8 E0       		.byte	-32
 2929 08e9 80       		.byte	-128
 2930 08ea E2       		.byte	-30
 2931 08eb 01       		.byte	1
 2932 08ec E4       		.byte	-28
 2933 08ed 10       		.byte	16
 2934 08ee E6       		.byte	-26
 2935 08ef 80       		.byte	-128
 2936 08f0 05       		.byte	5
 2937 08f1 01       		.byte	1
 2938 08f2 17       		.byte	23
ARM GAS  C:\Users\xavieran\AppData\Local\Temp\ccwd941Y.s 			page 88


 2939 08f3 01       		.byte	1
 2940 08f4 1A       		.byte	26
 2941 08f5 01       		.byte	1
 2942 08f6 2E       		.byte	46
 2943 08f7 01       		.byte	1
 2944 08f8 30       		.byte	48
 2945 08f9 01       		.byte	1
 2946 08fa 33       		.byte	51
 2947 08fb 01       		.byte	1
 2948 08fc 40       		.byte	64
 2949 08fd 30       		.byte	48
 2950 08fe 41       		.byte	65
 2951 08ff 02       		.byte	2
 2952 0900 49       		.byte	73
 2953 0901 FF       		.byte	-1
 2954 0902 4A       		.byte	74
 2955 0903 FF       		.byte	-1
 2956 0904 4B       		.byte	75
 2957 0905 FF       		.byte	-1
 2958 0906 4D       		.byte	77
 2959 0907 A0       		.byte	-96
 2960 0908 4F       		.byte	79
 2961 0909 04       		.byte	4
 2962 090a 50       		.byte	80
 2963 090b 18       		.byte	24
 2964 090c 58       		.byte	88
 2965 090d 04       		.byte	4
 2966 090e 59       		.byte	89
 2967 090f 04       		.byte	4
 2968 0910 5A       		.byte	90
 2969 0911 04       		.byte	4
 2970 0912 5C       		.byte	92
 2971 0913 33       		.byte	51
 2972 0914 5D       		.byte	93
 2973 0915 03       		.byte	3
 2974 0916 5F       		.byte	95
 2975 0917 01       		.byte	1
 2976 0918 60       		.byte	96
 2977 0919 40       		.byte	64
 2978 091a 62       		.byte	98
 2979 091b C0       		.byte	-64
 2980 091c 64       		.byte	100
 2981 091d 40       		.byte	64
 2982 091e 65       		.byte	101
 2983 091f 40       		.byte	64
 2984 0920 66       		.byte	102
 2985 0921 C0       		.byte	-64
 2986 0922 68       		.byte	104
 2987 0923 C0       		.byte	-64
 2988 0924 6A       		.byte	106
 2989 0925 C0       		.byte	-64
 2990 0926 6C       		.byte	108
 2991 0927 C0       		.byte	-64
 2992 0928 6E       		.byte	110
 2993 0929 C0       		.byte	-64
 2994 092a 84       		.byte	-124
 2995 092b 01       		.byte	1
ARM GAS  C:\Users\xavieran\AppData\Local\Temp\ccwd941Y.s 			page 89


 2996 092c 85       		.byte	-123
 2997 092d 01       		.byte	1
 2998 092e 8A       		.byte	-118
 2999 092f 02       		.byte	2
 3000 0930 92       		.byte	-110
 3001 0931 01       		.byte	1
 3002 0932 9F       		.byte	-97
 3003 0933 04       		.byte	4
 3004 0934 A1       		.byte	-95
 3005 0935 01       		.byte	1
 3006 0936 A6       		.byte	-90
 3007 0937 02       		.byte	2
 3008 0938 A8       		.byte	-88
 3009 0939 04       		.byte	4
 3010 093a AF       		.byte	-81
 3011 093b 02       		.byte	2
 3012 093c B2       		.byte	-78
 3013 093d 01       		.byte	1
 3014 093e B3       		.byte	-77
 3015 093f 02       		.byte	2
 3016 0940 B4       		.byte	-76
 3017 0941 02       		.byte	2
 3018 0942 B5       		.byte	-75
 3019 0943 04       		.byte	4
 3020 0944 B6       		.byte	-74
 3021 0945 04       		.byte	4
 3022 0946 B7       		.byte	-73
 3023 0947 01       		.byte	1
 3024 0948 BE       		.byte	-66
 3025 0949 10       		.byte	16
 3026 094a C0       		.byte	-64
 3027 094b 20       		.byte	32
 3028 094c C1       		.byte	-63
 3029 094d 03       		.byte	3
 3030 094e C5       		.byte	-59
 3031 094f D0       		.byte	-48
 3032 0950 C6       		.byte	-58
 3033 0951 20       		.byte	32
 3034 0952 C7       		.byte	-57
 3035 0953 51       		.byte	81
 3036 0954 C8       		.byte	-56
 3037 0955 3A       		.byte	58
 3038 0956 C9       		.byte	-55
 3039 0957 FF       		.byte	-1
 3040 0958 CA       		.byte	-54
 3041 0959 FF       		.byte	-1
 3042 095a CB       		.byte	-53
 3043 095b FF       		.byte	-1
 3044 095c CD       		.byte	-51
 3045 095d AF       		.byte	-81
 3046 095e CE       		.byte	-50
 3047 095f 0F       		.byte	15
 3048 0960 CF       		.byte	-49
 3049 0961 04       		.byte	4
 3050 0962 D0       		.byte	-48
 3051 0963 18       		.byte	24
 3052 0964 D2       		.byte	-46
ARM GAS  C:\Users\xavieran\AppData\Local\Temp\ccwd941Y.s 			page 90


 3053 0965 80       		.byte	-128
 3054 0966 D4       		.byte	-44
 3055 0967 07       		.byte	7
 3056 0968 D8       		.byte	-40
 3057 0969 04       		.byte	4
 3058 096a D9       		.byte	-39
 3059 096b 04       		.byte	4
 3060 096c DA       		.byte	-38
 3061 096d 04       		.byte	4
 3062 096e DB       		.byte	-37
 3063 096f 04       		.byte	4
 3064 0970 DC       		.byte	-36
 3065 0971 33       		.byte	51
 3066 0972 DD       		.byte	-35
 3067 0973 33       		.byte	51
 3068 0974 DF       		.byte	-33
 3069 0975 01       		.byte	1
 3070 0976 E0       		.byte	-32
 3071 0977 40       		.byte	64
 3072 0978 E2       		.byte	-30
 3073 0979 C0       		.byte	-64
 3074 097a E4       		.byte	-28
 3075 097b 40       		.byte	64
 3076 097c E5       		.byte	-27
 3077 097d 40       		.byte	64
 3078 097e E6       		.byte	-26
 3079 097f C0       		.byte	-64
 3080 0980 E8       		.byte	-24
 3081 0981 C0       		.byte	-64
 3082 0982 EA       		.byte	-22
 3083 0983 C0       		.byte	-64
 3084 0984 EC       		.byte	-20
 3085 0985 C0       		.byte	-64
 3086 0986 EE       		.byte	-18
 3087 0987 C0       		.byte	-64
 3088 0988 07       		.byte	7
 3089 0989 14       		.byte	20
 3090 098a 09       		.byte	9
 3091 098b 10       		.byte	16
 3092 098c 0C       		.byte	12
 3093 098d 02       		.byte	2
 3094 098e 10       		.byte	16
 3095 098f 02       		.byte	2
 3096 0990 16       		.byte	22
 3097 0991 14       		.byte	20
 3098 0992 1A       		.byte	26
 3099 0993 80       		.byte	-128
 3100 0994 1E       		.byte	30
 3101 0995 28       		.byte	40
 3102 0996 1F       		.byte	31
 3103 0997 80       		.byte	-128
 3104 0998 21       		.byte	33
 3105 0999 08       		.byte	8
 3106 099a 25       		.byte	37
 3107 099b 10       		.byte	16
 3108 099c 26       		.byte	38
 3109 099d 40       		.byte	64
ARM GAS  C:\Users\xavieran\AppData\Local\Temp\ccwd941Y.s 			page 91


 3110 099e 27       		.byte	39
 3111 099f 14       		.byte	20
 3112 09a0 2C       		.byte	44
 3113 09a1 02       		.byte	2
 3114 09a2 2F       		.byte	47
 3115 09a3 80       		.byte	-128
 3116 09a4 33       		.byte	51
 3117 09a5 04       		.byte	4
 3118 09a6 37       		.byte	55
 3119 09a7 40       		.byte	64
 3120 09a8 3A       		.byte	58
 3121 09a9 04       		.byte	4
 3122 09aa 3D       		.byte	61
 3123 09ab 08       		.byte	8
 3124 09ac 41       		.byte	65
 3125 09ad 20       		.byte	32
 3126 09ae 43       		.byte	67
 3127 09af 04       		.byte	4
 3128 09b0 45       		.byte	69
 3129 09b1 10       		.byte	16
 3130 09b2 46       		.byte	70
 3131 09b3 10       		.byte	16
 3132 09b4 4D       		.byte	77
 3133 09b5 01       		.byte	1
 3134 09b6 54       		.byte	84
 3135 09b7 02       		.byte	2
 3136 09b8 55       		.byte	85
 3137 09b9 24       		.byte	36
 3138 09ba 56       		.byte	86
 3139 09bb 14       		.byte	20
 3140 09bc 5D       		.byte	93
 3141 09bd 01       		.byte	1
 3142 09be 5E       		.byte	94
 3143 09bf A8       		.byte	-88
 3144 09c0 77       		.byte	119
 3145 09c1 40       		.byte	64
 3146 09c2 82       		.byte	-126
 3147 09c3 40       		.byte	64
 3148 09c4 89       		.byte	-119
 3149 09c5 08       		.byte	8
 3150 09c6 A5       		.byte	-91
 3151 09c7 08       		.byte	8
 3152 09c8 B3       		.byte	-77
 3153 09c9 5C       		.byte	92
 3154 09ca C0       		.byte	-64
 3155 09cb 60       		.byte	96
 3156 09cc C2       		.byte	-62
 3157 09cd 12       		.byte	18
 3158 09ce C4       		.byte	-60
 3159 09cf 61       		.byte	97
 3160 09d0 CA       		.byte	-54
 3161 09d1 90       		.byte	-112
 3162 09d2 CC       		.byte	-52
 3163 09d3 12       		.byte	18
 3164 09d4 CE       		.byte	-50
 3165 09d5 42       		.byte	66
 3166 09d6 D0       		.byte	-48
ARM GAS  C:\Users\xavieran\AppData\Local\Temp\ccwd941Y.s 			page 92


 3167 09d7 66       		.byte	102
 3168 09d8 D6       		.byte	-42
 3169 09d9 F0       		.byte	-16
 3170 09da E6       		.byte	-26
 3171 09db 20       		.byte	32
 3172 09dc EA       		.byte	-22
 3173 09dd 01       		.byte	1
 3174 09de EE       		.byte	-18
 3175 09df 08       		.byte	8
 3176 09e0 40       		.byte	64
 3177 09e1 45       		.byte	69
 3178 09e2 41       		.byte	65
 3179 09e3 03       		.byte	3
 3180 09e4 49       		.byte	73
 3181 09e5 FF       		.byte	-1
 3182 09e6 4A       		.byte	74
 3183 09e7 FF       		.byte	-1
 3184 09e8 4B       		.byte	75
 3185 09e9 FF       		.byte	-1
 3186 09ea 4F       		.byte	79
 3187 09eb 01       		.byte	1
 3188 09ec 50       		.byte	80
 3189 09ed 18       		.byte	24
 3190 09ee 56       		.byte	86
 3191 09ef 08       		.byte	8
 3192 09f0 5A       		.byte	90
 3193 09f1 04       		.byte	4
 3194 09f2 5B       		.byte	91
 3195 09f3 04       		.byte	4
 3196 09f4 5D       		.byte	93
 3197 09f5 93       		.byte	-109
 3198 09f6 5F       		.byte	95
 3199 09f7 01       		.byte	1
 3200 09f8 60       		.byte	96
 3201 09f9 40       		.byte	64
 3202 09fa 62       		.byte	98
 3203 09fb 40       		.byte	64
 3204 09fc 64       		.byte	100
 3205 09fd 40       		.byte	64
 3206 09fe 65       		.byte	101
 3207 09ff 40       		.byte	64
 3208 0a00 66       		.byte	102
 3209 0a01 80       		.byte	-128
 3210 0a02 68       		.byte	104
 3211 0a03 80       		.byte	-128
 3212 0a04 6A       		.byte	106
 3213 0a05 80       		.byte	-128
 3214 0a06 6C       		.byte	108
 3215 0a07 80       		.byte	-128
 3216 0a08 6E       		.byte	110
 3217 0a09 80       		.byte	-128
 3218 0a0a 00       		.byte	0
 3219 0a0b 04       		.byte	4
 3220 0a0c 02       		.byte	2
 3221 0a0d 02       		.byte	2
 3222 0a0e 03       		.byte	3
 3223 0a0f 80       		.byte	-128
ARM GAS  C:\Users\xavieran\AppData\Local\Temp\ccwd941Y.s 			page 93


 3224 0a10 08       		.byte	8
 3225 0a11 02       		.byte	2
 3226 0a12 0A       		.byte	10
 3227 0a13 28       		.byte	40
 3228 0a14 0B       		.byte	11
 3229 0a15 02       		.byte	2
 3230 0a16 11       		.byte	17
 3231 0a17 10       		.byte	16
 3232 0a18 12       		.byte	18
 3233 0a19 20       		.byte	32
 3234 0a1a 1A       		.byte	26
 3235 0a1b 60       		.byte	96
 3236 0a1c 1B       		.byte	27
 3237 0a1d 88       		.byte	-120
 3238 0a1e 21       		.byte	33
 3239 0a1f 40       		.byte	64
 3240 0a20 23       		.byte	35
 3241 0a21 04       		.byte	4
 3242 0a22 28       		.byte	40
 3243 0a23 41       		.byte	65
 3244 0a24 29       		.byte	41
 3245 0a25 20       		.byte	32
 3246 0a26 2A       		.byte	42
 3247 0a27 04       		.byte	4
 3248 0a28 32       		.byte	50
 3249 0a29 16       		.byte	22
 3250 0a2a 33       		.byte	51
 3251 0a2b 80       		.byte	-128
 3252 0a2c 39       		.byte	57
 3253 0a2d 80       		.byte	-128
 3254 0a2e 3A       		.byte	58
 3255 0a2f 01       		.byte	1
 3256 0a30 3B       		.byte	59
 3257 0a31 14       		.byte	20
 3258 0a32 40       		.byte	64
 3259 0a33 02       		.byte	2
 3260 0a34 41       		.byte	65
 3261 0a35 0C       		.byte	12
 3262 0a36 45       		.byte	69
 3263 0a37 08       		.byte	8
 3264 0a38 46       		.byte	70
 3265 0a39 80       		.byte	-128
 3266 0a3a 48       		.byte	72
 3267 0a3b 02       		.byte	2
 3268 0a3c 49       		.byte	73
 3269 0a3d 0A       		.byte	10
 3270 0a3e 4C       		.byte	76
 3271 0a3f 02       		.byte	2
 3272 0a40 50       		.byte	80
 3273 0a41 02       		.byte	2
 3274 0a42 53       		.byte	83
 3275 0a43 01       		.byte	1
 3276 0a44 59       		.byte	89
 3277 0a45 0A       		.byte	10
 3278 0a46 5A       		.byte	90
 3279 0a47 40       		.byte	64
 3280 0a48 5F       		.byte	95
ARM GAS  C:\Users\xavieran\AppData\Local\Temp\ccwd941Y.s 			page 94


 3281 0a49 80       		.byte	-128
 3282 0a4a 64       		.byte	100
 3283 0a4b 02       		.byte	2
 3284 0a4c 66       		.byte	102
 3285 0a4d 80       		.byte	-128
 3286 0a4e 79       		.byte	121
 3287 0a4f 08       		.byte	8
 3288 0a50 87       		.byte	-121
 3289 0a51 80       		.byte	-128
 3290 0a52 90       		.byte	-112
 3291 0a53 04       		.byte	4
 3292 0a54 91       		.byte	-111
 3293 0a55 10       		.byte	16
 3294 0a56 92       		.byte	-110
 3295 0a57 08       		.byte	8
 3296 0a58 96       		.byte	-106
 3297 0a59 20       		.byte	32
 3298 0a5a 97       		.byte	-105
 3299 0a5b 40       		.byte	64
 3300 0a5c 98       		.byte	-104
 3301 0a5d 41       		.byte	65
 3302 0a5e 99       		.byte	-103
 3303 0a5f 20       		.byte	32
 3304 0a60 9A       		.byte	-102
 3305 0a61 05       		.byte	5
 3306 0a62 A2       		.byte	-94
 3307 0a63 22       		.byte	34
 3308 0a64 A7       		.byte	-89
 3309 0a65 80       		.byte	-128
 3310 0a66 A8       		.byte	-88
 3311 0a67 02       		.byte	2
 3312 0a68 C0       		.byte	-64
 3313 0a69 0D       		.byte	13
 3314 0a6a C2       		.byte	-62
 3315 0a6b 0F       		.byte	15
 3316 0a6c C4       		.byte	-60
 3317 0a6d 06       		.byte	6
 3318 0a6e CA       		.byte	-54
 3319 0a6f 0F       		.byte	15
 3320 0a70 CC       		.byte	-52
 3321 0a71 0F       		.byte	15
 3322 0a72 CE       		.byte	-50
 3323 0a73 0F       		.byte	15
 3324 0a74 D0       		.byte	-48
 3325 0a75 CA       		.byte	-54
 3326 0a76 D2       		.byte	-46
 3327 0a77 18       		.byte	24
 3328 0a78 D6       		.byte	-42
 3329 0a79 1B       		.byte	27
 3330 0a7a D8       		.byte	-40
 3331 0a7b 10       		.byte	16
 3332 0a7c DE       		.byte	-34
 3333 0a7d 02       		.byte	2
 3334 0a7e E2       		.byte	-30
 3335 0a7f 08       		.byte	8
 3336 0a80 E4       		.byte	-28
 3337 0a81 82       		.byte	-126
ARM GAS  C:\Users\xavieran\AppData\Local\Temp\ccwd941Y.s 			page 95


 3338 0a82 EA       		.byte	-22
 3339 0a83 02       		.byte	2
 3340 0a84 EE       		.byte	-18
 3341 0a85 05       		.byte	5
 3342 0a86 38       		.byte	56
 3343 0a87 A0       		.byte	-96
 3344 0a88 3E       		.byte	62
 3345 0a89 50       		.byte	80
 3346 0a8a 58       		.byte	88
 3347 0a8b 04       		.byte	4
 3348 0a8c 5F       		.byte	95
 3349 0a8d 01       		.byte	1
 3350 0a8e 1F       		.byte	31
 3351 0a8f 60       		.byte	96
 3352 0a90 87       		.byte	-121
 3353 0a91 40       		.byte	64
 3354 0a92 88       		.byte	-120
 3355 0a93 20       		.byte	32
 3356 0a94 89       		.byte	-119
 3357 0a95 10       		.byte	16
 3358 0a96 8F       		.byte	-113
 3359 0a97 04       		.byte	4
 3360 0a98 91       		.byte	-111
 3361 0a99 10       		.byte	16
 3362 0a9a 9C       		.byte	-100
 3363 0a9b 80       		.byte	-128
 3364 0a9c 9F       		.byte	-97
 3365 0a9d 06       		.byte	6
 3366 0a9e A0       		.byte	-96
 3367 0a9f 02       		.byte	2
 3368 0aa0 A4       		.byte	-92
 3369 0aa1 20       		.byte	32
 3370 0aa2 AA       		.byte	-86
 3371 0aa3 10       		.byte	16
 3372 0aa4 AB       		.byte	-85
 3373 0aa5 10       		.byte	16
 3374 0aa6 B5       		.byte	-75
 3375 0aa7 10       		.byte	16
 3376 0aa8 E4       		.byte	-28
 3377 0aa9 82       		.byte	-126
 3378 0aaa EA       		.byte	-22
 3379 0aab 02       		.byte	2
 3380 0aac 88       		.byte	-120
 3381 0aad 80       		.byte	-128
 3382 0aae 9C       		.byte	-100
 3383 0aaf 80       		.byte	-128
 3384 0ab0 AF       		.byte	-81
 3385 0ab1 20       		.byte	32
 3386 0ab2 B0       		.byte	-80
 3387 0ab3 02       		.byte	2
 3388 0ab4 B3       		.byte	-77
 3389 0ab5 02       		.byte	2
 3390 0ab6 E8       		.byte	-24
 3391 0ab7 20       		.byte	32
 3392 0ab8 EA       		.byte	-22
 3393 0ab9 01       		.byte	1
 3394 0aba EC       		.byte	-20
ARM GAS  C:\Users\xavieran\AppData\Local\Temp\ccwd941Y.s 			page 96


 3395 0abb 20       		.byte	32
 3396 0abc EE       		.byte	-18
 3397 0abd 80       		.byte	-128
 3398 0abe 0A       		.byte	10
 3399 0abf 14       		.byte	20
 3400 0ac0 0E       		.byte	14
 3401 0ac1 40       		.byte	64
 3402 0ac2 0F       		.byte	15
 3403 0ac3 02       		.byte	2
 3404 0ac4 32       		.byte	50
 3405 0ac5 04       		.byte	4
 3406 0ac6 33       		.byte	51
 3407 0ac7 80       		.byte	-128
 3408 0ac8 36       		.byte	54
 3409 0ac9 08       		.byte	8
 3410 0aca 37       		.byte	55
 3411 0acb 40       		.byte	64
 3412 0acc 3F       		.byte	63
 3413 0acd 80       		.byte	-128
 3414 0ace 55       		.byte	85
 3415 0acf 10       		.byte	16
 3416 0ad0 58       		.byte	88
 3417 0ad1 10       		.byte	16
 3418 0ad2 83       		.byte	-125
 3419 0ad3 40       		.byte	64
 3420 0ad4 86       		.byte	-122
 3421 0ad5 04       		.byte	4
 3422 0ad6 8A       		.byte	-118
 3423 0ad7 08       		.byte	8
 3424 0ad8 8B       		.byte	-117
 3425 0ad9 01       		.byte	1
 3426 0ada 8E       		.byte	-114
 3427 0adb 10       		.byte	16
 3428 0adc C2       		.byte	-62
 3429 0add F0       		.byte	-16
 3430 0ade CC       		.byte	-52
 3431 0adf F0       		.byte	-16
 3432 0ae0 CE       		.byte	-50
 3433 0ae1 20       		.byte	32
 3434 0ae2 D4       		.byte	-44
 3435 0ae3 C0       		.byte	-64
 3436 0ae4 E0       		.byte	-32
 3437 0ae5 40       		.byte	64
 3438 0ae6 E2       		.byte	-30
 3439 0ae7 20       		.byte	32
 3440 0ae8 33       		.byte	51
 3441 0ae9 11       		.byte	17
 3442 0aea 36       		.byte	54
 3443 0aeb 01       		.byte	1
 3444 0aec 37       		.byte	55
 3445 0aed 20       		.byte	32
 3446 0aee 59       		.byte	89
 3447 0aef 01       		.byte	1
 3448 0af0 5C       		.byte	92
 3449 0af1 01       		.byte	1
 3450 0af2 62       		.byte	98
 3451 0af3 04       		.byte	4
ARM GAS  C:\Users\xavieran\AppData\Local\Temp\ccwd941Y.s 			page 97


 3452 0af4 66       		.byte	102
 3453 0af5 01       		.byte	1
 3454 0af6 84       		.byte	-124
 3455 0af7 10       		.byte	16
 3456 0af8 87       		.byte	-121
 3457 0af9 10       		.byte	16
 3458 0afa 8C       		.byte	-116
 3459 0afb 10       		.byte	16
 3460 0afc 8D       		.byte	-115
 3461 0afd 10       		.byte	16
 3462 0afe 96       		.byte	-106
 3463 0aff 08       		.byte	8
 3464 0b00 9C       		.byte	-100
 3465 0b01 10       		.byte	16
 3466 0b02 9F       		.byte	-97
 3467 0b03 40       		.byte	64
 3468 0b04 A5       		.byte	-91
 3469 0b05 10       		.byte	16
 3470 0b06 A7       		.byte	-89
 3471 0b07 80       		.byte	-128
 3472 0b08 AA       		.byte	-86
 3473 0b09 40       		.byte	64
 3474 0b0a CC       		.byte	-52
 3475 0b0b F0       		.byte	-16
 3476 0b0c D6       		.byte	-42
 3477 0b0d C0       		.byte	-64
 3478 0b0e D8       		.byte	-40
 3479 0b0f C0       		.byte	-64
 3480 0b10 E2       		.byte	-30
 3481 0b11 10       		.byte	16
 3482 0b12 E6       		.byte	-26
 3483 0b13 40       		.byte	64
 3484 0b14 E8       		.byte	-24
 3485 0b15 20       		.byte	32
 3486 0b16 10       		.byte	16
 3487 0b17 40       		.byte	64
 3488 0b18 3E       		.byte	62
 3489 0b19 10       		.byte	16
 3490 0b1a 50       		.byte	80
 3491 0b1b 10       		.byte	16
 3492 0b1c 8A       		.byte	-118
 3493 0b1d 04       		.byte	4
 3494 0b1e 90       		.byte	-112
 3495 0b1f 20       		.byte	32
 3496 0b20 93       		.byte	-109
 3497 0b21 10       		.byte	16
 3498 0b22 96       		.byte	-106
 3499 0b23 08       		.byte	8
 3500 0b24 9C       		.byte	-100
 3501 0b25 40       		.byte	64
 3502 0b26 9D       		.byte	-99
 3503 0b27 01       		.byte	1
 3504 0b28 9F       		.byte	-97
 3505 0b29 70       		.byte	112
 3506 0b2a A7       		.byte	-89
 3507 0b2b 80       		.byte	-128
 3508 0b2c AA       		.byte	-86
ARM GAS  C:\Users\xavieran\AppData\Local\Temp\ccwd941Y.s 			page 98


 3509 0b2d 05       		.byte	5
 3510 0b2e AF       		.byte	-81
 3511 0b2f 01       		.byte	1
 3512 0b30 B0       		.byte	-80
 3513 0b31 40       		.byte	64
 3514 0b32 B4       		.byte	-76
 3515 0b33 01       		.byte	1
 3516 0b34 B6       		.byte	-74
 3517 0b35 01       		.byte	1
 3518 0b36 C4       		.byte	-60
 3519 0b37 10       		.byte	16
 3520 0b38 CE       		.byte	-50
 3521 0b39 20       		.byte	32
 3522 0b3a D4       		.byte	-44
 3523 0b3b 20       		.byte	32
 3524 0b3c EA       		.byte	-22
 3525 0b3d E0       		.byte	-32
 3526 0b3e 18       		.byte	24
 3527 0b3f 40       		.byte	64
 3528 0b40 19       		.byte	25
 3529 0b41 40       		.byte	64
 3530 0b42 1C       		.byte	28
 3531 0b43 08       		.byte	8
 3532 0b44 1D       		.byte	29
 3533 0b45 01       		.byte	1
 3534 0b46 80       		.byte	-128
 3535 0b47 40       		.byte	64
 3536 0b48 83       		.byte	-125
 3537 0b49 10       		.byte	16
 3538 0b4a 89       		.byte	-119
 3539 0b4b 40       		.byte	64
 3540 0b4c 93       		.byte	-109
 3541 0b4d 10       		.byte	16
 3542 0b4e 96       		.byte	-106
 3543 0b4f 10       		.byte	16
 3544 0b50 9D       		.byte	-99
 3545 0b51 01       		.byte	1
 3546 0b52 9F       		.byte	-97
 3547 0b53 70       		.byte	112
 3548 0b54 A7       		.byte	-89
 3549 0b55 80       		.byte	-128
 3550 0b56 C6       		.byte	-58
 3551 0b57 F0       		.byte	-16
 3552 0b58 E2       		.byte	-30
 3553 0b59 20       		.byte	32
 3554 0b5a E4       		.byte	-28
 3555 0b5b 20       		.byte	32
 3556 0b5c 00       		.byte	0
 3557 0b5d 02       		.byte	2
 3558 0b5e 01       		.byte	1
 3559 0b5f 40       		.byte	64
 3560 0b60 06       		.byte	6
 3561 0b61 80       		.byte	-128
 3562 0b62 07       		.byte	7
 3563 0b63 04       		.byte	4
 3564 0b64 08       		.byte	8
 3565 0b65 02       		.byte	2
ARM GAS  C:\Users\xavieran\AppData\Local\Temp\ccwd941Y.s 			page 99


 3566 0b66 5D       		.byte	93
 3567 0b67 08       		.byte	8
 3568 0b68 83       		.byte	-125
 3569 0b69 04       		.byte	4
 3570 0b6a 8B       		.byte	-117
 3571 0b6b 40       		.byte	64
 3572 0b6c 8D       		.byte	-115
 3573 0b6d 40       		.byte	64
 3574 0b6e C0       		.byte	-64
 3575 0b6f 0F       		.byte	15
 3576 0b70 C2       		.byte	-62
 3577 0b71 08       		.byte	8
 3578 0b72 D6       		.byte	-42
 3579 0b73 01       		.byte	1
 3580 0b74 E2       		.byte	-30
 3581 0b75 02       		.byte	2
 3582 0b76 E6       		.byte	-26
 3583 0b77 01       		.byte	1
 3584 0b78 03       		.byte	3
 3585 0b79 20       		.byte	32
 3586 0b7a 08       		.byte	8
 3587 0b7b 01       		.byte	1
 3588 0b7c 09       		.byte	9
 3589 0b7d 04       		.byte	4
 3590 0b7e 0F       		.byte	15
 3591 0b7f 80       		.byte	-128
 3592 0b80 5B       		.byte	91
 3593 0b81 04       		.byte	4
 3594 0b82 62       		.byte	98
 3595 0b83 10       		.byte	16
 3596 0b84 7A       		.byte	122
 3597 0b85 20       		.byte	32
 3598 0b86 7B       		.byte	123
 3599 0b87 40       		.byte	64
 3600 0b88 83       		.byte	-125
 3601 0b89 40       		.byte	64
 3602 0b8a 97       		.byte	-105
 3603 0b8b 80       		.byte	-128
 3604 0b8c 9D       		.byte	-99
 3605 0b8d 08       		.byte	8
 3606 0b8e AC       		.byte	-84
 3607 0b8f 01       		.byte	1
 3608 0b90 AE       		.byte	-82
 3609 0b91 80       		.byte	-128
 3610 0b92 B4       		.byte	-76
 3611 0b93 02       		.byte	2
 3612 0b94 C0       		.byte	-64
 3613 0b95 08       		.byte	8
 3614 0b96 C2       		.byte	-62
 3615 0b97 0C       		.byte	12
 3616 0b98 D6       		.byte	-42
 3617 0b99 02       		.byte	2
 3618 0b9a D8       		.byte	-40
 3619 0b9b 02       		.byte	2
 3620 0b9c EA       		.byte	-22
 3621 0b9d 08       		.byte	8
 3622 0b9e 05       		.byte	5
ARM GAS  C:\Users\xavieran\AppData\Local\Temp\ccwd941Y.s 			page 100


 3623 0b9f 04       		.byte	4
 3624 0ba0 97       		.byte	-105
 3625 0ba1 80       		.byte	-128
 3626 0ba2 98       		.byte	-104
 3627 0ba3 01       		.byte	1
 3628 0ba4 9D       		.byte	-99
 3629 0ba5 0C       		.byte	12
 3630 0ba6 9E       		.byte	-98
 3631 0ba7 10       		.byte	16
 3632 0ba8 9F       		.byte	-97
 3633 0ba9 04       		.byte	4
 3634 0baa A2       		.byte	-94
 3635 0bab 20       		.byte	32
 3636 0bac A9       		.byte	-87
 3637 0bad 04       		.byte	4
 3638 0bae AF       		.byte	-81
 3639 0baf 20       		.byte	32
 3640 0bb0 B5       		.byte	-75
 3641 0bb1 04       		.byte	4
 3642 0bb2 C0       		.byte	-64
 3643 0bb3 04       		.byte	4
 3644 0bb4 EE       		.byte	-18
 3645 0bb5 02       		.byte	2
 3646 0bb6 0B       		.byte	11
 3647 0bb7 84       		.byte	-124
 3648 0bb8 0F       		.byte	15
 3649 0bb9 80       		.byte	-128
 3650 0bba 81       		.byte	-127
 3651 0bbb 08       		.byte	8
 3652 0bbc 83       		.byte	-125
 3653 0bbd 40       		.byte	64
 3654 0bbe 89       		.byte	-119
 3655 0bbf 02       		.byte	2
 3656 0bc0 97       		.byte	-105
 3657 0bc1 80       		.byte	-128
 3658 0bc2 98       		.byte	-104
 3659 0bc3 01       		.byte	1
 3660 0bc4 9D       		.byte	-99
 3661 0bc5 08       		.byte	8
 3662 0bc6 9E       		.byte	-98
 3663 0bc7 10       		.byte	16
 3664 0bc8 9F       		.byte	-97
 3665 0bc9 04       		.byte	4
 3666 0bca A2       		.byte	-94
 3667 0bcb 20       		.byte	32
 3668 0bcc C2       		.byte	-62
 3669 0bcd 0E       		.byte	14
 3670 0bce E0       		.byte	-32
 3671 0bcf 01       		.byte	1
 3672 0bd0 25       		.byte	37
 3673 0bd1 20       		.byte	32
 3674 0bd2 5F       		.byte	95
 3675 0bd3 10       		.byte	16
 3676 0bd4 67       		.byte	103
 3677 0bd5 80       		.byte	-128
 3678 0bd6 6B       		.byte	107
 3679 0bd7 08       		.byte	8
ARM GAS  C:\Users\xavieran\AppData\Local\Temp\ccwd941Y.s 			page 101


 3680 0bd8 6F       		.byte	111
 3681 0bd9 20       		.byte	32
 3682 0bda 73       		.byte	115
 3683 0bdb 08       		.byte	8
 3684 0bdc 84       		.byte	-124
 3685 0bdd 44       		.byte	68
 3686 0bde 87       		.byte	-121
 3687 0bdf 48       		.byte	72
 3688 0be0 89       		.byte	-119
 3689 0be1 20       		.byte	32
 3690 0be2 93       		.byte	-109
 3691 0be3 10       		.byte	16
 3692 0be4 96       		.byte	-106
 3693 0be5 10       		.byte	16
 3694 0be6 9F       		.byte	-97
 3695 0be7 40       		.byte	64
 3696 0be8 A0       		.byte	-96
 3697 0be9 04       		.byte	4
 3698 0bea AB       		.byte	-85
 3699 0beb 80       		.byte	-128
 3700 0bec AF       		.byte	-81
 3701 0bed 20       		.byte	32
 3702 0bee C8       		.byte	-56
 3703 0bef 20       		.byte	32
 3704 0bf0 D6       		.byte	-42
 3705 0bf1 20       		.byte	32
 3706 0bf2 D8       		.byte	-40
 3707 0bf3 80       		.byte	-128
 3708 0bf4 DA       		.byte	-38
 3709 0bf5 C0       		.byte	-64
 3710 0bf6 DC       		.byte	-36
 3711 0bf7 20       		.byte	32
 3712 0bf8 E0       		.byte	-32
 3713 0bf9 40       		.byte	64
 3714 0bfa E2       		.byte	-30
 3715 0bfb 10       		.byte	16
 3716 0bfc E4       		.byte	-28
 3717 0bfd 40       		.byte	64
 3718 0bfe EA       		.byte	-22
 3719 0bff 40       		.byte	64
 3720 0c00 EE       		.byte	-18
 3721 0c01 20       		.byte	32
 3722 0c02 00       		.byte	0
 3723 0c03 80       		.byte	-128
 3724 0c04 21       		.byte	33
 3725 0c05 40       		.byte	64
 3726 0c06 5B       		.byte	91
 3727 0c07 20       		.byte	32
 3728 0c08 79       		.byte	121
 3729 0c09 80       		.byte	-128
 3730 0c0a 83       		.byte	-125
 3731 0c0b 40       		.byte	64
 3732 0c0c 8B       		.byte	-117
 3733 0c0d 20       		.byte	32
 3734 0c0e 9F       		.byte	-97
 3735 0c0f 40       		.byte	64
 3736 0c10 A4       		.byte	-92
ARM GAS  C:\Users\xavieran\AppData\Local\Temp\ccwd941Y.s 			page 102


 3737 0c11 40       		.byte	64
 3738 0c12 AA       		.byte	-86
 3739 0c13 10       		.byte	16
 3740 0c14 AF       		.byte	-81
 3741 0c15 20       		.byte	32
 3742 0c16 C0       		.byte	-64
 3743 0c17 40       		.byte	64
 3744 0c18 C8       		.byte	-56
 3745 0c19 10       		.byte	16
 3746 0c1a D4       		.byte	-44
 3747 0c1b 80       		.byte	-128
 3748 0c1c DC       		.byte	-36
 3749 0c1d 80       		.byte	-128
 3750 0c1e E6       		.byte	-26
 3751 0c1f 80       		.byte	-128
 3752 0c20 EA       		.byte	-22
 3753 0c21 80       		.byte	-128
 3754 0c22 EE       		.byte	-18
 3755 0c23 10       		.byte	16
 3756 0c24 09       		.byte	9
 3757 0c25 10       		.byte	16
 3758 0c26 0F       		.byte	15
 3759 0c27 08       		.byte	8
 3760 0c28 12       		.byte	18
 3761 0c29 10       		.byte	16
 3762 0c2a 13       		.byte	19
 3763 0c2b 20       		.byte	32
 3764 0c2c 17       		.byte	23
 3765 0c2d 04       		.byte	4
 3766 0c2e 62       		.byte	98
 3767 0c2f 02       		.byte	2
 3768 0c30 67       		.byte	103
 3769 0c31 08       		.byte	8
 3770 0c32 72       		.byte	114
 3771 0c33 20       		.byte	32
 3772 0c34 78       		.byte	120
 3773 0c35 01       		.byte	1
 3774 0c36 7E       		.byte	126
 3775 0c37 20       		.byte	32
 3776 0c38 87       		.byte	-121
 3777 0c39 08       		.byte	8
 3778 0c3a 89       		.byte	-119
 3779 0c3b 10       		.byte	16
 3780 0c3c 8A       		.byte	-118
 3781 0c3d 20       		.byte	32
 3782 0c3e 8B       		.byte	-117
 3783 0c3f 04       		.byte	4
 3784 0c40 8D       		.byte	-115
 3785 0c41 10       		.byte	16
 3786 0c42 98       		.byte	-104
 3787 0c43 01       		.byte	1
 3788 0c44 99       		.byte	-103
 3789 0c45 0A       		.byte	10
 3790 0c46 9E       		.byte	-98
 3791 0c47 10       		.byte	16
 3792 0c48 9F       		.byte	-97
 3793 0c49 04       		.byte	4
ARM GAS  C:\Users\xavieran\AppData\Local\Temp\ccwd941Y.s 			page 103


 3794 0c4a A2       		.byte	-94
 3795 0c4b 20       		.byte	32
 3796 0c4c A7       		.byte	-89
 3797 0c4d 04       		.byte	4
 3798 0c4e AF       		.byte	-81
 3799 0c4f 04       		.byte	4
 3800 0c50 B7       		.byte	-73
 3801 0c51 04       		.byte	4
 3802 0c52 C2       		.byte	-62
 3803 0c53 03       		.byte	3
 3804 0c54 C4       		.byte	-60
 3805 0c55 0E       		.byte	14
 3806 0c56 D8       		.byte	-40
 3807 0c57 03       		.byte	3
 3808 0c58 DC       		.byte	-36
 3809 0c59 01       		.byte	1
 3810 0c5a DE       		.byte	-34
 3811 0c5b 03       		.byte	3
 3812 0c5c E0       		.byte	-32
 3813 0c5d 01       		.byte	1
 3814 0c5e E4       		.byte	-28
 3815 0c5f 01       		.byte	1
 3816 0c60 E6       		.byte	-26
 3817 0c61 0C       		.byte	12
 3818 0c62 EA       		.byte	-22
 3819 0c63 02       		.byte	2
 3820 0c64 0D       		.byte	13
 3821 0c65 10       		.byte	16
 3822 0c66 10       		.byte	16
 3823 0c67 10       		.byte	16
 3824 0c68 57       		.byte	87
 3825 0c69 08       		.byte	8
 3826 0c6a 5D       		.byte	93
 3827 0c6b 08       		.byte	8
 3828 0c6c 75       		.byte	117
 3829 0c6d 02       		.byte	2
 3830 0c6e 88       		.byte	-120
 3831 0c6f 10       		.byte	16
 3832 0c70 95       		.byte	-107
 3833 0c71 20       		.byte	32
 3834 0c72 99       		.byte	-103
 3835 0c73 0A       		.byte	10
 3836 0c74 A3       		.byte	-93
 3837 0c75 08       		.byte	8
 3838 0c76 AB       		.byte	-85
 3839 0c77 20       		.byte	32
 3840 0c78 B2       		.byte	-78
 3841 0c79 02       		.byte	2
 3842 0c7a C2       		.byte	-62
 3843 0c7b 01       		.byte	1
 3844 0c7c C4       		.byte	-60
 3845 0c7d 08       		.byte	8
 3846 0c7e D4       		.byte	-44
 3847 0c7f 02       		.byte	2
 3848 0c80 D6       		.byte	-42
 3849 0c81 01       		.byte	1
 3850 0c82 DE       		.byte	-34
ARM GAS  C:\Users\xavieran\AppData\Local\Temp\ccwd941Y.s 			page 104


 3851 0c83 04       		.byte	4
 3852 0c84 E2       		.byte	-30
 3853 0c85 04       		.byte	4
 3854 0c86 EC       		.byte	-20
 3855 0c87 04       		.byte	4
 3856 0c88 10       		.byte	16
 3857 0c89 0C       		.byte	12
 3858 0c8a 11       		.byte	17
 3859 0c8b 01       		.byte	1
 3860 0c8c 1A       		.byte	26
 3861 0c8d 0C       		.byte	12
 3862 0c8e 1B       		.byte	27
 3863 0c8f 01       		.byte	1
 3864 0c90 10       		.byte	16
 3865 0c91 01       		.byte	1
 3866 0c92 0000     		.align	2
 3867              		.type	BS_IOPINS0_0_VAL.4879, %object
 3868              		.size	BS_IOPINS0_0_VAL.4879, 10
 3869              	BS_IOPINS0_0_VAL.4879:
 3870 0c94 03       		.byte	3
 3871 0c95 00       		.byte	0
 3872 0c96 00       		.byte	0
 3873 0c97 F4       		.byte	-12
 3874 0c98 F7       		.byte	-9
 3875 0c99 00       		.byte	0
 3876 0c9a F0       		.byte	-16
 3877 0c9b 00       		.byte	0
 3878 0c9c 00       		.byte	0
 3879 0c9d 00       		.byte	0
 3880 0c9e 0000     		.align	2
 3881              		.type	BS_IOPINS0_7_VAL.4880, %object
 3882              		.size	BS_IOPINS0_7_VAL.4880, 10
 3883              	BS_IOPINS0_7_VAL.4880:
 3884 0ca0 03       		.byte	3
 3885 0ca1 00       		.byte	0
 3886 0ca2 C0       		.byte	-64
 3887 0ca3 2C       		.byte	44
 3888 0ca4 AF       		.byte	-81
 3889 0ca5 00       		.byte	0
 3890 0ca6 2C       		.byte	44
 3891 0ca7 00       		.byte	0
 3892 0ca8 00       		.byte	0
 3893 0ca9 00       		.byte	0
 3894 0caa 0000     		.align	2
 3895              		.type	BS_IOPINS0_8_VAL.4881, %object
 3896              		.size	BS_IOPINS0_8_VAL.4881, 10
 3897              	BS_IOPINS0_8_VAL.4881:
 3898 0cac 00       		.byte	0
 3899 0cad 00       		.byte	0
 3900 0cae 20       		.byte	32
 3901 0caf 18       		.byte	24
 3902 0cb0 18       		.byte	24
 3903 0cb1 00       		.byte	0
 3904 0cb2 18       		.byte	24
 3905 0cb3 00       		.byte	0
 3906 0cb4 C0       		.byte	-64
 3907 0cb5 00       		.byte	0
ARM GAS  C:\Users\xavieran\AppData\Local\Temp\ccwd941Y.s 			page 105


 3908 0cb6 0000     		.align	2
 3909              		.type	BS_IOPINS0_1_VAL.4882, %object
 3910              		.size	BS_IOPINS0_1_VAL.4882, 10
 3911              	BS_IOPINS0_1_VAL.4882:
 3912 0cb8 C0       		.byte	-64
 3913 0cb9 00       		.byte	0
 3914 0cba 00       		.byte	0
 3915 0cbb 00       		.byte	0
 3916 0cbc C0       		.byte	-64
 3917 0cbd 00       		.byte	0
 3918 0cbe C0       		.byte	-64
 3919 0cbf 00       		.byte	0
 3920 0cc0 00       		.byte	0
 3921 0cc1 00       		.byte	0
 3922 0cc2 0000     		.align	2
 3923              		.type	BS_IOPINS0_2_VAL.4883, %object
 3924              		.size	BS_IOPINS0_2_VAL.4883, 10
 3925              	BS_IOPINS0_2_VAL.4883:
 3926 0cc4 30       		.byte	48
 3927 0cc5 00       		.byte	0
 3928 0cc6 05       		.byte	5
 3929 0cc7 00       		.byte	0
 3930 0cc8 30       		.byte	48
 3931 0cc9 00       		.byte	0
 3932 0cca 30       		.byte	48
 3933 0ccb 00       		.byte	0
 3934 0ccc 00       		.byte	0
 3935 0ccd 00       		.byte	0
 3936 0cce 0000     		.align	2
 3937              		.type	BS_IOPINS0_3_VAL.4884, %object
 3938              		.size	BS_IOPINS0_3_VAL.4884, 10
 3939              	BS_IOPINS0_3_VAL.4884:
 3940 0cd0 08       		.byte	8
 3941 0cd1 00       		.byte	0
 3942 0cd2 04       		.byte	4
 3943 0cd3 08       		.byte	8
 3944 0cd4 08       		.byte	8
 3945 0cd5 00       		.byte	0
 3946 0cd6 08       		.byte	8
 3947 0cd7 00       		.byte	0
 3948 0cd8 00       		.byte	0
 3949 0cd9 00       		.byte	0
 3950 0cda 0000     		.align	2
 3951              		.type	BS_IOPINS0_4_VAL.4885, %object
 3952              		.size	BS_IOPINS0_4_VAL.4885, 8
 3953              	BS_IOPINS0_4_VAL.4885:
 3954 0cdc F0       		.byte	-16
 3955 0cdd 03       		.byte	3
 3956 0cde 03       		.byte	3
 3957 0cdf 00       		.byte	0
 3958 0ce0 03       		.byte	3
 3959 0ce1 00       		.byte	0
 3960 0ce2 00       		.byte	0
 3961 0ce3 01       		.byte	1
 3962              		.align	2
 3963              		.type	BS_IOPINS0_5_VAL.4886, %object
 3964              		.size	BS_IOPINS0_5_VAL.4886, 8
ARM GAS  C:\Users\xavieran\AppData\Local\Temp\ccwd941Y.s 			page 106


 3965              	BS_IOPINS0_5_VAL.4886:
 3966 0ce4 D0       		.byte	-48
 3967 0ce5 A3       		.byte	-93
 3968 0ce6 73       		.byte	115
 3969 0ce7 00       		.byte	0
 3970 0ce8 82       		.byte	-126
 3971 0ce9 00       		.byte	0
 3972 0cea 00       		.byte	0
 3973 0ceb 00       		.byte	0
 3974              		.align	2
 3975              		.type	BS_IOPINS0_6_VAL.4887, %object
 3976              		.size	BS_IOPINS0_6_VAL.4887, 8
 3977              	BS_IOPINS0_6_VAL.4887:
 3978 0cec 1F       		.byte	31
 3979 0ced F0       		.byte	-16
 3980 0cee E0       		.byte	-32
 3981 0cef 00       		.byte	0
 3982 0cf0 10       		.byte	16
 3983 0cf1 00       		.byte	0
 3984 0cf2 00       		.byte	0
 3985 0cf3 00       		.byte	0
 3986              		.align	2
 3987              		.type	BS_UCFG_BCTL0_VAL.4903, %object
 3988              		.size	BS_UCFG_BCTL0_VAL.4903, 16
 3989              	BS_UCFG_BCTL0_VAL.4903:
 3990 0cf4 34       		.byte	52
 3991 0cf5 01       		.byte	1
 3992 0cf6 00       		.byte	0
 3993 0cf7 00       		.byte	0
 3994 0cf8 00       		.byte	0
 3995 0cf9 00       		.byte	0
 3996 0cfa 00       		.byte	0
 3997 0cfb 00       		.byte	0
 3998 0cfc 14       		.byte	20
 3999 0cfd 00       		.byte	0
 4000 0cfe 34       		.byte	52
 4001 0cff 00       		.byte	0
 4002 0d00 04       		.byte	4
 4003 0d01 01       		.byte	1
 4004 0d02 04       		.byte	4
 4005 0d03 01       		.byte	1
 4006              		.align	2
 4007              		.type	BS_UDB_1_1_0_CONFIG_VAL.4902, %object
 4008              		.size	BS_UDB_1_1_0_CONFIG_VAL.4902, 128
 4009              	BS_UDB_1_1_0_CONFIG_VAL.4902:
 4010 0d04 00       		.byte	0
 4011 0d05 06       		.byte	6
 4012 0d06 02       		.byte	2
 4013 0d07 00       		.byte	0
 4014 0d08 00       		.byte	0
 4015 0d09 01       		.byte	1
 4016 0d0a 01       		.byte	1
 4017 0d0b 00       		.byte	0
 4018 0d0c 00       		.byte	0
 4019 0d0d 04       		.byte	4
 4020 0d0e 00       		.byte	0
 4021 0d0f 00       		.byte	0
ARM GAS  C:\Users\xavieran\AppData\Local\Temp\ccwd941Y.s 			page 107


 4022 0d10 00       		.byte	0
 4023 0d11 01       		.byte	1
 4024 0d12 01       		.byte	1
 4025 0d13 1E       		.byte	30
 4026 0d14 00       		.byte	0
 4027 0d15 20       		.byte	32
 4028 0d16 10       		.byte	16
 4029 0d17 00       		.byte	0
 4030 0d18 00       		.byte	0
 4031 0d19 1C       		.byte	28
 4032 0d1a 03       		.byte	3
 4033 0d1b 02       		.byte	2
 4034 0d1c 00       		.byte	0
 4035 0d1d 0A       		.byte	10
 4036 0d1e 01       		.byte	1
 4037 0d1f 10       		.byte	16
 4038 0d20 00       		.byte	0
 4039 0d21 3F       		.byte	63
 4040 0d22 10       		.byte	16
 4041 0d23 00       		.byte	0
 4042 0d24 00       		.byte	0
 4043 0d25 02       		.byte	2
 4044 0d26 00       		.byte	0
 4045 0d27 00       		.byte	0
 4046 0d28 00       		.byte	0
 4047 0d29 02       		.byte	2
 4048 0d2a 04       		.byte	4
 4049 0d2b 18       		.byte	24
 4050 0d2c 08       		.byte	8
 4051 0d2d 18       		.byte	24
 4052 0d2e 00       		.byte	0
 4053 0d2f 06       		.byte	6
 4054 0d30 00       		.byte	0
 4055 0d31 12       		.byte	18
 4056 0d32 00       		.byte	0
 4057 0d33 08       		.byte	8
 4058 0d34 10       		.byte	16
 4059 0d35 00       		.byte	0
 4060 0d36 07       		.byte	7
 4061 0d37 00       		.byte	0
 4062 0d38 00       		.byte	0
 4063 0d39 1F       		.byte	31
 4064 0d3a 08       		.byte	8
 4065 0d3b 20       		.byte	32
 4066 0d3c 00       		.byte	0
 4067 0d3d A0       		.byte	-96
 4068 0d3e 08       		.byte	8
 4069 0d3f 00       		.byte	0
 4070 0d40 00       		.byte	0
 4071 0d41 00       		.byte	0
 4072 0d42 01       		.byte	1
 4073 0d43 00       		.byte	0
 4074 0d44 15       		.byte	21
 4075 0d45 03       		.byte	3
 4076 0d46 00       		.byte	0
 4077 0d47 00       		.byte	0
 4078 0d48 00       		.byte	0
ARM GAS  C:\Users\xavieran\AppData\Local\Temp\ccwd941Y.s 			page 108


 4079 0d49 EC       		.byte	-20
 4080 0d4a 00       		.byte	0
 4081 0d4b 20       		.byte	32
 4082 0d4c 23       		.byte	35
 4083 0d4d FF       		.byte	-1
 4084 0d4e FF       		.byte	-1
 4085 0d4f FF       		.byte	-1
 4086 0d50 00       		.byte	0
 4087 0d51 83       		.byte	-125
 4088 0d52 03       		.byte	3
 4089 0d53 01       		.byte	1
 4090 0d54 18       		.byte	24
 4091 0d55 00       		.byte	0
 4092 0d56 00       		.byte	0
 4093 0d57 00       		.byte	0
 4094 0d58 01       		.byte	1
 4095 0d59 00       		.byte	0
 4096 0d5a 00       		.byte	0
 4097 0d5b 00       		.byte	0
 4098 0d5c 04       		.byte	4
 4099 0d5d 04       		.byte	4
 4100 0d5e 04       		.byte	4
 4101 0d5f 04       		.byte	4
 4102 0d60 22       		.byte	34
 4103 0d61 33       		.byte	51
 4104 0d62 00       		.byte	0
 4105 0d63 05       		.byte	5
 4106 0d64 40       		.byte	64
 4107 0d65 00       		.byte	0
 4108 0d66 40       		.byte	64
 4109 0d67 00       		.byte	0
 4110 0d68 40       		.byte	64
 4111 0d69 40       		.byte	64
 4112 0d6a 80       		.byte	-128
 4113 0d6b 00       		.byte	0
 4114 0d6c 80       		.byte	-128
 4115 0d6d 00       		.byte	0
 4116 0d6e 80       		.byte	-128
 4117 0d6f 00       		.byte	0
 4118 0d70 80       		.byte	-128
 4119 0d71 00       		.byte	0
 4120 0d72 80       		.byte	-128
 4121 0d73 00       		.byte	0
 4122 0d74 00       		.byte	0
 4123 0d75 00       		.byte	0
 4124 0d76 00       		.byte	0
 4125 0d77 00       		.byte	0
 4126 0d78 00       		.byte	0
 4127 0d79 00       		.byte	0
 4128 0d7a 00       		.byte	0
 4129 0d7b 00       		.byte	0
 4130 0d7c 00       		.byte	0
 4131 0d7d 00       		.byte	0
 4132 0d7e 00       		.byte	0
 4133 0d7f 00       		.byte	0
 4134 0d80 00       		.byte	0
 4135 0d81 00       		.byte	0
ARM GAS  C:\Users\xavieran\AppData\Local\Temp\ccwd941Y.s 			page 109


 4136 0d82 00       		.byte	0
 4137 0d83 00       		.byte	0
 4138              		.align	2
 4139              		.type	BS_IDMUX_IRQ_VAL.4901, %object
 4140              		.size	BS_IDMUX_IRQ_VAL.4901, 8
 4141              	BS_IDMUX_IRQ_VAL.4901:
 4142 0d84 BF       		.byte	-65
 4143 0d85 E8       		.byte	-24
 4144 0d86 03       		.byte	3
 4145 0d87 C0       		.byte	-64
 4146 0d88 00       		.byte	0
 4147 0d89 00       		.byte	0
 4148 0d8a 00       		.byte	0
 4149 0d8b 00       		.byte	0
 4150              		.align	2
 4151              		.type	BS_IOPORT_7_VAL.4900, %object
 4152              		.size	BS_IOPORT_7_VAL.4900, 6
 4153              	BS_IOPORT_7_VAL.4900:
 4154 0d8c 23       		.byte	35
 4155 0d8d 24       		.byte	36
 4156 0d8e 00       		.byte	0
 4157 0d8f 00       		.byte	0
 4158 0d90 03       		.byte	3
 4159 0d91 00       		.byte	0
 4160 0d92 0000     		.text
 4161              	.Letext0:
 4162              		.file 2 "c:\\program files (x86)\\cypress\\psoc creator\\3.2\\psoc creator\\import\\gnu\\arm\\4.8.
 4163              		.file 3 ".\\Generated_Source\\PSoC5\\cytypes.h"
 4164              		.section	.debug_info,"",%progbits
 4165              	.Ldebug_info0:
 4166 0000 12060000 		.4byte	0x612
 4167 0004 0400     		.2byte	0x4
 4168 0006 00000000 		.4byte	.Ldebug_abbrev0
 4169 000a 04       		.byte	0x4
 4170 000b 01       		.uleb128 0x1
 4171 000c 61020000 		.4byte	.LASF66
 4172 0010 01       		.byte	0x1
 4173 0011 94010000 		.4byte	.LASF67
 4174 0015 CD000000 		.4byte	.LASF68
 4175 0019 00000000 		.4byte	.Ldebug_ranges0+0
 4176 001d 00000000 		.4byte	0
 4177 0021 00000000 		.4byte	.Ldebug_line0
 4178 0025 02       		.uleb128 0x2
 4179 0026 04       		.byte	0x4
 4180 0027 05       		.byte	0x5
 4181 0028 696E7400 		.ascii	"int\000"
 4182 002c 03       		.uleb128 0x3
 4183 002d 10000000 		.4byte	.LASF11
 4184 0031 02       		.byte	0x2
 4185 0032 D4       		.byte	0xd4
 4186 0033 37000000 		.4byte	0x37
 4187 0037 04       		.uleb128 0x4
 4188 0038 04       		.byte	0x4
 4189 0039 07       		.byte	0x7
 4190 003a 7E010000 		.4byte	.LASF0
 4191 003e 04       		.uleb128 0x4
 4192 003f 01       		.byte	0x1
ARM GAS  C:\Users\xavieran\AppData\Local\Temp\ccwd941Y.s 			page 110


 4193 0040 06       		.byte	0x6
 4194 0041 9A000000 		.4byte	.LASF1
 4195 0045 04       		.uleb128 0x4
 4196 0046 01       		.byte	0x1
 4197 0047 08       		.byte	0x8
 4198 0048 33030000 		.4byte	.LASF2
 4199 004c 04       		.uleb128 0x4
 4200 004d 02       		.byte	0x2
 4201 004e 05       		.byte	0x5
 4202 004f 41030000 		.4byte	.LASF3
 4203 0053 04       		.uleb128 0x4
 4204 0054 02       		.byte	0x2
 4205 0055 07       		.byte	0x7
 4206 0056 12020000 		.4byte	.LASF4
 4207 005a 04       		.uleb128 0x4
 4208 005b 04       		.byte	0x4
 4209 005c 05       		.byte	0x5
 4210 005d 35010000 		.4byte	.LASF5
 4211 0061 04       		.uleb128 0x4
 4212 0062 04       		.byte	0x4
 4213 0063 07       		.byte	0x7
 4214 0064 BC010000 		.4byte	.LASF6
 4215 0068 04       		.uleb128 0x4
 4216 0069 08       		.byte	0x8
 4217 006a 05       		.byte	0x5
 4218 006b 8C000000 		.4byte	.LASF7
 4219 006f 04       		.uleb128 0x4
 4220 0070 08       		.byte	0x8
 4221 0071 07       		.byte	0x7
 4222 0072 47000000 		.4byte	.LASF8
 4223 0076 04       		.uleb128 0x4
 4224 0077 04       		.byte	0x4
 4225 0078 07       		.byte	0x7
 4226 0079 46020000 		.4byte	.LASF9
 4227 007d 05       		.uleb128 0x5
 4228 007e 04       		.byte	0x4
 4229 007f 04       		.uleb128 0x4
 4230 0080 01       		.byte	0x1
 4231 0081 08       		.byte	0x8
 4232 0082 88030000 		.4byte	.LASF10
 4233 0086 03       		.uleb128 0x3
 4234 0087 44010000 		.4byte	.LASF12
 4235 008b 03       		.byte	0x3
 4236 008c B3       		.byte	0xb3
 4237 008d 45000000 		.4byte	0x45
 4238 0091 03       		.uleb128 0x3
 4239 0092 00000000 		.4byte	.LASF13
 4240 0096 03       		.byte	0x3
 4241 0097 B4       		.byte	0xb4
 4242 0098 53000000 		.4byte	0x53
 4243 009c 03       		.uleb128 0x3
 4244 009d 51010000 		.4byte	.LASF14
 4245 00a1 03       		.byte	0x3
 4246 00a2 B5       		.byte	0xb5
 4247 00a3 61000000 		.4byte	0x61
 4248 00a7 04       		.uleb128 0x4
 4249 00a8 04       		.byte	0x4
ARM GAS  C:\Users\xavieran\AppData\Local\Temp\ccwd941Y.s 			page 111


 4250 00a9 04       		.byte	0x4
 4251 00aa 10030000 		.4byte	.LASF15
 4252 00ae 04       		.uleb128 0x4
 4253 00af 08       		.byte	0x8
 4254 00b0 04       		.byte	0x4
 4255 00b1 4A010000 		.4byte	.LASF16
 4256 00b5 06       		.uleb128 0x6
 4257 00b6 2E030000 		.4byte	.LASF17
 4258 00ba 03       		.byte	0x3
 4259 00bb 5D01     		.2byte	0x15d
 4260 00bd C1000000 		.4byte	0xc1
 4261 00c1 07       		.uleb128 0x7
 4262 00c2 86000000 		.4byte	0x86
 4263 00c6 06       		.uleb128 0x6
 4264 00c7 3E010000 		.4byte	.LASF18
 4265 00cb 03       		.byte	0x3
 4266 00cc 5E01     		.2byte	0x15e
 4267 00ce D2000000 		.4byte	0xd2
 4268 00d2 07       		.uleb128 0x7
 4269 00d3 91000000 		.4byte	0x91
 4270 00d7 08       		.uleb128 0x8
 4271 00d8 02       		.byte	0x2
 4272 00d9 01       		.byte	0x1
 4273 00da 7E       		.byte	0x7e
 4274 00db F8000000 		.4byte	0xf8
 4275 00df 09       		.uleb128 0x9
 4276 00e0 BC030000 		.4byte	.LASF19
 4277 00e4 01       		.byte	0x1
 4278 00e5 80       		.byte	0x80
 4279 00e6 86000000 		.4byte	0x86
 4280 00ea 00       		.byte	0
 4281 00eb 09       		.uleb128 0x9
 4282 00ec 78010000 		.4byte	.LASF20
 4283 00f0 01       		.byte	0x1
 4284 00f1 81       		.byte	0x81
 4285 00f2 86000000 		.4byte	0x86
 4286 00f6 01       		.byte	0x1
 4287 00f7 00       		.byte	0
 4288 00f8 03       		.uleb128 0x3
 4289 00f9 75030000 		.4byte	.LASF21
 4290 00fd 01       		.byte	0x1
 4291 00fe 82       		.byte	0x82
 4292 00ff D7000000 		.4byte	0xd7
 4293 0103 0A       		.uleb128 0xa
 4294 0104 B8000000 		.4byte	.LASF22
 4295 0108 01       		.byte	0x1
 4296 0109 3C       		.byte	0x3c
 4297 010a 00000000 		.4byte	.LFB0
 4298 010e 1A000000 		.4byte	.LFE0-.LFB0
 4299 0112 01       		.uleb128 0x1
 4300 0113 9C       		.byte	0x9c
 4301 0114 31010000 		.4byte	0x131
 4302 0118 0B       		.uleb128 0xb
 4303 0119 7300     		.ascii	"s\000"
 4304 011b 01       		.byte	0x1
 4305 011c 3C       		.byte	0x3c
 4306 011d 7D000000 		.4byte	0x7d
ARM GAS  C:\Users\xavieran\AppData\Local\Temp\ccwd941Y.s 			page 112


 4307 0121 02       		.uleb128 0x2
 4308 0122 91       		.byte	0x91
 4309 0123 74       		.sleb128 -12
 4310 0124 0B       		.uleb128 0xb
 4311 0125 6E00     		.ascii	"n\000"
 4312 0127 01       		.byte	0x1
 4313 0128 3C       		.byte	0x3c
 4314 0129 2C000000 		.4byte	0x2c
 4315 012d 02       		.uleb128 0x2
 4316 012e 91       		.byte	0x91
 4317 012f 70       		.sleb128 -16
 4318 0130 00       		.byte	0
 4319 0131 0A       		.uleb128 0xa
 4320 0132 DC030000 		.4byte	.LASF23
 4321 0136 01       		.byte	0x1
 4322 0137 43       		.byte	0x43
 4323 0138 00000000 		.4byte	.LFB1
 4324 013c 1C000000 		.4byte	.LFE1-.LFB1
 4325 0140 01       		.uleb128 0x1
 4326 0141 9C       		.byte	0x9c
 4327 0142 6F010000 		.4byte	0x16f
 4328 0146 0C       		.uleb128 0xc
 4329 0147 0B030000 		.4byte	.LASF24
 4330 014b 01       		.byte	0x1
 4331 014c 43       		.byte	0x43
 4332 014d 7D000000 		.4byte	0x7d
 4333 0151 02       		.uleb128 0x2
 4334 0152 91       		.byte	0x91
 4335 0153 74       		.sleb128 -12
 4336 0154 0B       		.uleb128 0xb
 4337 0155 73726300 		.ascii	"src\000"
 4338 0159 01       		.byte	0x1
 4339 015a 43       		.byte	0x43
 4340 015b 6F010000 		.4byte	0x16f
 4341 015f 02       		.uleb128 0x2
 4342 0160 91       		.byte	0x91
 4343 0161 70       		.sleb128 -16
 4344 0162 0B       		.uleb128 0xb
 4345 0163 6E00     		.ascii	"n\000"
 4346 0165 01       		.byte	0x1
 4347 0166 43       		.byte	0x43
 4348 0167 2C000000 		.4byte	0x2c
 4349 016b 02       		.uleb128 0x2
 4350 016c 91       		.byte	0x91
 4351 016d 6C       		.sleb128 -20
 4352 016e 00       		.byte	0
 4353 016f 0D       		.uleb128 0xd
 4354 0170 04       		.byte	0x4
 4355 0171 75010000 		.4byte	0x175
 4356 0175 0E       		.uleb128 0xe
 4357 0176 0A       		.uleb128 0xa
 4358 0177 36020000 		.4byte	.LASF25
 4359 017b 01       		.byte	0x1
 4360 017c 4A       		.byte	0x4a
 4361 017d 00000000 		.4byte	.LFB2
 4362 0181 1C000000 		.4byte	.LFE2-.LFB2
 4363 0185 01       		.uleb128 0x1
ARM GAS  C:\Users\xavieran\AppData\Local\Temp\ccwd941Y.s 			page 113


 4364 0186 9C       		.byte	0x9c
 4365 0187 B4010000 		.4byte	0x1b4
 4366 018b 0C       		.uleb128 0xc
 4367 018c 0B030000 		.4byte	.LASF24
 4368 0190 01       		.byte	0x1
 4369 0191 4A       		.byte	0x4a
 4370 0192 7D000000 		.4byte	0x7d
 4371 0196 02       		.uleb128 0x2
 4372 0197 91       		.byte	0x91
 4373 0198 74       		.sleb128 -12
 4374 0199 0B       		.uleb128 0xb
 4375 019a 73726300 		.ascii	"src\000"
 4376 019e 01       		.byte	0x1
 4377 019f 4A       		.byte	0x4a
 4378 01a0 6F010000 		.4byte	0x16f
 4379 01a4 02       		.uleb128 0x2
 4380 01a5 91       		.byte	0x91
 4381 01a6 70       		.sleb128 -16
 4382 01a7 0B       		.uleb128 0xb
 4383 01a8 6E00     		.ascii	"n\000"
 4384 01aa 01       		.byte	0x1
 4385 01ab 4A       		.byte	0x4a
 4386 01ac 2C000000 		.4byte	0x2c
 4387 01b0 02       		.uleb128 0x2
 4388 01b1 91       		.byte	0x91
 4389 01b2 6C       		.sleb128 -20
 4390 01b3 00       		.byte	0
 4391 01b4 0F       		.uleb128 0xf
 4392 01b5 17000000 		.4byte	.LASF26
 4393 01b9 01       		.byte	0x1
 4394 01ba 6A       		.byte	0x6a
 4395 01bb 00000000 		.4byte	.LFB3
 4396 01bf 0C000000 		.4byte	.LFE3-.LFB3
 4397 01c3 01       		.uleb128 0x1
 4398 01c4 9C       		.byte	0x9c
 4399 01c5 D8010000 		.4byte	0x1d8
 4400 01c9 0C       		.uleb128 0xc
 4401 01ca 1A010000 		.4byte	.LASF27
 4402 01ce 01       		.byte	0x1
 4403 01cf 6A       		.byte	0x6a
 4404 01d0 86000000 		.4byte	0x86
 4405 01d4 02       		.uleb128 0x2
 4406 01d5 91       		.byte	0x91
 4407 01d6 77       		.sleb128 -9
 4408 01d7 00       		.byte	0
 4409 01d8 0F       		.uleb128 0xf
 4410 01d9 E3010000 		.4byte	.LASF28
 4411 01dd 01       		.byte	0x1
 4412 01de 95       		.byte	0x95
 4413 01df 00000000 		.4byte	.LFB4
 4414 01e3 72000000 		.4byte	.LFE4-.LFB4
 4415 01e7 01       		.uleb128 0x1
 4416 01e8 9C       		.byte	0x9c
 4417 01e9 48020000 		.4byte	0x248
 4418 01ed 0C       		.uleb128 0xc
 4419 01ee 5E000000 		.4byte	.LASF29
 4420 01f2 01       		.byte	0x1
ARM GAS  C:\Users\xavieran\AppData\Local\Temp\ccwd941Y.s 			page 114


 4421 01f3 95       		.byte	0x95
 4422 01f4 48020000 		.4byte	0x248
 4423 01f8 02       		.uleb128 0x2
 4424 01f9 91       		.byte	0x91
 4425 01fa 64       		.sleb128 -28
 4426 01fb 0C       		.uleb128 0xc
 4427 01fc 3C000000 		.4byte	.LASF30
 4428 0200 01       		.byte	0x1
 4429 0201 95       		.byte	0x95
 4430 0202 53020000 		.4byte	0x253
 4431 0206 02       		.uleb128 0x2
 4432 0207 91       		.byte	0x91
 4433 0208 60       		.sleb128 -32
 4434 0209 10       		.uleb128 0x10
 4435 020a 6900     		.ascii	"i\000"
 4436 020c 01       		.byte	0x1
 4437 020d 98       		.byte	0x98
 4438 020e 9C000000 		.4byte	0x9c
 4439 0212 02       		.uleb128 0x2
 4440 0213 91       		.byte	0x91
 4441 0214 74       		.sleb128 -12
 4442 0215 10       		.uleb128 0x10
 4443 0216 6A00     		.ascii	"j\000"
 4444 0218 01       		.byte	0x1
 4445 0219 98       		.byte	0x98
 4446 021a 9C000000 		.4byte	0x9c
 4447 021e 02       		.uleb128 0x2
 4448 021f 91       		.byte	0x91
 4449 0220 70       		.sleb128 -16
 4450 0221 11       		.uleb128 0x11
 4451 0222 14000000 		.4byte	.LBB2
 4452 0226 48000000 		.4byte	.LBE2-.LBB2
 4453 022a 12       		.uleb128 0x12
 4454 022b 07000000 		.4byte	.LASF31
 4455 022f 01       		.byte	0x1
 4456 0230 9B       		.byte	0x9b
 4457 0231 9C000000 		.4byte	0x9c
 4458 0235 02       		.uleb128 0x2
 4459 0236 91       		.byte	0x91
 4460 0237 68       		.sleb128 -24
 4461 0238 12       		.uleb128 0x12
 4462 0239 58010000 		.4byte	.LASF32
 4463 023d 01       		.byte	0x1
 4464 023e 9C       		.byte	0x9c
 4465 023f 86000000 		.4byte	0x86
 4466 0243 02       		.uleb128 0x2
 4467 0244 91       		.byte	0x91
 4468 0245 6F       		.sleb128 -17
 4469 0246 00       		.byte	0
 4470 0247 00       		.byte	0
 4471 0248 0D       		.uleb128 0xd
 4472 0249 04       		.byte	0x4
 4473 024a 4E020000 		.4byte	0x24e
 4474 024e 13       		.uleb128 0x13
 4475 024f 9C000000 		.4byte	0x9c
 4476 0253 0D       		.uleb128 0xd
 4477 0254 04       		.byte	0x4
ARM GAS  C:\Users\xavieran\AppData\Local\Temp\ccwd941Y.s 			page 115


 4478 0255 59020000 		.4byte	0x259
 4479 0259 13       		.uleb128 0x13
 4480 025a F8000000 		.4byte	0xf8
 4481 025e 0A       		.uleb128 0xa
 4482 025f C2000000 		.4byte	.LASF33
 4483 0263 01       		.byte	0x1
 4484 0264 B8       		.byte	0xb8
 4485 0265 00000000 		.4byte	.LFB5
 4486 0269 6C010000 		.4byte	.LFE5-.LFB5
 4487 026d 01       		.uleb128 0x1
 4488 026e 9C       		.byte	0x9c
 4489 026f 90020000 		.4byte	0x290
 4490 0273 12       		.uleb128 0x12
 4491 0274 CE010000 		.4byte	.LASF34
 4492 0278 01       		.byte	0x1
 4493 0279 BA       		.byte	0xba
 4494 027a 9C000000 		.4byte	0x9c
 4495 027e 02       		.uleb128 0x2
 4496 027f 91       		.byte	0x91
 4497 0280 74       		.sleb128 -12
 4498 0281 12       		.uleb128 0x12
 4499 0282 5C030000 		.4byte	.LASF35
 4500 0286 01       		.byte	0x1
 4501 0287 BB       		.byte	0xbb
 4502 0288 86000000 		.4byte	0x86
 4503 028c 02       		.uleb128 0x2
 4504 028d 91       		.byte	0x91
 4505 028e 73       		.sleb128 -13
 4506 028f 00       		.byte	0
 4507 0290 14       		.uleb128 0x14
 4508 0291 7B000000 		.4byte	.LASF36
 4509 0295 01       		.byte	0x1
 4510 0296 0501     		.2byte	0x105
 4511 0298 00000000 		.4byte	.LFB6
 4512 029c 44000000 		.4byte	.LFE6-.LFB6
 4513 02a0 01       		.uleb128 0x1
 4514 02a1 9C       		.byte	0x9c
 4515 02a2 B6020000 		.4byte	0x2b6
 4516 02a6 15       		.uleb128 0x15
 4517 02a7 4F020000 		.4byte	.LASF37
 4518 02ab 01       		.byte	0x1
 4519 02ac 0701     		.2byte	0x107
 4520 02ae 86000000 		.4byte	0x86
 4521 02b2 02       		.uleb128 0x2
 4522 02b3 91       		.byte	0x91
 4523 02b4 77       		.sleb128 -9
 4524 02b5 00       		.byte	0
 4525 02b6 16       		.uleb128 0x16
 4526 02b7 A6030000 		.4byte	.LASF40
 4527 02bb 01       		.byte	0x1
 4528 02bc 1F01     		.2byte	0x11f
 4529 02be 00000000 		.4byte	.LFB7
 4530 02c2 28000000 		.4byte	.LFE7-.LFB7
 4531 02c6 01       		.uleb128 0x1
 4532 02c7 9C       		.byte	0x9c
 4533 02c8 EB020000 		.4byte	0x2eb
 4534 02cc 17       		.uleb128 0x17
ARM GAS  C:\Users\xavieran\AppData\Local\Temp\ccwd941Y.s 			page 116


 4535 02cd D4030000 		.4byte	.LASF38
 4536 02d1 01       		.byte	0x1
 4537 02d2 1F01     		.2byte	0x11f
 4538 02d4 86000000 		.4byte	0x86
 4539 02d8 02       		.uleb128 0x2
 4540 02d9 91       		.byte	0x91
 4541 02da 6F       		.sleb128 -17
 4542 02db 15       		.uleb128 0x15
 4543 02dc 5E010000 		.4byte	.LASF39
 4544 02e0 01       		.byte	0x1
 4545 02e1 2101     		.2byte	0x121
 4546 02e3 86000000 		.4byte	0x86
 4547 02e7 02       		.uleb128 0x2
 4548 02e8 91       		.byte	0x91
 4549 02e9 77       		.sleb128 -9
 4550 02ea 00       		.byte	0
 4551 02eb 18       		.uleb128 0x18
 4552 02ec 22040000 		.4byte	.LASF41
 4553 02f0 01       		.byte	0x1
 4554 02f1 4101     		.2byte	0x141
 4555 02f3 00000000 		.4byte	.LFB8
 4556 02f7 E4010000 		.4byte	.LFE8-.LFB8
 4557 02fb 01       		.uleb128 0x1
 4558 02fc 9C       		.byte	0x9c
 4559 02fd 59050000 		.4byte	0x559
 4560 0301 15       		.uleb128 0x15
 4561 0302 4B030000 		.4byte	.LASF42
 4562 0306 01       		.byte	0x1
 4563 0307 4401     		.2byte	0x144
 4564 0309 69050000 		.4byte	0x569
 4565 030d 05       		.uleb128 0x5
 4566 030e 03       		.byte	0x3
 4567 030f 940C0000 		.4byte	BS_IOPINS0_0_VAL.4879
 4568 0313 15       		.uleb128 0x15
 4569 0314 2B000000 		.4byte	.LASF43
 4570 0318 01       		.byte	0x1
 4571 0319 4801     		.2byte	0x148
 4572 031b 6E050000 		.4byte	0x56e
 4573 031f 05       		.uleb128 0x5
 4574 0320 03       		.byte	0x3
 4575 0321 A00C0000 		.4byte	BS_IOPINS0_7_VAL.4880
 4576 0325 15       		.uleb128 0x15
 4577 0326 64030000 		.4byte	.LASF44
 4578 032a 01       		.byte	0x1
 4579 032b 4C01     		.2byte	0x14c
 4580 032d 73050000 		.4byte	0x573
 4581 0331 05       		.uleb128 0x5
 4582 0332 03       		.byte	0x3
 4583 0333 AC0C0000 		.4byte	BS_IOPINS0_8_VAL.4881
 4584 0337 15       		.uleb128 0x15
 4585 0338 67010000 		.4byte	.LASF45
 4586 033c 01       		.byte	0x1
 4587 033d 5001     		.2byte	0x150
 4588 033f 78050000 		.4byte	0x578
 4589 0343 05       		.uleb128 0x5
 4590 0344 03       		.byte	0x3
 4591 0345 B80C0000 		.4byte	BS_IOPINS0_1_VAL.4882
ARM GAS  C:\Users\xavieran\AppData\Local\Temp\ccwd941Y.s 			page 117


 4592 0349 15       		.uleb128 0x15
 4593 034a F0030000 		.4byte	.LASF46
 4594 034e 01       		.byte	0x1
 4595 034f 5401     		.2byte	0x154
 4596 0351 7D050000 		.4byte	0x57d
 4597 0355 05       		.uleb128 0x5
 4598 0356 03       		.byte	0x3
 4599 0357 C40C0000 		.4byte	BS_IOPINS0_2_VAL.4883
 4600 035b 15       		.uleb128 0x15
 4601 035c FA020000 		.4byte	.LASF47
 4602 0360 01       		.byte	0x1
 4603 0361 5801     		.2byte	0x158
 4604 0363 82050000 		.4byte	0x582
 4605 0367 05       		.uleb128 0x5
 4606 0368 03       		.byte	0x3
 4607 0369 D00C0000 		.4byte	BS_IOPINS0_3_VAL.4884
 4608 036d 15       		.uleb128 0x15
 4609 036e 24010000 		.4byte	.LASF48
 4610 0372 01       		.byte	0x1
 4611 0373 5C01     		.2byte	0x15c
 4612 0375 97050000 		.4byte	0x597
 4613 0379 05       		.uleb128 0x5
 4614 037a 03       		.byte	0x3
 4615 037b DC0C0000 		.4byte	BS_IOPINS0_4_VAL.4885
 4616 037f 15       		.uleb128 0x15
 4617 0380 C3030000 		.4byte	.LASF49
 4618 0384 01       		.byte	0x1
 4619 0385 6001     		.2byte	0x160
 4620 0387 9C050000 		.4byte	0x59c
 4621 038b 05       		.uleb128 0x5
 4622 038c 03       		.byte	0x3
 4623 038d E40C0000 		.4byte	BS_IOPINS0_5_VAL.4886
 4624 0391 15       		.uleb128 0x15
 4625 0392 25020000 		.4byte	.LASF50
 4626 0396 01       		.byte	0x1
 4627 0397 6401     		.2byte	0x164
 4628 0399 A1050000 		.4byte	0x5a1
 4629 039d 05       		.uleb128 0x5
 4630 039e 03       		.byte	0x3
 4631 039f EC0C0000 		.4byte	BS_IOPINS0_6_VAL.4887
 4632 03a3 11       		.uleb128 0x11
 4633 03a4 18000000 		.4byte	.LBB3
 4634 03a8 CA000000 		.4byte	.LBE3-.LBB3
 4635 03ac 15       		.uleb128 0x15
 4636 03ad A6000000 		.4byte	.LASF51
 4637 03b1 01       		.byte	0x1
 4638 03b2 7401     		.2byte	0x174
 4639 03b4 B6050000 		.4byte	0x5b6
 4640 03b8 05       		.uleb128 0x5
 4641 03b9 03       		.byte	0x3
 4642 03ba 58000000 		.4byte	cy_cfg_addr_table.4888
 4643 03be 15       		.uleb128 0x15
 4644 03bf 69000000 		.4byte	.LASF52
 4645 03c3 01       		.byte	0x1
 4646 03c4 A001     		.2byte	0x1a0
 4647 03c6 CC050000 		.4byte	0x5cc
 4648 03ca 05       		.uleb128 0x5
ARM GAS  C:\Users\xavieran\AppData\Local\Temp\ccwd941Y.s 			page 118


 4649 03cb 03       		.byte	0x3
 4650 03cc FC000000 		.4byte	cy_cfg_data_table.4889
 4651 03d0 19       		.uleb128 0x19
 4652 03d1 06       		.byte	0x6
 4653 03d2 01       		.byte	0x1
 4654 03d3 7007     		.2byte	0x770
 4655 03d5 F4030000 		.4byte	0x3f4
 4656 03d9 1A       		.uleb128 0x1a
 4657 03da E8030000 		.4byte	.LASF53
 4658 03de 01       		.byte	0x1
 4659 03df 7107     		.2byte	0x771
 4660 03e1 7D000000 		.4byte	0x7d
 4661 03e5 00       		.byte	0
 4662 03e6 1A       		.uleb128 0x1a
 4663 03e7 0D020000 		.4byte	.LASF54
 4664 03eb 01       		.byte	0x1
 4665 03ec 7207     		.2byte	0x772
 4666 03ee 91000000 		.4byte	0x91
 4667 03f2 04       		.byte	0x4
 4668 03f3 00       		.byte	0
 4669 03f4 06       		.uleb128 0x6
 4670 03f5 DD020000 		.4byte	.LASF55
 4671 03f9 01       		.byte	0x1
 4672 03fa 7307     		.2byte	0x773
 4673 03fc D0030000 		.4byte	0x3d0
 4674 0400 19       		.uleb128 0x19
 4675 0401 0A       		.byte	0xa
 4676 0402 01       		.byte	0x1
 4677 0403 7607     		.2byte	0x776
 4678 0405 31040000 		.4byte	0x431
 4679 0409 1A       		.uleb128 0x1a
 4680 040a 0B030000 		.4byte	.LASF24
 4681 040e 01       		.byte	0x1
 4682 040f 7707     		.2byte	0x777
 4683 0411 7D000000 		.4byte	0x7d
 4684 0415 00       		.byte	0
 4685 0416 1B       		.uleb128 0x1b
 4686 0417 73726300 		.ascii	"src\000"
 4687 041b 01       		.byte	0x1
 4688 041c 7807     		.2byte	0x778
 4689 041e 6F010000 		.4byte	0x16f
 4690 0422 04       		.byte	0x4
 4691 0423 1A       		.uleb128 0x1a
 4692 0424 0D020000 		.4byte	.LASF54
 4693 0428 01       		.byte	0x1
 4694 0429 7907     		.2byte	0x779
 4695 042b 91000000 		.4byte	0x91
 4696 042f 08       		.byte	0x8
 4697 0430 00       		.byte	0
 4698 0431 06       		.uleb128 0x6
 4699 0432 D6010000 		.4byte	.LASF56
 4700 0436 01       		.byte	0x1
 4701 0437 7A07     		.2byte	0x77a
 4702 0439 00040000 		.4byte	0x400
 4703 043d 1C       		.uleb128 0x1c
 4704 043e F4030000 		.4byte	0x3f4
 4705 0442 4D040000 		.4byte	0x44d
ARM GAS  C:\Users\xavieran\AppData\Local\Temp\ccwd941Y.s 			page 119


 4706 0446 1D       		.uleb128 0x1d
 4707 0447 76000000 		.4byte	0x76
 4708 044b 07       		.byte	0x7
 4709 044c 00       		.byte	0
 4710 044d 15       		.uleb128 0x15
 4711 044e EA020000 		.4byte	.LASF57
 4712 0452 01       		.byte	0x1
 4713 0453 7C07     		.2byte	0x77c
 4714 0455 5F040000 		.4byte	0x45f
 4715 0459 05       		.uleb128 0x5
 4716 045a 03       		.byte	0x3
 4717 045b 00000000 		.4byte	cfg_memset_list.4899
 4718 045f 13       		.uleb128 0x13
 4719 0460 3D040000 		.4byte	0x43d
 4720 0464 15       		.uleb128 0x15
 4721 0465 16030000 		.4byte	.LASF58
 4722 0469 01       		.byte	0x1
 4723 046a 8907     		.2byte	0x789
 4724 046c E1050000 		.4byte	0x5e1
 4725 0470 05       		.uleb128 0x5
 4726 0471 03       		.byte	0x3
 4727 0472 8C0D0000 		.4byte	BS_IOPORT_7_VAL.4900
 4728 0476 15       		.uleb128 0x15
 4729 0477 01040000 		.4byte	.LASF59
 4730 047b 01       		.byte	0x1
 4731 047c 8D07     		.2byte	0x78d
 4732 047e E6050000 		.4byte	0x5e6
 4733 0482 05       		.uleb128 0x5
 4734 0483 03       		.byte	0x3
 4735 0484 840D0000 		.4byte	BS_IDMUX_IRQ_VAL.4901
 4736 0488 15       		.uleb128 0x15
 4737 0489 F5010000 		.4byte	.LASF60
 4738 048d 01       		.byte	0x1
 4739 048e 9107     		.2byte	0x791
 4740 0490 FB050000 		.4byte	0x5fb
 4741 0494 05       		.uleb128 0x5
 4742 0495 03       		.byte	0x3
 4743 0496 040D0000 		.4byte	BS_UDB_1_1_0_CONFIG_VAL.4902
 4744 049a 15       		.uleb128 0x15
 4745 049b 94030000 		.4byte	.LASF61
 4746 049f 01       		.byte	0x1
 4747 04a0 9C07     		.2byte	0x79c
 4748 04a2 10060000 		.4byte	0x610
 4749 04a6 05       		.uleb128 0x5
 4750 04a7 03       		.byte	0x3
 4751 04a8 F40C0000 		.4byte	BS_UCFG_BCTL0_VAL.4903
 4752 04ac 1C       		.uleb128 0x1c
 4753 04ad 31040000 		.4byte	0x431
 4754 04b1 BC040000 		.4byte	0x4bc
 4755 04b5 1D       		.uleb128 0x1d
 4756 04b6 76000000 		.4byte	0x76
 4757 04ba 03       		.byte	0x3
 4758 04bb 00       		.byte	0
 4759 04bc 15       		.uleb128 0x15
 4760 04bd 12040000 		.4byte	.LASF62
 4761 04c1 01       		.byte	0x1
 4762 04c2 9F07     		.2byte	0x79f
ARM GAS  C:\Users\xavieran\AppData\Local\Temp\ccwd941Y.s 			page 120


 4763 04c4 CE040000 		.4byte	0x4ce
 4764 04c8 05       		.uleb128 0x5
 4765 04c9 03       		.byte	0x3
 4766 04ca 30000000 		.4byte	cfg_memcpy_list.4904
 4767 04ce 13       		.uleb128 0x13
 4768 04cf AC040000 		.4byte	0x4ac
 4769 04d3 1E       		.uleb128 0x1e
 4770 04d4 6900     		.ascii	"i\000"
 4771 04d6 01       		.byte	0x1
 4772 04d7 A707     		.2byte	0x7a7
 4773 04d9 86000000 		.4byte	0x86
 4774 04dd 02       		.uleb128 0x2
 4775 04de 91       		.byte	0x91
 4776 04df 77       		.sleb128 -9
 4777 04e0 1F       		.uleb128 0x1f
 4778 04e1 1E000000 		.4byte	.LBB4
 4779 04e5 22000000 		.4byte	.LBE4-.LBB4
 4780 04e9 07050000 		.4byte	0x507
 4781 04ed 1E       		.uleb128 0x1e
 4782 04ee 6D7300   		.ascii	"ms\000"
 4783 04f1 01       		.byte	0x1
 4784 04f2 AC07     		.2byte	0x7ac
 4785 04f4 FB040000 		.4byte	0x4fb
 4786 04f8 02       		.uleb128 0x2
 4787 04f9 91       		.byte	0x91
 4788 04fa 70       		.sleb128 -16
 4789 04fb 0D       		.uleb128 0xd
 4790 04fc 04       		.byte	0x4
 4791 04fd 01050000 		.4byte	0x501
 4792 0501 13       		.uleb128 0x13
 4793 0502 F4030000 		.4byte	0x3f4
 4794 0506 00       		.byte	0
 4795 0507 11       		.uleb128 0x11
 4796 0508 52000000 		.4byte	.LBB5
 4797 050c 34000000 		.4byte	.LBE5-.LBB5
 4798 0510 1E       		.uleb128 0x1e
 4799 0511 6D6300   		.ascii	"mc\000"
 4800 0514 01       		.byte	0x1
 4801 0515 B307     		.2byte	0x7b3
 4802 0517 1E050000 		.4byte	0x51e
 4803 051b 02       		.uleb128 0x2
 4804 051c 91       		.byte	0x91
 4805 051d 6C       		.sleb128 -20
 4806 051e 0D       		.uleb128 0xd
 4807 051f 04       		.byte	0x4
 4808 0520 24050000 		.4byte	0x524
 4809 0524 13       		.uleb128 0x13
 4810 0525 31040000 		.4byte	0x431
 4811 0529 15       		.uleb128 0x15
 4812 052a 26030000 		.4byte	.LASF63
 4813 052e 01       		.byte	0x1
 4814 052f B407     		.2byte	0x7b4
 4815 0531 7D000000 		.4byte	0x7d
 4816 0535 02       		.uleb128 0x2
 4817 0536 91       		.byte	0x91
 4818 0537 68       		.sleb128 -24
 4819 0538 15       		.uleb128 0x15
ARM GAS  C:\Users\xavieran\AppData\Local\Temp\ccwd941Y.s 			page 121


 4820 0539 8D030000 		.4byte	.LASF64
 4821 053d 01       		.byte	0x1
 4822 053e B507     		.2byte	0x7b5
 4823 0540 6F010000 		.4byte	0x16f
 4824 0544 02       		.uleb128 0x2
 4825 0545 91       		.byte	0x91
 4826 0546 64       		.sleb128 -28
 4827 0547 15       		.uleb128 0x15
 4828 0548 8B010000 		.4byte	.LASF65
 4829 054c 01       		.byte	0x1
 4830 054d B607     		.2byte	0x7b6
 4831 054f 91000000 		.4byte	0x91
 4832 0553 02       		.uleb128 0x2
 4833 0554 91       		.byte	0x91
 4834 0555 62       		.sleb128 -30
 4835 0556 00       		.byte	0
 4836 0557 00       		.byte	0
 4837 0558 00       		.byte	0
 4838 0559 1C       		.uleb128 0x1c
 4839 055a 86000000 		.4byte	0x86
 4840 055e 69050000 		.4byte	0x569
 4841 0562 1D       		.uleb128 0x1d
 4842 0563 76000000 		.4byte	0x76
 4843 0567 09       		.byte	0x9
 4844 0568 00       		.byte	0
 4845 0569 13       		.uleb128 0x13
 4846 056a 59050000 		.4byte	0x559
 4847 056e 13       		.uleb128 0x13
 4848 056f 59050000 		.4byte	0x559
 4849 0573 13       		.uleb128 0x13
 4850 0574 59050000 		.4byte	0x559
 4851 0578 13       		.uleb128 0x13
 4852 0579 59050000 		.4byte	0x559
 4853 057d 13       		.uleb128 0x13
 4854 057e 59050000 		.4byte	0x559
 4855 0582 13       		.uleb128 0x13
 4856 0583 59050000 		.4byte	0x559
 4857 0587 1C       		.uleb128 0x1c
 4858 0588 86000000 		.4byte	0x86
 4859 058c 97050000 		.4byte	0x597
 4860 0590 1D       		.uleb128 0x1d
 4861 0591 76000000 		.4byte	0x76
 4862 0595 07       		.byte	0x7
 4863 0596 00       		.byte	0
 4864 0597 13       		.uleb128 0x13
 4865 0598 87050000 		.4byte	0x587
 4866 059c 13       		.uleb128 0x13
 4867 059d 87050000 		.4byte	0x587
 4868 05a1 13       		.uleb128 0x13
 4869 05a2 87050000 		.4byte	0x587
 4870 05a6 1C       		.uleb128 0x1c
 4871 05a7 9C000000 		.4byte	0x9c
 4872 05ab B6050000 		.4byte	0x5b6
 4873 05af 1D       		.uleb128 0x1d
 4874 05b0 76000000 		.4byte	0x76
 4875 05b4 28       		.byte	0x28
 4876 05b5 00       		.byte	0
ARM GAS  C:\Users\xavieran\AppData\Local\Temp\ccwd941Y.s 			page 122


 4877 05b6 13       		.uleb128 0x13
 4878 05b7 A6050000 		.4byte	0x5a6
 4879 05bb 1C       		.uleb128 0x1c
 4880 05bc F8000000 		.4byte	0xf8
 4881 05c0 CC050000 		.4byte	0x5cc
 4882 05c4 20       		.uleb128 0x20
 4883 05c5 76000000 		.4byte	0x76
 4884 05c9 CA05     		.2byte	0x5ca
 4885 05cb 00       		.byte	0
 4886 05cc 13       		.uleb128 0x13
 4887 05cd BB050000 		.4byte	0x5bb
 4888 05d1 1C       		.uleb128 0x1c
 4889 05d2 86000000 		.4byte	0x86
 4890 05d6 E1050000 		.4byte	0x5e1
 4891 05da 1D       		.uleb128 0x1d
 4892 05db 76000000 		.4byte	0x76
 4893 05df 05       		.byte	0x5
 4894 05e0 00       		.byte	0
 4895 05e1 13       		.uleb128 0x13
 4896 05e2 D1050000 		.4byte	0x5d1
 4897 05e6 13       		.uleb128 0x13
 4898 05e7 87050000 		.4byte	0x587
 4899 05eb 1C       		.uleb128 0x1c
 4900 05ec 86000000 		.4byte	0x86
 4901 05f0 FB050000 		.4byte	0x5fb
 4902 05f4 1D       		.uleb128 0x1d
 4903 05f5 76000000 		.4byte	0x76
 4904 05f9 7F       		.byte	0x7f
 4905 05fa 00       		.byte	0
 4906 05fb 13       		.uleb128 0x13
 4907 05fc EB050000 		.4byte	0x5eb
 4908 0600 1C       		.uleb128 0x1c
 4909 0601 86000000 		.4byte	0x86
 4910 0605 10060000 		.4byte	0x610
 4911 0609 1D       		.uleb128 0x1d
 4912 060a 76000000 		.4byte	0x76
 4913 060e 0F       		.byte	0xf
 4914 060f 00       		.byte	0
 4915 0610 13       		.uleb128 0x13
 4916 0611 00060000 		.4byte	0x600
 4917 0615 00       		.byte	0
 4918              		.section	.debug_abbrev,"",%progbits
 4919              	.Ldebug_abbrev0:
 4920 0000 01       		.uleb128 0x1
 4921 0001 11       		.uleb128 0x11
 4922 0002 01       		.byte	0x1
 4923 0003 25       		.uleb128 0x25
 4924 0004 0E       		.uleb128 0xe
 4925 0005 13       		.uleb128 0x13
 4926 0006 0B       		.uleb128 0xb
 4927 0007 03       		.uleb128 0x3
 4928 0008 0E       		.uleb128 0xe
 4929 0009 1B       		.uleb128 0x1b
 4930 000a 0E       		.uleb128 0xe
 4931 000b 55       		.uleb128 0x55
 4932 000c 17       		.uleb128 0x17
 4933 000d 11       		.uleb128 0x11
ARM GAS  C:\Users\xavieran\AppData\Local\Temp\ccwd941Y.s 			page 123


 4934 000e 01       		.uleb128 0x1
 4935 000f 10       		.uleb128 0x10
 4936 0010 17       		.uleb128 0x17
 4937 0011 00       		.byte	0
 4938 0012 00       		.byte	0
 4939 0013 02       		.uleb128 0x2
 4940 0014 24       		.uleb128 0x24
 4941 0015 00       		.byte	0
 4942 0016 0B       		.uleb128 0xb
 4943 0017 0B       		.uleb128 0xb
 4944 0018 3E       		.uleb128 0x3e
 4945 0019 0B       		.uleb128 0xb
 4946 001a 03       		.uleb128 0x3
 4947 001b 08       		.uleb128 0x8
 4948 001c 00       		.byte	0
 4949 001d 00       		.byte	0
 4950 001e 03       		.uleb128 0x3
 4951 001f 16       		.uleb128 0x16
 4952 0020 00       		.byte	0
 4953 0021 03       		.uleb128 0x3
 4954 0022 0E       		.uleb128 0xe
 4955 0023 3A       		.uleb128 0x3a
 4956 0024 0B       		.uleb128 0xb
 4957 0025 3B       		.uleb128 0x3b
 4958 0026 0B       		.uleb128 0xb
 4959 0027 49       		.uleb128 0x49
 4960 0028 13       		.uleb128 0x13
 4961 0029 00       		.byte	0
 4962 002a 00       		.byte	0
 4963 002b 04       		.uleb128 0x4
 4964 002c 24       		.uleb128 0x24
 4965 002d 00       		.byte	0
 4966 002e 0B       		.uleb128 0xb
 4967 002f 0B       		.uleb128 0xb
 4968 0030 3E       		.uleb128 0x3e
 4969 0031 0B       		.uleb128 0xb
 4970 0032 03       		.uleb128 0x3
 4971 0033 0E       		.uleb128 0xe
 4972 0034 00       		.byte	0
 4973 0035 00       		.byte	0
 4974 0036 05       		.uleb128 0x5
 4975 0037 0F       		.uleb128 0xf
 4976 0038 00       		.byte	0
 4977 0039 0B       		.uleb128 0xb
 4978 003a 0B       		.uleb128 0xb
 4979 003b 00       		.byte	0
 4980 003c 00       		.byte	0
 4981 003d 06       		.uleb128 0x6
 4982 003e 16       		.uleb128 0x16
 4983 003f 00       		.byte	0
 4984 0040 03       		.uleb128 0x3
 4985 0041 0E       		.uleb128 0xe
 4986 0042 3A       		.uleb128 0x3a
 4987 0043 0B       		.uleb128 0xb
 4988 0044 3B       		.uleb128 0x3b
 4989 0045 05       		.uleb128 0x5
 4990 0046 49       		.uleb128 0x49
ARM GAS  C:\Users\xavieran\AppData\Local\Temp\ccwd941Y.s 			page 124


 4991 0047 13       		.uleb128 0x13
 4992 0048 00       		.byte	0
 4993 0049 00       		.byte	0
 4994 004a 07       		.uleb128 0x7
 4995 004b 35       		.uleb128 0x35
 4996 004c 00       		.byte	0
 4997 004d 49       		.uleb128 0x49
 4998 004e 13       		.uleb128 0x13
 4999 004f 00       		.byte	0
 5000 0050 00       		.byte	0
 5001 0051 08       		.uleb128 0x8
 5002 0052 13       		.uleb128 0x13
 5003 0053 01       		.byte	0x1
 5004 0054 0B       		.uleb128 0xb
 5005 0055 0B       		.uleb128 0xb
 5006 0056 3A       		.uleb128 0x3a
 5007 0057 0B       		.uleb128 0xb
 5008 0058 3B       		.uleb128 0x3b
 5009 0059 0B       		.uleb128 0xb
 5010 005a 01       		.uleb128 0x1
 5011 005b 13       		.uleb128 0x13
 5012 005c 00       		.byte	0
 5013 005d 00       		.byte	0
 5014 005e 09       		.uleb128 0x9
 5015 005f 0D       		.uleb128 0xd
 5016 0060 00       		.byte	0
 5017 0061 03       		.uleb128 0x3
 5018 0062 0E       		.uleb128 0xe
 5019 0063 3A       		.uleb128 0x3a
 5020 0064 0B       		.uleb128 0xb
 5021 0065 3B       		.uleb128 0x3b
 5022 0066 0B       		.uleb128 0xb
 5023 0067 49       		.uleb128 0x49
 5024 0068 13       		.uleb128 0x13
 5025 0069 38       		.uleb128 0x38
 5026 006a 0B       		.uleb128 0xb
 5027 006b 00       		.byte	0
 5028 006c 00       		.byte	0
 5029 006d 0A       		.uleb128 0xa
 5030 006e 2E       		.uleb128 0x2e
 5031 006f 01       		.byte	0x1
 5032 0070 03       		.uleb128 0x3
 5033 0071 0E       		.uleb128 0xe
 5034 0072 3A       		.uleb128 0x3a
 5035 0073 0B       		.uleb128 0xb
 5036 0074 3B       		.uleb128 0x3b
 5037 0075 0B       		.uleb128 0xb
 5038 0076 27       		.uleb128 0x27
 5039 0077 19       		.uleb128 0x19
 5040 0078 11       		.uleb128 0x11
 5041 0079 01       		.uleb128 0x1
 5042 007a 12       		.uleb128 0x12
 5043 007b 06       		.uleb128 0x6
 5044 007c 40       		.uleb128 0x40
 5045 007d 18       		.uleb128 0x18
 5046 007e 9642     		.uleb128 0x2116
 5047 0080 19       		.uleb128 0x19
ARM GAS  C:\Users\xavieran\AppData\Local\Temp\ccwd941Y.s 			page 125


 5048 0081 01       		.uleb128 0x1
 5049 0082 13       		.uleb128 0x13
 5050 0083 00       		.byte	0
 5051 0084 00       		.byte	0
 5052 0085 0B       		.uleb128 0xb
 5053 0086 05       		.uleb128 0x5
 5054 0087 00       		.byte	0
 5055 0088 03       		.uleb128 0x3
 5056 0089 08       		.uleb128 0x8
 5057 008a 3A       		.uleb128 0x3a
 5058 008b 0B       		.uleb128 0xb
 5059 008c 3B       		.uleb128 0x3b
 5060 008d 0B       		.uleb128 0xb
 5061 008e 49       		.uleb128 0x49
 5062 008f 13       		.uleb128 0x13
 5063 0090 02       		.uleb128 0x2
 5064 0091 18       		.uleb128 0x18
 5065 0092 00       		.byte	0
 5066 0093 00       		.byte	0
 5067 0094 0C       		.uleb128 0xc
 5068 0095 05       		.uleb128 0x5
 5069 0096 00       		.byte	0
 5070 0097 03       		.uleb128 0x3
 5071 0098 0E       		.uleb128 0xe
 5072 0099 3A       		.uleb128 0x3a
 5073 009a 0B       		.uleb128 0xb
 5074 009b 3B       		.uleb128 0x3b
 5075 009c 0B       		.uleb128 0xb
 5076 009d 49       		.uleb128 0x49
 5077 009e 13       		.uleb128 0x13
 5078 009f 02       		.uleb128 0x2
 5079 00a0 18       		.uleb128 0x18
 5080 00a1 00       		.byte	0
 5081 00a2 00       		.byte	0
 5082 00a3 0D       		.uleb128 0xd
 5083 00a4 0F       		.uleb128 0xf
 5084 00a5 00       		.byte	0
 5085 00a6 0B       		.uleb128 0xb
 5086 00a7 0B       		.uleb128 0xb
 5087 00a8 49       		.uleb128 0x49
 5088 00a9 13       		.uleb128 0x13
 5089 00aa 00       		.byte	0
 5090 00ab 00       		.byte	0
 5091 00ac 0E       		.uleb128 0xe
 5092 00ad 26       		.uleb128 0x26
 5093 00ae 00       		.byte	0
 5094 00af 00       		.byte	0
 5095 00b0 00       		.byte	0
 5096 00b1 0F       		.uleb128 0xf
 5097 00b2 2E       		.uleb128 0x2e
 5098 00b3 01       		.byte	0x1
 5099 00b4 03       		.uleb128 0x3
 5100 00b5 0E       		.uleb128 0xe
 5101 00b6 3A       		.uleb128 0x3a
 5102 00b7 0B       		.uleb128 0xb
 5103 00b8 3B       		.uleb128 0x3b
 5104 00b9 0B       		.uleb128 0xb
ARM GAS  C:\Users\xavieran\AppData\Local\Temp\ccwd941Y.s 			page 126


 5105 00ba 27       		.uleb128 0x27
 5106 00bb 19       		.uleb128 0x19
 5107 00bc 11       		.uleb128 0x11
 5108 00bd 01       		.uleb128 0x1
 5109 00be 12       		.uleb128 0x12
 5110 00bf 06       		.uleb128 0x6
 5111 00c0 40       		.uleb128 0x40
 5112 00c1 18       		.uleb128 0x18
 5113 00c2 9742     		.uleb128 0x2117
 5114 00c4 19       		.uleb128 0x19
 5115 00c5 01       		.uleb128 0x1
 5116 00c6 13       		.uleb128 0x13
 5117 00c7 00       		.byte	0
 5118 00c8 00       		.byte	0
 5119 00c9 10       		.uleb128 0x10
 5120 00ca 34       		.uleb128 0x34
 5121 00cb 00       		.byte	0
 5122 00cc 03       		.uleb128 0x3
 5123 00cd 08       		.uleb128 0x8
 5124 00ce 3A       		.uleb128 0x3a
 5125 00cf 0B       		.uleb128 0xb
 5126 00d0 3B       		.uleb128 0x3b
 5127 00d1 0B       		.uleb128 0xb
 5128 00d2 49       		.uleb128 0x49
 5129 00d3 13       		.uleb128 0x13
 5130 00d4 02       		.uleb128 0x2
 5131 00d5 18       		.uleb128 0x18
 5132 00d6 00       		.byte	0
 5133 00d7 00       		.byte	0
 5134 00d8 11       		.uleb128 0x11
 5135 00d9 0B       		.uleb128 0xb
 5136 00da 01       		.byte	0x1
 5137 00db 11       		.uleb128 0x11
 5138 00dc 01       		.uleb128 0x1
 5139 00dd 12       		.uleb128 0x12
 5140 00de 06       		.uleb128 0x6
 5141 00df 00       		.byte	0
 5142 00e0 00       		.byte	0
 5143 00e1 12       		.uleb128 0x12
 5144 00e2 34       		.uleb128 0x34
 5145 00e3 00       		.byte	0
 5146 00e4 03       		.uleb128 0x3
 5147 00e5 0E       		.uleb128 0xe
 5148 00e6 3A       		.uleb128 0x3a
 5149 00e7 0B       		.uleb128 0xb
 5150 00e8 3B       		.uleb128 0x3b
 5151 00e9 0B       		.uleb128 0xb
 5152 00ea 49       		.uleb128 0x49
 5153 00eb 13       		.uleb128 0x13
 5154 00ec 02       		.uleb128 0x2
 5155 00ed 18       		.uleb128 0x18
 5156 00ee 00       		.byte	0
 5157 00ef 00       		.byte	0
 5158 00f0 13       		.uleb128 0x13
 5159 00f1 26       		.uleb128 0x26
 5160 00f2 00       		.byte	0
 5161 00f3 49       		.uleb128 0x49
ARM GAS  C:\Users\xavieran\AppData\Local\Temp\ccwd941Y.s 			page 127


 5162 00f4 13       		.uleb128 0x13
 5163 00f5 00       		.byte	0
 5164 00f6 00       		.byte	0
 5165 00f7 14       		.uleb128 0x14
 5166 00f8 2E       		.uleb128 0x2e
 5167 00f9 01       		.byte	0x1
 5168 00fa 03       		.uleb128 0x3
 5169 00fb 0E       		.uleb128 0xe
 5170 00fc 3A       		.uleb128 0x3a
 5171 00fd 0B       		.uleb128 0xb
 5172 00fe 3B       		.uleb128 0x3b
 5173 00ff 05       		.uleb128 0x5
 5174 0100 27       		.uleb128 0x27
 5175 0101 19       		.uleb128 0x19
 5176 0102 11       		.uleb128 0x11
 5177 0103 01       		.uleb128 0x1
 5178 0104 12       		.uleb128 0x12
 5179 0105 06       		.uleb128 0x6
 5180 0106 40       		.uleb128 0x40
 5181 0107 18       		.uleb128 0x18
 5182 0108 9742     		.uleb128 0x2117
 5183 010a 19       		.uleb128 0x19
 5184 010b 01       		.uleb128 0x1
 5185 010c 13       		.uleb128 0x13
 5186 010d 00       		.byte	0
 5187 010e 00       		.byte	0
 5188 010f 15       		.uleb128 0x15
 5189 0110 34       		.uleb128 0x34
 5190 0111 00       		.byte	0
 5191 0112 03       		.uleb128 0x3
 5192 0113 0E       		.uleb128 0xe
 5193 0114 3A       		.uleb128 0x3a
 5194 0115 0B       		.uleb128 0xb
 5195 0116 3B       		.uleb128 0x3b
 5196 0117 05       		.uleb128 0x5
 5197 0118 49       		.uleb128 0x49
 5198 0119 13       		.uleb128 0x13
 5199 011a 02       		.uleb128 0x2
 5200 011b 18       		.uleb128 0x18
 5201 011c 00       		.byte	0
 5202 011d 00       		.byte	0
 5203 011e 16       		.uleb128 0x16
 5204 011f 2E       		.uleb128 0x2e
 5205 0120 01       		.byte	0x1
 5206 0121 3F       		.uleb128 0x3f
 5207 0122 19       		.uleb128 0x19
 5208 0123 03       		.uleb128 0x3
 5209 0124 0E       		.uleb128 0xe
 5210 0125 3A       		.uleb128 0x3a
 5211 0126 0B       		.uleb128 0xb
 5212 0127 3B       		.uleb128 0x3b
 5213 0128 05       		.uleb128 0x5
 5214 0129 27       		.uleb128 0x27
 5215 012a 19       		.uleb128 0x19
 5216 012b 11       		.uleb128 0x11
 5217 012c 01       		.uleb128 0x1
 5218 012d 12       		.uleb128 0x12
ARM GAS  C:\Users\xavieran\AppData\Local\Temp\ccwd941Y.s 			page 128


 5219 012e 06       		.uleb128 0x6
 5220 012f 40       		.uleb128 0x40
 5221 0130 18       		.uleb128 0x18
 5222 0131 9742     		.uleb128 0x2117
 5223 0133 19       		.uleb128 0x19
 5224 0134 01       		.uleb128 0x1
 5225 0135 13       		.uleb128 0x13
 5226 0136 00       		.byte	0
 5227 0137 00       		.byte	0
 5228 0138 17       		.uleb128 0x17
 5229 0139 05       		.uleb128 0x5
 5230 013a 00       		.byte	0
 5231 013b 03       		.uleb128 0x3
 5232 013c 0E       		.uleb128 0xe
 5233 013d 3A       		.uleb128 0x3a
 5234 013e 0B       		.uleb128 0xb
 5235 013f 3B       		.uleb128 0x3b
 5236 0140 05       		.uleb128 0x5
 5237 0141 49       		.uleb128 0x49
 5238 0142 13       		.uleb128 0x13
 5239 0143 02       		.uleb128 0x2
 5240 0144 18       		.uleb128 0x18
 5241 0145 00       		.byte	0
 5242 0146 00       		.byte	0
 5243 0147 18       		.uleb128 0x18
 5244 0148 2E       		.uleb128 0x2e
 5245 0149 01       		.byte	0x1
 5246 014a 3F       		.uleb128 0x3f
 5247 014b 19       		.uleb128 0x19
 5248 014c 03       		.uleb128 0x3
 5249 014d 0E       		.uleb128 0xe
 5250 014e 3A       		.uleb128 0x3a
 5251 014f 0B       		.uleb128 0xb
 5252 0150 3B       		.uleb128 0x3b
 5253 0151 05       		.uleb128 0x5
 5254 0152 27       		.uleb128 0x27
 5255 0153 19       		.uleb128 0x19
 5256 0154 11       		.uleb128 0x11
 5257 0155 01       		.uleb128 0x1
 5258 0156 12       		.uleb128 0x12
 5259 0157 06       		.uleb128 0x6
 5260 0158 40       		.uleb128 0x40
 5261 0159 18       		.uleb128 0x18
 5262 015a 9642     		.uleb128 0x2116
 5263 015c 19       		.uleb128 0x19
 5264 015d 01       		.uleb128 0x1
 5265 015e 13       		.uleb128 0x13
 5266 015f 00       		.byte	0
 5267 0160 00       		.byte	0
 5268 0161 19       		.uleb128 0x19
 5269 0162 13       		.uleb128 0x13
 5270 0163 01       		.byte	0x1
 5271 0164 0B       		.uleb128 0xb
 5272 0165 0B       		.uleb128 0xb
 5273 0166 3A       		.uleb128 0x3a
 5274 0167 0B       		.uleb128 0xb
 5275 0168 3B       		.uleb128 0x3b
ARM GAS  C:\Users\xavieran\AppData\Local\Temp\ccwd941Y.s 			page 129


 5276 0169 05       		.uleb128 0x5
 5277 016a 01       		.uleb128 0x1
 5278 016b 13       		.uleb128 0x13
 5279 016c 00       		.byte	0
 5280 016d 00       		.byte	0
 5281 016e 1A       		.uleb128 0x1a
 5282 016f 0D       		.uleb128 0xd
 5283 0170 00       		.byte	0
 5284 0171 03       		.uleb128 0x3
 5285 0172 0E       		.uleb128 0xe
 5286 0173 3A       		.uleb128 0x3a
 5287 0174 0B       		.uleb128 0xb
 5288 0175 3B       		.uleb128 0x3b
 5289 0176 05       		.uleb128 0x5
 5290 0177 49       		.uleb128 0x49
 5291 0178 13       		.uleb128 0x13
 5292 0179 38       		.uleb128 0x38
 5293 017a 0B       		.uleb128 0xb
 5294 017b 00       		.byte	0
 5295 017c 00       		.byte	0
 5296 017d 1B       		.uleb128 0x1b
 5297 017e 0D       		.uleb128 0xd
 5298 017f 00       		.byte	0
 5299 0180 03       		.uleb128 0x3
 5300 0181 08       		.uleb128 0x8
 5301 0182 3A       		.uleb128 0x3a
 5302 0183 0B       		.uleb128 0xb
 5303 0184 3B       		.uleb128 0x3b
 5304 0185 05       		.uleb128 0x5
 5305 0186 49       		.uleb128 0x49
 5306 0187 13       		.uleb128 0x13
 5307 0188 38       		.uleb128 0x38
 5308 0189 0B       		.uleb128 0xb
 5309 018a 00       		.byte	0
 5310 018b 00       		.byte	0
 5311 018c 1C       		.uleb128 0x1c
 5312 018d 01       		.uleb128 0x1
 5313 018e 01       		.byte	0x1
 5314 018f 49       		.uleb128 0x49
 5315 0190 13       		.uleb128 0x13
 5316 0191 01       		.uleb128 0x1
 5317 0192 13       		.uleb128 0x13
 5318 0193 00       		.byte	0
 5319 0194 00       		.byte	0
 5320 0195 1D       		.uleb128 0x1d
 5321 0196 21       		.uleb128 0x21
 5322 0197 00       		.byte	0
 5323 0198 49       		.uleb128 0x49
 5324 0199 13       		.uleb128 0x13
 5325 019a 2F       		.uleb128 0x2f
 5326 019b 0B       		.uleb128 0xb
 5327 019c 00       		.byte	0
 5328 019d 00       		.byte	0
 5329 019e 1E       		.uleb128 0x1e
 5330 019f 34       		.uleb128 0x34
 5331 01a0 00       		.byte	0
 5332 01a1 03       		.uleb128 0x3
ARM GAS  C:\Users\xavieran\AppData\Local\Temp\ccwd941Y.s 			page 130


 5333 01a2 08       		.uleb128 0x8
 5334 01a3 3A       		.uleb128 0x3a
 5335 01a4 0B       		.uleb128 0xb
 5336 01a5 3B       		.uleb128 0x3b
 5337 01a6 05       		.uleb128 0x5
 5338 01a7 49       		.uleb128 0x49
 5339 01a8 13       		.uleb128 0x13
 5340 01a9 02       		.uleb128 0x2
 5341 01aa 18       		.uleb128 0x18
 5342 01ab 00       		.byte	0
 5343 01ac 00       		.byte	0
 5344 01ad 1F       		.uleb128 0x1f
 5345 01ae 0B       		.uleb128 0xb
 5346 01af 01       		.byte	0x1
 5347 01b0 11       		.uleb128 0x11
 5348 01b1 01       		.uleb128 0x1
 5349 01b2 12       		.uleb128 0x12
 5350 01b3 06       		.uleb128 0x6
 5351 01b4 01       		.uleb128 0x1
 5352 01b5 13       		.uleb128 0x13
 5353 01b6 00       		.byte	0
 5354 01b7 00       		.byte	0
 5355 01b8 20       		.uleb128 0x20
 5356 01b9 21       		.uleb128 0x21
 5357 01ba 00       		.byte	0
 5358 01bb 49       		.uleb128 0x49
 5359 01bc 13       		.uleb128 0x13
 5360 01bd 2F       		.uleb128 0x2f
 5361 01be 05       		.uleb128 0x5
 5362 01bf 00       		.byte	0
 5363 01c0 00       		.byte	0
 5364 01c1 00       		.byte	0
 5365              		.section	.debug_aranges,"",%progbits
 5366 0000 5C000000 		.4byte	0x5c
 5367 0004 0200     		.2byte	0x2
 5368 0006 00000000 		.4byte	.Ldebug_info0
 5369 000a 04       		.byte	0x4
 5370 000b 00       		.byte	0
 5371 000c 0000     		.2byte	0
 5372 000e 0000     		.2byte	0
 5373 0010 00000000 		.4byte	.LFB0
 5374 0014 1A000000 		.4byte	.LFE0-.LFB0
 5375 0018 00000000 		.4byte	.LFB1
 5376 001c 1C000000 		.4byte	.LFE1-.LFB1
 5377 0020 00000000 		.4byte	.LFB2
 5378 0024 1C000000 		.4byte	.LFE2-.LFB2
 5379 0028 00000000 		.4byte	.LFB3
 5380 002c 0C000000 		.4byte	.LFE3-.LFB3
 5381 0030 00000000 		.4byte	.LFB4
 5382 0034 72000000 		.4byte	.LFE4-.LFB4
 5383 0038 00000000 		.4byte	.LFB5
 5384 003c 6C010000 		.4byte	.LFE5-.LFB5
 5385 0040 00000000 		.4byte	.LFB6
 5386 0044 44000000 		.4byte	.LFE6-.LFB6
 5387 0048 00000000 		.4byte	.LFB7
 5388 004c 28000000 		.4byte	.LFE7-.LFB7
 5389 0050 00000000 		.4byte	.LFB8
ARM GAS  C:\Users\xavieran\AppData\Local\Temp\ccwd941Y.s 			page 131


 5390 0054 E4010000 		.4byte	.LFE8-.LFB8
 5391 0058 00000000 		.4byte	0
 5392 005c 00000000 		.4byte	0
 5393              		.section	.debug_ranges,"",%progbits
 5394              	.Ldebug_ranges0:
 5395 0000 00000000 		.4byte	.LFB0
 5396 0004 1A000000 		.4byte	.LFE0
 5397 0008 00000000 		.4byte	.LFB1
 5398 000c 1C000000 		.4byte	.LFE1
 5399 0010 00000000 		.4byte	.LFB2
 5400 0014 1C000000 		.4byte	.LFE2
 5401 0018 00000000 		.4byte	.LFB3
 5402 001c 0C000000 		.4byte	.LFE3
 5403 0020 00000000 		.4byte	.LFB4
 5404 0024 72000000 		.4byte	.LFE4
 5405 0028 00000000 		.4byte	.LFB5
 5406 002c 6C010000 		.4byte	.LFE5
 5407 0030 00000000 		.4byte	.LFB6
 5408 0034 44000000 		.4byte	.LFE6
 5409 0038 00000000 		.4byte	.LFB7
 5410 003c 28000000 		.4byte	.LFE7
 5411 0040 00000000 		.4byte	.LFB8
 5412 0044 E4010000 		.4byte	.LFE8
 5413 0048 00000000 		.4byte	0
 5414 004c 00000000 		.4byte	0
 5415              		.section	.debug_line,"",%progbits
 5416              	.Ldebug_line0:
 5417 0000 23020000 		.section	.debug_str,"MS",%progbits,1
 5417      0200CD00 
 5417      00000201 
 5417      FB0E0D00 
 5417      01010101 
 5418              	.LASF13:
 5419 0000 75696E74 		.ascii	"uint16\000"
 5419      313600
 5420              	.LASF31:
 5421 0007 62617365 		.ascii	"baseAddr\000"
 5421      41646472 
 5421      00
 5422              	.LASF11:
 5423 0010 73697A65 		.ascii	"size_t\000"
 5423      5F7400
 5424              	.LASF26:
 5425 0017 4379436C 		.ascii	"CyClockStartupError\000"
 5425      6F636B53 
 5425      74617274 
 5425      75704572 
 5425      726F7200 
 5426              	.LASF43:
 5427 002b 42535F49 		.ascii	"BS_IOPINS0_7_VAL\000"
 5427      4F50494E 
 5427      53305F37 
 5427      5F56414C 
 5427      00
 5428              	.LASF30:
 5429 003c 64617461 		.ascii	"data_table\000"
 5429      5F746162 
ARM GAS  C:\Users\xavieran\AppData\Local\Temp\ccwd941Y.s 			page 132


 5429      6C6500
 5430              	.LASF8:
 5431 0047 6C6F6E67 		.ascii	"long long unsigned int\000"
 5431      206C6F6E 
 5431      6720756E 
 5431      7369676E 
 5431      65642069 
 5432              	.LASF29:
 5433 005e 61646472 		.ascii	"addr_table\000"
 5433      5F746162 
 5433      6C6500
 5434              	.LASF52:
 5435 0069 63795F63 		.ascii	"cy_cfg_data_table\000"
 5435      66675F64 
 5435      6174615F 
 5435      7461626C 
 5435      6500
 5436              	.LASF36:
 5437 007b 416E616C 		.ascii	"AnalogSetDefault\000"
 5437      6F675365 
 5437      74446566 
 5437      61756C74 
 5437      00
 5438              	.LASF7:
 5439 008c 6C6F6E67 		.ascii	"long long int\000"
 5439      206C6F6E 
 5439      6720696E 
 5439      7400
 5440              	.LASF1:
 5441 009a 7369676E 		.ascii	"signed char\000"
 5441      65642063 
 5441      68617200 
 5442              	.LASF51:
 5443 00a6 63795F63 		.ascii	"cy_cfg_addr_table\000"
 5443      66675F61 
 5443      6464725F 
 5443      7461626C 
 5443      6500
 5444              	.LASF22:
 5445 00b8 43594D45 		.ascii	"CYMEMZERO\000"
 5445      4D5A4552 
 5445      4F00
 5446              	.LASF33:
 5447 00c2 436C6F63 		.ascii	"ClockSetup\000"
 5447      6B536574 
 5447      757000
 5448              	.LASF68:
 5449 00cd 433A5C55 		.ascii	"C:\\Users\\xavieran\\Desktop\\ECE3091\\WorkingCamer"
 5449      73657273 
 5449      5C786176 
 5449      69657261 
 5449      6E5C4465 
 5450 00fb 615C4361 		.ascii	"a\\Camera_vis\\camera_test.cydsn\000"
 5450      6D657261 
 5450      5F766973 
 5450      5C63616D 
 5450      6572615F 
ARM GAS  C:\Users\xavieran\AppData\Local\Temp\ccwd941Y.s 			page 133


 5451              	.LASF27:
 5452 011a 6572726F 		.ascii	"errorCode\000"
 5452      72436F64 
 5452      6500
 5453              	.LASF48:
 5454 0124 42535F49 		.ascii	"BS_IOPINS0_4_VAL\000"
 5454      4F50494E 
 5454      53305F34 
 5454      5F56414C 
 5454      00
 5455              	.LASF5:
 5456 0135 6C6F6E67 		.ascii	"long int\000"
 5456      20696E74 
 5456      00
 5457              	.LASF18:
 5458 013e 72656731 		.ascii	"reg16\000"
 5458      3600
 5459              	.LASF12:
 5460 0144 75696E74 		.ascii	"uint8\000"
 5460      3800
 5461              	.LASF16:
 5462 014a 646F7562 		.ascii	"double\000"
 5462      6C6500
 5463              	.LASF14:
 5464 0151 75696E74 		.ascii	"uint32\000"
 5464      333200
 5465              	.LASF32:
 5466 0158 636F756E 		.ascii	"count\000"
 5466      7400
 5467              	.LASF39:
 5468 015e 72656756 		.ascii	"regValue\000"
 5468      616C7565 
 5468      00
 5469              	.LASF45:
 5470 0167 42535F49 		.ascii	"BS_IOPINS0_1_VAL\000"
 5470      4F50494E 
 5470      53305F31 
 5470      5F56414C 
 5470      00
 5471              	.LASF20:
 5472 0178 76616C75 		.ascii	"value\000"
 5472      6500
 5473              	.LASF0:
 5474 017e 756E7369 		.ascii	"unsigned int\000"
 5474      676E6564 
 5474      20696E74 
 5474      00
 5475              	.LASF65:
 5476 018b 6E756D42 		.ascii	"numBytes\000"
 5476      79746573 
 5476      00
 5477              	.LASF67:
 5478 0194 2E5C4765 		.ascii	".\\Generated_Source\\PSoC5\\cyfitter_cfg.c\000"
 5478      6E657261 
 5478      7465645F 
 5478      536F7572 
 5478      63655C50 
ARM GAS  C:\Users\xavieran\AppData\Local\Temp\ccwd941Y.s 			page 134


 5479              	.LASF6:
 5480 01bc 6C6F6E67 		.ascii	"long unsigned int\000"
 5480      20756E73 
 5480      69676E65 
 5480      6420696E 
 5480      7400
 5481              	.LASF34:
 5482 01ce 74696D65 		.ascii	"timeout\000"
 5482      6F757400 
 5483              	.LASF56:
 5484 01d6 6366675F 		.ascii	"cfg_memcpy_t\000"
 5484      6D656D63 
 5484      70795F74 
 5484      00
 5485              	.LASF28:
 5486 01e3 6366675F 		.ascii	"cfg_write_bytes32\000"
 5486      77726974 
 5486      655F6279 
 5486      74657333 
 5486      3200
 5487              	.LASF60:
 5488 01f5 42535F55 		.ascii	"BS_UDB_1_1_0_CONFIG_VAL\000"
 5488      44425F31 
 5488      5F315F30 
 5488      5F434F4E 
 5488      4649475F 
 5489              	.LASF54:
 5490 020d 73697A65 		.ascii	"size\000"
 5490      00
 5491              	.LASF4:
 5492 0212 73686F72 		.ascii	"short unsigned int\000"
 5492      7420756E 
 5492      7369676E 
 5492      65642069 
 5492      6E7400
 5493              	.LASF50:
 5494 0225 42535F49 		.ascii	"BS_IOPINS0_6_VAL\000"
 5494      4F50494E 
 5494      53305F36 
 5494      5F56414C 
 5494      00
 5495              	.LASF25:
 5496 0236 4359434F 		.ascii	"CYCONFIGCPYCODE\000"
 5496      4E464947 
 5496      43505943 
 5496      4F444500 
 5497              	.LASF9:
 5498 0246 73697A65 		.ascii	"sizetype\000"
 5498      74797065 
 5498      00
 5499              	.LASF37:
 5500 024f 62675F78 		.ascii	"bg_xover_inl_trim\000"
 5500      6F766572 
 5500      5F696E6C 
 5500      5F747269 
 5500      6D00
 5501              	.LASF66:
ARM GAS  C:\Users\xavieran\AppData\Local\Temp\ccwd941Y.s 			page 135


 5502 0261 474E5520 		.ascii	"GNU C 4.8.4 20140526 (release) [ARM/embedded-4_8-br"
 5502      4320342E 
 5502      382E3420 
 5502      32303134 
 5502      30353236 
 5503 0294 616E6368 		.ascii	"anch revision 211358] -mcpu=cortex-m3 -mthumb -g -O"
 5503      20726576 
 5503      6973696F 
 5503      6E203231 
 5503      31333538 
 5504 02c7 30202D66 		.ascii	"0 -ffunction-sections\000"
 5504      66756E63 
 5504      74696F6E 
 5504      2D736563 
 5504      74696F6E 
 5505              	.LASF55:
 5506 02dd 6366675F 		.ascii	"cfg_memset_t\000"
 5506      6D656D73 
 5506      65745F74 
 5506      00
 5507              	.LASF57:
 5508 02ea 6366675F 		.ascii	"cfg_memset_list\000"
 5508      6D656D73 
 5508      65745F6C 
 5508      69737400 
 5509              	.LASF47:
 5510 02fa 42535F49 		.ascii	"BS_IOPINS0_3_VAL\000"
 5510      4F50494E 
 5510      53305F33 
 5510      5F56414C 
 5510      00
 5511              	.LASF24:
 5512 030b 64657374 		.ascii	"dest\000"
 5512      00
 5513              	.LASF15:
 5514 0310 666C6F61 		.ascii	"float\000"
 5514      7400
 5515              	.LASF58:
 5516 0316 42535F49 		.ascii	"BS_IOPORT_7_VAL\000"
 5516      4F504F52 
 5516      545F375F 
 5516      56414C00 
 5517              	.LASF63:
 5518 0326 64657374 		.ascii	"destPtr\000"
 5518      50747200 
 5519              	.LASF17:
 5520 032e 72656738 		.ascii	"reg8\000"
 5520      00
 5521              	.LASF2:
 5522 0333 756E7369 		.ascii	"unsigned char\000"
 5522      676E6564 
 5522      20636861 
 5522      7200
 5523              	.LASF3:
 5524 0341 73686F72 		.ascii	"short int\000"
 5524      7420696E 
 5524      7400
ARM GAS  C:\Users\xavieran\AppData\Local\Temp\ccwd941Y.s 			page 136


 5525              	.LASF42:
 5526 034b 42535F49 		.ascii	"BS_IOPINS0_0_VAL\000"
 5526      4F50494E 
 5526      53305F30 
 5526      5F56414C 
 5526      00
 5527              	.LASF35:
 5528 035c 706C6C4C 		.ascii	"pllLock\000"
 5528      6F636B00 
 5529              	.LASF44:
 5530 0364 42535F49 		.ascii	"BS_IOPINS0_8_VAL\000"
 5530      4F50494E 
 5530      53305F38 
 5530      5F56414C 
 5530      00
 5531              	.LASF21:
 5532 0375 63795F63 		.ascii	"cy_cfg_addrvalue_t\000"
 5532      66675F61 
 5532      64647276 
 5532      616C7565 
 5532      5F7400
 5533              	.LASF10:
 5534 0388 63686172 		.ascii	"char\000"
 5534      00
 5535              	.LASF64:
 5536 038d 73726350 		.ascii	"srcPtr\000"
 5536      747200
 5537              	.LASF61:
 5538 0394 42535F55 		.ascii	"BS_UCFG_BCTL0_VAL\000"
 5538      4346475F 
 5538      4243544C 
 5538      305F5641 
 5538      4C00
 5539              	.LASF40:
 5540 03a6 53657441 		.ascii	"SetAnalogRoutingPumps\000"
 5540      6E616C6F 
 5540      67526F75 
 5540      74696E67 
 5540      50756D70 
 5541              	.LASF19:
 5542 03bc 6F666673 		.ascii	"offset\000"
 5542      657400
 5543              	.LASF49:
 5544 03c3 42535F49 		.ascii	"BS_IOPINS0_5_VAL\000"
 5544      4F50494E 
 5544      53305F35 
 5544      5F56414C 
 5544      00
 5545              	.LASF38:
 5546 03d4 656E6162 		.ascii	"enabled\000"
 5546      6C656400 
 5547              	.LASF23:
 5548 03dc 4359434F 		.ascii	"CYCONFIGCPY\000"
 5548      4E464947 
 5548      43505900 
 5549              	.LASF53:
 5550 03e8 61646472 		.ascii	"address\000"
ARM GAS  C:\Users\xavieran\AppData\Local\Temp\ccwd941Y.s 			page 137


 5550      65737300 
 5551              	.LASF46:
 5552 03f0 42535F49 		.ascii	"BS_IOPINS0_2_VAL\000"
 5552      4F50494E 
 5552      53305F32 
 5552      5F56414C 
 5552      00
 5553              	.LASF59:
 5554 0401 42535F49 		.ascii	"BS_IDMUX_IRQ_VAL\000"
 5554      444D5558 
 5554      5F495251 
 5554      5F56414C 
 5554      00
 5555              	.LASF62:
 5556 0412 6366675F 		.ascii	"cfg_memcpy_list\000"
 5556      6D656D63 
 5556      70795F6C 
 5556      69737400 
 5557              	.LASF41:
 5558 0422 63796669 		.ascii	"cyfitter_cfg\000"
 5558      74746572 
 5558      5F636667 
 5558      00
 5559              		.ident	"GCC: (GNU Tools for ARM Embedded Processors) 4.8.4 20140526 (release) [ARM/embedded-4_8-br
