ARM GAS  C:\Users\xavieran\AppData\Local\Temp\ccKNpO1j.s 			page 1


   1              		.syntax unified
   2              		.cpu cortex-m3
   3              		.fpu softvfp
   4              		.eabi_attribute 20, 1
   5              		.eabi_attribute 21, 1
   6              		.eabi_attribute 23, 3
   7              		.eabi_attribute 24, 1
   8              		.eabi_attribute 25, 1
   9              		.eabi_attribute 26, 1
  10              		.eabi_attribute 30, 6
  11              		.eabi_attribute 34, 1
  12              		.eabi_attribute 18, 4
  13              		.thumb
  14              		.file	"HC_PWM.c"
  15              		.text
  16              	.Ltext0:
  17              		.cfi_sections	.debug_frame
  18              		.global	HC_PWM_initVar
  19              		.bss
  20              		.type	HC_PWM_initVar, %object
  21              		.size	HC_PWM_initVar, 1
  22              	HC_PWM_initVar:
  23 0000 00       		.space	1
  24              		.section	.text.HC_PWM_Start,"ax",%progbits
  25              		.align	2
  26              		.global	HC_PWM_Start
  27              		.thumb
  28              		.thumb_func
  29              		.type	HC_PWM_Start, %function
  30              	HC_PWM_Start:
  31              	.LFB0:
  32              		.file 1 ".\\Generated_Source\\PSoC5\\HC_PWM.c"
   1:.\Generated_Source\PSoC5/HC_PWM.c **** /*******************************************************************************
   2:.\Generated_Source\PSoC5/HC_PWM.c **** * File Name: HC_PWM.c
   3:.\Generated_Source\PSoC5/HC_PWM.c **** * Version 3.30
   4:.\Generated_Source\PSoC5/HC_PWM.c **** *
   5:.\Generated_Source\PSoC5/HC_PWM.c **** * Description:
   6:.\Generated_Source\PSoC5/HC_PWM.c **** *  The PWM User Module consist of an 8 or 16-bit counter with two 8 or 16-bit
   7:.\Generated_Source\PSoC5/HC_PWM.c **** *  comparitors. Each instance of this user module is capable of generating
   8:.\Generated_Source\PSoC5/HC_PWM.c **** *  two PWM outputs with the same period. The pulse width is selectable between
   9:.\Generated_Source\PSoC5/HC_PWM.c **** *  1 and 255/65535. The period is selectable between 2 and 255/65536 clocks.
  10:.\Generated_Source\PSoC5/HC_PWM.c **** *  The compare value output may be configured to be active when the present
  11:.\Generated_Source\PSoC5/HC_PWM.c **** *  counter is less than or less than/equal to the compare value.
  12:.\Generated_Source\PSoC5/HC_PWM.c **** *  A terminal count output is also provided. It generates a pulse one clock
  13:.\Generated_Source\PSoC5/HC_PWM.c **** *  width wide when the counter is equal to zero.
  14:.\Generated_Source\PSoC5/HC_PWM.c **** *
  15:.\Generated_Source\PSoC5/HC_PWM.c **** * Note:
  16:.\Generated_Source\PSoC5/HC_PWM.c **** *
  17:.\Generated_Source\PSoC5/HC_PWM.c **** *******************************************************************************
  18:.\Generated_Source\PSoC5/HC_PWM.c **** * Copyright 2008-2014, Cypress Semiconductor Corporation.  All rights reserved.
  19:.\Generated_Source\PSoC5/HC_PWM.c **** * You may use this file only in accordance with the license, terms, conditions,
  20:.\Generated_Source\PSoC5/HC_PWM.c **** * disclaimers, and limitations in the end user license agreement accompanying
  21:.\Generated_Source\PSoC5/HC_PWM.c **** * the software package with which this file was provided.
  22:.\Generated_Source\PSoC5/HC_PWM.c **** ********************************************************************************/
  23:.\Generated_Source\PSoC5/HC_PWM.c **** 
  24:.\Generated_Source\PSoC5/HC_PWM.c **** #include "HC_PWM.h"
  25:.\Generated_Source\PSoC5/HC_PWM.c **** 
ARM GAS  C:\Users\xavieran\AppData\Local\Temp\ccKNpO1j.s 			page 2


  26:.\Generated_Source\PSoC5/HC_PWM.c **** /* Error message for removed <resource> through optimization */
  27:.\Generated_Source\PSoC5/HC_PWM.c **** #ifdef HC_PWM_PWMUDB_genblk1_ctrlreg__REMOVED
  28:.\Generated_Source\PSoC5/HC_PWM.c ****     #error PWM_v3_30 detected with a constant 0 for the enable or \
  29:.\Generated_Source\PSoC5/HC_PWM.c ****          constant 1 for reset. This will prevent the component from operating.
  30:.\Generated_Source\PSoC5/HC_PWM.c **** #endif /* HC_PWM_PWMUDB_genblk1_ctrlreg__REMOVED */
  31:.\Generated_Source\PSoC5/HC_PWM.c **** 
  32:.\Generated_Source\PSoC5/HC_PWM.c **** uint8 HC_PWM_initVar = 0u;
  33:.\Generated_Source\PSoC5/HC_PWM.c **** 
  34:.\Generated_Source\PSoC5/HC_PWM.c **** 
  35:.\Generated_Source\PSoC5/HC_PWM.c **** /*******************************************************************************
  36:.\Generated_Source\PSoC5/HC_PWM.c **** * Function Name: HC_PWM_Start
  37:.\Generated_Source\PSoC5/HC_PWM.c **** ********************************************************************************
  38:.\Generated_Source\PSoC5/HC_PWM.c **** *
  39:.\Generated_Source\PSoC5/HC_PWM.c **** * Summary:
  40:.\Generated_Source\PSoC5/HC_PWM.c **** *  The start function initializes the pwm with the default values, the
  41:.\Generated_Source\PSoC5/HC_PWM.c **** *  enables the counter to begin counting.  It does not enable interrupts,
  42:.\Generated_Source\PSoC5/HC_PWM.c **** *  the EnableInt command should be called if interrupt generation is required.
  43:.\Generated_Source\PSoC5/HC_PWM.c **** *
  44:.\Generated_Source\PSoC5/HC_PWM.c **** * Parameters:
  45:.\Generated_Source\PSoC5/HC_PWM.c **** *  None
  46:.\Generated_Source\PSoC5/HC_PWM.c **** *
  47:.\Generated_Source\PSoC5/HC_PWM.c **** * Return:
  48:.\Generated_Source\PSoC5/HC_PWM.c **** *  None
  49:.\Generated_Source\PSoC5/HC_PWM.c **** *
  50:.\Generated_Source\PSoC5/HC_PWM.c **** * Global variables:
  51:.\Generated_Source\PSoC5/HC_PWM.c **** *  HC_PWM_initVar: Is modified when this function is called for the
  52:.\Generated_Source\PSoC5/HC_PWM.c **** *   first time. Is used to ensure that initialization happens only once.
  53:.\Generated_Source\PSoC5/HC_PWM.c **** *
  54:.\Generated_Source\PSoC5/HC_PWM.c **** *******************************************************************************/
  55:.\Generated_Source\PSoC5/HC_PWM.c **** void HC_PWM_Start(void) 
  56:.\Generated_Source\PSoC5/HC_PWM.c **** {
  33              		.loc 1 56 0
  34              		.cfi_startproc
  35              		@ args = 0, pretend = 0, frame = 0
  36              		@ frame_needed = 1, uses_anonymous_args = 0
  37 0000 80B5     		push	{r7, lr}
  38              		.cfi_def_cfa_offset 8
  39              		.cfi_offset 7, -8
  40              		.cfi_offset 14, -4
  41 0002 00AF     		add	r7, sp, #0
  42              		.cfi_def_cfa_register 7
  57:.\Generated_Source\PSoC5/HC_PWM.c ****     /* If not Initialized then initialize all required hardware and software */
  58:.\Generated_Source\PSoC5/HC_PWM.c ****     if(HC_PWM_initVar == 0u)
  43              		.loc 1 58 0
  44 0004 054B     		ldr	r3, .L3
  45 0006 1B78     		ldrb	r3, [r3]	@ zero_extendqisi2
  46 0008 002B     		cmp	r3, #0
  47 000a 04D1     		bne	.L2
  59:.\Generated_Source\PSoC5/HC_PWM.c ****     {
  60:.\Generated_Source\PSoC5/HC_PWM.c ****         HC_PWM_Init();
  48              		.loc 1 60 0
  49 000c FFF7FEFF 		bl	HC_PWM_Init
  61:.\Generated_Source\PSoC5/HC_PWM.c ****         HC_PWM_initVar = 1u;
  50              		.loc 1 61 0
  51 0010 024B     		ldr	r3, .L3
  52 0012 0122     		movs	r2, #1
  53 0014 1A70     		strb	r2, [r3]
ARM GAS  C:\Users\xavieran\AppData\Local\Temp\ccKNpO1j.s 			page 3


  54              	.L2:
  62:.\Generated_Source\PSoC5/HC_PWM.c ****     }
  63:.\Generated_Source\PSoC5/HC_PWM.c ****     HC_PWM_Enable();
  55              		.loc 1 63 0
  56 0016 FFF7FEFF 		bl	HC_PWM_Enable
  64:.\Generated_Source\PSoC5/HC_PWM.c **** 
  65:.\Generated_Source\PSoC5/HC_PWM.c **** }
  57              		.loc 1 65 0
  58 001a 80BD     		pop	{r7, pc}
  59              	.L4:
  60              		.align	2
  61              	.L3:
  62 001c 00000000 		.word	HC_PWM_initVar
  63              		.cfi_endproc
  64              	.LFE0:
  65              		.size	HC_PWM_Start, .-HC_PWM_Start
  66              		.section	.text.HC_PWM_Init,"ax",%progbits
  67              		.align	2
  68              		.global	HC_PWM_Init
  69              		.thumb
  70              		.thumb_func
  71              		.type	HC_PWM_Init, %function
  72              	HC_PWM_Init:
  73              	.LFB1:
  66:.\Generated_Source\PSoC5/HC_PWM.c **** 
  67:.\Generated_Source\PSoC5/HC_PWM.c **** 
  68:.\Generated_Source\PSoC5/HC_PWM.c **** /*******************************************************************************
  69:.\Generated_Source\PSoC5/HC_PWM.c **** * Function Name: HC_PWM_Init
  70:.\Generated_Source\PSoC5/HC_PWM.c **** ********************************************************************************
  71:.\Generated_Source\PSoC5/HC_PWM.c **** *
  72:.\Generated_Source\PSoC5/HC_PWM.c **** * Summary:
  73:.\Generated_Source\PSoC5/HC_PWM.c **** *  Initialize component's parameters to the parameters set by user in the
  74:.\Generated_Source\PSoC5/HC_PWM.c **** *  customizer of the component placed onto schematic. Usually called in
  75:.\Generated_Source\PSoC5/HC_PWM.c **** *  HC_PWM_Start().
  76:.\Generated_Source\PSoC5/HC_PWM.c **** *
  77:.\Generated_Source\PSoC5/HC_PWM.c **** * Parameters:
  78:.\Generated_Source\PSoC5/HC_PWM.c **** *  None
  79:.\Generated_Source\PSoC5/HC_PWM.c **** *
  80:.\Generated_Source\PSoC5/HC_PWM.c **** * Return:
  81:.\Generated_Source\PSoC5/HC_PWM.c **** *  None
  82:.\Generated_Source\PSoC5/HC_PWM.c **** *
  83:.\Generated_Source\PSoC5/HC_PWM.c **** *******************************************************************************/
  84:.\Generated_Source\PSoC5/HC_PWM.c **** void HC_PWM_Init(void) 
  85:.\Generated_Source\PSoC5/HC_PWM.c **** {
  74              		.loc 1 85 0
  75              		.cfi_startproc
  76              		@ args = 0, pretend = 0, frame = 8
  77              		@ frame_needed = 1, uses_anonymous_args = 0
  78 0000 80B5     		push	{r7, lr}
  79              		.cfi_def_cfa_offset 8
  80              		.cfi_offset 7, -8
  81              		.cfi_offset 14, -4
  82 0002 82B0     		sub	sp, sp, #8
  83              		.cfi_def_cfa_offset 16
  84 0004 00AF     		add	r7, sp, #0
  85              		.cfi_def_cfa_register 7
  86:.\Generated_Source\PSoC5/HC_PWM.c ****     #if (HC_PWM_UsingFixedFunction || HC_PWM_UseControl)
ARM GAS  C:\Users\xavieran\AppData\Local\Temp\ccKNpO1j.s 			page 4


  87:.\Generated_Source\PSoC5/HC_PWM.c ****         uint8 ctrl;
  88:.\Generated_Source\PSoC5/HC_PWM.c ****     #endif /* (HC_PWM_UsingFixedFunction || HC_PWM_UseControl) */
  89:.\Generated_Source\PSoC5/HC_PWM.c **** 
  90:.\Generated_Source\PSoC5/HC_PWM.c ****     #if(!HC_PWM_UsingFixedFunction)
  91:.\Generated_Source\PSoC5/HC_PWM.c ****         #if(HC_PWM_UseStatus)
  92:.\Generated_Source\PSoC5/HC_PWM.c ****             /* Interrupt State Backup for Critical Region*/
  93:.\Generated_Source\PSoC5/HC_PWM.c ****             uint8 HC_PWM_interruptState;
  94:.\Generated_Source\PSoC5/HC_PWM.c ****         #endif /* (HC_PWM_UseStatus) */
  95:.\Generated_Source\PSoC5/HC_PWM.c ****     #endif /* (!HC_PWM_UsingFixedFunction) */
  96:.\Generated_Source\PSoC5/HC_PWM.c **** 
  97:.\Generated_Source\PSoC5/HC_PWM.c ****     #if (HC_PWM_UsingFixedFunction)
  98:.\Generated_Source\PSoC5/HC_PWM.c ****         /* You are allowed to write the compare value (FF only) */
  99:.\Generated_Source\PSoC5/HC_PWM.c ****         HC_PWM_CONTROL |= HC_PWM_CFG0_MODE;
 100:.\Generated_Source\PSoC5/HC_PWM.c ****         #if (HC_PWM_DeadBand2_4)
 101:.\Generated_Source\PSoC5/HC_PWM.c ****             HC_PWM_CONTROL |= HC_PWM_CFG0_DB;
 102:.\Generated_Source\PSoC5/HC_PWM.c ****         #endif /* (HC_PWM_DeadBand2_4) */
 103:.\Generated_Source\PSoC5/HC_PWM.c **** 
 104:.\Generated_Source\PSoC5/HC_PWM.c ****         ctrl = HC_PWM_CONTROL3 & ((uint8 )(~HC_PWM_CTRL_CMPMODE1_MASK));
 105:.\Generated_Source\PSoC5/HC_PWM.c ****         HC_PWM_CONTROL3 = ctrl | HC_PWM_DEFAULT_COMPARE1_MODE;
 106:.\Generated_Source\PSoC5/HC_PWM.c **** 
 107:.\Generated_Source\PSoC5/HC_PWM.c ****          /* Clear and Set SYNCTC and SYNCCMP bits of RT1 register */
 108:.\Generated_Source\PSoC5/HC_PWM.c ****         HC_PWM_RT1 &= ((uint8)(~HC_PWM_RT1_MASK));
 109:.\Generated_Source\PSoC5/HC_PWM.c ****         HC_PWM_RT1 |= HC_PWM_SYNC;
 110:.\Generated_Source\PSoC5/HC_PWM.c **** 
 111:.\Generated_Source\PSoC5/HC_PWM.c ****         /*Enable DSI Sync all all inputs of the PWM*/
 112:.\Generated_Source\PSoC5/HC_PWM.c ****         HC_PWM_RT1 &= ((uint8)(~HC_PWM_SYNCDSI_MASK));
 113:.\Generated_Source\PSoC5/HC_PWM.c ****         HC_PWM_RT1 |= HC_PWM_SYNCDSI_EN;
 114:.\Generated_Source\PSoC5/HC_PWM.c **** 
 115:.\Generated_Source\PSoC5/HC_PWM.c ****     #elif (HC_PWM_UseControl)
 116:.\Generated_Source\PSoC5/HC_PWM.c ****         /* Set the default compare mode defined in the parameter */
 117:.\Generated_Source\PSoC5/HC_PWM.c ****         ctrl = HC_PWM_CONTROL & ((uint8)(~HC_PWM_CTRL_CMPMODE2_MASK)) &
  86              		.loc 1 117 0
  87 0006 224B     		ldr	r3, .L6
  88 0008 1B78     		ldrb	r3, [r3]
  89 000a DBB2     		uxtb	r3, r3
  90 000c 23F03F03 		bic	r3, r3, #63
  91 0010 FB71     		strb	r3, [r7, #7]
 118:.\Generated_Source\PSoC5/HC_PWM.c ****                 ((uint8)(~HC_PWM_CTRL_CMPMODE1_MASK));
 119:.\Generated_Source\PSoC5/HC_PWM.c ****         HC_PWM_CONTROL = ctrl | HC_PWM_DEFAULT_COMPARE2_MODE |
  92              		.loc 1 119 0
  93 0012 1F4B     		ldr	r3, .L6
  94 0014 FA79     		ldrb	r2, [r7, #7]
  95 0016 42F00C02 		orr	r2, r2, #12
  96 001a D2B2     		uxtb	r2, r2
  97 001c 1A70     		strb	r2, [r3]
 120:.\Generated_Source\PSoC5/HC_PWM.c ****                                    HC_PWM_DEFAULT_COMPARE1_MODE;
 121:.\Generated_Source\PSoC5/HC_PWM.c ****     #endif /* (HC_PWM_UsingFixedFunction) */
 122:.\Generated_Source\PSoC5/HC_PWM.c **** 
 123:.\Generated_Source\PSoC5/HC_PWM.c ****     #if (!HC_PWM_UsingFixedFunction)
 124:.\Generated_Source\PSoC5/HC_PWM.c ****         #if (HC_PWM_Resolution == 8)
 125:.\Generated_Source\PSoC5/HC_PWM.c ****             /* Set FIFO 0 to 1 byte register for period*/
 126:.\Generated_Source\PSoC5/HC_PWM.c ****             HC_PWM_AUX_CONTROLDP0 |= (HC_PWM_AUX_CTRL_FIFO0_CLR);
 127:.\Generated_Source\PSoC5/HC_PWM.c ****         #else /* (HC_PWM_Resolution == 16)*/
 128:.\Generated_Source\PSoC5/HC_PWM.c ****             /* Set FIFO 0 to 1 byte register for period */
 129:.\Generated_Source\PSoC5/HC_PWM.c ****             HC_PWM_AUX_CONTROLDP0 |= (HC_PWM_AUX_CTRL_FIFO0_CLR);
  98              		.loc 1 129 0
  99 001e 1D4B     		ldr	r3, .L6+4
ARM GAS  C:\Users\xavieran\AppData\Local\Temp\ccKNpO1j.s 			page 5


 100 0020 1C4A     		ldr	r2, .L6+4
 101 0022 1278     		ldrb	r2, [r2]
 102 0024 D2B2     		uxtb	r2, r2
 103 0026 42F00102 		orr	r2, r2, #1
 104 002a D2B2     		uxtb	r2, r2
 105 002c 1A70     		strb	r2, [r3]
 130:.\Generated_Source\PSoC5/HC_PWM.c ****             HC_PWM_AUX_CONTROLDP1 |= (HC_PWM_AUX_CTRL_FIFO0_CLR);
 106              		.loc 1 130 0
 107 002e 1A4B     		ldr	r3, .L6+8
 108 0030 194A     		ldr	r2, .L6+8
 109 0032 1278     		ldrb	r2, [r2]
 110 0034 D2B2     		uxtb	r2, r2
 111 0036 42F00102 		orr	r2, r2, #1
 112 003a D2B2     		uxtb	r2, r2
 113 003c 1A70     		strb	r2, [r3]
 131:.\Generated_Source\PSoC5/HC_PWM.c ****         #endif /* (HC_PWM_Resolution == 8) */
 132:.\Generated_Source\PSoC5/HC_PWM.c **** 
 133:.\Generated_Source\PSoC5/HC_PWM.c ****         HC_PWM_WriteCounter(HC_PWM_INIT_PERIOD_VALUE);
 114              		.loc 1 133 0
 115 003e 4CF24F30 		movw	r0, #49999
 116 0042 FFF7FEFF 		bl	HC_PWM_WriteCounter
 134:.\Generated_Source\PSoC5/HC_PWM.c ****     #endif /* (!HC_PWM_UsingFixedFunction) */
 135:.\Generated_Source\PSoC5/HC_PWM.c **** 
 136:.\Generated_Source\PSoC5/HC_PWM.c ****     HC_PWM_WritePeriod(HC_PWM_INIT_PERIOD_VALUE);
 117              		.loc 1 136 0
 118 0046 4CF24F30 		movw	r0, #49999
 119 004a FFF7FEFF 		bl	HC_PWM_WritePeriod
 137:.\Generated_Source\PSoC5/HC_PWM.c **** 
 138:.\Generated_Source\PSoC5/HC_PWM.c ****         #if (HC_PWM_UseOneCompareMode)
 139:.\Generated_Source\PSoC5/HC_PWM.c ****             HC_PWM_WriteCompare(HC_PWM_INIT_COMPARE_VALUE1);
 140:.\Generated_Source\PSoC5/HC_PWM.c ****         #else
 141:.\Generated_Source\PSoC5/HC_PWM.c ****             HC_PWM_WriteCompare1(HC_PWM_INIT_COMPARE_VALUE1);
 120              		.loc 1 141 0
 121 004e 4AF6B370 		movw	r0, #44979
 122 0052 FFF7FEFF 		bl	HC_PWM_WriteCompare1
 142:.\Generated_Source\PSoC5/HC_PWM.c ****             HC_PWM_WriteCompare2(HC_PWM_INIT_COMPARE_VALUE2);
 123              		.loc 1 142 0
 124 0056 42F21070 		movw	r0, #10000
 125 005a FFF7FEFF 		bl	HC_PWM_WriteCompare2
 143:.\Generated_Source\PSoC5/HC_PWM.c ****         #endif /* (HC_PWM_UseOneCompareMode) */
 144:.\Generated_Source\PSoC5/HC_PWM.c **** 
 145:.\Generated_Source\PSoC5/HC_PWM.c ****         #if (HC_PWM_KillModeMinTime)
 146:.\Generated_Source\PSoC5/HC_PWM.c ****             HC_PWM_WriteKillTime(HC_PWM_MinimumKillTime);
 147:.\Generated_Source\PSoC5/HC_PWM.c ****         #endif /* (HC_PWM_KillModeMinTime) */
 148:.\Generated_Source\PSoC5/HC_PWM.c **** 
 149:.\Generated_Source\PSoC5/HC_PWM.c ****         #if (HC_PWM_DeadBandUsed)
 150:.\Generated_Source\PSoC5/HC_PWM.c ****             HC_PWM_WriteDeadTime(HC_PWM_INIT_DEAD_TIME);
 151:.\Generated_Source\PSoC5/HC_PWM.c ****         #endif /* (HC_PWM_DeadBandUsed) */
 152:.\Generated_Source\PSoC5/HC_PWM.c **** 
 153:.\Generated_Source\PSoC5/HC_PWM.c ****     #if (HC_PWM_UseStatus || HC_PWM_UsingFixedFunction)
 154:.\Generated_Source\PSoC5/HC_PWM.c ****         HC_PWM_SetInterruptMode(HC_PWM_INIT_INTERRUPTS_MODE);
 126              		.loc 1 154 0
 127 005e 0020     		movs	r0, #0
 128 0060 FFF7FEFF 		bl	HC_PWM_SetInterruptMode
 155:.\Generated_Source\PSoC5/HC_PWM.c ****     #endif /* (HC_PWM_UseStatus || HC_PWM_UsingFixedFunction) */
 156:.\Generated_Source\PSoC5/HC_PWM.c **** 
 157:.\Generated_Source\PSoC5/HC_PWM.c ****     #if (HC_PWM_UsingFixedFunction)
ARM GAS  C:\Users\xavieran\AppData\Local\Temp\ccKNpO1j.s 			page 6


 158:.\Generated_Source\PSoC5/HC_PWM.c ****         /* Globally Enable the Fixed Function Block chosen */
 159:.\Generated_Source\PSoC5/HC_PWM.c ****         HC_PWM_GLOBAL_ENABLE |= HC_PWM_BLOCK_EN_MASK;
 160:.\Generated_Source\PSoC5/HC_PWM.c ****         /* Set the Interrupt source to come from the status register */
 161:.\Generated_Source\PSoC5/HC_PWM.c ****         HC_PWM_CONTROL2 |= HC_PWM_CTRL2_IRQ_SEL;
 162:.\Generated_Source\PSoC5/HC_PWM.c ****     #else
 163:.\Generated_Source\PSoC5/HC_PWM.c ****         #if(HC_PWM_UseStatus)
 164:.\Generated_Source\PSoC5/HC_PWM.c **** 
 165:.\Generated_Source\PSoC5/HC_PWM.c ****             /* CyEnterCriticalRegion and CyExitCriticalRegion are used to mark following region cri
 166:.\Generated_Source\PSoC5/HC_PWM.c ****             /* Enter Critical Region*/
 167:.\Generated_Source\PSoC5/HC_PWM.c ****             HC_PWM_interruptState = CyEnterCriticalSection();
 129              		.loc 1 167 0
 130 0064 FFF7FEFF 		bl	CyEnterCriticalSection
 131 0068 0346     		mov	r3, r0
 132 006a BB71     		strb	r3, [r7, #6]
 168:.\Generated_Source\PSoC5/HC_PWM.c ****             /* Use the interrupt output of the status register for IRQ output */
 169:.\Generated_Source\PSoC5/HC_PWM.c ****             HC_PWM_STATUS_AUX_CTRL |= HC_PWM_STATUS_ACTL_INT_EN_MASK;
 133              		.loc 1 169 0
 134 006c 0A4B     		ldr	r3, .L6+8
 135 006e 0A4A     		ldr	r2, .L6+8
 136 0070 1278     		ldrb	r2, [r2]
 137 0072 D2B2     		uxtb	r2, r2
 138 0074 42F01002 		orr	r2, r2, #16
 139 0078 D2B2     		uxtb	r2, r2
 140 007a 1A70     		strb	r2, [r3]
 170:.\Generated_Source\PSoC5/HC_PWM.c **** 
 171:.\Generated_Source\PSoC5/HC_PWM.c ****              /* Exit Critical Region*/
 172:.\Generated_Source\PSoC5/HC_PWM.c ****             CyExitCriticalSection(HC_PWM_interruptState);
 141              		.loc 1 172 0
 142 007c BB79     		ldrb	r3, [r7, #6]	@ zero_extendqisi2
 143 007e 1846     		mov	r0, r3
 144 0080 FFF7FEFF 		bl	CyExitCriticalSection
 173:.\Generated_Source\PSoC5/HC_PWM.c **** 
 174:.\Generated_Source\PSoC5/HC_PWM.c ****             /* Clear the FIFO to enable the HC_PWM_STATUS_FIFOFULL
 175:.\Generated_Source\PSoC5/HC_PWM.c ****                    bit to be set on FIFO full. */
 176:.\Generated_Source\PSoC5/HC_PWM.c ****             HC_PWM_ClearFIFO();
 145              		.loc 1 176 0
 146 0084 FFF7FEFF 		bl	HC_PWM_ClearFIFO
 177:.\Generated_Source\PSoC5/HC_PWM.c ****         #endif /* (HC_PWM_UseStatus) */
 178:.\Generated_Source\PSoC5/HC_PWM.c ****     #endif /* (HC_PWM_UsingFixedFunction) */
 179:.\Generated_Source\PSoC5/HC_PWM.c **** }
 147              		.loc 1 179 0
 148 0088 0837     		adds	r7, r7, #8
 149 008a BD46     		mov	sp, r7
 150              		@ sp needed
 151 008c 80BD     		pop	{r7, pc}
 152              	.L7:
 153 008e 00BF     		.align	2
 154              	.L6:
 155 0090 75650040 		.word	1073767797
 156 0094 94650040 		.word	1073767828
 157 0098 95650040 		.word	1073767829
 158              		.cfi_endproc
 159              	.LFE1:
 160              		.size	HC_PWM_Init, .-HC_PWM_Init
 161              		.section	.text.HC_PWM_Enable,"ax",%progbits
 162              		.align	2
 163              		.global	HC_PWM_Enable
ARM GAS  C:\Users\xavieran\AppData\Local\Temp\ccKNpO1j.s 			page 7


 164              		.thumb
 165              		.thumb_func
 166              		.type	HC_PWM_Enable, %function
 167              	HC_PWM_Enable:
 168              	.LFB2:
 180:.\Generated_Source\PSoC5/HC_PWM.c **** 
 181:.\Generated_Source\PSoC5/HC_PWM.c **** 
 182:.\Generated_Source\PSoC5/HC_PWM.c **** /*******************************************************************************
 183:.\Generated_Source\PSoC5/HC_PWM.c **** * Function Name: HC_PWM_Enable
 184:.\Generated_Source\PSoC5/HC_PWM.c **** ********************************************************************************
 185:.\Generated_Source\PSoC5/HC_PWM.c **** *
 186:.\Generated_Source\PSoC5/HC_PWM.c **** * Summary:
 187:.\Generated_Source\PSoC5/HC_PWM.c **** *  Enables the PWM block operation
 188:.\Generated_Source\PSoC5/HC_PWM.c **** *
 189:.\Generated_Source\PSoC5/HC_PWM.c **** * Parameters:
 190:.\Generated_Source\PSoC5/HC_PWM.c **** *  None
 191:.\Generated_Source\PSoC5/HC_PWM.c **** *
 192:.\Generated_Source\PSoC5/HC_PWM.c **** * Return:
 193:.\Generated_Source\PSoC5/HC_PWM.c **** *  None
 194:.\Generated_Source\PSoC5/HC_PWM.c **** *
 195:.\Generated_Source\PSoC5/HC_PWM.c **** * Side Effects:
 196:.\Generated_Source\PSoC5/HC_PWM.c **** *  This works only if software enable mode is chosen
 197:.\Generated_Source\PSoC5/HC_PWM.c **** *
 198:.\Generated_Source\PSoC5/HC_PWM.c **** *******************************************************************************/
 199:.\Generated_Source\PSoC5/HC_PWM.c **** void HC_PWM_Enable(void) 
 200:.\Generated_Source\PSoC5/HC_PWM.c **** {
 169              		.loc 1 200 0
 170              		.cfi_startproc
 171              		@ args = 0, pretend = 0, frame = 0
 172              		@ frame_needed = 1, uses_anonymous_args = 0
 173              		@ link register save eliminated.
 174 0000 80B4     		push	{r7}
 175              		.cfi_def_cfa_offset 4
 176              		.cfi_offset 7, -4
 177 0002 00AF     		add	r7, sp, #0
 178              		.cfi_def_cfa_register 7
 201:.\Generated_Source\PSoC5/HC_PWM.c ****     /* Globally Enable the Fixed Function Block chosen */
 202:.\Generated_Source\PSoC5/HC_PWM.c ****     #if (HC_PWM_UsingFixedFunction)
 203:.\Generated_Source\PSoC5/HC_PWM.c ****         HC_PWM_GLOBAL_ENABLE |= HC_PWM_BLOCK_EN_MASK;
 204:.\Generated_Source\PSoC5/HC_PWM.c ****         HC_PWM_GLOBAL_STBY_ENABLE |= HC_PWM_BLOCK_STBY_EN_MASK;
 205:.\Generated_Source\PSoC5/HC_PWM.c ****     #endif /* (HC_PWM_UsingFixedFunction) */
 206:.\Generated_Source\PSoC5/HC_PWM.c **** 
 207:.\Generated_Source\PSoC5/HC_PWM.c ****     /* Enable the PWM from the control register  */
 208:.\Generated_Source\PSoC5/HC_PWM.c ****     #if (HC_PWM_UseControl || HC_PWM_UsingFixedFunction)
 209:.\Generated_Source\PSoC5/HC_PWM.c ****         HC_PWM_CONTROL |= HC_PWM_CTRL_ENABLE;
 179              		.loc 1 209 0
 180 0004 054B     		ldr	r3, .L9
 181 0006 054A     		ldr	r2, .L9
 182 0008 1278     		ldrb	r2, [r2]
 183 000a D2B2     		uxtb	r2, r2
 184 000c 62F07F02 		orn	r2, r2, #127
 185 0010 D2B2     		uxtb	r2, r2
 186 0012 1A70     		strb	r2, [r3]
 210:.\Generated_Source\PSoC5/HC_PWM.c ****     #endif /* (HC_PWM_UseControl || HC_PWM_UsingFixedFunction) */
 211:.\Generated_Source\PSoC5/HC_PWM.c **** }
 187              		.loc 1 211 0
 188 0014 BD46     		mov	sp, r7
ARM GAS  C:\Users\xavieran\AppData\Local\Temp\ccKNpO1j.s 			page 8


 189              		@ sp needed
 190 0016 5DF8047B 		ldr	r7, [sp], #4
 191 001a 7047     		bx	lr
 192              	.L10:
 193              		.align	2
 194              	.L9:
 195 001c 75650040 		.word	1073767797
 196              		.cfi_endproc
 197              	.LFE2:
 198              		.size	HC_PWM_Enable, .-HC_PWM_Enable
 199              		.section	.text.HC_PWM_Stop,"ax",%progbits
 200              		.align	2
 201              		.global	HC_PWM_Stop
 202              		.thumb
 203              		.thumb_func
 204              		.type	HC_PWM_Stop, %function
 205              	HC_PWM_Stop:
 206              	.LFB3:
 212:.\Generated_Source\PSoC5/HC_PWM.c **** 
 213:.\Generated_Source\PSoC5/HC_PWM.c **** 
 214:.\Generated_Source\PSoC5/HC_PWM.c **** /*******************************************************************************
 215:.\Generated_Source\PSoC5/HC_PWM.c **** * Function Name: HC_PWM_Stop
 216:.\Generated_Source\PSoC5/HC_PWM.c **** ********************************************************************************
 217:.\Generated_Source\PSoC5/HC_PWM.c **** *
 218:.\Generated_Source\PSoC5/HC_PWM.c **** * Summary:
 219:.\Generated_Source\PSoC5/HC_PWM.c **** *  The stop function halts the PWM, but does not change any modes or disable
 220:.\Generated_Source\PSoC5/HC_PWM.c **** *  interrupts.
 221:.\Generated_Source\PSoC5/HC_PWM.c **** *
 222:.\Generated_Source\PSoC5/HC_PWM.c **** * Parameters:
 223:.\Generated_Source\PSoC5/HC_PWM.c **** *  None
 224:.\Generated_Source\PSoC5/HC_PWM.c **** *
 225:.\Generated_Source\PSoC5/HC_PWM.c **** * Return:
 226:.\Generated_Source\PSoC5/HC_PWM.c **** *  None
 227:.\Generated_Source\PSoC5/HC_PWM.c **** *
 228:.\Generated_Source\PSoC5/HC_PWM.c **** * Side Effects:
 229:.\Generated_Source\PSoC5/HC_PWM.c **** *  If the Enable mode is set to Hardware only then this function
 230:.\Generated_Source\PSoC5/HC_PWM.c **** *  has no effect on the operation of the PWM
 231:.\Generated_Source\PSoC5/HC_PWM.c **** *
 232:.\Generated_Source\PSoC5/HC_PWM.c **** *******************************************************************************/
 233:.\Generated_Source\PSoC5/HC_PWM.c **** void HC_PWM_Stop(void) 
 234:.\Generated_Source\PSoC5/HC_PWM.c **** {
 207              		.loc 1 234 0
 208              		.cfi_startproc
 209              		@ args = 0, pretend = 0, frame = 0
 210              		@ frame_needed = 1, uses_anonymous_args = 0
 211              		@ link register save eliminated.
 212 0000 80B4     		push	{r7}
 213              		.cfi_def_cfa_offset 4
 214              		.cfi_offset 7, -4
 215 0002 00AF     		add	r7, sp, #0
 216              		.cfi_def_cfa_register 7
 235:.\Generated_Source\PSoC5/HC_PWM.c ****     #if (HC_PWM_UseControl || HC_PWM_UsingFixedFunction)
 236:.\Generated_Source\PSoC5/HC_PWM.c ****         HC_PWM_CONTROL &= ((uint8)(~HC_PWM_CTRL_ENABLE));
 217              		.loc 1 236 0
 218 0004 054B     		ldr	r3, .L12
 219 0006 054A     		ldr	r2, .L12
 220 0008 1278     		ldrb	r2, [r2]
ARM GAS  C:\Users\xavieran\AppData\Local\Temp\ccKNpO1j.s 			page 9


 221 000a D2B2     		uxtb	r2, r2
 222 000c 02F07F02 		and	r2, r2, #127
 223 0010 D2B2     		uxtb	r2, r2
 224 0012 1A70     		strb	r2, [r3]
 237:.\Generated_Source\PSoC5/HC_PWM.c ****     #endif /* (HC_PWM_UseControl || HC_PWM_UsingFixedFunction) */
 238:.\Generated_Source\PSoC5/HC_PWM.c **** 
 239:.\Generated_Source\PSoC5/HC_PWM.c ****     /* Globally disable the Fixed Function Block chosen */
 240:.\Generated_Source\PSoC5/HC_PWM.c ****     #if (HC_PWM_UsingFixedFunction)
 241:.\Generated_Source\PSoC5/HC_PWM.c ****         HC_PWM_GLOBAL_ENABLE &= ((uint8)(~HC_PWM_BLOCK_EN_MASK));
 242:.\Generated_Source\PSoC5/HC_PWM.c ****         HC_PWM_GLOBAL_STBY_ENABLE &= ((uint8)(~HC_PWM_BLOCK_STBY_EN_MASK));
 243:.\Generated_Source\PSoC5/HC_PWM.c ****     #endif /* (HC_PWM_UsingFixedFunction) */
 244:.\Generated_Source\PSoC5/HC_PWM.c **** }
 225              		.loc 1 244 0
 226 0014 BD46     		mov	sp, r7
 227              		@ sp needed
 228 0016 5DF8047B 		ldr	r7, [sp], #4
 229 001a 7047     		bx	lr
 230              	.L13:
 231              		.align	2
 232              	.L12:
 233 001c 75650040 		.word	1073767797
 234              		.cfi_endproc
 235              	.LFE3:
 236              		.size	HC_PWM_Stop, .-HC_PWM_Stop
 237              		.section	.text.HC_PWM_WriteCounter,"ax",%progbits
 238              		.align	2
 239              		.global	HC_PWM_WriteCounter
 240              		.thumb
 241              		.thumb_func
 242              		.type	HC_PWM_WriteCounter, %function
 243              	HC_PWM_WriteCounter:
 244              	.LFB4:
 245:.\Generated_Source\PSoC5/HC_PWM.c **** 
 246:.\Generated_Source\PSoC5/HC_PWM.c **** #if (HC_PWM_UseOneCompareMode)
 247:.\Generated_Source\PSoC5/HC_PWM.c ****     #if (HC_PWM_CompareMode1SW)
 248:.\Generated_Source\PSoC5/HC_PWM.c **** 
 249:.\Generated_Source\PSoC5/HC_PWM.c **** 
 250:.\Generated_Source\PSoC5/HC_PWM.c ****         /*******************************************************************************
 251:.\Generated_Source\PSoC5/HC_PWM.c ****         * Function Name: HC_PWM_SetCompareMode
 252:.\Generated_Source\PSoC5/HC_PWM.c ****         ********************************************************************************
 253:.\Generated_Source\PSoC5/HC_PWM.c ****         *
 254:.\Generated_Source\PSoC5/HC_PWM.c ****         * Summary:
 255:.\Generated_Source\PSoC5/HC_PWM.c ****         *  This function writes the Compare Mode for the pwm output when in Dither mode,
 256:.\Generated_Source\PSoC5/HC_PWM.c ****         *  Center Align Mode or One Output Mode.
 257:.\Generated_Source\PSoC5/HC_PWM.c ****         *
 258:.\Generated_Source\PSoC5/HC_PWM.c ****         * Parameters:
 259:.\Generated_Source\PSoC5/HC_PWM.c ****         *  comparemode:  The new compare mode for the PWM output. Use the compare types
 260:.\Generated_Source\PSoC5/HC_PWM.c ****         *                defined in the H file as input arguments.
 261:.\Generated_Source\PSoC5/HC_PWM.c ****         *
 262:.\Generated_Source\PSoC5/HC_PWM.c ****         * Return:
 263:.\Generated_Source\PSoC5/HC_PWM.c ****         *  None
 264:.\Generated_Source\PSoC5/HC_PWM.c ****         *
 265:.\Generated_Source\PSoC5/HC_PWM.c ****         *******************************************************************************/
 266:.\Generated_Source\PSoC5/HC_PWM.c ****         void HC_PWM_SetCompareMode(uint8 comparemode) 
 267:.\Generated_Source\PSoC5/HC_PWM.c ****         {
 268:.\Generated_Source\PSoC5/HC_PWM.c ****             #if(HC_PWM_UsingFixedFunction)
 269:.\Generated_Source\PSoC5/HC_PWM.c **** 
ARM GAS  C:\Users\xavieran\AppData\Local\Temp\ccKNpO1j.s 			page 10


 270:.\Generated_Source\PSoC5/HC_PWM.c ****                 #if(0 != HC_PWM_CTRL_CMPMODE1_SHIFT)
 271:.\Generated_Source\PSoC5/HC_PWM.c ****                     uint8 comparemodemasked = ((uint8)((uint8)comparemode << HC_PWM_CTRL_CMPMODE1_S
 272:.\Generated_Source\PSoC5/HC_PWM.c ****                 #else
 273:.\Generated_Source\PSoC5/HC_PWM.c ****                     uint8 comparemodemasked = comparemode;
 274:.\Generated_Source\PSoC5/HC_PWM.c ****                 #endif /* (0 != HC_PWM_CTRL_CMPMODE1_SHIFT) */
 275:.\Generated_Source\PSoC5/HC_PWM.c **** 
 276:.\Generated_Source\PSoC5/HC_PWM.c ****                 HC_PWM_CONTROL3 &= ((uint8)(~HC_PWM_CTRL_CMPMODE1_MASK)); /*Clear Existing Data */
 277:.\Generated_Source\PSoC5/HC_PWM.c ****                 HC_PWM_CONTROL3 |= comparemodemasked;
 278:.\Generated_Source\PSoC5/HC_PWM.c **** 
 279:.\Generated_Source\PSoC5/HC_PWM.c ****             #elif (HC_PWM_UseControl)
 280:.\Generated_Source\PSoC5/HC_PWM.c **** 
 281:.\Generated_Source\PSoC5/HC_PWM.c ****                 #if(0 != HC_PWM_CTRL_CMPMODE1_SHIFT)
 282:.\Generated_Source\PSoC5/HC_PWM.c ****                     uint8 comparemode1masked = ((uint8)((uint8)comparemode << HC_PWM_CTRL_CMPMODE1_
 283:.\Generated_Source\PSoC5/HC_PWM.c ****                                                 HC_PWM_CTRL_CMPMODE1_MASK;
 284:.\Generated_Source\PSoC5/HC_PWM.c ****                 #else
 285:.\Generated_Source\PSoC5/HC_PWM.c ****                     uint8 comparemode1masked = comparemode & HC_PWM_CTRL_CMPMODE1_MASK;
 286:.\Generated_Source\PSoC5/HC_PWM.c ****                 #endif /* (0 != HC_PWM_CTRL_CMPMODE1_SHIFT) */
 287:.\Generated_Source\PSoC5/HC_PWM.c **** 
 288:.\Generated_Source\PSoC5/HC_PWM.c ****                 #if(0 != HC_PWM_CTRL_CMPMODE2_SHIFT)
 289:.\Generated_Source\PSoC5/HC_PWM.c ****                     uint8 comparemode2masked = ((uint8)((uint8)comparemode << HC_PWM_CTRL_CMPMODE2_
 290:.\Generated_Source\PSoC5/HC_PWM.c ****                                                HC_PWM_CTRL_CMPMODE2_MASK;
 291:.\Generated_Source\PSoC5/HC_PWM.c ****                 #else
 292:.\Generated_Source\PSoC5/HC_PWM.c ****                     uint8 comparemode2masked = comparemode & HC_PWM_CTRL_CMPMODE2_MASK;
 293:.\Generated_Source\PSoC5/HC_PWM.c ****                 #endif /* (0 != HC_PWM_CTRL_CMPMODE2_SHIFT) */
 294:.\Generated_Source\PSoC5/HC_PWM.c **** 
 295:.\Generated_Source\PSoC5/HC_PWM.c ****                 /*Clear existing mode */
 296:.\Generated_Source\PSoC5/HC_PWM.c ****                 HC_PWM_CONTROL &= ((uint8)(~(HC_PWM_CTRL_CMPMODE1_MASK |
 297:.\Generated_Source\PSoC5/HC_PWM.c ****                                             HC_PWM_CTRL_CMPMODE2_MASK)));
 298:.\Generated_Source\PSoC5/HC_PWM.c ****                 HC_PWM_CONTROL |= (comparemode1masked | comparemode2masked);
 299:.\Generated_Source\PSoC5/HC_PWM.c **** 
 300:.\Generated_Source\PSoC5/HC_PWM.c ****             #else
 301:.\Generated_Source\PSoC5/HC_PWM.c ****                 uint8 temp = comparemode;
 302:.\Generated_Source\PSoC5/HC_PWM.c ****             #endif /* (HC_PWM_UsingFixedFunction) */
 303:.\Generated_Source\PSoC5/HC_PWM.c ****         }
 304:.\Generated_Source\PSoC5/HC_PWM.c ****     #endif /* HC_PWM_CompareMode1SW */
 305:.\Generated_Source\PSoC5/HC_PWM.c **** 
 306:.\Generated_Source\PSoC5/HC_PWM.c **** #else /* UseOneCompareMode */
 307:.\Generated_Source\PSoC5/HC_PWM.c **** 
 308:.\Generated_Source\PSoC5/HC_PWM.c ****     #if (HC_PWM_CompareMode1SW)
 309:.\Generated_Source\PSoC5/HC_PWM.c **** 
 310:.\Generated_Source\PSoC5/HC_PWM.c **** 
 311:.\Generated_Source\PSoC5/HC_PWM.c ****         /*******************************************************************************
 312:.\Generated_Source\PSoC5/HC_PWM.c ****         * Function Name: HC_PWM_SetCompareMode1
 313:.\Generated_Source\PSoC5/HC_PWM.c ****         ********************************************************************************
 314:.\Generated_Source\PSoC5/HC_PWM.c ****         *
 315:.\Generated_Source\PSoC5/HC_PWM.c ****         * Summary:
 316:.\Generated_Source\PSoC5/HC_PWM.c ****         *  This function writes the Compare Mode for the pwm or pwm1 output
 317:.\Generated_Source\PSoC5/HC_PWM.c ****         *
 318:.\Generated_Source\PSoC5/HC_PWM.c ****         * Parameters:
 319:.\Generated_Source\PSoC5/HC_PWM.c ****         *  comparemode:  The new compare mode for the PWM output. Use the compare types
 320:.\Generated_Source\PSoC5/HC_PWM.c ****         *                defined in the H file as input arguments.
 321:.\Generated_Source\PSoC5/HC_PWM.c ****         *
 322:.\Generated_Source\PSoC5/HC_PWM.c ****         * Return:
 323:.\Generated_Source\PSoC5/HC_PWM.c ****         *  None
 324:.\Generated_Source\PSoC5/HC_PWM.c ****         *
 325:.\Generated_Source\PSoC5/HC_PWM.c ****         *******************************************************************************/
 326:.\Generated_Source\PSoC5/HC_PWM.c ****         void HC_PWM_SetCompareMode1(uint8 comparemode) 
ARM GAS  C:\Users\xavieran\AppData\Local\Temp\ccKNpO1j.s 			page 11


 327:.\Generated_Source\PSoC5/HC_PWM.c ****         {
 328:.\Generated_Source\PSoC5/HC_PWM.c ****             #if(0 != HC_PWM_CTRL_CMPMODE1_SHIFT)
 329:.\Generated_Source\PSoC5/HC_PWM.c ****                 uint8 comparemodemasked = ((uint8)((uint8)comparemode << HC_PWM_CTRL_CMPMODE1_SHIFT
 330:.\Generated_Source\PSoC5/HC_PWM.c ****                                            HC_PWM_CTRL_CMPMODE1_MASK;
 331:.\Generated_Source\PSoC5/HC_PWM.c ****             #else
 332:.\Generated_Source\PSoC5/HC_PWM.c ****                 uint8 comparemodemasked = comparemode & HC_PWM_CTRL_CMPMODE1_MASK;
 333:.\Generated_Source\PSoC5/HC_PWM.c ****             #endif /* (0 != HC_PWM_CTRL_CMPMODE1_SHIFT) */
 334:.\Generated_Source\PSoC5/HC_PWM.c **** 
 335:.\Generated_Source\PSoC5/HC_PWM.c ****             #if (HC_PWM_UseControl)
 336:.\Generated_Source\PSoC5/HC_PWM.c ****                 HC_PWM_CONTROL &= ((uint8)(~HC_PWM_CTRL_CMPMODE1_MASK)); /*Clear existing mode */
 337:.\Generated_Source\PSoC5/HC_PWM.c ****                 HC_PWM_CONTROL |= comparemodemasked;
 338:.\Generated_Source\PSoC5/HC_PWM.c ****             #endif /* (HC_PWM_UseControl) */
 339:.\Generated_Source\PSoC5/HC_PWM.c ****         }
 340:.\Generated_Source\PSoC5/HC_PWM.c ****     #endif /* HC_PWM_CompareMode1SW */
 341:.\Generated_Source\PSoC5/HC_PWM.c **** 
 342:.\Generated_Source\PSoC5/HC_PWM.c **** #if (HC_PWM_CompareMode2SW)
 343:.\Generated_Source\PSoC5/HC_PWM.c **** 
 344:.\Generated_Source\PSoC5/HC_PWM.c **** 
 345:.\Generated_Source\PSoC5/HC_PWM.c ****     /*******************************************************************************
 346:.\Generated_Source\PSoC5/HC_PWM.c ****     * Function Name: HC_PWM_SetCompareMode2
 347:.\Generated_Source\PSoC5/HC_PWM.c ****     ********************************************************************************
 348:.\Generated_Source\PSoC5/HC_PWM.c ****     *
 349:.\Generated_Source\PSoC5/HC_PWM.c ****     * Summary:
 350:.\Generated_Source\PSoC5/HC_PWM.c ****     *  This function writes the Compare Mode for the pwm or pwm2 output
 351:.\Generated_Source\PSoC5/HC_PWM.c ****     *
 352:.\Generated_Source\PSoC5/HC_PWM.c ****     * Parameters:
 353:.\Generated_Source\PSoC5/HC_PWM.c ****     *  comparemode:  The new compare mode for the PWM output. Use the compare types
 354:.\Generated_Source\PSoC5/HC_PWM.c ****     *                defined in the H file as input arguments.
 355:.\Generated_Source\PSoC5/HC_PWM.c ****     *
 356:.\Generated_Source\PSoC5/HC_PWM.c ****     * Return:
 357:.\Generated_Source\PSoC5/HC_PWM.c ****     *  None
 358:.\Generated_Source\PSoC5/HC_PWM.c ****     *
 359:.\Generated_Source\PSoC5/HC_PWM.c ****     *******************************************************************************/
 360:.\Generated_Source\PSoC5/HC_PWM.c ****     void HC_PWM_SetCompareMode2(uint8 comparemode) 
 361:.\Generated_Source\PSoC5/HC_PWM.c ****     {
 362:.\Generated_Source\PSoC5/HC_PWM.c **** 
 363:.\Generated_Source\PSoC5/HC_PWM.c ****         #if(0 != HC_PWM_CTRL_CMPMODE2_SHIFT)
 364:.\Generated_Source\PSoC5/HC_PWM.c ****             uint8 comparemodemasked = ((uint8)((uint8)comparemode << HC_PWM_CTRL_CMPMODE2_SHIFT)) &
 365:.\Generated_Source\PSoC5/HC_PWM.c ****                                                  HC_PWM_CTRL_CMPMODE2_MASK;
 366:.\Generated_Source\PSoC5/HC_PWM.c ****         #else
 367:.\Generated_Source\PSoC5/HC_PWM.c ****             uint8 comparemodemasked = comparemode & HC_PWM_CTRL_CMPMODE2_MASK;
 368:.\Generated_Source\PSoC5/HC_PWM.c ****         #endif /* (0 != HC_PWM_CTRL_CMPMODE2_SHIFT) */
 369:.\Generated_Source\PSoC5/HC_PWM.c **** 
 370:.\Generated_Source\PSoC5/HC_PWM.c ****         #if (HC_PWM_UseControl)
 371:.\Generated_Source\PSoC5/HC_PWM.c ****             HC_PWM_CONTROL &= ((uint8)(~HC_PWM_CTRL_CMPMODE2_MASK)); /*Clear existing mode */
 372:.\Generated_Source\PSoC5/HC_PWM.c ****             HC_PWM_CONTROL |= comparemodemasked;
 373:.\Generated_Source\PSoC5/HC_PWM.c ****         #endif /* (HC_PWM_UseControl) */
 374:.\Generated_Source\PSoC5/HC_PWM.c ****     }
 375:.\Generated_Source\PSoC5/HC_PWM.c ****     #endif /*HC_PWM_CompareMode2SW */
 376:.\Generated_Source\PSoC5/HC_PWM.c **** 
 377:.\Generated_Source\PSoC5/HC_PWM.c **** #endif /* UseOneCompareMode */
 378:.\Generated_Source\PSoC5/HC_PWM.c **** 
 379:.\Generated_Source\PSoC5/HC_PWM.c **** 
 380:.\Generated_Source\PSoC5/HC_PWM.c **** #if (!HC_PWM_UsingFixedFunction)
 381:.\Generated_Source\PSoC5/HC_PWM.c **** 
 382:.\Generated_Source\PSoC5/HC_PWM.c **** 
 383:.\Generated_Source\PSoC5/HC_PWM.c ****     /*******************************************************************************
ARM GAS  C:\Users\xavieran\AppData\Local\Temp\ccKNpO1j.s 			page 12


 384:.\Generated_Source\PSoC5/HC_PWM.c ****     * Function Name: HC_PWM_WriteCounter
 385:.\Generated_Source\PSoC5/HC_PWM.c ****     ********************************************************************************
 386:.\Generated_Source\PSoC5/HC_PWM.c ****     *
 387:.\Generated_Source\PSoC5/HC_PWM.c ****     * Summary:
 388:.\Generated_Source\PSoC5/HC_PWM.c ****     *  Writes a new counter value directly to the counter register. This will be
 389:.\Generated_Source\PSoC5/HC_PWM.c ****     *  implemented for that currently running period and only that period. This API
 390:.\Generated_Source\PSoC5/HC_PWM.c ****     *  is valid only for UDB implementation and not available for fixed function
 391:.\Generated_Source\PSoC5/HC_PWM.c ****     *  PWM implementation.
 392:.\Generated_Source\PSoC5/HC_PWM.c ****     *
 393:.\Generated_Source\PSoC5/HC_PWM.c ****     * Parameters:
 394:.\Generated_Source\PSoC5/HC_PWM.c ****     *  counter:  The period new period counter value.
 395:.\Generated_Source\PSoC5/HC_PWM.c ****     *
 396:.\Generated_Source\PSoC5/HC_PWM.c ****     * Return:
 397:.\Generated_Source\PSoC5/HC_PWM.c ****     *  None
 398:.\Generated_Source\PSoC5/HC_PWM.c ****     *
 399:.\Generated_Source\PSoC5/HC_PWM.c ****     * Side Effects:
 400:.\Generated_Source\PSoC5/HC_PWM.c ****     *  The PWM Period will be reloaded when a counter value will be a zero
 401:.\Generated_Source\PSoC5/HC_PWM.c ****     *
 402:.\Generated_Source\PSoC5/HC_PWM.c ****     *******************************************************************************/
 403:.\Generated_Source\PSoC5/HC_PWM.c ****     void HC_PWM_WriteCounter(uint16 counter) \
 404:.\Generated_Source\PSoC5/HC_PWM.c ****                                        
 405:.\Generated_Source\PSoC5/HC_PWM.c ****     {
 245              		.loc 1 405 0
 246              		.cfi_startproc
 247              		@ args = 0, pretend = 0, frame = 8
 248              		@ frame_needed = 1, uses_anonymous_args = 0
 249              		@ link register save eliminated.
 250 0000 80B4     		push	{r7}
 251              		.cfi_def_cfa_offset 4
 252              		.cfi_offset 7, -4
 253 0002 83B0     		sub	sp, sp, #12
 254              		.cfi_def_cfa_offset 16
 255 0004 00AF     		add	r7, sp, #0
 256              		.cfi_def_cfa_register 7
 257 0006 0346     		mov	r3, r0
 258 0008 FB80     		strh	r3, [r7, #6]	@ movhi
 406:.\Generated_Source\PSoC5/HC_PWM.c ****         CY_SET_REG16(HC_PWM_COUNTER_LSB_PTR, counter);
 259              		.loc 1 406 0
 260 000a 044B     		ldr	r3, .L15
 261 000c FA88     		ldrh	r2, [r7, #6]	@ movhi
 262 000e 1A80     		strh	r2, [r3]	@ movhi
 407:.\Generated_Source\PSoC5/HC_PWM.c ****     }
 263              		.loc 1 407 0
 264 0010 0C37     		adds	r7, r7, #12
 265 0012 BD46     		mov	sp, r7
 266              		@ sp needed
 267 0014 5DF8047B 		ldr	r7, [sp], #4
 268 0018 7047     		bx	lr
 269              	.L16:
 270 001a 00BF     		.align	2
 271              	.L15:
 272 001c 086A0040 		.word	1073768968
 273              		.cfi_endproc
 274              	.LFE4:
 275              		.size	HC_PWM_WriteCounter, .-HC_PWM_WriteCounter
 276              		.section	.text.HC_PWM_ReadCounter,"ax",%progbits
 277              		.align	2
ARM GAS  C:\Users\xavieran\AppData\Local\Temp\ccKNpO1j.s 			page 13


 278              		.global	HC_PWM_ReadCounter
 279              		.thumb
 280              		.thumb_func
 281              		.type	HC_PWM_ReadCounter, %function
 282              	HC_PWM_ReadCounter:
 283              	.LFB5:
 408:.\Generated_Source\PSoC5/HC_PWM.c **** 
 409:.\Generated_Source\PSoC5/HC_PWM.c **** 
 410:.\Generated_Source\PSoC5/HC_PWM.c ****     /*******************************************************************************
 411:.\Generated_Source\PSoC5/HC_PWM.c ****     * Function Name: HC_PWM_ReadCounter
 412:.\Generated_Source\PSoC5/HC_PWM.c ****     ********************************************************************************
 413:.\Generated_Source\PSoC5/HC_PWM.c ****     *
 414:.\Generated_Source\PSoC5/HC_PWM.c ****     * Summary:
 415:.\Generated_Source\PSoC5/HC_PWM.c ****     *  This function returns the current value of the counter.  It doesn't matter
 416:.\Generated_Source\PSoC5/HC_PWM.c ****     *  if the counter is enabled or running.
 417:.\Generated_Source\PSoC5/HC_PWM.c ****     *
 418:.\Generated_Source\PSoC5/HC_PWM.c ****     * Parameters:
 419:.\Generated_Source\PSoC5/HC_PWM.c ****     *  None
 420:.\Generated_Source\PSoC5/HC_PWM.c ****     *
 421:.\Generated_Source\PSoC5/HC_PWM.c ****     * Return:
 422:.\Generated_Source\PSoC5/HC_PWM.c ****     *  The current value of the counter.
 423:.\Generated_Source\PSoC5/HC_PWM.c ****     *
 424:.\Generated_Source\PSoC5/HC_PWM.c ****     *******************************************************************************/
 425:.\Generated_Source\PSoC5/HC_PWM.c ****     uint16 HC_PWM_ReadCounter(void) 
 426:.\Generated_Source\PSoC5/HC_PWM.c ****     {
 284              		.loc 1 426 0
 285              		.cfi_startproc
 286              		@ args = 0, pretend = 0, frame = 0
 287              		@ frame_needed = 1, uses_anonymous_args = 0
 288              		@ link register save eliminated.
 289 0000 80B4     		push	{r7}
 290              		.cfi_def_cfa_offset 4
 291              		.cfi_offset 7, -4
 292 0002 00AF     		add	r7, sp, #0
 293              		.cfi_def_cfa_register 7
 427:.\Generated_Source\PSoC5/HC_PWM.c ****         /* Force capture by reading Accumulator */
 428:.\Generated_Source\PSoC5/HC_PWM.c ****         /* Must first do a software capture to be able to read the counter */
 429:.\Generated_Source\PSoC5/HC_PWM.c ****         /* It is up to the user code to make sure there isn't already captured data in the FIFO */
 430:.\Generated_Source\PSoC5/HC_PWM.c ****           (void)CY_GET_REG8(HC_PWM_COUNTERCAP_LSB_PTR_8BIT);
 294              		.loc 1 430 0
 295 0004 044B     		ldr	r3, .L19
 296 0006 1B78     		ldrb	r3, [r3]
 431:.\Generated_Source\PSoC5/HC_PWM.c **** 
 432:.\Generated_Source\PSoC5/HC_PWM.c ****         /* Read the data from the FIFO */
 433:.\Generated_Source\PSoC5/HC_PWM.c ****         return (CY_GET_REG16(HC_PWM_CAPTURE_LSB_PTR));
 297              		.loc 1 433 0
 298 0008 044B     		ldr	r3, .L19+4
 299 000a 1B88     		ldrh	r3, [r3]	@ movhi
 300 000c 9BB2     		uxth	r3, r3
 434:.\Generated_Source\PSoC5/HC_PWM.c ****     }
 301              		.loc 1 434 0
 302 000e 1846     		mov	r0, r3
 303 0010 BD46     		mov	sp, r7
 304              		@ sp needed
 305 0012 5DF8047B 		ldr	r7, [sp], #4
 306 0016 7047     		bx	lr
 307              	.L20:
ARM GAS  C:\Users\xavieran\AppData\Local\Temp\ccKNpO1j.s 			page 14


 308              		.align	2
 309              	.L19:
 310 0018 14650040 		.word	1073767700
 311 001c A86A0040 		.word	1073769128
 312              		.cfi_endproc
 313              	.LFE5:
 314              		.size	HC_PWM_ReadCounter, .-HC_PWM_ReadCounter
 315              		.section	.text.HC_PWM_ClearFIFO,"ax",%progbits
 316              		.align	2
 317              		.global	HC_PWM_ClearFIFO
 318              		.thumb
 319              		.thumb_func
 320              		.type	HC_PWM_ClearFIFO, %function
 321              	HC_PWM_ClearFIFO:
 322              	.LFB6:
 435:.\Generated_Source\PSoC5/HC_PWM.c **** 
 436:.\Generated_Source\PSoC5/HC_PWM.c ****     #if (HC_PWM_UseStatus)
 437:.\Generated_Source\PSoC5/HC_PWM.c **** 
 438:.\Generated_Source\PSoC5/HC_PWM.c **** 
 439:.\Generated_Source\PSoC5/HC_PWM.c ****         /*******************************************************************************
 440:.\Generated_Source\PSoC5/HC_PWM.c ****         * Function Name: HC_PWM_ClearFIFO
 441:.\Generated_Source\PSoC5/HC_PWM.c ****         ********************************************************************************
 442:.\Generated_Source\PSoC5/HC_PWM.c ****         *
 443:.\Generated_Source\PSoC5/HC_PWM.c ****         * Summary:
 444:.\Generated_Source\PSoC5/HC_PWM.c ****         *  This function clears all capture data from the capture FIFO
 445:.\Generated_Source\PSoC5/HC_PWM.c ****         *
 446:.\Generated_Source\PSoC5/HC_PWM.c ****         * Parameters:
 447:.\Generated_Source\PSoC5/HC_PWM.c ****         *  None
 448:.\Generated_Source\PSoC5/HC_PWM.c ****         *
 449:.\Generated_Source\PSoC5/HC_PWM.c ****         * Return:
 450:.\Generated_Source\PSoC5/HC_PWM.c ****         *  None
 451:.\Generated_Source\PSoC5/HC_PWM.c ****         *
 452:.\Generated_Source\PSoC5/HC_PWM.c ****         *******************************************************************************/
 453:.\Generated_Source\PSoC5/HC_PWM.c ****         void HC_PWM_ClearFIFO(void) 
 454:.\Generated_Source\PSoC5/HC_PWM.c ****         {
 323              		.loc 1 454 0
 324              		.cfi_startproc
 325              		@ args = 0, pretend = 0, frame = 0
 326              		@ frame_needed = 1, uses_anonymous_args = 0
 327 0000 80B5     		push	{r7, lr}
 328              		.cfi_def_cfa_offset 8
 329              		.cfi_offset 7, -8
 330              		.cfi_offset 14, -4
 331 0002 00AF     		add	r7, sp, #0
 332              		.cfi_def_cfa_register 7
 455:.\Generated_Source\PSoC5/HC_PWM.c ****             while(0u != (HC_PWM_ReadStatusRegister() & HC_PWM_STATUS_FIFONEMPTY))
 333              		.loc 1 455 0
 334 0004 01E0     		b	.L22
 335              	.L23:
 456:.\Generated_Source\PSoC5/HC_PWM.c ****             {
 457:.\Generated_Source\PSoC5/HC_PWM.c ****                 (void)HC_PWM_ReadCapture();
 336              		.loc 1 457 0
 337 0006 FFF7FEFF 		bl	HC_PWM_ReadCapture
 338              	.L22:
 455:.\Generated_Source\PSoC5/HC_PWM.c ****             while(0u != (HC_PWM_ReadStatusRegister() & HC_PWM_STATUS_FIFONEMPTY))
 339              		.loc 1 455 0 discriminator 1
 340 000a FFF7FEFF 		bl	HC_PWM_ReadStatusRegister
ARM GAS  C:\Users\xavieran\AppData\Local\Temp\ccKNpO1j.s 			page 15


 341 000e 0346     		mov	r3, r0
 342 0010 03F01003 		and	r3, r3, #16
 343 0014 002B     		cmp	r3, #0
 344 0016 F6D1     		bne	.L23
 458:.\Generated_Source\PSoC5/HC_PWM.c ****             }
 459:.\Generated_Source\PSoC5/HC_PWM.c ****         }
 345              		.loc 1 459 0
 346 0018 80BD     		pop	{r7, pc}
 347              		.cfi_endproc
 348              	.LFE6:
 349              		.size	HC_PWM_ClearFIFO, .-HC_PWM_ClearFIFO
 350 001a 00BF     		.section	.text.HC_PWM_WritePeriod,"ax",%progbits
 351              		.align	2
 352              		.global	HC_PWM_WritePeriod
 353              		.thumb
 354              		.thumb_func
 355              		.type	HC_PWM_WritePeriod, %function
 356              	HC_PWM_WritePeriod:
 357              	.LFB7:
 460:.\Generated_Source\PSoC5/HC_PWM.c **** 
 461:.\Generated_Source\PSoC5/HC_PWM.c ****     #endif /* HC_PWM_UseStatus */
 462:.\Generated_Source\PSoC5/HC_PWM.c **** 
 463:.\Generated_Source\PSoC5/HC_PWM.c **** #endif /* !HC_PWM_UsingFixedFunction */
 464:.\Generated_Source\PSoC5/HC_PWM.c **** 
 465:.\Generated_Source\PSoC5/HC_PWM.c **** 
 466:.\Generated_Source\PSoC5/HC_PWM.c **** /*******************************************************************************
 467:.\Generated_Source\PSoC5/HC_PWM.c **** * Function Name: HC_PWM_WritePeriod
 468:.\Generated_Source\PSoC5/HC_PWM.c **** ********************************************************************************
 469:.\Generated_Source\PSoC5/HC_PWM.c **** *
 470:.\Generated_Source\PSoC5/HC_PWM.c **** * Summary:
 471:.\Generated_Source\PSoC5/HC_PWM.c **** *  This function is used to change the period of the counter.  The new period
 472:.\Generated_Source\PSoC5/HC_PWM.c **** *  will be loaded the next time terminal count is detected.
 473:.\Generated_Source\PSoC5/HC_PWM.c **** *
 474:.\Generated_Source\PSoC5/HC_PWM.c **** * Parameters:
 475:.\Generated_Source\PSoC5/HC_PWM.c **** *  period:  Period value. May be between 1 and (2^Resolution)-1.  A value of 0
 476:.\Generated_Source\PSoC5/HC_PWM.c **** *           will result in the counter remaining at zero.
 477:.\Generated_Source\PSoC5/HC_PWM.c **** *
 478:.\Generated_Source\PSoC5/HC_PWM.c **** * Return:
 479:.\Generated_Source\PSoC5/HC_PWM.c **** *  None
 480:.\Generated_Source\PSoC5/HC_PWM.c **** *
 481:.\Generated_Source\PSoC5/HC_PWM.c **** *******************************************************************************/
 482:.\Generated_Source\PSoC5/HC_PWM.c **** void HC_PWM_WritePeriod(uint16 period) 
 483:.\Generated_Source\PSoC5/HC_PWM.c **** {
 358              		.loc 1 483 0
 359              		.cfi_startproc
 360              		@ args = 0, pretend = 0, frame = 8
 361              		@ frame_needed = 1, uses_anonymous_args = 0
 362              		@ link register save eliminated.
 363 0000 80B4     		push	{r7}
 364              		.cfi_def_cfa_offset 4
 365              		.cfi_offset 7, -4
 366 0002 83B0     		sub	sp, sp, #12
 367              		.cfi_def_cfa_offset 16
 368 0004 00AF     		add	r7, sp, #0
 369              		.cfi_def_cfa_register 7
 370 0006 0346     		mov	r3, r0
 371 0008 FB80     		strh	r3, [r7, #6]	@ movhi
ARM GAS  C:\Users\xavieran\AppData\Local\Temp\ccKNpO1j.s 			page 16


 484:.\Generated_Source\PSoC5/HC_PWM.c ****     #if(HC_PWM_UsingFixedFunction)
 485:.\Generated_Source\PSoC5/HC_PWM.c ****         CY_SET_REG16(HC_PWM_PERIOD_LSB_PTR, (uint16)period);
 486:.\Generated_Source\PSoC5/HC_PWM.c ****     #else
 487:.\Generated_Source\PSoC5/HC_PWM.c ****         CY_SET_REG16(HC_PWM_PERIOD_LSB_PTR, period);
 372              		.loc 1 487 0
 373 000a 044B     		ldr	r3, .L25
 374 000c FA88     		ldrh	r2, [r7, #6]	@ movhi
 375 000e 1A80     		strh	r2, [r3]	@ movhi
 488:.\Generated_Source\PSoC5/HC_PWM.c ****     #endif /* (HC_PWM_UsingFixedFunction) */
 489:.\Generated_Source\PSoC5/HC_PWM.c **** }
 376              		.loc 1 489 0
 377 0010 0C37     		adds	r7, r7, #12
 378 0012 BD46     		mov	sp, r7
 379              		@ sp needed
 380 0014 5DF8047B 		ldr	r7, [sp], #4
 381 0018 7047     		bx	lr
 382              	.L26:
 383 001a 00BF     		.align	2
 384              	.L25:
 385 001c 886A0040 		.word	1073769096
 386              		.cfi_endproc
 387              	.LFE7:
 388              		.size	HC_PWM_WritePeriod, .-HC_PWM_WritePeriod
 389              		.section	.text.HC_PWM_WriteCompare1,"ax",%progbits
 390              		.align	2
 391              		.global	HC_PWM_WriteCompare1
 392              		.thumb
 393              		.thumb_func
 394              		.type	HC_PWM_WriteCompare1, %function
 395              	HC_PWM_WriteCompare1:
 396              	.LFB8:
 490:.\Generated_Source\PSoC5/HC_PWM.c **** 
 491:.\Generated_Source\PSoC5/HC_PWM.c **** #if (HC_PWM_UseOneCompareMode)
 492:.\Generated_Source\PSoC5/HC_PWM.c **** 
 493:.\Generated_Source\PSoC5/HC_PWM.c **** 
 494:.\Generated_Source\PSoC5/HC_PWM.c ****     /*******************************************************************************
 495:.\Generated_Source\PSoC5/HC_PWM.c ****     * Function Name: HC_PWM_WriteCompare
 496:.\Generated_Source\PSoC5/HC_PWM.c ****     ********************************************************************************
 497:.\Generated_Source\PSoC5/HC_PWM.c ****     *
 498:.\Generated_Source\PSoC5/HC_PWM.c ****     * Summary:
 499:.\Generated_Source\PSoC5/HC_PWM.c ****     *  This funtion is used to change the compare1 value when the PWM is in Dither
 500:.\Generated_Source\PSoC5/HC_PWM.c ****     *  mode. The compare output will reflect the new value on the next UDB clock.
 501:.\Generated_Source\PSoC5/HC_PWM.c ****     *  The compare output will be driven high when the present counter value is
 502:.\Generated_Source\PSoC5/HC_PWM.c ****     *  compared to the compare value based on the compare mode defined in
 503:.\Generated_Source\PSoC5/HC_PWM.c ****     *  Dither Mode.
 504:.\Generated_Source\PSoC5/HC_PWM.c ****     *
 505:.\Generated_Source\PSoC5/HC_PWM.c ****     * Parameters:
 506:.\Generated_Source\PSoC5/HC_PWM.c ****     *  compare:  New compare value.
 507:.\Generated_Source\PSoC5/HC_PWM.c ****     *
 508:.\Generated_Source\PSoC5/HC_PWM.c ****     * Return:
 509:.\Generated_Source\PSoC5/HC_PWM.c ****     *  None
 510:.\Generated_Source\PSoC5/HC_PWM.c ****     *
 511:.\Generated_Source\PSoC5/HC_PWM.c ****     * Side Effects:
 512:.\Generated_Source\PSoC5/HC_PWM.c ****     *  This function is only available if the PWM mode parameter is set to
 513:.\Generated_Source\PSoC5/HC_PWM.c ****     *  Dither Mode, Center Aligned Mode or One Output Mode
 514:.\Generated_Source\PSoC5/HC_PWM.c ****     *
 515:.\Generated_Source\PSoC5/HC_PWM.c ****     *******************************************************************************/
ARM GAS  C:\Users\xavieran\AppData\Local\Temp\ccKNpO1j.s 			page 17


 516:.\Generated_Source\PSoC5/HC_PWM.c ****     void HC_PWM_WriteCompare(uint16 compare) \
 517:.\Generated_Source\PSoC5/HC_PWM.c ****                                        
 518:.\Generated_Source\PSoC5/HC_PWM.c ****     {
 519:.\Generated_Source\PSoC5/HC_PWM.c ****         #if(HC_PWM_UsingFixedFunction)
 520:.\Generated_Source\PSoC5/HC_PWM.c ****             CY_SET_REG16(HC_PWM_COMPARE1_LSB_PTR, (uint16)compare);
 521:.\Generated_Source\PSoC5/HC_PWM.c ****         #else
 522:.\Generated_Source\PSoC5/HC_PWM.c ****             CY_SET_REG16(HC_PWM_COMPARE1_LSB_PTR, compare);
 523:.\Generated_Source\PSoC5/HC_PWM.c ****         #endif /* (HC_PWM_UsingFixedFunction) */
 524:.\Generated_Source\PSoC5/HC_PWM.c **** 
 525:.\Generated_Source\PSoC5/HC_PWM.c ****         #if (HC_PWM_PWMMode == HC_PWM__B_PWM__DITHER)
 526:.\Generated_Source\PSoC5/HC_PWM.c ****             #if(HC_PWM_UsingFixedFunction)
 527:.\Generated_Source\PSoC5/HC_PWM.c ****                 CY_SET_REG16(HC_PWM_COMPARE2_LSB_PTR, (uint16)(compare + 1u));
 528:.\Generated_Source\PSoC5/HC_PWM.c ****             #else
 529:.\Generated_Source\PSoC5/HC_PWM.c ****                 CY_SET_REG16(HC_PWM_COMPARE2_LSB_PTR, (compare + 1u));
 530:.\Generated_Source\PSoC5/HC_PWM.c ****             #endif /* (HC_PWM_UsingFixedFunction) */
 531:.\Generated_Source\PSoC5/HC_PWM.c ****         #endif /* (HC_PWM_PWMMode == HC_PWM__B_PWM__DITHER) */
 532:.\Generated_Source\PSoC5/HC_PWM.c ****     }
 533:.\Generated_Source\PSoC5/HC_PWM.c **** 
 534:.\Generated_Source\PSoC5/HC_PWM.c **** 
 535:.\Generated_Source\PSoC5/HC_PWM.c **** #else
 536:.\Generated_Source\PSoC5/HC_PWM.c **** 
 537:.\Generated_Source\PSoC5/HC_PWM.c **** 
 538:.\Generated_Source\PSoC5/HC_PWM.c ****     /*******************************************************************************
 539:.\Generated_Source\PSoC5/HC_PWM.c ****     * Function Name: HC_PWM_WriteCompare1
 540:.\Generated_Source\PSoC5/HC_PWM.c ****     ********************************************************************************
 541:.\Generated_Source\PSoC5/HC_PWM.c ****     *
 542:.\Generated_Source\PSoC5/HC_PWM.c ****     * Summary:
 543:.\Generated_Source\PSoC5/HC_PWM.c ****     *  This funtion is used to change the compare1 value.  The compare output will
 544:.\Generated_Source\PSoC5/HC_PWM.c ****     *  reflect the new value on the next UDB clock.  The compare output will be
 545:.\Generated_Source\PSoC5/HC_PWM.c ****     *  driven high when the present counter value is less than or less than or
 546:.\Generated_Source\PSoC5/HC_PWM.c ****     *  equal to the compare register, depending on the mode.
 547:.\Generated_Source\PSoC5/HC_PWM.c ****     *
 548:.\Generated_Source\PSoC5/HC_PWM.c ****     * Parameters:
 549:.\Generated_Source\PSoC5/HC_PWM.c ****     *  compare:  New compare value.
 550:.\Generated_Source\PSoC5/HC_PWM.c ****     *
 551:.\Generated_Source\PSoC5/HC_PWM.c ****     * Return:
 552:.\Generated_Source\PSoC5/HC_PWM.c ****     *  None
 553:.\Generated_Source\PSoC5/HC_PWM.c ****     *
 554:.\Generated_Source\PSoC5/HC_PWM.c ****     *******************************************************************************/
 555:.\Generated_Source\PSoC5/HC_PWM.c ****     void HC_PWM_WriteCompare1(uint16 compare) \
 556:.\Generated_Source\PSoC5/HC_PWM.c ****                                         
 557:.\Generated_Source\PSoC5/HC_PWM.c ****     {
 397              		.loc 1 557 0
 398              		.cfi_startproc
 399              		@ args = 0, pretend = 0, frame = 8
 400              		@ frame_needed = 1, uses_anonymous_args = 0
 401              		@ link register save eliminated.
 402 0000 80B4     		push	{r7}
 403              		.cfi_def_cfa_offset 4
 404              		.cfi_offset 7, -4
 405 0002 83B0     		sub	sp, sp, #12
 406              		.cfi_def_cfa_offset 16
 407 0004 00AF     		add	r7, sp, #0
 408              		.cfi_def_cfa_register 7
 409 0006 0346     		mov	r3, r0
 410 0008 FB80     		strh	r3, [r7, #6]	@ movhi
 558:.\Generated_Source\PSoC5/HC_PWM.c ****         #if(HC_PWM_UsingFixedFunction)
ARM GAS  C:\Users\xavieran\AppData\Local\Temp\ccKNpO1j.s 			page 18


 559:.\Generated_Source\PSoC5/HC_PWM.c ****             CY_SET_REG16(HC_PWM_COMPARE1_LSB_PTR, (uint16)compare);
 560:.\Generated_Source\PSoC5/HC_PWM.c ****         #else
 561:.\Generated_Source\PSoC5/HC_PWM.c ****             CY_SET_REG16(HC_PWM_COMPARE1_LSB_PTR, compare);
 411              		.loc 1 561 0
 412 000a 044B     		ldr	r3, .L28
 413 000c FA88     		ldrh	r2, [r7, #6]	@ movhi
 414 000e 1A80     		strh	r2, [r3]	@ movhi
 562:.\Generated_Source\PSoC5/HC_PWM.c ****         #endif /* (HC_PWM_UsingFixedFunction) */
 563:.\Generated_Source\PSoC5/HC_PWM.c ****     }
 415              		.loc 1 563 0
 416 0010 0C37     		adds	r7, r7, #12
 417 0012 BD46     		mov	sp, r7
 418              		@ sp needed
 419 0014 5DF8047B 		ldr	r7, [sp], #4
 420 0018 7047     		bx	lr
 421              	.L29:
 422 001a 00BF     		.align	2
 423              	.L28:
 424 001c 486A0040 		.word	1073769032
 425              		.cfi_endproc
 426              	.LFE8:
 427              		.size	HC_PWM_WriteCompare1, .-HC_PWM_WriteCompare1
 428              		.section	.text.HC_PWM_WriteCompare2,"ax",%progbits
 429              		.align	2
 430              		.global	HC_PWM_WriteCompare2
 431              		.thumb
 432              		.thumb_func
 433              		.type	HC_PWM_WriteCompare2, %function
 434              	HC_PWM_WriteCompare2:
 435              	.LFB9:
 564:.\Generated_Source\PSoC5/HC_PWM.c **** 
 565:.\Generated_Source\PSoC5/HC_PWM.c **** 
 566:.\Generated_Source\PSoC5/HC_PWM.c ****     /*******************************************************************************
 567:.\Generated_Source\PSoC5/HC_PWM.c ****     * Function Name: HC_PWM_WriteCompare2
 568:.\Generated_Source\PSoC5/HC_PWM.c ****     ********************************************************************************
 569:.\Generated_Source\PSoC5/HC_PWM.c ****     *
 570:.\Generated_Source\PSoC5/HC_PWM.c ****     * Summary:
 571:.\Generated_Source\PSoC5/HC_PWM.c ****     *  This funtion is used to change the compare value, for compare1 output.
 572:.\Generated_Source\PSoC5/HC_PWM.c ****     *  The compare output will reflect the new value on the next UDB clock.
 573:.\Generated_Source\PSoC5/HC_PWM.c ****     *  The compare output will be driven high when the present counter value is
 574:.\Generated_Source\PSoC5/HC_PWM.c ****     *  less than or less than or equal to the compare register, depending on the
 575:.\Generated_Source\PSoC5/HC_PWM.c ****     *  mode.
 576:.\Generated_Source\PSoC5/HC_PWM.c ****     *
 577:.\Generated_Source\PSoC5/HC_PWM.c ****     * Parameters:
 578:.\Generated_Source\PSoC5/HC_PWM.c ****     *  compare:  New compare value.
 579:.\Generated_Source\PSoC5/HC_PWM.c ****     *
 580:.\Generated_Source\PSoC5/HC_PWM.c ****     * Return:
 581:.\Generated_Source\PSoC5/HC_PWM.c ****     *  None
 582:.\Generated_Source\PSoC5/HC_PWM.c ****     *
 583:.\Generated_Source\PSoC5/HC_PWM.c ****     *******************************************************************************/
 584:.\Generated_Source\PSoC5/HC_PWM.c ****     void HC_PWM_WriteCompare2(uint16 compare) \
 585:.\Generated_Source\PSoC5/HC_PWM.c ****                                         
 586:.\Generated_Source\PSoC5/HC_PWM.c ****     {
 436              		.loc 1 586 0
 437              		.cfi_startproc
 438              		@ args = 0, pretend = 0, frame = 8
 439              		@ frame_needed = 1, uses_anonymous_args = 0
ARM GAS  C:\Users\xavieran\AppData\Local\Temp\ccKNpO1j.s 			page 19


 440              		@ link register save eliminated.
 441 0000 80B4     		push	{r7}
 442              		.cfi_def_cfa_offset 4
 443              		.cfi_offset 7, -4
 444 0002 83B0     		sub	sp, sp, #12
 445              		.cfi_def_cfa_offset 16
 446 0004 00AF     		add	r7, sp, #0
 447              		.cfi_def_cfa_register 7
 448 0006 0346     		mov	r3, r0
 449 0008 FB80     		strh	r3, [r7, #6]	@ movhi
 587:.\Generated_Source\PSoC5/HC_PWM.c ****         #if(HC_PWM_UsingFixedFunction)
 588:.\Generated_Source\PSoC5/HC_PWM.c ****             CY_SET_REG16(HC_PWM_COMPARE2_LSB_PTR, compare);
 589:.\Generated_Source\PSoC5/HC_PWM.c ****         #else
 590:.\Generated_Source\PSoC5/HC_PWM.c ****             CY_SET_REG16(HC_PWM_COMPARE2_LSB_PTR, compare);
 450              		.loc 1 590 0
 451 000a 044B     		ldr	r3, .L31
 452 000c FA88     		ldrh	r2, [r7, #6]	@ movhi
 453 000e 1A80     		strh	r2, [r3]	@ movhi
 591:.\Generated_Source\PSoC5/HC_PWM.c ****         #endif /* (HC_PWM_UsingFixedFunction) */
 592:.\Generated_Source\PSoC5/HC_PWM.c ****     }
 454              		.loc 1 592 0
 455 0010 0C37     		adds	r7, r7, #12
 456 0012 BD46     		mov	sp, r7
 457              		@ sp needed
 458 0014 5DF8047B 		ldr	r7, [sp], #4
 459 0018 7047     		bx	lr
 460              	.L32:
 461 001a 00BF     		.align	2
 462              	.L31:
 463 001c 686A0040 		.word	1073769064
 464              		.cfi_endproc
 465              	.LFE9:
 466              		.size	HC_PWM_WriteCompare2, .-HC_PWM_WriteCompare2
 467              		.section	.text.HC_PWM_SetInterruptMode,"ax",%progbits
 468              		.align	2
 469              		.global	HC_PWM_SetInterruptMode
 470              		.thumb
 471              		.thumb_func
 472              		.type	HC_PWM_SetInterruptMode, %function
 473              	HC_PWM_SetInterruptMode:
 474              	.LFB10:
 593:.\Generated_Source\PSoC5/HC_PWM.c **** #endif /* UseOneCompareMode */
 594:.\Generated_Source\PSoC5/HC_PWM.c **** 
 595:.\Generated_Source\PSoC5/HC_PWM.c **** #if (HC_PWM_DeadBandUsed)
 596:.\Generated_Source\PSoC5/HC_PWM.c **** 
 597:.\Generated_Source\PSoC5/HC_PWM.c **** 
 598:.\Generated_Source\PSoC5/HC_PWM.c ****     /*******************************************************************************
 599:.\Generated_Source\PSoC5/HC_PWM.c ****     * Function Name: HC_PWM_WriteDeadTime
 600:.\Generated_Source\PSoC5/HC_PWM.c ****     ********************************************************************************
 601:.\Generated_Source\PSoC5/HC_PWM.c ****     *
 602:.\Generated_Source\PSoC5/HC_PWM.c ****     * Summary:
 603:.\Generated_Source\PSoC5/HC_PWM.c ****     *  This function writes the dead-band counts to the corresponding register
 604:.\Generated_Source\PSoC5/HC_PWM.c ****     *
 605:.\Generated_Source\PSoC5/HC_PWM.c ****     * Parameters:
 606:.\Generated_Source\PSoC5/HC_PWM.c ****     *  deadtime:  Number of counts for dead time
 607:.\Generated_Source\PSoC5/HC_PWM.c ****     *
 608:.\Generated_Source\PSoC5/HC_PWM.c ****     * Return:
ARM GAS  C:\Users\xavieran\AppData\Local\Temp\ccKNpO1j.s 			page 20


 609:.\Generated_Source\PSoC5/HC_PWM.c ****     *  None
 610:.\Generated_Source\PSoC5/HC_PWM.c ****     *
 611:.\Generated_Source\PSoC5/HC_PWM.c ****     *******************************************************************************/
 612:.\Generated_Source\PSoC5/HC_PWM.c ****     void HC_PWM_WriteDeadTime(uint8 deadtime) 
 613:.\Generated_Source\PSoC5/HC_PWM.c ****     {
 614:.\Generated_Source\PSoC5/HC_PWM.c ****         /* If using the Dead Band 1-255 mode then just write the register */
 615:.\Generated_Source\PSoC5/HC_PWM.c ****         #if(!HC_PWM_DeadBand2_4)
 616:.\Generated_Source\PSoC5/HC_PWM.c ****             CY_SET_REG8(HC_PWM_DEADBAND_COUNT_PTR, deadtime);
 617:.\Generated_Source\PSoC5/HC_PWM.c ****         #else
 618:.\Generated_Source\PSoC5/HC_PWM.c ****             /* Otherwise the data has to be masked and offset */
 619:.\Generated_Source\PSoC5/HC_PWM.c ****             /* Clear existing data */
 620:.\Generated_Source\PSoC5/HC_PWM.c ****             HC_PWM_DEADBAND_COUNT &= ((uint8)(~HC_PWM_DEADBAND_COUNT_MASK));
 621:.\Generated_Source\PSoC5/HC_PWM.c **** 
 622:.\Generated_Source\PSoC5/HC_PWM.c ****             /* Set new dead time */
 623:.\Generated_Source\PSoC5/HC_PWM.c ****             #if(HC_PWM_DEADBAND_COUNT_SHIFT)
 624:.\Generated_Source\PSoC5/HC_PWM.c ****                 HC_PWM_DEADBAND_COUNT |= ((uint8)((uint8)deadtime << HC_PWM_DEADBAND_COUNT_SHIFT)) 
 625:.\Generated_Source\PSoC5/HC_PWM.c ****                                                     HC_PWM_DEADBAND_COUNT_MASK;
 626:.\Generated_Source\PSoC5/HC_PWM.c ****             #else
 627:.\Generated_Source\PSoC5/HC_PWM.c ****                 HC_PWM_DEADBAND_COUNT |= deadtime & HC_PWM_DEADBAND_COUNT_MASK;
 628:.\Generated_Source\PSoC5/HC_PWM.c ****             #endif /* (HC_PWM_DEADBAND_COUNT_SHIFT) */
 629:.\Generated_Source\PSoC5/HC_PWM.c **** 
 630:.\Generated_Source\PSoC5/HC_PWM.c ****         #endif /* (!HC_PWM_DeadBand2_4) */
 631:.\Generated_Source\PSoC5/HC_PWM.c ****     }
 632:.\Generated_Source\PSoC5/HC_PWM.c **** 
 633:.\Generated_Source\PSoC5/HC_PWM.c **** 
 634:.\Generated_Source\PSoC5/HC_PWM.c ****     /*******************************************************************************
 635:.\Generated_Source\PSoC5/HC_PWM.c ****     * Function Name: HC_PWM_ReadDeadTime
 636:.\Generated_Source\PSoC5/HC_PWM.c ****     ********************************************************************************
 637:.\Generated_Source\PSoC5/HC_PWM.c ****     *
 638:.\Generated_Source\PSoC5/HC_PWM.c ****     * Summary:
 639:.\Generated_Source\PSoC5/HC_PWM.c ****     *  This function reads the dead-band counts from the corresponding register
 640:.\Generated_Source\PSoC5/HC_PWM.c ****     *
 641:.\Generated_Source\PSoC5/HC_PWM.c ****     * Parameters:
 642:.\Generated_Source\PSoC5/HC_PWM.c ****     *  None
 643:.\Generated_Source\PSoC5/HC_PWM.c ****     *
 644:.\Generated_Source\PSoC5/HC_PWM.c ****     * Return:
 645:.\Generated_Source\PSoC5/HC_PWM.c ****     *  Dead Band Counts
 646:.\Generated_Source\PSoC5/HC_PWM.c ****     *
 647:.\Generated_Source\PSoC5/HC_PWM.c ****     *******************************************************************************/
 648:.\Generated_Source\PSoC5/HC_PWM.c ****     uint8 HC_PWM_ReadDeadTime(void) 
 649:.\Generated_Source\PSoC5/HC_PWM.c ****     {
 650:.\Generated_Source\PSoC5/HC_PWM.c ****         /* If using the Dead Band 1-255 mode then just read the register */
 651:.\Generated_Source\PSoC5/HC_PWM.c ****         #if(!HC_PWM_DeadBand2_4)
 652:.\Generated_Source\PSoC5/HC_PWM.c ****             return (CY_GET_REG8(HC_PWM_DEADBAND_COUNT_PTR));
 653:.\Generated_Source\PSoC5/HC_PWM.c ****         #else
 654:.\Generated_Source\PSoC5/HC_PWM.c **** 
 655:.\Generated_Source\PSoC5/HC_PWM.c ****             /* Otherwise the data has to be masked and offset */
 656:.\Generated_Source\PSoC5/HC_PWM.c ****             #if(HC_PWM_DEADBAND_COUNT_SHIFT)
 657:.\Generated_Source\PSoC5/HC_PWM.c ****                 return ((uint8)(((uint8)(HC_PWM_DEADBAND_COUNT & HC_PWM_DEADBAND_COUNT_MASK)) >>
 658:.\Generated_Source\PSoC5/HC_PWM.c ****                                                                            HC_PWM_DEADBAND_COUNT_SH
 659:.\Generated_Source\PSoC5/HC_PWM.c ****             #else
 660:.\Generated_Source\PSoC5/HC_PWM.c ****                 return (HC_PWM_DEADBAND_COUNT & HC_PWM_DEADBAND_COUNT_MASK);
 661:.\Generated_Source\PSoC5/HC_PWM.c ****             #endif /* (HC_PWM_DEADBAND_COUNT_SHIFT) */
 662:.\Generated_Source\PSoC5/HC_PWM.c ****         #endif /* (!HC_PWM_DeadBand2_4) */
 663:.\Generated_Source\PSoC5/HC_PWM.c ****     }
 664:.\Generated_Source\PSoC5/HC_PWM.c **** #endif /* DeadBandUsed */
 665:.\Generated_Source\PSoC5/HC_PWM.c **** 
ARM GAS  C:\Users\xavieran\AppData\Local\Temp\ccKNpO1j.s 			page 21


 666:.\Generated_Source\PSoC5/HC_PWM.c **** #if (HC_PWM_UseStatus || HC_PWM_UsingFixedFunction)
 667:.\Generated_Source\PSoC5/HC_PWM.c **** 
 668:.\Generated_Source\PSoC5/HC_PWM.c **** 
 669:.\Generated_Source\PSoC5/HC_PWM.c ****     /*******************************************************************************
 670:.\Generated_Source\PSoC5/HC_PWM.c ****     * Function Name: HC_PWM_SetInterruptMode
 671:.\Generated_Source\PSoC5/HC_PWM.c ****     ********************************************************************************
 672:.\Generated_Source\PSoC5/HC_PWM.c ****     *
 673:.\Generated_Source\PSoC5/HC_PWM.c ****     * Summary:
 674:.\Generated_Source\PSoC5/HC_PWM.c ****     *  This function configures the interrupts mask control of theinterrupt
 675:.\Generated_Source\PSoC5/HC_PWM.c ****     *  source status register.
 676:.\Generated_Source\PSoC5/HC_PWM.c ****     *
 677:.\Generated_Source\PSoC5/HC_PWM.c ****     * Parameters:
 678:.\Generated_Source\PSoC5/HC_PWM.c ****     *  uint8 interruptMode: Bit field containing the interrupt sources enabled
 679:.\Generated_Source\PSoC5/HC_PWM.c ****     *
 680:.\Generated_Source\PSoC5/HC_PWM.c ****     * Return:
 681:.\Generated_Source\PSoC5/HC_PWM.c ****     *  None
 682:.\Generated_Source\PSoC5/HC_PWM.c ****     *
 683:.\Generated_Source\PSoC5/HC_PWM.c ****     *******************************************************************************/
 684:.\Generated_Source\PSoC5/HC_PWM.c ****     void HC_PWM_SetInterruptMode(uint8 interruptMode) 
 685:.\Generated_Source\PSoC5/HC_PWM.c ****     {
 475              		.loc 1 685 0
 476              		.cfi_startproc
 477              		@ args = 0, pretend = 0, frame = 8
 478              		@ frame_needed = 1, uses_anonymous_args = 0
 479              		@ link register save eliminated.
 480 0000 80B4     		push	{r7}
 481              		.cfi_def_cfa_offset 4
 482              		.cfi_offset 7, -4
 483 0002 83B0     		sub	sp, sp, #12
 484              		.cfi_def_cfa_offset 16
 485 0004 00AF     		add	r7, sp, #0
 486              		.cfi_def_cfa_register 7
 487 0006 0346     		mov	r3, r0
 488 0008 FB71     		strb	r3, [r7, #7]
 686:.\Generated_Source\PSoC5/HC_PWM.c ****         CY_SET_REG8(HC_PWM_STATUS_MASK_PTR, interruptMode);
 489              		.loc 1 686 0
 490 000a 044B     		ldr	r3, .L34
 491 000c FA79     		ldrb	r2, [r7, #7]
 492 000e 1A70     		strb	r2, [r3]
 687:.\Generated_Source\PSoC5/HC_PWM.c ****     }
 493              		.loc 1 687 0
 494 0010 0C37     		adds	r7, r7, #12
 495 0012 BD46     		mov	sp, r7
 496              		@ sp needed
 497 0014 5DF8047B 		ldr	r7, [sp], #4
 498 0018 7047     		bx	lr
 499              	.L35:
 500 001a 00BF     		.align	2
 501              	.L34:
 502 001c 85650040 		.word	1073767813
 503              		.cfi_endproc
 504              	.LFE10:
 505              		.size	HC_PWM_SetInterruptMode, .-HC_PWM_SetInterruptMode
 506              		.section	.text.HC_PWM_ReadStatusRegister,"ax",%progbits
 507              		.align	2
 508              		.global	HC_PWM_ReadStatusRegister
 509              		.thumb
ARM GAS  C:\Users\xavieran\AppData\Local\Temp\ccKNpO1j.s 			page 22


 510              		.thumb_func
 511              		.type	HC_PWM_ReadStatusRegister, %function
 512              	HC_PWM_ReadStatusRegister:
 513              	.LFB11:
 688:.\Generated_Source\PSoC5/HC_PWM.c **** 
 689:.\Generated_Source\PSoC5/HC_PWM.c **** 
 690:.\Generated_Source\PSoC5/HC_PWM.c ****     /*******************************************************************************
 691:.\Generated_Source\PSoC5/HC_PWM.c ****     * Function Name: HC_PWM_ReadStatusRegister
 692:.\Generated_Source\PSoC5/HC_PWM.c ****     ********************************************************************************
 693:.\Generated_Source\PSoC5/HC_PWM.c ****     *
 694:.\Generated_Source\PSoC5/HC_PWM.c ****     * Summary:
 695:.\Generated_Source\PSoC5/HC_PWM.c ****     *  This function returns the current state of the status register.
 696:.\Generated_Source\PSoC5/HC_PWM.c ****     *
 697:.\Generated_Source\PSoC5/HC_PWM.c ****     * Parameters:
 698:.\Generated_Source\PSoC5/HC_PWM.c ****     *  None
 699:.\Generated_Source\PSoC5/HC_PWM.c ****     *
 700:.\Generated_Source\PSoC5/HC_PWM.c ****     * Return:
 701:.\Generated_Source\PSoC5/HC_PWM.c ****     *  uint8 : Current status register value. The status register bits are:
 702:.\Generated_Source\PSoC5/HC_PWM.c ****     *  [7:6] : Unused(0)
 703:.\Generated_Source\PSoC5/HC_PWM.c ****     *  [5]   : Kill event output
 704:.\Generated_Source\PSoC5/HC_PWM.c ****     *  [4]   : FIFO not empty
 705:.\Generated_Source\PSoC5/HC_PWM.c ****     *  [3]   : FIFO full
 706:.\Generated_Source\PSoC5/HC_PWM.c ****     *  [2]   : Terminal count
 707:.\Generated_Source\PSoC5/HC_PWM.c ****     *  [1]   : Compare output 2
 708:.\Generated_Source\PSoC5/HC_PWM.c ****     *  [0]   : Compare output 1
 709:.\Generated_Source\PSoC5/HC_PWM.c ****     *
 710:.\Generated_Source\PSoC5/HC_PWM.c ****     *******************************************************************************/
 711:.\Generated_Source\PSoC5/HC_PWM.c ****     uint8 HC_PWM_ReadStatusRegister(void) 
 712:.\Generated_Source\PSoC5/HC_PWM.c ****     {
 514              		.loc 1 712 0
 515              		.cfi_startproc
 516              		@ args = 0, pretend = 0, frame = 0
 517              		@ frame_needed = 1, uses_anonymous_args = 0
 518              		@ link register save eliminated.
 519 0000 80B4     		push	{r7}
 520              		.cfi_def_cfa_offset 4
 521              		.cfi_offset 7, -4
 522 0002 00AF     		add	r7, sp, #0
 523              		.cfi_def_cfa_register 7
 713:.\Generated_Source\PSoC5/HC_PWM.c ****         return (CY_GET_REG8(HC_PWM_STATUS_PTR));
 524              		.loc 1 713 0
 525 0004 034B     		ldr	r3, .L38
 526 0006 1B78     		ldrb	r3, [r3]
 527 0008 DBB2     		uxtb	r3, r3
 714:.\Generated_Source\PSoC5/HC_PWM.c ****     }
 528              		.loc 1 714 0
 529 000a 1846     		mov	r0, r3
 530 000c BD46     		mov	sp, r7
 531              		@ sp needed
 532 000e 5DF8047B 		ldr	r7, [sp], #4
 533 0012 7047     		bx	lr
 534              	.L39:
 535              		.align	2
 536              	.L38:
 537 0014 65650040 		.word	1073767781
 538              		.cfi_endproc
 539              	.LFE11:
ARM GAS  C:\Users\xavieran\AppData\Local\Temp\ccKNpO1j.s 			page 23


 540              		.size	HC_PWM_ReadStatusRegister, .-HC_PWM_ReadStatusRegister
 541              		.section	.text.HC_PWM_ReadControlRegister,"ax",%progbits
 542              		.align	2
 543              		.global	HC_PWM_ReadControlRegister
 544              		.thumb
 545              		.thumb_func
 546              		.type	HC_PWM_ReadControlRegister, %function
 547              	HC_PWM_ReadControlRegister:
 548              	.LFB12:
 715:.\Generated_Source\PSoC5/HC_PWM.c **** 
 716:.\Generated_Source\PSoC5/HC_PWM.c **** #endif /* (HC_PWM_UseStatus || HC_PWM_UsingFixedFunction) */
 717:.\Generated_Source\PSoC5/HC_PWM.c **** 
 718:.\Generated_Source\PSoC5/HC_PWM.c **** 
 719:.\Generated_Source\PSoC5/HC_PWM.c **** #if (HC_PWM_UseControl)
 720:.\Generated_Source\PSoC5/HC_PWM.c **** 
 721:.\Generated_Source\PSoC5/HC_PWM.c **** 
 722:.\Generated_Source\PSoC5/HC_PWM.c ****     /*******************************************************************************
 723:.\Generated_Source\PSoC5/HC_PWM.c ****     * Function Name: HC_PWM_ReadControlRegister
 724:.\Generated_Source\PSoC5/HC_PWM.c ****     ********************************************************************************
 725:.\Generated_Source\PSoC5/HC_PWM.c ****     *
 726:.\Generated_Source\PSoC5/HC_PWM.c ****     * Summary:
 727:.\Generated_Source\PSoC5/HC_PWM.c ****     *  Returns the current state of the control register. This API is available
 728:.\Generated_Source\PSoC5/HC_PWM.c ****     *  only if the control register is not removed.
 729:.\Generated_Source\PSoC5/HC_PWM.c ****     *
 730:.\Generated_Source\PSoC5/HC_PWM.c ****     * Parameters:
 731:.\Generated_Source\PSoC5/HC_PWM.c ****     *  None
 732:.\Generated_Source\PSoC5/HC_PWM.c ****     *
 733:.\Generated_Source\PSoC5/HC_PWM.c ****     * Return:
 734:.\Generated_Source\PSoC5/HC_PWM.c ****     *  uint8 : Current control register value
 735:.\Generated_Source\PSoC5/HC_PWM.c ****     *
 736:.\Generated_Source\PSoC5/HC_PWM.c ****     *******************************************************************************/
 737:.\Generated_Source\PSoC5/HC_PWM.c ****     uint8 HC_PWM_ReadControlRegister(void) 
 738:.\Generated_Source\PSoC5/HC_PWM.c ****     {
 549              		.loc 1 738 0
 550              		.cfi_startproc
 551              		@ args = 0, pretend = 0, frame = 8
 552              		@ frame_needed = 1, uses_anonymous_args = 0
 553              		@ link register save eliminated.
 554 0000 80B4     		push	{r7}
 555              		.cfi_def_cfa_offset 4
 556              		.cfi_offset 7, -4
 557 0002 83B0     		sub	sp, sp, #12
 558              		.cfi_def_cfa_offset 16
 559 0004 00AF     		add	r7, sp, #0
 560              		.cfi_def_cfa_register 7
 739:.\Generated_Source\PSoC5/HC_PWM.c ****         uint8 result;
 740:.\Generated_Source\PSoC5/HC_PWM.c **** 
 741:.\Generated_Source\PSoC5/HC_PWM.c ****         result = CY_GET_REG8(HC_PWM_CONTROL_PTR);
 561              		.loc 1 741 0
 562 0006 054B     		ldr	r3, .L42
 563 0008 1B78     		ldrb	r3, [r3]
 564 000a FB71     		strb	r3, [r7, #7]
 742:.\Generated_Source\PSoC5/HC_PWM.c ****         return (result);
 565              		.loc 1 742 0
 566 000c FB79     		ldrb	r3, [r7, #7]	@ zero_extendqisi2
 743:.\Generated_Source\PSoC5/HC_PWM.c ****     }
 567              		.loc 1 743 0
ARM GAS  C:\Users\xavieran\AppData\Local\Temp\ccKNpO1j.s 			page 24


 568 000e 1846     		mov	r0, r3
 569 0010 0C37     		adds	r7, r7, #12
 570 0012 BD46     		mov	sp, r7
 571              		@ sp needed
 572 0014 5DF8047B 		ldr	r7, [sp], #4
 573 0018 7047     		bx	lr
 574              	.L43:
 575 001a 00BF     		.align	2
 576              	.L42:
 577 001c 75650040 		.word	1073767797
 578              		.cfi_endproc
 579              	.LFE12:
 580              		.size	HC_PWM_ReadControlRegister, .-HC_PWM_ReadControlRegister
 581              		.section	.text.HC_PWM_WriteControlRegister,"ax",%progbits
 582              		.align	2
 583              		.global	HC_PWM_WriteControlRegister
 584              		.thumb
 585              		.thumb_func
 586              		.type	HC_PWM_WriteControlRegister, %function
 587              	HC_PWM_WriteControlRegister:
 588              	.LFB13:
 744:.\Generated_Source\PSoC5/HC_PWM.c **** 
 745:.\Generated_Source\PSoC5/HC_PWM.c **** 
 746:.\Generated_Source\PSoC5/HC_PWM.c ****     /*******************************************************************************
 747:.\Generated_Source\PSoC5/HC_PWM.c ****     * Function Name: HC_PWM_WriteControlRegister
 748:.\Generated_Source\PSoC5/HC_PWM.c ****     ********************************************************************************
 749:.\Generated_Source\PSoC5/HC_PWM.c ****     *
 750:.\Generated_Source\PSoC5/HC_PWM.c ****     * Summary:
 751:.\Generated_Source\PSoC5/HC_PWM.c ****     *  Sets the bit field of the control register. This API is available only if
 752:.\Generated_Source\PSoC5/HC_PWM.c ****     *  the control register is not removed.
 753:.\Generated_Source\PSoC5/HC_PWM.c ****     *
 754:.\Generated_Source\PSoC5/HC_PWM.c ****     * Parameters:
 755:.\Generated_Source\PSoC5/HC_PWM.c ****     *  uint8 control: Control register bit field, The status register bits are:
 756:.\Generated_Source\PSoC5/HC_PWM.c ****     *  [7]   : PWM Enable
 757:.\Generated_Source\PSoC5/HC_PWM.c ****     *  [6]   : Reset
 758:.\Generated_Source\PSoC5/HC_PWM.c ****     *  [5:3] : Compare Mode2
 759:.\Generated_Source\PSoC5/HC_PWM.c ****     *  [2:0] : Compare Mode2
 760:.\Generated_Source\PSoC5/HC_PWM.c ****     *
 761:.\Generated_Source\PSoC5/HC_PWM.c ****     * Return:
 762:.\Generated_Source\PSoC5/HC_PWM.c ****     *  None
 763:.\Generated_Source\PSoC5/HC_PWM.c ****     *
 764:.\Generated_Source\PSoC5/HC_PWM.c ****     *******************************************************************************/
 765:.\Generated_Source\PSoC5/HC_PWM.c ****     void HC_PWM_WriteControlRegister(uint8 control) 
 766:.\Generated_Source\PSoC5/HC_PWM.c ****     {
 589              		.loc 1 766 0
 590              		.cfi_startproc
 591              		@ args = 0, pretend = 0, frame = 8
 592              		@ frame_needed = 1, uses_anonymous_args = 0
 593              		@ link register save eliminated.
 594 0000 80B4     		push	{r7}
 595              		.cfi_def_cfa_offset 4
 596              		.cfi_offset 7, -4
 597 0002 83B0     		sub	sp, sp, #12
 598              		.cfi_def_cfa_offset 16
 599 0004 00AF     		add	r7, sp, #0
 600              		.cfi_def_cfa_register 7
 601 0006 0346     		mov	r3, r0
ARM GAS  C:\Users\xavieran\AppData\Local\Temp\ccKNpO1j.s 			page 25


 602 0008 FB71     		strb	r3, [r7, #7]
 767:.\Generated_Source\PSoC5/HC_PWM.c ****         CY_SET_REG8(HC_PWM_CONTROL_PTR, control);
 603              		.loc 1 767 0
 604 000a 044B     		ldr	r3, .L45
 605 000c FA79     		ldrb	r2, [r7, #7]
 606 000e 1A70     		strb	r2, [r3]
 768:.\Generated_Source\PSoC5/HC_PWM.c ****     }
 607              		.loc 1 768 0
 608 0010 0C37     		adds	r7, r7, #12
 609 0012 BD46     		mov	sp, r7
 610              		@ sp needed
 611 0014 5DF8047B 		ldr	r7, [sp], #4
 612 0018 7047     		bx	lr
 613              	.L46:
 614 001a 00BF     		.align	2
 615              	.L45:
 616 001c 75650040 		.word	1073767797
 617              		.cfi_endproc
 618              	.LFE13:
 619              		.size	HC_PWM_WriteControlRegister, .-HC_PWM_WriteControlRegister
 620              		.section	.text.HC_PWM_ReadCapture,"ax",%progbits
 621              		.align	2
 622              		.global	HC_PWM_ReadCapture
 623              		.thumb
 624              		.thumb_func
 625              		.type	HC_PWM_ReadCapture, %function
 626              	HC_PWM_ReadCapture:
 627              	.LFB14:
 769:.\Generated_Source\PSoC5/HC_PWM.c **** 
 770:.\Generated_Source\PSoC5/HC_PWM.c **** #endif /* (HC_PWM_UseControl) */
 771:.\Generated_Source\PSoC5/HC_PWM.c **** 
 772:.\Generated_Source\PSoC5/HC_PWM.c **** 
 773:.\Generated_Source\PSoC5/HC_PWM.c **** #if (!HC_PWM_UsingFixedFunction)
 774:.\Generated_Source\PSoC5/HC_PWM.c **** 
 775:.\Generated_Source\PSoC5/HC_PWM.c **** 
 776:.\Generated_Source\PSoC5/HC_PWM.c ****     /*******************************************************************************
 777:.\Generated_Source\PSoC5/HC_PWM.c ****     * Function Name: HC_PWM_ReadCapture
 778:.\Generated_Source\PSoC5/HC_PWM.c ****     ********************************************************************************
 779:.\Generated_Source\PSoC5/HC_PWM.c ****     *
 780:.\Generated_Source\PSoC5/HC_PWM.c ****     * Summary:
 781:.\Generated_Source\PSoC5/HC_PWM.c ****     *  Reads the capture value from the capture FIFO.
 782:.\Generated_Source\PSoC5/HC_PWM.c ****     *
 783:.\Generated_Source\PSoC5/HC_PWM.c ****     * Parameters:
 784:.\Generated_Source\PSoC5/HC_PWM.c ****     *  None
 785:.\Generated_Source\PSoC5/HC_PWM.c ****     *
 786:.\Generated_Source\PSoC5/HC_PWM.c ****     * Return:
 787:.\Generated_Source\PSoC5/HC_PWM.c ****     *  uint8/uint16: The current capture value
 788:.\Generated_Source\PSoC5/HC_PWM.c ****     *
 789:.\Generated_Source\PSoC5/HC_PWM.c ****     *******************************************************************************/
 790:.\Generated_Source\PSoC5/HC_PWM.c ****     uint16 HC_PWM_ReadCapture(void) 
 791:.\Generated_Source\PSoC5/HC_PWM.c ****     {
 628              		.loc 1 791 0
 629              		.cfi_startproc
 630              		@ args = 0, pretend = 0, frame = 0
 631              		@ frame_needed = 1, uses_anonymous_args = 0
 632              		@ link register save eliminated.
 633 0000 80B4     		push	{r7}
ARM GAS  C:\Users\xavieran\AppData\Local\Temp\ccKNpO1j.s 			page 26


 634              		.cfi_def_cfa_offset 4
 635              		.cfi_offset 7, -4
 636 0002 00AF     		add	r7, sp, #0
 637              		.cfi_def_cfa_register 7
 792:.\Generated_Source\PSoC5/HC_PWM.c ****         return (CY_GET_REG16(HC_PWM_CAPTURE_LSB_PTR));
 638              		.loc 1 792 0
 639 0004 034B     		ldr	r3, .L49
 640 0006 1B88     		ldrh	r3, [r3]	@ movhi
 641 0008 9BB2     		uxth	r3, r3
 793:.\Generated_Source\PSoC5/HC_PWM.c ****     }
 642              		.loc 1 793 0
 643 000a 1846     		mov	r0, r3
 644 000c BD46     		mov	sp, r7
 645              		@ sp needed
 646 000e 5DF8047B 		ldr	r7, [sp], #4
 647 0012 7047     		bx	lr
 648              	.L50:
 649              		.align	2
 650              	.L49:
 651 0014 A86A0040 		.word	1073769128
 652              		.cfi_endproc
 653              	.LFE14:
 654              		.size	HC_PWM_ReadCapture, .-HC_PWM_ReadCapture
 655              		.section	.text.HC_PWM_ReadCompare1,"ax",%progbits
 656              		.align	2
 657              		.global	HC_PWM_ReadCompare1
 658              		.thumb
 659              		.thumb_func
 660              		.type	HC_PWM_ReadCompare1, %function
 661              	HC_PWM_ReadCompare1:
 662              	.LFB15:
 794:.\Generated_Source\PSoC5/HC_PWM.c **** 
 795:.\Generated_Source\PSoC5/HC_PWM.c **** #endif /* (!HC_PWM_UsingFixedFunction) */
 796:.\Generated_Source\PSoC5/HC_PWM.c **** 
 797:.\Generated_Source\PSoC5/HC_PWM.c **** 
 798:.\Generated_Source\PSoC5/HC_PWM.c **** #if (HC_PWM_UseOneCompareMode)
 799:.\Generated_Source\PSoC5/HC_PWM.c **** 
 800:.\Generated_Source\PSoC5/HC_PWM.c **** 
 801:.\Generated_Source\PSoC5/HC_PWM.c ****     /*******************************************************************************
 802:.\Generated_Source\PSoC5/HC_PWM.c ****     * Function Name: HC_PWM_ReadCompare
 803:.\Generated_Source\PSoC5/HC_PWM.c ****     ********************************************************************************
 804:.\Generated_Source\PSoC5/HC_PWM.c ****     *
 805:.\Generated_Source\PSoC5/HC_PWM.c ****     * Summary:
 806:.\Generated_Source\PSoC5/HC_PWM.c ****     *  Reads the compare value for the compare output when the PWM Mode parameter is
 807:.\Generated_Source\PSoC5/HC_PWM.c ****     *  set to Dither mode, Center Aligned mode, or One Output mode.
 808:.\Generated_Source\PSoC5/HC_PWM.c ****     *
 809:.\Generated_Source\PSoC5/HC_PWM.c ****     * Parameters:
 810:.\Generated_Source\PSoC5/HC_PWM.c ****     *  None
 811:.\Generated_Source\PSoC5/HC_PWM.c ****     *
 812:.\Generated_Source\PSoC5/HC_PWM.c ****     * Return:
 813:.\Generated_Source\PSoC5/HC_PWM.c ****     *  uint8/uint16: Current compare value
 814:.\Generated_Source\PSoC5/HC_PWM.c ****     *
 815:.\Generated_Source\PSoC5/HC_PWM.c ****     *******************************************************************************/
 816:.\Generated_Source\PSoC5/HC_PWM.c ****     uint16 HC_PWM_ReadCompare(void) 
 817:.\Generated_Source\PSoC5/HC_PWM.c ****     {
 818:.\Generated_Source\PSoC5/HC_PWM.c ****         #if(HC_PWM_UsingFixedFunction)
 819:.\Generated_Source\PSoC5/HC_PWM.c ****             return ((uint16)CY_GET_REG16(HC_PWM_COMPARE1_LSB_PTR));
ARM GAS  C:\Users\xavieran\AppData\Local\Temp\ccKNpO1j.s 			page 27


 820:.\Generated_Source\PSoC5/HC_PWM.c ****         #else
 821:.\Generated_Source\PSoC5/HC_PWM.c ****             return (CY_GET_REG16(HC_PWM_COMPARE1_LSB_PTR));
 822:.\Generated_Source\PSoC5/HC_PWM.c ****         #endif /* (HC_PWM_UsingFixedFunction) */
 823:.\Generated_Source\PSoC5/HC_PWM.c ****     }
 824:.\Generated_Source\PSoC5/HC_PWM.c **** 
 825:.\Generated_Source\PSoC5/HC_PWM.c **** #else
 826:.\Generated_Source\PSoC5/HC_PWM.c **** 
 827:.\Generated_Source\PSoC5/HC_PWM.c **** 
 828:.\Generated_Source\PSoC5/HC_PWM.c ****     /*******************************************************************************
 829:.\Generated_Source\PSoC5/HC_PWM.c ****     * Function Name: HC_PWM_ReadCompare1
 830:.\Generated_Source\PSoC5/HC_PWM.c ****     ********************************************************************************
 831:.\Generated_Source\PSoC5/HC_PWM.c ****     *
 832:.\Generated_Source\PSoC5/HC_PWM.c ****     * Summary:
 833:.\Generated_Source\PSoC5/HC_PWM.c ****     *  Reads the compare value for the compare1 output.
 834:.\Generated_Source\PSoC5/HC_PWM.c ****     *
 835:.\Generated_Source\PSoC5/HC_PWM.c ****     * Parameters:
 836:.\Generated_Source\PSoC5/HC_PWM.c ****     *  None
 837:.\Generated_Source\PSoC5/HC_PWM.c ****     *
 838:.\Generated_Source\PSoC5/HC_PWM.c ****     * Return:
 839:.\Generated_Source\PSoC5/HC_PWM.c ****     *  uint8/uint16: Current compare value.
 840:.\Generated_Source\PSoC5/HC_PWM.c ****     *
 841:.\Generated_Source\PSoC5/HC_PWM.c ****     *******************************************************************************/
 842:.\Generated_Source\PSoC5/HC_PWM.c ****     uint16 HC_PWM_ReadCompare1(void) 
 843:.\Generated_Source\PSoC5/HC_PWM.c ****     {
 663              		.loc 1 843 0
 664              		.cfi_startproc
 665              		@ args = 0, pretend = 0, frame = 0
 666              		@ frame_needed = 1, uses_anonymous_args = 0
 667              		@ link register save eliminated.
 668 0000 80B4     		push	{r7}
 669              		.cfi_def_cfa_offset 4
 670              		.cfi_offset 7, -4
 671 0002 00AF     		add	r7, sp, #0
 672              		.cfi_def_cfa_register 7
 844:.\Generated_Source\PSoC5/HC_PWM.c ****         return (CY_GET_REG16(HC_PWM_COMPARE1_LSB_PTR));
 673              		.loc 1 844 0
 674 0004 034B     		ldr	r3, .L53
 675 0006 1B88     		ldrh	r3, [r3]	@ movhi
 676 0008 9BB2     		uxth	r3, r3
 845:.\Generated_Source\PSoC5/HC_PWM.c ****     }
 677              		.loc 1 845 0
 678 000a 1846     		mov	r0, r3
 679 000c BD46     		mov	sp, r7
 680              		@ sp needed
 681 000e 5DF8047B 		ldr	r7, [sp], #4
 682 0012 7047     		bx	lr
 683              	.L54:
 684              		.align	2
 685              	.L53:
 686 0014 486A0040 		.word	1073769032
 687              		.cfi_endproc
 688              	.LFE15:
 689              		.size	HC_PWM_ReadCompare1, .-HC_PWM_ReadCompare1
 690              		.section	.text.HC_PWM_ReadCompare2,"ax",%progbits
 691              		.align	2
 692              		.global	HC_PWM_ReadCompare2
 693              		.thumb
ARM GAS  C:\Users\xavieran\AppData\Local\Temp\ccKNpO1j.s 			page 28


 694              		.thumb_func
 695              		.type	HC_PWM_ReadCompare2, %function
 696              	HC_PWM_ReadCompare2:
 697              	.LFB16:
 846:.\Generated_Source\PSoC5/HC_PWM.c **** 
 847:.\Generated_Source\PSoC5/HC_PWM.c **** 
 848:.\Generated_Source\PSoC5/HC_PWM.c ****     /*******************************************************************************
 849:.\Generated_Source\PSoC5/HC_PWM.c ****     * Function Name: HC_PWM_ReadCompare2
 850:.\Generated_Source\PSoC5/HC_PWM.c ****     ********************************************************************************
 851:.\Generated_Source\PSoC5/HC_PWM.c ****     *
 852:.\Generated_Source\PSoC5/HC_PWM.c ****     * Summary:
 853:.\Generated_Source\PSoC5/HC_PWM.c ****     *  Reads the compare value for the compare2 output.
 854:.\Generated_Source\PSoC5/HC_PWM.c ****     *
 855:.\Generated_Source\PSoC5/HC_PWM.c ****     * Parameters:
 856:.\Generated_Source\PSoC5/HC_PWM.c ****     *  None
 857:.\Generated_Source\PSoC5/HC_PWM.c ****     *
 858:.\Generated_Source\PSoC5/HC_PWM.c ****     * Return:
 859:.\Generated_Source\PSoC5/HC_PWM.c ****     *  uint8/uint16: Current compare value.
 860:.\Generated_Source\PSoC5/HC_PWM.c ****     *
 861:.\Generated_Source\PSoC5/HC_PWM.c ****     *******************************************************************************/
 862:.\Generated_Source\PSoC5/HC_PWM.c ****     uint16 HC_PWM_ReadCompare2(void) 
 863:.\Generated_Source\PSoC5/HC_PWM.c ****     {
 698              		.loc 1 863 0
 699              		.cfi_startproc
 700              		@ args = 0, pretend = 0, frame = 0
 701              		@ frame_needed = 1, uses_anonymous_args = 0
 702              		@ link register save eliminated.
 703 0000 80B4     		push	{r7}
 704              		.cfi_def_cfa_offset 4
 705              		.cfi_offset 7, -4
 706 0002 00AF     		add	r7, sp, #0
 707              		.cfi_def_cfa_register 7
 864:.\Generated_Source\PSoC5/HC_PWM.c ****         return (CY_GET_REG16(HC_PWM_COMPARE2_LSB_PTR));
 708              		.loc 1 864 0
 709 0004 034B     		ldr	r3, .L57
 710 0006 1B88     		ldrh	r3, [r3]	@ movhi
 711 0008 9BB2     		uxth	r3, r3
 865:.\Generated_Source\PSoC5/HC_PWM.c ****     }
 712              		.loc 1 865 0
 713 000a 1846     		mov	r0, r3
 714 000c BD46     		mov	sp, r7
 715              		@ sp needed
 716 000e 5DF8047B 		ldr	r7, [sp], #4
 717 0012 7047     		bx	lr
 718              	.L58:
 719              		.align	2
 720              	.L57:
 721 0014 686A0040 		.word	1073769064
 722              		.cfi_endproc
 723              	.LFE16:
 724              		.size	HC_PWM_ReadCompare2, .-HC_PWM_ReadCompare2
 725              		.section	.text.HC_PWM_ReadPeriod,"ax",%progbits
 726              		.align	2
 727              		.global	HC_PWM_ReadPeriod
 728              		.thumb
 729              		.thumb_func
 730              		.type	HC_PWM_ReadPeriod, %function
ARM GAS  C:\Users\xavieran\AppData\Local\Temp\ccKNpO1j.s 			page 29


 731              	HC_PWM_ReadPeriod:
 732              	.LFB17:
 866:.\Generated_Source\PSoC5/HC_PWM.c **** 
 867:.\Generated_Source\PSoC5/HC_PWM.c **** #endif /* (HC_PWM_UseOneCompareMode) */
 868:.\Generated_Source\PSoC5/HC_PWM.c **** 
 869:.\Generated_Source\PSoC5/HC_PWM.c **** 
 870:.\Generated_Source\PSoC5/HC_PWM.c **** /*******************************************************************************
 871:.\Generated_Source\PSoC5/HC_PWM.c **** * Function Name: HC_PWM_ReadPeriod
 872:.\Generated_Source\PSoC5/HC_PWM.c **** ********************************************************************************
 873:.\Generated_Source\PSoC5/HC_PWM.c **** *
 874:.\Generated_Source\PSoC5/HC_PWM.c **** * Summary:
 875:.\Generated_Source\PSoC5/HC_PWM.c **** *  Reads the period value used by the PWM hardware.
 876:.\Generated_Source\PSoC5/HC_PWM.c **** *
 877:.\Generated_Source\PSoC5/HC_PWM.c **** * Parameters:
 878:.\Generated_Source\PSoC5/HC_PWM.c **** *  None
 879:.\Generated_Source\PSoC5/HC_PWM.c **** *
 880:.\Generated_Source\PSoC5/HC_PWM.c **** * Return:
 881:.\Generated_Source\PSoC5/HC_PWM.c **** *  uint8/16: Period value
 882:.\Generated_Source\PSoC5/HC_PWM.c **** *
 883:.\Generated_Source\PSoC5/HC_PWM.c **** *******************************************************************************/
 884:.\Generated_Source\PSoC5/HC_PWM.c **** uint16 HC_PWM_ReadPeriod(void) 
 885:.\Generated_Source\PSoC5/HC_PWM.c **** {
 733              		.loc 1 885 0
 734              		.cfi_startproc
 735              		@ args = 0, pretend = 0, frame = 0
 736              		@ frame_needed = 1, uses_anonymous_args = 0
 737              		@ link register save eliminated.
 738 0000 80B4     		push	{r7}
 739              		.cfi_def_cfa_offset 4
 740              		.cfi_offset 7, -4
 741 0002 00AF     		add	r7, sp, #0
 742              		.cfi_def_cfa_register 7
 886:.\Generated_Source\PSoC5/HC_PWM.c ****     #if(HC_PWM_UsingFixedFunction)
 887:.\Generated_Source\PSoC5/HC_PWM.c ****         return ((uint16)CY_GET_REG16(HC_PWM_PERIOD_LSB_PTR));
 888:.\Generated_Source\PSoC5/HC_PWM.c ****     #else
 889:.\Generated_Source\PSoC5/HC_PWM.c ****         return (CY_GET_REG16(HC_PWM_PERIOD_LSB_PTR));
 743              		.loc 1 889 0
 744 0004 034B     		ldr	r3, .L61
 745 0006 1B88     		ldrh	r3, [r3]	@ movhi
 746 0008 9BB2     		uxth	r3, r3
 890:.\Generated_Source\PSoC5/HC_PWM.c ****     #endif /* (HC_PWM_UsingFixedFunction) */
 891:.\Generated_Source\PSoC5/HC_PWM.c **** }
 747              		.loc 1 891 0
 748 000a 1846     		mov	r0, r3
 749 000c BD46     		mov	sp, r7
 750              		@ sp needed
 751 000e 5DF8047B 		ldr	r7, [sp], #4
 752 0012 7047     		bx	lr
 753              	.L62:
 754              		.align	2
 755              	.L61:
 756 0014 886A0040 		.word	1073769096
 757              		.cfi_endproc
 758              	.LFE17:
 759              		.size	HC_PWM_ReadPeriod, .-HC_PWM_ReadPeriod
 760              		.text
 761              	.Letext0:
ARM GAS  C:\Users\xavieran\AppData\Local\Temp\ccKNpO1j.s 			page 30


 762              		.file 2 ".\\Generated_Source\\PSoC5\\cytypes.h"