ARM GAS  C:\Users\xavieran\AppData\Local\Temp\cczeGGoy.s 			page 1


   1              		.syntax unified
   2              		.cpu cortex-m3
   3              		.fpu softvfp
   4              		.eabi_attribute 20, 1
   5              		.eabi_attribute 21, 1
   6              		.eabi_attribute 23, 3
   7              		.eabi_attribute 24, 1
   8              		.eabi_attribute 25, 1
   9              		.eabi_attribute 26, 1
  10              		.eabi_attribute 30, 6
  11              		.eabi_attribute 34, 1
  12              		.eabi_attribute 18, 4
  13              		.thumb
  14              		.file	"I2C_MASTER.c"
  15              		.text
  16              	.Ltext0:
  17              		.cfi_sections	.debug_frame
  18              		.comm	I2C_mstrStatus,1,1
  19              		.comm	I2C_mstrControl,1,1
  20              		.comm	I2C_mstrRdBufPtr,4,4
  21              		.comm	I2C_mstrRdBufSize,1,1
  22              		.comm	I2C_mstrRdBufIndex,1,1
  23              		.comm	I2C_mstrWrBufPtr,4,4
  24              		.comm	I2C_mstrWrBufSize,1,1
  25              		.comm	I2C_mstrWrBufIndex,1,1
  26              		.section	.text.I2C_MasterWriteBuf,"ax",%progbits
  27              		.align	2
  28              		.global	I2C_MasterWriteBuf
  29              		.thumb
  30              		.thumb_func
  31              		.type	I2C_MasterWriteBuf, %function
  32              	I2C_MasterWriteBuf:
  33              	.LFB0:
  34              		.file 1 ".\\Generated_Source\\PSoC5\\I2C_MASTER.c"
   1:.\Generated_Source\PSoC5/I2C_MASTER.c **** /*******************************************************************************
   2:.\Generated_Source\PSoC5/I2C_MASTER.c **** * File Name: I2C_MASTER.c
   3:.\Generated_Source\PSoC5/I2C_MASTER.c **** * Version 3.50
   4:.\Generated_Source\PSoC5/I2C_MASTER.c **** *
   5:.\Generated_Source\PSoC5/I2C_MASTER.c **** * Description:
   6:.\Generated_Source\PSoC5/I2C_MASTER.c **** *  This file provides the source code of APIs for the I2C component master mode.
   7:.\Generated_Source\PSoC5/I2C_MASTER.c **** *
   8:.\Generated_Source\PSoC5/I2C_MASTER.c **** *******************************************************************************
   9:.\Generated_Source\PSoC5/I2C_MASTER.c **** * Copyright 2012-2015, Cypress Semiconductor Corporation. All rights reserved.
  10:.\Generated_Source\PSoC5/I2C_MASTER.c **** * You may use this file only in accordance with the license, terms, conditions,
  11:.\Generated_Source\PSoC5/I2C_MASTER.c **** * disclaimers, and limitations in the end user license agreement accompanying
  12:.\Generated_Source\PSoC5/I2C_MASTER.c **** * the software package with which this file was provided.
  13:.\Generated_Source\PSoC5/I2C_MASTER.c **** *******************************************************************************/
  14:.\Generated_Source\PSoC5/I2C_MASTER.c **** 
  15:.\Generated_Source\PSoC5/I2C_MASTER.c **** #include "I2C_PVT.h"
  16:.\Generated_Source\PSoC5/I2C_MASTER.c **** 
  17:.\Generated_Source\PSoC5/I2C_MASTER.c **** #if(I2C_MODE_MASTER_ENABLED)
  18:.\Generated_Source\PSoC5/I2C_MASTER.c **** 
  19:.\Generated_Source\PSoC5/I2C_MASTER.c **** /**********************************
  20:.\Generated_Source\PSoC5/I2C_MASTER.c **** *      System variables
  21:.\Generated_Source\PSoC5/I2C_MASTER.c **** **********************************/
  22:.\Generated_Source\PSoC5/I2C_MASTER.c **** 
  23:.\Generated_Source\PSoC5/I2C_MASTER.c **** volatile uint8 I2C_mstrStatus;     /* Master Status byte  */
ARM GAS  C:\Users\xavieran\AppData\Local\Temp\cczeGGoy.s 			page 2


  24:.\Generated_Source\PSoC5/I2C_MASTER.c **** volatile uint8 I2C_mstrControl;    /* Master Control byte */
  25:.\Generated_Source\PSoC5/I2C_MASTER.c **** 
  26:.\Generated_Source\PSoC5/I2C_MASTER.c **** /* Transmit buffer variables */
  27:.\Generated_Source\PSoC5/I2C_MASTER.c **** volatile uint8 * I2C_mstrRdBufPtr;     /* Pointer to Master Read buffer */
  28:.\Generated_Source\PSoC5/I2C_MASTER.c **** volatile uint8   I2C_mstrRdBufSize;    /* Master Read buffer size       */
  29:.\Generated_Source\PSoC5/I2C_MASTER.c **** volatile uint8   I2C_mstrRdBufIndex;   /* Master Read buffer Index      */
  30:.\Generated_Source\PSoC5/I2C_MASTER.c **** 
  31:.\Generated_Source\PSoC5/I2C_MASTER.c **** /* Receive buffer variables */
  32:.\Generated_Source\PSoC5/I2C_MASTER.c **** volatile uint8 * I2C_mstrWrBufPtr;     /* Pointer to Master Write buffer */
  33:.\Generated_Source\PSoC5/I2C_MASTER.c **** volatile uint8   I2C_mstrWrBufSize;    /* Master Write buffer size       */
  34:.\Generated_Source\PSoC5/I2C_MASTER.c **** volatile uint8   I2C_mstrWrBufIndex;   /* Master Write buffer Index      */
  35:.\Generated_Source\PSoC5/I2C_MASTER.c **** 
  36:.\Generated_Source\PSoC5/I2C_MASTER.c **** 
  37:.\Generated_Source\PSoC5/I2C_MASTER.c **** /*******************************************************************************
  38:.\Generated_Source\PSoC5/I2C_MASTER.c **** * Function Name: I2C_MasterWriteBuf
  39:.\Generated_Source\PSoC5/I2C_MASTER.c **** ********************************************************************************
  40:.\Generated_Source\PSoC5/I2C_MASTER.c **** *
  41:.\Generated_Source\PSoC5/I2C_MASTER.c **** * Summary:
  42:.\Generated_Source\PSoC5/I2C_MASTER.c **** *  Automatically writes an entire buffer of data to a slave device. Once the
  43:.\Generated_Source\PSoC5/I2C_MASTER.c **** *  data transfer is initiated by this function, further data transfer is handled
  44:.\Generated_Source\PSoC5/I2C_MASTER.c **** *  by the included ISR in byte by byte mode.
  45:.\Generated_Source\PSoC5/I2C_MASTER.c **** *
  46:.\Generated_Source\PSoC5/I2C_MASTER.c **** * Parameters:
  47:.\Generated_Source\PSoC5/I2C_MASTER.c **** *  slaveAddr: 7-bit slave address.
  48:.\Generated_Source\PSoC5/I2C_MASTER.c **** *  xferData:  Pointer to buffer of data to be sent.
  49:.\Generated_Source\PSoC5/I2C_MASTER.c **** *  cnt:       Size of buffer to send.
  50:.\Generated_Source\PSoC5/I2C_MASTER.c **** *  mode:      Transfer mode defines: start or restart condition generation at
  51:.\Generated_Source\PSoC5/I2C_MASTER.c **** *             begin of the transfer and complete the transfer or halt before
  52:.\Generated_Source\PSoC5/I2C_MASTER.c **** *             generating a stop.
  53:.\Generated_Source\PSoC5/I2C_MASTER.c **** *
  54:.\Generated_Source\PSoC5/I2C_MASTER.c **** * Return:
  55:.\Generated_Source\PSoC5/I2C_MASTER.c **** *  Status error - Zero means no errors.
  56:.\Generated_Source\PSoC5/I2C_MASTER.c **** *
  57:.\Generated_Source\PSoC5/I2C_MASTER.c **** * Side Effects:
  58:.\Generated_Source\PSoC5/I2C_MASTER.c **** *  The included ISR will start a transfer after a start or restart condition is
  59:.\Generated_Source\PSoC5/I2C_MASTER.c **** *  generated.
  60:.\Generated_Source\PSoC5/I2C_MASTER.c **** *
  61:.\Generated_Source\PSoC5/I2C_MASTER.c **** * Global variables:
  62:.\Generated_Source\PSoC5/I2C_MASTER.c **** *  I2C_mstrStatus  - The global variable used to store a current
  63:.\Generated_Source\PSoC5/I2C_MASTER.c **** *                                 status of the I2C Master.
  64:.\Generated_Source\PSoC5/I2C_MASTER.c **** *  I2C_state       - The global variable used to store a current
  65:.\Generated_Source\PSoC5/I2C_MASTER.c **** *                                 state of the software FSM.
  66:.\Generated_Source\PSoC5/I2C_MASTER.c **** *  I2C_mstrControl - The global variable used to control the master
  67:.\Generated_Source\PSoC5/I2C_MASTER.c **** *                                 end of a transaction with or without Stop
  68:.\Generated_Source\PSoC5/I2C_MASTER.c **** *                                 generation.
  69:.\Generated_Source\PSoC5/I2C_MASTER.c **** *  I2C_mstrWrBufPtr - The global variable used to store a pointer
  70:.\Generated_Source\PSoC5/I2C_MASTER.c **** *                                  to the master write buffer.
  71:.\Generated_Source\PSoC5/I2C_MASTER.c **** *  I2C_mstrWrBufIndex - The global variable used to store current
  72:.\Generated_Source\PSoC5/I2C_MASTER.c **** *                                    index within the master write buffer.
  73:.\Generated_Source\PSoC5/I2C_MASTER.c **** *  I2C_mstrWrBufSize - The global variable used to store a master
  74:.\Generated_Source\PSoC5/I2C_MASTER.c **** *                                   write buffer size.
  75:.\Generated_Source\PSoC5/I2C_MASTER.c **** *
  76:.\Generated_Source\PSoC5/I2C_MASTER.c **** * Reentrant:
  77:.\Generated_Source\PSoC5/I2C_MASTER.c **** *  No
  78:.\Generated_Source\PSoC5/I2C_MASTER.c **** *
  79:.\Generated_Source\PSoC5/I2C_MASTER.c **** *******************************************************************************/
  80:.\Generated_Source\PSoC5/I2C_MASTER.c **** uint8 I2C_MasterWriteBuf(uint8 slaveAddress, uint8 * wrData, uint8 cnt, uint8 mode)
ARM GAS  C:\Users\xavieran\AppData\Local\Temp\cczeGGoy.s 			page 3


  81:.\Generated_Source\PSoC5/I2C_MASTER.c ****       
  82:.\Generated_Source\PSoC5/I2C_MASTER.c **** {
  35              		.loc 1 82 0
  36              		.cfi_startproc
  37              		@ args = 0, pretend = 0, frame = 16
  38              		@ frame_needed = 1, uses_anonymous_args = 0
  39              		@ link register save eliminated.
  40 0000 80B4     		push	{r7}
  41              		.cfi_def_cfa_offset 4
  42              		.cfi_offset 7, -4
  43 0002 85B0     		sub	sp, sp, #20
  44              		.cfi_def_cfa_offset 24
  45 0004 00AF     		add	r7, sp, #0
  46              		.cfi_def_cfa_register 7
  47 0006 3960     		str	r1, [r7]
  48 0008 0146     		mov	r1, r0
  49 000a F971     		strb	r1, [r7, #7]
  50 000c BA71     		strb	r2, [r7, #6]
  51 000e 7B71     		strb	r3, [r7, #5]
  83:.\Generated_Source\PSoC5/I2C_MASTER.c ****     uint8 errStatus;
  84:.\Generated_Source\PSoC5/I2C_MASTER.c **** 
  85:.\Generated_Source\PSoC5/I2C_MASTER.c ****     errStatus = I2C_MSTR_NOT_READY;
  52              		.loc 1 85 0
  53 0010 0223     		movs	r3, #2
  54 0012 FB73     		strb	r3, [r7, #15]
  86:.\Generated_Source\PSoC5/I2C_MASTER.c **** 
  87:.\Generated_Source\PSoC5/I2C_MASTER.c ****     if(NULL != wrData)
  55              		.loc 1 87 0
  56 0014 3B68     		ldr	r3, [r7]
  57 0016 002B     		cmp	r3, #0
  58 0018 5DD0     		beq	.L2
  88:.\Generated_Source\PSoC5/I2C_MASTER.c ****     {
  89:.\Generated_Source\PSoC5/I2C_MASTER.c ****         /* Check I2C state to allow transfer: valid states are IDLE or HALT */
  90:.\Generated_Source\PSoC5/I2C_MASTER.c ****         if(I2C_SM_IDLE == I2C_state)
  59              		.loc 1 90 0
  60 001a 324B     		ldr	r3, .L10
  61 001c 1B78     		ldrb	r3, [r3]
  62 001e DBB2     		uxtb	r3, r3
  63 0020 102B     		cmp	r3, #16
  64 0022 0CD1     		bne	.L3
  91:.\Generated_Source\PSoC5/I2C_MASTER.c ****         {
  92:.\Generated_Source\PSoC5/I2C_MASTER.c ****             /* Master is ready for transaction: check if bus is free */
  93:.\Generated_Source\PSoC5/I2C_MASTER.c ****             if(I2C_CHECK_BUS_FREE(I2C_MCSR_REG))
  65              		.loc 1 93 0
  66 0024 304B     		ldr	r3, .L10+4
  67 0026 1B78     		ldrb	r3, [r3]
  68 0028 DBB2     		uxtb	r3, r3
  69 002a 03F01003 		and	r3, r3, #16
  70 002e 002B     		cmp	r3, #0
  71 0030 02D1     		bne	.L4
  94:.\Generated_Source\PSoC5/I2C_MASTER.c ****             {
  95:.\Generated_Source\PSoC5/I2C_MASTER.c ****                 errStatus = I2C_MSTR_NO_ERROR;
  72              		.loc 1 95 0
  73 0032 0023     		movs	r3, #0
  74 0034 FB73     		strb	r3, [r7, #15]
  75 0036 14E0     		b	.L6
  76              	.L4:
ARM GAS  C:\Users\xavieran\AppData\Local\Temp\cczeGGoy.s 			page 4


  96:.\Generated_Source\PSoC5/I2C_MASTER.c ****             }
  97:.\Generated_Source\PSoC5/I2C_MASTER.c ****             else
  98:.\Generated_Source\PSoC5/I2C_MASTER.c ****             {
  99:.\Generated_Source\PSoC5/I2C_MASTER.c ****                 errStatus = I2C_MSTR_BUS_BUSY;
  77              		.loc 1 99 0
  78 0038 0123     		movs	r3, #1
  79 003a FB73     		strb	r3, [r7, #15]
  80 003c 11E0     		b	.L6
  81              	.L3:
 100:.\Generated_Source\PSoC5/I2C_MASTER.c ****             }
 101:.\Generated_Source\PSoC5/I2C_MASTER.c ****         }
 102:.\Generated_Source\PSoC5/I2C_MASTER.c ****         else if(I2C_SM_MSTR_HALT == I2C_state)
  82              		.loc 1 102 0
  83 003e 294B     		ldr	r3, .L10
  84 0040 1B78     		ldrb	r3, [r3]
  85 0042 DBB2     		uxtb	r3, r3
  86 0044 602B     		cmp	r3, #96
  87 0046 0CD1     		bne	.L6
 103:.\Generated_Source\PSoC5/I2C_MASTER.c ****         {
 104:.\Generated_Source\PSoC5/I2C_MASTER.c ****             /* Master is ready and waiting for ReStart */
 105:.\Generated_Source\PSoC5/I2C_MASTER.c ****             errStatus = I2C_MSTR_NO_ERROR;
  88              		.loc 1 105 0
  89 0048 0023     		movs	r3, #0
  90 004a FB73     		strb	r3, [r7, #15]
 106:.\Generated_Source\PSoC5/I2C_MASTER.c **** 
 107:.\Generated_Source\PSoC5/I2C_MASTER.c ****             I2C_ClearPendingInt();
  91              		.loc 1 107 0
  92 004c 274B     		ldr	r3, .L10+8
  93 004e 0422     		movs	r2, #4
  94 0050 1A60     		str	r2, [r3]
 108:.\Generated_Source\PSoC5/I2C_MASTER.c ****             I2C_mstrStatus &= (uint8) ~I2C_MSTAT_XFER_HALT;
  95              		.loc 1 108 0
  96 0052 274B     		ldr	r3, .L10+12
  97 0054 1B78     		ldrb	r3, [r3]
  98 0056 DBB2     		uxtb	r3, r3
  99 0058 23F00803 		bic	r3, r3, #8
 100 005c DAB2     		uxtb	r2, r3
 101 005e 244B     		ldr	r3, .L10+12
 102 0060 1A70     		strb	r2, [r3]
 103              	.L6:
 109:.\Generated_Source\PSoC5/I2C_MASTER.c ****         }
 110:.\Generated_Source\PSoC5/I2C_MASTER.c ****         else
 111:.\Generated_Source\PSoC5/I2C_MASTER.c ****         {
 112:.\Generated_Source\PSoC5/I2C_MASTER.c ****             /* errStatus = I2C_MSTR_NOT_READY was send before */
 113:.\Generated_Source\PSoC5/I2C_MASTER.c ****         }
 114:.\Generated_Source\PSoC5/I2C_MASTER.c **** 
 115:.\Generated_Source\PSoC5/I2C_MASTER.c ****         if(I2C_MSTR_NO_ERROR == errStatus)
 104              		.loc 1 115 0
 105 0062 FB7B     		ldrb	r3, [r7, #15]	@ zero_extendqisi2
 106 0064 002B     		cmp	r3, #0
 107 0066 36D1     		bne	.L2
 116:.\Generated_Source\PSoC5/I2C_MASTER.c ****         {
 117:.\Generated_Source\PSoC5/I2C_MASTER.c ****             /* Set state to start write transaction */
 118:.\Generated_Source\PSoC5/I2C_MASTER.c ****             I2C_state = I2C_SM_MSTR_WR_ADDR;
 108              		.loc 1 118 0
 109 0068 1E4B     		ldr	r3, .L10
 110 006a 4522     		movs	r2, #69
ARM GAS  C:\Users\xavieran\AppData\Local\Temp\cczeGGoy.s 			page 5


 111 006c 1A70     		strb	r2, [r3]
 119:.\Generated_Source\PSoC5/I2C_MASTER.c **** 
 120:.\Generated_Source\PSoC5/I2C_MASTER.c ****             /* Prepare write buffer */
 121:.\Generated_Source\PSoC5/I2C_MASTER.c ****             I2C_mstrWrBufIndex = 0u;
 112              		.loc 1 121 0
 113 006e 214B     		ldr	r3, .L10+16
 114 0070 0022     		movs	r2, #0
 115 0072 1A70     		strb	r2, [r3]
 122:.\Generated_Source\PSoC5/I2C_MASTER.c ****             I2C_mstrWrBufSize  = cnt;
 116              		.loc 1 122 0
 117 0074 204B     		ldr	r3, .L10+20
 118 0076 BA79     		ldrb	r2, [r7, #6]
 119 0078 1A70     		strb	r2, [r3]
 123:.\Generated_Source\PSoC5/I2C_MASTER.c ****             I2C_mstrWrBufPtr   = (volatile uint8 *) wrData;
 120              		.loc 1 123 0
 121 007a 204B     		ldr	r3, .L10+24
 122 007c 3A68     		ldr	r2, [r7]
 123 007e 1A60     		str	r2, [r3]
 124:.\Generated_Source\PSoC5/I2C_MASTER.c **** 
 125:.\Generated_Source\PSoC5/I2C_MASTER.c ****             /* Set end of transaction flag: Stop or Halt (following ReStart) */
 126:.\Generated_Source\PSoC5/I2C_MASTER.c ****             I2C_mstrControl = mode;
 124              		.loc 1 126 0
 125 0080 1F4B     		ldr	r3, .L10+28
 126 0082 7A79     		ldrb	r2, [r7, #5]
 127 0084 1A70     		strb	r2, [r3]
 127:.\Generated_Source\PSoC5/I2C_MASTER.c **** 
 128:.\Generated_Source\PSoC5/I2C_MASTER.c ****             /* Clear write status history */
 129:.\Generated_Source\PSoC5/I2C_MASTER.c ****             I2C_mstrStatus &= (uint8) ~I2C_MSTAT_WR_CMPLT;
 128              		.loc 1 129 0
 129 0086 1A4B     		ldr	r3, .L10+12
 130 0088 1B78     		ldrb	r3, [r3]
 131 008a DBB2     		uxtb	r3, r3
 132 008c 23F00203 		bic	r3, r3, #2
 133 0090 DAB2     		uxtb	r2, r3
 134 0092 174B     		ldr	r3, .L10+12
 135 0094 1A70     		strb	r2, [r3]
 130:.\Generated_Source\PSoC5/I2C_MASTER.c **** 
 131:.\Generated_Source\PSoC5/I2C_MASTER.c ****             /* Hardware actions: write address and generate Start or ReStart */
 132:.\Generated_Source\PSoC5/I2C_MASTER.c ****             I2C_DATA_REG = (uint8) (slaveAddress << I2C_SLAVE_ADDR_SHIFT);
 136              		.loc 1 132 0
 137 0096 1B4B     		ldr	r3, .L10+32
 138 0098 FA79     		ldrb	r2, [r7, #7]
 139 009a 5200     		lsls	r2, r2, #1
 140 009c D2B2     		uxtb	r2, r2
 141 009e 1A70     		strb	r2, [r3]
 133:.\Generated_Source\PSoC5/I2C_MASTER.c **** 
 134:.\Generated_Source\PSoC5/I2C_MASTER.c ****             if(I2C_CHECK_RESTART(mode))
 142              		.loc 1 134 0
 143 00a0 7B79     		ldrb	r3, [r7, #5]	@ zero_extendqisi2
 144 00a2 03F00103 		and	r3, r3, #1
 145 00a6 002B     		cmp	r3, #0
 146 00a8 09D0     		beq	.L7
 135:.\Generated_Source\PSoC5/I2C_MASTER.c ****             {
 136:.\Generated_Source\PSoC5/I2C_MASTER.c ****                 I2C_GENERATE_RESTART;
 147              		.loc 1 136 0
 148 00aa 174B     		ldr	r3, .L10+36
 149 00ac 3222     		movs	r2, #50
ARM GAS  C:\Users\xavieran\AppData\Local\Temp\cczeGGoy.s 			page 6


 150 00ae 1A70     		strb	r2, [r3]
 151 00b0 164B     		ldr	r3, .L10+40
 152 00b2 FF22     		movs	r2, #255
 153 00b4 1A70     		strb	r2, [r3]
 154 00b6 164B     		ldr	r3, .L10+44
 155 00b8 0022     		movs	r2, #0
 156 00ba 1A70     		strb	r2, [r3]
 157 00bc 08E0     		b	.L8
 158              	.L7:
 137:.\Generated_Source\PSoC5/I2C_MASTER.c ****             }
 138:.\Generated_Source\PSoC5/I2C_MASTER.c ****             else
 139:.\Generated_Source\PSoC5/I2C_MASTER.c ****             {
 140:.\Generated_Source\PSoC5/I2C_MASTER.c ****                 I2C_GENERATE_START;
 159              		.loc 1 140 0
 160 00be 124B     		ldr	r3, .L10+36
 161 00c0 8222     		movs	r2, #130
 162 00c2 1A70     		strb	r2, [r3]
 163 00c4 114B     		ldr	r3, .L10+40
 164 00c6 FF22     		movs	r2, #255
 165 00c8 1A70     		strb	r2, [r3]
 166 00ca 114B     		ldr	r3, .L10+44
 167 00cc 0022     		movs	r2, #0
 168 00ce 1A70     		strb	r2, [r3]
 169              	.L8:
 141:.\Generated_Source\PSoC5/I2C_MASTER.c ****             }
 142:.\Generated_Source\PSoC5/I2C_MASTER.c **** 
 143:.\Generated_Source\PSoC5/I2C_MASTER.c ****             /* Enable interrupt to complete transfer */
 144:.\Generated_Source\PSoC5/I2C_MASTER.c ****             I2C_EnableInt();
 170              		.loc 1 144 0
 171 00d0 104B     		ldr	r3, .L10+48
 172 00d2 0422     		movs	r2, #4
 173 00d4 1A60     		str	r2, [r3]
 174              	.L2:
 145:.\Generated_Source\PSoC5/I2C_MASTER.c ****         }
 146:.\Generated_Source\PSoC5/I2C_MASTER.c ****     }
 147:.\Generated_Source\PSoC5/I2C_MASTER.c **** 
 148:.\Generated_Source\PSoC5/I2C_MASTER.c ****     return(errStatus);
 175              		.loc 1 148 0
 176 00d6 FB7B     		ldrb	r3, [r7, #15]	@ zero_extendqisi2
 149:.\Generated_Source\PSoC5/I2C_MASTER.c **** }
 177              		.loc 1 149 0
 178 00d8 1846     		mov	r0, r3
 179 00da 1437     		adds	r7, r7, #20
 180 00dc BD46     		mov	sp, r7
 181              		@ sp needed
 182 00de 5DF8047B 		ldr	r7, [sp], #4
 183 00e2 7047     		bx	lr
 184              	.L11:
 185              		.align	2
 186              	.L10:
 187 00e4 00000000 		.word	I2C_state
 188 00e8 6B640040 		.word	1073767531
 189 00ec 80E200E0 		.word	-536812928
 190 00f0 00000000 		.word	I2C_mstrStatus
 191 00f4 00000000 		.word	I2C_mstrWrBufIndex
 192 00f8 00000000 		.word	I2C_mstrWrBufSize
 193 00fc 00000000 		.word	I2C_mstrWrBufPtr
ARM GAS  C:\Users\xavieran\AppData\Local\Temp\cczeGGoy.s 			page 7


 194 0100 00000000 		.word	I2C_mstrControl
 195 0104 0B640040 		.word	1073767435
 196 0108 77640040 		.word	1073767543
 197 010c 1B640040 		.word	1073767451
 198 0110 5B640040 		.word	1073767515
 199 0114 00E100E0 		.word	-536813312
 200              		.cfi_endproc
 201              	.LFE0:
 202              		.size	I2C_MasterWriteBuf, .-I2C_MasterWriteBuf
 203              		.section	.text.I2C_MasterReadBuf,"ax",%progbits
 204              		.align	2
 205              		.global	I2C_MasterReadBuf
 206              		.thumb
 207              		.thumb_func
 208              		.type	I2C_MasterReadBuf, %function
 209              	I2C_MasterReadBuf:
 210              	.LFB1:
 150:.\Generated_Source\PSoC5/I2C_MASTER.c **** 
 151:.\Generated_Source\PSoC5/I2C_MASTER.c **** 
 152:.\Generated_Source\PSoC5/I2C_MASTER.c **** /*******************************************************************************
 153:.\Generated_Source\PSoC5/I2C_MASTER.c **** * Function Name: I2C_MasterReadBuf
 154:.\Generated_Source\PSoC5/I2C_MASTER.c **** ********************************************************************************
 155:.\Generated_Source\PSoC5/I2C_MASTER.c **** *
 156:.\Generated_Source\PSoC5/I2C_MASTER.c **** * Summary:
 157:.\Generated_Source\PSoC5/I2C_MASTER.c **** *  Automatically writes an entire buffer of data to a slave device. Once the
 158:.\Generated_Source\PSoC5/I2C_MASTER.c **** *  data transfer is initiated by this function, further data transfer is handled
 159:.\Generated_Source\PSoC5/I2C_MASTER.c **** *  by the included ISR in byte by byte mode.
 160:.\Generated_Source\PSoC5/I2C_MASTER.c **** *
 161:.\Generated_Source\PSoC5/I2C_MASTER.c **** * Parameters:
 162:.\Generated_Source\PSoC5/I2C_MASTER.c **** *  slaveAddr: 7-bit slave address.
 163:.\Generated_Source\PSoC5/I2C_MASTER.c **** *  xferData:  Pointer to buffer where to put data from slave.
 164:.\Generated_Source\PSoC5/I2C_MASTER.c **** *  cnt:       Size of buffer to read.
 165:.\Generated_Source\PSoC5/I2C_MASTER.c **** *  mode:      Transfer mode defines: start or restart condition generation at
 166:.\Generated_Source\PSoC5/I2C_MASTER.c **** *             begin of the transfer and complete the transfer or halt before
 167:.\Generated_Source\PSoC5/I2C_MASTER.c **** *             generating a stop.
 168:.\Generated_Source\PSoC5/I2C_MASTER.c **** *
 169:.\Generated_Source\PSoC5/I2C_MASTER.c **** * Return:
 170:.\Generated_Source\PSoC5/I2C_MASTER.c **** *  Status error - Zero means no errors.
 171:.\Generated_Source\PSoC5/I2C_MASTER.c **** *
 172:.\Generated_Source\PSoC5/I2C_MASTER.c **** * Side Effects:
 173:.\Generated_Source\PSoC5/I2C_MASTER.c **** *  The included ISR will start a transfer after start or restart condition is
 174:.\Generated_Source\PSoC5/I2C_MASTER.c **** *  generated.
 175:.\Generated_Source\PSoC5/I2C_MASTER.c **** *
 176:.\Generated_Source\PSoC5/I2C_MASTER.c **** * Global variables:
 177:.\Generated_Source\PSoC5/I2C_MASTER.c **** *  I2C_mstrStatus  - The global variable used to store a current
 178:.\Generated_Source\PSoC5/I2C_MASTER.c **** *                                 status of the I2C Master.
 179:.\Generated_Source\PSoC5/I2C_MASTER.c **** *  I2C_state       - The global variable used to store a current
 180:.\Generated_Source\PSoC5/I2C_MASTER.c **** *                                 state of the software FSM.
 181:.\Generated_Source\PSoC5/I2C_MASTER.c **** *  I2C_mstrControl - The global variable used to control the master
 182:.\Generated_Source\PSoC5/I2C_MASTER.c **** *                                 end of a transaction with or without
 183:.\Generated_Source\PSoC5/I2C_MASTER.c **** *                                 Stop generation.
 184:.\Generated_Source\PSoC5/I2C_MASTER.c **** *  I2C_mstrRdBufPtr - The global variable used to store a pointer
 185:.\Generated_Source\PSoC5/I2C_MASTER.c **** *                                  to the master write buffer.
 186:.\Generated_Source\PSoC5/I2C_MASTER.c **** *  I2C_mstrRdBufIndex - The global variable  used to store a
 187:.\Generated_Source\PSoC5/I2C_MASTER.c **** *                                    current index within the master
 188:.\Generated_Source\PSoC5/I2C_MASTER.c **** *                                    write buffer.
 189:.\Generated_Source\PSoC5/I2C_MASTER.c **** *  I2C_mstrRdBufSize - The global variable used to store a master
ARM GAS  C:\Users\xavieran\AppData\Local\Temp\cczeGGoy.s 			page 8


 190:.\Generated_Source\PSoC5/I2C_MASTER.c **** *                                   write buffer size.
 191:.\Generated_Source\PSoC5/I2C_MASTER.c **** *
 192:.\Generated_Source\PSoC5/I2C_MASTER.c **** * Reentrant:
 193:.\Generated_Source\PSoC5/I2C_MASTER.c **** *  No.
 194:.\Generated_Source\PSoC5/I2C_MASTER.c **** *
 195:.\Generated_Source\PSoC5/I2C_MASTER.c **** *******************************************************************************/
 196:.\Generated_Source\PSoC5/I2C_MASTER.c **** uint8 I2C_MasterReadBuf(uint8 slaveAddress, uint8 * rdData, uint8 cnt, uint8 mode)
 197:.\Generated_Source\PSoC5/I2C_MASTER.c ****       
 198:.\Generated_Source\PSoC5/I2C_MASTER.c **** {
 211              		.loc 1 198 0
 212              		.cfi_startproc
 213              		@ args = 0, pretend = 0, frame = 16
 214              		@ frame_needed = 1, uses_anonymous_args = 0
 215              		@ link register save eliminated.
 216 0000 80B4     		push	{r7}
 217              		.cfi_def_cfa_offset 4
 218              		.cfi_offset 7, -4
 219 0002 85B0     		sub	sp, sp, #20
 220              		.cfi_def_cfa_offset 24
 221 0004 00AF     		add	r7, sp, #0
 222              		.cfi_def_cfa_register 7
 223 0006 3960     		str	r1, [r7]
 224 0008 0146     		mov	r1, r0
 225 000a F971     		strb	r1, [r7, #7]
 226 000c BA71     		strb	r2, [r7, #6]
 227 000e 7B71     		strb	r3, [r7, #5]
 199:.\Generated_Source\PSoC5/I2C_MASTER.c ****     uint8 errStatus;
 200:.\Generated_Source\PSoC5/I2C_MASTER.c **** 
 201:.\Generated_Source\PSoC5/I2C_MASTER.c ****     errStatus = I2C_MSTR_NOT_READY;
 228              		.loc 1 201 0
 229 0010 0223     		movs	r3, #2
 230 0012 FB73     		strb	r3, [r7, #15]
 202:.\Generated_Source\PSoC5/I2C_MASTER.c **** 
 203:.\Generated_Source\PSoC5/I2C_MASTER.c ****     if(NULL != rdData)
 231              		.loc 1 203 0
 232 0014 3B68     		ldr	r3, [r7]
 233 0016 002B     		cmp	r3, #0
 234 0018 60D0     		beq	.L13
 204:.\Generated_Source\PSoC5/I2C_MASTER.c ****     {
 205:.\Generated_Source\PSoC5/I2C_MASTER.c ****         /* Check I2C state to allow transfer: valid states are IDLE or HALT */
 206:.\Generated_Source\PSoC5/I2C_MASTER.c ****         if(I2C_SM_IDLE == I2C_state)
 235              		.loc 1 206 0
 236 001a 344B     		ldr	r3, .L21
 237 001c 1B78     		ldrb	r3, [r3]
 238 001e DBB2     		uxtb	r3, r3
 239 0020 102B     		cmp	r3, #16
 240 0022 0CD1     		bne	.L14
 207:.\Generated_Source\PSoC5/I2C_MASTER.c ****         {
 208:.\Generated_Source\PSoC5/I2C_MASTER.c ****             /* Master is ready to transaction: check if bus is free */
 209:.\Generated_Source\PSoC5/I2C_MASTER.c ****             if(I2C_CHECK_BUS_FREE(I2C_MCSR_REG))
 241              		.loc 1 209 0
 242 0024 324B     		ldr	r3, .L21+4
 243 0026 1B78     		ldrb	r3, [r3]
 244 0028 DBB2     		uxtb	r3, r3
 245 002a 03F01003 		and	r3, r3, #16
 246 002e 002B     		cmp	r3, #0
 247 0030 02D1     		bne	.L15
ARM GAS  C:\Users\xavieran\AppData\Local\Temp\cczeGGoy.s 			page 9


 210:.\Generated_Source\PSoC5/I2C_MASTER.c ****             {
 211:.\Generated_Source\PSoC5/I2C_MASTER.c ****                 errStatus = I2C_MSTR_NO_ERROR;
 248              		.loc 1 211 0
 249 0032 0023     		movs	r3, #0
 250 0034 FB73     		strb	r3, [r7, #15]
 251 0036 14E0     		b	.L17
 252              	.L15:
 212:.\Generated_Source\PSoC5/I2C_MASTER.c ****             }
 213:.\Generated_Source\PSoC5/I2C_MASTER.c ****             else
 214:.\Generated_Source\PSoC5/I2C_MASTER.c ****             {
 215:.\Generated_Source\PSoC5/I2C_MASTER.c ****                 errStatus = I2C_MSTR_BUS_BUSY;
 253              		.loc 1 215 0
 254 0038 0123     		movs	r3, #1
 255 003a FB73     		strb	r3, [r7, #15]
 256 003c 11E0     		b	.L17
 257              	.L14:
 216:.\Generated_Source\PSoC5/I2C_MASTER.c ****             }
 217:.\Generated_Source\PSoC5/I2C_MASTER.c ****         }
 218:.\Generated_Source\PSoC5/I2C_MASTER.c ****         else if(I2C_SM_MSTR_HALT == I2C_state)
 258              		.loc 1 218 0
 259 003e 2B4B     		ldr	r3, .L21
 260 0040 1B78     		ldrb	r3, [r3]
 261 0042 DBB2     		uxtb	r3, r3
 262 0044 602B     		cmp	r3, #96
 263 0046 0CD1     		bne	.L17
 219:.\Generated_Source\PSoC5/I2C_MASTER.c ****         {
 220:.\Generated_Source\PSoC5/I2C_MASTER.c ****             /* Master is ready and waiting for ReStart */
 221:.\Generated_Source\PSoC5/I2C_MASTER.c ****             errStatus = I2C_MSTR_NO_ERROR;
 264              		.loc 1 221 0
 265 0048 0023     		movs	r3, #0
 266 004a FB73     		strb	r3, [r7, #15]
 222:.\Generated_Source\PSoC5/I2C_MASTER.c **** 
 223:.\Generated_Source\PSoC5/I2C_MASTER.c ****             I2C_ClearPendingInt();
 267              		.loc 1 223 0
 268 004c 294B     		ldr	r3, .L21+8
 269 004e 0422     		movs	r2, #4
 270 0050 1A60     		str	r2, [r3]
 224:.\Generated_Source\PSoC5/I2C_MASTER.c ****             I2C_mstrStatus &= (uint8) ~I2C_MSTAT_XFER_HALT;
 271              		.loc 1 224 0
 272 0052 294B     		ldr	r3, .L21+12
 273 0054 1B78     		ldrb	r3, [r3]
 274 0056 DBB2     		uxtb	r3, r3
 275 0058 23F00803 		bic	r3, r3, #8
 276 005c DAB2     		uxtb	r2, r3
 277 005e 264B     		ldr	r3, .L21+12
 278 0060 1A70     		strb	r2, [r3]
 279              	.L17:
 225:.\Generated_Source\PSoC5/I2C_MASTER.c ****         }
 226:.\Generated_Source\PSoC5/I2C_MASTER.c ****         else
 227:.\Generated_Source\PSoC5/I2C_MASTER.c ****         {
 228:.\Generated_Source\PSoC5/I2C_MASTER.c ****             /* errStatus = I2C_MSTR_NOT_READY was set before */
 229:.\Generated_Source\PSoC5/I2C_MASTER.c ****         }
 230:.\Generated_Source\PSoC5/I2C_MASTER.c **** 
 231:.\Generated_Source\PSoC5/I2C_MASTER.c ****         if(I2C_MSTR_NO_ERROR == errStatus)
 280              		.loc 1 231 0
 281 0062 FB7B     		ldrb	r3, [r7, #15]	@ zero_extendqisi2
 282 0064 002B     		cmp	r3, #0
ARM GAS  C:\Users\xavieran\AppData\Local\Temp\cczeGGoy.s 			page 10


 283 0066 39D1     		bne	.L13
 232:.\Generated_Source\PSoC5/I2C_MASTER.c ****         {
 233:.\Generated_Source\PSoC5/I2C_MASTER.c ****             /* Set state to start write transaction */
 234:.\Generated_Source\PSoC5/I2C_MASTER.c ****             I2C_state = I2C_SM_MSTR_RD_ADDR;
 284              		.loc 1 234 0
 285 0068 204B     		ldr	r3, .L21
 286 006a 4922     		movs	r2, #73
 287 006c 1A70     		strb	r2, [r3]
 235:.\Generated_Source\PSoC5/I2C_MASTER.c **** 
 236:.\Generated_Source\PSoC5/I2C_MASTER.c ****             /* Prepare read buffer */
 237:.\Generated_Source\PSoC5/I2C_MASTER.c ****             I2C_mstrRdBufIndex  = 0u;
 288              		.loc 1 237 0
 289 006e 234B     		ldr	r3, .L21+16
 290 0070 0022     		movs	r2, #0
 291 0072 1A70     		strb	r2, [r3]
 238:.\Generated_Source\PSoC5/I2C_MASTER.c ****             I2C_mstrRdBufSize   = cnt;
 292              		.loc 1 238 0
 293 0074 224B     		ldr	r3, .L21+20
 294 0076 BA79     		ldrb	r2, [r7, #6]
 295 0078 1A70     		strb	r2, [r3]
 239:.\Generated_Source\PSoC5/I2C_MASTER.c ****             I2C_mstrRdBufPtr    = (volatile uint8 *) rdData;
 296              		.loc 1 239 0
 297 007a 224B     		ldr	r3, .L21+24
 298 007c 3A68     		ldr	r2, [r7]
 299 007e 1A60     		str	r2, [r3]
 240:.\Generated_Source\PSoC5/I2C_MASTER.c **** 
 241:.\Generated_Source\PSoC5/I2C_MASTER.c ****             /* Set end of transaction flag: Stop or Halt (following ReStart) */
 242:.\Generated_Source\PSoC5/I2C_MASTER.c ****             I2C_mstrControl = mode;
 300              		.loc 1 242 0
 301 0080 214B     		ldr	r3, .L21+28
 302 0082 7A79     		ldrb	r2, [r7, #5]
 303 0084 1A70     		strb	r2, [r3]
 243:.\Generated_Source\PSoC5/I2C_MASTER.c **** 
 244:.\Generated_Source\PSoC5/I2C_MASTER.c ****             /* Clear read status history */
 245:.\Generated_Source\PSoC5/I2C_MASTER.c ****             I2C_mstrStatus &= (uint8) ~I2C_MSTAT_RD_CMPLT;
 304              		.loc 1 245 0
 305 0086 1C4B     		ldr	r3, .L21+12
 306 0088 1B78     		ldrb	r3, [r3]
 307 008a DBB2     		uxtb	r3, r3
 308 008c 23F00103 		bic	r3, r3, #1
 309 0090 DAB2     		uxtb	r2, r3
 310 0092 194B     		ldr	r3, .L21+12
 311 0094 1A70     		strb	r2, [r3]
 246:.\Generated_Source\PSoC5/I2C_MASTER.c **** 
 247:.\Generated_Source\PSoC5/I2C_MASTER.c ****             /* Hardware actions: write address and generate Start or ReStart */
 248:.\Generated_Source\PSoC5/I2C_MASTER.c ****             I2C_DATA_REG = ((uint8) (slaveAddress << I2C_SLAVE_ADDR_SHIFT) |
 312              		.loc 1 248 0
 313 0096 1D4B     		ldr	r3, .L21+32
 314 0098 FA79     		ldrb	r2, [r7, #7]
 315 009a 5200     		lsls	r2, r2, #1
 316 009c D2B2     		uxtb	r2, r2
 317 009e 42F00102 		orr	r2, r2, #1
 318 00a2 D2B2     		uxtb	r2, r2
 319 00a4 1A70     		strb	r2, [r3]
 249:.\Generated_Source\PSoC5/I2C_MASTER.c ****                                                   I2C_READ_FLAG);
 250:.\Generated_Source\PSoC5/I2C_MASTER.c **** 
 251:.\Generated_Source\PSoC5/I2C_MASTER.c ****             if(I2C_CHECK_RESTART(mode))
ARM GAS  C:\Users\xavieran\AppData\Local\Temp\cczeGGoy.s 			page 11


 320              		.loc 1 251 0
 321 00a6 7B79     		ldrb	r3, [r7, #5]	@ zero_extendqisi2
 322 00a8 03F00103 		and	r3, r3, #1
 323 00ac 002B     		cmp	r3, #0
 324 00ae 09D0     		beq	.L18
 252:.\Generated_Source\PSoC5/I2C_MASTER.c ****             {
 253:.\Generated_Source\PSoC5/I2C_MASTER.c ****                 I2C_GENERATE_RESTART;
 325              		.loc 1 253 0
 326 00b0 174B     		ldr	r3, .L21+36
 327 00b2 3222     		movs	r2, #50
 328 00b4 1A70     		strb	r2, [r3]
 329 00b6 174B     		ldr	r3, .L21+40
 330 00b8 FF22     		movs	r2, #255
 331 00ba 1A70     		strb	r2, [r3]
 332 00bc 164B     		ldr	r3, .L21+44
 333 00be 0022     		movs	r2, #0
 334 00c0 1A70     		strb	r2, [r3]
 335 00c2 08E0     		b	.L19
 336              	.L18:
 254:.\Generated_Source\PSoC5/I2C_MASTER.c ****             }
 255:.\Generated_Source\PSoC5/I2C_MASTER.c ****             else
 256:.\Generated_Source\PSoC5/I2C_MASTER.c ****             {
 257:.\Generated_Source\PSoC5/I2C_MASTER.c ****                 I2C_GENERATE_START;
 337              		.loc 1 257 0
 338 00c4 124B     		ldr	r3, .L21+36
 339 00c6 8222     		movs	r2, #130
 340 00c8 1A70     		strb	r2, [r3]
 341 00ca 124B     		ldr	r3, .L21+40
 342 00cc FF22     		movs	r2, #255
 343 00ce 1A70     		strb	r2, [r3]
 344 00d0 114B     		ldr	r3, .L21+44
 345 00d2 0022     		movs	r2, #0
 346 00d4 1A70     		strb	r2, [r3]
 347              	.L19:
 258:.\Generated_Source\PSoC5/I2C_MASTER.c ****             }
 259:.\Generated_Source\PSoC5/I2C_MASTER.c **** 
 260:.\Generated_Source\PSoC5/I2C_MASTER.c ****             /* Enable interrupt to complete transfer */
 261:.\Generated_Source\PSoC5/I2C_MASTER.c ****             I2C_EnableInt();
 348              		.loc 1 261 0
 349 00d6 114B     		ldr	r3, .L21+48
 350 00d8 0422     		movs	r2, #4
 351 00da 1A60     		str	r2, [r3]
 352              	.L13:
 262:.\Generated_Source\PSoC5/I2C_MASTER.c ****         }
 263:.\Generated_Source\PSoC5/I2C_MASTER.c ****     }
 264:.\Generated_Source\PSoC5/I2C_MASTER.c **** 
 265:.\Generated_Source\PSoC5/I2C_MASTER.c ****     return(errStatus);
 353              		.loc 1 265 0
 354 00dc FB7B     		ldrb	r3, [r7, #15]	@ zero_extendqisi2
 266:.\Generated_Source\PSoC5/I2C_MASTER.c **** }
 355              		.loc 1 266 0
 356 00de 1846     		mov	r0, r3
 357 00e0 1437     		adds	r7, r7, #20
 358 00e2 BD46     		mov	sp, r7
 359              		@ sp needed
 360 00e4 5DF8047B 		ldr	r7, [sp], #4
 361 00e8 7047     		bx	lr
ARM GAS  C:\Users\xavieran\AppData\Local\Temp\cczeGGoy.s 			page 12


 362              	.L22:
 363 00ea 00BF     		.align	2
 364              	.L21:
 365 00ec 00000000 		.word	I2C_state
 366 00f0 6B640040 		.word	1073767531
 367 00f4 80E200E0 		.word	-536812928
 368 00f8 00000000 		.word	I2C_mstrStatus
 369 00fc 00000000 		.word	I2C_mstrRdBufIndex
 370 0100 00000000 		.word	I2C_mstrRdBufSize
 371 0104 00000000 		.word	I2C_mstrRdBufPtr
 372 0108 00000000 		.word	I2C_mstrControl
 373 010c 0B640040 		.word	1073767435
 374 0110 77640040 		.word	1073767543
 375 0114 1B640040 		.word	1073767451
 376 0118 5B640040 		.word	1073767515
 377 011c 00E100E0 		.word	-536813312
 378              		.cfi_endproc
 379              	.LFE1:
 380              		.size	I2C_MasterReadBuf, .-I2C_MasterReadBuf
 381              		.section	.text.I2C_MasterSendStart,"ax",%progbits
 382              		.align	2
 383              		.global	I2C_MasterSendStart
 384              		.thumb
 385              		.thumb_func
 386              		.type	I2C_MasterSendStart, %function
 387              	I2C_MasterSendStart:
 388              	.LFB2:
 267:.\Generated_Source\PSoC5/I2C_MASTER.c **** 
 268:.\Generated_Source\PSoC5/I2C_MASTER.c **** 
 269:.\Generated_Source\PSoC5/I2C_MASTER.c **** /*******************************************************************************
 270:.\Generated_Source\PSoC5/I2C_MASTER.c **** * Function Name: I2C_MasterSendStart
 271:.\Generated_Source\PSoC5/I2C_MASTER.c **** ********************************************************************************
 272:.\Generated_Source\PSoC5/I2C_MASTER.c **** *
 273:.\Generated_Source\PSoC5/I2C_MASTER.c **** * Summary:
 274:.\Generated_Source\PSoC5/I2C_MASTER.c **** *  Generates Start condition and sends slave address with read/write bit.
 275:.\Generated_Source\PSoC5/I2C_MASTER.c **** *
 276:.\Generated_Source\PSoC5/I2C_MASTER.c **** * Parameters:
 277:.\Generated_Source\PSoC5/I2C_MASTER.c **** *  slaveAddress:  7-bit slave address.
 278:.\Generated_Source\PSoC5/I2C_MASTER.c **** *  R_nW:          Zero, send write command, non-zero send read command.
 279:.\Generated_Source\PSoC5/I2C_MASTER.c **** *
 280:.\Generated_Source\PSoC5/I2C_MASTER.c **** * Return:
 281:.\Generated_Source\PSoC5/I2C_MASTER.c **** *  Status error - Zero means no errors.
 282:.\Generated_Source\PSoC5/I2C_MASTER.c **** *
 283:.\Generated_Source\PSoC5/I2C_MASTER.c **** * Side Effects:
 284:.\Generated_Source\PSoC5/I2C_MASTER.c **** *  This function is entered without a "byte complete" bit set in the I2C_CSR
 285:.\Generated_Source\PSoC5/I2C_MASTER.c **** *  register. It does not exit until it is set.
 286:.\Generated_Source\PSoC5/I2C_MASTER.c **** *
 287:.\Generated_Source\PSoC5/I2C_MASTER.c **** * Global variables:
 288:.\Generated_Source\PSoC5/I2C_MASTER.c **** *  I2C_state - The global variable used to store a current state of
 289:.\Generated_Source\PSoC5/I2C_MASTER.c **** *                           the software FSM.
 290:.\Generated_Source\PSoC5/I2C_MASTER.c **** *
 291:.\Generated_Source\PSoC5/I2C_MASTER.c **** * Reentrant:
 292:.\Generated_Source\PSoC5/I2C_MASTER.c **** *  No.
 293:.\Generated_Source\PSoC5/I2C_MASTER.c **** *
 294:.\Generated_Source\PSoC5/I2C_MASTER.c **** *******************************************************************************/
 295:.\Generated_Source\PSoC5/I2C_MASTER.c **** uint8 I2C_MasterSendStart(uint8 slaveAddress, uint8 R_nW)
 296:.\Generated_Source\PSoC5/I2C_MASTER.c ****       
ARM GAS  C:\Users\xavieran\AppData\Local\Temp\cczeGGoy.s 			page 13


 297:.\Generated_Source\PSoC5/I2C_MASTER.c **** {
 389              		.loc 1 297 0
 390              		.cfi_startproc
 391              		@ args = 0, pretend = 0, frame = 16
 392              		@ frame_needed = 1, uses_anonymous_args = 0
 393              		@ link register save eliminated.
 394 0000 80B4     		push	{r7}
 395              		.cfi_def_cfa_offset 4
 396              		.cfi_offset 7, -4
 397 0002 85B0     		sub	sp, sp, #20
 398              		.cfi_def_cfa_offset 24
 399 0004 00AF     		add	r7, sp, #0
 400              		.cfi_def_cfa_register 7
 401 0006 0246     		mov	r2, r0
 402 0008 0B46     		mov	r3, r1
 403 000a FA71     		strb	r2, [r7, #7]
 404 000c BB71     		strb	r3, [r7, #6]
 298:.\Generated_Source\PSoC5/I2C_MASTER.c ****     uint8 errStatus;
 299:.\Generated_Source\PSoC5/I2C_MASTER.c **** 
 300:.\Generated_Source\PSoC5/I2C_MASTER.c ****     errStatus = I2C_MSTR_NOT_READY;
 405              		.loc 1 300 0
 406 000e 0223     		movs	r3, #2
 407 0010 FB73     		strb	r3, [r7, #15]
 301:.\Generated_Source\PSoC5/I2C_MASTER.c **** 
 302:.\Generated_Source\PSoC5/I2C_MASTER.c ****     /* If IDLE, check if bus is free */
 303:.\Generated_Source\PSoC5/I2C_MASTER.c ****     if(I2C_SM_IDLE == I2C_state)
 408              		.loc 1 303 0
 409 0012 2A4B     		ldr	r3, .L33
 410 0014 1B78     		ldrb	r3, [r3]
 411 0016 DBB2     		uxtb	r3, r3
 412 0018 102B     		cmp	r3, #16
 413 001a 47D1     		bne	.L24
 304:.\Generated_Source\PSoC5/I2C_MASTER.c ****     {
 305:.\Generated_Source\PSoC5/I2C_MASTER.c ****         /* If bus is free, generate Start condition */
 306:.\Generated_Source\PSoC5/I2C_MASTER.c ****         if(I2C_CHECK_BUS_FREE(I2C_MCSR_REG))
 414              		.loc 1 306 0
 415 001c 284B     		ldr	r3, .L33+4
 416 001e 1B78     		ldrb	r3, [r3]
 417 0020 DBB2     		uxtb	r3, r3
 418 0022 03F01003 		and	r3, r3, #16
 419 0026 002B     		cmp	r3, #0
 420 0028 3ED1     		bne	.L25
 307:.\Generated_Source\PSoC5/I2C_MASTER.c ****         {
 308:.\Generated_Source\PSoC5/I2C_MASTER.c ****             /* Disable interrupt for manual master operation */
 309:.\Generated_Source\PSoC5/I2C_MASTER.c ****             I2C_DisableInt();
 421              		.loc 1 309 0
 422 002a 264B     		ldr	r3, .L33+8
 423 002c 0422     		movs	r2, #4
 424 002e 1A60     		str	r2, [r3]
 310:.\Generated_Source\PSoC5/I2C_MASTER.c **** 
 311:.\Generated_Source\PSoC5/I2C_MASTER.c ****             /* Set address and read/write flag */
 312:.\Generated_Source\PSoC5/I2C_MASTER.c ****             slaveAddress = (uint8) (slaveAddress << I2C_SLAVE_ADDR_SHIFT);
 425              		.loc 1 312 0
 426 0030 FB79     		ldrb	r3, [r7, #7]
 427 0032 5B00     		lsls	r3, r3, #1
 428 0034 FB71     		strb	r3, [r7, #7]
 313:.\Generated_Source\PSoC5/I2C_MASTER.c ****             if(0u != R_nW)
ARM GAS  C:\Users\xavieran\AppData\Local\Temp\cczeGGoy.s 			page 14


 429              		.loc 1 313 0
 430 0036 BB79     		ldrb	r3, [r7, #6]	@ zero_extendqisi2
 431 0038 002B     		cmp	r3, #0
 432 003a 07D0     		beq	.L26
 314:.\Generated_Source\PSoC5/I2C_MASTER.c ****             {
 315:.\Generated_Source\PSoC5/I2C_MASTER.c ****                 slaveAddress |= I2C_READ_FLAG;
 433              		.loc 1 315 0
 434 003c FB79     		ldrb	r3, [r7, #7]
 435 003e 43F00103 		orr	r3, r3, #1
 436 0042 FB71     		strb	r3, [r7, #7]
 316:.\Generated_Source\PSoC5/I2C_MASTER.c ****                 I2C_state = I2C_SM_MSTR_RD_ADDR;
 437              		.loc 1 316 0
 438 0044 1D4B     		ldr	r3, .L33
 439 0046 4922     		movs	r2, #73
 440 0048 1A70     		strb	r2, [r3]
 441 004a 02E0     		b	.L27
 442              	.L26:
 317:.\Generated_Source\PSoC5/I2C_MASTER.c ****             }
 318:.\Generated_Source\PSoC5/I2C_MASTER.c ****             else
 319:.\Generated_Source\PSoC5/I2C_MASTER.c ****             {
 320:.\Generated_Source\PSoC5/I2C_MASTER.c ****                 I2C_state = I2C_SM_MSTR_WR_ADDR;
 443              		.loc 1 320 0
 444 004c 1B4B     		ldr	r3, .L33
 445 004e 4522     		movs	r2, #69
 446 0050 1A70     		strb	r2, [r3]
 447              	.L27:
 321:.\Generated_Source\PSoC5/I2C_MASTER.c ****             }
 322:.\Generated_Source\PSoC5/I2C_MASTER.c **** 
 323:.\Generated_Source\PSoC5/I2C_MASTER.c ****             /* Hardware actions: write address and generate Start */
 324:.\Generated_Source\PSoC5/I2C_MASTER.c ****             I2C_DATA_REG = slaveAddress;
 448              		.loc 1 324 0
 449 0052 1D4B     		ldr	r3, .L33+12
 450 0054 FA79     		ldrb	r2, [r7, #7]
 451 0056 1A70     		strb	r2, [r3]
 325:.\Generated_Source\PSoC5/I2C_MASTER.c ****             I2C_GENERATE_START_MANUAL;
 452              		.loc 1 325 0
 453 0058 1C4B     		ldr	r3, .L33+16
 454 005a 8222     		movs	r2, #130
 455 005c 1A70     		strb	r2, [r3]
 456 005e 1C4B     		ldr	r3, .L33+20
 457 0060 FF22     		movs	r2, #255
 458 0062 1A70     		strb	r2, [r3]
 459 0064 1B4B     		ldr	r3, .L33+24
 460 0066 0022     		movs	r2, #0
 461 0068 1A70     		strb	r2, [r3]
 462 006a 00BF     		nop
 463              	.L28:
 464              		.loc 1 325 0 is_stmt 0 discriminator 1
 465 006c 184B     		ldr	r3, .L33+20
 466 006e 1B78     		ldrb	r3, [r3]
 467 0070 DBB2     		uxtb	r3, r3
 468 0072 002B     		cmp	r3, #0
 469 0074 FAD1     		bne	.L28
 326:.\Generated_Source\PSoC5/I2C_MASTER.c **** 
 327:.\Generated_Source\PSoC5/I2C_MASTER.c ****             /* Wait until address is transferred */
 328:.\Generated_Source\PSoC5/I2C_MASTER.c ****             while(I2C_WAIT_BYTE_COMPLETE(I2C_CSR_REG))
 470              		.loc 1 328 0 is_stmt 1
ARM GAS  C:\Users\xavieran\AppData\Local\Temp\cczeGGoy.s 			page 15


 471 0076 00BF     		nop
 472              	.L29:
 473              		.loc 1 328 0 is_stmt 0 discriminator 1
 474 0078 114B     		ldr	r3, .L33+4
 475 007a 1B78     		ldrb	r3, [r3]
 476 007c DBB2     		uxtb	r3, r3
 477 007e 03F00103 		and	r3, r3, #1
 478 0082 002B     		cmp	r3, #0
 479 0084 F8D0     		beq	.L29
 329:.\Generated_Source\PSoC5/I2C_MASTER.c ****             {
 330:.\Generated_Source\PSoC5/I2C_MASTER.c ****             }
 331:.\Generated_Source\PSoC5/I2C_MASTER.c **** 
 332:.\Generated_Source\PSoC5/I2C_MASTER.c ****         #if(I2C_MODE_MULTI_MASTER_SLAVE_ENABLED)
 333:.\Generated_Source\PSoC5/I2C_MASTER.c ****             if(I2C_CHECK_START_GEN(I2C_MCSR_REG))
 334:.\Generated_Source\PSoC5/I2C_MASTER.c ****             {
 335:.\Generated_Source\PSoC5/I2C_MASTER.c ****                 I2C_CLEAR_START_GEN;
 336:.\Generated_Source\PSoC5/I2C_MASTER.c **** 
 337:.\Generated_Source\PSoC5/I2C_MASTER.c ****                 /* Start condition was not generated: reset FSM to IDLE */
 338:.\Generated_Source\PSoC5/I2C_MASTER.c ****                 I2C_state = I2C_SM_IDLE;
 339:.\Generated_Source\PSoC5/I2C_MASTER.c ****                 errStatus = I2C_MSTR_ERR_ABORT_START_GEN;
 340:.\Generated_Source\PSoC5/I2C_MASTER.c ****             }
 341:.\Generated_Source\PSoC5/I2C_MASTER.c ****             else
 342:.\Generated_Source\PSoC5/I2C_MASTER.c ****         #endif /* (I2C_MODE_MULTI_MASTER_SLAVE_ENABLED) */
 343:.\Generated_Source\PSoC5/I2C_MASTER.c **** 
 344:.\Generated_Source\PSoC5/I2C_MASTER.c ****         #if(I2C_MODE_MULTI_MASTER_ENABLED)
 345:.\Generated_Source\PSoC5/I2C_MASTER.c ****             if(I2C_CHECK_LOST_ARB(I2C_CSR_REG))
 346:.\Generated_Source\PSoC5/I2C_MASTER.c ****             {
 347:.\Generated_Source\PSoC5/I2C_MASTER.c ****                 I2C_BUS_RELEASE_MANUAL;
 348:.\Generated_Source\PSoC5/I2C_MASTER.c **** 
 349:.\Generated_Source\PSoC5/I2C_MASTER.c ****                 /* Master lost arbitrage: reset FSM to IDLE */
 350:.\Generated_Source\PSoC5/I2C_MASTER.c ****                 I2C_state = I2C_SM_IDLE;
 351:.\Generated_Source\PSoC5/I2C_MASTER.c ****                 errStatus = I2C_MSTR_ERR_ARB_LOST;
 352:.\Generated_Source\PSoC5/I2C_MASTER.c ****             }
 353:.\Generated_Source\PSoC5/I2C_MASTER.c ****             else
 354:.\Generated_Source\PSoC5/I2C_MASTER.c ****         #endif /* (I2C_MODE_MULTI_MASTER_ENABLED) */
 355:.\Generated_Source\PSoC5/I2C_MASTER.c **** 
 356:.\Generated_Source\PSoC5/I2C_MASTER.c ****             if(I2C_CHECK_ADDR_NAK(I2C_CSR_REG))
 480              		.loc 1 356 0 is_stmt 1
 481 0086 0E4B     		ldr	r3, .L33+4
 482 0088 1B78     		ldrb	r3, [r3]
 483 008a DBB2     		uxtb	r3, r3
 484 008c 03F00A03 		and	r3, r3, #10
 485 0090 DBB2     		uxtb	r3, r3
 486 0092 0A2B     		cmp	r3, #10
 487 0094 05D1     		bne	.L30
 357:.\Generated_Source\PSoC5/I2C_MASTER.c ****             {
 358:.\Generated_Source\PSoC5/I2C_MASTER.c ****                 /* Address has been NACKed: reset FSM to IDLE */
 359:.\Generated_Source\PSoC5/I2C_MASTER.c ****                 I2C_state = I2C_SM_IDLE;
 488              		.loc 1 359 0
 489 0096 094B     		ldr	r3, .L33
 490 0098 1022     		movs	r2, #16
 491 009a 1A70     		strb	r2, [r3]
 360:.\Generated_Source\PSoC5/I2C_MASTER.c ****                 errStatus = I2C_MSTR_ERR_LB_NAK;
 492              		.loc 1 360 0
 493 009c 0323     		movs	r3, #3
 494 009e FB73     		strb	r3, [r7, #15]
 495 00a0 04E0     		b	.L24
ARM GAS  C:\Users\xavieran\AppData\Local\Temp\cczeGGoy.s 			page 16


 496              	.L30:
 361:.\Generated_Source\PSoC5/I2C_MASTER.c ****             }
 362:.\Generated_Source\PSoC5/I2C_MASTER.c ****             else
 363:.\Generated_Source\PSoC5/I2C_MASTER.c ****             {
 364:.\Generated_Source\PSoC5/I2C_MASTER.c ****                 /* Start was sent without errors */
 365:.\Generated_Source\PSoC5/I2C_MASTER.c ****                 errStatus = I2C_MSTR_NO_ERROR;
 497              		.loc 1 365 0
 498 00a2 0023     		movs	r3, #0
 499 00a4 FB73     		strb	r3, [r7, #15]
 500 00a6 01E0     		b	.L24
 501              	.L25:
 366:.\Generated_Source\PSoC5/I2C_MASTER.c ****             }
 367:.\Generated_Source\PSoC5/I2C_MASTER.c ****         }
 368:.\Generated_Source\PSoC5/I2C_MASTER.c ****         else
 369:.\Generated_Source\PSoC5/I2C_MASTER.c ****         {
 370:.\Generated_Source\PSoC5/I2C_MASTER.c ****             errStatus = I2C_MSTR_BUS_BUSY;
 502              		.loc 1 370 0
 503 00a8 0123     		movs	r3, #1
 504 00aa FB73     		strb	r3, [r7, #15]
 505              	.L24:
 371:.\Generated_Source\PSoC5/I2C_MASTER.c ****         }
 372:.\Generated_Source\PSoC5/I2C_MASTER.c ****     }
 373:.\Generated_Source\PSoC5/I2C_MASTER.c **** 
 374:.\Generated_Source\PSoC5/I2C_MASTER.c ****     return(errStatus);
 506              		.loc 1 374 0
 507 00ac FB7B     		ldrb	r3, [r7, #15]	@ zero_extendqisi2
 375:.\Generated_Source\PSoC5/I2C_MASTER.c **** }
 508              		.loc 1 375 0
 509 00ae 1846     		mov	r0, r3
 510 00b0 1437     		adds	r7, r7, #20
 511 00b2 BD46     		mov	sp, r7
 512              		@ sp needed
 513 00b4 5DF8047B 		ldr	r7, [sp], #4
 514 00b8 7047     		bx	lr
 515              	.L34:
 516 00ba 00BF     		.align	2
 517              	.L33:
 518 00bc 00000000 		.word	I2C_state
 519 00c0 6B640040 		.word	1073767531
 520 00c4 80E100E0 		.word	-536813184
 521 00c8 0B640040 		.word	1073767435
 522 00cc 77640040 		.word	1073767543
 523 00d0 1B640040 		.word	1073767451
 524 00d4 5B640040 		.word	1073767515
 525              		.cfi_endproc
 526              	.LFE2:
 527              		.size	I2C_MasterSendStart, .-I2C_MasterSendStart
 528              		.section	.text.I2C_MasterSendRestart,"ax",%progbits
 529              		.align	2
 530              		.global	I2C_MasterSendRestart
 531              		.thumb
 532              		.thumb_func
 533              		.type	I2C_MasterSendRestart, %function
 534              	I2C_MasterSendRestart:
 535              	.LFB3:
 376:.\Generated_Source\PSoC5/I2C_MASTER.c **** 
 377:.\Generated_Source\PSoC5/I2C_MASTER.c **** 
ARM GAS  C:\Users\xavieran\AppData\Local\Temp\cczeGGoy.s 			page 17


 378:.\Generated_Source\PSoC5/I2C_MASTER.c **** /*******************************************************************************
 379:.\Generated_Source\PSoC5/I2C_MASTER.c **** * Function Name: I2C_MasterSendRestart
 380:.\Generated_Source\PSoC5/I2C_MASTER.c **** ********************************************************************************
 381:.\Generated_Source\PSoC5/I2C_MASTER.c **** *
 382:.\Generated_Source\PSoC5/I2C_MASTER.c **** * Summary:
 383:.\Generated_Source\PSoC5/I2C_MASTER.c **** *  Generates ReStart condition and sends slave address with read/write bit.
 384:.\Generated_Source\PSoC5/I2C_MASTER.c **** *
 385:.\Generated_Source\PSoC5/I2C_MASTER.c **** * Parameters:
 386:.\Generated_Source\PSoC5/I2C_MASTER.c **** *  slaveAddress:  7-bit slave address.
 387:.\Generated_Source\PSoC5/I2C_MASTER.c **** *  R_nW:          Zero, send write command, non-zero send read command.
 388:.\Generated_Source\PSoC5/I2C_MASTER.c **** *
 389:.\Generated_Source\PSoC5/I2C_MASTER.c **** * Return:
 390:.\Generated_Source\PSoC5/I2C_MASTER.c **** *  Status error - Zero means no errors.
 391:.\Generated_Source\PSoC5/I2C_MASTER.c **** *
 392:.\Generated_Source\PSoC5/I2C_MASTER.c **** * Side Effects:
 393:.\Generated_Source\PSoC5/I2C_MASTER.c **** *  This function is entered without a "byte complete" bit set in the I2C_CSR
 394:.\Generated_Source\PSoC5/I2C_MASTER.c **** *  register. It does not exit until it is set.
 395:.\Generated_Source\PSoC5/I2C_MASTER.c **** *
 396:.\Generated_Source\PSoC5/I2C_MASTER.c **** * Global variables:
 397:.\Generated_Source\PSoC5/I2C_MASTER.c **** *  I2C_state - The global variable used to store a current state of
 398:.\Generated_Source\PSoC5/I2C_MASTER.c **** *                           the software FSM.
 399:.\Generated_Source\PSoC5/I2C_MASTER.c **** *
 400:.\Generated_Source\PSoC5/I2C_MASTER.c **** * Reentrant:
 401:.\Generated_Source\PSoC5/I2C_MASTER.c **** *  No.
 402:.\Generated_Source\PSoC5/I2C_MASTER.c **** *
 403:.\Generated_Source\PSoC5/I2C_MASTER.c **** *******************************************************************************/
 404:.\Generated_Source\PSoC5/I2C_MASTER.c **** uint8 I2C_MasterSendRestart(uint8 slaveAddress, uint8 R_nW)
 405:.\Generated_Source\PSoC5/I2C_MASTER.c ****       
 406:.\Generated_Source\PSoC5/I2C_MASTER.c **** {
 536              		.loc 1 406 0
 537              		.cfi_startproc
 538              		@ args = 0, pretend = 0, frame = 16
 539              		@ frame_needed = 1, uses_anonymous_args = 0
 540              		@ link register save eliminated.
 541 0000 80B4     		push	{r7}
 542              		.cfi_def_cfa_offset 4
 543              		.cfi_offset 7, -4
 544 0002 85B0     		sub	sp, sp, #20
 545              		.cfi_def_cfa_offset 24
 546 0004 00AF     		add	r7, sp, #0
 547              		.cfi_def_cfa_register 7
 548 0006 0246     		mov	r2, r0
 549 0008 0B46     		mov	r3, r1
 550 000a FA71     		strb	r2, [r7, #7]
 551 000c BB71     		strb	r3, [r7, #6]
 407:.\Generated_Source\PSoC5/I2C_MASTER.c ****     uint8 errStatus;
 408:.\Generated_Source\PSoC5/I2C_MASTER.c **** 
 409:.\Generated_Source\PSoC5/I2C_MASTER.c ****     errStatus = I2C_MSTR_NOT_READY;
 552              		.loc 1 409 0
 553 000e 0223     		movs	r3, #2
 554 0010 FB73     		strb	r3, [r7, #15]
 410:.\Generated_Source\PSoC5/I2C_MASTER.c **** 
 411:.\Generated_Source\PSoC5/I2C_MASTER.c ****     /* Check if START condition was generated */
 412:.\Generated_Source\PSoC5/I2C_MASTER.c ****     if(I2C_CHECK_MASTER_MODE(I2C_MCSR_REG))
 555              		.loc 1 412 0
 556 0012 244B     		ldr	r3, .L43
 557 0014 1B78     		ldrb	r3, [r3]
ARM GAS  C:\Users\xavieran\AppData\Local\Temp\cczeGGoy.s 			page 18


 558 0016 DBB2     		uxtb	r3, r3
 559 0018 03F00403 		and	r3, r3, #4
 560 001c 002B     		cmp	r3, #0
 561 001e 3AD0     		beq	.L36
 413:.\Generated_Source\PSoC5/I2C_MASTER.c ****     {
 414:.\Generated_Source\PSoC5/I2C_MASTER.c ****         /* Set address and read/write flag */
 415:.\Generated_Source\PSoC5/I2C_MASTER.c ****         slaveAddress = (uint8) (slaveAddress << I2C_SLAVE_ADDR_SHIFT);
 562              		.loc 1 415 0
 563 0020 FB79     		ldrb	r3, [r7, #7]
 564 0022 5B00     		lsls	r3, r3, #1
 565 0024 FB71     		strb	r3, [r7, #7]
 416:.\Generated_Source\PSoC5/I2C_MASTER.c ****         if(0u != R_nW)
 566              		.loc 1 416 0
 567 0026 BB79     		ldrb	r3, [r7, #6]	@ zero_extendqisi2
 568 0028 002B     		cmp	r3, #0
 569 002a 07D0     		beq	.L37
 417:.\Generated_Source\PSoC5/I2C_MASTER.c ****         {
 418:.\Generated_Source\PSoC5/I2C_MASTER.c ****             slaveAddress |= I2C_READ_FLAG;
 570              		.loc 1 418 0
 571 002c FB79     		ldrb	r3, [r7, #7]
 572 002e 43F00103 		orr	r3, r3, #1
 573 0032 FB71     		strb	r3, [r7, #7]
 419:.\Generated_Source\PSoC5/I2C_MASTER.c ****             I2C_state = I2C_SM_MSTR_RD_ADDR;
 574              		.loc 1 419 0
 575 0034 1C4B     		ldr	r3, .L43+4
 576 0036 4922     		movs	r2, #73
 577 0038 1A70     		strb	r2, [r3]
 578 003a 02E0     		b	.L38
 579              	.L37:
 420:.\Generated_Source\PSoC5/I2C_MASTER.c ****         }
 421:.\Generated_Source\PSoC5/I2C_MASTER.c ****         else
 422:.\Generated_Source\PSoC5/I2C_MASTER.c ****         {
 423:.\Generated_Source\PSoC5/I2C_MASTER.c ****             I2C_state = I2C_SM_MSTR_WR_ADDR;
 580              		.loc 1 423 0
 581 003c 1A4B     		ldr	r3, .L43+4
 582 003e 4522     		movs	r2, #69
 583 0040 1A70     		strb	r2, [r3]
 584              	.L38:
 424:.\Generated_Source\PSoC5/I2C_MASTER.c ****         }
 425:.\Generated_Source\PSoC5/I2C_MASTER.c **** 
 426:.\Generated_Source\PSoC5/I2C_MASTER.c ****         /* Hardware actions: write address and generate ReStart */
 427:.\Generated_Source\PSoC5/I2C_MASTER.c ****         I2C_DATA_REG = slaveAddress;
 585              		.loc 1 427 0
 586 0042 1A4B     		ldr	r3, .L43+8
 587 0044 FA79     		ldrb	r2, [r7, #7]
 588 0046 1A70     		strb	r2, [r3]
 428:.\Generated_Source\PSoC5/I2C_MASTER.c ****         I2C_GENERATE_RESTART_MANUAL;
 589              		.loc 1 428 0
 590 0048 194B     		ldr	r3, .L43+12
 591 004a 3222     		movs	r2, #50
 592 004c 1A70     		strb	r2, [r3]
 593 004e 194B     		ldr	r3, .L43+16
 594 0050 FF22     		movs	r2, #255
 595 0052 1A70     		strb	r2, [r3]
 596 0054 184B     		ldr	r3, .L43+20
 597 0056 0022     		movs	r2, #0
 598 0058 1A70     		strb	r2, [r3]
ARM GAS  C:\Users\xavieran\AppData\Local\Temp\cczeGGoy.s 			page 19


 599 005a 00BF     		nop
 600              	.L39:
 601              		.loc 1 428 0 is_stmt 0 discriminator 1
 602 005c 154B     		ldr	r3, .L43+16
 603 005e 1B78     		ldrb	r3, [r3]
 604 0060 DBB2     		uxtb	r3, r3
 605 0062 002B     		cmp	r3, #0
 606 0064 FAD1     		bne	.L39
 429:.\Generated_Source\PSoC5/I2C_MASTER.c **** 
 430:.\Generated_Source\PSoC5/I2C_MASTER.c ****         /* Wait until address has been transferred */
 431:.\Generated_Source\PSoC5/I2C_MASTER.c ****         while(I2C_WAIT_BYTE_COMPLETE(I2C_CSR_REG))
 607              		.loc 1 431 0 is_stmt 1
 608 0066 00BF     		nop
 609              	.L40:
 610              		.loc 1 431 0 is_stmt 0 discriminator 1
 611 0068 0E4B     		ldr	r3, .L43
 612 006a 1B78     		ldrb	r3, [r3]
 613 006c DBB2     		uxtb	r3, r3
 614 006e 03F00103 		and	r3, r3, #1
 615 0072 002B     		cmp	r3, #0
 616 0074 F8D0     		beq	.L40
 432:.\Generated_Source\PSoC5/I2C_MASTER.c ****         {
 433:.\Generated_Source\PSoC5/I2C_MASTER.c ****         }
 434:.\Generated_Source\PSoC5/I2C_MASTER.c **** 
 435:.\Generated_Source\PSoC5/I2C_MASTER.c ****     #if(I2C_MODE_MULTI_MASTER_ENABLED)
 436:.\Generated_Source\PSoC5/I2C_MASTER.c ****         if(I2C_CHECK_LOST_ARB(I2C_CSR_REG))
 437:.\Generated_Source\PSoC5/I2C_MASTER.c ****         {
 438:.\Generated_Source\PSoC5/I2C_MASTER.c ****             I2C_BUS_RELEASE_MANUAL;
 439:.\Generated_Source\PSoC5/I2C_MASTER.c **** 
 440:.\Generated_Source\PSoC5/I2C_MASTER.c ****             /* Master lost arbitrage: reset FSM to IDLE */
 441:.\Generated_Source\PSoC5/I2C_MASTER.c ****             I2C_state = I2C_SM_IDLE;
 442:.\Generated_Source\PSoC5/I2C_MASTER.c ****             errStatus = I2C_MSTR_ERR_ARB_LOST;
 443:.\Generated_Source\PSoC5/I2C_MASTER.c ****         }
 444:.\Generated_Source\PSoC5/I2C_MASTER.c ****         else
 445:.\Generated_Source\PSoC5/I2C_MASTER.c ****     #endif /* (I2C_MODE_MULTI_MASTER_ENABLED) */
 446:.\Generated_Source\PSoC5/I2C_MASTER.c **** 
 447:.\Generated_Source\PSoC5/I2C_MASTER.c ****         if(I2C_CHECK_ADDR_NAK(I2C_CSR_REG))
 617              		.loc 1 447 0 is_stmt 1
 618 0076 0B4B     		ldr	r3, .L43
 619 0078 1B78     		ldrb	r3, [r3]
 620 007a DBB2     		uxtb	r3, r3
 621 007c 03F00A03 		and	r3, r3, #10
 622 0080 DBB2     		uxtb	r3, r3
 623 0082 0A2B     		cmp	r3, #10
 624 0084 05D1     		bne	.L41
 448:.\Generated_Source\PSoC5/I2C_MASTER.c ****         {
 449:.\Generated_Source\PSoC5/I2C_MASTER.c ****             /* Address has been NACKed: reset FSM to IDLE */
 450:.\Generated_Source\PSoC5/I2C_MASTER.c ****             I2C_state = I2C_SM_IDLE;
 625              		.loc 1 450 0
 626 0086 084B     		ldr	r3, .L43+4
 627 0088 1022     		movs	r2, #16
 628 008a 1A70     		strb	r2, [r3]
 451:.\Generated_Source\PSoC5/I2C_MASTER.c ****             errStatus = I2C_MSTR_ERR_LB_NAK;
 629              		.loc 1 451 0
 630 008c 0323     		movs	r3, #3
 631 008e FB73     		strb	r3, [r7, #15]
 632 0090 01E0     		b	.L36
ARM GAS  C:\Users\xavieran\AppData\Local\Temp\cczeGGoy.s 			page 20


 633              	.L41:
 452:.\Generated_Source\PSoC5/I2C_MASTER.c ****         }
 453:.\Generated_Source\PSoC5/I2C_MASTER.c ****         else
 454:.\Generated_Source\PSoC5/I2C_MASTER.c ****         {
 455:.\Generated_Source\PSoC5/I2C_MASTER.c ****             /* ReStart was sent without errors */
 456:.\Generated_Source\PSoC5/I2C_MASTER.c ****             errStatus = I2C_MSTR_NO_ERROR;
 634              		.loc 1 456 0
 635 0092 0023     		movs	r3, #0
 636 0094 FB73     		strb	r3, [r7, #15]
 637              	.L36:
 457:.\Generated_Source\PSoC5/I2C_MASTER.c ****         }
 458:.\Generated_Source\PSoC5/I2C_MASTER.c ****     }
 459:.\Generated_Source\PSoC5/I2C_MASTER.c **** 
 460:.\Generated_Source\PSoC5/I2C_MASTER.c ****     return(errStatus);
 638              		.loc 1 460 0
 639 0096 FB7B     		ldrb	r3, [r7, #15]	@ zero_extendqisi2
 461:.\Generated_Source\PSoC5/I2C_MASTER.c **** }
 640              		.loc 1 461 0
 641 0098 1846     		mov	r0, r3
 642 009a 1437     		adds	r7, r7, #20
 643 009c BD46     		mov	sp, r7
 644              		@ sp needed
 645 009e 5DF8047B 		ldr	r7, [sp], #4
 646 00a2 7047     		bx	lr
 647              	.L44:
 648              		.align	2
 649              	.L43:
 650 00a4 6B640040 		.word	1073767531
 651 00a8 00000000 		.word	I2C_state
 652 00ac 0B640040 		.word	1073767435
 653 00b0 77640040 		.word	1073767543
 654 00b4 1B640040 		.word	1073767451
 655 00b8 5B640040 		.word	1073767515
 656              		.cfi_endproc
 657              	.LFE3:
 658              		.size	I2C_MasterSendRestart, .-I2C_MasterSendRestart
 659              		.section	.text.I2C_MasterSendStop,"ax",%progbits
 660              		.align	2
 661              		.global	I2C_MasterSendStop
 662              		.thumb
 663              		.thumb_func
 664              		.type	I2C_MasterSendStop, %function
 665              	I2C_MasterSendStop:
 666              	.LFB4:
 462:.\Generated_Source\PSoC5/I2C_MASTER.c **** 
 463:.\Generated_Source\PSoC5/I2C_MASTER.c **** 
 464:.\Generated_Source\PSoC5/I2C_MASTER.c **** /*******************************************************************************
 465:.\Generated_Source\PSoC5/I2C_MASTER.c **** * Function Name: I2C_MasterSendStop
 466:.\Generated_Source\PSoC5/I2C_MASTER.c **** ********************************************************************************
 467:.\Generated_Source\PSoC5/I2C_MASTER.c **** *
 468:.\Generated_Source\PSoC5/I2C_MASTER.c **** * Summary:
 469:.\Generated_Source\PSoC5/I2C_MASTER.c **** *  Generates I2C Stop condition on bus. Function do nothing if Start or Restart
 470:.\Generated_Source\PSoC5/I2C_MASTER.c **** *  condition was failed before call this function.
 471:.\Generated_Source\PSoC5/I2C_MASTER.c **** *
 472:.\Generated_Source\PSoC5/I2C_MASTER.c **** * Parameters:
 473:.\Generated_Source\PSoC5/I2C_MASTER.c **** *  None.
 474:.\Generated_Source\PSoC5/I2C_MASTER.c **** *
ARM GAS  C:\Users\xavieran\AppData\Local\Temp\cczeGGoy.s 			page 21


 475:.\Generated_Source\PSoC5/I2C_MASTER.c **** * Return:
 476:.\Generated_Source\PSoC5/I2C_MASTER.c **** *  Status error - Zero means no errors.
 477:.\Generated_Source\PSoC5/I2C_MASTER.c **** *
 478:.\Generated_Source\PSoC5/I2C_MASTER.c **** * Side Effects:
 479:.\Generated_Source\PSoC5/I2C_MASTER.c **** *  Stop generation is required to complete the transaction.
 480:.\Generated_Source\PSoC5/I2C_MASTER.c **** *  This function does not wait until a Stop condition is generated.
 481:.\Generated_Source\PSoC5/I2C_MASTER.c **** *
 482:.\Generated_Source\PSoC5/I2C_MASTER.c **** * Global variables:
 483:.\Generated_Source\PSoC5/I2C_MASTER.c **** *  I2C_state - The global variable used to store a current state of
 484:.\Generated_Source\PSoC5/I2C_MASTER.c **** *                           the software FSM.
 485:.\Generated_Source\PSoC5/I2C_MASTER.c **** *
 486:.\Generated_Source\PSoC5/I2C_MASTER.c **** * Reentrant:
 487:.\Generated_Source\PSoC5/I2C_MASTER.c **** *  No.
 488:.\Generated_Source\PSoC5/I2C_MASTER.c **** *
 489:.\Generated_Source\PSoC5/I2C_MASTER.c **** *******************************************************************************/
 490:.\Generated_Source\PSoC5/I2C_MASTER.c **** uint8 I2C_MasterSendStop(void) 
 491:.\Generated_Source\PSoC5/I2C_MASTER.c **** {
 667              		.loc 1 491 0
 668              		.cfi_startproc
 669              		@ args = 0, pretend = 0, frame = 8
 670              		@ frame_needed = 1, uses_anonymous_args = 0
 671              		@ link register save eliminated.
 672 0000 80B4     		push	{r7}
 673              		.cfi_def_cfa_offset 4
 674              		.cfi_offset 7, -4
 675 0002 83B0     		sub	sp, sp, #12
 676              		.cfi_def_cfa_offset 16
 677 0004 00AF     		add	r7, sp, #0
 678              		.cfi_def_cfa_register 7
 492:.\Generated_Source\PSoC5/I2C_MASTER.c ****     uint8 errStatus;
 493:.\Generated_Source\PSoC5/I2C_MASTER.c **** 
 494:.\Generated_Source\PSoC5/I2C_MASTER.c ****     errStatus = I2C_MSTR_NOT_READY;
 679              		.loc 1 494 0
 680 0006 0223     		movs	r3, #2
 681 0008 FB71     		strb	r3, [r7, #7]
 495:.\Generated_Source\PSoC5/I2C_MASTER.c **** 
 496:.\Generated_Source\PSoC5/I2C_MASTER.c ****     /* Check if master is active on bus */
 497:.\Generated_Source\PSoC5/I2C_MASTER.c ****     if(I2C_CHECK_MASTER_MODE(I2C_MCSR_REG))
 682              		.loc 1 497 0
 683 000a 154B     		ldr	r3, .L50
 684 000c 1B78     		ldrb	r3, [r3]
 685 000e DBB2     		uxtb	r3, r3
 686 0010 03F00403 		and	r3, r3, #4
 687 0014 002B     		cmp	r3, #0
 688 0016 1BD0     		beq	.L46
 498:.\Generated_Source\PSoC5/I2C_MASTER.c ****     {
 499:.\Generated_Source\PSoC5/I2C_MASTER.c ****         I2C_GENERATE_STOP_MANUAL;
 689              		.loc 1 499 0
 690 0018 124B     		ldr	r3, .L50+4
 691 001a 5222     		movs	r2, #82
 692 001c 1A70     		strb	r2, [r3]
 693 001e 124B     		ldr	r3, .L50+8
 694 0020 FF22     		movs	r2, #255
 695 0022 1A70     		strb	r2, [r3]
 696 0024 114B     		ldr	r3, .L50+12
 697 0026 0022     		movs	r2, #0
 698 0028 1A70     		strb	r2, [r3]
ARM GAS  C:\Users\xavieran\AppData\Local\Temp\cczeGGoy.s 			page 22


 699 002a 00BF     		nop
 700              	.L47:
 701              		.loc 1 499 0 is_stmt 0 discriminator 1
 702 002c 0E4B     		ldr	r3, .L50+8
 703 002e 1B78     		ldrb	r3, [r3]
 704 0030 DBB2     		uxtb	r3, r3
 705 0032 002B     		cmp	r3, #0
 706 0034 FAD1     		bne	.L47
 500:.\Generated_Source\PSoC5/I2C_MASTER.c ****         I2C_state = I2C_SM_IDLE;
 707              		.loc 1 500 0 is_stmt 1
 708 0036 0E4B     		ldr	r3, .L50+16
 709 0038 1022     		movs	r2, #16
 710 003a 1A70     		strb	r2, [r3]
 501:.\Generated_Source\PSoC5/I2C_MASTER.c **** 
 502:.\Generated_Source\PSoC5/I2C_MASTER.c ****         /* Wait until stop has been generated */
 503:.\Generated_Source\PSoC5/I2C_MASTER.c ****         while(I2C_WAIT_STOP_COMPLETE(I2C_CSR_REG))
 711              		.loc 1 503 0
 712 003c 00BF     		nop
 713              	.L48:
 714              		.loc 1 503 0 is_stmt 0 discriminator 1
 715 003e 084B     		ldr	r3, .L50
 716 0040 1B78     		ldrb	r3, [r3]
 717 0042 DBB2     		uxtb	r3, r3
 718 0044 03F02103 		and	r3, r3, #33
 719 0048 002B     		cmp	r3, #0
 720 004a F8D0     		beq	.L48
 504:.\Generated_Source\PSoC5/I2C_MASTER.c ****         {
 505:.\Generated_Source\PSoC5/I2C_MASTER.c ****         }
 506:.\Generated_Source\PSoC5/I2C_MASTER.c **** 
 507:.\Generated_Source\PSoC5/I2C_MASTER.c ****         errStatus = I2C_MSTR_NO_ERROR;
 721              		.loc 1 507 0 is_stmt 1
 722 004c 0023     		movs	r3, #0
 723 004e FB71     		strb	r3, [r7, #7]
 724              	.L46:
 508:.\Generated_Source\PSoC5/I2C_MASTER.c **** 
 509:.\Generated_Source\PSoC5/I2C_MASTER.c ****     #if(I2C_MODE_MULTI_MASTER_ENABLED)
 510:.\Generated_Source\PSoC5/I2C_MASTER.c ****         if(I2C_CHECK_LOST_ARB(I2C_CSR_REG))
 511:.\Generated_Source\PSoC5/I2C_MASTER.c ****         {
 512:.\Generated_Source\PSoC5/I2C_MASTER.c ****             I2C_BUS_RELEASE_MANUAL;
 513:.\Generated_Source\PSoC5/I2C_MASTER.c **** 
 514:.\Generated_Source\PSoC5/I2C_MASTER.c ****             /* NACK was generated by instead Stop */
 515:.\Generated_Source\PSoC5/I2C_MASTER.c ****             errStatus = I2C_MSTR_ERR_ARB_LOST;
 516:.\Generated_Source\PSoC5/I2C_MASTER.c ****         }
 517:.\Generated_Source\PSoC5/I2C_MASTER.c ****     #endif /* (I2C_MODE_MULTI_MASTER_ENABLED) */
 518:.\Generated_Source\PSoC5/I2C_MASTER.c ****     }
 519:.\Generated_Source\PSoC5/I2C_MASTER.c **** 
 520:.\Generated_Source\PSoC5/I2C_MASTER.c ****     return(errStatus);
 725              		.loc 1 520 0
 726 0050 FB79     		ldrb	r3, [r7, #7]	@ zero_extendqisi2
 521:.\Generated_Source\PSoC5/I2C_MASTER.c **** }
 727              		.loc 1 521 0
 728 0052 1846     		mov	r0, r3
 729 0054 0C37     		adds	r7, r7, #12
 730 0056 BD46     		mov	sp, r7
 731              		@ sp needed
 732 0058 5DF8047B 		ldr	r7, [sp], #4
 733 005c 7047     		bx	lr
ARM GAS  C:\Users\xavieran\AppData\Local\Temp\cczeGGoy.s 			page 23


 734              	.L51:
 735 005e 00BF     		.align	2
 736              	.L50:
 737 0060 6B640040 		.word	1073767531
 738 0064 77640040 		.word	1073767543
 739 0068 1B640040 		.word	1073767451
 740 006c 5B640040 		.word	1073767515
 741 0070 00000000 		.word	I2C_state
 742              		.cfi_endproc
 743              	.LFE4:
 744              		.size	I2C_MasterSendStop, .-I2C_MasterSendStop
 745              		.section	.text.I2C_MasterWriteByte,"ax",%progbits
 746              		.align	2
 747              		.global	I2C_MasterWriteByte
 748              		.thumb
 749              		.thumb_func
 750              		.type	I2C_MasterWriteByte, %function
 751              	I2C_MasterWriteByte:
 752              	.LFB5:
 522:.\Generated_Source\PSoC5/I2C_MASTER.c **** 
 523:.\Generated_Source\PSoC5/I2C_MASTER.c **** 
 524:.\Generated_Source\PSoC5/I2C_MASTER.c **** /*******************************************************************************
 525:.\Generated_Source\PSoC5/I2C_MASTER.c **** * Function Name: I2C_MasterWriteByte
 526:.\Generated_Source\PSoC5/I2C_MASTER.c **** ********************************************************************************
 527:.\Generated_Source\PSoC5/I2C_MASTER.c **** *
 528:.\Generated_Source\PSoC5/I2C_MASTER.c **** * Summary:
 529:.\Generated_Source\PSoC5/I2C_MASTER.c **** *  Sends one byte to a slave. A valid Start or ReStart condition must be
 530:.\Generated_Source\PSoC5/I2C_MASTER.c **** *  generated before this call this function. Function do nothing if Start or
 531:.\Generated_Source\PSoC5/I2C_MASTER.c **** *  Restart condition was failed before call this function.
 532:.\Generated_Source\PSoC5/I2C_MASTER.c **** *
 533:.\Generated_Source\PSoC5/I2C_MASTER.c **** * Parameters:
 534:.\Generated_Source\PSoC5/I2C_MASTER.c **** *  data:  The data byte to send to the slave.
 535:.\Generated_Source\PSoC5/I2C_MASTER.c **** *
 536:.\Generated_Source\PSoC5/I2C_MASTER.c **** * Return:
 537:.\Generated_Source\PSoC5/I2C_MASTER.c **** *  Status error - Zero means no errors.
 538:.\Generated_Source\PSoC5/I2C_MASTER.c **** *
 539:.\Generated_Source\PSoC5/I2C_MASTER.c **** * Side Effects:
 540:.\Generated_Source\PSoC5/I2C_MASTER.c **** *  This function is entered without a "byte complete" bit set in the I2C_CSR
 541:.\Generated_Source\PSoC5/I2C_MASTER.c **** *  register. It does not exit until it is set.
 542:.\Generated_Source\PSoC5/I2C_MASTER.c **** *
 543:.\Generated_Source\PSoC5/I2C_MASTER.c **** * Global variables:
 544:.\Generated_Source\PSoC5/I2C_MASTER.c **** *  I2C_state - The global variable used to store a current state of
 545:.\Generated_Source\PSoC5/I2C_MASTER.c **** *                           the software FSM.
 546:.\Generated_Source\PSoC5/I2C_MASTER.c **** *
 547:.\Generated_Source\PSoC5/I2C_MASTER.c **** *******************************************************************************/
 548:.\Generated_Source\PSoC5/I2C_MASTER.c **** uint8 I2C_MasterWriteByte(uint8 theByte) 
 549:.\Generated_Source\PSoC5/I2C_MASTER.c **** {
 753              		.loc 1 549 0
 754              		.cfi_startproc
 755              		@ args = 0, pretend = 0, frame = 16
 756              		@ frame_needed = 1, uses_anonymous_args = 0
 757              		@ link register save eliminated.
 758 0000 80B4     		push	{r7}
 759              		.cfi_def_cfa_offset 4
 760              		.cfi_offset 7, -4
 761 0002 85B0     		sub	sp, sp, #20
 762              		.cfi_def_cfa_offset 24
ARM GAS  C:\Users\xavieran\AppData\Local\Temp\cczeGGoy.s 			page 24


 763 0004 00AF     		add	r7, sp, #0
 764              		.cfi_def_cfa_register 7
 765 0006 0346     		mov	r3, r0
 766 0008 FB71     		strb	r3, [r7, #7]
 550:.\Generated_Source\PSoC5/I2C_MASTER.c ****     uint8 errStatus;
 551:.\Generated_Source\PSoC5/I2C_MASTER.c **** 
 552:.\Generated_Source\PSoC5/I2C_MASTER.c ****     errStatus = I2C_MSTR_NOT_READY;
 767              		.loc 1 552 0
 768 000a 0223     		movs	r3, #2
 769 000c FB73     		strb	r3, [r7, #15]
 553:.\Generated_Source\PSoC5/I2C_MASTER.c **** 
 554:.\Generated_Source\PSoC5/I2C_MASTER.c ****     /* Check if START condition was generated */
 555:.\Generated_Source\PSoC5/I2C_MASTER.c ****     if(I2C_CHECK_MASTER_MODE(I2C_MCSR_REG))
 770              		.loc 1 555 0
 771 000e 1E4B     		ldr	r3, .L58
 772 0010 1B78     		ldrb	r3, [r3]
 773 0012 DBB2     		uxtb	r3, r3
 774 0014 03F00403 		and	r3, r3, #4
 775 0018 002B     		cmp	r3, #0
 776 001a 2ED0     		beq	.L53
 556:.\Generated_Source\PSoC5/I2C_MASTER.c ****     {
 557:.\Generated_Source\PSoC5/I2C_MASTER.c ****         I2C_DATA_REG = theByte;   /* Write DATA register */
 777              		.loc 1 557 0
 778 001c 1B4B     		ldr	r3, .L58+4
 779 001e FA79     		ldrb	r2, [r7, #7]
 780 0020 1A70     		strb	r2, [r3]
 558:.\Generated_Source\PSoC5/I2C_MASTER.c ****         I2C_TRANSMIT_DATA_MANUAL; /* Set transmit mode   */
 781              		.loc 1 558 0
 782 0022 1B4B     		ldr	r3, .L58+8
 783 0024 0622     		movs	r2, #6
 784 0026 1A70     		strb	r2, [r3]
 785 0028 1A4B     		ldr	r3, .L58+12
 786 002a FF22     		movs	r2, #255
 787 002c 1A70     		strb	r2, [r3]
 788 002e 1A4B     		ldr	r3, .L58+16
 789 0030 0022     		movs	r2, #0
 790 0032 1A70     		strb	r2, [r3]
 791 0034 00BF     		nop
 792              	.L54:
 793              		.loc 1 558 0 is_stmt 0 discriminator 1
 794 0036 174B     		ldr	r3, .L58+12
 795 0038 1B78     		ldrb	r3, [r3]
 796 003a DBB2     		uxtb	r3, r3
 797 003c 002B     		cmp	r3, #0
 798 003e FAD1     		bne	.L54
 559:.\Generated_Source\PSoC5/I2C_MASTER.c ****         I2C_state = I2C_SM_MSTR_WR_DATA;
 799              		.loc 1 559 0 is_stmt 1
 800 0040 164B     		ldr	r3, .L58+20
 801 0042 4622     		movs	r2, #70
 802 0044 1A70     		strb	r2, [r3]
 560:.\Generated_Source\PSoC5/I2C_MASTER.c **** 
 561:.\Generated_Source\PSoC5/I2C_MASTER.c ****         /* Wait until data byte has been transmitted */
 562:.\Generated_Source\PSoC5/I2C_MASTER.c ****         while(I2C_WAIT_BYTE_COMPLETE(I2C_CSR_REG))
 803              		.loc 1 562 0
 804 0046 00BF     		nop
 805              	.L55:
 806              		.loc 1 562 0 is_stmt 0 discriminator 1
ARM GAS  C:\Users\xavieran\AppData\Local\Temp\cczeGGoy.s 			page 25


 807 0048 0F4B     		ldr	r3, .L58
 808 004a 1B78     		ldrb	r3, [r3]
 809 004c DBB2     		uxtb	r3, r3
 810 004e 03F00103 		and	r3, r3, #1
 811 0052 002B     		cmp	r3, #0
 812 0054 F8D0     		beq	.L55
 563:.\Generated_Source\PSoC5/I2C_MASTER.c ****         {
 564:.\Generated_Source\PSoC5/I2C_MASTER.c ****         }
 565:.\Generated_Source\PSoC5/I2C_MASTER.c **** 
 566:.\Generated_Source\PSoC5/I2C_MASTER.c ****     #if(I2C_MODE_MULTI_MASTER_ENABLED)
 567:.\Generated_Source\PSoC5/I2C_MASTER.c ****         if(I2C_CHECK_LOST_ARB(I2C_CSR_REG))
 568:.\Generated_Source\PSoC5/I2C_MASTER.c ****         {
 569:.\Generated_Source\PSoC5/I2C_MASTER.c ****             I2C_BUS_RELEASE_MANUAL;
 570:.\Generated_Source\PSoC5/I2C_MASTER.c **** 
 571:.\Generated_Source\PSoC5/I2C_MASTER.c ****             /* Master lost arbitrage: reset FSM to IDLE */
 572:.\Generated_Source\PSoC5/I2C_MASTER.c ****             I2C_state = I2C_SM_IDLE;
 573:.\Generated_Source\PSoC5/I2C_MASTER.c ****             errStatus = I2C_MSTR_ERR_ARB_LOST;
 574:.\Generated_Source\PSoC5/I2C_MASTER.c ****         }
 575:.\Generated_Source\PSoC5/I2C_MASTER.c ****         /* Check LRB bit */
 576:.\Generated_Source\PSoC5/I2C_MASTER.c ****         else
 577:.\Generated_Source\PSoC5/I2C_MASTER.c ****     #endif /* (I2C_MODE_MULTI_MASTER_ENABLED) */
 578:.\Generated_Source\PSoC5/I2C_MASTER.c **** 
 579:.\Generated_Source\PSoC5/I2C_MASTER.c ****         if(I2C_CHECK_DATA_ACK(I2C_CSR_REG))
 813              		.loc 1 579 0 is_stmt 1
 814 0056 0C4B     		ldr	r3, .L58
 815 0058 1B78     		ldrb	r3, [r3]
 816 005a DBB2     		uxtb	r3, r3
 817 005c 03F00203 		and	r3, r3, #2
 818 0060 002B     		cmp	r3, #0
 819 0062 05D1     		bne	.L56
 580:.\Generated_Source\PSoC5/I2C_MASTER.c ****         {
 581:.\Generated_Source\PSoC5/I2C_MASTER.c ****             I2C_state = I2C_SM_MSTR_HALT;
 820              		.loc 1 581 0
 821 0064 0D4B     		ldr	r3, .L58+20
 822 0066 6022     		movs	r2, #96
 823 0068 1A70     		strb	r2, [r3]
 582:.\Generated_Source\PSoC5/I2C_MASTER.c ****             errStatus = I2C_MSTR_NO_ERROR;
 824              		.loc 1 582 0
 825 006a 0023     		movs	r3, #0
 826 006c FB73     		strb	r3, [r7, #15]
 827 006e 04E0     		b	.L53
 828              	.L56:
 583:.\Generated_Source\PSoC5/I2C_MASTER.c ****         }
 584:.\Generated_Source\PSoC5/I2C_MASTER.c ****         else
 585:.\Generated_Source\PSoC5/I2C_MASTER.c ****         {
 586:.\Generated_Source\PSoC5/I2C_MASTER.c ****             I2C_state = I2C_SM_MSTR_HALT;
 829              		.loc 1 586 0
 830 0070 0A4B     		ldr	r3, .L58+20
 831 0072 6022     		movs	r2, #96
 832 0074 1A70     		strb	r2, [r3]
 587:.\Generated_Source\PSoC5/I2C_MASTER.c ****             errStatus = I2C_MSTR_ERR_LB_NAK;
 833              		.loc 1 587 0
 834 0076 0323     		movs	r3, #3
 835 0078 FB73     		strb	r3, [r7, #15]
 836              	.L53:
 588:.\Generated_Source\PSoC5/I2C_MASTER.c ****         }
 589:.\Generated_Source\PSoC5/I2C_MASTER.c ****     }
ARM GAS  C:\Users\xavieran\AppData\Local\Temp\cczeGGoy.s 			page 26


 590:.\Generated_Source\PSoC5/I2C_MASTER.c **** 
 591:.\Generated_Source\PSoC5/I2C_MASTER.c ****     return(errStatus);
 837              		.loc 1 591 0
 838 007a FB7B     		ldrb	r3, [r7, #15]	@ zero_extendqisi2
 592:.\Generated_Source\PSoC5/I2C_MASTER.c **** }
 839              		.loc 1 592 0
 840 007c 1846     		mov	r0, r3
 841 007e 1437     		adds	r7, r7, #20
 842 0080 BD46     		mov	sp, r7
 843              		@ sp needed
 844 0082 5DF8047B 		ldr	r7, [sp], #4
 845 0086 7047     		bx	lr
 846              	.L59:
 847              		.align	2
 848              	.L58:
 849 0088 6B640040 		.word	1073767531
 850 008c 0B640040 		.word	1073767435
 851 0090 77640040 		.word	1073767543
 852 0094 1B640040 		.word	1073767451
 853 0098 5B640040 		.word	1073767515
 854 009c 00000000 		.word	I2C_state
 855              		.cfi_endproc
 856              	.LFE5:
 857              		.size	I2C_MasterWriteByte, .-I2C_MasterWriteByte
 858              		.section	.text.I2C_MasterReadByte,"ax",%progbits
 859              		.align	2
 860              		.global	I2C_MasterReadByte
 861              		.thumb
 862              		.thumb_func
 863              		.type	I2C_MasterReadByte, %function
 864              	I2C_MasterReadByte:
 865              	.LFB6:
 593:.\Generated_Source\PSoC5/I2C_MASTER.c **** 
 594:.\Generated_Source\PSoC5/I2C_MASTER.c **** 
 595:.\Generated_Source\PSoC5/I2C_MASTER.c **** /*******************************************************************************
 596:.\Generated_Source\PSoC5/I2C_MASTER.c **** * Function Name: I2C_MasterReadByte
 597:.\Generated_Source\PSoC5/I2C_MASTER.c **** ********************************************************************************
 598:.\Generated_Source\PSoC5/I2C_MASTER.c **** *
 599:.\Generated_Source\PSoC5/I2C_MASTER.c **** * Summary:
 600:.\Generated_Source\PSoC5/I2C_MASTER.c **** *  Reads one byte from a slave and ACK or NACK the transfer. A valid Start or
 601:.\Generated_Source\PSoC5/I2C_MASTER.c **** *  ReStart condition must be generated before this call this function. Function
 602:.\Generated_Source\PSoC5/I2C_MASTER.c **** *  do nothing if Start or Restart condition was failed before call this
 603:.\Generated_Source\PSoC5/I2C_MASTER.c **** *  function.
 604:.\Generated_Source\PSoC5/I2C_MASTER.c **** *
 605:.\Generated_Source\PSoC5/I2C_MASTER.c **** * Parameters:
 606:.\Generated_Source\PSoC5/I2C_MASTER.c **** *  acknNack:  Zero, response with NACK, if non-zero response with ACK.
 607:.\Generated_Source\PSoC5/I2C_MASTER.c **** *
 608:.\Generated_Source\PSoC5/I2C_MASTER.c **** * Return:
 609:.\Generated_Source\PSoC5/I2C_MASTER.c **** *  Byte read from slave.
 610:.\Generated_Source\PSoC5/I2C_MASTER.c **** *
 611:.\Generated_Source\PSoC5/I2C_MASTER.c **** * Side Effects:
 612:.\Generated_Source\PSoC5/I2C_MASTER.c **** *  This function is entered without a "byte complete" bit set in the I2C_CSR
 613:.\Generated_Source\PSoC5/I2C_MASTER.c **** *  register. It does not exit until it is set.
 614:.\Generated_Source\PSoC5/I2C_MASTER.c **** *
 615:.\Generated_Source\PSoC5/I2C_MASTER.c **** * Global variables:
 616:.\Generated_Source\PSoC5/I2C_MASTER.c **** *  I2C_state - The global variable used to store a current
 617:.\Generated_Source\PSoC5/I2C_MASTER.c **** *                           state of the software FSM.
ARM GAS  C:\Users\xavieran\AppData\Local\Temp\cczeGGoy.s 			page 27


 618:.\Generated_Source\PSoC5/I2C_MASTER.c **** *
 619:.\Generated_Source\PSoC5/I2C_MASTER.c **** * Reentrant:
 620:.\Generated_Source\PSoC5/I2C_MASTER.c **** *  No.
 621:.\Generated_Source\PSoC5/I2C_MASTER.c **** *
 622:.\Generated_Source\PSoC5/I2C_MASTER.c **** *******************************************************************************/
 623:.\Generated_Source\PSoC5/I2C_MASTER.c **** uint8 I2C_MasterReadByte(uint8 acknNak) 
 624:.\Generated_Source\PSoC5/I2C_MASTER.c **** {
 866              		.loc 1 624 0
 867              		.cfi_startproc
 868              		@ args = 0, pretend = 0, frame = 16
 869              		@ frame_needed = 1, uses_anonymous_args = 0
 870              		@ link register save eliminated.
 871 0000 80B4     		push	{r7}
 872              		.cfi_def_cfa_offset 4
 873              		.cfi_offset 7, -4
 874 0002 85B0     		sub	sp, sp, #20
 875              		.cfi_def_cfa_offset 24
 876 0004 00AF     		add	r7, sp, #0
 877              		.cfi_def_cfa_register 7
 878 0006 0346     		mov	r3, r0
 879 0008 FB71     		strb	r3, [r7, #7]
 625:.\Generated_Source\PSoC5/I2C_MASTER.c ****     uint8 theByte;
 626:.\Generated_Source\PSoC5/I2C_MASTER.c **** 
 627:.\Generated_Source\PSoC5/I2C_MASTER.c ****     theByte = 0u;
 880              		.loc 1 627 0
 881 000a 0023     		movs	r3, #0
 882 000c FB73     		strb	r3, [r7, #15]
 628:.\Generated_Source\PSoC5/I2C_MASTER.c **** 
 629:.\Generated_Source\PSoC5/I2C_MASTER.c ****     /* Check if START condition was generated */
 630:.\Generated_Source\PSoC5/I2C_MASTER.c ****     if(I2C_CHECK_MASTER_MODE(I2C_MCSR_REG))
 883              		.loc 1 630 0
 884 000e 234B     		ldr	r3, .L69
 885 0010 1B78     		ldrb	r3, [r3]
 886 0012 DBB2     		uxtb	r3, r3
 887 0014 03F00403 		and	r3, r3, #4
 888 0018 002B     		cmp	r3, #0
 889 001a 38D0     		beq	.L61
 631:.\Generated_Source\PSoC5/I2C_MASTER.c ****     {
 632:.\Generated_Source\PSoC5/I2C_MASTER.c ****         /* When address phase needs to release bus and receive byte,
 633:.\Generated_Source\PSoC5/I2C_MASTER.c ****         * then decide ACK or NACK
 634:.\Generated_Source\PSoC5/I2C_MASTER.c ****         */
 635:.\Generated_Source\PSoC5/I2C_MASTER.c ****         if(I2C_SM_MSTR_RD_ADDR == I2C_state)
 890              		.loc 1 635 0
 891 001c 204B     		ldr	r3, .L69+4
 892 001e 1B78     		ldrb	r3, [r3]
 893 0020 DBB2     		uxtb	r3, r3
 894 0022 492B     		cmp	r3, #73
 895 0024 12D1     		bne	.L62
 636:.\Generated_Source\PSoC5/I2C_MASTER.c ****         {
 637:.\Generated_Source\PSoC5/I2C_MASTER.c ****             I2C_READY_TO_READ_MANUAL;
 896              		.loc 1 637 0
 897 0026 1F4B     		ldr	r3, .L69+8
 898 0028 0222     		movs	r2, #2
 899 002a 1A70     		strb	r2, [r3]
 900 002c 1E4B     		ldr	r3, .L69+12
 901 002e FF22     		movs	r2, #255
 902 0030 1A70     		strb	r2, [r3]
ARM GAS  C:\Users\xavieran\AppData\Local\Temp\cczeGGoy.s 			page 28


 903 0032 1E4B     		ldr	r3, .L69+16
 904 0034 0022     		movs	r2, #0
 905 0036 1A70     		strb	r2, [r3]
 906 0038 00BF     		nop
 907              	.L63:
 908              		.loc 1 637 0 is_stmt 0 discriminator 1
 909 003a 1B4B     		ldr	r3, .L69+12
 910 003c 1B78     		ldrb	r3, [r3]
 911 003e DBB2     		uxtb	r3, r3
 912 0040 002B     		cmp	r3, #0
 913 0042 FAD1     		bne	.L63
 638:.\Generated_Source\PSoC5/I2C_MASTER.c ****             I2C_state = I2C_SM_MSTR_RD_DATA;
 914              		.loc 1 638 0 is_stmt 1
 915 0044 164B     		ldr	r3, .L69+4
 916 0046 4A22     		movs	r2, #74
 917 0048 1A70     		strb	r2, [r3]
 639:.\Generated_Source\PSoC5/I2C_MASTER.c ****         }
 640:.\Generated_Source\PSoC5/I2C_MASTER.c **** 
 641:.\Generated_Source\PSoC5/I2C_MASTER.c ****         /* Wait until data byte has been received */
 642:.\Generated_Source\PSoC5/I2C_MASTER.c ****         while(I2C_WAIT_BYTE_COMPLETE(I2C_CSR_REG))
 918              		.loc 1 642 0
 919 004a FFE7     		b	.L68
 920              	.L62:
 921              	.L68:
 922 004c 00BF     		nop
 923              	.L64:
 924              		.loc 1 642 0 is_stmt 0 discriminator 1
 925 004e 134B     		ldr	r3, .L69
 926 0050 1B78     		ldrb	r3, [r3]
 927 0052 DBB2     		uxtb	r3, r3
 928 0054 03F00103 		and	r3, r3, #1
 929 0058 002B     		cmp	r3, #0
 930 005a F8D0     		beq	.L64
 643:.\Generated_Source\PSoC5/I2C_MASTER.c ****         {
 644:.\Generated_Source\PSoC5/I2C_MASTER.c ****         }
 645:.\Generated_Source\PSoC5/I2C_MASTER.c **** 
 646:.\Generated_Source\PSoC5/I2C_MASTER.c ****         theByte = I2C_DATA_REG;
 931              		.loc 1 646 0 is_stmt 1
 932 005c 144B     		ldr	r3, .L69+20
 933 005e 1B78     		ldrb	r3, [r3]
 934 0060 FB73     		strb	r3, [r7, #15]
 647:.\Generated_Source\PSoC5/I2C_MASTER.c **** 
 648:.\Generated_Source\PSoC5/I2C_MASTER.c ****         /* Command ACK to receive next byte and continue transfer.
 649:.\Generated_Source\PSoC5/I2C_MASTER.c ****         *  Do nothing for NACK. The NACK will be generated by
 650:.\Generated_Source\PSoC5/I2C_MASTER.c ****         *  Stop or ReStart routine.
 651:.\Generated_Source\PSoC5/I2C_MASTER.c ****         */
 652:.\Generated_Source\PSoC5/I2C_MASTER.c ****         if(acknNak != 0u) /* Generate ACK */
 935              		.loc 1 652 0
 936 0062 FB79     		ldrb	r3, [r7, #7]	@ zero_extendqisi2
 937 0064 002B     		cmp	r3, #0
 938 0066 0FD0     		beq	.L65
 653:.\Generated_Source\PSoC5/I2C_MASTER.c ****         {
 654:.\Generated_Source\PSoC5/I2C_MASTER.c ****             I2C_ACK_AND_RECEIVE_MANUAL;
 939              		.loc 1 654 0
 940 0068 0E4B     		ldr	r3, .L69+8
 941 006a 0222     		movs	r2, #2
 942 006c 1A70     		strb	r2, [r3]
ARM GAS  C:\Users\xavieran\AppData\Local\Temp\cczeGGoy.s 			page 29


 943 006e 0E4B     		ldr	r3, .L69+12
 944 0070 FF22     		movs	r2, #255
 945 0072 1A70     		strb	r2, [r3]
 946 0074 0D4B     		ldr	r3, .L69+16
 947 0076 0022     		movs	r2, #0
 948 0078 1A70     		strb	r2, [r3]
 949 007a 00BF     		nop
 950              	.L66:
 951              		.loc 1 654 0 is_stmt 0 discriminator 1
 952 007c 0A4B     		ldr	r3, .L69+12
 953 007e 1B78     		ldrb	r3, [r3]
 954 0080 DBB2     		uxtb	r3, r3
 955 0082 002B     		cmp	r3, #0
 956 0084 FAD1     		bne	.L66
 957 0086 02E0     		b	.L61
 958              	.L65:
 655:.\Generated_Source\PSoC5/I2C_MASTER.c ****         }
 656:.\Generated_Source\PSoC5/I2C_MASTER.c ****         else              /* Do nothing for the follwong NACK */
 657:.\Generated_Source\PSoC5/I2C_MASTER.c ****         {
 658:.\Generated_Source\PSoC5/I2C_MASTER.c ****             I2C_state = I2C_SM_MSTR_HALT;
 959              		.loc 1 658 0 is_stmt 1
 960 0088 054B     		ldr	r3, .L69+4
 961 008a 6022     		movs	r2, #96
 962 008c 1A70     		strb	r2, [r3]
 963              	.L61:
 659:.\Generated_Source\PSoC5/I2C_MASTER.c ****         }
 660:.\Generated_Source\PSoC5/I2C_MASTER.c ****     }
 661:.\Generated_Source\PSoC5/I2C_MASTER.c **** 
 662:.\Generated_Source\PSoC5/I2C_MASTER.c ****     return(theByte);
 964              		.loc 1 662 0
 965 008e FB7B     		ldrb	r3, [r7, #15]	@ zero_extendqisi2
 663:.\Generated_Source\PSoC5/I2C_MASTER.c **** }
 966              		.loc 1 663 0
 967 0090 1846     		mov	r0, r3
 968 0092 1437     		adds	r7, r7, #20
 969 0094 BD46     		mov	sp, r7
 970              		@ sp needed
 971 0096 5DF8047B 		ldr	r7, [sp], #4
 972 009a 7047     		bx	lr
 973              	.L70:
 974              		.align	2
 975              	.L69:
 976 009c 6B640040 		.word	1073767531
 977 00a0 00000000 		.word	I2C_state
 978 00a4 77640040 		.word	1073767543
 979 00a8 1B640040 		.word	1073767451
 980 00ac 5B640040 		.word	1073767515
 981 00b0 0B640040 		.word	1073767435
 982              		.cfi_endproc
 983              	.LFE6:
 984              		.size	I2C_MasterReadByte, .-I2C_MasterReadByte
 985              		.section	.text.I2C_MasterStatus,"ax",%progbits
 986              		.align	2
 987              		.global	I2C_MasterStatus
 988              		.thumb
 989              		.thumb_func
 990              		.type	I2C_MasterStatus, %function
ARM GAS  C:\Users\xavieran\AppData\Local\Temp\cczeGGoy.s 			page 30


 991              	I2C_MasterStatus:
 992              	.LFB7:
 664:.\Generated_Source\PSoC5/I2C_MASTER.c **** 
 665:.\Generated_Source\PSoC5/I2C_MASTER.c **** 
 666:.\Generated_Source\PSoC5/I2C_MASTER.c **** /*******************************************************************************
 667:.\Generated_Source\PSoC5/I2C_MASTER.c **** * Function Name: I2C_MasterStatus
 668:.\Generated_Source\PSoC5/I2C_MASTER.c **** ********************************************************************************
 669:.\Generated_Source\PSoC5/I2C_MASTER.c **** *
 670:.\Generated_Source\PSoC5/I2C_MASTER.c **** * Summary:
 671:.\Generated_Source\PSoC5/I2C_MASTER.c **** *  Returns the master's communication status.
 672:.\Generated_Source\PSoC5/I2C_MASTER.c **** *
 673:.\Generated_Source\PSoC5/I2C_MASTER.c **** * Parameters:
 674:.\Generated_Source\PSoC5/I2C_MASTER.c **** *  None.
 675:.\Generated_Source\PSoC5/I2C_MASTER.c **** *
 676:.\Generated_Source\PSoC5/I2C_MASTER.c **** * Return:
 677:.\Generated_Source\PSoC5/I2C_MASTER.c **** *  Current status of I2C master.
 678:.\Generated_Source\PSoC5/I2C_MASTER.c **** *
 679:.\Generated_Source\PSoC5/I2C_MASTER.c **** * Global variables:
 680:.\Generated_Source\PSoC5/I2C_MASTER.c **** *  I2C_mstrStatus - The global variable used to store a current
 681:.\Generated_Source\PSoC5/I2C_MASTER.c **** *                                status of the I2C Master.
 682:.\Generated_Source\PSoC5/I2C_MASTER.c **** *
 683:.\Generated_Source\PSoC5/I2C_MASTER.c **** *******************************************************************************/
 684:.\Generated_Source\PSoC5/I2C_MASTER.c **** uint8 I2C_MasterStatus(void) 
 685:.\Generated_Source\PSoC5/I2C_MASTER.c **** {
 993              		.loc 1 685 0
 994              		.cfi_startproc
 995              		@ args = 0, pretend = 0, frame = 8
 996              		@ frame_needed = 1, uses_anonymous_args = 0
 997              		@ link register save eliminated.
 998 0000 80B4     		push	{r7}
 999              		.cfi_def_cfa_offset 4
 1000              		.cfi_offset 7, -4
 1001 0002 83B0     		sub	sp, sp, #12
 1002              		.cfi_def_cfa_offset 16
 1003 0004 00AF     		add	r7, sp, #0
 1004              		.cfi_def_cfa_register 7
 686:.\Generated_Source\PSoC5/I2C_MASTER.c ****     uint8 status;
 687:.\Generated_Source\PSoC5/I2C_MASTER.c **** 
 688:.\Generated_Source\PSoC5/I2C_MASTER.c ****     I2C_DisableInt(); /* Lock from interrupt */
 1005              		.loc 1 688 0
 1006 0006 0E4B     		ldr	r3, .L74
 1007 0008 0422     		movs	r2, #4
 1008 000a 1A60     		str	r2, [r3]
 689:.\Generated_Source\PSoC5/I2C_MASTER.c **** 
 690:.\Generated_Source\PSoC5/I2C_MASTER.c ****     /* Read master status */
 691:.\Generated_Source\PSoC5/I2C_MASTER.c ****     status = I2C_mstrStatus;
 1009              		.loc 1 691 0
 1010 000c 0D4B     		ldr	r3, .L74+4
 1011 000e 1B78     		ldrb	r3, [r3]
 1012 0010 FB71     		strb	r3, [r7, #7]
 692:.\Generated_Source\PSoC5/I2C_MASTER.c **** 
 693:.\Generated_Source\PSoC5/I2C_MASTER.c ****     if (I2C_CHECK_SM_MASTER)
 1013              		.loc 1 693 0
 1014 0012 0D4B     		ldr	r3, .L74+8
 1015 0014 1B78     		ldrb	r3, [r3]
 1016 0016 DBB2     		uxtb	r3, r3
 1017 0018 03F04003 		and	r3, r3, #64
ARM GAS  C:\Users\xavieran\AppData\Local\Temp\cczeGGoy.s 			page 31


 1018 001c DBB2     		uxtb	r3, r3
 1019 001e 002B     		cmp	r3, #0
 1020 0020 03D0     		beq	.L72
 694:.\Generated_Source\PSoC5/I2C_MASTER.c ****     {
 695:.\Generated_Source\PSoC5/I2C_MASTER.c ****         /* Set transfer in progress flag in status */
 696:.\Generated_Source\PSoC5/I2C_MASTER.c ****         status |= I2C_MSTAT_XFER_INP;
 1021              		.loc 1 696 0
 1022 0022 FB79     		ldrb	r3, [r7, #7]
 1023 0024 43F00403 		orr	r3, r3, #4
 1024 0028 FB71     		strb	r3, [r7, #7]
 1025              	.L72:
 697:.\Generated_Source\PSoC5/I2C_MASTER.c ****     }
 698:.\Generated_Source\PSoC5/I2C_MASTER.c **** 
 699:.\Generated_Source\PSoC5/I2C_MASTER.c ****     I2C_EnableInt(); /* Release lock */
 1026              		.loc 1 699 0
 1027 002a 084B     		ldr	r3, .L74+12
 1028 002c 0422     		movs	r2, #4
 1029 002e 1A60     		str	r2, [r3]
 700:.\Generated_Source\PSoC5/I2C_MASTER.c **** 
 701:.\Generated_Source\PSoC5/I2C_MASTER.c ****     return (status);
 1030              		.loc 1 701 0
 1031 0030 FB79     		ldrb	r3, [r7, #7]	@ zero_extendqisi2
 702:.\Generated_Source\PSoC5/I2C_MASTER.c **** }
 1032              		.loc 1 702 0
 1033 0032 1846     		mov	r0, r3
 1034 0034 0C37     		adds	r7, r7, #12
 1035 0036 BD46     		mov	sp, r7
 1036              		@ sp needed
 1037 0038 5DF8047B 		ldr	r7, [sp], #4
 1038 003c 7047     		bx	lr
 1039              	.L75:
 1040 003e 00BF     		.align	2
 1041              	.L74:
 1042 0040 80E100E0 		.word	-536813184
 1043 0044 00000000 		.word	I2C_mstrStatus
 1044 0048 00000000 		.word	I2C_state
 1045 004c 00E100E0 		.word	-536813312
 1046              		.cfi_endproc
 1047              	.LFE7:
 1048              		.size	I2C_MasterStatus, .-I2C_MasterStatus
 1049              		.section	.text.I2C_MasterClearStatus,"ax",%progbits
 1050              		.align	2
 1051              		.global	I2C_MasterClearStatus
 1052              		.thumb
 1053              		.thumb_func
 1054              		.type	I2C_MasterClearStatus, %function
 1055              	I2C_MasterClearStatus:
 1056              	.LFB8:
 703:.\Generated_Source\PSoC5/I2C_MASTER.c **** 
 704:.\Generated_Source\PSoC5/I2C_MASTER.c **** 
 705:.\Generated_Source\PSoC5/I2C_MASTER.c **** /*******************************************************************************
 706:.\Generated_Source\PSoC5/I2C_MASTER.c **** * Function Name: I2C_MasterClearStatus
 707:.\Generated_Source\PSoC5/I2C_MASTER.c **** ********************************************************************************
 708:.\Generated_Source\PSoC5/I2C_MASTER.c **** *
 709:.\Generated_Source\PSoC5/I2C_MASTER.c **** * Summary:
 710:.\Generated_Source\PSoC5/I2C_MASTER.c **** *  Clears all status flags and returns the master status.
 711:.\Generated_Source\PSoC5/I2C_MASTER.c **** *
ARM GAS  C:\Users\xavieran\AppData\Local\Temp\cczeGGoy.s 			page 32


 712:.\Generated_Source\PSoC5/I2C_MASTER.c **** * Parameters:
 713:.\Generated_Source\PSoC5/I2C_MASTER.c **** *  None.
 714:.\Generated_Source\PSoC5/I2C_MASTER.c **** *
 715:.\Generated_Source\PSoC5/I2C_MASTER.c **** * Return:
 716:.\Generated_Source\PSoC5/I2C_MASTER.c **** *  Current status of I2C master.
 717:.\Generated_Source\PSoC5/I2C_MASTER.c **** *
 718:.\Generated_Source\PSoC5/I2C_MASTER.c **** * Global variables:
 719:.\Generated_Source\PSoC5/I2C_MASTER.c **** *  I2C_mstrStatus - The global variable used to store a current
 720:.\Generated_Source\PSoC5/I2C_MASTER.c **** *                                status of the I2C Master.
 721:.\Generated_Source\PSoC5/I2C_MASTER.c **** *
 722:.\Generated_Source\PSoC5/I2C_MASTER.c **** * Reentrant:
 723:.\Generated_Source\PSoC5/I2C_MASTER.c **** *  No.
 724:.\Generated_Source\PSoC5/I2C_MASTER.c **** *
 725:.\Generated_Source\PSoC5/I2C_MASTER.c **** *******************************************************************************/
 726:.\Generated_Source\PSoC5/I2C_MASTER.c **** uint8 I2C_MasterClearStatus(void) 
 727:.\Generated_Source\PSoC5/I2C_MASTER.c **** {
 1057              		.loc 1 727 0
 1058              		.cfi_startproc
 1059              		@ args = 0, pretend = 0, frame = 8
 1060              		@ frame_needed = 1, uses_anonymous_args = 0
 1061              		@ link register save eliminated.
 1062 0000 80B4     		push	{r7}
 1063              		.cfi_def_cfa_offset 4
 1064              		.cfi_offset 7, -4
 1065 0002 83B0     		sub	sp, sp, #12
 1066              		.cfi_def_cfa_offset 16
 1067 0004 00AF     		add	r7, sp, #0
 1068              		.cfi_def_cfa_register 7
 728:.\Generated_Source\PSoC5/I2C_MASTER.c ****     uint8 status;
 729:.\Generated_Source\PSoC5/I2C_MASTER.c **** 
 730:.\Generated_Source\PSoC5/I2C_MASTER.c ****     I2C_DisableInt(); /* Lock from interrupt */
 1069              		.loc 1 730 0
 1070 0006 094B     		ldr	r3, .L78
 1071 0008 0422     		movs	r2, #4
 1072 000a 1A60     		str	r2, [r3]
 731:.\Generated_Source\PSoC5/I2C_MASTER.c **** 
 732:.\Generated_Source\PSoC5/I2C_MASTER.c ****     /* Read and clear master status */
 733:.\Generated_Source\PSoC5/I2C_MASTER.c ****     status = I2C_mstrStatus;
 1073              		.loc 1 733 0
 1074 000c 084B     		ldr	r3, .L78+4
 1075 000e 1B78     		ldrb	r3, [r3]
 1076 0010 FB71     		strb	r3, [r7, #7]
 734:.\Generated_Source\PSoC5/I2C_MASTER.c ****     I2C_mstrStatus = I2C_MSTAT_CLEAR;
 1077              		.loc 1 734 0
 1078 0012 074B     		ldr	r3, .L78+4
 1079 0014 0022     		movs	r2, #0
 1080 0016 1A70     		strb	r2, [r3]
 735:.\Generated_Source\PSoC5/I2C_MASTER.c **** 
 736:.\Generated_Source\PSoC5/I2C_MASTER.c ****     I2C_EnableInt(); /* Release lock */
 1081              		.loc 1 736 0
 1082 0018 064B     		ldr	r3, .L78+8
 1083 001a 0422     		movs	r2, #4
 1084 001c 1A60     		str	r2, [r3]
 737:.\Generated_Source\PSoC5/I2C_MASTER.c **** 
 738:.\Generated_Source\PSoC5/I2C_MASTER.c ****     return (status);
 1085              		.loc 1 738 0
 1086 001e FB79     		ldrb	r3, [r7, #7]	@ zero_extendqisi2
ARM GAS  C:\Users\xavieran\AppData\Local\Temp\cczeGGoy.s 			page 33


 739:.\Generated_Source\PSoC5/I2C_MASTER.c **** }
 1087              		.loc 1 739 0
 1088 0020 1846     		mov	r0, r3
 1089 0022 0C37     		adds	r7, r7, #12
 1090 0024 BD46     		mov	sp, r7
 1091              		@ sp needed
 1092 0026 5DF8047B 		ldr	r7, [sp], #4
 1093 002a 7047     		bx	lr
 1094              	.L79:
 1095              		.align	2
 1096              	.L78:
 1097 002c 80E100E0 		.word	-536813184
 1098 0030 00000000 		.word	I2C_mstrStatus
 1099 0034 00E100E0 		.word	-536813312
 1100              		.cfi_endproc
 1101              	.LFE8:
 1102              		.size	I2C_MasterClearStatus, .-I2C_MasterClearStatus
 1103              		.section	.text.I2C_MasterGetReadBufSize,"ax",%progbits
 1104              		.align	2
 1105              		.global	I2C_MasterGetReadBufSize
 1106              		.thumb
 1107              		.thumb_func
 1108              		.type	I2C_MasterGetReadBufSize, %function
 1109              	I2C_MasterGetReadBufSize:
 1110              	.LFB9:
 740:.\Generated_Source\PSoC5/I2C_MASTER.c **** 
 741:.\Generated_Source\PSoC5/I2C_MASTER.c **** 
 742:.\Generated_Source\PSoC5/I2C_MASTER.c **** /*******************************************************************************
 743:.\Generated_Source\PSoC5/I2C_MASTER.c **** * Function Name: I2C_MasterGetReadBufSize
 744:.\Generated_Source\PSoC5/I2C_MASTER.c **** ********************************************************************************
 745:.\Generated_Source\PSoC5/I2C_MASTER.c **** *
 746:.\Generated_Source\PSoC5/I2C_MASTER.c **** * Summary:
 747:.\Generated_Source\PSoC5/I2C_MASTER.c **** *  Returns the amount of bytes that has been transferred with an
 748:.\Generated_Source\PSoC5/I2C_MASTER.c **** *  I2C_MasterReadBuf command.
 749:.\Generated_Source\PSoC5/I2C_MASTER.c **** *
 750:.\Generated_Source\PSoC5/I2C_MASTER.c **** * Parameters:
 751:.\Generated_Source\PSoC5/I2C_MASTER.c **** *  None.
 752:.\Generated_Source\PSoC5/I2C_MASTER.c **** *
 753:.\Generated_Source\PSoC5/I2C_MASTER.c **** * Return:
 754:.\Generated_Source\PSoC5/I2C_MASTER.c **** *  Byte count of transfer. If the transfer is not yet complete, it will return
 755:.\Generated_Source\PSoC5/I2C_MASTER.c **** *  the byte count transferred so far.
 756:.\Generated_Source\PSoC5/I2C_MASTER.c **** *
 757:.\Generated_Source\PSoC5/I2C_MASTER.c **** * Global variables:
 758:.\Generated_Source\PSoC5/I2C_MASTER.c **** *  I2C_mstrRdBufIndex - The global variable stores current index
 759:.\Generated_Source\PSoC5/I2C_MASTER.c **** *                                    within the master read buffer.
 760:.\Generated_Source\PSoC5/I2C_MASTER.c **** *
 761:.\Generated_Source\PSoC5/I2C_MASTER.c **** *******************************************************************************/
 762:.\Generated_Source\PSoC5/I2C_MASTER.c **** uint8 I2C_MasterGetReadBufSize(void) 
 763:.\Generated_Source\PSoC5/I2C_MASTER.c **** {
 1111              		.loc 1 763 0
 1112              		.cfi_startproc
 1113              		@ args = 0, pretend = 0, frame = 0
 1114              		@ frame_needed = 1, uses_anonymous_args = 0
 1115              		@ link register save eliminated.
 1116 0000 80B4     		push	{r7}
 1117              		.cfi_def_cfa_offset 4
 1118              		.cfi_offset 7, -4
ARM GAS  C:\Users\xavieran\AppData\Local\Temp\cczeGGoy.s 			page 34


 1119 0002 00AF     		add	r7, sp, #0
 1120              		.cfi_def_cfa_register 7
 764:.\Generated_Source\PSoC5/I2C_MASTER.c ****     return (I2C_mstrRdBufIndex);
 1121              		.loc 1 764 0
 1122 0004 034B     		ldr	r3, .L82
 1123 0006 1B78     		ldrb	r3, [r3]
 1124 0008 DBB2     		uxtb	r3, r3
 765:.\Generated_Source\PSoC5/I2C_MASTER.c **** }
 1125              		.loc 1 765 0
 1126 000a 1846     		mov	r0, r3
 1127 000c BD46     		mov	sp, r7
 1128              		@ sp needed
 1129 000e 5DF8047B 		ldr	r7, [sp], #4
 1130 0012 7047     		bx	lr
 1131              	.L83:
 1132              		.align	2
 1133              	.L82:
 1134 0014 00000000 		.word	I2C_mstrRdBufIndex
 1135              		.cfi_endproc
 1136              	.LFE9:
 1137              		.size	I2C_MasterGetReadBufSize, .-I2C_MasterGetReadBufSize
 1138              		.section	.text.I2C_MasterGetWriteBufSize,"ax",%progbits
 1139              		.align	2
 1140              		.global	I2C_MasterGetWriteBufSize
 1141              		.thumb
 1142              		.thumb_func
 1143              		.type	I2C_MasterGetWriteBufSize, %function
 1144              	I2C_MasterGetWriteBufSize:
 1145              	.LFB10:
 766:.\Generated_Source\PSoC5/I2C_MASTER.c **** 
 767:.\Generated_Source\PSoC5/I2C_MASTER.c **** 
 768:.\Generated_Source\PSoC5/I2C_MASTER.c **** /*******************************************************************************
 769:.\Generated_Source\PSoC5/I2C_MASTER.c **** * Function Name: I2C_MasterGetWriteBufSize
 770:.\Generated_Source\PSoC5/I2C_MASTER.c **** ********************************************************************************
 771:.\Generated_Source\PSoC5/I2C_MASTER.c **** *
 772:.\Generated_Source\PSoC5/I2C_MASTER.c **** * Summary:
 773:.\Generated_Source\PSoC5/I2C_MASTER.c **** *  Returns the amount of bytes that has been transferred with an
 774:.\Generated_Source\PSoC5/I2C_MASTER.c **** *  I2C_MasterWriteBuf command.
 775:.\Generated_Source\PSoC5/I2C_MASTER.c **** *
 776:.\Generated_Source\PSoC5/I2C_MASTER.c **** * Parameters:
 777:.\Generated_Source\PSoC5/I2C_MASTER.c **** *  None.
 778:.\Generated_Source\PSoC5/I2C_MASTER.c **** *
 779:.\Generated_Source\PSoC5/I2C_MASTER.c **** * Return:
 780:.\Generated_Source\PSoC5/I2C_MASTER.c **** *  Byte count of transfer. If the transfer is not yet complete, it will return
 781:.\Generated_Source\PSoC5/I2C_MASTER.c **** *  the byte count transferred so far.
 782:.\Generated_Source\PSoC5/I2C_MASTER.c **** *
 783:.\Generated_Source\PSoC5/I2C_MASTER.c **** * Global variables:
 784:.\Generated_Source\PSoC5/I2C_MASTER.c **** *  I2C_mstrWrBufIndex -  The global variable used to stores current
 785:.\Generated_Source\PSoC5/I2C_MASTER.c **** *                                     index within master write buffer.
 786:.\Generated_Source\PSoC5/I2C_MASTER.c **** *
 787:.\Generated_Source\PSoC5/I2C_MASTER.c **** *******************************************************************************/
 788:.\Generated_Source\PSoC5/I2C_MASTER.c **** uint8 I2C_MasterGetWriteBufSize(void) 
 789:.\Generated_Source\PSoC5/I2C_MASTER.c **** {
 1146              		.loc 1 789 0
 1147              		.cfi_startproc
 1148              		@ args = 0, pretend = 0, frame = 0
 1149              		@ frame_needed = 1, uses_anonymous_args = 0
ARM GAS  C:\Users\xavieran\AppData\Local\Temp\cczeGGoy.s 			page 35


 1150              		@ link register save eliminated.
 1151 0000 80B4     		push	{r7}
 1152              		.cfi_def_cfa_offset 4
 1153              		.cfi_offset 7, -4
 1154 0002 00AF     		add	r7, sp, #0
 1155              		.cfi_def_cfa_register 7
 790:.\Generated_Source\PSoC5/I2C_MASTER.c ****     return (I2C_mstrWrBufIndex);
 1156              		.loc 1 790 0
 1157 0004 034B     		ldr	r3, .L86
 1158 0006 1B78     		ldrb	r3, [r3]
 1159 0008 DBB2     		uxtb	r3, r3
 791:.\Generated_Source\PSoC5/I2C_MASTER.c **** }
 1160              		.loc 1 791 0
 1161 000a 1846     		mov	r0, r3
 1162 000c BD46     		mov	sp, r7
 1163              		@ sp needed
 1164 000e 5DF8047B 		ldr	r7, [sp], #4
 1165 0012 7047     		bx	lr
 1166              	.L87:
 1167              		.align	2
 1168              	.L86:
 1169 0014 00000000 		.word	I2C_mstrWrBufIndex
 1170              		.cfi_endproc
 1171              	.LFE10:
 1172              		.size	I2C_MasterGetWriteBufSize, .-I2C_MasterGetWriteBufSize
 1173              		.section	.text.I2C_MasterClearReadBuf,"ax",%progbits
 1174              		.align	2
 1175              		.global	I2C_MasterClearReadBuf
 1176              		.thumb
 1177              		.thumb_func
 1178              		.type	I2C_MasterClearReadBuf, %function
 1179              	I2C_MasterClearReadBuf:
 1180              	.LFB11:
 792:.\Generated_Source\PSoC5/I2C_MASTER.c **** 
 793:.\Generated_Source\PSoC5/I2C_MASTER.c **** 
 794:.\Generated_Source\PSoC5/I2C_MASTER.c **** /*******************************************************************************
 795:.\Generated_Source\PSoC5/I2C_MASTER.c **** * Function Name: I2C_MasterClearReadBuf
 796:.\Generated_Source\PSoC5/I2C_MASTER.c **** ********************************************************************************
 797:.\Generated_Source\PSoC5/I2C_MASTER.c **** *
 798:.\Generated_Source\PSoC5/I2C_MASTER.c **** * Summary:
 799:.\Generated_Source\PSoC5/I2C_MASTER.c **** *  Resets the read buffer pointer back to the first byte in the buffer.
 800:.\Generated_Source\PSoC5/I2C_MASTER.c **** *
 801:.\Generated_Source\PSoC5/I2C_MASTER.c **** * Parameters:
 802:.\Generated_Source\PSoC5/I2C_MASTER.c **** *  None.
 803:.\Generated_Source\PSoC5/I2C_MASTER.c **** *
 804:.\Generated_Source\PSoC5/I2C_MASTER.c **** * Return:
 805:.\Generated_Source\PSoC5/I2C_MASTER.c **** *  None.
 806:.\Generated_Source\PSoC5/I2C_MASTER.c **** *
 807:.\Generated_Source\PSoC5/I2C_MASTER.c **** * Global variables:
 808:.\Generated_Source\PSoC5/I2C_MASTER.c **** *  I2C_mstrRdBufIndex - The global variable used to stores current
 809:.\Generated_Source\PSoC5/I2C_MASTER.c **** *                                    index within master read buffer.
 810:.\Generated_Source\PSoC5/I2C_MASTER.c **** *  I2C_mstrStatus - The global variable used to store a current
 811:.\Generated_Source\PSoC5/I2C_MASTER.c **** *                                status of the I2C Master.
 812:.\Generated_Source\PSoC5/I2C_MASTER.c **** *
 813:.\Generated_Source\PSoC5/I2C_MASTER.c **** * Reentrant:
 814:.\Generated_Source\PSoC5/I2C_MASTER.c **** *  No.
 815:.\Generated_Source\PSoC5/I2C_MASTER.c **** *
ARM GAS  C:\Users\xavieran\AppData\Local\Temp\cczeGGoy.s 			page 36


 816:.\Generated_Source\PSoC5/I2C_MASTER.c **** *******************************************************************************/
 817:.\Generated_Source\PSoC5/I2C_MASTER.c **** void I2C_MasterClearReadBuf(void) 
 818:.\Generated_Source\PSoC5/I2C_MASTER.c **** {
 1181              		.loc 1 818 0
 1182              		.cfi_startproc
 1183              		@ args = 0, pretend = 0, frame = 0
 1184              		@ frame_needed = 1, uses_anonymous_args = 0
 1185              		@ link register save eliminated.
 1186 0000 80B4     		push	{r7}
 1187              		.cfi_def_cfa_offset 4
 1188              		.cfi_offset 7, -4
 1189 0002 00AF     		add	r7, sp, #0
 1190              		.cfi_def_cfa_register 7
 819:.\Generated_Source\PSoC5/I2C_MASTER.c ****     I2C_DisableInt(); /* Lock from interrupt */
 1191              		.loc 1 819 0
 1192 0004 0A4B     		ldr	r3, .L89
 1193 0006 0422     		movs	r2, #4
 1194 0008 1A60     		str	r2, [r3]
 820:.\Generated_Source\PSoC5/I2C_MASTER.c **** 
 821:.\Generated_Source\PSoC5/I2C_MASTER.c ****     I2C_mstrRdBufIndex = 0u;
 1195              		.loc 1 821 0
 1196 000a 0A4B     		ldr	r3, .L89+4
 1197 000c 0022     		movs	r2, #0
 1198 000e 1A70     		strb	r2, [r3]
 822:.\Generated_Source\PSoC5/I2C_MASTER.c ****     I2C_mstrStatus    &= (uint8) ~I2C_MSTAT_RD_CMPLT;
 1199              		.loc 1 822 0
 1200 0010 094B     		ldr	r3, .L89+8
 1201 0012 1B78     		ldrb	r3, [r3]
 1202 0014 DBB2     		uxtb	r3, r3
 1203 0016 23F00103 		bic	r3, r3, #1
 1204 001a DAB2     		uxtb	r2, r3
 1205 001c 064B     		ldr	r3, .L89+8
 1206 001e 1A70     		strb	r2, [r3]
 823:.\Generated_Source\PSoC5/I2C_MASTER.c **** 
 824:.\Generated_Source\PSoC5/I2C_MASTER.c ****     I2C_EnableInt(); /* Release lock */
 1207              		.loc 1 824 0
 1208 0020 064B     		ldr	r3, .L89+12
 1209 0022 0422     		movs	r2, #4
 1210 0024 1A60     		str	r2, [r3]
 825:.\Generated_Source\PSoC5/I2C_MASTER.c **** }
 1211              		.loc 1 825 0
 1212 0026 BD46     		mov	sp, r7
 1213              		@ sp needed
 1214 0028 5DF8047B 		ldr	r7, [sp], #4
 1215 002c 7047     		bx	lr
 1216              	.L90:
 1217 002e 00BF     		.align	2
 1218              	.L89:
 1219 0030 80E100E0 		.word	-536813184
 1220 0034 00000000 		.word	I2C_mstrRdBufIndex
 1221 0038 00000000 		.word	I2C_mstrStatus
 1222 003c 00E100E0 		.word	-536813312
 1223              		.cfi_endproc
 1224              	.LFE11:
 1225              		.size	I2C_MasterClearReadBuf, .-I2C_MasterClearReadBuf
 1226              		.section	.text.I2C_MasterClearWriteBuf,"ax",%progbits
 1227              		.align	2
ARM GAS  C:\Users\xavieran\AppData\Local\Temp\cczeGGoy.s 			page 37


 1228              		.global	I2C_MasterClearWriteBuf
 1229              		.thumb
 1230              		.thumb_func
 1231              		.type	I2C_MasterClearWriteBuf, %function
 1232              	I2C_MasterClearWriteBuf:
 1233              	.LFB12:
 826:.\Generated_Source\PSoC5/I2C_MASTER.c **** 
 827:.\Generated_Source\PSoC5/I2C_MASTER.c **** 
 828:.\Generated_Source\PSoC5/I2C_MASTER.c **** /*******************************************************************************
 829:.\Generated_Source\PSoC5/I2C_MASTER.c **** * Function Name: I2C_MasterClearWriteBuf
 830:.\Generated_Source\PSoC5/I2C_MASTER.c **** ********************************************************************************
 831:.\Generated_Source\PSoC5/I2C_MASTER.c **** *
 832:.\Generated_Source\PSoC5/I2C_MASTER.c **** * Summary:
 833:.\Generated_Source\PSoC5/I2C_MASTER.c **** *  Resets the write buffer pointer back to the first byte in the buffer.
 834:.\Generated_Source\PSoC5/I2C_MASTER.c **** *
 835:.\Generated_Source\PSoC5/I2C_MASTER.c **** * Parameters:
 836:.\Generated_Source\PSoC5/I2C_MASTER.c **** *  None.
 837:.\Generated_Source\PSoC5/I2C_MASTER.c **** *
 838:.\Generated_Source\PSoC5/I2C_MASTER.c **** * Return:
 839:.\Generated_Source\PSoC5/I2C_MASTER.c **** *  None.
 840:.\Generated_Source\PSoC5/I2C_MASTER.c **** *
 841:.\Generated_Source\PSoC5/I2C_MASTER.c **** * Global variables:
 842:.\Generated_Source\PSoC5/I2C_MASTER.c **** *  I2C_mstrRdBufIndex - The global variable used to stote current
 843:.\Generated_Source\PSoC5/I2C_MASTER.c **** *                                    index within master read buffer.
 844:.\Generated_Source\PSoC5/I2C_MASTER.c **** *  I2C_mstrStatus - The global variable used to store a current
 845:.\Generated_Source\PSoC5/I2C_MASTER.c **** *                                status of the I2C Master.
 846:.\Generated_Source\PSoC5/I2C_MASTER.c **** *
 847:.\Generated_Source\PSoC5/I2C_MASTER.c **** * Reentrant:
 848:.\Generated_Source\PSoC5/I2C_MASTER.c **** *  No.
 849:.\Generated_Source\PSoC5/I2C_MASTER.c **** *
 850:.\Generated_Source\PSoC5/I2C_MASTER.c **** *******************************************************************************/
 851:.\Generated_Source\PSoC5/I2C_MASTER.c **** void I2C_MasterClearWriteBuf(void) 
 852:.\Generated_Source\PSoC5/I2C_MASTER.c **** {
 1234              		.loc 1 852 0
 1235              		.cfi_startproc
 1236              		@ args = 0, pretend = 0, frame = 0
 1237              		@ frame_needed = 1, uses_anonymous_args = 0
 1238              		@ link register save eliminated.
 1239 0000 80B4     		push	{r7}
 1240              		.cfi_def_cfa_offset 4
 1241              		.cfi_offset 7, -4
 1242 0002 00AF     		add	r7, sp, #0
 1243              		.cfi_def_cfa_register 7
 853:.\Generated_Source\PSoC5/I2C_MASTER.c ****     I2C_DisableInt(); /* Lock from interrupt */
 1244              		.loc 1 853 0
 1245 0004 0A4B     		ldr	r3, .L92
 1246 0006 0422     		movs	r2, #4
 1247 0008 1A60     		str	r2, [r3]
 854:.\Generated_Source\PSoC5/I2C_MASTER.c **** 
 855:.\Generated_Source\PSoC5/I2C_MASTER.c ****     I2C_mstrWrBufIndex = 0u;
 1248              		.loc 1 855 0
 1249 000a 0A4B     		ldr	r3, .L92+4
 1250 000c 0022     		movs	r2, #0
 1251 000e 1A70     		strb	r2, [r3]
 856:.\Generated_Source\PSoC5/I2C_MASTER.c ****     I2C_mstrStatus    &= (uint8) ~I2C_MSTAT_WR_CMPLT;
 1252              		.loc 1 856 0
 1253 0010 094B     		ldr	r3, .L92+8
ARM GAS  C:\Users\xavieran\AppData\Local\Temp\cczeGGoy.s 			page 38


 1254 0012 1B78     		ldrb	r3, [r3]
 1255 0014 DBB2     		uxtb	r3, r3
 1256 0016 23F00203 		bic	r3, r3, #2
 1257 001a DAB2     		uxtb	r2, r3
 1258 001c 064B     		ldr	r3, .L92+8
 1259 001e 1A70     		strb	r2, [r3]
 857:.\Generated_Source\PSoC5/I2C_MASTER.c **** 
 858:.\Generated_Source\PSoC5/I2C_MASTER.c ****     I2C_EnableInt(); /* Release lock */
 1260              		.loc 1 858 0
 1261 0020 064B     		ldr	r3, .L92+12
 1262 0022 0422     		movs	r2, #4
 1263 0024 1A60     		str	r2, [r3]
 859:.\Generated_Source\PSoC5/I2C_MASTER.c **** }
 1264              		.loc 1 859 0
 1265 0026 BD46     		mov	sp, r7
 1266              		@ sp needed
 1267 0028 5DF8047B 		ldr	r7, [sp], #4
 1268 002c 7047     		bx	lr
 1269              	.L93:
 1270 002e 00BF     		.align	2
 1271              	.L92:
 1272 0030 80E100E0 		.word	-536813184
 1273 0034 00000000 		.word	I2C_mstrWrBufIndex
 1274 0038 00000000 		.word	I2C_mstrStatus
 1275 003c 00E100E0 		.word	-536813312
 1276              		.cfi_endproc
 1277              	.LFE12:
 1278              		.size	I2C_MasterClearWriteBuf, .-I2C_MasterClearWriteBuf
 1279              		.text
 1280              	.Letext0:
 1281              		.file 2 ".\\Generated_Source\\PSoC5\\cytypes.h"
 1282              		.file 3 ".\\Generated_Source\\PSoC5\\I2C_PVT.h"