ARM GAS  C:\Users\xavieran\AppData\Local\Temp\ccRA778j.s 			page 1


   1              		.syntax unified
   2              		.cpu cortex-m3
   3              		.fpu softvfp
   4              		.eabi_attribute 20, 1
   5              		.eabi_attribute 21, 1
   6              		.eabi_attribute 23, 3
   7              		.eabi_attribute 24, 1
   8              		.eabi_attribute 25, 1
   9              		.eabi_attribute 26, 1
  10              		.eabi_attribute 30, 6
  11              		.eabi_attribute 34, 1
  12              		.eabi_attribute 18, 4
  13              		.thumb
  14              		.file	"my_camera_functions.c"
  15              		.text
  16              	.Ltext0:
  17              		.cfi_sections	.debug_frame
  18              		.comm	Camera_framebuffer,50688,4
  19              		.comm	stack,16,4
  20              		.comm	s,16,4
  21              		.global	RED_U
  22              		.data
  23              		.type	RED_U, %object
  24              		.size	RED_U, 1
  25              	RED_U:
  26 0000 7E       		.byte	126
  27              		.global	RED_V
  28              		.type	RED_V, %object
  29              		.size	RED_V, 1
  30              	RED_V:
  31 0001 98       		.byte	-104
  32              		.global	GREEN_U
  33              		.type	GREEN_U, %object
  34              		.size	GREEN_U, 1
  35              	GREEN_U:
  36 0002 78       		.byte	120
  37              		.global	GREEN_V
  38              		.type	GREEN_V, %object
  39              		.size	GREEN_V, 1
  40              	GREEN_V:
  41 0003 78       		.byte	120
  42              		.global	BLUE_U
  43              		.type	BLUE_U, %object
  44              		.size	BLUE_U, 1
  45              	BLUE_U:
  46 0004 81       		.byte	-127
  47              		.global	BLUE_V
  48              		.type	BLUE_V, %object
  49              		.size	BLUE_V, 1
  50              	BLUE_V:
  51 0005 7B       		.byte	123
  52              		.global	GAIN
  53              		.type	GAIN, %object
  54              		.size	GAIN, 1
  55              	GAIN:
  56 0006 22       		.byte	34
  57              		.global	B_GAIN
ARM GAS  C:\Users\xavieran\AppData\Local\Temp\ccRA778j.s 			page 2


  58              		.type	B_GAIN, %object
  59              		.size	B_GAIN, 1
  60              	B_GAIN:
  61 0007 8B       		.byte	-117
  62              		.global	R_GAIN
  63              		.type	R_GAIN, %object
  64              		.size	R_GAIN, 1
  65              	R_GAIN:
  66 0008 8B       		.byte	-117
  67              		.global	EXPOSURE
  68              		.type	EXPOSURE, %object
  69              		.size	EXPOSURE, 1
  70              	EXPOSURE:
  71 0009 3C       		.byte	60
  72              		.global	connected
  73 000a 0000     		.align	2
  74              		.type	connected, %object
  75              		.size	connected, 4
  76              	connected:
  77 000c 04000000 		.word	4
  78              		.section	.rodata
  79              		.align	2
  80              	.LC1:
  81 0000 43616D65 		.ascii	"Camera Actualy\000"
  81      72612041 
  81      63747561 
  81      6C7900
  82 000f 00       		.align	2
  83              	.LC2:
  84 0010 4672616D 		.ascii	"Frame Sync Done\000"
  84      65205379 
  84      6E632044 
  84      6F6E6500 
  85              		.align	2
  86              	.LC3:
  87 0020 47657474 		.ascii	"Getting Frame!!\000"
  87      696E6720 
  87      4672616D 
  87      65212100 
  88              		.align	2
  89              	.LC4:
  90 0030 496E6974 		.ascii	"Init Camera Done\000"
  90      2043616D 
  90      65726120 
  90      446F6E65 
  90      00
  91              		.section	.text.init_camera,"ax",%progbits
  92              		.align	2
  93              		.global	init_camera
  94              		.thumb
  95              		.thumb_func
  96              		.type	init_camera, %function
  97              	init_camera:
  98              	.LFB63:
  99              		.file 1 ".\\my_camera_functions.c"
   1:.\my_camera_functions.c **** 
   2:.\my_camera_functions.c **** /* ========================================
ARM GAS  C:\Users\xavieran\AppData\Local\Temp\ccRA778j.s 			page 3


   3:.\my_camera_functions.c ****  *
   4:.\my_camera_functions.c ****  * Copyright YOUR COMPANY, THE YEAR
   5:.\my_camera_functions.c ****  * All Rights Reserved
   6:.\my_camera_functions.c ****  * UNPUBLISHED, LICENSED SOFTWARE.
   7:.\my_camera_functions.c ****  *
   8:.\my_camera_functions.c ****  * CONFIDENTIAL AND PROPRIETARY INFORMATION
   9:.\my_camera_functions.c ****  * WHICH IS THE PROPERTY OF your company.
  10:.\my_camera_functions.c ****  *
  11:.\my_camera_functions.c ****  * ========================================
  12:.\my_camera_functions.c **** */
  13:.\my_camera_functions.c **** #include <project.h>
  14:.\my_camera_functions.c **** #include <my_camera_functions.h>
  15:.\my_camera_functions.c **** #include <blob_stats.h>
  16:.\my_camera_functions.c **** #include <arm.h>
  17:.\my_camera_functions.c **** #include <stdio.h>
  18:.\my_camera_functions.c **** 
  19:.\my_camera_functions.c **** uint8 RED_U= 126;//116;
  20:.\my_camera_functions.c **** uint8 RED_V= 152;//140;//162;
  21:.\my_camera_functions.c **** uint8 GREEN_U= 120;//128;
  22:.\my_camera_functions.c **** uint8 GREEN_V= 120;//102;
  23:.\my_camera_functions.c **** uint8 BLUE_U= 129;//138;//162;
  24:.\my_camera_functions.c **** uint8 BLUE_V= 123;//124;//116;
  25:.\my_camera_functions.c **** uint8 GAIN = 34;
  26:.\my_camera_functions.c **** uint8 B_GAIN = 139;
  27:.\my_camera_functions.c **** uint8 R_GAIN = 139;
  28:.\my_camera_functions.c **** uint8 EXPOSURE = 60;
  29:.\my_camera_functions.c **** 
  30:.\my_camera_functions.c **** extern blob *blobs;
  31:.\my_camera_functions.c **** int connected = 4;
  32:.\my_camera_functions.c **** 
  33:.\my_camera_functions.c **** void init_camera()
  34:.\my_camera_functions.c **** {
 100              		.loc 1 34 0
 101              		.cfi_startproc
 102              		@ args = 0, pretend = 0, frame = 0
 103              		@ frame_needed = 1, uses_anonymous_args = 0
 104 0000 80B5     		push	{r7, lr}
 105              		.cfi_def_cfa_offset 8
 106              		.cfi_offset 7, -8
 107              		.cfi_offset 14, -4
 108 0002 00AF     		add	r7, sp, #0
 109              		.cfi_def_cfa_register 7
  35:.\my_camera_functions.c **** 	Camera_Start();
 110              		.loc 1 35 0
 111 0004 FFF7FEFF 		bl	Camera_Start
  36:.\my_camera_functions.c ****     LCD_ClearDisplay();
 112              		.loc 1 36 0
 113 0008 0120     		movs	r0, #1
 114 000a FFF7FEFF 		bl	LCD_WriteControl
  37:.\my_camera_functions.c ****     LCD_PosPrintString(0,0,"Camera Actualy");
 115              		.loc 1 37 0
 116 000e 0020     		movs	r0, #0
 117 0010 0021     		movs	r1, #0
 118 0012 FFF7FEFF 		bl	LCD_Position
 119 0016 2748     		ldr	r0, .L2
 120 0018 FFF7FEFF 		bl	LCD_PrintString
  38:.\my_camera_functions.c ****     Camera_WriteReg(0x1E,0b00010000); //Flip Image
ARM GAS  C:\Users\xavieran\AppData\Local\Temp\ccRA778j.s 			page 4


 121              		.loc 1 38 0
 122 001c 1E20     		movs	r0, #30
 123 001e 1021     		movs	r1, #16
 124 0020 FFF7FEFF 		bl	Camera_WriteReg
  39:.\my_camera_functions.c ****     Camera_WriteReg(0x13,0b11100111); //Enable Auto Gain, WB, Exposure
 125              		.loc 1 39 0
 126 0024 1320     		movs	r0, #19
 127 0026 E721     		movs	r1, #231
 128 0028 FFF7FEFF 		bl	Camera_WriteReg
  40:.\my_camera_functions.c ****     Camera_SyncFrame();
 129              		.loc 1 40 0
 130 002c FFF7FEFF 		bl	Camera_SyncFrame
  41:.\my_camera_functions.c ****     LCD_PosPrintString(0,0,"Frame Sync Done");
 131              		.loc 1 41 0
 132 0030 0020     		movs	r0, #0
 133 0032 0021     		movs	r1, #0
 134 0034 FFF7FEFF 		bl	LCD_Position
 135 0038 1F48     		ldr	r0, .L2+4
 136 003a FFF7FEFF 		bl	LCD_PrintString
  42:.\my_camera_functions.c **** 	Camera_GetFrame(); //start frame capture
 137              		.loc 1 42 0
 138 003e FFF7FEFF 		bl	Camera_GetFrame
  43:.\my_camera_functions.c ****     LCD_PosPrintString(0,0,"Getting Frame!!");
 139              		.loc 1 43 0
 140 0042 0020     		movs	r0, #0
 141 0044 0021     		movs	r1, #0
 142 0046 FFF7FEFF 		bl	LCD_Position
 143 004a 1C48     		ldr	r0, .L2+8
 144 004c FFF7FEFF 		bl	LCD_PrintString
  44:.\my_camera_functions.c **** 	Camera_SyncFrame(); //wait until frame is fully captured before sending out over USB
 145              		.loc 1 44 0
 146 0050 FFF7FEFF 		bl	Camera_SyncFrame
  45:.\my_camera_functions.c ****     Camera_WriteReg(0x13,0b11100000);
 147              		.loc 1 45 0
 148 0054 1320     		movs	r0, #19
 149 0056 E021     		movs	r1, #224
 150 0058 FFF7FEFF 		bl	Camera_WriteReg
  46:.\my_camera_functions.c ****     //Gain and exposure settigs
  47:.\my_camera_functions.c ****     Camera_WriteReg(0x00, GAIN);
 151              		.loc 1 47 0
 152 005c 184B     		ldr	r3, .L2+12
 153 005e 1B78     		ldrb	r3, [r3]	@ zero_extendqisi2
 154 0060 0020     		movs	r0, #0
 155 0062 1946     		mov	r1, r3
 156 0064 FFF7FEFF 		bl	Camera_WriteReg
  48:.\my_camera_functions.c ****     Camera_WriteReg(0x01, B_GAIN);
 157              		.loc 1 48 0
 158 0068 164B     		ldr	r3, .L2+16
 159 006a 1B78     		ldrb	r3, [r3]	@ zero_extendqisi2
 160 006c 0120     		movs	r0, #1
 161 006e 1946     		mov	r1, r3
 162 0070 FFF7FEFF 		bl	Camera_WriteReg
  49:.\my_camera_functions.c ****     Camera_WriteReg(0x02, R_GAIN);
 163              		.loc 1 49 0
 164 0074 144B     		ldr	r3, .L2+20
 165 0076 1B78     		ldrb	r3, [r3]	@ zero_extendqisi2
 166 0078 0220     		movs	r0, #2
ARM GAS  C:\Users\xavieran\AppData\Local\Temp\ccRA778j.s 			page 5


 167 007a 1946     		mov	r1, r3
 168 007c FFF7FEFF 		bl	Camera_WriteReg
  50:.\my_camera_functions.c ****     Camera_WriteReg(0x10,EXPOSURE);
 169              		.loc 1 50 0
 170 0080 124B     		ldr	r3, .L2+24
 171 0082 1B78     		ldrb	r3, [r3]	@ zero_extendqisi2
 172 0084 1020     		movs	r0, #16
 173 0086 1946     		mov	r1, r3
 174 0088 FFF7FEFF 		bl	Camera_WriteReg
  51:.\my_camera_functions.c **** 	Camera_WriteReg(0x3F,0b00101111); // Edge Enhancement Factor and Threshold
 175              		.loc 1 51 0
 176 008c 3F20     		movs	r0, #63
 177 008e 2F21     		movs	r1, #47
 178 0090 FFF7FEFF 		bl	Camera_WriteReg
  52:.\my_camera_functions.c ****     Camera_WriteReg(0x3E,0b00000011); // Edge Enhancement Control
 179              		.loc 1 52 0
 180 0094 3E20     		movs	r0, #62
 181 0096 0321     		movs	r1, #3
 182 0098 FFF7FEFF 		bl	Camera_WriteReg
  53:.\my_camera_functions.c ****     Camera_WriteReg(0x8C,0b10100000); // Denoise
 183              		.loc 1 53 0
 184 009c 8C20     		movs	r0, #140
 185 009e A021     		movs	r1, #160
 186 00a0 FFF7FEFF 		bl	Camera_WriteReg
  54:.\my_camera_functions.c ****     LCD_PosPrintString(0,0,"Init Camera Done");
 187              		.loc 1 54 0
 188 00a4 0020     		movs	r0, #0
 189 00a6 0021     		movs	r1, #0
 190 00a8 FFF7FEFF 		bl	LCD_Position
 191 00ac 0848     		ldr	r0, .L2+28
 192 00ae FFF7FEFF 		bl	LCD_PrintString
  55:.\my_camera_functions.c **** }
 193              		.loc 1 55 0
 194 00b2 80BD     		pop	{r7, pc}
 195              	.L3:
 196              		.align	2
 197              	.L2:
 198 00b4 00000000 		.word	.LC1
 199 00b8 10000000 		.word	.LC2
 200 00bc 20000000 		.word	.LC3
 201 00c0 00000000 		.word	GAIN
 202 00c4 00000000 		.word	B_GAIN
 203 00c8 00000000 		.word	R_GAIN
 204 00cc 00000000 		.word	EXPOSURE
 205 00d0 30000000 		.word	.LC4
 206              		.cfi_endproc
 207              	.LFE63:
 208              		.size	init_camera, .-init_camera
 209              		.section	.text.capture_image,"ax",%progbits
 210              		.align	2
 211              		.global	capture_image
 212              		.thumb
 213              		.thumb_func
 214              		.type	capture_image, %function
 215              	capture_image:
 216              	.LFB64:
  56:.\my_camera_functions.c **** 
ARM GAS  C:\Users\xavieran\AppData\Local\Temp\ccRA778j.s 			page 6


  57:.\my_camera_functions.c **** void capture_image()
  58:.\my_camera_functions.c **** {
 217              		.loc 1 58 0
 218              		.cfi_startproc
 219              		@ args = 0, pretend = 0, frame = 0
 220              		@ frame_needed = 1, uses_anonymous_args = 0
 221 0000 80B5     		push	{r7, lr}
 222              		.cfi_def_cfa_offset 8
 223              		.cfi_offset 7, -8
 224              		.cfi_offset 14, -4
 225 0002 00AF     		add	r7, sp, #0
 226              		.cfi_def_cfa_register 7
  59:.\my_camera_functions.c **** 	Camera_SyncFrame();
 227              		.loc 1 59 0
 228 0004 FFF7FEFF 		bl	Camera_SyncFrame
  60:.\my_camera_functions.c **** 	Camera_GetFrame();
 229              		.loc 1 60 0
 230 0008 FFF7FEFF 		bl	Camera_GetFrame
  61:.\my_camera_functions.c **** 	Camera_SyncFrame();
 231              		.loc 1 61 0
 232 000c FFF7FEFF 		bl	Camera_SyncFrame
  62:.\my_camera_functions.c **** }
 233              		.loc 1 62 0
 234 0010 80BD     		pop	{r7, pc}
 235              		.cfi_endproc
 236              	.LFE64:
 237              		.size	capture_image, .-capture_image
 238 0012 00BF     		.section	.text.capture_thresh_image,"ax",%progbits
 239              		.align	2
 240              		.global	capture_thresh_image
 241              		.thumb
 242              		.thumb_func
 243              		.type	capture_thresh_image, %function
 244              	capture_thresh_image:
 245              	.LFB65:
  63:.\my_camera_functions.c **** 
  64:.\my_camera_functions.c **** void capture_thresh_image()
  65:.\my_camera_functions.c **** {
 246              		.loc 1 65 0
 247              		.cfi_startproc
 248              		@ args = 0, pretend = 0, frame = 0
 249              		@ frame_needed = 1, uses_anonymous_args = 0
 250 0000 80B5     		push	{r7, lr}
 251              		.cfi_def_cfa_offset 8
 252              		.cfi_offset 7, -8
 253              		.cfi_offset 14, -4
 254 0002 00AF     		add	r7, sp, #0
 255              		.cfi_def_cfa_register 7
  66:.\my_camera_functions.c **** 	Camera_SyncFrame();
 256              		.loc 1 66 0
 257 0004 FFF7FEFF 		bl	Camera_SyncFrame
  67:.\my_camera_functions.c **** 	Camera_GetFrame();
 258              		.loc 1 67 0
 259 0008 FFF7FEFF 		bl	Camera_GetFrame
  68:.\my_camera_functions.c **** 	Camera_SyncFrame();
 260              		.loc 1 68 0
 261 000c FFF7FEFF 		bl	Camera_SyncFrame
ARM GAS  C:\Users\xavieran\AppData\Local\Temp\ccRA778j.s 			page 7


  69:.\my_camera_functions.c ****     threshold_image();
 262              		.loc 1 69 0
 263 0010 FFF7FEFF 		bl	threshold_image
  70:.\my_camera_functions.c ****     clean_frame(RED,0.2,20);
 264              		.loc 1 70 0
 265 0014 0120     		movs	r0, #1
 266 0016 0849     		ldr	r1, .L6
 267 0018 1422     		movs	r2, #20
 268 001a FFF7FEFF 		bl	clean_frame
  71:.\my_camera_functions.c ****     clean_frame(GREEN,0.2,20);
 269              		.loc 1 71 0
 270 001e 0220     		movs	r0, #2
 271 0020 0549     		ldr	r1, .L6
 272 0022 1422     		movs	r2, #20
 273 0024 FFF7FEFF 		bl	clean_frame
  72:.\my_camera_functions.c ****     clean_frame(BLUE,0.2,20);
 274              		.loc 1 72 0
 275 0028 0320     		movs	r0, #3
 276 002a 0349     		ldr	r1, .L6
 277 002c 1422     		movs	r2, #20
 278 002e FFF7FEFF 		bl	clean_frame
  73:.\my_camera_functions.c ****     blob_detect();
 279              		.loc 1 73 0
 280 0032 FFF7FEFF 		bl	blob_detect
  74:.\my_camera_functions.c **** }
 281              		.loc 1 74 0
 282 0036 80BD     		pop	{r7, pc}
 283              	.L7:
 284              		.align	2
 285              	.L6:
 286 0038 CDCC4C3E 		.word	1045220557
 287              		.cfi_endproc
 288              	.LFE65:
 289              		.size	capture_thresh_image, .-capture_thresh_image
 290              		.section	.text.set_gain_exposure,"ax",%progbits
 291              		.align	2
 292              		.global	set_gain_exposure
 293              		.thumb
 294              		.thumb_func
 295              		.type	set_gain_exposure, %function
 296              	set_gain_exposure:
 297              	.LFB66:
  75:.\my_camera_functions.c **** 
  76:.\my_camera_functions.c **** void set_gain_exposure(int setting)
  77:.\my_camera_functions.c **** {
 298              		.loc 1 77 0
 299              		.cfi_startproc
 300              		@ args = 0, pretend = 0, frame = 8
 301              		@ frame_needed = 1, uses_anonymous_args = 0
 302 0000 80B5     		push	{r7, lr}
 303              		.cfi_def_cfa_offset 8
 304              		.cfi_offset 7, -8
 305              		.cfi_offset 14, -4
 306 0002 82B0     		sub	sp, sp, #8
 307              		.cfi_def_cfa_offset 16
 308 0004 00AF     		add	r7, sp, #0
 309              		.cfi_def_cfa_register 7
ARM GAS  C:\Users\xavieran\AppData\Local\Temp\ccRA778j.s 			page 8


 310 0006 7860     		str	r0, [r7, #4]
  78:.\my_camera_functions.c **** 	switch(setting)
 311              		.loc 1 78 0
 312 0008 7B68     		ldr	r3, [r7, #4]
 313 000a 012B     		cmp	r3, #1
 314 000c 02D0     		beq	.L10
 315 000e 022B     		cmp	r3, #2
 316 0010 19D0     		beq	.L11
 317 0012 20E0     		b	.L8
 318              	.L10:
  79:.\my_camera_functions.c **** 	{
  80:.\my_camera_functions.c **** 		case 1:
  81:.\my_camera_functions.c **** 			// Settings for Instructions
  82:.\my_camera_functions.c **** 			Camera_WriteReg(0x00, GAIN); //g
 319              		.loc 1 82 0
 320 0014 114B     		ldr	r3, .L12
 321 0016 1B78     		ldrb	r3, [r3]	@ zero_extendqisi2
 322 0018 0020     		movs	r0, #0
 323 001a 1946     		mov	r1, r3
 324 001c FFF7FEFF 		bl	Camera_WriteReg
  83:.\my_camera_functions.c ****             Camera_WriteReg(0x01, B_GAIN);//BG
 325              		.loc 1 83 0
 326 0020 0F4B     		ldr	r3, .L12+4
 327 0022 1B78     		ldrb	r3, [r3]	@ zero_extendqisi2
 328 0024 0120     		movs	r0, #1
 329 0026 1946     		mov	r1, r3
 330 0028 FFF7FEFF 		bl	Camera_WriteReg
  84:.\my_camera_functions.c ****             Camera_WriteReg(0x02, R_GAIN);//RG
 331              		.loc 1 84 0
 332 002c 0D4B     		ldr	r3, .L12+8
 333 002e 1B78     		ldrb	r3, [r3]	@ zero_extendqisi2
 334 0030 0220     		movs	r0, #2
 335 0032 1946     		mov	r1, r3
 336 0034 FFF7FEFF 		bl	Camera_WriteReg
  85:.\my_camera_functions.c **** 			Camera_WriteReg(0x10, EXPOSURE);//exposure
 337              		.loc 1 85 0
 338 0038 0B4B     		ldr	r3, .L12+12
 339 003a 1B78     		ldrb	r3, [r3]	@ zero_extendqisi2
 340 003c 1020     		movs	r0, #16
 341 003e 1946     		mov	r1, r3
 342 0040 FFF7FEFF 		bl	Camera_WriteReg
  86:.\my_camera_functions.c **** 			break;
 343              		.loc 1 86 0
 344 0044 07E0     		b	.L8
 345              	.L11:
  87:.\my_camera_functions.c ****         case 2:
  88:.\my_camera_functions.c ****             Camera_WriteReg(0x00, 60); // Gain
 346              		.loc 1 88 0
 347 0046 0020     		movs	r0, #0
 348 0048 3C21     		movs	r1, #60
 349 004a FFF7FEFF 		bl	Camera_WriteReg
  89:.\my_camera_functions.c ****             Camera_WriteReg(0x10, 80); // Exposure
 350              		.loc 1 89 0
 351 004e 1020     		movs	r0, #16
 352 0050 5021     		movs	r1, #80
 353 0052 FFF7FEFF 		bl	Camera_WriteReg
 354              	.L8:
ARM GAS  C:\Users\xavieran\AppData\Local\Temp\ccRA778j.s 			page 9


  90:.\my_camera_functions.c ****             
  91:.\my_camera_functions.c **** 	}
  92:.\my_camera_functions.c **** }
 355              		.loc 1 92 0
 356 0056 0837     		adds	r7, r7, #8
 357 0058 BD46     		mov	sp, r7
 358              		@ sp needed
 359 005a 80BD     		pop	{r7, pc}
 360              	.L13:
 361              		.align	2
 362              	.L12:
 363 005c 00000000 		.word	GAIN
 364 0060 00000000 		.word	B_GAIN
 365 0064 00000000 		.word	R_GAIN
 366 0068 00000000 		.word	EXPOSURE
 367              		.cfi_endproc
 368              	.LFE66:
 369              		.size	set_gain_exposure, .-set_gain_exposure
 370              		.section	.text.PixelColour,"ax",%progbits
 371              		.align	2
 372              		.global	PixelColour
 373              		.thumb
 374              		.thumb_func
 375              		.type	PixelColour, %function
 376              	PixelColour:
 377              	.LFB67:
  93:.\my_camera_functions.c **** 
  94:.\my_camera_functions.c ****     
  95:.\my_camera_functions.c ****     
  96:.\my_camera_functions.c **** uint8 PixelColour(uint8 x,uint8 y) //colour of pixel at (x,y)
  97:.\my_camera_functions.c **** {
 378              		.loc 1 97 0
 379              		.cfi_startproc
 380              		@ args = 0, pretend = 0, frame = 8
 381              		@ frame_needed = 1, uses_anonymous_args = 0
 382              		@ link register save eliminated.
 383 0000 80B4     		push	{r7}
 384              		.cfi_def_cfa_offset 4
 385              		.cfi_offset 7, -4
 386 0002 83B0     		sub	sp, sp, #12
 387              		.cfi_def_cfa_offset 16
 388 0004 00AF     		add	r7, sp, #0
 389              		.cfi_def_cfa_register 7
 390 0006 0246     		mov	r2, r0
 391 0008 0B46     		mov	r3, r1
 392 000a FA71     		strb	r2, [r7, #7]
 393 000c BB71     		strb	r3, [r7, #6]
  98:.\my_camera_functions.c ****     if(Camera_framebuffer[y][x][0]<RED_U   && Camera_framebuffer[y][x][2]>=RED_V)  return RED;
 394              		.loc 1 98 0
 395 000e B979     		ldrb	r1, [r7, #6]	@ zero_extendqisi2
 396 0010 FA79     		ldrb	r2, [r7, #7]	@ zero_extendqisi2
 397 0012 2E4B     		ldr	r3, .L19
 398 0014 5820     		movs	r0, #88
 399 0016 00FB01F1 		mul	r1, r0, r1
 400 001a 0A44     		add	r2, r2, r1
 401 001c 13F82220 		ldrb	r2, [r3, r2, lsl #2]	@ zero_extendqisi2
 402 0020 2B4B     		ldr	r3, .L19+4
ARM GAS  C:\Users\xavieran\AppData\Local\Temp\ccRA778j.s 			page 10


 403 0022 1B78     		ldrb	r3, [r3]	@ zero_extendqisi2
 404 0024 9A42     		cmp	r2, r3
 405 0026 0FD2     		bcs	.L15
 406              		.loc 1 98 0 is_stmt 0 discriminator 1
 407 0028 B979     		ldrb	r1, [r7, #6]	@ zero_extendqisi2
 408 002a FB79     		ldrb	r3, [r7, #7]	@ zero_extendqisi2
 409 002c 274A     		ldr	r2, .L19
 410 002e 5820     		movs	r0, #88
 411 0030 00FB01F1 		mul	r1, r0, r1
 412 0034 0B44     		add	r3, r3, r1
 413 0036 9B00     		lsls	r3, r3, #2
 414 0038 1344     		add	r3, r3, r2
 415 003a 9A78     		ldrb	r2, [r3, #2]	@ zero_extendqisi2
 416 003c 254B     		ldr	r3, .L19+8
 417 003e 1B78     		ldrb	r3, [r3]	@ zero_extendqisi2
 418 0040 9A42     		cmp	r2, r3
 419 0042 01D3     		bcc	.L15
 420 0044 0123     		movs	r3, #1
 421 0046 3AE0     		b	.L16
 422              	.L15:
  99:.\my_camera_functions.c ****     if(Camera_framebuffer[y][x][0]<GREEN_U && Camera_framebuffer[y][x][2]<GREEN_V) return GREEN;
 423              		.loc 1 99 0 is_stmt 1
 424 0048 B979     		ldrb	r1, [r7, #6]	@ zero_extendqisi2
 425 004a FA79     		ldrb	r2, [r7, #7]	@ zero_extendqisi2
 426 004c 1F4B     		ldr	r3, .L19
 427 004e 5820     		movs	r0, #88
 428 0050 00FB01F1 		mul	r1, r0, r1
 429 0054 0A44     		add	r2, r2, r1
 430 0056 13F82220 		ldrb	r2, [r3, r2, lsl #2]	@ zero_extendqisi2
 431 005a 1F4B     		ldr	r3, .L19+12
 432 005c 1B78     		ldrb	r3, [r3]	@ zero_extendqisi2
 433 005e 9A42     		cmp	r2, r3
 434 0060 0FD2     		bcs	.L17
 435              		.loc 1 99 0 is_stmt 0 discriminator 1
 436 0062 B979     		ldrb	r1, [r7, #6]	@ zero_extendqisi2
 437 0064 FB79     		ldrb	r3, [r7, #7]	@ zero_extendqisi2
 438 0066 194A     		ldr	r2, .L19
 439 0068 5820     		movs	r0, #88
 440 006a 00FB01F1 		mul	r1, r0, r1
 441 006e 0B44     		add	r3, r3, r1
 442 0070 9B00     		lsls	r3, r3, #2
 443 0072 1344     		add	r3, r3, r2
 444 0074 9A78     		ldrb	r2, [r3, #2]	@ zero_extendqisi2
 445 0076 194B     		ldr	r3, .L19+16
 446 0078 1B78     		ldrb	r3, [r3]	@ zero_extendqisi2
 447 007a 9A42     		cmp	r2, r3
 448 007c 01D2     		bcs	.L17
 449 007e 0223     		movs	r3, #2
 450 0080 1DE0     		b	.L16
 451              	.L17:
 100:.\my_camera_functions.c ****     if(Camera_framebuffer[y][x][0]>=BLUE_U && Camera_framebuffer[y][x][2]<BLUE_V)  return BLUE;
 452              		.loc 1 100 0 is_stmt 1
 453 0082 B979     		ldrb	r1, [r7, #6]	@ zero_extendqisi2
 454 0084 FA79     		ldrb	r2, [r7, #7]	@ zero_extendqisi2
 455 0086 114B     		ldr	r3, .L19
 456 0088 5820     		movs	r0, #88
 457 008a 00FB01F1 		mul	r1, r0, r1
ARM GAS  C:\Users\xavieran\AppData\Local\Temp\ccRA778j.s 			page 11


 458 008e 0A44     		add	r2, r2, r1
 459 0090 13F82220 		ldrb	r2, [r3, r2, lsl #2]	@ zero_extendqisi2
 460 0094 124B     		ldr	r3, .L19+20
 461 0096 1B78     		ldrb	r3, [r3]	@ zero_extendqisi2
 462 0098 9A42     		cmp	r2, r3
 463 009a 0FD3     		bcc	.L18
 464              		.loc 1 100 0 is_stmt 0 discriminator 1
 465 009c B979     		ldrb	r1, [r7, #6]	@ zero_extendqisi2
 466 009e FB79     		ldrb	r3, [r7, #7]	@ zero_extendqisi2
 467 00a0 0A4A     		ldr	r2, .L19
 468 00a2 5820     		movs	r0, #88
 469 00a4 00FB01F1 		mul	r1, r0, r1
 470 00a8 0B44     		add	r3, r3, r1
 471 00aa 9B00     		lsls	r3, r3, #2
 472 00ac 1344     		add	r3, r3, r2
 473 00ae 9A78     		ldrb	r2, [r3, #2]	@ zero_extendqisi2
 474 00b0 0C4B     		ldr	r3, .L19+24
 475 00b2 1B78     		ldrb	r3, [r3]	@ zero_extendqisi2
 476 00b4 9A42     		cmp	r2, r3
 477 00b6 01D2     		bcs	.L18
 478 00b8 0323     		movs	r3, #3
 479 00ba 00E0     		b	.L16
 480              	.L18:
 101:.\my_camera_functions.c ****     return NONE;
 481              		.loc 1 101 0 is_stmt 1
 482 00bc 0023     		movs	r3, #0
 483              	.L16:
 102:.\my_camera_functions.c **** }
 484              		.loc 1 102 0
 485 00be 1846     		mov	r0, r3
 486 00c0 0C37     		adds	r7, r7, #12
 487 00c2 BD46     		mov	sp, r7
 488              		@ sp needed
 489 00c4 5DF8047B 		ldr	r7, [sp], #4
 490 00c8 7047     		bx	lr
 491              	.L20:
 492 00ca 00BF     		.align	2
 493              	.L19:
 494 00cc 00000000 		.word	Camera_framebuffer
 495 00d0 00000000 		.word	RED_U
 496 00d4 00000000 		.word	RED_V
 497 00d8 00000000 		.word	GREEN_U
 498 00dc 00000000 		.word	GREEN_V
 499 00e0 00000000 		.word	BLUE_U
 500 00e4 00000000 		.word	BLUE_V
 501              		.cfi_endproc
 502              	.LFE67:
 503              		.size	PixelColour, .-PixelColour
 504              		.section	.text.threshold_image,"ax",%progbits
 505              		.align	2
 506              		.global	threshold_image
 507              		.thumb
 508              		.thumb_func
 509              		.type	threshold_image, %function
 510              	threshold_image:
 511              	.LFB68:
 103:.\my_camera_functions.c **** 
ARM GAS  C:\Users\xavieran\AppData\Local\Temp\ccRA778j.s 			page 12


 104:.\my_camera_functions.c **** 
 105:.\my_camera_functions.c **** 
 106:.\my_camera_functions.c **** //Camera_framebuffer[0][0] 
 107:.\my_camera_functions.c **** void threshold_image()
 108:.\my_camera_functions.c **** {
 512              		.loc 1 108 0
 513              		.cfi_startproc
 514              		@ args = 0, pretend = 0, frame = 32
 515              		@ frame_needed = 1, uses_anonymous_args = 0
 516 0000 80B5     		push	{r7, lr}
 517              		.cfi_def_cfa_offset 8
 518              		.cfi_offset 7, -8
 519              		.cfi_offset 14, -4
 520 0002 88B0     		sub	sp, sp, #32
 521              		.cfi_def_cfa_offset 40
 522 0004 00AF     		add	r7, sp, #0
 523              		.cfi_def_cfa_register 7
 109:.\my_camera_functions.c **** 	uint8 locals[8];
 110:.\my_camera_functions.c **** 	uint8 colours[4];
 111:.\my_camera_functions.c ****     int pixel;
 112:.\my_camera_functions.c ****     int y, x, i;
 113:.\my_camera_functions.c ****     
 114:.\my_camera_functions.c ****     
 115:.\my_camera_functions.c ****     
 116:.\my_camera_functions.c **** 	for(y = 0; y < 144; ++y)
 524              		.loc 1 116 0
 525 0006 0023     		movs	r3, #0
 526 0008 FB61     		str	r3, [r7, #28]
 527 000a 9CE1     		b	.L22
 528              	.L36:
 117:.\my_camera_functions.c **** 	{
 118:.\my_camera_functions.c **** 		for(x = 0; x < 88; ++x)
 529              		.loc 1 118 0
 530 000c 0023     		movs	r3, #0
 531 000e BB61     		str	r3, [r7, #24]
 532 0010 92E1     		b	.L23
 533              	.L35:
 119:.\my_camera_functions.c **** 		{
 120:.\my_camera_functions.c ****             if(y == 0 || y == 143 || x == 0 || x == 87)
 534              		.loc 1 120 0
 535 0012 FB69     		ldr	r3, [r7, #28]
 536 0014 002B     		cmp	r3, #0
 537 0016 08D0     		beq	.L24
 538              		.loc 1 120 0 is_stmt 0 discriminator 1
 539 0018 FB69     		ldr	r3, [r7, #28]
 540 001a 8F2B     		cmp	r3, #143
 541 001c 05D0     		beq	.L24
 542 001e BB69     		ldr	r3, [r7, #24]
 543 0020 002B     		cmp	r3, #0
 544 0022 02D0     		beq	.L24
 545 0024 BB69     		ldr	r3, [r7, #24]
 546 0026 572B     		cmp	r3, #87
 547 0028 2BD1     		bne	.L25
 548              	.L24:
 121:.\my_camera_functions.c ****             {
 122:.\my_camera_functions.c ****                 Camera_framebuffer[y][x][0] = 127;       
 549              		.loc 1 122 0 is_stmt 1
ARM GAS  C:\Users\xavieran\AppData\Local\Temp\ccRA778j.s 			page 13


 550 002a A24B     		ldr	r3, .L37
 551 002c FA69     		ldr	r2, [r7, #28]
 552 002e 5821     		movs	r1, #88
 553 0030 01FB02F1 		mul	r1, r1, r2
 554 0034 BA69     		ldr	r2, [r7, #24]
 555 0036 0A44     		add	r2, r2, r1
 556 0038 7F21     		movs	r1, #127
 557 003a 03F82210 		strb	r1, [r3, r2, lsl #2]
 123:.\my_camera_functions.c ****                 Camera_framebuffer[y][x][2] = 127;
 558              		.loc 1 123 0
 559 003e 9D4A     		ldr	r2, .L37
 560 0040 FB69     		ldr	r3, [r7, #28]
 561 0042 5821     		movs	r1, #88
 562 0044 01FB03F1 		mul	r1, r1, r3
 563 0048 BB69     		ldr	r3, [r7, #24]
 564 004a 0B44     		add	r3, r3, r1
 565 004c 9B00     		lsls	r3, r3, #2
 566 004e 1344     		add	r3, r3, r2
 567 0050 7F22     		movs	r2, #127
 568 0052 9A70     		strb	r2, [r3, #2]
 124:.\my_camera_functions.c ****                 Camera_framebuffer[y][x][1] = 0;
 569              		.loc 1 124 0
 570 0054 974A     		ldr	r2, .L37
 571 0056 FB69     		ldr	r3, [r7, #28]
 572 0058 5821     		movs	r1, #88
 573 005a 01FB03F1 		mul	r1, r1, r3
 574 005e BB69     		ldr	r3, [r7, #24]
 575 0060 0B44     		add	r3, r3, r1
 576 0062 9B00     		lsls	r3, r3, #2
 577 0064 1344     		add	r3, r3, r2
 578 0066 0022     		movs	r2, #0
 579 0068 5A70     		strb	r2, [r3, #1]
 125:.\my_camera_functions.c ****                 Camera_framebuffer[y][x][3] = 0;
 580              		.loc 1 125 0
 581 006a 924A     		ldr	r2, .L37
 582 006c FB69     		ldr	r3, [r7, #28]
 583 006e 5821     		movs	r1, #88
 584 0070 01FB03F1 		mul	r1, r1, r3
 585 0074 BB69     		ldr	r3, [r7, #24]
 586 0076 0B44     		add	r3, r3, r1
 587 0078 9B00     		lsls	r3, r3, #2
 588 007a 1344     		add	r3, r3, r2
 589 007c 0022     		movs	r2, #0
 590 007e DA70     		strb	r2, [r3, #3]
 591 0080 57E1     		b	.L26
 592              	.L25:
 126:.\my_camera_functions.c ****             }
 127:.\my_camera_functions.c ****             else
 128:.\my_camera_functions.c ****             {
 129:.\my_camera_functions.c **** 			    locals[0] = PixelColour(x-1,y-1);
 593              		.loc 1 129 0
 594 0082 BB69     		ldr	r3, [r7, #24]
 595 0084 DBB2     		uxtb	r3, r3
 596 0086 013B     		subs	r3, r3, #1
 597 0088 DAB2     		uxtb	r2, r3
 598 008a FB69     		ldr	r3, [r7, #28]
 599 008c DBB2     		uxtb	r3, r3
ARM GAS  C:\Users\xavieran\AppData\Local\Temp\ccRA778j.s 			page 14


 600 008e 013B     		subs	r3, r3, #1
 601 0090 DBB2     		uxtb	r3, r3
 602 0092 1046     		mov	r0, r2
 603 0094 1946     		mov	r1, r3
 604 0096 FFF7FEFF 		bl	PixelColour
 605 009a 0346     		mov	r3, r0
 606 009c 3B72     		strb	r3, [r7, #8]
 130:.\my_camera_functions.c **** 			    locals[1] = PixelColour(x-1,y);
 607              		.loc 1 130 0
 608 009e BB69     		ldr	r3, [r7, #24]
 609 00a0 DBB2     		uxtb	r3, r3
 610 00a2 013B     		subs	r3, r3, #1
 611 00a4 DAB2     		uxtb	r2, r3
 612 00a6 FB69     		ldr	r3, [r7, #28]
 613 00a8 DBB2     		uxtb	r3, r3
 614 00aa 1046     		mov	r0, r2
 615 00ac 1946     		mov	r1, r3
 616 00ae FFF7FEFF 		bl	PixelColour
 617 00b2 0346     		mov	r3, r0
 618 00b4 7B72     		strb	r3, [r7, #9]
 131:.\my_camera_functions.c **** 			    locals[2] = PixelColour(x-1,y+1);
 619              		.loc 1 131 0
 620 00b6 BB69     		ldr	r3, [r7, #24]
 621 00b8 DBB2     		uxtb	r3, r3
 622 00ba 013B     		subs	r3, r3, #1
 623 00bc DAB2     		uxtb	r2, r3
 624 00be FB69     		ldr	r3, [r7, #28]
 625 00c0 DBB2     		uxtb	r3, r3
 626 00c2 0133     		adds	r3, r3, #1
 627 00c4 DBB2     		uxtb	r3, r3
 628 00c6 1046     		mov	r0, r2
 629 00c8 1946     		mov	r1, r3
 630 00ca FFF7FEFF 		bl	PixelColour
 631 00ce 0346     		mov	r3, r0
 632 00d0 BB72     		strb	r3, [r7, #10]
 132:.\my_camera_functions.c **** 			    locals[3] = PixelColour(x,y-1);
 633              		.loc 1 132 0
 634 00d2 BB69     		ldr	r3, [r7, #24]
 635 00d4 DAB2     		uxtb	r2, r3
 636 00d6 FB69     		ldr	r3, [r7, #28]
 637 00d8 DBB2     		uxtb	r3, r3
 638 00da 013B     		subs	r3, r3, #1
 639 00dc DBB2     		uxtb	r3, r3
 640 00de 1046     		mov	r0, r2
 641 00e0 1946     		mov	r1, r3
 642 00e2 FFF7FEFF 		bl	PixelColour
 643 00e6 0346     		mov	r3, r0
 644 00e8 FB72     		strb	r3, [r7, #11]
 133:.\my_camera_functions.c **** 			    locals[4] = PixelColour(x,y+1);
 645              		.loc 1 133 0
 646 00ea BB69     		ldr	r3, [r7, #24]
 647 00ec DAB2     		uxtb	r2, r3
 648 00ee FB69     		ldr	r3, [r7, #28]
 649 00f0 DBB2     		uxtb	r3, r3
 650 00f2 0133     		adds	r3, r3, #1
 651 00f4 DBB2     		uxtb	r3, r3
 652 00f6 1046     		mov	r0, r2
ARM GAS  C:\Users\xavieran\AppData\Local\Temp\ccRA778j.s 			page 15


 653 00f8 1946     		mov	r1, r3
 654 00fa FFF7FEFF 		bl	PixelColour
 655 00fe 0346     		mov	r3, r0
 656 0100 3B73     		strb	r3, [r7, #12]
 134:.\my_camera_functions.c **** 			    locals[5] = PixelColour(x+1,y-1);
 657              		.loc 1 134 0
 658 0102 BB69     		ldr	r3, [r7, #24]
 659 0104 DBB2     		uxtb	r3, r3
 660 0106 0133     		adds	r3, r3, #1
 661 0108 DAB2     		uxtb	r2, r3
 662 010a FB69     		ldr	r3, [r7, #28]
 663 010c DBB2     		uxtb	r3, r3
 664 010e 013B     		subs	r3, r3, #1
 665 0110 DBB2     		uxtb	r3, r3
 666 0112 1046     		mov	r0, r2
 667 0114 1946     		mov	r1, r3
 668 0116 FFF7FEFF 		bl	PixelColour
 669 011a 0346     		mov	r3, r0
 670 011c 7B73     		strb	r3, [r7, #13]
 135:.\my_camera_functions.c **** 			    locals[6] = PixelColour(x+1,y);
 671              		.loc 1 135 0
 672 011e BB69     		ldr	r3, [r7, #24]
 673 0120 DBB2     		uxtb	r3, r3
 674 0122 0133     		adds	r3, r3, #1
 675 0124 DAB2     		uxtb	r2, r3
 676 0126 FB69     		ldr	r3, [r7, #28]
 677 0128 DBB2     		uxtb	r3, r3
 678 012a 1046     		mov	r0, r2
 679 012c 1946     		mov	r1, r3
 680 012e FFF7FEFF 		bl	PixelColour
 681 0132 0346     		mov	r3, r0
 682 0134 BB73     		strb	r3, [r7, #14]
 136:.\my_camera_functions.c **** 			    locals[7] = PixelColour(x+1,y+1);
 683              		.loc 1 136 0
 684 0136 BB69     		ldr	r3, [r7, #24]
 685 0138 DBB2     		uxtb	r3, r3
 686 013a 0133     		adds	r3, r3, #1
 687 013c DAB2     		uxtb	r2, r3
 688 013e FB69     		ldr	r3, [r7, #28]
 689 0140 DBB2     		uxtb	r3, r3
 690 0142 0133     		adds	r3, r3, #1
 691 0144 DBB2     		uxtb	r3, r3
 692 0146 1046     		mov	r0, r2
 693 0148 1946     		mov	r1, r3
 694 014a FFF7FEFF 		bl	PixelColour
 695 014e 0346     		mov	r3, r0
 696 0150 FB73     		strb	r3, [r7, #15]
 137:.\my_camera_functions.c **** 			    for(i = 0; i < 8; ++i)
 697              		.loc 1 137 0
 698 0152 0023     		movs	r3, #0
 699 0154 7B61     		str	r3, [r7, #20]
 700 0156 3AE0     		b	.L27
 701              	.L28:
 138:.\my_camera_functions.c ****     			{
 139:.\my_camera_functions.c **** 	    			colours[0] += locals[i] == NONE;
 702              		.loc 1 139 0 discriminator 2
 703 0158 3A79     		ldrb	r2, [r7, #4]	@ zero_extendqisi2
ARM GAS  C:\Users\xavieran\AppData\Local\Temp\ccRA778j.s 			page 16


 704 015a 07F10801 		add	r1, r7, #8
 705 015e 7B69     		ldr	r3, [r7, #20]
 706 0160 0B44     		add	r3, r3, r1
 707 0162 1B78     		ldrb	r3, [r3]	@ zero_extendqisi2
 708 0164 002B     		cmp	r3, #0
 709 0166 14BF     		ite	ne
 710 0168 0023     		movne	r3, #0
 711 016a 0123     		moveq	r3, #1
 712 016c DBB2     		uxtb	r3, r3
 713 016e 1344     		add	r3, r3, r2
 714 0170 DBB2     		uxtb	r3, r3
 715 0172 3B71     		strb	r3, [r7, #4]
 140:.\my_camera_functions.c **** 		    		colours[1] += locals[i] == RED;
 716              		.loc 1 140 0 discriminator 2
 717 0174 7A79     		ldrb	r2, [r7, #5]	@ zero_extendqisi2
 718 0176 07F10801 		add	r1, r7, #8
 719 017a 7B69     		ldr	r3, [r7, #20]
 720 017c 0B44     		add	r3, r3, r1
 721 017e 1B78     		ldrb	r3, [r3]	@ zero_extendqisi2
 722 0180 012B     		cmp	r3, #1
 723 0182 14BF     		ite	ne
 724 0184 0023     		movne	r3, #0
 725 0186 0123     		moveq	r3, #1
 726 0188 DBB2     		uxtb	r3, r3
 727 018a 1344     		add	r3, r3, r2
 728 018c DBB2     		uxtb	r3, r3
 729 018e 7B71     		strb	r3, [r7, #5]
 141:.\my_camera_functions.c **** 			    	colours[2] += locals[i] == GREEN;
 730              		.loc 1 141 0 discriminator 2
 731 0190 BA79     		ldrb	r2, [r7, #6]	@ zero_extendqisi2
 732 0192 07F10801 		add	r1, r7, #8
 733 0196 7B69     		ldr	r3, [r7, #20]
 734 0198 0B44     		add	r3, r3, r1
 735 019a 1B78     		ldrb	r3, [r3]	@ zero_extendqisi2
 736 019c 022B     		cmp	r3, #2
 737 019e 14BF     		ite	ne
 738 01a0 0023     		movne	r3, #0
 739 01a2 0123     		moveq	r3, #1
 740 01a4 DBB2     		uxtb	r3, r3
 741 01a6 1344     		add	r3, r3, r2
 742 01a8 DBB2     		uxtb	r3, r3
 743 01aa BB71     		strb	r3, [r7, #6]
 142:.\my_camera_functions.c **** 				    colours[3] += locals[i] == BLUE;
 744              		.loc 1 142 0 discriminator 2
 745 01ac FA79     		ldrb	r2, [r7, #7]	@ zero_extendqisi2
 746 01ae 07F10801 		add	r1, r7, #8
 747 01b2 7B69     		ldr	r3, [r7, #20]
 748 01b4 0B44     		add	r3, r3, r1
 749 01b6 1B78     		ldrb	r3, [r3]	@ zero_extendqisi2
 750 01b8 032B     		cmp	r3, #3
 751 01ba 14BF     		ite	ne
 752 01bc 0023     		movne	r3, #0
 753 01be 0123     		moveq	r3, #1
 754 01c0 DBB2     		uxtb	r3, r3
 755 01c2 1344     		add	r3, r3, r2
 756 01c4 DBB2     		uxtb	r3, r3
 757 01c6 FB71     		strb	r3, [r7, #7]
ARM GAS  C:\Users\xavieran\AppData\Local\Temp\ccRA778j.s 			page 17


 137:.\my_camera_functions.c **** 			    for(i = 0; i < 8; ++i)
 758              		.loc 1 137 0 discriminator 2
 759 01c8 7B69     		ldr	r3, [r7, #20]
 760 01ca 0133     		adds	r3, r3, #1
 761 01cc 7B61     		str	r3, [r7, #20]
 762              	.L27:
 137:.\my_camera_functions.c **** 			    for(i = 0; i < 8; ++i)
 763              		.loc 1 137 0 is_stmt 0 discriminator 1
 764 01ce 7B69     		ldr	r3, [r7, #20]
 765 01d0 072B     		cmp	r3, #7
 766 01d2 C1DD     		ble	.L28
 143:.\my_camera_functions.c ****     			}
 144:.\my_camera_functions.c ****                 Camera_framebuffer[y][x][1] = 127;
 767              		.loc 1 144 0 is_stmt 1
 768 01d4 374A     		ldr	r2, .L37
 769 01d6 FB69     		ldr	r3, [r7, #28]
 770 01d8 5821     		movs	r1, #88
 771 01da 01FB03F1 		mul	r1, r1, r3
 772 01de BB69     		ldr	r3, [r7, #24]
 773 01e0 0B44     		add	r3, r3, r1
 774 01e2 9B00     		lsls	r3, r3, #2
 775 01e4 1344     		add	r3, r3, r2
 776 01e6 7F22     		movs	r2, #127
 777 01e8 5A70     		strb	r2, [r3, #1]
 145:.\my_camera_functions.c ****                 Camera_framebuffer[y][x][3] = 127;
 778              		.loc 1 145 0
 779 01ea 324A     		ldr	r2, .L37
 780 01ec FB69     		ldr	r3, [r7, #28]
 781 01ee 5821     		movs	r1, #88
 782 01f0 01FB03F1 		mul	r1, r1, r3
 783 01f4 BB69     		ldr	r3, [r7, #24]
 784 01f6 0B44     		add	r3, r3, r1
 785 01f8 9B00     		lsls	r3, r3, #2
 786 01fa 1344     		add	r3, r3, r2
 787 01fc 7F22     		movs	r2, #127
 788 01fe DA70     		strb	r2, [r3, #3]
 146:.\my_camera_functions.c **** 			    if(colours[1] >= connected)
 789              		.loc 1 146 0
 790 0200 7B79     		ldrb	r3, [r7, #5]	@ zero_extendqisi2
 791 0202 1A46     		mov	r2, r3
 792 0204 2C4B     		ldr	r3, .L37+4
 793 0206 1B68     		ldr	r3, [r3]
 794 0208 9A42     		cmp	r2, r3
 795 020a 17DB     		blt	.L29
 147:.\my_camera_functions.c **** 			    {
 148:.\my_camera_functions.c **** 				    pixel = RED;
 796              		.loc 1 148 0
 797 020c 0123     		movs	r3, #1
 798 020e 3B61     		str	r3, [r7, #16]
 149:.\my_camera_functions.c **** 				    Camera_framebuffer[y][x][0] = 0;
 799              		.loc 1 149 0
 800 0210 284B     		ldr	r3, .L37
 801 0212 FA69     		ldr	r2, [r7, #28]
 802 0214 5821     		movs	r1, #88
 803 0216 01FB02F1 		mul	r1, r1, r2
 804 021a BA69     		ldr	r2, [r7, #24]
 805 021c 0A44     		add	r2, r2, r1
ARM GAS  C:\Users\xavieran\AppData\Local\Temp\ccRA778j.s 			page 18


 806 021e 0021     		movs	r1, #0
 807 0220 03F82210 		strb	r1, [r3, r2, lsl #2]
 150:.\my_camera_functions.c ****     				Camera_framebuffer[y][x][2] = 255;
 808              		.loc 1 150 0
 809 0224 234A     		ldr	r2, .L37
 810 0226 FB69     		ldr	r3, [r7, #28]
 811 0228 5821     		movs	r1, #88
 812 022a 01FB03F1 		mul	r1, r1, r3
 813 022e BB69     		ldr	r3, [r7, #24]
 814 0230 0B44     		add	r3, r3, r1
 815 0232 9B00     		lsls	r3, r3, #2
 816 0234 1344     		add	r3, r3, r2
 817 0236 FF22     		movs	r2, #255
 818 0238 9A70     		strb	r2, [r3, #2]
 819 023a 6CE0     		b	.L30
 820              	.L29:
 151:.\my_camera_functions.c ****                 }
 152:.\my_camera_functions.c **** 		    	else if(colours[2] >= connected)
 821              		.loc 1 152 0
 822 023c BB79     		ldrb	r3, [r7, #6]	@ zero_extendqisi2
 823 023e 1A46     		mov	r2, r3
 824 0240 1D4B     		ldr	r3, .L37+4
 825 0242 1B68     		ldr	r3, [r3]
 826 0244 9A42     		cmp	r2, r3
 827 0246 17DB     		blt	.L31
 153:.\my_camera_functions.c ****     			{
 154:.\my_camera_functions.c **** 	    			pixel = GREEN;
 828              		.loc 1 154 0
 829 0248 0223     		movs	r3, #2
 830 024a 3B61     		str	r3, [r7, #16]
 155:.\my_camera_functions.c **** 		    		Camera_framebuffer[y][x][0] = 0;
 831              		.loc 1 155 0
 832 024c 194B     		ldr	r3, .L37
 833 024e FA69     		ldr	r2, [r7, #28]
 834 0250 5821     		movs	r1, #88
 835 0252 01FB02F1 		mul	r1, r1, r2
 836 0256 BA69     		ldr	r2, [r7, #24]
 837 0258 0A44     		add	r2, r2, r1
 838 025a 0021     		movs	r1, #0
 839 025c 03F82210 		strb	r1, [r3, r2, lsl #2]
 156:.\my_camera_functions.c **** 			    	Camera_framebuffer[y][x][2] = 0;
 840              		.loc 1 156 0
 841 0260 144A     		ldr	r2, .L37
 842 0262 FB69     		ldr	r3, [r7, #28]
 843 0264 5821     		movs	r1, #88
 844 0266 01FB03F1 		mul	r1, r1, r3
 845 026a BB69     		ldr	r3, [r7, #24]
 846 026c 0B44     		add	r3, r3, r1
 847 026e 9B00     		lsls	r3, r3, #2
 848 0270 1344     		add	r3, r3, r2
 849 0272 0022     		movs	r2, #0
 850 0274 9A70     		strb	r2, [r3, #2]
 851 0276 4EE0     		b	.L30
 852              	.L31:
 157:.\my_camera_functions.c **** 	    		}
 158:.\my_camera_functions.c **** 			    else if(colours[3] >= connected)
 853              		.loc 1 158 0
ARM GAS  C:\Users\xavieran\AppData\Local\Temp\ccRA778j.s 			page 19


 854 0278 FB79     		ldrb	r3, [r7, #7]	@ zero_extendqisi2
 855 027a 1A46     		mov	r2, r3
 856 027c 0E4B     		ldr	r3, .L37+4
 857 027e 1B68     		ldr	r3, [r3]
 858 0280 9A42     		cmp	r2, r3
 859 0282 1BDB     		blt	.L32
 159:.\my_camera_functions.c **** 			    {
 160:.\my_camera_functions.c ****     				pixel = BLUE;
 860              		.loc 1 160 0
 861 0284 0323     		movs	r3, #3
 862 0286 3B61     		str	r3, [r7, #16]
 161:.\my_camera_functions.c **** 	    			Camera_framebuffer[y][x][0] = 255;
 863              		.loc 1 161 0
 864 0288 0A4B     		ldr	r3, .L37
 865 028a FA69     		ldr	r2, [r7, #28]
 866 028c 5821     		movs	r1, #88
 867 028e 01FB02F1 		mul	r1, r1, r2
 868 0292 BA69     		ldr	r2, [r7, #24]
 869 0294 0A44     		add	r2, r2, r1
 870 0296 FF21     		movs	r1, #255
 871 0298 03F82210 		strb	r1, [r3, r2, lsl #2]
 162:.\my_camera_functions.c **** 		    		Camera_framebuffer[y][x][2] = 0;
 872              		.loc 1 162 0
 873 029c 054A     		ldr	r2, .L37
 874 029e FB69     		ldr	r3, [r7, #28]
 875 02a0 5821     		movs	r1, #88
 876 02a2 01FB03F1 		mul	r1, r1, r3
 877 02a6 BB69     		ldr	r3, [r7, #24]
 878 02a8 0B44     		add	r3, r3, r1
 879 02aa 9B00     		lsls	r3, r3, #2
 880 02ac 1344     		add	r3, r3, r2
 881 02ae 0022     		movs	r2, #0
 882 02b0 9A70     		strb	r2, [r3, #2]
 883 02b2 30E0     		b	.L30
 884              	.L38:
 885              		.align	2
 886              	.L37:
 887 02b4 00000000 		.word	Camera_framebuffer
 888 02b8 00000000 		.word	connected
 889              	.L32:
 163:.\my_camera_functions.c **** 			    }
 164:.\my_camera_functions.c ****     			else //if(colours[0] >= colours[1] && colours[0] >= colours[2] && colours[0] >= colours[3])
 165:.\my_camera_functions.c **** 	    		{
 166:.\my_camera_functions.c **** 		    		pixel = NONE;
 890              		.loc 1 166 0
 891 02bc 0023     		movs	r3, #0
 892 02be 3B61     		str	r3, [r7, #16]
 167:.\my_camera_functions.c **** 			    	Camera_framebuffer[y][x][0] = 127;
 893              		.loc 1 167 0
 894 02c0 244B     		ldr	r3, .L39
 895 02c2 FA69     		ldr	r2, [r7, #28]
 896 02c4 5821     		movs	r1, #88
 897 02c6 01FB02F1 		mul	r1, r1, r2
 898 02ca BA69     		ldr	r2, [r7, #24]
 899 02cc 0A44     		add	r2, r2, r1
 900 02ce 7F21     		movs	r1, #127
 901 02d0 03F82210 		strb	r1, [r3, r2, lsl #2]
ARM GAS  C:\Users\xavieran\AppData\Local\Temp\ccRA778j.s 			page 20


 168:.\my_camera_functions.c **** 				    Camera_framebuffer[y][x][2] = 127;
 902              		.loc 1 168 0
 903 02d4 1F4A     		ldr	r2, .L39
 904 02d6 FB69     		ldr	r3, [r7, #28]
 905 02d8 5821     		movs	r1, #88
 906 02da 01FB03F1 		mul	r1, r1, r3
 907 02de BB69     		ldr	r3, [r7, #24]
 908 02e0 0B44     		add	r3, r3, r1
 909 02e2 9B00     		lsls	r3, r3, #2
 910 02e4 1344     		add	r3, r3, r2
 911 02e6 7F22     		movs	r2, #127
 912 02e8 9A70     		strb	r2, [r3, #2]
 169:.\my_camera_functions.c ****                     Camera_framebuffer[y][x][1] = 0;
 913              		.loc 1 169 0
 914 02ea 1A4A     		ldr	r2, .L39
 915 02ec FB69     		ldr	r3, [r7, #28]
 916 02ee 5821     		movs	r1, #88
 917 02f0 01FB03F1 		mul	r1, r1, r3
 918 02f4 BB69     		ldr	r3, [r7, #24]
 919 02f6 0B44     		add	r3, r3, r1
 920 02f8 9B00     		lsls	r3, r3, #2
 921 02fa 1344     		add	r3, r3, r2
 922 02fc 0022     		movs	r2, #0
 923 02fe 5A70     		strb	r2, [r3, #1]
 170:.\my_camera_functions.c ****                     Camera_framebuffer[y][x][3] = 0;
 924              		.loc 1 170 0
 925 0300 144A     		ldr	r2, .L39
 926 0302 FB69     		ldr	r3, [r7, #28]
 927 0304 5821     		movs	r1, #88
 928 0306 01FB03F1 		mul	r1, r1, r3
 929 030a BB69     		ldr	r3, [r7, #24]
 930 030c 0B44     		add	r3, r3, r1
 931 030e 9B00     		lsls	r3, r3, #2
 932 0310 1344     		add	r3, r3, r2
 933 0312 0022     		movs	r2, #0
 934 0314 DA70     		strb	r2, [r3, #3]
 935              	.L30:
 171:.\my_camera_functions.c **** 		    	}
 172:.\my_camera_functions.c **** 			    for(i = 0; i < 8; ++i)
 936              		.loc 1 172 0
 937 0316 0023     		movs	r3, #0
 938 0318 7B61     		str	r3, [r7, #20]
 939 031a 07E0     		b	.L33
 940              	.L34:
 173:.\my_camera_functions.c **** 			    {
 174:.\my_camera_functions.c ****     				colours[i] = 0;
 941              		.loc 1 174 0 discriminator 2
 942 031c 3A1D     		adds	r2, r7, #4
 943 031e 7B69     		ldr	r3, [r7, #20]
 944 0320 1344     		add	r3, r3, r2
 945 0322 0022     		movs	r2, #0
 946 0324 1A70     		strb	r2, [r3]
 172:.\my_camera_functions.c **** 			    for(i = 0; i < 8; ++i)
 947              		.loc 1 172 0 discriminator 2
 948 0326 7B69     		ldr	r3, [r7, #20]
 949 0328 0133     		adds	r3, r3, #1
 950 032a 7B61     		str	r3, [r7, #20]
ARM GAS  C:\Users\xavieran\AppData\Local\Temp\ccRA778j.s 			page 21


 951              	.L33:
 172:.\my_camera_functions.c **** 			    for(i = 0; i < 8; ++i)
 952              		.loc 1 172 0 is_stmt 0 discriminator 1
 953 032c 7B69     		ldr	r3, [r7, #20]
 954 032e 072B     		cmp	r3, #7
 955 0330 F4DD     		ble	.L34
 956              	.L26:
 118:.\my_camera_functions.c **** 		for(x = 0; x < 88; ++x)
 957              		.loc 1 118 0 is_stmt 1
 958 0332 BB69     		ldr	r3, [r7, #24]
 959 0334 0133     		adds	r3, r3, #1
 960 0336 BB61     		str	r3, [r7, #24]
 961              	.L23:
 118:.\my_camera_functions.c **** 		for(x = 0; x < 88; ++x)
 962              		.loc 1 118 0 is_stmt 0 discriminator 1
 963 0338 BB69     		ldr	r3, [r7, #24]
 964 033a 572B     		cmp	r3, #87
 965 033c 7FF769AE 		ble	.L35
 116:.\my_camera_functions.c **** 	for(y = 0; y < 144; ++y)
 966              		.loc 1 116 0 is_stmt 1
 967 0340 FB69     		ldr	r3, [r7, #28]
 968 0342 0133     		adds	r3, r3, #1
 969 0344 FB61     		str	r3, [r7, #28]
 970              	.L22:
 116:.\my_camera_functions.c **** 	for(y = 0; y < 144; ++y)
 971              		.loc 1 116 0 is_stmt 0 discriminator 1
 972 0346 FB69     		ldr	r3, [r7, #28]
 973 0348 8F2B     		cmp	r3, #143
 974 034a 7FF75FAE 		ble	.L36
 175:.\my_camera_functions.c **** 			    } 
 176:.\my_camera_functions.c ****             }
 177:.\my_camera_functions.c **** 		}
 178:.\my_camera_functions.c **** 	}
 179:.\my_camera_functions.c **** }
 975              		.loc 1 179 0 is_stmt 1
 976 034e 2037     		adds	r7, r7, #32
 977 0350 BD46     		mov	sp, r7
 978              		@ sp needed
 979 0352 80BD     		pop	{r7, pc}
 980              	.L40:
 981              		.align	2
 982              	.L39:
 983 0354 00000000 		.word	Camera_framebuffer
 984              		.cfi_endproc
 985              	.LFE68:
 986              		.size	threshold_image, .-threshold_image
 987              		.global	__aeabi_i2f
 988              		.global	__aeabi_fmul
 989              		.global	__aeabi_fcmpge
 990              		.section	.text.clean_frame,"ax",%progbits
 991              		.align	2
 992              		.global	clean_frame
 993              		.thumb
 994              		.thumb_func
 995              		.type	clean_frame, %function
 996              	clean_frame:
 997              	.LFB69:
ARM GAS  C:\Users\xavieran\AppData\Local\Temp\ccRA778j.s 			page 22


 180:.\my_camera_functions.c **** 
 181:.\my_camera_functions.c **** 
 182:.\my_camera_functions.c **** void clean_frame(int colour, float proportion, int row_limit)
 183:.\my_camera_functions.c **** {
 998              		.loc 1 183 0
 999              		.cfi_startproc
 1000              		@ args = 0, pretend = 0, frame = 32
 1001              		@ frame_needed = 1, uses_anonymous_args = 0
 1002 0000 90B5     		push	{r4, r7, lr}
 1003              		.cfi_def_cfa_offset 12
 1004              		.cfi_offset 4, -12
 1005              		.cfi_offset 7, -8
 1006              		.cfi_offset 14, -4
 1007 0002 89B0     		sub	sp, sp, #36
 1008              		.cfi_def_cfa_offset 48
 1009 0004 00AF     		add	r7, sp, #0
 1010              		.cfi_def_cfa_register 7
 1011 0006 F860     		str	r0, [r7, #12]
 1012 0008 B960     		str	r1, [r7, #8]	@ float
 1013 000a 7A60     		str	r2, [r7, #4]
 184:.\my_camera_functions.c ****     int y,x,count,index = 0;
 1014              		.loc 1 184 0
 1015 000c 0023     		movs	r3, #0
 1016 000e 3B61     		str	r3, [r7, #16]
 185:.\my_camera_functions.c ****     for(y = 0; y <= row_limit; y++)
 1017              		.loc 1 185 0
 1018 0010 0023     		movs	r3, #0
 1019 0012 FB61     		str	r3, [r7, #28]
 1020 0014 2FE0     		b	.L42
 1021              	.L48:
 186:.\my_camera_functions.c ****     {
 187:.\my_camera_functions.c ****         count = 0;
 1022              		.loc 1 187 0
 1023 0016 0023     		movs	r3, #0
 1024 0018 7B61     		str	r3, [r7, #20]
 188:.\my_camera_functions.c ****         for(x = 0; x < 88; x++)
 1025              		.loc 1 188 0
 1026 001a 0023     		movs	r3, #0
 1027 001c BB61     		str	r3, [r7, #24]
 1028 001e 12E0     		b	.L43
 1029              	.L45:
 189:.\my_camera_functions.c ****         {
 190:.\my_camera_functions.c ****             if(PixelColour(x,y) == colour)
 1030              		.loc 1 190 0
 1031 0020 BB69     		ldr	r3, [r7, #24]
 1032 0022 DAB2     		uxtb	r2, r3
 1033 0024 FB69     		ldr	r3, [r7, #28]
 1034 0026 DBB2     		uxtb	r3, r3
 1035 0028 1046     		mov	r0, r2
 1036 002a 1946     		mov	r1, r3
 1037 002c FFF7FEFF 		bl	PixelColour
 1038 0030 0346     		mov	r3, r0
 1039 0032 1A46     		mov	r2, r3
 1040 0034 FB68     		ldr	r3, [r7, #12]
 1041 0036 9A42     		cmp	r2, r3
 1042 0038 02D1     		bne	.L44
 191:.\my_camera_functions.c ****             {
ARM GAS  C:\Users\xavieran\AppData\Local\Temp\ccRA778j.s 			page 23


 192:.\my_camera_functions.c ****                 count++;
 1043              		.loc 1 192 0
 1044 003a 7B69     		ldr	r3, [r7, #20]
 1045 003c 0133     		adds	r3, r3, #1
 1046 003e 7B61     		str	r3, [r7, #20]
 1047              	.L44:
 188:.\my_camera_functions.c ****         for(x = 0; x < 88; x++)
 1048              		.loc 1 188 0
 1049 0040 BB69     		ldr	r3, [r7, #24]
 1050 0042 0133     		adds	r3, r3, #1
 1051 0044 BB61     		str	r3, [r7, #24]
 1052              	.L43:
 188:.\my_camera_functions.c ****         for(x = 0; x < 88; x++)
 1053              		.loc 1 188 0 is_stmt 0 discriminator 1
 1054 0046 BB69     		ldr	r3, [r7, #24]
 1055 0048 572B     		cmp	r3, #87
 1056 004a E9DD     		ble	.L45
 193:.\my_camera_functions.c ****             }
 194:.\my_camera_functions.c ****         }
 195:.\my_camera_functions.c ****         if(count >= proportion*88)
 1057              		.loc 1 195 0 is_stmt 1
 1058 004c 7869     		ldr	r0, [r7, #20]
 1059 004e FFF7FEFF 		bl	__aeabi_i2f
 1060 0052 0446     		mov	r4, r0
 1061 0054 B868     		ldr	r0, [r7, #8]	@ float
 1062 0056 3149     		ldr	r1, .L55
 1063 0058 FFF7FEFF 		bl	__aeabi_fmul
 1064 005c 0346     		mov	r3, r0
 1065 005e 2046     		mov	r0, r4
 1066 0060 1946     		mov	r1, r3
 1067 0062 FFF7FEFF 		bl	__aeabi_fcmpge
 1068 0066 0346     		mov	r3, r0
 1069 0068 002B     		cmp	r3, #0
 1070 006a 01D0     		beq	.L46
 196:.\my_camera_functions.c ****         {
 197:.\my_camera_functions.c ****             index = y;
 1071              		.loc 1 197 0
 1072 006c FB69     		ldr	r3, [r7, #28]
 1073 006e 3B61     		str	r3, [r7, #16]
 1074              	.L46:
 185:.\my_camera_functions.c ****     for(y = 0; y <= row_limit; y++)
 1075              		.loc 1 185 0
 1076 0070 FB69     		ldr	r3, [r7, #28]
 1077 0072 0133     		adds	r3, r3, #1
 1078 0074 FB61     		str	r3, [r7, #28]
 1079              	.L42:
 185:.\my_camera_functions.c ****     for(y = 0; y <= row_limit; y++)
 1080              		.loc 1 185 0 is_stmt 0 discriminator 1
 1081 0076 FA69     		ldr	r2, [r7, #28]
 1082 0078 7B68     		ldr	r3, [r7, #4]
 1083 007a 9A42     		cmp	r2, r3
 1084 007c CBDD     		ble	.L48
 198:.\my_camera_functions.c ****         }
 199:.\my_camera_functions.c ****     }
 200:.\my_camera_functions.c ****     for(y = 0; y <= index; y++)
 1085              		.loc 1 200 0 is_stmt 1
 1086 007e 0023     		movs	r3, #0
ARM GAS  C:\Users\xavieran\AppData\Local\Temp\ccRA778j.s 			page 24


 1087 0080 FB61     		str	r3, [r7, #28]
 1088 0082 43E0     		b	.L49
 1089              	.L53:
 201:.\my_camera_functions.c ****     {
 202:.\my_camera_functions.c ****         for(x = 0; x < 88; x++)
 1090              		.loc 1 202 0
 1091 0084 0023     		movs	r3, #0
 1092 0086 BB61     		str	r3, [r7, #24]
 1093 0088 3AE0     		b	.L50
 1094              	.L52:
 203:.\my_camera_functions.c ****             {
 204:.\my_camera_functions.c ****                 if(PixelColour(x,y) == colour)
 1095              		.loc 1 204 0
 1096 008a BB69     		ldr	r3, [r7, #24]
 1097 008c DAB2     		uxtb	r2, r3
 1098 008e FB69     		ldr	r3, [r7, #28]
 1099 0090 DBB2     		uxtb	r3, r3
 1100 0092 1046     		mov	r0, r2
 1101 0094 1946     		mov	r1, r3
 1102 0096 FFF7FEFF 		bl	PixelColour
 1103 009a 0346     		mov	r3, r0
 1104 009c 1A46     		mov	r2, r3
 1105 009e FB68     		ldr	r3, [r7, #12]
 1106 00a0 9A42     		cmp	r2, r3
 1107 00a2 2AD1     		bne	.L51
 205:.\my_camera_functions.c ****                 {
 206:.\my_camera_functions.c ****                     Camera_framebuffer[y][x][0] = 127;
 1108              		.loc 1 206 0
 1109 00a4 1E4B     		ldr	r3, .L55+4
 1110 00a6 FA69     		ldr	r2, [r7, #28]
 1111 00a8 5821     		movs	r1, #88
 1112 00aa 01FB02F1 		mul	r1, r1, r2
 1113 00ae BA69     		ldr	r2, [r7, #24]
 1114 00b0 0A44     		add	r2, r2, r1
 1115 00b2 7F21     		movs	r1, #127
 1116 00b4 03F82210 		strb	r1, [r3, r2, lsl #2]
 207:.\my_camera_functions.c **** 			        Camera_framebuffer[y][x][2] = 127;
 1117              		.loc 1 207 0
 1118 00b8 194A     		ldr	r2, .L55+4
 1119 00ba FB69     		ldr	r3, [r7, #28]
 1120 00bc 5821     		movs	r1, #88
 1121 00be 01FB03F1 		mul	r1, r1, r3
 1122 00c2 BB69     		ldr	r3, [r7, #24]
 1123 00c4 0B44     		add	r3, r3, r1
 1124 00c6 9B00     		lsls	r3, r3, #2
 1125 00c8 1344     		add	r3, r3, r2
 1126 00ca 7F22     		movs	r2, #127
 1127 00cc 9A70     		strb	r2, [r3, #2]
 208:.\my_camera_functions.c ****                     Camera_framebuffer[y][x][1] = 0;
 1128              		.loc 1 208 0
 1129 00ce 144A     		ldr	r2, .L55+4
 1130 00d0 FB69     		ldr	r3, [r7, #28]
 1131 00d2 5821     		movs	r1, #88
 1132 00d4 01FB03F1 		mul	r1, r1, r3
 1133 00d8 BB69     		ldr	r3, [r7, #24]
 1134 00da 0B44     		add	r3, r3, r1
 1135 00dc 9B00     		lsls	r3, r3, #2
ARM GAS  C:\Users\xavieran\AppData\Local\Temp\ccRA778j.s 			page 25


 1136 00de 1344     		add	r3, r3, r2
 1137 00e0 0022     		movs	r2, #0
 1138 00e2 5A70     		strb	r2, [r3, #1]
 209:.\my_camera_functions.c ****                     Camera_framebuffer[y][x][3] = 0;
 1139              		.loc 1 209 0
 1140 00e4 0E4A     		ldr	r2, .L55+4
 1141 00e6 FB69     		ldr	r3, [r7, #28]
 1142 00e8 5821     		movs	r1, #88
 1143 00ea 01FB03F1 		mul	r1, r1, r3
 1144 00ee BB69     		ldr	r3, [r7, #24]
 1145 00f0 0B44     		add	r3, r3, r1
 1146 00f2 9B00     		lsls	r3, r3, #2
 1147 00f4 1344     		add	r3, r3, r2
 1148 00f6 0022     		movs	r2, #0
 1149 00f8 DA70     		strb	r2, [r3, #3]
 1150              	.L51:
 202:.\my_camera_functions.c ****         for(x = 0; x < 88; x++)
 1151              		.loc 1 202 0
 1152 00fa BB69     		ldr	r3, [r7, #24]
 1153 00fc 0133     		adds	r3, r3, #1
 1154 00fe BB61     		str	r3, [r7, #24]
 1155              	.L50:
 202:.\my_camera_functions.c ****         for(x = 0; x < 88; x++)
 1156              		.loc 1 202 0 is_stmt 0 discriminator 1
 1157 0100 BB69     		ldr	r3, [r7, #24]
 1158 0102 572B     		cmp	r3, #87
 1159 0104 C1DD     		ble	.L52
 200:.\my_camera_functions.c ****     for(y = 0; y <= index; y++)
 1160              		.loc 1 200 0 is_stmt 1
 1161 0106 FB69     		ldr	r3, [r7, #28]
 1162 0108 0133     		adds	r3, r3, #1
 1163 010a FB61     		str	r3, [r7, #28]
 1164              	.L49:
 200:.\my_camera_functions.c ****     for(y = 0; y <= index; y++)
 1165              		.loc 1 200 0 is_stmt 0 discriminator 1
 1166 010c FA69     		ldr	r2, [r7, #28]
 1167 010e 3B69     		ldr	r3, [r7, #16]
 1168 0110 9A42     		cmp	r2, r3
 1169 0112 B7DD     		ble	.L53
 210:.\my_camera_functions.c ****                 }
 211:.\my_camera_functions.c ****             }
 212:.\my_camera_functions.c ****     }
 213:.\my_camera_functions.c **** }
 1170              		.loc 1 213 0 is_stmt 1
 1171 0114 2437     		adds	r7, r7, #36
 1172 0116 BD46     		mov	sp, r7
 1173              		@ sp needed
 1174 0118 90BD     		pop	{r4, r7, pc}
 1175              	.L56:
 1176 011a 00BF     		.align	2
 1177              	.L55:
 1178 011c 0000B042 		.word	1118830592
 1179 0120 00000000 		.word	Camera_framebuffer
 1180              		.cfi_endproc
 1181              	.LFE69:
 1182              		.size	clean_frame, .-clean_frame
 1183              		.section	.text.identify_colour_instructions,"ax",%progbits
ARM GAS  C:\Users\xavieran\AppData\Local\Temp\ccRA778j.s 			page 26


 1184              		.align	2
 1185              		.global	identify_colour_instructions
 1186              		.thumb
 1187              		.thumb_func
 1188              		.type	identify_colour_instructions, %function
 1189              	identify_colour_instructions:
 1190              	.LFB70:
 214:.\my_camera_functions.c **** 
 215:.\my_camera_functions.c **** 
 216:.\my_camera_functions.c **** int identify_colour_instructions(int size)
 217:.\my_camera_functions.c **** {
 1191              		.loc 1 217 0
 1192              		.cfi_startproc
 1193              		@ args = 0, pretend = 0, frame = 16
 1194              		@ frame_needed = 1, uses_anonymous_args = 0
 1195              		@ link register save eliminated.
 1196 0000 80B4     		push	{r7}
 1197              		.cfi_def_cfa_offset 4
 1198              		.cfi_offset 7, -4
 1199 0002 85B0     		sub	sp, sp, #20
 1200              		.cfi_def_cfa_offset 24
 1201 0004 00AF     		add	r7, sp, #0
 1202              		.cfi_def_cfa_register 7
 1203 0006 7860     		str	r0, [r7, #4]
 218:.\my_camera_functions.c ****     int x = -1;
 1204              		.loc 1 218 0
 1205 0008 4FF0FF33 		mov	r3, #-1
 1206 000c FB60     		str	r3, [r7, #12]
 219:.\my_camera_functions.c ****     if(blobs[0].size >= size)
 1207              		.loc 1 219 0
 1208 000e 084B     		ldr	r3, .L60
 1209 0010 1B68     		ldr	r3, [r3]
 1210 0012 5A68     		ldr	r2, [r3, #4]
 1211 0014 7B68     		ldr	r3, [r7, #4]
 1212 0016 9A42     		cmp	r2, r3
 1213 0018 03D3     		bcc	.L58
 220:.\my_camera_functions.c ****     {
 221:.\my_camera_functions.c ****         x = blobs[0].colour;
 1214              		.loc 1 221 0
 1215 001a 054B     		ldr	r3, .L60
 1216 001c 1B68     		ldr	r3, [r3]
 1217 001e 1B68     		ldr	r3, [r3]
 1218 0020 FB60     		str	r3, [r7, #12]
 1219              	.L58:
 222:.\my_camera_functions.c ****     }
 223:.\my_camera_functions.c ****     return x;
 1220              		.loc 1 223 0
 1221 0022 FB68     		ldr	r3, [r7, #12]
 224:.\my_camera_functions.c ****     //PixelColour(88/2,144/2);
 225:.\my_camera_functions.c **** }
 1222              		.loc 1 225 0
 1223 0024 1846     		mov	r0, r3
 1224 0026 1437     		adds	r7, r7, #20
 1225 0028 BD46     		mov	sp, r7
 1226              		@ sp needed
 1227 002a 5DF8047B 		ldr	r7, [sp], #4
 1228 002e 7047     		bx	lr
ARM GAS  C:\Users\xavieran\AppData\Local\Temp\ccRA778j.s 			page 27


 1229              	.L61:
 1230              		.align	2
 1231              	.L60:
 1232 0030 00000000 		.word	blobs
 1233              		.cfi_endproc
 1234              	.LFE70:
 1235              		.size	identify_colour_instructions, .-identify_colour_instructions
 1236              		.section	.text.identify_colour_gripper,"ax",%progbits
 1237              		.align	2
 1238              		.global	identify_colour_gripper
 1239              		.thumb
 1240              		.thumb_func
 1241              		.type	identify_colour_gripper, %function
 1242              	identify_colour_gripper:
 1243              	.LFB71:
 226:.\my_camera_functions.c **** 
 227:.\my_camera_functions.c **** int identify_colour_gripper()
 228:.\my_camera_functions.c **** {
 1244              		.loc 1 228 0
 1245              		.cfi_startproc
 1246              		@ args = 0, pretend = 0, frame = 0
 1247              		@ frame_needed = 1, uses_anonymous_args = 0
 1248 0000 80B5     		push	{r7, lr}
 1249              		.cfi_def_cfa_offset 8
 1250              		.cfi_offset 7, -8
 1251              		.cfi_offset 14, -4
 1252 0002 00AF     		add	r7, sp, #0
 1253              		.cfi_def_cfa_register 7
 229:.\my_camera_functions.c ****      return PixelColour(88/2,144);  
 1254              		.loc 1 229 0
 1255 0004 2C20     		movs	r0, #44
 1256 0006 9021     		movs	r1, #144
 1257 0008 FFF7FEFF 		bl	PixelColour
 1258 000c 0346     		mov	r3, r0
 230:.\my_camera_functions.c **** }
 1259              		.loc 1 230 0
 1260 000e 1846     		mov	r0, r3
 1261 0010 80BD     		pop	{r7, pc}
 1262              		.cfi_endproc
 1263              	.LFE71:
 1264              		.size	identify_colour_gripper, .-identify_colour_gripper
 1265 0012 00BF     		.section	.text.PixelLuminence,"ax",%progbits
 1266              		.align	2
 1267              		.global	PixelLuminence
 1268              		.thumb
 1269              		.thumb_func
 1270              		.type	PixelLuminence, %function
 1271              	PixelLuminence:
 1272              	.LFB72:
 231:.\my_camera_functions.c **** 
 232:.\my_camera_functions.c **** 
 233:.\my_camera_functions.c **** int PixelLuminence(int x, int y)
 234:.\my_camera_functions.c **** {
 1273              		.loc 1 234 0
 1274              		.cfi_startproc
 1275              		@ args = 0, pretend = 0, frame = 8
 1276              		@ frame_needed = 1, uses_anonymous_args = 0
ARM GAS  C:\Users\xavieran\AppData\Local\Temp\ccRA778j.s 			page 28


 1277              		@ link register save eliminated.
 1278 0000 80B4     		push	{r7}
 1279              		.cfi_def_cfa_offset 4
 1280              		.cfi_offset 7, -4
 1281 0002 83B0     		sub	sp, sp, #12
 1282              		.cfi_def_cfa_offset 16
 1283 0004 00AF     		add	r7, sp, #0
 1284              		.cfi_def_cfa_register 7
 1285 0006 7860     		str	r0, [r7, #4]
 1286 0008 3960     		str	r1, [r7]
 235:.\my_camera_functions.c **** 	return (Camera_framebuffer[y][x][1] > 127) && (Camera_framebuffer[y][x][3] > 127);
 1287              		.loc 1 235 0
 1288 000a 124A     		ldr	r2, .L68
 1289 000c 3B68     		ldr	r3, [r7]
 1290 000e 5821     		movs	r1, #88
 1291 0010 01FB03F1 		mul	r1, r1, r3
 1292 0014 7B68     		ldr	r3, [r7, #4]
 1293 0016 0B44     		add	r3, r3, r1
 1294 0018 9B00     		lsls	r3, r3, #2
 1295 001a 1344     		add	r3, r3, r2
 1296 001c 5B78     		ldrb	r3, [r3, #1]	@ zero_extendqisi2
 1297 001e DBB2     		uxtb	r3, r3
 1298 0020 5BB2     		sxtb	r3, r3
 1299 0022 002B     		cmp	r3, #0
 1300 0024 0FDA     		bge	.L65
 1301              		.loc 1 235 0 is_stmt 0 discriminator 1
 1302 0026 0B4A     		ldr	r2, .L68
 1303 0028 3B68     		ldr	r3, [r7]
 1304 002a 5821     		movs	r1, #88
 1305 002c 01FB03F1 		mul	r1, r1, r3
 1306 0030 7B68     		ldr	r3, [r7, #4]
 1307 0032 0B44     		add	r3, r3, r1
 1308 0034 9B00     		lsls	r3, r3, #2
 1309 0036 1344     		add	r3, r3, r2
 1310 0038 DB78     		ldrb	r3, [r3, #3]	@ zero_extendqisi2
 1311 003a DBB2     		uxtb	r3, r3
 1312 003c 5BB2     		sxtb	r3, r3
 1313 003e 002B     		cmp	r3, #0
 1314 0040 01DA     		bge	.L65
 1315              		.loc 1 235 0 discriminator 3
 1316 0042 0123     		movs	r3, #1
 1317 0044 00E0     		b	.L66
 1318              	.L65:
 1319              		.loc 1 235 0 discriminator 2
 1320 0046 0023     		movs	r3, #0
 1321              	.L66:
 236:.\my_camera_functions.c **** } 
 1322              		.loc 1 236 0 is_stmt 1 discriminator 4
 1323 0048 1846     		mov	r0, r3
 1324 004a 0C37     		adds	r7, r7, #12
 1325 004c BD46     		mov	sp, r7
 1326              		@ sp needed
 1327 004e 5DF8047B 		ldr	r7, [sp], #4
 1328 0052 7047     		bx	lr
 1329              	.L69:
 1330              		.align	2
 1331              	.L68:
ARM GAS  C:\Users\xavieran\AppData\Local\Temp\ccRA778j.s 			page 29


 1332 0054 00000000 		.word	Camera_framebuffer
 1333              		.cfi_endproc
 1334              	.LFE72:
 1335              		.size	PixelLuminence, .-PixelLuminence
 1336              		.section	.text.threshold_black,"ax",%progbits
 1337              		.align	2
 1338              		.global	threshold_black
 1339              		.thumb
 1340              		.thumb_func
 1341              		.type	threshold_black, %function
 1342              	threshold_black:
 1343              	.LFB73:
 237:.\my_camera_functions.c **** 
 238:.\my_camera_functions.c **** 
 239:.\my_camera_functions.c **** void threshold_black()
 240:.\my_camera_functions.c **** {
 1344              		.loc 1 240 0
 1345              		.cfi_startproc
 1346              		@ args = 0, pretend = 0, frame = 16
 1347              		@ frame_needed = 1, uses_anonymous_args = 0
 1348 0000 80B5     		push	{r7, lr}
 1349              		.cfi_def_cfa_offset 8
 1350              		.cfi_offset 7, -8
 1351              		.cfi_offset 14, -4
 1352 0002 84B0     		sub	sp, sp, #16
 1353              		.cfi_def_cfa_offset 24
 1354 0004 00AF     		add	r7, sp, #0
 1355              		.cfi_def_cfa_register 7
 241:.\my_camera_functions.c **** 	int y,x,k,i;
 242:.\my_camera_functions.c **** 	for(y = 0; y < 144; y++)
 1356              		.loc 1 242 0
 1357 0006 0023     		movs	r3, #0
 1358 0008 FB60     		str	r3, [r7, #12]
 1359 000a BBE0     		b	.L71
 1360              	.L81:
 243:.\my_camera_functions.c **** 	{
 244:.\my_camera_functions.c **** 		for(x = 0; x < 88; x++)
 1361              		.loc 1 244 0
 1362 000c 0023     		movs	r3, #0
 1363 000e BB60     		str	r3, [r7, #8]
 1364 0010 B1E0     		b	.L72
 1365              	.L80:
 245:.\my_camera_functions.c **** 		{
 246:.\my_camera_functions.c **** 			k = 0;
 1366              		.loc 1 246 0
 1367 0012 0023     		movs	r3, #0
 1368 0014 3B60     		str	r3, [r7]
 247:.\my_camera_functions.c **** 			if(y == 0 || y == 143 || x == 0 || x == 143)
 1369              		.loc 1 247 0
 1370 0016 FB68     		ldr	r3, [r7, #12]
 1371 0018 002B     		cmp	r3, #0
 1372 001a 08D0     		beq	.L73
 1373              		.loc 1 247 0 is_stmt 0 discriminator 1
 1374 001c FB68     		ldr	r3, [r7, #12]
 1375 001e 8F2B     		cmp	r3, #143
 1376 0020 05D0     		beq	.L73
 1377 0022 BB68     		ldr	r3, [r7, #8]
ARM GAS  C:\Users\xavieran\AppData\Local\Temp\ccRA778j.s 			page 30


 1378 0024 002B     		cmp	r3, #0
 1379 0026 02D0     		beq	.L73
 1380 0028 BB68     		ldr	r3, [r7, #8]
 1381 002a 8F2B     		cmp	r3, #143
 1382 002c 24D1     		bne	.L74
 1383              	.L73:
 248:.\my_camera_functions.c **** 			{
 249:.\my_camera_functions.c **** 				for(i = 0; i < 2; i++)
 1384              		.loc 1 249 0 is_stmt 1
 1385 002e 0023     		movs	r3, #0
 1386 0030 7B60     		str	r3, [r7, #4]
 1387 0032 1DE0     		b	.L75
 1388              	.L76:
 250:.\my_camera_functions.c **** 				{
 251:.\my_camera_functions.c **** 					Camera_framebuffer[y][x][i] = 127;
 1389              		.loc 1 251 0 discriminator 2
 1390 0034 574A     		ldr	r2, .L82
 1391 0036 FB68     		ldr	r3, [r7, #12]
 1392 0038 5821     		movs	r1, #88
 1393 003a 01FB03F1 		mul	r1, r1, r3
 1394 003e BB68     		ldr	r3, [r7, #8]
 1395 0040 0B44     		add	r3, r3, r1
 1396 0042 9900     		lsls	r1, r3, #2
 1397 0044 7B68     		ldr	r3, [r7, #4]
 1398 0046 0B44     		add	r3, r3, r1
 1399 0048 1344     		add	r3, r3, r2
 1400 004a 7F22     		movs	r2, #127
 1401 004c 1A70     		strb	r2, [r3]
 252:.\my_camera_functions.c ****                     Camera_framebuffer[y][x][i+1] = 255;
 1402              		.loc 1 252 0 discriminator 2
 1403 004e 7B68     		ldr	r3, [r7, #4]
 1404 0050 0133     		adds	r3, r3, #1
 1405 0052 504A     		ldr	r2, .L82
 1406 0054 F968     		ldr	r1, [r7, #12]
 1407 0056 5820     		movs	r0, #88
 1408 0058 00FB01F0 		mul	r0, r0, r1
 1409 005c B968     		ldr	r1, [r7, #8]
 1410 005e 0144     		add	r1, r1, r0
 1411 0060 8900     		lsls	r1, r1, #2
 1412 0062 0B44     		add	r3, r3, r1
 1413 0064 1344     		add	r3, r3, r2
 1414 0066 FF22     		movs	r2, #255
 1415 0068 1A70     		strb	r2, [r3]
 249:.\my_camera_functions.c **** 				for(i = 0; i < 2; i++)
 1416              		.loc 1 249 0 discriminator 2
 1417 006a 7B68     		ldr	r3, [r7, #4]
 1418 006c 0133     		adds	r3, r3, #1
 1419 006e 7B60     		str	r3, [r7, #4]
 1420              	.L75:
 249:.\my_camera_functions.c **** 				for(i = 0; i < 2; i++)
 1421              		.loc 1 249 0 is_stmt 0 discriminator 1
 1422 0070 7B68     		ldr	r3, [r7, #4]
 1423 0072 012B     		cmp	r3, #1
 1424 0074 DEDD     		ble	.L76
 247:.\my_camera_functions.c **** 			if(y == 0 || y == 143 || x == 0 || x == 143)
 1425              		.loc 1 247 0 is_stmt 1
 1426 0076 57E0     		b	.L77
ARM GAS  C:\Users\xavieran\AppData\Local\Temp\ccRA778j.s 			page 31


 1427              	.L74:
 253:.\my_camera_functions.c **** 				}
 254:.\my_camera_functions.c ****             }
 255:.\my_camera_functions.c **** 			else
 256:.\my_camera_functions.c ****             {
 257:.\my_camera_functions.c **** 		    	k += PixelLuminence(x-1,y-1);
 1428              		.loc 1 257 0
 1429 0078 BB68     		ldr	r3, [r7, #8]
 1430 007a 5A1E     		subs	r2, r3, #1
 1431 007c FB68     		ldr	r3, [r7, #12]
 1432 007e 013B     		subs	r3, r3, #1
 1433 0080 1046     		mov	r0, r2
 1434 0082 1946     		mov	r1, r3
 1435 0084 FFF7FEFF 		bl	PixelLuminence
 1436 0088 0346     		mov	r3, r0
 1437 008a 3A68     		ldr	r2, [r7]
 1438 008c 1344     		add	r3, r3, r2
 1439 008e 3B60     		str	r3, [r7]
 258:.\my_camera_functions.c **** 		    	k += PixelLuminence(x-1,y);
 1440              		.loc 1 258 0
 1441 0090 BB68     		ldr	r3, [r7, #8]
 1442 0092 013B     		subs	r3, r3, #1
 1443 0094 1846     		mov	r0, r3
 1444 0096 F968     		ldr	r1, [r7, #12]
 1445 0098 FFF7FEFF 		bl	PixelLuminence
 1446 009c 0346     		mov	r3, r0
 1447 009e 3A68     		ldr	r2, [r7]
 1448 00a0 1344     		add	r3, r3, r2
 1449 00a2 3B60     		str	r3, [r7]
 259:.\my_camera_functions.c **** 		    	k += PixelLuminence(x-1,y+1);
 1450              		.loc 1 259 0
 1451 00a4 BB68     		ldr	r3, [r7, #8]
 1452 00a6 5A1E     		subs	r2, r3, #1
 1453 00a8 FB68     		ldr	r3, [r7, #12]
 1454 00aa 0133     		adds	r3, r3, #1
 1455 00ac 1046     		mov	r0, r2
 1456 00ae 1946     		mov	r1, r3
 1457 00b0 FFF7FEFF 		bl	PixelLuminence
 1458 00b4 0346     		mov	r3, r0
 1459 00b6 3A68     		ldr	r2, [r7]
 1460 00b8 1344     		add	r3, r3, r2
 1461 00ba 3B60     		str	r3, [r7]
 260:.\my_camera_functions.c **** 		    	k += PixelLuminence(x,y-1);
 1462              		.loc 1 260 0
 1463 00bc FB68     		ldr	r3, [r7, #12]
 1464 00be 013B     		subs	r3, r3, #1
 1465 00c0 B868     		ldr	r0, [r7, #8]
 1466 00c2 1946     		mov	r1, r3
 1467 00c4 FFF7FEFF 		bl	PixelLuminence
 1468 00c8 0346     		mov	r3, r0
 1469 00ca 3A68     		ldr	r2, [r7]
 1470 00cc 1344     		add	r3, r3, r2
 1471 00ce 3B60     		str	r3, [r7]
 261:.\my_camera_functions.c **** 			   	k += PixelLuminence(x,y+1);
 1472              		.loc 1 261 0
 1473 00d0 FB68     		ldr	r3, [r7, #12]
 1474 00d2 0133     		adds	r3, r3, #1
ARM GAS  C:\Users\xavieran\AppData\Local\Temp\ccRA778j.s 			page 32


 1475 00d4 B868     		ldr	r0, [r7, #8]
 1476 00d6 1946     		mov	r1, r3
 1477 00d8 FFF7FEFF 		bl	PixelLuminence
 1478 00dc 0346     		mov	r3, r0
 1479 00de 3A68     		ldr	r2, [r7]
 1480 00e0 1344     		add	r3, r3, r2
 1481 00e2 3B60     		str	r3, [r7]
 262:.\my_camera_functions.c **** 			   	k += PixelLuminence(x+1,y-1);
 1482              		.loc 1 262 0
 1483 00e4 BB68     		ldr	r3, [r7, #8]
 1484 00e6 5A1C     		adds	r2, r3, #1
 1485 00e8 FB68     		ldr	r3, [r7, #12]
 1486 00ea 013B     		subs	r3, r3, #1
 1487 00ec 1046     		mov	r0, r2
 1488 00ee 1946     		mov	r1, r3
 1489 00f0 FFF7FEFF 		bl	PixelLuminence
 1490 00f4 0346     		mov	r3, r0
 1491 00f6 3A68     		ldr	r2, [r7]
 1492 00f8 1344     		add	r3, r3, r2
 1493 00fa 3B60     		str	r3, [r7]
 263:.\my_camera_functions.c **** 			   	k += PixelLuminence(x+1,y);
 1494              		.loc 1 263 0
 1495 00fc BB68     		ldr	r3, [r7, #8]
 1496 00fe 0133     		adds	r3, r3, #1
 1497 0100 1846     		mov	r0, r3
 1498 0102 F968     		ldr	r1, [r7, #12]
 1499 0104 FFF7FEFF 		bl	PixelLuminence
 1500 0108 0346     		mov	r3, r0
 1501 010a 3A68     		ldr	r2, [r7]
 1502 010c 1344     		add	r3, r3, r2
 1503 010e 3B60     		str	r3, [r7]
 264:.\my_camera_functions.c **** 			   	k += PixelLuminence(x+1,y+1);
 1504              		.loc 1 264 0
 1505 0110 BB68     		ldr	r3, [r7, #8]
 1506 0112 5A1C     		adds	r2, r3, #1
 1507 0114 FB68     		ldr	r3, [r7, #12]
 1508 0116 0133     		adds	r3, r3, #1
 1509 0118 1046     		mov	r0, r2
 1510 011a 1946     		mov	r1, r3
 1511 011c FFF7FEFF 		bl	PixelLuminence
 1512 0120 0346     		mov	r3, r0
 1513 0122 3A68     		ldr	r2, [r7]
 1514 0124 1344     		add	r3, r3, r2
 1515 0126 3B60     		str	r3, [r7]
 1516              	.L77:
 265:.\my_camera_functions.c **** 			}
 266:.\my_camera_functions.c **** 			for(i = 0; i < 2; i++)
 1517              		.loc 1 266 0
 1518 0128 0023     		movs	r3, #0
 1519 012a 7B60     		str	r3, [r7, #4]
 1520 012c 1DE0     		b	.L78
 1521              	.L79:
 267:.\my_camera_functions.c **** 			{
 268:.\my_camera_functions.c ****                 Camera_framebuffer[y][x][i] = 127;
 1522              		.loc 1 268 0 discriminator 2
 1523 012e 194A     		ldr	r2, .L82
 1524 0130 FB68     		ldr	r3, [r7, #12]
ARM GAS  C:\Users\xavieran\AppData\Local\Temp\ccRA778j.s 			page 33


 1525 0132 5821     		movs	r1, #88
 1526 0134 01FB03F1 		mul	r1, r1, r3
 1527 0138 BB68     		ldr	r3, [r7, #8]
 1528 013a 0B44     		add	r3, r3, r1
 1529 013c 9900     		lsls	r1, r3, #2
 1530 013e 7B68     		ldr	r3, [r7, #4]
 1531 0140 0B44     		add	r3, r3, r1
 1532 0142 1344     		add	r3, r3, r2
 1533 0144 7F22     		movs	r2, #127
 1534 0146 1A70     		strb	r2, [r3]
 269:.\my_camera_functions.c **** 				Camera_framebuffer[y][x][i+1] = 0;
 1535              		.loc 1 269 0 discriminator 2
 1536 0148 7B68     		ldr	r3, [r7, #4]
 1537 014a 0133     		adds	r3, r3, #1
 1538 014c 114A     		ldr	r2, .L82
 1539 014e F968     		ldr	r1, [r7, #12]
 1540 0150 5820     		movs	r0, #88
 1541 0152 00FB01F0 		mul	r0, r0, r1
 1542 0156 B968     		ldr	r1, [r7, #8]
 1543 0158 0144     		add	r1, r1, r0
 1544 015a 8900     		lsls	r1, r1, #2
 1545 015c 0B44     		add	r3, r3, r1
 1546 015e 1344     		add	r3, r3, r2
 1547 0160 0022     		movs	r2, #0
 1548 0162 1A70     		strb	r2, [r3]
 266:.\my_camera_functions.c **** 			for(i = 0; i < 2; i++)
 1549              		.loc 1 266 0 discriminator 2
 1550 0164 7B68     		ldr	r3, [r7, #4]
 1551 0166 0133     		adds	r3, r3, #1
 1552 0168 7B60     		str	r3, [r7, #4]
 1553              	.L78:
 266:.\my_camera_functions.c **** 			for(i = 0; i < 2; i++)
 1554              		.loc 1 266 0 is_stmt 0 discriminator 1
 1555 016a 7B68     		ldr	r3, [r7, #4]
 1556 016c 012B     		cmp	r3, #1
 1557 016e DEDD     		ble	.L79
 244:.\my_camera_functions.c **** 		for(x = 0; x < 88; x++)
 1558              		.loc 1 244 0 is_stmt 1
 1559 0170 BB68     		ldr	r3, [r7, #8]
 1560 0172 0133     		adds	r3, r3, #1
 1561 0174 BB60     		str	r3, [r7, #8]
 1562              	.L72:
 244:.\my_camera_functions.c **** 		for(x = 0; x < 88; x++)
 1563              		.loc 1 244 0 is_stmt 0 discriminator 1
 1564 0176 BB68     		ldr	r3, [r7, #8]
 1565 0178 572B     		cmp	r3, #87
 1566 017a 7FF74AAF 		ble	.L80
 242:.\my_camera_functions.c **** 	for(y = 0; y < 144; y++)
 1567              		.loc 1 242 0 is_stmt 1
 1568 017e FB68     		ldr	r3, [r7, #12]
 1569 0180 0133     		adds	r3, r3, #1
 1570 0182 FB60     		str	r3, [r7, #12]
 1571              	.L71:
 242:.\my_camera_functions.c **** 	for(y = 0; y < 144; y++)
 1572              		.loc 1 242 0 is_stmt 0 discriminator 1
 1573 0184 FB68     		ldr	r3, [r7, #12]
 1574 0186 8F2B     		cmp	r3, #143
ARM GAS  C:\Users\xavieran\AppData\Local\Temp\ccRA778j.s 			page 34


 1575 0188 7FF740AF 		ble	.L81
 270:.\my_camera_functions.c **** 			}
 271:.\my_camera_functions.c **** 		}
 272:.\my_camera_functions.c **** 	}
 273:.\my_camera_functions.c **** }
 1576              		.loc 1 273 0 is_stmt 1
 1577 018c 1037     		adds	r7, r7, #16
 1578 018e BD46     		mov	sp, r7
 1579              		@ sp needed
 1580 0190 80BD     		pop	{r7, pc}
 1581              	.L83:
 1582 0192 00BF     		.align	2
 1583              	.L82:
 1584 0194 00000000 		.word	Camera_framebuffer
 1585              		.cfi_endproc
 1586              	.LFE73:
 1587              		.size	threshold_black, .-threshold_black
 1588              		.section	.rodata
 1589 0041 000000   		.align	2
 1590              	.LC5:
 1591 0044 313A2563 		.ascii	"1:%c 2:%c 3:%c 4:%c\000"
 1591      20323A25 
 1591      6320333A 
 1591      25632034 
 1591      3A256300 
 1592              		.align	2
 1593              	.LC0:
 1594 0058 4B       		.byte	75
 1595 0059 52       		.byte	82
 1596 005a 47       		.byte	71
 1597 005b 42       		.byte	66
 1598              		.section	.text.read_instruction_routine,"ax",%progbits
 1599              		.align	2
 1600              		.global	read_instruction_routine
 1601              		.thumb
 1602              		.thumb_func
 1603              		.type	read_instruction_routine, %function
 1604              	read_instruction_routine:
 1605              	.LFB74:
 274:.\my_camera_functions.c **** 
 275:.\my_camera_functions.c **** void read_instruction_routine()
 276:.\my_camera_functions.c **** {
 1606              		.loc 1 276 0
 1607              		.cfi_startproc
 1608              		@ args = 0, pretend = 0, frame = 24
 1609              		@ frame_needed = 1, uses_anonymous_args = 0
 1610 0000 90B5     		push	{r4, r7, lr}
 1611              		.cfi_def_cfa_offset 12
 1612              		.cfi_offset 4, -12
 1613              		.cfi_offset 7, -8
 1614              		.cfi_offset 14, -4
 1615 0002 89B0     		sub	sp, sp, #36
 1616              		.cfi_def_cfa_offset 48
 1617 0004 02AF     		add	r7, sp, #8
 1618              		.cfi_def_cfa 7, 40
 277:.\my_camera_functions.c ****     arm_set_level(0);
 1619              		.loc 1 277 0
ARM GAS  C:\Users\xavieran\AppData\Local\Temp\ccRA778j.s 			page 35


 1620 0006 0020     		movs	r0, #0
 1621 0008 FFF7FEFF 		bl	arm_set_level
 278:.\my_camera_functions.c ****     CyDelay(100);
 1622              		.loc 1 278 0
 1623 000c 6420     		movs	r0, #100
 1624 000e FFF7FEFF 		bl	CyDelay
 279:.\my_camera_functions.c ****     stack[0] = instruction_read();
 1625              		.loc 1 279 0
 1626 0012 FFF7FEFF 		bl	instruction_read
 1627 0016 0246     		mov	r2, r0
 1628 0018 2D4B     		ldr	r3, .L85
 1629 001a 1A60     		str	r2, [r3]
 280:.\my_camera_functions.c ****     arm_set_level(1);
 1630              		.loc 1 280 0
 1631 001c 0120     		movs	r0, #1
 1632 001e FFF7FEFF 		bl	arm_set_level
 281:.\my_camera_functions.c ****     CyDelay(100);
 1633              		.loc 1 281 0
 1634 0022 6420     		movs	r0, #100
 1635 0024 FFF7FEFF 		bl	CyDelay
 282:.\my_camera_functions.c ****     stack[1] = instruction_read();
 1636              		.loc 1 282 0
 1637 0028 FFF7FEFF 		bl	instruction_read
 1638 002c 0246     		mov	r2, r0
 1639 002e 284B     		ldr	r3, .L85
 1640 0030 5A60     		str	r2, [r3, #4]
 283:.\my_camera_functions.c ****     arm_set_level(2);
 1641              		.loc 1 283 0
 1642 0032 0220     		movs	r0, #2
 1643 0034 FFF7FEFF 		bl	arm_set_level
 284:.\my_camera_functions.c ****     CyDelay(100);
 1644              		.loc 1 284 0
 1645 0038 6420     		movs	r0, #100
 1646 003a FFF7FEFF 		bl	CyDelay
 285:.\my_camera_functions.c ****     stack[2] = instruction_read();
 1647              		.loc 1 285 0
 1648 003e FFF7FEFF 		bl	instruction_read
 1649 0042 0246     		mov	r2, r0
 1650 0044 224B     		ldr	r3, .L85
 1651 0046 9A60     		str	r2, [r3, #8]
 286:.\my_camera_functions.c ****     arm_set_level(3);
 1652              		.loc 1 286 0
 1653 0048 0320     		movs	r0, #3
 1654 004a FFF7FEFF 		bl	arm_set_level
 287:.\my_camera_functions.c ****     CyDelay(100);
 1655              		.loc 1 287 0
 1656 004e 6420     		movs	r0, #100
 1657 0050 FFF7FEFF 		bl	CyDelay
 288:.\my_camera_functions.c ****     stack[3] = instruction_read();
 1658              		.loc 1 288 0
 1659 0054 FFF7FEFF 		bl	instruction_read
 1660 0058 0246     		mov	r2, r0
 1661 005a 1D4B     		ldr	r3, .L85
 1662 005c DA60     		str	r2, [r3, #12]
 289:.\my_camera_functions.c ****     char RGB[] = {'K','R','G','B'};
 1663              		.loc 1 289 0
 1664 005e 1D4A     		ldr	r2, .L85+4
ARM GAS  C:\Users\xavieran\AppData\Local\Temp\ccRA778j.s 			page 36


 1665 0060 07F11403 		add	r3, r7, #20
 1666 0064 1068     		ldr	r0, [r2]	@ unaligned
 1667 0066 1860     		str	r0, [r3]	@ unaligned
 290:.\my_camera_functions.c ****     char display[20];
 291:.\my_camera_functions.c ****     sprintf(display,"1:%c 2:%c 3:%c 4:%c",RGB[stack[0]],RGB[stack[1]],RGB[stack[2]],RGB[stack[3]]);
 1668              		.loc 1 291 0
 1669 0068 194B     		ldr	r3, .L85
 1670 006a 1B68     		ldr	r3, [r3]
 1671 006c 07F11800 		add	r0, r7, #24
 1672 0070 0344     		add	r3, r3, r0
 1673 0072 13F8043C 		ldrb	r3, [r3, #-4]	@ zero_extendqisi2
 1674 0076 1A46     		mov	r2, r3
 1675 0078 154B     		ldr	r3, .L85
 1676 007a 5B68     		ldr	r3, [r3, #4]
 1677 007c 07F11801 		add	r1, r7, #24
 1678 0080 0B44     		add	r3, r3, r1
 1679 0082 13F8043C 		ldrb	r3, [r3, #-4]	@ zero_extendqisi2
 1680 0086 1249     		ldr	r1, .L85
 1681 0088 8968     		ldr	r1, [r1, #8]
 1682 008a 07F11800 		add	r0, r7, #24
 1683 008e 0144     		add	r1, r1, r0
 1684 0090 11F8041C 		ldrb	r1, [r1, #-4]	@ zero_extendqisi2
 1685 0094 0C46     		mov	r4, r1
 1686 0096 0E49     		ldr	r1, .L85
 1687 0098 C968     		ldr	r1, [r1, #12]
 1688 009a 07F11800 		add	r0, r7, #24
 1689 009e 0144     		add	r1, r1, r0
 1690 00a0 11F8041C 		ldrb	r1, [r1, #-4]	@ zero_extendqisi2
 1691 00a4 0846     		mov	r0, r1
 1692 00a6 3946     		mov	r1, r7
 1693 00a8 0094     		str	r4, [sp]
 1694 00aa 0190     		str	r0, [sp, #4]
 1695 00ac 0846     		mov	r0, r1
 1696 00ae 0A49     		ldr	r1, .L85+8
 1697 00b0 FFF7FEFF 		bl	sprintf
 292:.\my_camera_functions.c ****     LCD_ClearDisplay();
 1698              		.loc 1 292 0
 1699 00b4 0120     		movs	r0, #1
 1700 00b6 FFF7FEFF 		bl	LCD_WriteControl
 293:.\my_camera_functions.c ****     LCD_PosPrintString(0,0,display);
 1701              		.loc 1 293 0
 1702 00ba 0020     		movs	r0, #0
 1703 00bc 0021     		movs	r1, #0
 1704 00be FFF7FEFF 		bl	LCD_Position
 1705 00c2 3B46     		mov	r3, r7
 1706 00c4 1846     		mov	r0, r3
 1707 00c6 FFF7FEFF 		bl	LCD_PrintString
 294:.\my_camera_functions.c **** }
 1708              		.loc 1 294 0
 1709 00ca 1C37     		adds	r7, r7, #28
 1710 00cc BD46     		mov	sp, r7
 1711              		@ sp needed
 1712 00ce 90BD     		pop	{r4, r7, pc}
 1713              	.L86:
 1714              		.align	2
 1715              	.L85:
 1716 00d0 00000000 		.word	stack
ARM GAS  C:\Users\xavieran\AppData\Local\Temp\ccRA778j.s 			page 37


 1717 00d4 58000000 		.word	.LC0
 1718 00d8 44000000 		.word	.LC5
 1719              		.cfi_endproc
 1720              	.LFE74:
 1721              		.size	read_instruction_routine, .-read_instruction_routine
 1722              		.section	.rodata
 1723              		.align	2
 1724              	.LC7:
 1725 005c 233A2564 		.ascii	"#:%d R:%d G:%d B:%d\000"
 1725      20523A25 
 1725      6420473A 
 1725      25642042 
 1725      3A256400 
 1726              		.align	2
 1727              	.LC8:
 1728 0070 42433A25 		.ascii	"BC:%c R:%c G:%c B:%c\000"
 1728      6320523A 
 1728      25632047 
 1728      3A256320 
 1728      423A2563 
 1729 0085 000000   		.align	2
 1730              	.LC6:
 1731 0088 4B524742 		.ascii	"KRGB\000"
 1731      00
 1732              		.section	.text.image_stuff4,"ax",%progbits
 1733              		.align	2
 1734              		.global	image_stuff4
 1735              		.thumb
 1736              		.thumb_func
 1737              		.type	image_stuff4, %function
 1738              	image_stuff4:
 1739              	.LFB75:
 295:.\my_camera_functions.c **** 
 296:.\my_camera_functions.c **** 
 297:.\my_camera_functions.c **** void image_stuff4()
 298:.\my_camera_functions.c **** {
 1740              		.loc 1 298 0
 1741              		.cfi_startproc
 1742              		@ args = 0, pretend = 0, frame = 56
 1743              		@ frame_needed = 1, uses_anonymous_args = 0
 1744 0000 F0B5     		push	{r4, r5, r6, r7, lr}
 1745              		.cfi_def_cfa_offset 20
 1746              		.cfi_offset 4, -20
 1747              		.cfi_offset 5, -16
 1748              		.cfi_offset 6, -12
 1749              		.cfi_offset 7, -8
 1750              		.cfi_offset 14, -4
 1751 0002 91B0     		sub	sp, sp, #68
 1752              		.cfi_def_cfa_offset 88
 1753 0004 02AF     		add	r7, sp, #8
 1754              		.cfi_def_cfa 7, 80
 299:.\my_camera_functions.c ****     int x, i;
 300:.\my_camera_functions.c ****     char j,k,l,display[2][20],RGB[]="KRGB";
 1755              		.loc 1 300 0
 1756 0006 5C4A     		ldr	r2, .L100
 1757 0008 3B46     		mov	r3, r7
 1758 000a 92E80300 		ldmia	r2, {r0, r1}
ARM GAS  C:\Users\xavieran\AppData\Local\Temp\ccRA778j.s 			page 38


 1759 000e 1860     		str	r0, [r3]
 1760 0010 0433     		adds	r3, r3, #4
 1761 0012 1970     		strb	r1, [r3]
 301:.\my_camera_functions.c ****     //capture_thresh_image();
 302:.\my_camera_functions.c ****     x = to_nearest_blob(BLUE,30,1,44);
 1762              		.loc 1 302 0
 1763 0014 0320     		movs	r0, #3
 1764 0016 1E21     		movs	r1, #30
 1765 0018 0122     		movs	r2, #1
 1766 001a 2C23     		movs	r3, #44
 1767 001c FFF7FEFF 		bl	to_nearest_blob
 1768 0020 3863     		str	r0, [r7, #48]
 303:.\my_camera_functions.c ****     if(x < -2)
 1769              		.loc 1 303 0
 1770 0022 3B6B     		ldr	r3, [r7, #48]
 1771 0024 13F1020F 		cmn	r3, #2
 1772 0028 03DA     		bge	.L88
 304:.\my_camera_functions.c ****     {
 305:.\my_camera_functions.c ****         j = 'L';
 1773              		.loc 1 305 0
 1774 002a 4C23     		movs	r3, #76
 1775 002c 87F83730 		strb	r3, [r7, #55]
 1776 0030 11E0     		b	.L89
 1777              	.L88:
 306:.\my_camera_functions.c ****     }
 307:.\my_camera_functions.c ****     else if(x > 2)
 1778              		.loc 1 307 0
 1779 0032 3B6B     		ldr	r3, [r7, #48]
 1780 0034 022B     		cmp	r3, #2
 1781 0036 03DD     		ble	.L90
 308:.\my_camera_functions.c ****     {
 309:.\my_camera_functions.c ****         j = 'R';
 1782              		.loc 1 309 0
 1783 0038 5223     		movs	r3, #82
 1784 003a 87F83730 		strb	r3, [r7, #55]
 1785 003e 0AE0     		b	.L89
 1786              	.L90:
 310:.\my_camera_functions.c ****     }
 311:.\my_camera_functions.c ****     else if(x == -1)
 1787              		.loc 1 311 0
 1788 0040 3B6B     		ldr	r3, [r7, #48]
 1789 0042 B3F1FF3F 		cmp	r3, #-1
 1790 0046 03D1     		bne	.L91
 312:.\my_camera_functions.c ****     {
 313:.\my_camera_functions.c ****         j = 'N';
 1791              		.loc 1 313 0
 1792 0048 4E23     		movs	r3, #78
 1793 004a 87F83730 		strb	r3, [r7, #55]
 1794 004e 02E0     		b	.L89
 1795              	.L91:
 314:.\my_camera_functions.c ****     }
 315:.\my_camera_functions.c ****     else{j = 'C';}
 1796              		.loc 1 315 0
 1797 0050 4323     		movs	r3, #67
 1798 0052 87F83730 		strb	r3, [r7, #55]
 1799              	.L89:
 316:.\my_camera_functions.c ****     x = to_nearest_blob(RED,30,12,44);
ARM GAS  C:\Users\xavieran\AppData\Local\Temp\ccRA778j.s 			page 39


 1800              		.loc 1 316 0
 1801 0056 0120     		movs	r0, #1
 1802 0058 1E21     		movs	r1, #30
 1803 005a 0C22     		movs	r2, #12
 1804 005c 2C23     		movs	r3, #44
 1805 005e FFF7FEFF 		bl	to_nearest_blob
 1806 0062 3863     		str	r0, [r7, #48]
 317:.\my_camera_functions.c ****     if(x < -2)
 1807              		.loc 1 317 0
 1808 0064 3B6B     		ldr	r3, [r7, #48]
 1809 0066 13F1020F 		cmn	r3, #2
 1810 006a 03DA     		bge	.L92
 318:.\my_camera_functions.c ****     {
 319:.\my_camera_functions.c ****         k = 'L';
 1811              		.loc 1 319 0
 1812 006c 4C23     		movs	r3, #76
 1813 006e 87F83630 		strb	r3, [r7, #54]
 1814 0072 11E0     		b	.L93
 1815              	.L92:
 320:.\my_camera_functions.c ****     }
 321:.\my_camera_functions.c ****     else if(x > 2)
 1816              		.loc 1 321 0
 1817 0074 3B6B     		ldr	r3, [r7, #48]
 1818 0076 022B     		cmp	r3, #2
 1819 0078 03DD     		ble	.L94
 322:.\my_camera_functions.c ****     {
 323:.\my_camera_functions.c ****         k = 'R';
 1820              		.loc 1 323 0
 1821 007a 5223     		movs	r3, #82
 1822 007c 87F83630 		strb	r3, [r7, #54]
 1823 0080 0AE0     		b	.L93
 1824              	.L94:
 324:.\my_camera_functions.c ****     }
 325:.\my_camera_functions.c ****     else if(x == -1)
 1825              		.loc 1 325 0
 1826 0082 3B6B     		ldr	r3, [r7, #48]
 1827 0084 B3F1FF3F 		cmp	r3, #-1
 1828 0088 03D1     		bne	.L95
 326:.\my_camera_functions.c ****     {
 327:.\my_camera_functions.c ****         k = 'N';
 1829              		.loc 1 327 0
 1830 008a 4E23     		movs	r3, #78
 1831 008c 87F83630 		strb	r3, [r7, #54]
 1832 0090 02E0     		b	.L93
 1833              	.L95:
 328:.\my_camera_functions.c ****     }
 329:.\my_camera_functions.c ****     else{k = 'C';}
 1834              		.loc 1 329 0
 1835 0092 4323     		movs	r3, #67
 1836 0094 87F83630 		strb	r3, [r7, #54]
 1837              	.L93:
 330:.\my_camera_functions.c ****     x = to_nearest_blob(GREEN,30,12,44);
 1838              		.loc 1 330 0
 1839 0098 0220     		movs	r0, #2
 1840 009a 1E21     		movs	r1, #30
 1841 009c 0C22     		movs	r2, #12
 1842 009e 2C23     		movs	r3, #44
ARM GAS  C:\Users\xavieran\AppData\Local\Temp\ccRA778j.s 			page 40


 1843 00a0 FFF7FEFF 		bl	to_nearest_blob
 1844 00a4 3863     		str	r0, [r7, #48]
 331:.\my_camera_functions.c ****     if(x < -2)
 1845              		.loc 1 331 0
 1846 00a6 3B6B     		ldr	r3, [r7, #48]
 1847 00a8 13F1020F 		cmn	r3, #2
 1848 00ac 03DA     		bge	.L96
 332:.\my_camera_functions.c ****     {
 333:.\my_camera_functions.c ****         l = 'L';
 1849              		.loc 1 333 0
 1850 00ae 4C23     		movs	r3, #76
 1851 00b0 87F83530 		strb	r3, [r7, #53]
 1852 00b4 11E0     		b	.L97
 1853              	.L96:
 334:.\my_camera_functions.c ****     }
 335:.\my_camera_functions.c ****     else if(x > 2)
 1854              		.loc 1 335 0
 1855 00b6 3B6B     		ldr	r3, [r7, #48]
 1856 00b8 022B     		cmp	r3, #2
 1857 00ba 03DD     		ble	.L98
 336:.\my_camera_functions.c ****     {
 337:.\my_camera_functions.c ****         l = 'R';
 1858              		.loc 1 337 0
 1859 00bc 5223     		movs	r3, #82
 1860 00be 87F83530 		strb	r3, [r7, #53]
 1861 00c2 0AE0     		b	.L97
 1862              	.L98:
 338:.\my_camera_functions.c ****     }
 339:.\my_camera_functions.c ****     else if(x == -1)
 1863              		.loc 1 339 0
 1864 00c4 3B6B     		ldr	r3, [r7, #48]
 1865 00c6 B3F1FF3F 		cmp	r3, #-1
 1866 00ca 03D1     		bne	.L99
 340:.\my_camera_functions.c ****     {
 341:.\my_camera_functions.c ****         l = 'N';
 1867              		.loc 1 341 0
 1868 00cc 4E23     		movs	r3, #78
 1869 00ce 87F83530 		strb	r3, [r7, #53]
 1870 00d2 02E0     		b	.L97
 1871              	.L99:
 342:.\my_camera_functions.c ****     }
 343:.\my_camera_functions.c ****     else{l = 'C';}
 1872              		.loc 1 343 0
 1873 00d4 4323     		movs	r3, #67
 1874 00d6 87F83530 		strb	r3, [r7, #53]
 1875              	.L97:
 344:.\my_camera_functions.c ****     sprintf(display[0],"#:%d R:%d G:%d B:%d",blob_count(0),blob_count(1),blob_count(2),blob_count(3
 1876              		.loc 1 344 0
 1877 00da 0020     		movs	r0, #0
 1878 00dc FFF7FEFF 		bl	blob_count
 1879 00e0 0346     		mov	r3, r0
 1880 00e2 1D46     		mov	r5, r3
 1881 00e4 0120     		movs	r0, #1
 1882 00e6 FFF7FEFF 		bl	blob_count
 1883 00ea 0346     		mov	r3, r0
 1884 00ec 1C46     		mov	r4, r3
 1885 00ee 0220     		movs	r0, #2
ARM GAS  C:\Users\xavieran\AppData\Local\Temp\ccRA778j.s 			page 41


 1886 00f0 FFF7FEFF 		bl	blob_count
 1887 00f4 0346     		mov	r3, r0
 1888 00f6 1E46     		mov	r6, r3
 1889 00f8 0320     		movs	r0, #3
 1890 00fa FFF7FEFF 		bl	blob_count
 1891 00fe 0346     		mov	r3, r0
 1892 0100 1A46     		mov	r2, r3
 1893 0102 07F10803 		add	r3, r7, #8
 1894 0106 0096     		str	r6, [sp]
 1895 0108 0192     		str	r2, [sp, #4]
 1896 010a 1846     		mov	r0, r3
 1897 010c 1B49     		ldr	r1, .L100+4
 1898 010e 2A46     		mov	r2, r5
 1899 0110 2346     		mov	r3, r4
 1900 0112 FFF7FEFF 		bl	sprintf
 345:.\my_camera_functions.c ****     sprintf(display[1],"BC:%c R:%c G:%c B:%c",RGB[blobs[0].colour],k,l,j);
 1901              		.loc 1 345 0
 1902 0116 1A4B     		ldr	r3, .L100+8
 1903 0118 1B68     		ldr	r3, [r3]
 1904 011a 1B68     		ldr	r3, [r3]
 1905 011c 07F13802 		add	r2, r7, #56
 1906 0120 1344     		add	r3, r3, r2
 1907 0122 13F8383C 		ldrb	r3, [r3, #-56]	@ zero_extendqisi2
 1908 0126 1A46     		mov	r2, r3
 1909 0128 97F83630 		ldrb	r3, [r7, #54]	@ zero_extendqisi2
 1910 012c 97F83540 		ldrb	r4, [r7, #53]	@ zero_extendqisi2
 1911 0130 97F83700 		ldrb	r0, [r7, #55]	@ zero_extendqisi2
 1912 0134 07F10801 		add	r1, r7, #8
 1913 0138 1431     		adds	r1, r1, #20
 1914 013a 0094     		str	r4, [sp]
 1915 013c 0190     		str	r0, [sp, #4]
 1916 013e 0846     		mov	r0, r1
 1917 0140 1049     		ldr	r1, .L100+12
 1918 0142 FFF7FEFF 		bl	sprintf
 346:.\my_camera_functions.c ****     LCD_ClearDisplay();
 1919              		.loc 1 346 0
 1920 0146 0120     		movs	r0, #1
 1921 0148 FFF7FEFF 		bl	LCD_WriteControl
 347:.\my_camera_functions.c ****     LCD_PosPrintString(0,0,display[0]);
 1922              		.loc 1 347 0
 1923 014c 0020     		movs	r0, #0
 1924 014e 0021     		movs	r1, #0
 1925 0150 FFF7FEFF 		bl	LCD_Position
 1926 0154 07F10803 		add	r3, r7, #8
 1927 0158 1846     		mov	r0, r3
 1928 015a FFF7FEFF 		bl	LCD_PrintString
 348:.\my_camera_functions.c ****     LCD_PosPrintString(1,0,display[1]);
 1929              		.loc 1 348 0
 1930 015e 0120     		movs	r0, #1
 1931 0160 0021     		movs	r1, #0
 1932 0162 FFF7FEFF 		bl	LCD_Position
 1933 0166 07F10803 		add	r3, r7, #8
 1934 016a 1433     		adds	r3, r3, #20
 1935 016c 1846     		mov	r0, r3
 1936 016e FFF7FEFF 		bl	LCD_PrintString
 349:.\my_camera_functions.c **** }
 1937              		.loc 1 349 0
ARM GAS  C:\Users\xavieran\AppData\Local\Temp\ccRA778j.s 			page 42


 1938 0172 3C37     		adds	r7, r7, #60
 1939 0174 BD46     		mov	sp, r7
 1940              		@ sp needed
 1941 0176 F0BD     		pop	{r4, r5, r6, r7, pc}
 1942              	.L101:
 1943              		.align	2
 1944              	.L100:
 1945 0178 88000000 		.word	.LC6
 1946 017c 5C000000 		.word	.LC7
 1947 0180 00000000 		.word	blobs
 1948 0184 70000000 		.word	.LC8
 1949              		.cfi_endproc
 1950              	.LFE75:
 1951              		.size	image_stuff4, .-image_stuff4
 1952              		.section	.rodata
 1953 008d 000000   		.align	2
 1954              	.LC9:
 1955 0090 4D697373 		.ascii	"Missed Instruct\000"
 1955      65642049 
 1955      6E737472 
 1955      75637400 
 1956              		.align	2
 1957              	.LC10:
 1958 00a0 25632025 		.ascii	"%c %c %c %c\000"
 1958      63202563 
 1958      20256300 
 1959              		.section	.text.read_instructions,"ax",%progbits
 1960              		.align	2
 1961              		.global	read_instructions
 1962              		.thumb
 1963              		.thumb_func
 1964              		.type	read_instructions, %function
 1965              	read_instructions:
 1966              	.LFB76:
 350:.\my_camera_functions.c ****      
 351:.\my_camera_functions.c ****      
 352:.\my_camera_functions.c ****     void read_instructions()
 353:.\my_camera_functions.c ****     {
 1967              		.loc 1 353 0
 1968              		.cfi_startproc
 1969              		@ args = 0, pretend = 0, frame = 232
 1970              		@ frame_needed = 1, uses_anonymous_args = 0
 1971 0000 90B5     		push	{r4, r7, lr}
 1972              		.cfi_def_cfa_offset 12
 1973              		.cfi_offset 4, -12
 1974              		.cfi_offset 7, -8
 1975              		.cfi_offset 14, -4
 1976 0002 BDB0     		sub	sp, sp, #244
 1977              		.cfi_def_cfa_offset 256
 1978 0004 02AF     		add	r7, sp, #8
 1979              		.cfi_def_cfa 7, 248
 354:.\my_camera_functions.c ****         int stacks[10][4];
 355:.\my_camera_functions.c ****         int i,j,r,g,b;
 356:.\my_camera_functions.c ****         char RGB[] = "KRGB";
 1980              		.loc 1 356 0
 1981 0006 704A     		ldr	r2, .L121
 1982 0008 07F12C03 		add	r3, r7, #44
ARM GAS  C:\Users\xavieran\AppData\Local\Temp\ccRA778j.s 			page 43


 1983 000c 92E80300 		ldmia	r2, {r0, r1}
 1984 0010 1860     		str	r0, [r3]
 1985 0012 0433     		adds	r3, r3, #4
 1986 0014 1970     		strb	r1, [r3]
 357:.\my_camera_functions.c ****         char disp[2][20];
 358:.\my_camera_functions.c ****         for(j = 0; j < 10; j++)
 1987              		.loc 1 358 0
 1988 0016 0023     		movs	r3, #0
 1989 0018 C7F8E030 		str	r3, [r7, #224]
 1990 001c 26E0     		b	.L103
 1991              	.L106:
 359:.\my_camera_functions.c ****         {
 360:.\my_camera_functions.c ****             capture_thresh_image();
 1992              		.loc 1 360 0
 1993 001e FFF7FEFF 		bl	capture_thresh_image
 361:.\my_camera_functions.c ****             for(i = 0; i < 4; i++)
 1994              		.loc 1 361 0
 1995 0022 0023     		movs	r3, #0
 1996 0024 C7F8E430 		str	r3, [r7, #228]
 1997 0028 17E0     		b	.L104
 1998              	.L105:
 362:.\my_camera_functions.c ****             {
 363:.\my_camera_functions.c ****                 stacks[j][i] = get_blob(i,500);
 1999              		.loc 1 363 0 discriminator 2
 2000 002a D7F8E400 		ldr	r0, [r7, #228]
 2001 002e 4FF4FA71 		mov	r1, #500
 2002 0032 FFF7FEFF 		bl	get_blob
 2003 0036 0246     		mov	r2, r0
 2004 0038 D7F8E030 		ldr	r3, [r7, #224]
 2005 003c 9900     		lsls	r1, r3, #2
 2006 003e D7F8E430 		ldr	r3, [r7, #228]
 2007 0042 0B44     		add	r3, r3, r1
 2008 0044 9B00     		lsls	r3, r3, #2
 2009 0046 07F1E800 		add	r0, r7, #232
 2010 004a 0344     		add	r3, r3, r0
 2011 004c 43F8B42C 		str	r2, [r3, #-180]
 361:.\my_camera_functions.c ****             for(i = 0; i < 4; i++)
 2012              		.loc 1 361 0 discriminator 2
 2013 0050 D7F8E430 		ldr	r3, [r7, #228]
 2014 0054 0133     		adds	r3, r3, #1
 2015 0056 C7F8E430 		str	r3, [r7, #228]
 2016              	.L104:
 361:.\my_camera_functions.c ****             for(i = 0; i < 4; i++)
 2017              		.loc 1 361 0 is_stmt 0 discriminator 1
 2018 005a D7F8E430 		ldr	r3, [r7, #228]
 2019 005e 032B     		cmp	r3, #3
 2020 0060 E3DD     		ble	.L105
 358:.\my_camera_functions.c ****         for(j = 0; j < 10; j++)
 2021              		.loc 1 358 0 is_stmt 1
 2022 0062 D7F8E030 		ldr	r3, [r7, #224]
 2023 0066 0133     		adds	r3, r3, #1
 2024 0068 C7F8E030 		str	r3, [r7, #224]
 2025              	.L103:
 358:.\my_camera_functions.c ****         for(j = 0; j < 10; j++)
 2026              		.loc 1 358 0 is_stmt 0 discriminator 1
 2027 006c D7F8E030 		ldr	r3, [r7, #224]
 2028 0070 092B     		cmp	r3, #9
ARM GAS  C:\Users\xavieran\AppData\Local\Temp\ccRA778j.s 			page 44


 2029 0072 D4DD     		ble	.L106
 364:.\my_camera_functions.c ****             }
 365:.\my_camera_functions.c ****         }
 366:.\my_camera_functions.c ****         for(i = 0; i < 4; i++)
 2030              		.loc 1 366 0 is_stmt 1
 2031 0074 0023     		movs	r3, #0
 2032 0076 C7F8E430 		str	r3, [r7, #228]
 2033 007a 6DE0     		b	.L107
 2034              	.L120:
 367:.\my_camera_functions.c ****         {
 368:.\my_camera_functions.c ****             r = 0;
 2035              		.loc 1 368 0
 2036 007c 0023     		movs	r3, #0
 2037 007e C7F8DC30 		str	r3, [r7, #220]
 369:.\my_camera_functions.c ****             g = 0; 
 2038              		.loc 1 369 0
 2039 0082 0023     		movs	r3, #0
 2040 0084 C7F8D830 		str	r3, [r7, #216]
 370:.\my_camera_functions.c ****             b = 0;
 2041              		.loc 1 370 0
 2042 0088 0023     		movs	r3, #0
 2043 008a C7F8D430 		str	r3, [r7, #212]
 371:.\my_camera_functions.c ****             for(j = 0; j < 10; j++)
 2044              		.loc 1 371 0
 2045 008e 0023     		movs	r3, #0
 2046 0090 C7F8E030 		str	r3, [r7, #224]
 2047 0094 2FE0     		b	.L108
 2048              	.L115:
 372:.\my_camera_functions.c ****             {
 373:.\my_camera_functions.c ****                 switch(stacks[j][i])
 2049              		.loc 1 373 0
 2050 0096 D7F8E030 		ldr	r3, [r7, #224]
 2051 009a 9A00     		lsls	r2, r3, #2
 2052 009c D7F8E430 		ldr	r3, [r7, #228]
 2053 00a0 1344     		add	r3, r3, r2
 2054 00a2 9B00     		lsls	r3, r3, #2
 2055 00a4 07F1E801 		add	r1, r7, #232
 2056 00a8 0B44     		add	r3, r3, r1
 2057 00aa 53F8B43C 		ldr	r3, [r3, #-180]
 2058 00ae 032B     		cmp	r3, #3
 2059 00b0 1CD8     		bhi	.L109
 2060 00b2 01A2     		adr	r2, .L111
 2061 00b4 52F823F0 		ldr	pc, [r2, r3, lsl #2]
 2062              		.p2align 2
 2063              	.L111:
 2064 00b8 ED000000 		.word	.L109+1
 2065 00bc C9000000 		.word	.L112+1
 2066 00c0 E1000000 		.word	.L113+1
 2067 00c4 D5000000 		.word	.L114+1
 2068              		.p2align 1
 2069              	.L112:
 374:.\my_camera_functions.c ****                 {
 375:.\my_camera_functions.c ****                     case NONE:
 376:.\my_camera_functions.c ****                         break;
 377:.\my_camera_functions.c ****                     case RED:
 378:.\my_camera_functions.c ****                         r++;
 2070              		.loc 1 378 0
ARM GAS  C:\Users\xavieran\AppData\Local\Temp\ccRA778j.s 			page 45


 2071 00c8 D7F8DC30 		ldr	r3, [r7, #220]
 2072 00cc 0133     		adds	r3, r3, #1
 2073 00ce C7F8DC30 		str	r3, [r7, #220]
 379:.\my_camera_functions.c ****                         break;
 2074              		.loc 1 379 0
 2075 00d2 0BE0     		b	.L109
 2076              	.L114:
 380:.\my_camera_functions.c ****                     case BLUE:
 381:.\my_camera_functions.c ****                         b++;
 2077              		.loc 1 381 0
 2078 00d4 D7F8D430 		ldr	r3, [r7, #212]
 2079 00d8 0133     		adds	r3, r3, #1
 2080 00da C7F8D430 		str	r3, [r7, #212]
 382:.\my_camera_functions.c ****                         break;
 2081              		.loc 1 382 0
 2082 00de 05E0     		b	.L109
 2083              	.L113:
 383:.\my_camera_functions.c ****                     case GREEN:
 384:.\my_camera_functions.c ****                         g++;
 2084              		.loc 1 384 0
 2085 00e0 D7F8D830 		ldr	r3, [r7, #216]
 2086 00e4 0133     		adds	r3, r3, #1
 2087 00e6 C7F8D830 		str	r3, [r7, #216]
 385:.\my_camera_functions.c ****                         break;
 2088              		.loc 1 385 0
 2089 00ea 00BF     		nop
 2090              	.L109:
 371:.\my_camera_functions.c ****             for(j = 0; j < 10; j++)
 2091              		.loc 1 371 0
 2092 00ec D7F8E030 		ldr	r3, [r7, #224]
 2093 00f0 0133     		adds	r3, r3, #1
 2094 00f2 C7F8E030 		str	r3, [r7, #224]
 2095              	.L108:
 371:.\my_camera_functions.c ****             for(j = 0; j < 10; j++)
 2096              		.loc 1 371 0 is_stmt 0 discriminator 1
 2097 00f6 D7F8E030 		ldr	r3, [r7, #224]
 2098 00fa 092B     		cmp	r3, #9
 2099 00fc CBDD     		ble	.L115
 386:.\my_camera_functions.c ****                 }
 387:.\my_camera_functions.c ****             }
 388:.\my_camera_functions.c ****             if(r > 5) {stack[i] = RED;}
 2100              		.loc 1 388 0 is_stmt 1
 2101 00fe D7F8DC30 		ldr	r3, [r7, #220]
 2102 0102 052B     		cmp	r3, #5
 2103 0104 06DD     		ble	.L116
 2104              		.loc 1 388 0 is_stmt 0 discriminator 1
 2105 0106 314B     		ldr	r3, .L121+4
 2106 0108 D7F8E420 		ldr	r2, [r7, #228]
 2107 010c 0121     		movs	r1, #1
 2108 010e 43F82210 		str	r1, [r3, r2, lsl #2]
 2109 0112 19E0     		b	.L117
 2110              	.L116:
 389:.\my_camera_functions.c ****             else if(g > 5) {stack[i] = GREEN;}
 2111              		.loc 1 389 0 is_stmt 1
 2112 0114 D7F8D830 		ldr	r3, [r7, #216]
 2113 0118 052B     		cmp	r3, #5
 2114 011a 06DD     		ble	.L118
ARM GAS  C:\Users\xavieran\AppData\Local\Temp\ccRA778j.s 			page 46


 2115              		.loc 1 389 0 is_stmt 0 discriminator 1
 2116 011c 2B4B     		ldr	r3, .L121+4
 2117 011e D7F8E420 		ldr	r2, [r7, #228]
 2118 0122 0221     		movs	r1, #2
 2119 0124 43F82210 		str	r1, [r3, r2, lsl #2]
 2120 0128 0EE0     		b	.L117
 2121              	.L118:
 390:.\my_camera_functions.c ****             else if(b > 5) {stack[i] = BLUE;}
 2122              		.loc 1 390 0 is_stmt 1
 2123 012a D7F8D430 		ldr	r3, [r7, #212]
 2124 012e 052B     		cmp	r3, #5
 2125 0130 06DD     		ble	.L119
 2126              		.loc 1 390 0 is_stmt 0 discriminator 1
 2127 0132 264B     		ldr	r3, .L121+4
 2128 0134 D7F8E420 		ldr	r2, [r7, #228]
 2129 0138 0321     		movs	r1, #3
 2130 013a 43F82210 		str	r1, [r3, r2, lsl #2]
 2131 013e 03E0     		b	.L117
 2132              	.L119:
 391:.\my_camera_functions.c ****             else LCD_PosPrintString(1,0,"Missed Instruct");
 2133              		.loc 1 391 0 is_stmt 1
 2134 0140 0120     		movs	r0, #1
 2135 0142 0021     		movs	r1, #0
 2136 0144 FFF7FEFF 		bl	LCD_Position
 2137              	.L117:
 2138              		.loc 1 391 0 is_stmt 0 discriminator 1
 2139 0148 2148     		ldr	r0, .L121+8
 2140 014a FFF7FEFF 		bl	LCD_PrintString
 366:.\my_camera_functions.c ****         for(i = 0; i < 4; i++)
 2141              		.loc 1 366 0 is_stmt 1 discriminator 1
 2142 014e D7F8E430 		ldr	r3, [r7, #228]
 2143 0152 0133     		adds	r3, r3, #1
 2144 0154 C7F8E430 		str	r3, [r7, #228]
 2145              	.L107:
 2146 0158 D7F8E430 		ldr	r3, [r7, #228]
 2147 015c 032B     		cmp	r3, #3
 2148 015e 8DDD     		ble	.L120
 392:.\my_camera_functions.c ****         }
 393:.\my_camera_functions.c ****         sprintf(disp[0],"%c %c %c %c",RGB[stack[0]],RGB[stack[1]],RGB[stack[2]],RGB[stack[3]]);
 2149              		.loc 1 393 0
 2150 0160 1A4B     		ldr	r3, .L121+4
 2151 0162 1B68     		ldr	r3, [r3]
 2152 0164 07F1E800 		add	r0, r7, #232
 2153 0168 0344     		add	r3, r3, r0
 2154 016a 13F8BC3C 		ldrb	r3, [r3, #-188]	@ zero_extendqisi2
 2155 016e 1A46     		mov	r2, r3
 2156 0170 164B     		ldr	r3, .L121+4
 2157 0172 5B68     		ldr	r3, [r3, #4]
 2158 0174 07F1E801 		add	r1, r7, #232
 2159 0178 0B44     		add	r3, r3, r1
 2160 017a 13F8BC3C 		ldrb	r3, [r3, #-188]	@ zero_extendqisi2
 2161 017e 1349     		ldr	r1, .L121+4
 2162 0180 8968     		ldr	r1, [r1, #8]
 2163 0182 07F1E800 		add	r0, r7, #232
 2164 0186 0144     		add	r1, r1, r0
 2165 0188 11F8BC1C 		ldrb	r1, [r1, #-188]	@ zero_extendqisi2
 2166 018c 0C46     		mov	r4, r1
ARM GAS  C:\Users\xavieran\AppData\Local\Temp\ccRA778j.s 			page 47


 2167 018e 0F49     		ldr	r1, .L121+4
 2168 0190 C968     		ldr	r1, [r1, #12]
 2169 0192 07F1E800 		add	r0, r7, #232
 2170 0196 0144     		add	r1, r1, r0
 2171 0198 11F8BC1C 		ldrb	r1, [r1, #-188]	@ zero_extendqisi2
 2172 019c 0846     		mov	r0, r1
 2173 019e 391D     		adds	r1, r7, #4
 2174 01a0 0094     		str	r4, [sp]
 2175 01a2 0190     		str	r0, [sp, #4]
 2176 01a4 0846     		mov	r0, r1
 2177 01a6 0B49     		ldr	r1, .L121+12
 2178 01a8 FFF7FEFF 		bl	sprintf
 394:.\my_camera_functions.c ****         LCD_ClearDisplay();
 2179              		.loc 1 394 0
 2180 01ac 0120     		movs	r0, #1
 2181 01ae FFF7FEFF 		bl	LCD_WriteControl
 395:.\my_camera_functions.c ****         LCD_PosPrintString(0,0,disp[0]);
 2182              		.loc 1 395 0
 2183 01b2 0020     		movs	r0, #0
 2184 01b4 0021     		movs	r1, #0
 2185 01b6 FFF7FEFF 		bl	LCD_Position
 2186 01ba 3B1D     		adds	r3, r7, #4
 2187 01bc 1846     		mov	r0, r3
 2188 01be FFF7FEFF 		bl	LCD_PrintString
 396:.\my_camera_functions.c ****     }
 2189              		.loc 1 396 0
 2190 01c2 EC37     		adds	r7, r7, #236
 2191 01c4 BD46     		mov	sp, r7
 2192              		@ sp needed
 2193 01c6 90BD     		pop	{r4, r7, pc}
 2194              	.L122:
 2195              		.align	2
 2196              	.L121:
 2197 01c8 88000000 		.word	.LC6
 2198 01cc 00000000 		.word	stack
 2199 01d0 90000000 		.word	.LC9
 2200 01d4 A0000000 		.word	.LC10
 2201              		.cfi_endproc
 2202              	.LFE76:
 2203              		.size	read_instructions, .-read_instructions
 2204              		.text
 2205              	.Letext0:
 2206              		.file 2 "c:\\program files (x86)\\cypress\\psoc creator\\3.2\\psoc creator\\import\\gnu\\arm\\4.8.
 2207              		.file 3 "c:\\program files (x86)\\cypress\\psoc creator\\3.2\\psoc creator\\import\\gnu\\arm\\4.8.
 2208              		.file 4 "Generated_Source\\PSoC5/cytypes.h"
 2209              		.file 5 "./blob_stats.h"
 2210              		.file 6 "Generated_Source\\PSoC5/core_cm3.h"
 2211              		.file 7 "Generated_Source\\PSoC5/Camera.h"
 2212              		.file 8 "./my_camera_functions.h"
 2213              		.section	.debug_info,"",%progbits
 2214              	.Ldebug_info0:
 2215 0000 31060000 		.4byte	0x631
 2216 0004 0400     		.2byte	0x4
 2217 0006 00000000 		.4byte	.Ldebug_abbrev0
 2218 000a 04       		.byte	0x4
 2219 000b 01       		.uleb128 0x1
 2220 000c 6E000000 		.4byte	.LASF64
ARM GAS  C:\Users\xavieran\AppData\Local\Temp\ccRA778j.s 			page 48


 2221 0010 01       		.byte	0x1
 2222 0011 00000000 		.4byte	.LASF65
 2223 0015 E2010000 		.4byte	.LASF66
 2224 0019 00000000 		.4byte	.Ldebug_ranges0+0
 2225 001d 00000000 		.4byte	0
 2226 0021 00000000 		.4byte	.Ldebug_line0
 2227 0025 02       		.uleb128 0x2
 2228 0026 01       		.byte	0x1
 2229 0027 06       		.byte	0x6
 2230 0028 AC010000 		.4byte	.LASF0
 2231 002c 02       		.uleb128 0x2
 2232 002d 01       		.byte	0x1
 2233 002e 08       		.byte	0x8
 2234 002f 92010000 		.4byte	.LASF1
 2235 0033 02       		.uleb128 0x2
 2236 0034 02       		.byte	0x2
 2237 0035 05       		.byte	0x5
 2238 0036 3F000000 		.4byte	.LASF2
 2239 003a 02       		.uleb128 0x2
 2240 003b 02       		.byte	0x2
 2241 003c 07       		.byte	0x7
 2242 003d 52020000 		.4byte	.LASF3
 2243 0041 03       		.uleb128 0x3
 2244 0042 FB020000 		.4byte	.LASF9
 2245 0046 02       		.byte	0x2
 2246 0047 37       		.byte	0x37
 2247 0048 4C000000 		.4byte	0x4c
 2248 004c 02       		.uleb128 0x2
 2249 004d 04       		.byte	0x4
 2250 004e 05       		.byte	0x5
 2251 004f 63010000 		.4byte	.LASF4
 2252 0053 02       		.uleb128 0x2
 2253 0054 04       		.byte	0x4
 2254 0055 07       		.byte	0x7
 2255 0056 C2020000 		.4byte	.LASF5
 2256 005a 02       		.uleb128 0x2
 2257 005b 08       		.byte	0x8
 2258 005c 05       		.byte	0x5
 2259 005d 50010000 		.4byte	.LASF6
 2260 0061 02       		.uleb128 0x2
 2261 0062 08       		.byte	0x8
 2262 0063 07       		.byte	0x7
 2263 0064 B8010000 		.4byte	.LASF7
 2264 0068 04       		.uleb128 0x4
 2265 0069 04       		.byte	0x4
 2266 006a 05       		.byte	0x5
 2267 006b 696E7400 		.ascii	"int\000"
 2268 006f 02       		.uleb128 0x2
 2269 0070 04       		.byte	0x4
 2270 0071 07       		.byte	0x7
 2271 0072 CF010000 		.4byte	.LASF8
 2272 0076 03       		.uleb128 0x3
 2273 0077 70020000 		.4byte	.LASF10
 2274 007b 03       		.byte	0x3
 2275 007c 41       		.byte	0x41
 2276 007d 41000000 		.4byte	0x41
 2277 0081 03       		.uleb128 0x3
ARM GAS  C:\Users\xavieran\AppData\Local\Temp\ccRA778j.s 			page 49


 2278 0082 4A010000 		.4byte	.LASF11
 2279 0086 04       		.byte	0x4
 2280 0087 B3       		.byte	0xb3
 2281 0088 2C000000 		.4byte	0x2c
 2282 008c 03       		.uleb128 0x3
 2283 008d B4020000 		.4byte	.LASF12
 2284 0091 04       		.byte	0x4
 2285 0092 B5       		.byte	0xb5
 2286 0093 53000000 		.4byte	0x53
 2287 0097 02       		.uleb128 0x2
 2288 0098 04       		.byte	0x4
 2289 0099 04       		.byte	0x4
 2290 009a 44010000 		.4byte	.LASF13
 2291 009e 02       		.uleb128 0x2
 2292 009f 08       		.byte	0x8
 2293 00a0 04       		.byte	0x4
 2294 00a1 D4020000 		.4byte	.LASF14
 2295 00a5 02       		.uleb128 0x2
 2296 00a6 01       		.byte	0x1
 2297 00a7 08       		.byte	0x8
 2298 00a8 6B020000 		.4byte	.LASF15
 2299 00ac 02       		.uleb128 0x2
 2300 00ad 04       		.byte	0x4
 2301 00ae 07       		.byte	0x7
 2302 00af 56000000 		.4byte	.LASF16
 2303 00b3 05       		.uleb128 0x5
 2304 00b4 81000000 		.4byte	0x81
 2305 00b8 C3000000 		.4byte	0xc3
 2306 00bc 06       		.uleb128 0x6
 2307 00bd AC000000 		.4byte	0xac
 2308 00c1 03       		.byte	0x3
 2309 00c2 00       		.byte	0
 2310 00c3 07       		.uleb128 0x7
 2311 00c4 01       		.byte	0x1
 2312 00c5 08       		.byte	0x8
 2313 00c6 22       		.byte	0x22
 2314 00c7 E4000000 		.4byte	0xe4
 2315 00cb 08       		.uleb128 0x8
 2316 00cc 05030000 		.4byte	.LASF17
 2317 00d0 00       		.sleb128 0
 2318 00d1 09       		.uleb128 0x9
 2319 00d2 52454400 		.ascii	"RED\000"
 2320 00d6 01       		.sleb128 1
 2321 00d7 08       		.uleb128 0x8
 2322 00d8 81030000 		.4byte	.LASF18
 2323 00dc 02       		.sleb128 2
 2324 00dd 08       		.uleb128 0x8
 2325 00de 97030000 		.4byte	.LASF19
 2326 00e2 03       		.sleb128 3
 2327 00e3 00       		.byte	0
 2328 00e4 0A       		.uleb128 0xa
 2329 00e5 10       		.byte	0x10
 2330 00e6 05       		.byte	0x5
 2331 00e7 1B       		.byte	0x1b
 2332 00e8 1D010000 		.4byte	0x11d
 2333 00ec 0B       		.uleb128 0xb
 2334 00ed 40030000 		.4byte	.LASF20
ARM GAS  C:\Users\xavieran\AppData\Local\Temp\ccRA778j.s 			page 50


 2335 00f1 05       		.byte	0x5
 2336 00f2 1D       		.byte	0x1d
 2337 00f3 68000000 		.4byte	0x68
 2338 00f7 00       		.byte	0
 2339 00f8 0B       		.uleb128 0xb
 2340 00f9 F0020000 		.4byte	.LASF21
 2341 00fd 05       		.byte	0x5
 2342 00fe 1E       		.byte	0x1e
 2343 00ff 8C000000 		.4byte	0x8c
 2344 0103 04       		.byte	0x4
 2345 0104 0B       		.uleb128 0xb
 2346 0105 65020000 		.4byte	.LASF22
 2347 0109 05       		.byte	0x5
 2348 010a 1F       		.byte	0x1f
 2349 010b 8C000000 		.4byte	0x8c
 2350 010f 08       		.byte	0x8
 2351 0110 0B       		.uleb128 0xb
 2352 0111 A4030000 		.4byte	.LASF23
 2353 0115 05       		.byte	0x5
 2354 0116 1F       		.byte	0x1f
 2355 0117 8C000000 		.4byte	0x8c
 2356 011b 0C       		.byte	0xc
 2357 011c 00       		.byte	0
 2358 011d 03       		.uleb128 0x3
 2359 011e 4D020000 		.4byte	.LASF24
 2360 0122 05       		.byte	0x5
 2361 0123 20       		.byte	0x20
 2362 0124 E4000000 		.4byte	0xe4
 2363 0128 0C       		.uleb128 0xc
 2364 0129 41020000 		.4byte	.LASF25
 2365 012d 01       		.byte	0x1
 2366 012e 21       		.byte	0x21
 2367 012f 00000000 		.4byte	.LFB63
 2368 0133 D4000000 		.4byte	.LFE63-.LFB63
 2369 0137 01       		.uleb128 0x1
 2370 0138 9C       		.byte	0x9c
 2371 0139 0C       		.uleb128 0xc
 2372 013a 61030000 		.4byte	.LASF26
 2373 013e 01       		.byte	0x1
 2374 013f 39       		.byte	0x39
 2375 0140 00000000 		.4byte	.LFB64
 2376 0144 12000000 		.4byte	.LFE64-.LFB64
 2377 0148 01       		.uleb128 0x1
 2378 0149 9C       		.byte	0x9c
 2379 014a 0C       		.uleb128 0xc
 2380 014b 78020000 		.4byte	.LASF27
 2381 014f 01       		.byte	0x1
 2382 0150 40       		.byte	0x40
 2383 0151 00000000 		.4byte	.LFB65
 2384 0155 3C000000 		.4byte	.LFE65-.LFB65
 2385 0159 01       		.uleb128 0x1
 2386 015a 9C       		.byte	0x9c
 2387 015b 0D       		.uleb128 0xd
 2388 015c 0A030000 		.4byte	.LASF32
 2389 0160 01       		.byte	0x1
 2390 0161 4C       		.byte	0x4c
 2391 0162 00000000 		.4byte	.LFB66
ARM GAS  C:\Users\xavieran\AppData\Local\Temp\ccRA778j.s 			page 51


 2392 0166 6C000000 		.4byte	.LFE66-.LFB66
 2393 016a 01       		.uleb128 0x1
 2394 016b 9C       		.byte	0x9c
 2395 016c 7F010000 		.4byte	0x17f
 2396 0170 0E       		.uleb128 0xe
 2397 0171 31000000 		.4byte	.LASF28
 2398 0175 01       		.byte	0x1
 2399 0176 4C       		.byte	0x4c
 2400 0177 68000000 		.4byte	0x68
 2401 017b 02       		.uleb128 0x2
 2402 017c 91       		.byte	0x91
 2403 017d 74       		.sleb128 -12
 2404 017e 00       		.byte	0
 2405 017f 0F       		.uleb128 0xf
 2406 0180 7B010000 		.4byte	.LASF38
 2407 0184 01       		.byte	0x1
 2408 0185 60       		.byte	0x60
 2409 0186 81000000 		.4byte	0x81
 2410 018a 00000000 		.4byte	.LFB67
 2411 018e E8000000 		.4byte	.LFE67-.LFB67
 2412 0192 01       		.uleb128 0x1
 2413 0193 9C       		.byte	0x9c
 2414 0194 B1010000 		.4byte	0x1b1
 2415 0198 10       		.uleb128 0x10
 2416 0199 7800     		.ascii	"x\000"
 2417 019b 01       		.byte	0x1
 2418 019c 60       		.byte	0x60
 2419 019d 81000000 		.4byte	0x81
 2420 01a1 02       		.uleb128 0x2
 2421 01a2 91       		.byte	0x91
 2422 01a3 77       		.sleb128 -9
 2423 01a4 10       		.uleb128 0x10
 2424 01a5 7900     		.ascii	"y\000"
 2425 01a7 01       		.byte	0x1
 2426 01a8 60       		.byte	0x60
 2427 01a9 81000000 		.4byte	0x81
 2428 01ad 02       		.uleb128 0x2
 2429 01ae 91       		.byte	0x91
 2430 01af 76       		.sleb128 -10
 2431 01b0 00       		.byte	0
 2432 01b1 11       		.uleb128 0x11
 2433 01b2 8D020000 		.4byte	.LASF41
 2434 01b6 01       		.byte	0x1
 2435 01b7 6B       		.byte	0x6b
 2436 01b8 00000000 		.4byte	.LFB68
 2437 01bc 58030000 		.4byte	.LFE68-.LFB68
 2438 01c0 01       		.uleb128 0x1
 2439 01c1 9C       		.byte	0x9c
 2440 01c2 15020000 		.4byte	0x215
 2441 01c6 12       		.uleb128 0x12
 2442 01c7 9D020000 		.4byte	.LASF29
 2443 01cb 01       		.byte	0x1
 2444 01cc 6D       		.byte	0x6d
 2445 01cd 15020000 		.4byte	0x215
 2446 01d1 02       		.uleb128 0x2
 2447 01d2 91       		.byte	0x91
 2448 01d3 60       		.sleb128 -32
ARM GAS  C:\Users\xavieran\AppData\Local\Temp\ccRA778j.s 			page 52


 2449 01d4 12       		.uleb128 0x12
 2450 01d5 9C030000 		.4byte	.LASF30
 2451 01d9 01       		.byte	0x1
 2452 01da 6E       		.byte	0x6e
 2453 01db B3000000 		.4byte	0xb3
 2454 01df 02       		.uleb128 0x2
 2455 01e0 91       		.byte	0x91
 2456 01e1 5C       		.sleb128 -36
 2457 01e2 12       		.uleb128 0x12
 2458 01e3 1F000000 		.4byte	.LASF31
 2459 01e7 01       		.byte	0x1
 2460 01e8 6F       		.byte	0x6f
 2461 01e9 68000000 		.4byte	0x68
 2462 01ed 02       		.uleb128 0x2
 2463 01ee 91       		.byte	0x91
 2464 01ef 68       		.sleb128 -24
 2465 01f0 13       		.uleb128 0x13
 2466 01f1 7900     		.ascii	"y\000"
 2467 01f3 01       		.byte	0x1
 2468 01f4 70       		.byte	0x70
 2469 01f5 68000000 		.4byte	0x68
 2470 01f9 02       		.uleb128 0x2
 2471 01fa 91       		.byte	0x91
 2472 01fb 74       		.sleb128 -12
 2473 01fc 13       		.uleb128 0x13
 2474 01fd 7800     		.ascii	"x\000"
 2475 01ff 01       		.byte	0x1
 2476 0200 70       		.byte	0x70
 2477 0201 68000000 		.4byte	0x68
 2478 0205 02       		.uleb128 0x2
 2479 0206 91       		.byte	0x91
 2480 0207 70       		.sleb128 -16
 2481 0208 13       		.uleb128 0x13
 2482 0209 6900     		.ascii	"i\000"
 2483 020b 01       		.byte	0x1
 2484 020c 70       		.byte	0x70
 2485 020d 68000000 		.4byte	0x68
 2486 0211 02       		.uleb128 0x2
 2487 0212 91       		.byte	0x91
 2488 0213 6C       		.sleb128 -20
 2489 0214 00       		.byte	0
 2490 0215 05       		.uleb128 0x5
 2491 0216 81000000 		.4byte	0x81
 2492 021a 25020000 		.4byte	0x225
 2493 021e 06       		.uleb128 0x6
 2494 021f AC000000 		.4byte	0xac
 2495 0223 07       		.byte	0x7
 2496 0224 00       		.byte	0
 2497 0225 0D       		.uleb128 0xd
 2498 0226 25000000 		.4byte	.LASF33
 2499 022a 01       		.byte	0x1
 2500 022b B6       		.byte	0xb6
 2501 022c 00000000 		.4byte	.LFB69
 2502 0230 24010000 		.4byte	.LFE69-.LFB69
 2503 0234 01       		.uleb128 0x1
 2504 0235 9C       		.byte	0x9c
 2505 0236 99020000 		.4byte	0x299
ARM GAS  C:\Users\xavieran\AppData\Local\Temp\ccRA778j.s 			page 53


 2506 023a 0E       		.uleb128 0xe
 2507 023b 40030000 		.4byte	.LASF20
 2508 023f 01       		.byte	0x1
 2509 0240 B6       		.byte	0xb6
 2510 0241 68000000 		.4byte	0x68
 2511 0245 02       		.uleb128 0x2
 2512 0246 91       		.byte	0x91
 2513 0247 5C       		.sleb128 -36
 2514 0248 0E       		.uleb128 0xe
 2515 0249 87010000 		.4byte	.LASF34
 2516 024d 01       		.byte	0x1
 2517 024e B6       		.byte	0xb6
 2518 024f 97000000 		.4byte	0x97
 2519 0253 02       		.uleb128 0x2
 2520 0254 91       		.byte	0x91
 2521 0255 58       		.sleb128 -40
 2522 0256 0E       		.uleb128 0xe
 2523 0257 EA000000 		.4byte	.LASF35
 2524 025b 01       		.byte	0x1
 2525 025c B6       		.byte	0xb6
 2526 025d 68000000 		.4byte	0x68
 2527 0261 02       		.uleb128 0x2
 2528 0262 91       		.byte	0x91
 2529 0263 54       		.sleb128 -44
 2530 0264 13       		.uleb128 0x13
 2531 0265 7900     		.ascii	"y\000"
 2532 0267 01       		.byte	0x1
 2533 0268 B8       		.byte	0xb8
 2534 0269 68000000 		.4byte	0x68
 2535 026d 02       		.uleb128 0x2
 2536 026e 91       		.byte	0x91
 2537 026f 6C       		.sleb128 -20
 2538 0270 13       		.uleb128 0x13
 2539 0271 7800     		.ascii	"x\000"
 2540 0273 01       		.byte	0x1
 2541 0274 B8       		.byte	0xb8
 2542 0275 68000000 		.4byte	0x68
 2543 0279 02       		.uleb128 0x2
 2544 027a 91       		.byte	0x91
 2545 027b 68       		.sleb128 -24
 2546 027c 12       		.uleb128 0x12
 2547 027d F5020000 		.4byte	.LASF36
 2548 0281 01       		.byte	0x1
 2549 0282 B8       		.byte	0xb8
 2550 0283 68000000 		.4byte	0x68
 2551 0287 02       		.uleb128 0x2
 2552 0288 91       		.byte	0x91
 2553 0289 64       		.sleb128 -28
 2554 028a 12       		.uleb128 0x12
 2555 028b 39000000 		.4byte	.LASF37
 2556 028f 01       		.byte	0x1
 2557 0290 B8       		.byte	0xb8
 2558 0291 68000000 		.4byte	0x68
 2559 0295 02       		.uleb128 0x2
 2560 0296 91       		.byte	0x91
 2561 0297 60       		.sleb128 -32
 2562 0298 00       		.byte	0
ARM GAS  C:\Users\xavieran\AppData\Local\Temp\ccRA778j.s 			page 54


 2563 0299 0F       		.uleb128 0xf
 2564 029a 23030000 		.4byte	.LASF39
 2565 029e 01       		.byte	0x1
 2566 029f D8       		.byte	0xd8
 2567 02a0 68000000 		.4byte	0x68
 2568 02a4 00000000 		.4byte	.LFB70
 2569 02a8 34000000 		.4byte	.LFE70-.LFB70
 2570 02ac 01       		.uleb128 0x1
 2571 02ad 9C       		.byte	0x9c
 2572 02ae CD020000 		.4byte	0x2cd
 2573 02b2 0E       		.uleb128 0xe
 2574 02b3 F0020000 		.4byte	.LASF21
 2575 02b7 01       		.byte	0x1
 2576 02b8 D8       		.byte	0xd8
 2577 02b9 68000000 		.4byte	0x68
 2578 02bd 02       		.uleb128 0x2
 2579 02be 91       		.byte	0x91
 2580 02bf 6C       		.sleb128 -20
 2581 02c0 13       		.uleb128 0x13
 2582 02c1 7800     		.ascii	"x\000"
 2583 02c3 01       		.byte	0x1
 2584 02c4 DA       		.byte	0xda
 2585 02c5 68000000 		.4byte	0x68
 2586 02c9 02       		.uleb128 0x2
 2587 02ca 91       		.byte	0x91
 2588 02cb 74       		.sleb128 -12
 2589 02cc 00       		.byte	0
 2590 02cd 14       		.uleb128 0x14
 2591 02ce 2C010000 		.4byte	.LASF67
 2592 02d2 01       		.byte	0x1
 2593 02d3 E3       		.byte	0xe3
 2594 02d4 68000000 		.4byte	0x68
 2595 02d8 00000000 		.4byte	.LFB71
 2596 02dc 12000000 		.4byte	.LFE71-.LFB71
 2597 02e0 01       		.uleb128 0x1
 2598 02e1 9C       		.byte	0x9c
 2599 02e2 0F       		.uleb128 0xf
 2600 02e3 6C010000 		.4byte	.LASF40
 2601 02e7 01       		.byte	0x1
 2602 02e8 E9       		.byte	0xe9
 2603 02e9 68000000 		.4byte	0x68
 2604 02ed 00000000 		.4byte	.LFB72
 2605 02f1 58000000 		.4byte	.LFE72-.LFB72
 2606 02f5 01       		.uleb128 0x1
 2607 02f6 9C       		.byte	0x9c
 2608 02f7 14030000 		.4byte	0x314
 2609 02fb 10       		.uleb128 0x10
 2610 02fc 7800     		.ascii	"x\000"
 2611 02fe 01       		.byte	0x1
 2612 02ff E9       		.byte	0xe9
 2613 0300 68000000 		.4byte	0x68
 2614 0304 02       		.uleb128 0x2
 2615 0305 91       		.byte	0x91
 2616 0306 74       		.sleb128 -12
 2617 0307 10       		.uleb128 0x10
 2618 0308 7900     		.ascii	"y\000"
 2619 030a 01       		.byte	0x1
ARM GAS  C:\Users\xavieran\AppData\Local\Temp\ccRA778j.s 			page 55


 2620 030b E9       		.byte	0xe9
 2621 030c 68000000 		.4byte	0x68
 2622 0310 02       		.uleb128 0x2
 2623 0311 91       		.byte	0x91
 2624 0312 70       		.sleb128 -16
 2625 0313 00       		.byte	0
 2626 0314 11       		.uleb128 0x11
 2627 0315 87030000 		.4byte	.LASF42
 2628 0319 01       		.byte	0x1
 2629 031a EF       		.byte	0xef
 2630 031b 00000000 		.4byte	.LFB73
 2631 031f 98010000 		.4byte	.LFE73-.LFB73
 2632 0323 01       		.uleb128 0x1
 2633 0324 9C       		.byte	0x9c
 2634 0325 5A030000 		.4byte	0x35a
 2635 0329 13       		.uleb128 0x13
 2636 032a 7900     		.ascii	"y\000"
 2637 032c 01       		.byte	0x1
 2638 032d F1       		.byte	0xf1
 2639 032e 68000000 		.4byte	0x68
 2640 0332 02       		.uleb128 0x2
 2641 0333 91       		.byte	0x91
 2642 0334 74       		.sleb128 -12
 2643 0335 13       		.uleb128 0x13
 2644 0336 7800     		.ascii	"x\000"
 2645 0338 01       		.byte	0x1
 2646 0339 F1       		.byte	0xf1
 2647 033a 68000000 		.4byte	0x68
 2648 033e 02       		.uleb128 0x2
 2649 033f 91       		.byte	0x91
 2650 0340 70       		.sleb128 -16
 2651 0341 13       		.uleb128 0x13
 2652 0342 6B00     		.ascii	"k\000"
 2653 0344 01       		.byte	0x1
 2654 0345 F1       		.byte	0xf1
 2655 0346 68000000 		.4byte	0x68
 2656 034a 02       		.uleb128 0x2
 2657 034b 91       		.byte	0x91
 2658 034c 68       		.sleb128 -24
 2659 034d 13       		.uleb128 0x13
 2660 034e 6900     		.ascii	"i\000"
 2661 0350 01       		.byte	0x1
 2662 0351 F1       		.byte	0xf1
 2663 0352 68000000 		.4byte	0x68
 2664 0356 02       		.uleb128 0x2
 2665 0357 91       		.byte	0x91
 2666 0358 6C       		.sleb128 -20
 2667 0359 00       		.byte	0
 2668 035a 15       		.uleb128 0x15
 2669 035b 13010000 		.4byte	.LASF43
 2670 035f 01       		.byte	0x1
 2671 0360 1301     		.2byte	0x113
 2672 0362 00000000 		.4byte	.LFB74
 2673 0366 DC000000 		.4byte	.LFE74-.LFB74
 2674 036a 01       		.uleb128 0x1
 2675 036b 9C       		.byte	0x9c
 2676 036c A1030000 		.4byte	0x3a1
ARM GAS  C:\Users\xavieran\AppData\Local\Temp\ccRA778j.s 			page 56


 2677 0370 16       		.uleb128 0x16
 2678 0371 F4000000 		.4byte	.LASF68
 2679 0375 01       		.byte	0x1
 2680 0376 1501     		.2byte	0x115
 2681 0378 68000000 		.4byte	0x68
 2682 037c 82030000 		.4byte	0x382
 2683 0380 17       		.uleb128 0x17
 2684 0381 00       		.byte	0
 2685 0382 18       		.uleb128 0x18
 2686 0383 52474200 		.ascii	"RGB\000"
 2687 0387 01       		.byte	0x1
 2688 0388 2101     		.2byte	0x121
 2689 038a A1030000 		.4byte	0x3a1
 2690 038e 02       		.uleb128 0x2
 2691 038f 91       		.byte	0x91
 2692 0390 6C       		.sleb128 -20
 2693 0391 19       		.uleb128 0x19
 2694 0392 DB020000 		.4byte	.LASF44
 2695 0396 01       		.byte	0x1
 2696 0397 2201     		.2byte	0x122
 2697 0399 B1030000 		.4byte	0x3b1
 2698 039d 02       		.uleb128 0x2
 2699 039e 91       		.byte	0x91
 2700 039f 58       		.sleb128 -40
 2701 03a0 00       		.byte	0
 2702 03a1 05       		.uleb128 0x5
 2703 03a2 A5000000 		.4byte	0xa5
 2704 03a6 B1030000 		.4byte	0x3b1
 2705 03aa 06       		.uleb128 0x6
 2706 03ab AC000000 		.4byte	0xac
 2707 03af 03       		.byte	0x3
 2708 03b0 00       		.byte	0
 2709 03b1 05       		.uleb128 0x5
 2710 03b2 A5000000 		.4byte	0xa5
 2711 03b6 C1030000 		.4byte	0x3c1
 2712 03ba 06       		.uleb128 0x6
 2713 03bb AC000000 		.4byte	0xac
 2714 03bf 13       		.byte	0x13
 2715 03c0 00       		.byte	0
 2716 03c1 15       		.uleb128 0x15
 2717 03c2 49000000 		.4byte	.LASF45
 2718 03c6 01       		.byte	0x1
 2719 03c7 2901     		.2byte	0x129
 2720 03c9 00000000 		.4byte	.LFB75
 2721 03cd 88010000 		.4byte	.LFE75-.LFB75
 2722 03d1 01       		.uleb128 0x1
 2723 03d2 9C       		.byte	0x9c
 2724 03d3 36040000 		.4byte	0x436
 2725 03d7 18       		.uleb128 0x18
 2726 03d8 7800     		.ascii	"x\000"
 2727 03da 01       		.byte	0x1
 2728 03db 2B01     		.2byte	0x12b
 2729 03dd 68000000 		.4byte	0x68
 2730 03e1 02       		.uleb128 0x2
 2731 03e2 91       		.byte	0x91
 2732 03e3 60       		.sleb128 -32
 2733 03e4 1A       		.uleb128 0x1a
ARM GAS  C:\Users\xavieran\AppData\Local\Temp\ccRA778j.s 			page 57


 2734 03e5 6900     		.ascii	"i\000"
 2735 03e7 01       		.byte	0x1
 2736 03e8 2B01     		.2byte	0x12b
 2737 03ea 68000000 		.4byte	0x68
 2738 03ee 18       		.uleb128 0x18
 2739 03ef 6A00     		.ascii	"j\000"
 2740 03f1 01       		.byte	0x1
 2741 03f2 2C01     		.2byte	0x12c
 2742 03f4 A5000000 		.4byte	0xa5
 2743 03f8 02       		.uleb128 0x2
 2744 03f9 91       		.byte	0x91
 2745 03fa 67       		.sleb128 -25
 2746 03fb 18       		.uleb128 0x18
 2747 03fc 6B00     		.ascii	"k\000"
 2748 03fe 01       		.byte	0x1
 2749 03ff 2C01     		.2byte	0x12c
 2750 0401 A5000000 		.4byte	0xa5
 2751 0405 02       		.uleb128 0x2
 2752 0406 91       		.byte	0x91
 2753 0407 66       		.sleb128 -26
 2754 0408 18       		.uleb128 0x18
 2755 0409 6C00     		.ascii	"l\000"
 2756 040b 01       		.byte	0x1
 2757 040c 2C01     		.2byte	0x12c
 2758 040e A5000000 		.4byte	0xa5
 2759 0412 02       		.uleb128 0x2
 2760 0413 91       		.byte	0x91
 2761 0414 65       		.sleb128 -27
 2762 0415 19       		.uleb128 0x19
 2763 0416 DB020000 		.4byte	.LASF44
 2764 041a 01       		.byte	0x1
 2765 041b 2C01     		.2byte	0x12c
 2766 041d 36040000 		.4byte	0x436
 2767 0421 03       		.uleb128 0x3
 2768 0422 91       		.byte	0x91
 2769 0423 B87F     		.sleb128 -72
 2770 0425 18       		.uleb128 0x18
 2771 0426 52474200 		.ascii	"RGB\000"
 2772 042a 01       		.byte	0x1
 2773 042b 2C01     		.2byte	0x12c
 2774 042d 4C040000 		.4byte	0x44c
 2775 0431 03       		.uleb128 0x3
 2776 0432 91       		.byte	0x91
 2777 0433 B07F     		.sleb128 -80
 2778 0435 00       		.byte	0
 2779 0436 05       		.uleb128 0x5
 2780 0437 A5000000 		.4byte	0xa5
 2781 043b 4C040000 		.4byte	0x44c
 2782 043f 06       		.uleb128 0x6
 2783 0440 AC000000 		.4byte	0xac
 2784 0444 01       		.byte	0x1
 2785 0445 06       		.uleb128 0x6
 2786 0446 AC000000 		.4byte	0xac
 2787 044a 13       		.byte	0x13
 2788 044b 00       		.byte	0
 2789 044c 05       		.uleb128 0x5
 2790 044d A5000000 		.4byte	0xa5
ARM GAS  C:\Users\xavieran\AppData\Local\Temp\ccRA778j.s 			page 58


 2791 0451 5C040000 		.4byte	0x45c
 2792 0455 06       		.uleb128 0x6
 2793 0456 AC000000 		.4byte	0xac
 2794 045a 04       		.byte	0x4
 2795 045b 00       		.byte	0
 2796 045c 15       		.uleb128 0x15
 2797 045d 6F030000 		.4byte	.LASF46
 2798 0461 01       		.byte	0x1
 2799 0462 6001     		.2byte	0x160
 2800 0464 00000000 		.4byte	.LFB76
 2801 0468 D8010000 		.4byte	.LFE76-.LFB76
 2802 046c 01       		.uleb128 0x1
 2803 046d 9C       		.byte	0x9c
 2804 046e E4040000 		.4byte	0x4e4
 2805 0472 19       		.uleb128 0x19
 2806 0473 5A030000 		.4byte	.LASF47
 2807 0477 01       		.byte	0x1
 2808 0478 6201     		.2byte	0x162
 2809 047a E4040000 		.4byte	0x4e4
 2810 047e 03       		.uleb128 0x3
 2811 047f 91       		.byte	0x91
 2812 0480 BC7E     		.sleb128 -196
 2813 0482 18       		.uleb128 0x18
 2814 0483 6900     		.ascii	"i\000"
 2815 0485 01       		.byte	0x1
 2816 0486 6301     		.2byte	0x163
 2817 0488 68000000 		.4byte	0x68
 2818 048c 02       		.uleb128 0x2
 2819 048d 91       		.byte	0x91
 2820 048e 6C       		.sleb128 -20
 2821 048f 18       		.uleb128 0x18
 2822 0490 6A00     		.ascii	"j\000"
 2823 0492 01       		.byte	0x1
 2824 0493 6301     		.2byte	0x163
 2825 0495 68000000 		.4byte	0x68
 2826 0499 02       		.uleb128 0x2
 2827 049a 91       		.byte	0x91
 2828 049b 68       		.sleb128 -24
 2829 049c 18       		.uleb128 0x18
 2830 049d 7200     		.ascii	"r\000"
 2831 049f 01       		.byte	0x1
 2832 04a0 6301     		.2byte	0x163
 2833 04a2 68000000 		.4byte	0x68
 2834 04a6 02       		.uleb128 0x2
 2835 04a7 91       		.byte	0x91
 2836 04a8 64       		.sleb128 -28
 2837 04a9 18       		.uleb128 0x18
 2838 04aa 6700     		.ascii	"g\000"
 2839 04ac 01       		.byte	0x1
 2840 04ad 6301     		.2byte	0x163
 2841 04af 68000000 		.4byte	0x68
 2842 04b3 02       		.uleb128 0x2
 2843 04b4 91       		.byte	0x91
 2844 04b5 60       		.sleb128 -32
 2845 04b6 18       		.uleb128 0x18
 2846 04b7 6200     		.ascii	"b\000"
 2847 04b9 01       		.byte	0x1
ARM GAS  C:\Users\xavieran\AppData\Local\Temp\ccRA778j.s 			page 59


 2848 04ba 6301     		.2byte	0x163
 2849 04bc 68000000 		.4byte	0x68
 2850 04c0 02       		.uleb128 0x2
 2851 04c1 91       		.byte	0x91
 2852 04c2 5C       		.sleb128 -36
 2853 04c3 18       		.uleb128 0x18
 2854 04c4 52474200 		.ascii	"RGB\000"
 2855 04c8 01       		.byte	0x1
 2856 04c9 6401     		.2byte	0x164
 2857 04cb 4C040000 		.4byte	0x44c
 2858 04cf 03       		.uleb128 0x3
 2859 04d0 91       		.byte	0x91
 2860 04d1 B47E     		.sleb128 -204
 2861 04d3 19       		.uleb128 0x19
 2862 04d4 3C020000 		.4byte	.LASF48
 2863 04d8 01       		.byte	0x1
 2864 04d9 6501     		.2byte	0x165
 2865 04db 36040000 		.4byte	0x436
 2866 04df 03       		.uleb128 0x3
 2867 04e0 91       		.byte	0x91
 2868 04e1 8C7E     		.sleb128 -244
 2869 04e3 00       		.byte	0
 2870 04e4 05       		.uleb128 0x5
 2871 04e5 68000000 		.4byte	0x68
 2872 04e9 FA040000 		.4byte	0x4fa
 2873 04ed 06       		.uleb128 0x6
 2874 04ee AC000000 		.4byte	0xac
 2875 04f2 09       		.byte	0x9
 2876 04f3 06       		.uleb128 0x6
 2877 04f4 AC000000 		.4byte	0xac
 2878 04f8 03       		.byte	0x3
 2879 04f9 00       		.byte	0
 2880 04fa 1B       		.uleb128 0x1b
 2881 04fb E3020000 		.4byte	.LASF49
 2882 04ff 06       		.byte	0x6
 2883 0500 2A06     		.2byte	0x62a
 2884 0502 06050000 		.4byte	0x506
 2885 0506 1C       		.uleb128 0x1c
 2886 0507 76000000 		.4byte	0x76
 2887 050b 05       		.uleb128 0x5
 2888 050c 81000000 		.4byte	0x81
 2889 0510 27050000 		.4byte	0x527
 2890 0514 06       		.uleb128 0x6
 2891 0515 AC000000 		.4byte	0xac
 2892 0519 8F       		.byte	0x8f
 2893 051a 06       		.uleb128 0x6
 2894 051b AC000000 		.4byte	0xac
 2895 051f 57       		.byte	0x57
 2896 0520 06       		.uleb128 0x6
 2897 0521 AC000000 		.4byte	0xac
 2898 0525 03       		.byte	0x3
 2899 0526 00       		.byte	0
 2900 0527 1D       		.uleb128 0x1d
 2901 0528 47030000 		.4byte	.LASF50
 2902 052c 07       		.byte	0x7
 2903 052d 08       		.byte	0x8
 2904 052e 0B050000 		.4byte	0x50b
ARM GAS  C:\Users\xavieran\AppData\Local\Temp\ccRA778j.s 			page 60


 2905 0532 05       		.uleb128 0x5
 2906 0533 03       		.byte	0x3
 2907 0534 00000000 		.4byte	Camera_framebuffer
 2908 0538 05       		.uleb128 0x5
 2909 0539 68000000 		.4byte	0x68
 2910 053d 48050000 		.4byte	0x548
 2911 0541 06       		.uleb128 0x6
 2912 0542 AC000000 		.4byte	0xac
 2913 0546 03       		.byte	0x3
 2914 0547 00       		.byte	0
 2915 0548 1D       		.uleb128 0x1d
 2916 0549 DC010000 		.4byte	.LASF51
 2917 054d 08       		.byte	0x8
 2918 054e 20       		.byte	0x20
 2919 054f 38050000 		.4byte	0x538
 2920 0553 05       		.uleb128 0x5
 2921 0554 03       		.byte	0x3
 2922 0555 00000000 		.4byte	stack
 2923 0559 1E       		.uleb128 0x1e
 2924 055a 7300     		.ascii	"s\000"
 2925 055c 05       		.byte	0x5
 2926 055d 19       		.byte	0x19
 2927 055e 38050000 		.4byte	0x538
 2928 0562 05       		.uleb128 0x5
 2929 0563 03       		.byte	0x3
 2930 0564 00000000 		.4byte	s
 2931 0568 1D       		.uleb128 0x1d
 2932 0569 A0010000 		.4byte	.LASF52
 2933 056d 01       		.byte	0x1
 2934 056e 13       		.byte	0x13
 2935 056f 81000000 		.4byte	0x81
 2936 0573 05       		.uleb128 0x5
 2937 0574 03       		.byte	0x3
 2938 0575 00000000 		.4byte	RED_U
 2939 0579 1D       		.uleb128 0x1d
 2940 057a A6010000 		.4byte	.LASF53
 2941 057e 01       		.byte	0x1
 2942 057f 14       		.byte	0x14
 2943 0580 81000000 		.4byte	0x81
 2944 0584 05       		.uleb128 0x5
 2945 0585 03       		.byte	0x3
 2946 0586 00000000 		.4byte	RED_V
 2947 058a 1D       		.uleb128 0x1d
 2948 058b A4020000 		.4byte	.LASF54
 2949 058f 01       		.byte	0x1
 2950 0590 15       		.byte	0x15
 2951 0591 81000000 		.4byte	0x81
 2952 0595 05       		.uleb128 0x5
 2953 0596 03       		.byte	0x3
 2954 0597 00000000 		.4byte	GREEN_U
 2955 059b 1D       		.uleb128 0x1d
 2956 059c AC020000 		.4byte	.LASF55
 2957 05a0 01       		.byte	0x1
 2958 05a1 16       		.byte	0x16
 2959 05a2 81000000 		.4byte	0x81
 2960 05a6 05       		.uleb128 0x5
 2961 05a7 03       		.byte	0x3
ARM GAS  C:\Users\xavieran\AppData\Local\Temp\ccRA778j.s 			page 61


 2962 05a8 00000000 		.4byte	GREEN_V
 2963 05ac 1D       		.uleb128 0x1d
 2964 05ad BB020000 		.4byte	.LASF56
 2965 05b1 01       		.byte	0x1
 2966 05b2 17       		.byte	0x17
 2967 05b3 81000000 		.4byte	0x81
 2968 05b7 05       		.uleb128 0x5
 2969 05b8 03       		.byte	0x3
 2970 05b9 00000000 		.4byte	BLUE_U
 2971 05bd 1D       		.uleb128 0x1d
 2972 05be 18000000 		.4byte	.LASF57
 2973 05c2 01       		.byte	0x1
 2974 05c3 18       		.byte	0x18
 2975 05c4 81000000 		.4byte	0x81
 2976 05c8 05       		.uleb128 0x5
 2977 05c9 03       		.byte	0x3
 2978 05ca 00000000 		.4byte	BLUE_V
 2979 05ce 1D       		.uleb128 0x1d
 2980 05cf 5E010000 		.4byte	.LASF58
 2981 05d3 01       		.byte	0x1
 2982 05d4 19       		.byte	0x19
 2983 05d5 81000000 		.4byte	0x81
 2984 05d9 05       		.uleb128 0x5
 2985 05da 03       		.byte	0x3
 2986 05db 00000000 		.4byte	GAIN
 2987 05df 1D       		.uleb128 0x1d
 2988 05e0 1C030000 		.4byte	.LASF59
 2989 05e4 01       		.byte	0x1
 2990 05e5 1A       		.byte	0x1a
 2991 05e6 81000000 		.4byte	0x81
 2992 05ea 05       		.uleb128 0x5
 2993 05eb 03       		.byte	0x3
 2994 05ec 00000000 		.4byte	B_GAIN
 2995 05f0 1D       		.uleb128 0x1d
 2996 05f1 02010000 		.4byte	.LASF60
 2997 05f5 01       		.byte	0x1
 2998 05f6 1B       		.byte	0x1b
 2999 05f7 81000000 		.4byte	0x81
 3000 05fb 05       		.uleb128 0x5
 3001 05fc 03       		.byte	0x3
 3002 05fd 00000000 		.4byte	R_GAIN
 3003 0601 1D       		.uleb128 0x1d
 3004 0602 5F000000 		.4byte	.LASF61
 3005 0606 01       		.byte	0x1
 3006 0607 1C       		.byte	0x1c
 3007 0608 81000000 		.4byte	0x81
 3008 060c 05       		.uleb128 0x5
 3009 060d 03       		.byte	0x3
 3010 060e 00000000 		.4byte	EXPOSURE
 3011 0612 1F       		.uleb128 0x1f
 3012 0613 68000000 		.4byte	.LASF62
 3013 0617 01       		.byte	0x1
 3014 0618 1E       		.byte	0x1e
 3015 0619 1D060000 		.4byte	0x61d
 3016 061d 20       		.uleb128 0x20
 3017 061e 04       		.byte	0x4
 3018 061f 1D010000 		.4byte	0x11d
ARM GAS  C:\Users\xavieran\AppData\Local\Temp\ccRA778j.s 			page 62


 3019 0623 1D       		.uleb128 0x1d
 3020 0624 09010000 		.4byte	.LASF63
 3021 0628 01       		.byte	0x1
 3022 0629 1F       		.byte	0x1f
 3023 062a 68000000 		.4byte	0x68
 3024 062e 05       		.uleb128 0x5
 3025 062f 03       		.byte	0x3
 3026 0630 00000000 		.4byte	connected
 3027 0634 00       		.byte	0
 3028              		.section	.debug_abbrev,"",%progbits
 3029              	.Ldebug_abbrev0:
 3030 0000 01       		.uleb128 0x1
 3031 0001 11       		.uleb128 0x11
 3032 0002 01       		.byte	0x1
 3033 0003 25       		.uleb128 0x25
 3034 0004 0E       		.uleb128 0xe
 3035 0005 13       		.uleb128 0x13
 3036 0006 0B       		.uleb128 0xb
 3037 0007 03       		.uleb128 0x3
 3038 0008 0E       		.uleb128 0xe
 3039 0009 1B       		.uleb128 0x1b
 3040 000a 0E       		.uleb128 0xe
 3041 000b 55       		.uleb128 0x55
 3042 000c 17       		.uleb128 0x17
 3043 000d 11       		.uleb128 0x11
 3044 000e 01       		.uleb128 0x1
 3045 000f 10       		.uleb128 0x10
 3046 0010 17       		.uleb128 0x17
 3047 0011 00       		.byte	0
 3048 0012 00       		.byte	0
 3049 0013 02       		.uleb128 0x2
 3050 0014 24       		.uleb128 0x24
 3051 0015 00       		.byte	0
 3052 0016 0B       		.uleb128 0xb
 3053 0017 0B       		.uleb128 0xb
 3054 0018 3E       		.uleb128 0x3e
 3055 0019 0B       		.uleb128 0xb
 3056 001a 03       		.uleb128 0x3
 3057 001b 0E       		.uleb128 0xe
 3058 001c 00       		.byte	0
 3059 001d 00       		.byte	0
 3060 001e 03       		.uleb128 0x3
 3061 001f 16       		.uleb128 0x16
 3062 0020 00       		.byte	0
 3063 0021 03       		.uleb128 0x3
 3064 0022 0E       		.uleb128 0xe
 3065 0023 3A       		.uleb128 0x3a
 3066 0024 0B       		.uleb128 0xb
 3067 0025 3B       		.uleb128 0x3b
 3068 0026 0B       		.uleb128 0xb
 3069 0027 49       		.uleb128 0x49
 3070 0028 13       		.uleb128 0x13
 3071 0029 00       		.byte	0
 3072 002a 00       		.byte	0
 3073 002b 04       		.uleb128 0x4
 3074 002c 24       		.uleb128 0x24
 3075 002d 00       		.byte	0
ARM GAS  C:\Users\xavieran\AppData\Local\Temp\ccRA778j.s 			page 63


 3076 002e 0B       		.uleb128 0xb
 3077 002f 0B       		.uleb128 0xb
 3078 0030 3E       		.uleb128 0x3e
 3079 0031 0B       		.uleb128 0xb
 3080 0032 03       		.uleb128 0x3
 3081 0033 08       		.uleb128 0x8
 3082 0034 00       		.byte	0
 3083 0035 00       		.byte	0
 3084 0036 05       		.uleb128 0x5
 3085 0037 01       		.uleb128 0x1
 3086 0038 01       		.byte	0x1
 3087 0039 49       		.uleb128 0x49
 3088 003a 13       		.uleb128 0x13
 3089 003b 01       		.uleb128 0x1
 3090 003c 13       		.uleb128 0x13
 3091 003d 00       		.byte	0
 3092 003e 00       		.byte	0
 3093 003f 06       		.uleb128 0x6
 3094 0040 21       		.uleb128 0x21
 3095 0041 00       		.byte	0
 3096 0042 49       		.uleb128 0x49
 3097 0043 13       		.uleb128 0x13
 3098 0044 2F       		.uleb128 0x2f
 3099 0045 0B       		.uleb128 0xb
 3100 0046 00       		.byte	0
 3101 0047 00       		.byte	0
 3102 0048 07       		.uleb128 0x7
 3103 0049 04       		.uleb128 0x4
 3104 004a 01       		.byte	0x1
 3105 004b 0B       		.uleb128 0xb
 3106 004c 0B       		.uleb128 0xb
 3107 004d 3A       		.uleb128 0x3a
 3108 004e 0B       		.uleb128 0xb
 3109 004f 3B       		.uleb128 0x3b
 3110 0050 0B       		.uleb128 0xb
 3111 0051 01       		.uleb128 0x1
 3112 0052 13       		.uleb128 0x13
 3113 0053 00       		.byte	0
 3114 0054 00       		.byte	0
 3115 0055 08       		.uleb128 0x8
 3116 0056 28       		.uleb128 0x28
 3117 0057 00       		.byte	0
 3118 0058 03       		.uleb128 0x3
 3119 0059 0E       		.uleb128 0xe
 3120 005a 1C       		.uleb128 0x1c
 3121 005b 0D       		.uleb128 0xd
 3122 005c 00       		.byte	0
 3123 005d 00       		.byte	0
 3124 005e 09       		.uleb128 0x9
 3125 005f 28       		.uleb128 0x28
 3126 0060 00       		.byte	0
 3127 0061 03       		.uleb128 0x3
 3128 0062 08       		.uleb128 0x8
 3129 0063 1C       		.uleb128 0x1c
 3130 0064 0D       		.uleb128 0xd
 3131 0065 00       		.byte	0
 3132 0066 00       		.byte	0
ARM GAS  C:\Users\xavieran\AppData\Local\Temp\ccRA778j.s 			page 64


 3133 0067 0A       		.uleb128 0xa
 3134 0068 13       		.uleb128 0x13
 3135 0069 01       		.byte	0x1
 3136 006a 0B       		.uleb128 0xb
 3137 006b 0B       		.uleb128 0xb
 3138 006c 3A       		.uleb128 0x3a
 3139 006d 0B       		.uleb128 0xb
 3140 006e 3B       		.uleb128 0x3b
 3141 006f 0B       		.uleb128 0xb
 3142 0070 01       		.uleb128 0x1
 3143 0071 13       		.uleb128 0x13
 3144 0072 00       		.byte	0
 3145 0073 00       		.byte	0
 3146 0074 0B       		.uleb128 0xb
 3147 0075 0D       		.uleb128 0xd
 3148 0076 00       		.byte	0
 3149 0077 03       		.uleb128 0x3
 3150 0078 0E       		.uleb128 0xe
 3151 0079 3A       		.uleb128 0x3a
 3152 007a 0B       		.uleb128 0xb
 3153 007b 3B       		.uleb128 0x3b
 3154 007c 0B       		.uleb128 0xb
 3155 007d 49       		.uleb128 0x49
 3156 007e 13       		.uleb128 0x13
 3157 007f 38       		.uleb128 0x38
 3158 0080 0B       		.uleb128 0xb
 3159 0081 00       		.byte	0
 3160 0082 00       		.byte	0
 3161 0083 0C       		.uleb128 0xc
 3162 0084 2E       		.uleb128 0x2e
 3163 0085 00       		.byte	0
 3164 0086 3F       		.uleb128 0x3f
 3165 0087 19       		.uleb128 0x19
 3166 0088 03       		.uleb128 0x3
 3167 0089 0E       		.uleb128 0xe
 3168 008a 3A       		.uleb128 0x3a
 3169 008b 0B       		.uleb128 0xb
 3170 008c 3B       		.uleb128 0x3b
 3171 008d 0B       		.uleb128 0xb
 3172 008e 11       		.uleb128 0x11
 3173 008f 01       		.uleb128 0x1
 3174 0090 12       		.uleb128 0x12
 3175 0091 06       		.uleb128 0x6
 3176 0092 40       		.uleb128 0x40
 3177 0093 18       		.uleb128 0x18
 3178 0094 9642     		.uleb128 0x2116
 3179 0096 19       		.uleb128 0x19
 3180 0097 00       		.byte	0
 3181 0098 00       		.byte	0
 3182 0099 0D       		.uleb128 0xd
 3183 009a 2E       		.uleb128 0x2e
 3184 009b 01       		.byte	0x1
 3185 009c 3F       		.uleb128 0x3f
 3186 009d 19       		.uleb128 0x19
 3187 009e 03       		.uleb128 0x3
 3188 009f 0E       		.uleb128 0xe
 3189 00a0 3A       		.uleb128 0x3a
ARM GAS  C:\Users\xavieran\AppData\Local\Temp\ccRA778j.s 			page 65


 3190 00a1 0B       		.uleb128 0xb
 3191 00a2 3B       		.uleb128 0x3b
 3192 00a3 0B       		.uleb128 0xb
 3193 00a4 27       		.uleb128 0x27
 3194 00a5 19       		.uleb128 0x19
 3195 00a6 11       		.uleb128 0x11
 3196 00a7 01       		.uleb128 0x1
 3197 00a8 12       		.uleb128 0x12
 3198 00a9 06       		.uleb128 0x6
 3199 00aa 40       		.uleb128 0x40
 3200 00ab 18       		.uleb128 0x18
 3201 00ac 9642     		.uleb128 0x2116
 3202 00ae 19       		.uleb128 0x19
 3203 00af 01       		.uleb128 0x1
 3204 00b0 13       		.uleb128 0x13
 3205 00b1 00       		.byte	0
 3206 00b2 00       		.byte	0
 3207 00b3 0E       		.uleb128 0xe
 3208 00b4 05       		.uleb128 0x5
 3209 00b5 00       		.byte	0
 3210 00b6 03       		.uleb128 0x3
 3211 00b7 0E       		.uleb128 0xe
 3212 00b8 3A       		.uleb128 0x3a
 3213 00b9 0B       		.uleb128 0xb
 3214 00ba 3B       		.uleb128 0x3b
 3215 00bb 0B       		.uleb128 0xb
 3216 00bc 49       		.uleb128 0x49
 3217 00bd 13       		.uleb128 0x13
 3218 00be 02       		.uleb128 0x2
 3219 00bf 18       		.uleb128 0x18
 3220 00c0 00       		.byte	0
 3221 00c1 00       		.byte	0
 3222 00c2 0F       		.uleb128 0xf
 3223 00c3 2E       		.uleb128 0x2e
 3224 00c4 01       		.byte	0x1
 3225 00c5 3F       		.uleb128 0x3f
 3226 00c6 19       		.uleb128 0x19
 3227 00c7 03       		.uleb128 0x3
 3228 00c8 0E       		.uleb128 0xe
 3229 00c9 3A       		.uleb128 0x3a
 3230 00ca 0B       		.uleb128 0xb
 3231 00cb 3B       		.uleb128 0x3b
 3232 00cc 0B       		.uleb128 0xb
 3233 00cd 27       		.uleb128 0x27
 3234 00ce 19       		.uleb128 0x19
 3235 00cf 49       		.uleb128 0x49
 3236 00d0 13       		.uleb128 0x13
 3237 00d1 11       		.uleb128 0x11
 3238 00d2 01       		.uleb128 0x1
 3239 00d3 12       		.uleb128 0x12
 3240 00d4 06       		.uleb128 0x6
 3241 00d5 40       		.uleb128 0x40
 3242 00d6 18       		.uleb128 0x18
 3243 00d7 9742     		.uleb128 0x2117
 3244 00d9 19       		.uleb128 0x19
 3245 00da 01       		.uleb128 0x1
 3246 00db 13       		.uleb128 0x13
ARM GAS  C:\Users\xavieran\AppData\Local\Temp\ccRA778j.s 			page 66


 3247 00dc 00       		.byte	0
 3248 00dd 00       		.byte	0
 3249 00de 10       		.uleb128 0x10
 3250 00df 05       		.uleb128 0x5
 3251 00e0 00       		.byte	0
 3252 00e1 03       		.uleb128 0x3
 3253 00e2 08       		.uleb128 0x8
 3254 00e3 3A       		.uleb128 0x3a
 3255 00e4 0B       		.uleb128 0xb
 3256 00e5 3B       		.uleb128 0x3b
 3257 00e6 0B       		.uleb128 0xb
 3258 00e7 49       		.uleb128 0x49
 3259 00e8 13       		.uleb128 0x13
 3260 00e9 02       		.uleb128 0x2
 3261 00ea 18       		.uleb128 0x18
 3262 00eb 00       		.byte	0
 3263 00ec 00       		.byte	0
 3264 00ed 11       		.uleb128 0x11
 3265 00ee 2E       		.uleb128 0x2e
 3266 00ef 01       		.byte	0x1
 3267 00f0 3F       		.uleb128 0x3f
 3268 00f1 19       		.uleb128 0x19
 3269 00f2 03       		.uleb128 0x3
 3270 00f3 0E       		.uleb128 0xe
 3271 00f4 3A       		.uleb128 0x3a
 3272 00f5 0B       		.uleb128 0xb
 3273 00f6 3B       		.uleb128 0x3b
 3274 00f7 0B       		.uleb128 0xb
 3275 00f8 11       		.uleb128 0x11
 3276 00f9 01       		.uleb128 0x1
 3277 00fa 12       		.uleb128 0x12
 3278 00fb 06       		.uleb128 0x6
 3279 00fc 40       		.uleb128 0x40
 3280 00fd 18       		.uleb128 0x18
 3281 00fe 9642     		.uleb128 0x2116
 3282 0100 19       		.uleb128 0x19
 3283 0101 01       		.uleb128 0x1
 3284 0102 13       		.uleb128 0x13
 3285 0103 00       		.byte	0
 3286 0104 00       		.byte	0
 3287 0105 12       		.uleb128 0x12
 3288 0106 34       		.uleb128 0x34
 3289 0107 00       		.byte	0
 3290 0108 03       		.uleb128 0x3
 3291 0109 0E       		.uleb128 0xe
 3292 010a 3A       		.uleb128 0x3a
 3293 010b 0B       		.uleb128 0xb
 3294 010c 3B       		.uleb128 0x3b
 3295 010d 0B       		.uleb128 0xb
 3296 010e 49       		.uleb128 0x49
 3297 010f 13       		.uleb128 0x13
 3298 0110 02       		.uleb128 0x2
 3299 0111 18       		.uleb128 0x18
 3300 0112 00       		.byte	0
 3301 0113 00       		.byte	0
 3302 0114 13       		.uleb128 0x13
 3303 0115 34       		.uleb128 0x34
ARM GAS  C:\Users\xavieran\AppData\Local\Temp\ccRA778j.s 			page 67


 3304 0116 00       		.byte	0
 3305 0117 03       		.uleb128 0x3
 3306 0118 08       		.uleb128 0x8
 3307 0119 3A       		.uleb128 0x3a
 3308 011a 0B       		.uleb128 0xb
 3309 011b 3B       		.uleb128 0x3b
 3310 011c 0B       		.uleb128 0xb
 3311 011d 49       		.uleb128 0x49
 3312 011e 13       		.uleb128 0x13
 3313 011f 02       		.uleb128 0x2
 3314 0120 18       		.uleb128 0x18
 3315 0121 00       		.byte	0
 3316 0122 00       		.byte	0
 3317 0123 14       		.uleb128 0x14
 3318 0124 2E       		.uleb128 0x2e
 3319 0125 00       		.byte	0
 3320 0126 3F       		.uleb128 0x3f
 3321 0127 19       		.uleb128 0x19
 3322 0128 03       		.uleb128 0x3
 3323 0129 0E       		.uleb128 0xe
 3324 012a 3A       		.uleb128 0x3a
 3325 012b 0B       		.uleb128 0xb
 3326 012c 3B       		.uleb128 0x3b
 3327 012d 0B       		.uleb128 0xb
 3328 012e 49       		.uleb128 0x49
 3329 012f 13       		.uleb128 0x13
 3330 0130 11       		.uleb128 0x11
 3331 0131 01       		.uleb128 0x1
 3332 0132 12       		.uleb128 0x12
 3333 0133 06       		.uleb128 0x6
 3334 0134 40       		.uleb128 0x40
 3335 0135 18       		.uleb128 0x18
 3336 0136 9642     		.uleb128 0x2116
 3337 0138 19       		.uleb128 0x19
 3338 0139 00       		.byte	0
 3339 013a 00       		.byte	0
 3340 013b 15       		.uleb128 0x15
 3341 013c 2E       		.uleb128 0x2e
 3342 013d 01       		.byte	0x1
 3343 013e 3F       		.uleb128 0x3f
 3344 013f 19       		.uleb128 0x19
 3345 0140 03       		.uleb128 0x3
 3346 0141 0E       		.uleb128 0xe
 3347 0142 3A       		.uleb128 0x3a
 3348 0143 0B       		.uleb128 0xb
 3349 0144 3B       		.uleb128 0x3b
 3350 0145 05       		.uleb128 0x5
 3351 0146 11       		.uleb128 0x11
 3352 0147 01       		.uleb128 0x1
 3353 0148 12       		.uleb128 0x12
 3354 0149 06       		.uleb128 0x6
 3355 014a 40       		.uleb128 0x40
 3356 014b 18       		.uleb128 0x18
 3357 014c 9642     		.uleb128 0x2116
 3358 014e 19       		.uleb128 0x19
 3359 014f 01       		.uleb128 0x1
 3360 0150 13       		.uleb128 0x13
ARM GAS  C:\Users\xavieran\AppData\Local\Temp\ccRA778j.s 			page 68


 3361 0151 00       		.byte	0
 3362 0152 00       		.byte	0
 3363 0153 16       		.uleb128 0x16
 3364 0154 2E       		.uleb128 0x2e
 3365 0155 01       		.byte	0x1
 3366 0156 3F       		.uleb128 0x3f
 3367 0157 19       		.uleb128 0x19
 3368 0158 03       		.uleb128 0x3
 3369 0159 0E       		.uleb128 0xe
 3370 015a 3A       		.uleb128 0x3a
 3371 015b 0B       		.uleb128 0xb
 3372 015c 3B       		.uleb128 0x3b
 3373 015d 05       		.uleb128 0x5
 3374 015e 49       		.uleb128 0x49
 3375 015f 13       		.uleb128 0x13
 3376 0160 3C       		.uleb128 0x3c
 3377 0161 19       		.uleb128 0x19
 3378 0162 01       		.uleb128 0x1
 3379 0163 13       		.uleb128 0x13
 3380 0164 00       		.byte	0
 3381 0165 00       		.byte	0
 3382 0166 17       		.uleb128 0x17
 3383 0167 18       		.uleb128 0x18
 3384 0168 00       		.byte	0
 3385 0169 00       		.byte	0
 3386 016a 00       		.byte	0
 3387 016b 18       		.uleb128 0x18
 3388 016c 34       		.uleb128 0x34
 3389 016d 00       		.byte	0
 3390 016e 03       		.uleb128 0x3
 3391 016f 08       		.uleb128 0x8
 3392 0170 3A       		.uleb128 0x3a
 3393 0171 0B       		.uleb128 0xb
 3394 0172 3B       		.uleb128 0x3b
 3395 0173 05       		.uleb128 0x5
 3396 0174 49       		.uleb128 0x49
 3397 0175 13       		.uleb128 0x13
 3398 0176 02       		.uleb128 0x2
 3399 0177 18       		.uleb128 0x18
 3400 0178 00       		.byte	0
 3401 0179 00       		.byte	0
 3402 017a 19       		.uleb128 0x19
 3403 017b 34       		.uleb128 0x34
 3404 017c 00       		.byte	0
 3405 017d 03       		.uleb128 0x3
 3406 017e 0E       		.uleb128 0xe
 3407 017f 3A       		.uleb128 0x3a
 3408 0180 0B       		.uleb128 0xb
 3409 0181 3B       		.uleb128 0x3b
 3410 0182 05       		.uleb128 0x5
 3411 0183 49       		.uleb128 0x49
 3412 0184 13       		.uleb128 0x13
 3413 0185 02       		.uleb128 0x2
 3414 0186 18       		.uleb128 0x18
 3415 0187 00       		.byte	0
 3416 0188 00       		.byte	0
 3417 0189 1A       		.uleb128 0x1a
ARM GAS  C:\Users\xavieran\AppData\Local\Temp\ccRA778j.s 			page 69


 3418 018a 34       		.uleb128 0x34
 3419 018b 00       		.byte	0
 3420 018c 03       		.uleb128 0x3
 3421 018d 08       		.uleb128 0x8
 3422 018e 3A       		.uleb128 0x3a
 3423 018f 0B       		.uleb128 0xb
 3424 0190 3B       		.uleb128 0x3b
 3425 0191 05       		.uleb128 0x5
 3426 0192 49       		.uleb128 0x49
 3427 0193 13       		.uleb128 0x13
 3428 0194 00       		.byte	0
 3429 0195 00       		.byte	0
 3430 0196 1B       		.uleb128 0x1b
 3431 0197 34       		.uleb128 0x34
 3432 0198 00       		.byte	0
 3433 0199 03       		.uleb128 0x3
 3434 019a 0E       		.uleb128 0xe
 3435 019b 3A       		.uleb128 0x3a
 3436 019c 0B       		.uleb128 0xb
 3437 019d 3B       		.uleb128 0x3b
 3438 019e 05       		.uleb128 0x5
 3439 019f 49       		.uleb128 0x49
 3440 01a0 13       		.uleb128 0x13
 3441 01a1 3F       		.uleb128 0x3f
 3442 01a2 19       		.uleb128 0x19
 3443 01a3 3C       		.uleb128 0x3c
 3444 01a4 19       		.uleb128 0x19
 3445 01a5 00       		.byte	0
 3446 01a6 00       		.byte	0
 3447 01a7 1C       		.uleb128 0x1c
 3448 01a8 35       		.uleb128 0x35
 3449 01a9 00       		.byte	0
 3450 01aa 49       		.uleb128 0x49
 3451 01ab 13       		.uleb128 0x13
 3452 01ac 00       		.byte	0
 3453 01ad 00       		.byte	0
 3454 01ae 1D       		.uleb128 0x1d
 3455 01af 34       		.uleb128 0x34
 3456 01b0 00       		.byte	0
 3457 01b1 03       		.uleb128 0x3
 3458 01b2 0E       		.uleb128 0xe
 3459 01b3 3A       		.uleb128 0x3a
 3460 01b4 0B       		.uleb128 0xb
 3461 01b5 3B       		.uleb128 0x3b
 3462 01b6 0B       		.uleb128 0xb
 3463 01b7 49       		.uleb128 0x49
 3464 01b8 13       		.uleb128 0x13
 3465 01b9 3F       		.uleb128 0x3f
 3466 01ba 19       		.uleb128 0x19
 3467 01bb 02       		.uleb128 0x2
 3468 01bc 18       		.uleb128 0x18
 3469 01bd 00       		.byte	0
 3470 01be 00       		.byte	0
 3471 01bf 1E       		.uleb128 0x1e
 3472 01c0 34       		.uleb128 0x34
 3473 01c1 00       		.byte	0
 3474 01c2 03       		.uleb128 0x3
ARM GAS  C:\Users\xavieran\AppData\Local\Temp\ccRA778j.s 			page 70


 3475 01c3 08       		.uleb128 0x8
 3476 01c4 3A       		.uleb128 0x3a
 3477 01c5 0B       		.uleb128 0xb
 3478 01c6 3B       		.uleb128 0x3b
 3479 01c7 0B       		.uleb128 0xb
 3480 01c8 49       		.uleb128 0x49
 3481 01c9 13       		.uleb128 0x13
 3482 01ca 3F       		.uleb128 0x3f
 3483 01cb 19       		.uleb128 0x19
 3484 01cc 02       		.uleb128 0x2
 3485 01cd 18       		.uleb128 0x18
 3486 01ce 00       		.byte	0
 3487 01cf 00       		.byte	0
 3488 01d0 1F       		.uleb128 0x1f
 3489 01d1 34       		.uleb128 0x34
 3490 01d2 00       		.byte	0
 3491 01d3 03       		.uleb128 0x3
 3492 01d4 0E       		.uleb128 0xe
 3493 01d5 3A       		.uleb128 0x3a
 3494 01d6 0B       		.uleb128 0xb
 3495 01d7 3B       		.uleb128 0x3b
 3496 01d8 0B       		.uleb128 0xb
 3497 01d9 49       		.uleb128 0x49
 3498 01da 13       		.uleb128 0x13
 3499 01db 3F       		.uleb128 0x3f
 3500 01dc 19       		.uleb128 0x19
 3501 01dd 3C       		.uleb128 0x3c
 3502 01de 19       		.uleb128 0x19
 3503 01df 00       		.byte	0
 3504 01e0 00       		.byte	0
 3505 01e1 20       		.uleb128 0x20
 3506 01e2 0F       		.uleb128 0xf
 3507 01e3 00       		.byte	0
 3508 01e4 0B       		.uleb128 0xb
 3509 01e5 0B       		.uleb128 0xb
 3510 01e6 49       		.uleb128 0x49
 3511 01e7 13       		.uleb128 0x13
 3512 01e8 00       		.byte	0
 3513 01e9 00       		.byte	0
 3514 01ea 00       		.byte	0
 3515              		.section	.debug_aranges,"",%progbits
 3516 0000 84000000 		.4byte	0x84
 3517 0004 0200     		.2byte	0x2
 3518 0006 00000000 		.4byte	.Ldebug_info0
 3519 000a 04       		.byte	0x4
 3520 000b 00       		.byte	0
 3521 000c 0000     		.2byte	0
 3522 000e 0000     		.2byte	0
 3523 0010 00000000 		.4byte	.LFB63
 3524 0014 D4000000 		.4byte	.LFE63-.LFB63
 3525 0018 00000000 		.4byte	.LFB64
 3526 001c 12000000 		.4byte	.LFE64-.LFB64
 3527 0020 00000000 		.4byte	.LFB65
 3528 0024 3C000000 		.4byte	.LFE65-.LFB65
 3529 0028 00000000 		.4byte	.LFB66
 3530 002c 6C000000 		.4byte	.LFE66-.LFB66
 3531 0030 00000000 		.4byte	.LFB67
ARM GAS  C:\Users\xavieran\AppData\Local\Temp\ccRA778j.s 			page 71


 3532 0034 E8000000 		.4byte	.LFE67-.LFB67
 3533 0038 00000000 		.4byte	.LFB68
 3534 003c 58030000 		.4byte	.LFE68-.LFB68
 3535 0040 00000000 		.4byte	.LFB69
 3536 0044 24010000 		.4byte	.LFE69-.LFB69
 3537 0048 00000000 		.4byte	.LFB70
 3538 004c 34000000 		.4byte	.LFE70-.LFB70
 3539 0050 00000000 		.4byte	.LFB71
 3540 0054 12000000 		.4byte	.LFE71-.LFB71
 3541 0058 00000000 		.4byte	.LFB72
 3542 005c 58000000 		.4byte	.LFE72-.LFB72
 3543 0060 00000000 		.4byte	.LFB73
 3544 0064 98010000 		.4byte	.LFE73-.LFB73
 3545 0068 00000000 		.4byte	.LFB74
 3546 006c DC000000 		.4byte	.LFE74-.LFB74
 3547 0070 00000000 		.4byte	.LFB75
 3548 0074 88010000 		.4byte	.LFE75-.LFB75
 3549 0078 00000000 		.4byte	.LFB76
 3550 007c D8010000 		.4byte	.LFE76-.LFB76
 3551 0080 00000000 		.4byte	0
 3552 0084 00000000 		.4byte	0
 3553              		.section	.debug_ranges,"",%progbits
 3554              	.Ldebug_ranges0:
 3555 0000 00000000 		.4byte	.LFB63
 3556 0004 D4000000 		.4byte	.LFE63
 3557 0008 00000000 		.4byte	.LFB64
 3558 000c 12000000 		.4byte	.LFE64
 3559 0010 00000000 		.4byte	.LFB65
 3560 0014 3C000000 		.4byte	.LFE65
 3561 0018 00000000 		.4byte	.LFB66
 3562 001c 6C000000 		.4byte	.LFE66
 3563 0020 00000000 		.4byte	.LFB67
 3564 0024 E8000000 		.4byte	.LFE67
 3565 0028 00000000 		.4byte	.LFB68
 3566 002c 58030000 		.4byte	.LFE68
 3567 0030 00000000 		.4byte	.LFB69
 3568 0034 24010000 		.4byte	.LFE69
 3569 0038 00000000 		.4byte	.LFB70
 3570 003c 34000000 		.4byte	.LFE70
 3571 0040 00000000 		.4byte	.LFB71
 3572 0044 12000000 		.4byte	.LFE71
 3573 0048 00000000 		.4byte	.LFB72
 3574 004c 58000000 		.4byte	.LFE72
 3575 0050 00000000 		.4byte	.LFB73
 3576 0054 98010000 		.4byte	.LFE73
 3577 0058 00000000 		.4byte	.LFB74
 3578 005c DC000000 		.4byte	.LFE74
 3579 0060 00000000 		.4byte	.LFB75
 3580 0064 88010000 		.4byte	.LFE75
 3581 0068 00000000 		.4byte	.LFB76
 3582 006c D8010000 		.4byte	.LFE76
 3583 0070 00000000 		.4byte	0
 3584 0074 00000000 		.4byte	0
 3585              		.section	.debug_line,"",%progbits
 3586              	.Ldebug_line0:
 3587 0000 72040000 		.section	.debug_str,"MS",%progbits,1
 3587      02009101 
ARM GAS  C:\Users\xavieran\AppData\Local\Temp\ccRA778j.s 			page 72


 3587      00000201 
 3587      FB0E0D00 
 3587      01010101 
 3588              	.LASF65:
 3589 0000 2E5C6D79 		.ascii	".\\my_camera_functions.c\000"
 3589      5F63616D 
 3589      6572615F 
 3589      66756E63 
 3589      74696F6E 
 3590              	.LASF57:
 3591 0018 424C5545 		.ascii	"BLUE_V\000"
 3591      5F5600
 3592              	.LASF31:
 3593 001f 70697865 		.ascii	"pixel\000"
 3593      6C00
 3594              	.LASF33:
 3595 0025 636C6561 		.ascii	"clean_frame\000"
 3595      6E5F6672 
 3595      616D6500 
 3596              	.LASF28:
 3597 0031 73657474 		.ascii	"setting\000"
 3597      696E6700 
 3598              	.LASF37:
 3599 0039 696E6465 		.ascii	"index\000"
 3599      7800
 3600              	.LASF2:
 3601 003f 73686F72 		.ascii	"short int\000"
 3601      7420696E 
 3601      7400
 3602              	.LASF45:
 3603 0049 696D6167 		.ascii	"image_stuff4\000"
 3603      655F7374 
 3603      75666634 
 3603      00
 3604              	.LASF16:
 3605 0056 73697A65 		.ascii	"sizetype\000"
 3605      74797065 
 3605      00
 3606              	.LASF61:
 3607 005f 4558504F 		.ascii	"EXPOSURE\000"
 3607      53555245 
 3607      00
 3608              	.LASF62:
 3609 0068 626C6F62 		.ascii	"blobs\000"
 3609      7300
 3610              	.LASF64:
 3611 006e 474E5520 		.ascii	"GNU C 4.8.4 20140526 (release) [ARM/embedded-4_8-br"
 3611      4320342E 
 3611      382E3420 
 3611      32303134 
 3611      30353236 
 3612 00a1 616E6368 		.ascii	"anch revision 211358] -mcpu=cortex-m3 -mthumb -g -O"
 3612      20726576 
 3612      6973696F 
 3612      6E203231 
 3612      31333538 
 3613 00d4 30202D66 		.ascii	"0 -ffunction-sections\000"
ARM GAS  C:\Users\xavieran\AppData\Local\Temp\ccRA778j.s 			page 73


 3613      66756E63 
 3613      74696F6E 
 3613      2D736563 
 3613      74696F6E 
 3614              	.LASF35:
 3615 00ea 726F775F 		.ascii	"row_limit\000"
 3615      6C696D69 
 3615      7400
 3616              	.LASF68:
 3617 00f4 61726D5F 		.ascii	"arm_set_level\000"
 3617      7365745F 
 3617      6C657665 
 3617      6C00
 3618              	.LASF60:
 3619 0102 525F4741 		.ascii	"R_GAIN\000"
 3619      494E00
 3620              	.LASF63:
 3621 0109 636F6E6E 		.ascii	"connected\000"
 3621      65637465 
 3621      6400
 3622              	.LASF43:
 3623 0113 72656164 		.ascii	"read_instruction_routine\000"
 3623      5F696E73 
 3623      74727563 
 3623      74696F6E 
 3623      5F726F75 
 3624              	.LASF67:
 3625 012c 6964656E 		.ascii	"identify_colour_gripper\000"
 3625      74696679 
 3625      5F636F6C 
 3625      6F75725F 
 3625      67726970 
 3626              	.LASF13:
 3627 0144 666C6F61 		.ascii	"float\000"
 3627      7400
 3628              	.LASF11:
 3629 014a 75696E74 		.ascii	"uint8\000"
 3629      3800
 3630              	.LASF6:
 3631 0150 6C6F6E67 		.ascii	"long long int\000"
 3631      206C6F6E 
 3631      6720696E 
 3631      7400
 3632              	.LASF58:
 3633 015e 4741494E 		.ascii	"GAIN\000"
 3633      00
 3634              	.LASF4:
 3635 0163 6C6F6E67 		.ascii	"long int\000"
 3635      20696E74 
 3635      00
 3636              	.LASF40:
 3637 016c 50697865 		.ascii	"PixelLuminence\000"
 3637      6C4C756D 
 3637      696E656E 
 3637      636500
 3638              	.LASF38:
 3639 017b 50697865 		.ascii	"PixelColour\000"
ARM GAS  C:\Users\xavieran\AppData\Local\Temp\ccRA778j.s 			page 74


 3639      6C436F6C 
 3639      6F757200 
 3640              	.LASF34:
 3641 0187 70726F70 		.ascii	"proportion\000"
 3641      6F727469 
 3641      6F6E00
 3642              	.LASF1:
 3643 0192 756E7369 		.ascii	"unsigned char\000"
 3643      676E6564 
 3643      20636861 
 3643      7200
 3644              	.LASF52:
 3645 01a0 5245445F 		.ascii	"RED_U\000"
 3645      5500
 3646              	.LASF53:
 3647 01a6 5245445F 		.ascii	"RED_V\000"
 3647      5600
 3648              	.LASF0:
 3649 01ac 7369676E 		.ascii	"signed char\000"
 3649      65642063 
 3649      68617200 
 3650              	.LASF7:
 3651 01b8 6C6F6E67 		.ascii	"long long unsigned int\000"
 3651      206C6F6E 
 3651      6720756E 
 3651      7369676E 
 3651      65642069 
 3652              	.LASF8:
 3653 01cf 756E7369 		.ascii	"unsigned int\000"
 3653      676E6564 
 3653      20696E74 
 3653      00
 3654              	.LASF51:
 3655 01dc 73746163 		.ascii	"stack\000"
 3655      6B00
 3656              	.LASF66:
 3657 01e2 433A5C55 		.ascii	"C:\\Users\\xavieran\\Desktop\\ECE3091\\PSOCProjects"
 3657      73657273 
 3657      5C786176 
 3657      69657261 
 3657      6E5C4465 
 3658 0210 5C454E47 		.ascii	"\\ENG3091_MandM\\Camera_vis\\camera_test.cydsn\000"
 3658      33303931 
 3658      5F4D616E 
 3658      644D5C43 
 3658      616D6572 
 3659              	.LASF48:
 3660 023c 64697370 		.ascii	"disp\000"
 3660      00
 3661              	.LASF25:
 3662 0241 696E6974 		.ascii	"init_camera\000"
 3662      5F63616D 
 3662      65726100 
 3663              	.LASF24:
 3664 024d 626C6F62 		.ascii	"blob\000"
 3664      00
 3665              	.LASF3:
ARM GAS  C:\Users\xavieran\AppData\Local\Temp\ccRA778j.s 			page 75


 3666 0252 73686F72 		.ascii	"short unsigned int\000"
 3666      7420756E 
 3666      7369676E 
 3666      65642069 
 3666      6E7400
 3667              	.LASF22:
 3668 0265 785F7375 		.ascii	"x_sum\000"
 3668      6D00
 3669              	.LASF15:
 3670 026b 63686172 		.ascii	"char\000"
 3670      00
 3671              	.LASF10:
 3672 0270 696E7433 		.ascii	"int32_t\000"
 3672      325F7400 
 3673              	.LASF27:
 3674 0278 63617074 		.ascii	"capture_thresh_image\000"
 3674      7572655F 
 3674      74687265 
 3674      73685F69 
 3674      6D616765 
 3675              	.LASF41:
 3676 028d 74687265 		.ascii	"threshold_image\000"
 3676      73686F6C 
 3676      645F696D 
 3676      61676500 
 3677              	.LASF29:
 3678 029d 6C6F6361 		.ascii	"locals\000"
 3678      6C7300
 3679              	.LASF54:
 3680 02a4 47524545 		.ascii	"GREEN_U\000"
 3680      4E5F5500 
 3681              	.LASF55:
 3682 02ac 47524545 		.ascii	"GREEN_V\000"
 3682      4E5F5600 
 3683              	.LASF12:
 3684 02b4 75696E74 		.ascii	"uint32\000"
 3684      333200
 3685              	.LASF56:
 3686 02bb 424C5545 		.ascii	"BLUE_U\000"
 3686      5F5500
 3687              	.LASF5:
 3688 02c2 6C6F6E67 		.ascii	"long unsigned int\000"
 3688      20756E73 
 3688      69676E65 
 3688      6420696E 
 3688      7400
 3689              	.LASF14:
 3690 02d4 646F7562 		.ascii	"double\000"
 3690      6C6500
 3691              	.LASF44:
 3692 02db 64697370 		.ascii	"display\000"
 3692      6C617900 
 3693              	.LASF49:
 3694 02e3 49544D5F 		.ascii	"ITM_RxBuffer\000"
 3694      52784275 
 3694      66666572 
 3694      00
ARM GAS  C:\Users\xavieran\AppData\Local\Temp\ccRA778j.s 			page 76


 3695              	.LASF21:
 3696 02f0 73697A65 		.ascii	"size\000"
 3696      00
 3697              	.LASF36:
 3698 02f5 636F756E 		.ascii	"count\000"
 3698      7400
 3699              	.LASF9:
 3700 02fb 5F5F696E 		.ascii	"__int32_t\000"
 3700      7433325F 
 3700      7400
 3701              	.LASF17:
 3702 0305 4E4F4E45 		.ascii	"NONE\000"
 3702      00
 3703              	.LASF32:
 3704 030a 7365745F 		.ascii	"set_gain_exposure\000"
 3704      6761696E 
 3704      5F657870 
 3704      6F737572 
 3704      6500
 3705              	.LASF59:
 3706 031c 425F4741 		.ascii	"B_GAIN\000"
 3706      494E00
 3707              	.LASF39:
 3708 0323 6964656E 		.ascii	"identify_colour_instructions\000"
 3708      74696679 
 3708      5F636F6C 
 3708      6F75725F 
 3708      696E7374 
 3709              	.LASF20:
 3710 0340 636F6C6F 		.ascii	"colour\000"
 3710      757200
 3711              	.LASF50:
 3712 0347 43616D65 		.ascii	"Camera_framebuffer\000"
 3712      72615F66 
 3712      72616D65 
 3712      62756666 
 3712      657200
 3713              	.LASF47:
 3714 035a 73746163 		.ascii	"stacks\000"
 3714      6B7300
 3715              	.LASF26:
 3716 0361 63617074 		.ascii	"capture_image\000"
 3716      7572655F 
 3716      696D6167 
 3716      6500
 3717              	.LASF46:
 3718 036f 72656164 		.ascii	"read_instructions\000"
 3718      5F696E73 
 3718      74727563 
 3718      74696F6E 
 3718      7300
 3719              	.LASF18:
 3720 0381 47524545 		.ascii	"GREEN\000"
 3720      4E00
 3721              	.LASF42:
 3722 0387 74687265 		.ascii	"threshold_black\000"
 3722      73686F6C 
ARM GAS  C:\Users\xavieran\AppData\Local\Temp\ccRA778j.s 			page 77


 3722      645F626C 
 3722      61636B00 
 3723              	.LASF19:
 3724 0397 424C5545 		.ascii	"BLUE\000"
 3724      00
 3725              	.LASF30:
 3726 039c 636F6C6F 		.ascii	"colours\000"
 3726      75727300 
 3727              	.LASF23:
 3728 03a4 795F7375 		.ascii	"y_sum\000"
 3728      6D00
 3729              		.ident	"GCC: (GNU Tools for ARM Embedded Processors) 4.8.4 20140526 (release) [ARM/embedded-4_8-br
