ARM GAS  C:\Users\xavieran\AppData\Local\Temp\ccRA778j.s 			page 1


   1              		.syntax unified
   2              		.cpu cortex-m3
   3              		.fpu softvfp
   4              		.eabi_attribute 20, 1
   5              		.eabi_attribute 21, 1
   6              		.eabi_attribute 23, 3
   7              		.eabi_attribute 24, 1
   8              		.eabi_attribute 25, 1
   9              		.eabi_attribute 26, 1
  10              		.eabi_attribute 30, 6
  11              		.eabi_attribute 34, 1
  12              		.eabi_attribute 18, 4
  13              		.thumb
  14              		.file	"my_camera_functions.c"
  15              		.text
  16              	.Ltext0:
  17              		.cfi_sections	.debug_frame
  18              		.comm	Camera_framebuffer,50688,4
  19              		.comm	stack,16,4
  20              		.comm	s,16,4
  21              		.global	RED_U
  22              		.data
  23              		.type	RED_U, %object
  24              		.size	RED_U, 1
  25              	RED_U:
  26 0000 7E       		.byte	126
  27              		.global	RED_V
  28              		.type	RED_V, %object
  29              		.size	RED_V, 1
  30              	RED_V:
  31 0001 98       		.byte	-104
  32              		.global	GREEN_U
  33              		.type	GREEN_U, %object
  34              		.size	GREEN_U, 1
  35              	GREEN_U:
  36 0002 78       		.byte	120
  37              		.global	GREEN_V
  38              		.type	GREEN_V, %object
  39              		.size	GREEN_V, 1
  40              	GREEN_V:
  41 0003 78       		.byte	120
  42              		.global	BLUE_U
  43              		.type	BLUE_U, %object
  44              		.size	BLUE_U, 1
  45              	BLUE_U:
  46 0004 81       		.byte	-127
  47              		.global	BLUE_V
  48              		.type	BLUE_V, %object
  49              		.size	BLUE_V, 1
  50              	BLUE_V:
  51 0005 7B       		.byte	123
  52              		.global	GAIN
  53              		.type	GAIN, %object
  54              		.size	GAIN, 1
  55              	GAIN:
  56 0006 22       		.byte	34
  57              		.global	B_GAIN
ARM GAS  C:\Users\xavieran\AppData\Local\Temp\ccRA778j.s 			page 2


  58              		.type	B_GAIN, %object
  59              		.size	B_GAIN, 1
  60              	B_GAIN:
  61 0007 8B       		.byte	-117
  62              		.global	R_GAIN
  63              		.type	R_GAIN, %object
  64              		.size	R_GAIN, 1
  65              	R_GAIN:
  66 0008 8B       		.byte	-117
  67              		.global	EXPOSURE
  68              		.type	EXPOSURE, %object
  69              		.size	EXPOSURE, 1
  70              	EXPOSURE:
  71 0009 3C       		.byte	60
  72              		.global	connected
  73 000a 0000     		.align	2
  74              		.type	connected, %object
  75              		.size	connected, 4
  76              	connected:
  77 000c 04000000 		.word	4
  78              		.section	.rodata
  79              		.align	2
  80              	.LC1:
  81 0000 43616D65 		.ascii	"Camera Actualy\000"
  81      72612041 
  81      63747561 
  81      6C7900
  82 000f 00       		.align	2
  83              	.LC2:
  84 0010 4672616D 		.ascii	"Frame Sync Done\000"
  84      65205379 
  84      6E632044 
  84      6F6E6500 
  85              		.align	2
  86              	.LC3:
  87 0020 47657474 		.ascii	"Getting Frame!!\000"
  87      696E6720 
  87      4672616D 
  87      65212100 
  88              		.align	2
  89              	.LC4:
  90 0030 496E6974 		.ascii	"Init Camera Done\000"
  90      2043616D 
  90      65726120 
  90      446F6E65 
  90      00
  91              		.section	.text.init_camera,"ax",%progbits
  92              		.align	2
  93              		.global	init_camera
  94              		.thumb
  95              		.thumb_func
  96              		.type	init_camera, %function
  97              	init_camera:
  98              	.LFB63:
  99              		.file 1 ".\\my_camera_functions.c"
   1:.\my_camera_functions.c **** 
   2:.\my_camera_functions.c **** /* ========================================
ARM GAS  C:\Users\xavieran\AppData\Local\Temp\ccRA778j.s 			page 3


   3:.\my_camera_functions.c ****  *
   4:.\my_camera_functions.c ****  * Copyright YOUR COMPANY, THE YEAR
   5:.\my_camera_functions.c ****  * All Rights Reserved
   6:.\my_camera_functions.c ****  * UNPUBLISHED, LICENSED SOFTWARE.
   7:.\my_camera_functions.c ****  *
   8:.\my_camera_functions.c ****  * CONFIDENTIAL AND PROPRIETARY INFORMATION
   9:.\my_camera_functions.c ****  * WHICH IS THE PROPERTY OF your company.
  10:.\my_camera_functions.c ****  *
  11:.\my_camera_functions.c ****  * ========================================
  12:.\my_camera_functions.c **** */
  13:.\my_camera_functions.c **** #include <project.h>
  14:.\my_camera_functions.c **** #include <my_camera_functions.h>
  15:.\my_camera_functions.c **** #include <blob_stats.h>
  16:.\my_camera_functions.c **** #include <arm.h>
  17:.\my_camera_functions.c **** #include <stdio.h>
  18:.\my_camera_functions.c **** 
  19:.\my_camera_functions.c **** uint8 RED_U= 126;//116;
  20:.\my_camera_functions.c **** uint8 RED_V= 152;//140;//162;
  21:.\my_camera_functions.c **** uint8 GREEN_U= 120;//128;
  22:.\my_camera_functions.c **** uint8 GREEN_V= 120;//102;
  23:.\my_camera_functions.c **** uint8 BLUE_U= 129;//138;//162;
  24:.\my_camera_functions.c **** uint8 BLUE_V= 123;//124;//116;
  25:.\my_camera_functions.c **** uint8 GAIN = 34;
  26:.\my_camera_functions.c **** uint8 B_GAIN = 139;
  27:.\my_camera_functions.c **** uint8 R_GAIN = 139;
  28:.\my_camera_functions.c **** uint8 EXPOSURE = 60;
  29:.\my_camera_functions.c **** 
  30:.\my_camera_functions.c **** extern blob *blobs;
  31:.\my_camera_functions.c **** int connected = 4;
  32:.\my_camera_functions.c **** 
  33:.\my_camera_functions.c **** void init_camera()
  34:.\my_camera_functions.c **** {
 100              		.loc 1 34 0
 101              		.cfi_startproc
 102              		@ args = 0, pretend = 0, frame = 0
 103              		@ frame_needed = 1, uses_anonymous_args = 0
 104 0000 80B5     		push	{r7, lr}
 105              		.cfi_def_cfa_offset 8
 106              		.cfi_offset 7, -8
 107              		.cfi_offset 14, -4
 108 0002 00AF     		add	r7, sp, #0
 109              		.cfi_def_cfa_register 7
  35:.\my_camera_functions.c **** 	Camera_Start();
 110              		.loc 1 35 0
 111 0004 FFF7FEFF 		bl	Camera_Start
  36:.\my_camera_functions.c ****     LCD_ClearDisplay();
 112              		.loc 1 36 0
 113 0008 0120     		movs	r0, #1
 114 000a FFF7FEFF 		bl	LCD_WriteControl
  37:.\my_camera_functions.c ****     LCD_PosPrintString(0,0,"Camera Actualy");
 115              		.loc 1 37 0
 116 000e 0020     		movs	r0, #0
 117 0010 0021     		movs	r1, #0
 118 0012 FFF7FEFF 		bl	LCD_Position
 119 0016 2748     		ldr	r0, .L2
 120 0018 FFF7FEFF 		bl	LCD_PrintString
  38:.\my_camera_functions.c ****     Camera_WriteReg(0x1E,0b00010000); //Flip Image
ARM GAS  C:\Users\xavieran\AppData\Local\Temp\ccRA778j.s 			page 4


 121              		.loc 1 38 0
 122 001c 1E20     		movs	r0, #30
 123 001e 1021     		movs	r1, #16
 124 0020 FFF7FEFF 		bl	Camera_WriteReg
  39:.\my_camera_functions.c ****     Camera_WriteReg(0x13,0b11100111); //Enable Auto Gain, WB, Exposure
 125              		.loc 1 39 0
 126 0024 1320     		movs	r0, #19
 127 0026 E721     		movs	r1, #231
 128 0028 FFF7FEFF 		bl	Camera_WriteReg
  40:.\my_camera_functions.c ****     Camera_SyncFrame();
 129              		.loc 1 40 0
 130 002c FFF7FEFF 		bl	Camera_SyncFrame
  41:.\my_camera_functions.c ****     LCD_PosPrintString(0,0,"Frame Sync Done");
 131              		.loc 1 41 0
 132 0030 0020     		movs	r0, #0
 133 0032 0021     		movs	r1, #0
 134 0034 FFF7FEFF 		bl	LCD_Position
 135 0038 1F48     		ldr	r0, .L2+4
 136 003a FFF7FEFF 		bl	LCD_PrintString
  42:.\my_camera_functions.c **** 	Camera_GetFrame(); //start frame capture
 137              		.loc 1 42 0
 138 003e FFF7FEFF 		bl	Camera_GetFrame
  43:.\my_camera_functions.c ****     LCD_PosPrintString(0,0,"Getting Frame!!");
 139              		.loc 1 43 0
 140 0042 0020     		movs	r0, #0
 141 0044 0021     		movs	r1, #0
 142 0046 FFF7FEFF 		bl	LCD_Position
 143 004a 1C48     		ldr	r0, .L2+8
 144 004c FFF7FEFF 		bl	LCD_PrintString
  44:.\my_camera_functions.c **** 	Camera_SyncFrame(); //wait until frame is fully captured before sending out over USB
 145              		.loc 1 44 0
 146 0050 FFF7FEFF 		bl	Camera_SyncFrame
  45:.\my_camera_functions.c ****     Camera_WriteReg(0x13,0b11100000);
 147              		.loc 1 45 0
 148 0054 1320     		movs	r0, #19
 149 0056 E021     		movs	r1, #224
 150 0058 FFF7FEFF 		bl	Camera_WriteReg
  46:.\my_camera_functions.c ****     //Gain and exposure settigs
  47:.\my_camera_functions.c ****     Camera_WriteReg(0x00, GAIN);
 151              		.loc 1 47 0
 152 005c 184B     		ldr	r3, .L2+12
 153 005e 1B78     		ldrb	r3, [r3]	@ zero_extendqisi2
 154 0060 0020     		movs	r0, #0
 155 0062 1946     		mov	r1, r3
 156 0064 FFF7FEFF 		bl	Camera_WriteReg
  48:.\my_camera_functions.c ****     Camera_WriteReg(0x01, B_GAIN);
 157              		.loc 1 48 0
 158 0068 164B     		ldr	r3, .L2+16
 159 006a 1B78     		ldrb	r3, [r3]	@ zero_extendqisi2
 160 006c 0120     		movs	r0, #1
 161 006e 1946     		mov	r1, r3
 162 0070 FFF7FEFF 		bl	Camera_WriteReg
  49:.\my_camera_functions.c ****     Camera_WriteReg(0x02, R_GAIN);
 163              		.loc 1 49 0
 164 0074 144B     		ldr	r3, .L2+20
 165 0076 1B78     		ldrb	r3, [r3]	@ zero_extendqisi2
 166 0078 0220     		movs	r0, #2
ARM GAS  C:\Users\xavieran\AppData\Local\Temp\ccRA778j.s 			page 5


 167 007a 1946     		mov	r1, r3
 168 007c FFF7FEFF 		bl	Camera_WriteReg
  50:.\my_camera_functions.c ****     Camera_WriteReg(0x10,EXPOSURE);
 169              		.loc 1 50 0
 170 0080 124B     		ldr	r3, .L2+24
 171 0082 1B78     		ldrb	r3, [r3]	@ zero_extendqisi2
 172 0084 1020     		movs	r0, #16
 173 0086 1946     		mov	r1, r3
 174 0088 FFF7FEFF 		bl	Camera_WriteReg
  51:.\my_camera_functions.c **** 	Camera_WriteReg(0x3F,0b00101111); // Edge Enhancement Factor and Threshold
 175              		.loc 1 51 0
 176 008c 3F20     		movs	r0, #63
 177 008e 2F21     		movs	r1, #47
 178 0090 FFF7FEFF 		bl	Camera_WriteReg
  52:.\my_camera_functions.c ****     Camera_WriteReg(0x3E,0b00000011); // Edge Enhancement Control
 179              		.loc 1 52 0
 180 0094 3E20     		movs	r0, #62
 181 0096 0321     		movs	r1, #3
 182 0098 FFF7FEFF 		bl	Camera_WriteReg
  53:.\my_camera_functions.c ****     Camera_WriteReg(0x8C,0b10100000); // Denoise
 183              		.loc 1 53 0
 184 009c 8C20     		movs	r0, #140
 185 009e A021     		movs	r1, #160
 186 00a0 FFF7FEFF 		bl	Camera_WriteReg
  54:.\my_camera_functions.c ****     LCD_PosPrintString(0,0,"Init Camera Done");
 187              		.loc 1 54 0
 188 00a4 0020     		movs	r0, #0
 189 00a6 0021     		movs	r1, #0
 190 00a8 FFF7FEFF 		bl	LCD_Position
 191 00ac 0848     		ldr	r0, .L2+28
 192 00ae FFF7FEFF 		bl	LCD_PrintString
  55:.\my_camera_functions.c **** }
 193              		.loc 1 55 0
 194 00b2 80BD     		pop	{r7, pc}
 195              	.L3:
 196              		.align	2
 197              	.L2:
 198 00b4 00000000 		.word	.LC1
 199 00b8 10000000 		.word	.LC2
 200 00bc 20000000 		.word	.LC3
 201 00c0 00000000 		.word	GAIN
 202 00c4 00000000 		.word	B_GAIN
 203 00c8 00000000 		.word	R_GAIN
 204 00cc 00000000 		.word	EXPOSURE
 205 00d0 30000000 		.word	.LC4
 206              		.cfi_endproc
 207              	.LFE63:
 208              		.size	init_camera, .-init_camera
 209              		.section	.text.capture_image,"ax",%progbits
 210              		.align	2
 211              		.global	capture_image
 212              		.thumb
 213              		.thumb_func
 214              		.type	capture_image, %function
 215              	capture_image:
 216              	.LFB64:
  56:.\my_camera_functions.c **** 
ARM GAS  C:\Users\xavieran\AppData\Local\Temp\ccRA778j.s 			page 6


  57:.\my_camera_functions.c **** void capture_image()
  58:.\my_camera_functions.c **** {
 217              		.loc 1 58 0
 218              		.cfi_startproc
 219              		@ args = 0, pretend = 0, frame = 0
 220              		@ frame_needed = 1, uses_anonymous_args = 0
 221 0000 80B5     		push	{r7, lr}
 222              		.cfi_def_cfa_offset 8
 223              		.cfi_offset 7, -8
 224              		.cfi_offset 14, -4
 225 0002 00AF     		add	r7, sp, #0
 226              		.cfi_def_cfa_register 7
  59:.\my_camera_functions.c **** 	Camera_SyncFrame();
 227              		.loc 1 59 0
 228 0004 FFF7FEFF 		bl	Camera_SyncFrame
  60:.\my_camera_functions.c **** 	Camera_GetFrame();
 229              		.loc 1 60 0
 230 0008 FFF7FEFF 		bl	Camera_GetFrame
  61:.\my_camera_functions.c **** 	Camera_SyncFrame();
 231              		.loc 1 61 0
 232 000c FFF7FEFF 		bl	Camera_SyncFrame
  62:.\my_camera_functions.c **** }
 233              		.loc 1 62 0
 234 0010 80BD     		pop	{r7, pc}
 235              		.cfi_endproc
 236              	.LFE64:
 237              		.size	capture_image, .-capture_image
 238 0012 00BF     		.section	.text.capture_thresh_image,"ax",%progbits
 239              		.align	2
 240              		.global	capture_thresh_image
 241              		.thumb
 242              		.thumb_func
 243              		.type	capture_thresh_image, %function
 244              	capture_thresh_image:
 245              	.LFB65:
  63:.\my_camera_functions.c **** 
  64:.\my_camera_functions.c **** void capture_thresh_image()
  65:.\my_camera_functions.c **** {
 246              		.loc 1 65 0
 247              		.cfi_startproc
 248              		@ args = 0, pretend = 0, frame = 0
 249              		@ frame_needed = 1, uses_anonymous_args = 0
 250 0000 80B5     		push	{r7, lr}
 251              		.cfi_def_cfa_offset 8
 252              		.cfi_offset 7, -8
 253              		.cfi_offset 14, -4
 254 0002 00AF     		add	r7, sp, #0
 255              		.cfi_def_cfa_register 7
  66:.\my_camera_functions.c **** 	Camera_SyncFrame();
 256              		.loc 1 66 0
 257 0004 FFF7FEFF 		bl	Camera_SyncFrame
  67:.\my_camera_functions.c **** 	Camera_GetFrame();
 258              		.loc 1 67 0
 259 0008 FFF7FEFF 		bl	Camera_GetFrame
  68:.\my_camera_functions.c **** 	Camera_SyncFrame();
 260              		.loc 1 68 0
 261 000c FFF7FEFF 		bl	Camera_SyncFrame
ARM GAS  C:\Users\xavieran\AppData\Local\Temp\ccRA778j.s 			page 7


  69:.\my_camera_functions.c ****     threshold_image();
 262              		.loc 1 69 0
 263 0010 FFF7FEFF 		bl	threshold_image
  70:.\my_camera_functions.c ****     clean_frame(RED,0.2,20);
 264              		.loc 1 70 0
 265 0014 0120     		movs	r0, #1
 266 0016 0849     		ldr	r1, .L6
 267 0018 1422     		movs	r2, #20
 268 001a FFF7FEFF 		bl	clean_frame
  71:.\my_camera_functions.c ****     clean_frame(GREEN,0.2,20);
 269              		.loc 1 71 0
 270 001e 0220     		movs	r0, #2
 271 0020 0549     		ldr	r1, .L6
 272 0022 1422     		movs	r2, #20
 273 0024 FFF7FEFF 		bl	clean_frame
  72:.\my_camera_functions.c ****     clean_frame(BLUE,0.2,20);
 274              		.loc 1 72 0
 275 0028 0320     		movs	r0, #3
 276 002a 0349     		ldr	r1, .L6
 277 002c 1422     		movs	r2, #20
 278 002e FFF7FEFF 		bl	clean_frame
  73:.\my_camera_functions.c ****     blob_detect();
 279              		.loc 1 73 0
 280 0032 FFF7FEFF 		bl	blob_detect
  74:.\my_camera_functions.c **** }
 281              		.loc 1 74 0
 282 0036 80BD     		pop	{r7, pc}
 283              	.L7:
 284              		.align	2
 285              	.L6:
 286 0038 CDCC4C3E 		.word	1045220557
 287              		.cfi_endproc
 288              	.LFE65:
 289              		.size	capture_thresh_image, .-capture_thresh_image
 290              		.section	.text.set_gain_exposure,"ax",%progbits
 291              		.align	2
 292              		.global	set_gain_exposure
 293              		.thumb
 294              		.thumb_func
 295              		.type	set_gain_exposure, %function
 296              	set_gain_exposure:
 297              	.LFB66:
  75:.\my_camera_functions.c **** 
  76:.\my_camera_functions.c **** void set_gain_exposure(int setting)
  77:.\my_camera_functions.c **** {
 298              		.loc 1 77 0
 299              		.cfi_startproc
 300              		@ args = 0, pretend = 0, frame = 8
 301              		@ frame_needed = 1, uses_anonymous_args = 0
 302 0000 80B5     		push	{r7, lr}
 303              		.cfi_def_cfa_offset 8
 304              		.cfi_offset 7, -8
 305              		.cfi_offset 14, -4
 306 0002 82B0     		sub	sp, sp, #8
 307              		.cfi_def_cfa_offset 16
 308 0004 00AF     		add	r7, sp, #0
 309              		.cfi_def_cfa_register 7
ARM GAS  C:\Users\xavieran\AppData\Local\Temp\ccRA778j.s 			page 8


 310 0006 7860     		str	r0, [r7, #4]
  78:.\my_camera_functions.c **** 	switch(setting)
 311              		.loc 1 78 0
 312 0008 7B68     		ldr	r3, [r7, #4]
 313 000a 012B     		cmp	r3, #1
 314 000c 02D0     		beq	.L10
 315 000e 022B     		cmp	r3, #2
 316 0010 19D0     		beq	.L11
 317 0012 20E0     		b	.L8
 318              	.L10:
  79:.\my_camera_functions.c **** 	{
  80:.\my_camera_functions.c **** 		case 1:
  81:.\my_camera_functions.c **** 			// Settings for Instructions
  82:.\my_camera_functions.c **** 			Camera_WriteReg(0x00, GAIN); //g
 319              		.loc 1 82 0
 320 0014 114B     		ldr	r3, .L12
 321 0016 1B78     		ldrb	r3, [r3]	@ zero_extendqisi2
 322 0018 0020     		movs	r0, #0
 323 001a 1946     		mov	r1, r3
 324 001c FFF7FEFF 		bl	Camera_WriteReg
  83:.\my_camera_functions.c ****             Camera_WriteReg(0x01, B_GAIN);//BG
 325              		.loc 1 83 0
 326 0020 0F4B     		ldr	r3, .L12+4
 327 0022 1B78     		ldrb	r3, [r3]	@ zero_extendqisi2
 328 0024 0120     		movs	r0, #1
 329 0026 1946     		mov	r1, r3
 330 0028 FFF7FEFF 		bl	Camera_WriteReg
  84:.\my_camera_functions.c ****             Camera_WriteReg(0x02, R_GAIN);//RG
 331              		.loc 1 84 0
 332 002c 0D4B     		ldr	r3, .L12+8
 333 002e 1B78     		ldrb	r3, [r3]	@ zero_extendqisi2
 334 0030 0220     		movs	r0, #2
 335 0032 1946     		mov	r1, r3
 336 0034 FFF7FEFF 		bl	Camera_WriteReg
  85:.\my_camera_functions.c **** 			Camera_WriteReg(0x10, EXPOSURE);//exposure
 337              		.loc 1 85 0
 338 0038 0B4B     		ldr	r3, .L12+12
 339 003a 1B78     		ldrb	r3, [r3]	@ zero_extendqisi2
 340 003c 1020     		movs	r0, #16
 341 003e 1946     		mov	r1, r3
 342 0040 FFF7FEFF 		bl	Camera_WriteReg
  86:.\my_camera_functions.c **** 			break;
 343              		.loc 1 86 0
 344 0044 07E0     		b	.L8
 345              	.L11:
  87:.\my_camera_functions.c ****         case 2:
  88:.\my_camera_functions.c ****             Camera_WriteReg(0x00, 60); // Gain
 346              		.loc 1 88 0
 347 0046 0020     		movs	r0, #0
 348 0048 3C21     		movs	r1, #60
 349 004a FFF7FEFF 		bl	Camera_WriteReg
  89:.\my_camera_functions.c ****             Camera_WriteReg(0x10, 80); // Exposure
 350              		.loc 1 89 0
 351 004e 1020     		movs	r0, #16
 352 0050 5021     		movs	r1, #80
 353 0052 FFF7FEFF 		bl	Camera_WriteReg
 354              	.L8:
ARM GAS  C:\Users\xavieran\AppData\Local\Temp\ccRA778j.s 			page 9


  90:.\my_camera_functions.c ****             
  91:.\my_camera_functions.c **** 	}
  92:.\my_camera_functions.c **** }
 355              		.loc 1 92 0
 356 0056 0837     		adds	r7, r7, #8
 357 0058 BD46     		mov	sp, r7
 358              		@ sp needed
 359 005a 80BD     		pop	{r7, pc}
 360              	.L13:
 361              		.align	2
 362              	.L12:
 363 005c 00000000 		.word	GAIN
 364 0060 00000000 		.word	B_GAIN
 365 0064 00000000 		.word	R_GAIN
 366 0068 00000000 		.word	EXPOSURE
 367              		.cfi_endproc
 368              	.LFE66:
 369              		.size	set_gain_exposure, .-set_gain_exposure
 370              		.section	.text.PixelColour,"ax",%progbits
 371              		.align	2
 372              		.global	PixelColour
 373              		.thumb
 374              		.thumb_func
 375              		.type	PixelColour, %function
 376              	PixelColour:
 377              	.LFB67:
  93:.\my_camera_functions.c **** 
  94:.\my_camera_functions.c ****     
  95:.\my_camera_functions.c ****     
  96:.\my_camera_functions.c **** uint8 PixelColour(uint8 x,uint8 y) //colour of pixel at (x,y)
  97:.\my_camera_functions.c **** {
 378              		.loc 1 97 0
 379              		.cfi_startproc
 380              		@ args = 0, pretend = 0, frame = 8
 381              		@ frame_needed = 1, uses_anonymous_args = 0
 382              		@ link register save eliminated.
 383 0000 80B4     		push	{r7}
 384              		.cfi_def_cfa_offset 4
 385              		.cfi_offset 7, -4
 386 0002 83B0     		sub	sp, sp, #12
 387              		.cfi_def_cfa_offset 16
 388 0004 00AF     		add	r7, sp, #0
 389              		.cfi_def_cfa_register 7
 390 0006 0246     		mov	r2, r0
 391 0008 0B46     		mov	r3, r1
 392 000a FA71     		strb	r2, [r7, #7]
 393 000c BB71     		strb	r3, [r7, #6]
  98:.\my_camera_functions.c ****     if(Camera_framebuffer[y][x][0]<RED_U   && Camera_framebuffer[y][x][2]>=RED_V)  return RED;
 394              		.loc 1 98 0
 395 000e B979     		ldrb	r1, [r7, #6]	@ zero_extendqisi2
 396 0010 FA79     		ldrb	r2, [r7, #7]	@ zero_extendqisi2
 397 0012 2E4B     		ldr	r3, .L19
 398 0014 5820     		movs	r0, #88
 399 0016 00FB01F1 		mul	r1, r0, r1
 400 001a 0A44     		add	r2, r2, r1
 401 001c 13F82220 		ldrb	r2, [r3, r2, lsl #2]	@ zero_extendqisi2
 402 0020 2B4B     		ldr	r3, .L19+4
ARM GAS  C:\Users\xavieran\AppData\Local\Temp\ccRA778j.s 			page 10


 403 0022 1B78     		ldrb	r3, [r3]	@ zero_extendqisi2
 404 0024 9A42     		cmp	r2, r3
 405 0026 0FD2     		bcs	.L15
 406              		.loc 1 98 0 is_stmt 0 discriminator 1
 407 0028 B979     		ldrb	r1, [r7, #6]	@ zero_extendqisi2
 408 002a FB79     		ldrb	r3, [r7, #7]	@ zero_extendqisi2
 409 002c 274A     		ldr	r2, .L19
 410 002e 5820     		movs	r0, #88
 411 0030 00FB01F1 		mul	r1, r0, r1
 412 0034 0B44     		add	r3, r3, r1
 413 0036 9B00     		lsls	r3, r3, #2
 414 0038 1344     		add	r3, r3, r2
 415 003a 9A78     		ldrb	r2, [r3, #2]	@ zero_extendqisi2
 416 003c 254B     		ldr	r3, .L19+8
 417 003e 1B78     		ldrb	r3, [r3]	@ zero_extendqisi2
 418 0040 9A42     		cmp	r2, r3
 419 0042 01D3     		bcc	.L15
 420 0044 0123     		movs	r3, #1
 421 0046 3AE0     		b	.L16
 422              	.L15:
  99:.\my_camera_functions.c ****     if(Camera_framebuffer[y][x][0]<GREEN_U && Camera_framebuffer[y][x][2]<GREEN_V) return GREEN;
 423              		.loc 1 99 0 is_stmt 1
 424 0048 B979     		ldrb	r1, [r7, #6]	@ zero_extendqisi2
 425 004a FA79     		ldrb	r2, [r7, #7]	@ zero_extendqisi2
 426 004c 1F4B     		ldr	r3, .L19
 427 004e 5820     		movs	r0, #88
 428 0050 00FB01F1 		mul	r1, r0, r1
 429 0054 0A44     		add	r2, r2, r1
 430 0056 13F82220 		ldrb	r2, [r3, r2, lsl #2]	@ zero_extendqisi2
 431 005a 1F4B     		ldr	r3, .L19+12
 432 005c 1B78     		ldrb	r3, [r3]	@ zero_extendqisi2
 433 005e 9A42     		cmp	r2, r3
 434 0060 0FD2     		bcs	.L17
 435              		.loc 1 99 0 is_stmt 0 discriminator 1
 436 0062 B979     		ldrb	r1, [r7, #6]	@ zero_extendqisi2
 437 0064 FB79     		ldrb	r3, [r7, #7]	@ zero_extendqisi2
 438 0066 194A     		ldr	r2, .L19
 439 0068 5820     		movs	r0, #88
 440 006a 00FB01F1 		mul	r1, r0, r1
 441 006e 0B44     		add	r3, r3, r1
 442 0070 9B00     		lsls	r3, r3, #2
 443 0072 1344     		add	r3, r3, r2
 444 0074 9A78     		ldrb	r2, [r3, #2]	@ zero_extendqisi2
 445 0076 194B     		ldr	r3, .L19+16
 446 0078 1B78     		ldrb	r3, [r3]	@ zero_extendqisi2
 447 007a 9A42     		cmp	r2, r3
 448 007c 01D2     		bcs	.L17
 449 007e 0223     		movs	r3, #2
 450 0080 1DE0     		b	.L16
 451              	.L17:
 100:.\my_camera_functions.c ****     if(Camera_framebuffer[y][x][0]>=BLUE_U && Camera_framebuffer[y][x][2]<BLUE_V)  return BLUE;
 452              		.loc 1 100 0 is_stmt 1
 453 0082 B979     		ldrb	r1, [r7, #6]	@ zero_extendqisi2
 454 0084 FA79     		ldrb	r2, [r7, #7]	@ zero_extendqisi2
 455 0086 114B     		ldr	r3, .L19
 456 0088 5820     		movs	r0, #88
 457 008a 00FB01F1 		mul	r1, r0, r1
ARM GAS  C:\Users\xavieran\AppData\Local\Temp\ccRA778j.s 			page 11


 458 008e 0A44     		add	r2, r2, r1
 459 0090 13F82220 		ldrb	r2, [r3, r2, lsl #2]	@ zero_extendqisi2
 460 0094 124B     		ldr	r3, .L19+20
 461 0096 1B78     		ldrb	r3, [r3]	@ zero_extendqisi2
 462 0098 9A42     		cmp	r2, r3
 463 009a 0FD3     		bcc	.L18
 464              		.loc 1 100 0 is_stmt 0 discriminator 1
 465 009c B979     		ldrb	r1, [r7, #6]	@ zero_extendqisi2
 466 009e FB79     		ldrb	r3, [r7, #7]	@ zero_extendqisi2
 467 00a0 0A4A     		ldr	r2, .L19
 468 00a2 5820     		movs	r0, #88
 469 00a4 00FB01F1 		mul	r1, r0, r1
 470 00a8 0B44     		add	r3, r3, r1
 471 00aa 9B00     		lsls	r3, r3, #2
 472 00ac 1344     		add	r3, r3, r2
 473 00ae 9A78     		ldrb	r2, [r3, #2]	@ zero_extendqisi2
 474 00b0 0C4B     		ldr	r3, .L19+24
 475 00b2 1B78     		ldrb	r3, [r3]	@ zero_extendqisi2
 476 00b4 9A42     		cmp	r2, r3
 477 00b6 01D2     		bcs	.L18
 478 00b8 0323     		movs	r3, #3
 479 00ba 00E0     		b	.L16
 480              	.L18:
 101:.\my_camera_functions.c ****     return NONE;
 481              		.loc 1 101 0 is_stmt 1
 482 00bc 0023     		movs	r3, #0
 483              	.L16:
 102:.\my_camera_functions.c **** }
 484              		.loc 1 102 0
 485 00be 1846     		mov	r0, r3
 486 00c0 0C37     		adds	r7, r7, #12
 487 00c2 BD46     		mov	sp, r7
 488              		@ sp needed
 489 00c4 5DF8047B 		ldr	r7, [sp], #4
 490 00c8 7047     		bx	lr
 491              	.L20:
 492 00ca 00BF     		.align	2
 493              	.L19:
 494 00cc 00000000 		.word	Camera_framebuffer
 495 00d0 00000000 		.word	RED_U
 496 00d4 00000000 		.word	RED_V
 497 00d8 00000000 		.word	GREEN_U
 498 00dc 00000000 		.word	GREEN_V
 499 00e0 00000000 		.word	BLUE_U
 500 00e4 00000000 		.word	BLUE_V
 501              		.cfi_endproc
 502              	.LFE67:
 503              		.size	PixelColour, .-PixelColour
 504              		.section	.text.threshold_image,"ax",%progbits
 505              		.align	2
 506              		.global	threshold_image
 507              		.thumb
 508              		.thumb_func
 509              		.type	threshold_image, %function
 510              	threshold_image:
 511              	.LFB68:
 103:.\my_camera_functions.c **** 
ARM GAS  C:\Users\xavieran\AppData\Local\Temp\ccRA778j.s 			page 12


 104:.\my_camera_functions.c **** 
 105:.\my_camera_functions.c **** 
 106:.\my_camera_functions.c **** //Camera_framebuffer[0][0] 
 107:.\my_camera_functions.c **** void threshold_image()
 108:.\my_camera_functions.c **** {
 512              		.loc 1 108 0
 513              		.cfi_startproc
 514              		@ args = 0, pretend = 0, frame = 32
 515              		@ frame_needed = 1, uses_anonymous_args = 0
 516 0000 80B5     		push	{r7, lr}
 517              		.cfi_def_cfa_offset 8
 518              		.cfi_offset 7, -8
 519              		.cfi_offset 14, -4
 520 0002 88B0     		sub	sp, sp, #32
 521              		.cfi_def_cfa_offset 40
 522 0004 00AF     		add	r7, sp, #0
 523              		.cfi_def_cfa_register 7
 109:.\my_camera_functions.c **** 	uint8 locals[8];
 110:.\my_camera_functions.c **** 	uint8 colours[4];
 111:.\my_camera_functions.c ****     int pixel;
 112:.\my_camera_functions.c ****     int y, x, i;
 113:.\my_camera_functions.c ****     
 114:.\my_camera_functions.c ****     
 115:.\my_camera_functions.c ****     
 116:.\my_camera_functions.c **** 	for(y = 0; y < 144; ++y)
 524              		.loc 1 116 0
 525 0006 0023     		movs	r3, #0
 526 0008 FB61     		str	r3, [r7, #28]
 527 000a 9CE1     		b	.L22
 528              	.L36:
 117:.\my_camera_functions.c **** 	{
 118:.\my_camera_functions.c **** 		for(x = 0; x < 88; ++x)
 529              		.loc 1 118 0
 530 000c 0023     		movs	r3, #0
 531 000e BB61     		str	r3, [r7, #24]
 532 0010 92E1     		b	.L23
 533              	.L35:
 119:.\my_camera_functions.c **** 		{
 120:.\my_camera_functions.c ****             if(y == 0 || y == 143 || x == 0 || x == 87)
 534              		.loc 1 120 0
 535 0012 FB69     		ldr	r3, [r7, #28]
 536 0014 002B     		cmp	r3, #0
 537 0016 08D0     		beq	.L24
 538              		.loc 1 120 0 is_stmt 0 discriminator 1
 539 0018 FB69     		ldr	r3, [r7, #28]
 540 001a 8F2B     		cmp	r3, #143
 541 001c 05D0     		beq	.L24
 542 001e BB69     		ldr	r3, [r7, #24]
 543 0020 002B     		cmp	r3, #0
 544 0022 02D0     		beq	.L24
 545 0024 BB69     		ldr	r3, [r7, #24]
 546 0026 572B     		cmp	r3, #87
 547 0028 2BD1     		bne	.L25
 548              	.L24:
 121:.\my_camera_functions.c ****             {
 122:.\my_camera_functions.c ****                 Camera_framebuffer[y][x][0] = 127;       
 549              		.loc 1 122 0 is_stmt 1
ARM GAS  C:\Users\xavieran\AppData\Local\Temp\ccRA778j.s 			page 13


 550 002a A24B     		ldr	r3, .L37
 551 002c FA69     		ldr	r2, [r7, #28]
 552 002e 5821     		movs	r1, #88
 553 0030 01FB02F1 		mul	r1, r1, r2
 554 0034 BA69     		ldr	r2, [r7, #24]
 555 0036 0A44     		add	r2, r2, r1
 556 0038 7F21     		movs	r1, #127
 557 003a 03F82210 		strb	r1, [r3, r2, lsl #2]
 123:.\my_camera_functions.c ****                 Camera_framebuffer[y][x][2] = 127;
 558              		.loc 1 123 0
 559 003e 9D4A     		ldr	r2, .L37
 560 0040 FB69     		ldr	r3, [r7, #28]
 561 0042 5821     		movs	r1, #88
 562 0044 01FB03F1 		mul	r1, r1, r3
 563 0048 BB69     		ldr	r3, [r7, #24]
 564 004a 0B44     		add	r3, r3, r1
 565 004c 9B00     		lsls	r3, r3, #2
 566 004e 1344     		add	r3, r3, r2
 567 0050 7F22     		movs	r2, #127
 568 0052 9A70     		strb	r2, [r3, #2]
 124:.\my_camera_functions.c ****                 Camera_framebuffer[y][x][1] = 0;
 569              		.loc 1 124 0
 570 0054 974A     		ldr	r2, .L37
 571 0056 FB69     		ldr	r3, [r7, #28]
 572 0058 5821     		movs	r1, #88
 573 005a 01FB03F1 		mul	r1, r1, r3
 574 005e BB69     		ldr	r3, [r7, #24]
 575 0060 0B44     		add	r3, r3, r1
 576 0062 9B00     		lsls	r3, r3, #2
 577 0064 1344     		add	r3, r3, r2
 578 0066 0022     		movs	r2, #0
 579 0068 5A70     		strb	r2, [r3, #1]
 125:.\my_camera_functions.c ****                 Camera_framebuffer[y][x][3] = 0;
 580              		.loc 1 125 0
 581 006a 924A     		ldr	r2, .L37
 582 006c FB69     		ldr	r3, [r7, #28]
 583 006e 5821     		movs	r1, #88
 584 0070 01FB03F1 		mul	r1, r1, r3
 585 0074 BB69     		ldr	r3, [r7, #24]
 586 0076 0B44     		add	r3, r3, r1
 587 0078 9B00     		lsls	r3, r3, #2
 588 007a 1344     		add	r3, r3, r2
 589 007c 0022     		movs	r2, #0
 590 007e DA70     		strb	r2, [r3, #3]
 591 0080 57E1     		b	.L26
 592              	.L25:
 126:.\my_camera_functions.c ****             }
 127:.\my_camera_functions.c ****             else
 128:.\my_camera_functions.c ****             {
 129:.\my_camera_functions.c **** 			    locals[0] = PixelColour(x-1,y-1);
 593              		.loc 1 129 0
 594 0082 BB69     		ldr	r3, [r7, #24]
 595 0084 DBB2     		uxtb	r3, r3
 596 0086 013B     		subs	r3, r3, #1
 597 0088 DAB2     		uxtb	r2, r3
 598 008a FB69     		ldr	r3, [r7, #28]
 599 008c DBB2     		uxtb	r3, r3
ARM GAS  C:\Users\xavieran\AppData\Local\Temp\ccRA778j.s 			page 14


 600 008e 013B     		subs	r3, r3, #1
 601 0090 DBB2     		uxtb	r3, r3
 602 0092 1046     		mov	r0, r2
 603 0094 1946     		mov	r1, r3
 604 0096 FFF7FEFF 		bl	PixelColour
 605 009a 0346     		mov	r3, r0
 606 009c 3B72     		strb	r3, [r7, #8]
 130:.\my_camera_functions.c **** 			    locals[1] = PixelColour(x-1,y);
 607              		.loc 1 130 0
 608 009e BB69     		ldr	r3, [r7, #24]
 609 00a0 DBB2     		uxtb	r3, r3
 610 00a2 013B     		subs	r3, r3, #1
 611 00a4 DAB2     		uxtb	r2, r3
 612 00a6 FB69     		ldr	r3, [r7, #28]
 613 00a8 DBB2     		uxtb	r3, r3
 614 00aa 1046     		mov	r0, r2
 615 00ac 1946     		mov	r1, r3
 616 00ae FFF7FEFF 		bl	PixelColour
 617 00b2 0346     		mov	r3, r0
 618 00b4 7B72     		strb	r3, [r7, #9]
 131:.\my_camera_functions.c **** 			    locals[2] = PixelColour(x-1,y+1);
 619              		.loc 1 131 0
 620 00b6 BB69     		ldr	r3, [r7, #24]
 621 00b8 DBB2     		uxtb	r3, r3
 622 00ba 013B     		subs	r3, r3, #1
 623 00bc DAB2     		uxtb	r2, r3
 624 00be FB69     		ldr	r3, [r7, #28]
 625 00c0 DBB2     		uxtb	r3, r3
 626 00c2 0133     		adds	r3, r3, #1
 627 00c4 DBB2     		uxtb	r3, r3
 628 00c6 1046     		mov	r0, r2
 629 00c8 1946     		mov	r1, r3
 630 00ca FFF7FEFF 		bl	PixelColour
 631 00ce 0346     		mov	r3, r0
 632 00d0 BB72     		strb	r3, [r7, #10]
 132:.\my_camera_functions.c **** 			    locals[3] = PixelColour(x,y-1);
 633              		.loc 1 132 0
 634 00d2 BB69     		ldr	r3, [r7, #24]
 635 00d4 DAB2     		uxtb	r2, r3
 636 00d6 FB69     		ldr	r3, [r7, #28]
 637 00d8 DBB2     		uxtb	r3, r3
 638 00da 013B     		subs	r3, r3, #1
 639 00dc DBB2     		uxtb	r3, r3
 640 00de 1046     		mov	r0, r2
 641 00e0 1946     		mov	r1, r3
 642 00e2 FFF7FEFF 		bl	PixelColour
 643 00e6 0346     		mov	r3, r0
 644 00e8 FB72     		strb	r3, [r7, #11]
 133:.\my_camera_functions.c **** 			    locals[4] = PixelColour(x,y+1);
 645              		.loc 1 133 0
 646 00ea BB69     		ldr	r3, [r7, #24]
 647 00ec DAB2     		uxtb	r2, r3
 648 00ee FB69     		ldr	r3, [r7, #28]
 649 00f0 DBB2     		uxtb	r3, r3
 650 00f2 0133     		adds	r3, r3, #1
 651 00f4 DBB2     		uxtb	r3, r3
 652 00f6 1046     		mov	r0, r2
ARM GAS  C:\Users\xavieran\AppData\Local\Temp\ccRA778j.s 			page 15


 653 00f8 1946     		mov	r1, r3
 654 00fa FFF7FEFF 		bl	PixelColour
 655 00fe 0346     		mov	r3, r0
 656 0100 3B73     		strb	r3, [r7, #12]
 134:.\my_camera_functions.c **** 			    locals[5] = PixelColour(x+1,y-1);
 657              		.loc 1 134 0
 658 0102 BB69     		ldr	r3, [r7, #24]
 659 0104 DBB2     		uxtb	r3, r3
 660 0106 0133     		adds	r3, r3, #1
 661 0108 DAB2     		uxtb	r2, r3
 662 010a FB69     		ldr	r3, [r7, #28]
 663 010c DBB2     		uxtb	r3, r3
 664 010e 013B     		subs	r3, r3, #1
 665 0110 DBB2     		uxtb	r3, r3
 666 0112 1046     		mov	r0, r2
 667 0114 1946     		mov	r1, r3
 668 0116 FFF7FEFF 		bl	PixelColour
 669 011a 0346     		mov	r3, r0
 670 011c 7B73     		strb	r3, [r7, #13]
 135:.\my_camera_functions.c **** 			    locals[6] = PixelColour(x+1,y);
 671              		.loc 1 135 0
 672 011e BB69     		ldr	r3, [r7, #24]
 673 0120 DBB2     		uxtb	r3, r3
 674 0122 0133     		adds	r3, r3, #1
 675 0124 DAB2     		uxtb	r2, r3
 676 0126 FB69     		ldr	r3, [r7, #28]
 677 0128 DBB2     		uxtb	r3, r3
 678 012a 1046     		mov	r0, r2
 679 012c 1946     		mov	r1, r3
 680 012e FFF7FEFF 		bl	PixelColour
 681 0132 0346     		mov	r3, r0
 682 0134 BB73     		strb	r3, [r7, #14]
 136:.\my_camera_functions.c **** 			    locals[7] = PixelColour(x+1,y+1);
 683              		.loc 1 136 0
 684 0136 BB69     		ldr	r3, [r7, #24]
 685 0138 DBB2     		uxtb	r3, r3
 686 013a 0133     		adds	r3, r3, #1
 687 013c DAB2     		uxtb	r2, r3
 688 013e FB69     		ldr	r3, [r7, #28]
 689 0140 DBB2     		uxtb	r3, r3
 690 0142 0133     		adds	r3, r3, #1
 691 0144 DBB2     		uxtb	r3, r3
 692 0146 1046     		mov	r0, r2
 693 0148 1946     		mov	r1, r3
 694 014a FFF7FEFF 		bl	PixelColour
 695 014e 0346     		mov	r3, r0
 696 0150 FB73     		strb	r3, [r7, #15]
 137:.\my_camera_functions.c **** 			    for(i = 0; i < 8; ++i)
 697              		.loc 1 137 0
 698 0152 0023     		movs	r3, #0
 699 0154 7B61     		str	r3, [r7, #20]
 700 0156 3AE0     		b	.L27
 701              	.L28:
 138:.\my_camera_functions.c ****     			{
 139:.\my_camera_functions.c **** 	    			colours[0] += locals[i] == NONE;
 702              		.loc 1 139 0 discriminator 2
 703 0158 3A79     		ldrb	r2, [r7, #4]	@ zero_extendqisi2
ARM GAS  C:\Users\xavieran\AppData\Local\Temp\ccRA778j.s 			page 16


 704 015a 07F10801 		add	r1, r7, #8
 705 015e 7B69     		ldr	r3, [r7, #20]
 706 0160 0B44     		add	r3, r3, r1
 707 0162 1B78     		ldrb	r3, [r3]	@ zero_extendqisi2
 708 0164 002B     		cmp	r3, #0
 709 0166 14BF     		ite	ne
 710 0168 0023     		movne	r3, #0
 711 016a 0123     		moveq	r3, #1
 712 016c DBB2     		uxtb	r3, r3
 713 016e 1344     		add	r3, r3, r2
 714 0170 DBB2     		uxtb	r3, r3
 715 0172 3B71     		strb	r3, [r7, #4]
 140:.\my_camera_functions.c **** 		    		colours[1] += locals[i] == RED;
 716              		.loc 1 140 0 discriminator 2
 717 0174 7A79     		ldrb	r2, [r7, #5]	@ zero_extendqisi2
 718 0176 07F10801 		add	r1, r7, #8
 719 017a 7B69     		ldr	r3, [r7, #20]
 720 017c 0B44     		add	r3, r3, r1
 721 017e 1B78     		ldrb	r3, [r3]	@ zero_extendqisi2
 722 0180 012B     		cmp	r3, #1
 723 0182 14BF     		ite	ne
 724 0184 0023     		movne	r3, #0
 725 0186 0123     		moveq	r3, #1
 726 0188 DBB2     		uxtb	r3, r3
 727 018a 1344     		add	r3, r3, r2
 728 018c DBB2     		uxtb	r3, r3
 729 018e 7B71     		strb	r3, [r7, #5]
 141:.\my_camera_functions.c **** 			    	colours[2] += locals[i] == GREEN;
 730              		.loc 1 141 0 discriminator 2
 731 0190 BA79     		ldrb	r2, [r7, #6]	@ zero_extendqisi2
 732 0192 07F10801 		add	r1, r7, #8
 733 0196 7B69     		ldr	r3, [r7, #20]
 734 0198 0B44     		add	r3, r3, r1
 735 019a 1B78     		ldrb	r3, [r3]	@ zero_extendqisi2
 736 019c 022B     		cmp	r3, #2
 737 019e 14BF     		ite	ne
 738 01a0 0023     		movne	r3, #0
 739 01a2 0123     		moveq	r3, #1
 740 01a4 DBB2     		uxtb	r3, r3
 741 01a6 1344     		add	r3, r3, r2
 742 01a8 DBB2     		uxtb	r3, r3
 743 01aa BB71     		strb	r3, [r7, #6]
 142:.\my_camera_functions.c **** 				    colours[3] += locals[i] == BLUE;
 744              		.loc 1 142 0 discriminator 2
 745 01ac FA79     		ldrb	r2, [r7, #7]	@ zero_extendqisi2
 746 01ae 07F10801 		add	r1, r7, #8
 747 01b2 7B69     		ldr	r3, [r7, #20]
 748 01b4 0B44     		add	r3, r3, r1
 749 01b6 1B78     		ldrb	r3, [r3]	@ zero_extendqisi2
 750 01b8 032B     		cmp	r3, #3
 751 01ba 14BF     		ite	ne
 752 01bc 0023     		movne	r3, #0
 753 01be 0123     		moveq	r3, #1
 754 01c0 DBB2     		uxtb	r3, r3
 755 01c2 1344     		add	r3, r3, r2
 756 01c4 DBB2     		uxtb	r3, r3
 757 01c6 FB71     		strb	r3, [r7, #7]
ARM GAS  C:\Users\xavieran\AppData\Local\Temp\ccRA778j.s 			page 17


 137:.\my_camera_functions.c **** 			    for(i = 0; i < 8; ++i)
 758              		.loc 1 137 0 discriminator 2
 759 01c8 7B69     		ldr	r3, [r7, #20]
 760 01ca 0133     		adds	r3, r3, #1
 761 01cc 7B61     		str	r3, [r7, #20]
 762              	.L27:
 137:.\my_camera_functions.c **** 			    for(i = 0; i < 8; ++i)
 763              		.loc 1 137 0 is_stmt 0 discriminator 1
 764 01ce 7B69     		ldr	r3, [r7, #20]
 765 01d0 072B     		cmp	r3, #7
 766 01d2 C1DD     		ble	.L28
 143:.\my_camera_functions.c ****     			}
 144:.\my_camera_functions.c ****                 Camera_framebuffer[y][x][1] = 127;
 767              		.loc 1 144 0 is_stmt 1
 768 01d4 374A     		ldr	r2, .L37
 769 01d6 FB69     		ldr	r3, [r7, #28]
 770 01d8 5821     		movs	r1, #88
 771 01da 01FB03F1 		mul	r1, r1, r3
 772 01de BB69     		ldr	r3, [r7, #24]
 773 01e0 0B44     		add	r3, r3, r1
 774 01e2 9B00     		lsls	r3, r3, #2
 775 01e4 1344     		add	r3, r3, r2
 776 01e6 7F22     		movs	r2, #127
 777 01e8 5A70     		strb	r2, [r3, #1]
 145:.\my_camera_functions.c ****                 Camera_framebuffer[y][x][3] = 127;
 778              		.loc 1 145 0
 779 01ea 324A     		ldr	r2, .L37
 780 01ec FB69     		ldr	r3, [r7, #28]
 781 01ee 5821     		movs	r1, #88
 782 01f0 01FB03F1 		mul	r1, r1, r3
 783 01f4 BB69     		ldr	r3, [r7, #24]
 784 01f6 0B44     		add	r3, r3, r1
 785 01f8 9B00     		lsls	r3, r3, #2
 786 01fa 1344     		add	r3, r3, r2
 787 01fc 7F22     		movs	r2, #127
 788 01fe DA70     		strb	r2, [r3, #3]
 146:.\my_camera_functions.c **** 			    if(colours[1] >= connected)
 789              		.loc 1 146 0
 790 0200 7B79     		ldrb	r3, [r7, #5]	@ zero_extendqisi2
 791 0202 1A46     		mov	r2, r3
 792 0204 2C4B     		ldr	r3, .L37+4
 793 0206 1B68     		ldr	r3, [r3]
 794 0208 9A42     		cmp	r2, r3
 795 020a 17DB     		blt	.L29
 147:.\my_camera_functions.c **** 			    {
 148:.\my_camera_functions.c **** 				    pixel = RED;
 796              		.loc 1 148 0
 797 020c 0123     		movs	r3, #1
 798 020e 3B61     		str	r3, [r7, #16]
 149:.\my_camera_functions.c **** 				    Camera_framebuffer[y][x][0] = 0;
 799              		.loc 1 149 0
 800 0210 284B     		ldr	r3, .L37
 801 0212 FA69     		ldr	r2, [r7, #28]
 802 0214 5821     		movs	r1, #88
 803 0216 01FB02F1 		mul	r1, r1, r2
 804 021a BA69     		ldr	r2, [r7, #24]
 805 021c 0A44     		add	r2, r2, r1
ARM GAS  C:\Users\xavieran\AppData\Local\Temp\ccRA778j.s 			page 18


 806 021e 0021     		movs	r1, #0
 807 0220 03F82210 		strb	r1, [r3, r2, lsl #2]
 150:.\my_camera_functions.c ****     				Camera_framebuffer[y][x][2] = 255;
 808              		.loc 1 150 0
 809 0224 234A     		ldr	r2, .L37
 810 0226 FB69     		ldr	r3, [r7, #28]
 811 0228 5821     		movs	r1, #88
 812 022a 01FB03F1 		mul	r1, r1, r3
 813 022e BB69     		ldr	r3, [r7, #24]
 814 0230 0B44     		add	r3, r3, r1
 815 0232 9B00     		lsls	r3, r3, #2
 816 0234 1344     		add	r3, r3, r2
 817 0236 FF22     		movs	r2, #255
 818 0238 9A70     		strb	r2, [r3, #2]
 819 023a 6CE0     		b	.L30
 820              	.L29:
 151:.\my_camera_functions.c ****                 }
 152:.\my_camera_functions.c **** 		    	else if(colours[2] >= connected)
 821              		.loc 1 152 0
 822 023c BB79     		ldrb	r3, [r7, #6]	@ zero_extendqisi2
 823 023e 1A46     		mov	r2, r3
 824 0240 1D4B     		ldr	r3, .L37+4
 825 0242 1B68     		ldr	r3, [r3]
 826 0244 9A42     		cmp	r2, r3
 827 0246 17DB     		blt	.L31
 153:.\my_camera_functions.c ****     			{
 154:.\my_camera_functions.c **** 	    			pixel = GREEN;
 828              		.loc 1 154 0
 829 0248 0223     		movs	r3, #2
 830 024a 3B61     		str	r3, [r7, #16]
 155:.\my_camera_functions.c **** 		    		Camera_framebuffer[y][x][0] = 0;
 831              		.loc 1 155 0
 832 024c 194B     		ldr	r3, .L37
 833 024e FA69     		ldr	r2, [r7, #28]
 834 0250 5821     		movs	r1, #88
 835 0252 01FB02F1 		mul	r1, r1, r2
 836 0256 BA69     		ldr	r2, [r7, #24]
 837 0258 0A44     		add	r2, r2, r1
 838 025a 0021     		movs	r1, #0
 839 025c 03F82210 		strb	r1, [r3, r2, lsl #2]
 156:.\my_camera_functions.c **** 			    	Camera_framebuffer[y][x][2] = 0;
 840              		.loc 1 156 0
 841 0260 144A     		ldr	r2, .L37
 842 0262 FB69     		ldr	r3, [r7, #28]
 843 0264 5821     		movs	r1, #88
 844 0266 01FB03F1 		mul	r1, r1, r3
 845 026a BB69     		ldr	r3, [r7, #24]
 846 026c 0B44     		add	r3, r3, r1
 847 026e 9B00     		lsls	r3, r3, #2
 848 0270 1344     		add	r3, r3, r2
 849 0272 0022     		movs	r2, #0
 850 0274 9A70     		strb	r2, [r3, #2]
 851 0276 4EE0     		b	.L30
 852              	.L31:
 157:.\my_camera_functions.c **** 	    		}
 158:.\my_camera_functions.c **** 			    else if(colours[3] >= connected)
 853              		.loc 1 158 0
ARM GAS  C:\Users\xavieran\AppData\Local\Temp\ccRA778j.s 			page 19


 854 0278 FB79     		ldrb	r3, [r7, #7]	@ zero_extendqisi2
 855 027a 1A46     		mov	r2, r3
 856 027c 0E4B     		ldr	r3, .L37+4
 857 027e 1B68     		ldr	r3, [r3]
 858 0280 9A42     		cmp	r2, r3
 859 0282 1BDB     		blt	.L32
 159:.\my_camera_functions.c **** 			    {
 160:.\my_camera_functions.c ****     				pixel = BLUE;
 860              		.loc 1 160 0
 861 0284 0323     		movs	r3, #3
 862 0286 3B61     		str	r3, [r7, #16]
 161:.\my_camera_functions.c **** 	    			Camera_framebuffer[y][x][0] = 255;
 863              		.loc 1 161 0
 864 0288 0A4B     		ldr	r3, .L37
 865 028a FA69     		ldr	r2, [r7, #28]
 866 028c 5821     		movs	r1, #88
 867 028e 01FB02F1 		mul	r1, r1, r2
 868 0292 BA69     		ldr	r2, [r7, #24]
 869 0294 0A44     		add	r2, r2, r1
 870 0296 FF21     		movs	r1, #255
 871 0298 03F82210 		strb	r1, [r3, r2, lsl #2]
 162:.\my_camera_functions.c **** 		    		Camera_framebuffer[y][x][2] = 0;
 872              		.loc 1 162 0
 873 029c 054A     		ldr	r2, .L37
 874 029e FB69     		ldr	r3, [r7, #28]
 875 02a0 5821     		movs	r1, #88
 876 02a2 01FB03F1 		mul	r1, r1, r3
 877 02a6 BB69     		ldr	r3, [r7, #24]
 878 02a8 0B44     		add	r3, r3, r1
 879 02aa 9B00     		lsls	r3, r3, #2
 880 02ac 1344     		add	r3, r3, r2
 881 02ae 0022     		movs	r2, #0
 882 02b0 9A70     		strb	r2, [r3, #2]
 883 02b2 30E0     		b	.L30
 884              	.L38:
 885              		.align	2
 886              	.L37:
 887 02b4 00000000 		.word	Camera_framebuffer
 888 02b8 00000000 		.word	connected
 889              	.L32:
 163:.\my_camera_functions.c **** 			    }
 164:.\my_camera_functions.c ****     			else //if(colours[0] >= colours[1] && colours[0] >= colours[2] && colours[0] >= colours[3])
 165:.\my_camera_functions.c **** 	    		{
 166:.\my_camera_functions.c **** 		    		pixel = NONE;
 890              		.loc 1 166 0
 891 02bc 0023     		movs	r3, #0
 892 02be 3B61     		str	r3, [r7, #16]
 167:.\my_camera_functions.c **** 			    	Camera_framebuffer[y][x][0] = 127;
 893              		.loc 1 167 0
 894 02c0 244B     		ldr	r3, .L39
 895 02c2 FA69     		ldr	r2, [r7, #28]
 896 02c4 5821     		movs	r1, #88
 897 02c6 01FB02F1 		mul	r1, r1, r2
 898 02ca BA69     		ldr	r2, [r7, #24]
 899 02cc 0A44     		add	r2, r2, r1
 900 02ce 7F21     		movs	r1, #127
 901 02d0 03F82210 		strb	r1, [r3, r2, lsl #2]
ARM GAS  C:\Users\xavieran\AppData\Local\Temp\ccRA778j.s 			page 20


 168:.\my_camera_functions.c **** 				    Camera_framebuffer[y][x][2] = 127;
 902              		.loc 1 168 0
 903 02d4 1F4A     		ldr	r2, .L39
 904 02d6 FB69     		ldr	r3, [r7, #28]
 905 02d8 5821     		movs	r1, #88
 906 02da 01FB03F1 		mul	r1, r1, r3
 907 02de BB69     		ldr	r3, [r7, #24]
 908 02e0 0B44     		add	r3, r3, r1
 909 02e2 9B00     		lsls	r3, r3, #2
 910 02e4 1344     		add	r3, r3, r2
 911 02e6 7F22     		movs	r2, #127
 912 02e8 9A70     		strb	r2, [r3, #2]
 169:.\my_camera_functions.c ****                     Camera_framebuffer[y][x][1] = 0;
 913              		.loc 1 169 0
 914 02ea 1A4A     		ldr	r2, .L39
 915 02ec FB69     		ldr	r3, [r7, #28]
 916 02ee 5821     		movs	r1, #88
 917 02f0 01FB03F1 		mul	r1, r1, r3
 918 02f4 BB69     		ldr	r3, [r7, #24]
 919 02f6 0B44     		add	r3, r3, r1
 920 02f8 9B00     		lsls	r3, r3, #2
 921 02fa 1344     		add	r3, r3, r2
 922 02fc 0022     		movs	r2, #0
 923 02fe 5A70     		strb	r2, [r3, #1]
 170:.\my_camera_functions.c ****                     Camera_framebuffer[y][x][3] = 0;
 924              		.loc 1 170 0
 925 0300 144A     		ldr	r2, .L39
 926 0302 FB69     		ldr	r3, [r7, #28]
 927 0304 5821     		movs	r1, #88
 928 0306 01FB03F1 		mul	r1, r1, r3
 929 030a BB69     		ldr	r3, [r7, #24]
 930 030c 0B44     		add	r3, r3, r1
 931 030e 9B00     		lsls	r3, r3, #2
 932 0310 1344     		add	r3, r3, r2
 933 0312 0022     		movs	r2, #0
 934 0314 DA70     		strb	r2, [r3, #3]
 935              	.L30:
 171:.\my_camera_functions.c **** 		    	}
 172:.\my_camera_functions.c **** 			    for(i = 0; i < 8; ++i)
 936              		.loc 1 172 0
 937 0316 0023     		movs	r3, #0
 938 0318 7B61     		str	r3, [r7, #20]
 939 031a 07E0     		b	.L33
 940              	.L34:
 173:.\my_camera_functions.c **** 			    {
 174:.\my_camera_functions.c ****     				colours[i] = 0;
 941              		.loc 1 174 0 discriminator 2
 942 031c 3A1D     		adds	r2, r7, #4
 943 031e 7B69     		ldr	r3, [r7, #20]
 944 0320 1344     		add	r3, r3, r2
 945 0322 0022     		movs	r2, #0
 946 0324 1A70     		strb	r2, [r3]
 172:.\my_camera_functions.c **** 			    for(i = 0; i < 8; ++i)
 947              		.loc 1 172 0 discriminator 2
 948 0326 7B69     		ldr	r3, [r7, #20]
 949 0328 0133     		adds	r3, r3, #1
 950 032a 7B61     		str	r3, [r7, #20]
ARM GAS  C:\Users\xavieran\AppData\Local\Temp\ccRA778j.s 			page 21


 951              	.L33:
 172:.\my_camera_functions.c **** 			    for(i = 0; i < 8; ++i)
 952              		.loc 1 172 0 is_stmt 0 discriminator 1
 953 032c 7B69     		ldr	r3, [r7, #20]
 954 032e 072B     		cmp	r3, #7
 955 0330 F4DD     		ble	.L34
 956              	.L26:
 118:.\my_camera_functions.c **** 		for(x = 0; x < 88; ++x)
 957              		.loc 1 118 0 is_stmt 1
 958 0332 BB69     		ldr	r3, [r7, #24]
 959 0334 0133     		adds	r3, r3, #1
 960 0336 BB61     		str	r3, [r7, #24]
 961              	.L23:
 118:.\my_camera_functions.c **** 		for(x = 0; x < 88; ++x)
 962              		.loc 1 118 0 is_stmt 0 discriminator 1
 963 0338 BB69     		ldr	r3, [r7, #24]
 964 033a 572B     		cmp	r3, #87
 965 033c 7FF769AE 		ble	.L35
 116:.\my_camera_functions.c **** 	for(y = 0; y < 144; ++y)
 966              		.loc 1 116 0 is_stmt 1
 967 0340 FB69     		ldr	r3, [r7, #28]
 968 0342 0133     		adds	r3, r3, #1
 969 0344 FB61     		str	r3, [r7, #28]
 970              	.L22:
 116:.\my_camera_functions.c **** 	for(y = 0; y < 144; ++y)
 971              		.loc 1 116 0 is_stmt 0 discriminator 1
 972 0346 FB69     		ldr	r3, [r7, #28]
 973 0348 8F2B     		cmp	r3, #143
 974 034a 7FF75FAE 		ble	.L36
 175:.\my_camera_functions.c **** 			    } 
 176:.\my_camera_functions.c ****             }
 177:.\my_camera_functions.c **** 		}
 178:.\my_camera_functions.c **** 	}
 179:.\my_camera_functions.c **** }
 975              		.loc 1 179 0 is_stmt 1
 976 034e 2037     		adds	r7, r7, #32
 977 0350 BD46     		mov	sp, r7
 978              		@ sp needed
 979 0352 80BD     		pop	{r7, pc}
 980              	.L40:
 981              		.align	2
 982              	.L39:
 983 0354 00000000 		.word	Camera_framebuffer
 984              		.cfi_endproc
 985              	.LFE68:
 986              		.size	threshold_image, .-threshold_image
 987              		.global	__aeabi_i2f
 988              		.global	__aeabi_fmul
 989              		.global	__aeabi_fcmpge
 990              		.section	.text.clean_frame,"ax",%progbits
 991              		.align	2
 992              		.global	clean_frame
 993              		.thumb
 994              		.thumb_func
 995              		.type	clean_frame, %function
 996              	clean_frame:
 997              	.LFB69:
ARM GAS  C:\Users\xavieran\AppData\Local\Temp\ccRA778j.s 			page 22


 180:.\my_camera_functions.c **** 
 181:.\my_camera_functions.c **** 
 182:.\my_camera_functions.c **** void clean_frame(int colour, float proportion, int row_limit)
 183:.\my_camera_functions.c **** {
 998              		.loc 1 183 0
 999              		.cfi_startproc
 1000              		@ args = 0, pretend = 0, frame = 32
 1001              		@ frame_needed = 1, uses_anonymous_args = 0
 1002 0000 90B5     		push	{r4, r7, lr}
 1003              		.cfi_def_cfa_offset 12
 1004              		.cfi_offset 4, -12
 1005              		.cfi_offset 7, -8
 1006              		.cfi_offset 14, -4
 1007 0002 89B0     		sub	sp, sp, #36
 1008              		.cfi_def_cfa_offset 48
 1009 0004 00AF     		add	r7, sp, #0
 1010              		.cfi_def_cfa_register 7
 1011 0006 F860     		str	r0, [r7, #12]
 1012 0008 B960     		str	r1, [r7, #8]	@ float
 1013 000a 7A60     		str	r2, [r7, #4]
 184:.\my_camera_functions.c ****     int y,x,count,index = 0;
 1014              		.loc 1 184 0
 1015 000c 0023     		movs	r3, #0
 1016 000e 3B61     		str	r3, [r7, #16]
 185:.\my_camera_functions.c ****     for(y = 0; y <= row_limit; y++)
 1017              		.loc 1 185 0
 1018 0010 0023     		movs	r3, #0
 1019 0012 FB61     		str	r3, [r7, #28]
 1020 0014 2FE0     		b	.L42
 1021              	.L48:
 186:.\my_camera_functions.c ****     {
 187:.\my_camera_functions.c ****         count = 0;
 1022              		.loc 1 187 0
 1023 0016 0023     		movs	r3, #0
 1024 0018 7B61     		str	r3, [r7, #20]
 188:.\my_camera_functions.c ****         for(x = 0; x < 88; x++)
 1025              		.loc 1 188 0
 1026 001a 0023     		movs	r3, #0
 1027 001c BB61     		str	r3, [r7, #24]
 1028 001e 12E0     		b	.L43
 1029              	.L45:
 189:.\my_camera_functions.c ****         {
 190:.\my_camera_functions.c ****             if(PixelColour(x,y) == colour)
 1030              		.loc 1 190 0
 1031 0020 BB69     		ldr	r3, [r7, #24]
 1032 0022 DAB2     		uxtb	r2, r3
 1033 0024 FB69     		ldr	r3, [r7, #28]
 1034 0026 DBB2     		uxtb	r3, r3
 1035 0028 1046     		mov	r0, r2
 1036 002a 1946     		mov	r1, r3
 1037 002c FFF7FEFF 		bl	PixelColour
 1038 0030 0346     		mov	r3, r0
 1039 0032 1A46     		mov	r2, r3
 1040 0034 FB68     		ldr	r3, [r7, #12]
 1041 0036 9A42     		cmp	r2, r3
 1042 0038 02D1     		bne	.L44
 191:.\my_camera_functions.c ****             {
ARM GAS  C:\Users\xavieran\AppData\Local\Temp\ccRA778j.s 			page 23


 192:.\my_camera_functions.c ****                 count++;
 1043              		.loc 1 192 0
 1044 003a 7B69     		ldr	r3, [r7, #20]
 1045 003c 0133     		adds	r3, r3, #1
 1046 003e 7B61     		str	r3, [r7, #20]
 1047              	.L44:
 188:.\my_camera_functions.c ****         for(x = 0; x < 88; x++)
 1048              		.loc 1 188 0
 1049 0040 BB69     		ldr	r3, [r7, #24]
 1050 0042 0133     		adds	r3, r3, #1
 1051 0044 BB61     		str	r3, [r7, #24]
 1052              	.L43:
 188:.\my_camera_functions.c ****         for(x = 0; x < 88; x++)
 1053              		.loc 1 188 0 is_stmt 0 discriminator 1
 1054 0046 BB69     		ldr	r3, [r7, #24]
 1055 0048 572B     		cmp	r3, #87
 1056 004a E9DD     		ble	.L45
 193:.\my_camera_functions.c ****             }
 194:.\my_camera_functions.c ****         }
 195:.\my_camera_functions.c ****         if(count >= proportion*88)
 1057              		.loc 1 195 0 is_stmt 1
 1058 004c 7869     		ldr	r0, [r7, #20]
 1059 004e FFF7FEFF 		bl	__aeabi_i2f
 1060 0052 0446     		mov	r4, r0
 1061 0054 B868     		ldr	r0, [r7, #8]	@ float
 1062 0056 3149     		ldr	r1, .L55
 1063 0058 FFF7FEFF 		bl	__aeabi_fmul
 1064 005c 0346     		mov	r3, r0
 1065 005e 2046     		mov	r0, r4
 1066 0060 1946     		mov	r1, r3
 1067 0062 FFF7FEFF 		bl	__aeabi_fcmpge
 1068 0066 0346     		mov	r3, r0
 1069 0068 002B     		cmp	r3, #0
 1070 006a 01D0     		beq	.L46
 196:.\my_camera_functions.c ****         {
 197:.\my_camera_functions.c ****             index = y;
 1071              		.loc 1 197 0
 1072 006c FB69     		ldr	r3, [r7, #28]
 1073 006e 3B61     		str	r3, [r7, #16]
 1074              	.L46:
 185:.\my_camera_functions.c ****     for(y = 0; y <= row_limit; y++)
 1075              		.loc 1 185 0
 1076 0070 FB69     		ldr	r3, [r7, #28]
 1077 0072 0133     		adds	r3, r3, #1
 1078 0074 FB61     		str	r3, [r7, #28]
 1079              	.L42:
 185:.\my_camera_functions.c ****     for(y = 0; y <= row_limit; y++)
 1080              		.loc 1 185 0 is_stmt 0 discriminator 1
 1081 0076 FA69     		ldr	r2, [r7, #28]
 1082 0078 7B68     		ldr	r3, [r7, #4]
 1083 007a 9A42     		cmp	r2, r3
 1084 007c CBDD     		ble	.L48
 198:.\my_camera_functions.c ****         }
 199:.\my_camera_functions.c ****     }
 200:.\my_camera_functions.c ****     for(y = 0; y <= index; y++)
 1085              		.loc 1 200 0 is_stmt 1
 1086 007e 0023     		movs	r3, #0
ARM GAS  C:\Users\xavieran\AppData\Local\Temp\ccRA778j.s 			page 24


 1087 0080 FB61     		str	r3, [r7, #28]
 1088 0082 43E0     		b	.L49
 1089              	.L53:
 201:.\my_camera_functions.c ****     {
 202:.\my_camera_functions.c ****         for(x = 0; x < 88; x++)
 1090              		.loc 1 202 0
 1091 0084 0023     		movs	r3, #0
 1092 0086 BB61     		str	r3, [r7, #24]
 1093 0088 3AE0     		b	.L50
 1094              	.L52:
 203:.\my_camera_functions.c ****             {
 204:.\my_camera_functions.c ****                 if(PixelColour(x,y) == colour)
 1095              		.loc 1 204 0
 1096 008a BB69     		ldr	r3, [r7, #24]
 1097 008c DAB2     		uxtb	r2, r3
 1098 008e FB69     		ldr	r3, [r7, #28]
 1099 0090 DBB2     		uxtb	r3, r3
 1100 0092 1046     		mov	r0, r2
 1101 0094 1946     		mov	r1, r3
 1102 0096 FFF7FEFF 		bl	PixelColour
 1103 009a 0346     		mov	r3, r0
 1104 009c 1A46     		mov	r2, r3
 1105 009e FB68     		ldr	r3, [r7, #12]
 1106 00a0 9A42     		cmp	r2, r3
 1107 00a2 2AD1     		bne	.L51
 205:.\my_camera_functions.c ****                 {
 206:.\my_camera_functions.c ****                     Camera_framebuffer[y][x][0] = 127;
 1108              		.loc 1 206 0
 1109 00a4 1E4B     		ldr	r3, .L55+4
 1110 00a6 FA69     		ldr	r2, [r7, #28]
 1111 00a8 5821     		movs	r1, #88
 1112 00aa 01FB02F1 		mul	r1, r1, r2
 1113 00ae BA69     		ldr	r2, [r7, #24]
 1114 00b0 0A44     		add	r2, r2, r1
 1115 00b2 7F21     		movs	r1, #127
 1116 00b4 03F82210 		strb	r1, [r3, r2, lsl #2]
 207:.\my_camera_functions.c **** 			        Camera_framebuffer[y][x][2] = 127;
 1117              		.loc 1 207 0
 1118 00b8 194A     		ldr	r2, .L55+4
 1119 00ba FB69     		ldr	r3, [r7, #28]
 1120 00bc 5821     		movs	r1, #88
 1121 00be 01FB03F1 		mul	r1, r1, r3
 1122 00c2 BB69     		ldr	r3, [r7, #24]
 1123 00c4 0B44     		add	r3, r3, r1
 1124 00c6 9B00     		lsls	r3, r3, #2
 1125 00c8 1344     		add	r3, r3, r2
 1126 00ca 7F22     		movs	r2, #127
 1127 00cc 9A70     		strb	r2, [r3, #2]
 208:.\my_camera_functions.c ****                     Camera_framebuffer[y][x][1] = 0;
 1128              		.loc 1 208 0
 1129 00ce 144A     		ldr	r2, .L55+4
 1130 00d0 FB69     		ldr	r3, [r7, #28]
 1131 00d2 5821     		movs	r1, #88
 1132 00d4 01FB03F1 		mul	r1, r1, r3
 1133 00d8 BB69     		ldr	r3, [r7, #24]
 1134 00da 0B44     		add	r3, r3, r1
 1135 00dc 9B00     		lsls	r3, r3, #2
ARM GAS  C:\Users\xavieran\AppData\Local\Temp\ccRA778j.s 			page 25


 1136 00de 1344     		add	r3, r3, r2
 1137 00e0 0022     		movs	r2, #0
 1138 00e2 5A70     		strb	r2, [r3, #1]
 209:.\my_camera_functions.c ****                     Camera_framebuffer[y][x][3] = 0;
 1139              		.loc 1 209 0
 1140 00e4 0E4A     		ldr	r2, .L55+4
 1141 00e6 FB69     		ldr	r3, [r7, #28]
 1142 00e8 5821     		movs	r1, #88
 1143 00ea 01FB03F1 		mul	r1, r1, r3
 1144 00ee BB69     		ldr	r3, [r7, #24]
 1145 00f0 0B44     		add	r3, r3, r1
 1146 00f2 9B00     		lsls	r3, r3, #2
 1147 00f4 1344     		add	r3, r3, r2
 1148 00f6 0022     		movs	r2, #0
 1149 00f8 DA70     		strb	r2, [r3, #3]
 1150              	.L51:
 202:.\my_camera_functions.c ****         for(x = 0; x < 88; x++)
 1151              		.loc 1 202 0
 1152 00fa BB69     		ldr	r3, [r7, #24]
 1153 00fc 0133     		adds	r3, r3, #1
 1154 00fe BB61     		str	r3, [r7, #24]
 1155              	.L50:
 202:.\my_camera_functions.c ****         for(x = 0; x < 88; x++)
 1156              		.loc 1 202 0 is_stmt 0 discriminator 1
 1157 0100 BB69     		ldr	r3, [r7, #24]
 1158 0102 572B     		cmp	r3, #87
 1159 0104 C1DD     		ble	.L52
 200:.\my_camera_functions.c ****     for(y = 0; y <= index; y++)
 1160              		.loc 1 200 0 is_stmt 1
 1161 0106 FB69     		ldr	r3, [r7, #28]
 1162 0108 0133     		adds	r3, r3, #1
 1163 010a FB61     		str	r3, [r7, #28]
 1164              	.L49:
 200:.\my_camera_functions.c ****     for(y = 0; y <= index; y++)
 1165              		.loc 1 200 0 is_stmt 0 discriminator 1
 1166 010c FA69     		ldr	r2, [r7, #28]
 1167 010e 3B69     		ldr	r3, [r7, #16]
 1168 0110 9A42     		cmp	r2, r3
 1169 0112 B7DD     		ble	.L53
 210:.\my_camera_functions.c ****                 }
 211:.\my_camera_functions.c ****             }
 212:.\my_camera_functions.c ****     }
 213:.\my_camera_functions.c **** }
 1170              		.loc 1 213 0 is_stmt 1
 1171 0114 2437     		adds	r7, r7, #36
 1172 0116 BD46     		mov	sp, r7
 1173              		@ sp needed
 1174 0118 90BD     		pop	{r4, r7, pc}
 1175              	.L56:
 1176 011a 00BF     		.align	2
 1177              	.L55:
 1178 011c 0000B042 		.word	1118830592
 1179 0120 00000000 		.word	Camera_framebuffer
 1180              		.cfi_endproc
 1181              	.LFE69:
 1182              		.size	clean_frame, .-clean_frame
 1183              		.section	.text.identify_colour_instructions,"ax",%progbits
ARM GAS  C:\Users\xavieran\AppData\Local\Temp\ccRA778j.s 			page 26


 1184              		.align	2
 1185              		.global	identify_colour_instructions
 1186              		.thumb
 1187              		.thumb_func
 1188              		.type	identify_colour_instructions, %function
 1189              	identify_colour_instructions:
 1190              	.LFB70:
 214:.\my_camera_functions.c **** 
 215:.\my_camera_functions.c **** 
 216:.\my_camera_functions.c **** int identify_colour_instructions(int size)
 217:.\my_camera_functions.c **** {
 1191              		.loc 1 217 0
 1192              		.cfi_startproc
 1193              		@ args = 0, pretend = 0, frame = 16
 1194              		@ frame_needed = 1, uses_anonymous_args = 0
 1195              		@ link register save eliminated.
 1196 0000 80B4     		push	{r7}
 1197              		.cfi_def_cfa_offset 4
 1198              		.cfi_offset 7, -4
 1199 0002 85B0     		sub	sp, sp, #20
 1200              		.cfi_def_cfa_offset 24
 1201 0004 00AF     		add	r7, sp, #0
 1202              		.cfi_def_cfa_register 7
 1203 0006 7860     		str	r0, [r7, #4]
 218:.\my_camera_functions.c ****     int x = -1;
 1204              		.loc 1 218 0
 1205 0008 4FF0FF33 		mov	r3, #-1
 1206 000c FB60     		str	r3, [r7, #12]
 219:.\my_camera_functions.c ****     if(blobs[0].size >= size)
 1207              		.loc 1 219 0
 1208 000e 084B     		ldr	r3, .L60
 1209 0010 1B68     		ldr	r3, [r3]
 1210 0012 5A68     		ldr	r2, [r3, #4]
 1211 0014 7B68     		ldr	r3, [r7, #4]
 1212 0016 9A42     		cmp	r2, r3
 1213 0018 03D3     		bcc	.L58
 220:.\my_camera_functions.c ****     {
 221:.\my_camera_functions.c ****         x = blobs[0].colour;
 1214              		.loc 1 221 0
 1215 001a 054B     		ldr	r3, .L60
 1216 001c 1B68     		ldr	r3, [r3]
 1217 001e 1B68     		ldr	r3, [r3]
 1218 0020 FB60     		str	r3, [r7, #12]
 1219              	.L58:
 222:.\my_camera_functions.c ****     }
 223:.\my_camera_functions.c ****     return x;
 1220              		.loc 1 223 0
 1221 0022 FB68     		ldr	r3, [r7, #12]
 224:.\my_camera_functions.c ****     //PixelColour(88/2,144/2);
 225:.\my_camera_functions.c **** }
 1222              		.loc 1 225 0
 1223 0024 1846     		mov	r0, r3
 1224 0026 1437     		adds	r7, r7, #20
 1225 0028 BD46     		mov	sp, r7
 1226              		@ sp needed
 1227 002a 5DF8047B 		ldr	r7, [sp], #4
 1228 002e 7047     		bx	lr
ARM GAS  C:\Users\xavieran\AppData\Local\Temp\ccRA778j.s 			page 27


 1229              	.L61:
 1230              		.align	2
 1231              	.L60:
 1232 0030 00000000 		.word	blobs
 1233              		.cfi_endproc
 1234              	.LFE70:
 1235              		.size	identify_colour_instructions, .-identify_colour_instructions
 1236              		.section	.text.identify_colour_gripper,"ax",%progbits
 1237              		.align	2
 1238              		.global	identify_colour_gripper
 1239              		.thumb
 1240              		.thumb_func
 1241              		.type	identify_colour_gripper, %function
 1242              	identify_colour_gripper:
 1243              	.LFB71:
 226:.\my_camera_functions.c **** 
 227:.\my_camera_functions.c **** int identify_colour_gripper()
 228:.\my_camera_functions.c **** {
 1244              		.loc 1 228 0
 1245              		.cfi_startproc
 1246              		@ args = 0, pretend = 0, frame = 0
 1247              		@ frame_needed = 1, uses_anonymous_args = 0
 1248 0000 80B5     		push	{r7, lr}
 1249              		.cfi_def_cfa_offset 8
 1250              		.cfi_offset 7, -8
 1251              		.cfi_offset 14, -4
 1252 0002 00AF     		add	r7, sp, #0
 1253              		.cfi_def_cfa_register 7
 229:.\my_camera_functions.c ****      return PixelColour(88/2,144);  
 1254              		.loc 1 229 0
 1255 0004 2C20     		movs	r0, #44
 1256 0006 9021     		movs	r1, #144
 1257 0008 FFF7FEFF 		bl	PixelColour
 1258 000c 0346     		mov	r3, r0
 230:.\my_camera_functions.c **** }
 1259              		.loc 1 230 0
 1260 000e 1846     		mov	r0, r3
 1261 0010 80BD     		pop	{r7, pc}
 1262              		.cfi_endproc
 1263              	.LFE71:
 1264              		.size	identify_colour_gripper, .-identify_colour_gripper
 1265 0012 00BF     		.section	.text.PixelLuminence,"ax",%progbits
 1266              		.align	2
 1267              		.global	PixelLuminence
 1268              		.thumb
 1269              		.thumb_func
 1270              		.type	PixelLuminence, %function
 1271              	PixelLuminence:
 1272              	.LFB72:
 231:.\my_camera_functions.c **** 
 232:.\my_camera_functions.c **** 
 233:.\my_camera_functions.c **** int PixelLuminence(int x, int y)
 234:.\my_camera_functions.c **** {
 1273              		.loc 1 234 0
 1274              		.cfi_startproc
 1275              		@ args = 0, pretend = 0, frame = 8
 1276              		@ frame_needed = 1, uses_anonymous_args = 0
ARM GAS  C:\Users\xavieran\AppData\Local\Temp\ccRA778j.s 			page 28


 1277              		@ link register save eliminated.
 1278 0000 80B4     		push	{r7}
 1279              		.cfi_def_cfa_offset 4
 1280              		.cfi_offset 7, -4
 1281 0002 83B0     		sub	sp, sp, #12
 1282              		.cfi_def_cfa_offset 16
 1283 0004 00AF     		add	r7, sp, #0
 1284              		.cfi_def_cfa_register 7
 1285 0006 7860     		str	r0, [r7, #4]
 1286 0008 3960     		str	r1, [r7]
 235:.\my_camera_functions.c **** 	return (Camera_framebuffer[y][x][1] > 127) && (Camera_framebuffer[y][x][3] > 127);
 1287              		.loc 1 235 0
 1288 000a 124A     		ldr	r2, .L68
 1289 000c 3B68     		ldr	r3, [r7]
 1290 000e 5821     		movs	r1, #88
 1291 0010 01FB03F1 		mul	r1, r1, r3
 1292 0014 7B68     		ldr	r3, [r7, #4]
 1293 0016 0B44     		add	r3, r3, r1
 1294 0018 9B00     		lsls	r3, r3, #2
 1295 001a 1344     		add	r3, r3, r2
 1296 001c 5B78     		ldrb	r3, [r3, #1]	@ zero_extendqisi2
 1297 001e DBB2     		uxtb	r3, r3
 1298 0020 5BB2     		sxtb	r3, r3
 1299 0022 002B     		cmp	r3, #0
 1300 0024 0FDA     		bge	.L65
 1301              		.loc 1 235 0 is_stmt 0 discriminator 1
 1302 0026 0B4A     		ldr	r2, .L68
 1303 0028 3B68     		ldr	r3, [r7]
 1304 002a 5821     		movs	r1, #88
 1305 002c 01FB03F1 		mul	r1, r1, r3
 1306 0030 7B68     		ldr	r3, [r7, #4]
 1307 0032 0B44     		add	r3, r3, r1
 1308 0034 9B00     		lsls	r3, r3, #2
 1309 0036 1344     		add	r3, r3, r2
 1310 0038 DB78     		ldrb	r3, [r3, #3]	@ zero_extendqisi2
 1311 003a DBB2     		uxtb	r3, r3
 1312 003c 5BB2     		sxtb	r3, r3
 1313 003e 002B     		cmp	r3, #0
 1314 0040 01DA     		bge	.L65
 1315              		.loc 1 235 0 discriminator 3
 1316 0042 0123     		movs	r3, #1
 1317 0044 00E0     		b	.L66
 1318              	.L65:
 1319              		.loc 1 235 0 discriminator 2
 1320 0046 0023     		movs	r3, #0
 1321              	.L66:
 236:.\my_camera_functions.c **** } 
 1322              		.loc 1 236 0 is_stmt 1 discriminator 4
 1323 0048 1846     		mov	r0, r3
 1324 004a 0C37     		adds	r7, r7, #12
 1325 004c BD46     		mov	sp, r7
 1326              		@ sp needed
 1327 004e 5DF8047B 		ldr	r7, [sp], #4
 1328 0052 7047     		bx	lr
 1329              	.L69:
 1330              		.align	2
 1331              	.L68:
ARM GAS  C:\Users\xavieran\AppData\Local\Temp\ccRA778j.s 			page 29


 1332 0054 00000000 		.word	Camera_framebuffer
 1333              		.cfi_endproc
 1334              	.LFE72:
 1335              		.size	PixelLuminence, .-PixelLuminence
 1336              		.section	.text.threshold_black,"ax",%progbits
 1337              		.align	2
 1338              		.global	threshold_black
 1339              		.thumb
 1340              		.thumb_func
 1341              		.type	threshold_black, %function
 1342              	threshold_black:
 1343              	.LFB73:
 237:.\my_camera_functions.c **** 
 238:.\my_camera_functions.c **** 
 239:.\my_camera_functions.c **** void threshold_black()
 240:.\my_camera_functions.c **** {
 1344              		.loc 1 240 0
 1345              		.cfi_startproc
 1346              		@ args = 0, pretend = 0, frame = 16
 1347              		@ frame_needed = 1, uses_anonymous_args = 0
 1348 0000 80B5     		push	{r7, lr}
 1349              		.cfi_def_cfa_offset 8
 1350              		.cfi_offset 7, -8
 1351              		.cfi_offset 14, -4
 1352 0002 84B0     		sub	sp, sp, #16
 1353              		.cfi_def_cfa_offset 24
 1354 0004 00AF     		add	r7, sp, #0
 1355              		.cfi_def_cfa_register 7
 241:.\my_camera_functions.c **** 	int y,x,k,i;
 242:.\my_camera_functions.c **** 	for(y = 0; y < 144; y++)
 1356              		.loc 1 242 0
 1357 0006 0023     		movs	r3, #0
 1358 0008 FB60     		str	r3, [r7, #12]
 1359 000a BBE0     		b	.L71
 1360              	.L81:
 243:.\my_camera_functions.c **** 	{
 244:.\my_camera_functions.c **** 		for(x = 0; x < 88; x++)
 1361              		.loc 1 244 0
 1362 000c 0023     		movs	r3, #0
 1363 000e BB60     		str	r3, [r7, #8]
 1364 0010 B1E0     		b	.L72
 1365              	.L80:
 245:.\my_camera_functions.c **** 		{
 246:.\my_camera_functions.c **** 			k = 0;
 1366              		.loc 1 246 0
 1367 0012 0023     		movs	r3, #0
 1368 0014 3B60     		str	r3, [r7]
 247:.\my_camera_functions.c **** 			if(y == 0 || y == 143 || x == 0 || x == 143)
 1369              		.loc 1 247 0
 1370 0016 FB68     		ldr	r3, [r7, #12]
 1371 0018 002B     		cmp	r3, #0
 1372 001a 08D0     		beq	.L73
 1373              		.loc 1 247 0 is_stmt 0 discriminator 1
 1374 001c FB68     		ldr	r3, [r7, #12]
 1375 001e 8F2B     		cmp	r3, #143
 1376 0020 05D0     		beq	.L73
 1377 0022 BB68     		ldr	r3, [r7, #8]
ARM GAS  C:\Users\xavieran\AppData\Local\Temp\ccRA778j.s 			page 30


 1378 0024 002B     		cmp	r3, #0
 1379 0026 02D0     		beq	.L73
 1380 0028 BB68     		ldr	r3, [r7, #8]
 1381 002a 8F2B     		cmp	r3, #143
 1382 002c 24D1     		bne	.L74
 1383              	.L73:
 248:.\my_camera_functions.c **** 			{
 249:.\my_camera_functions.c **** 				for(i = 0; i < 2; i++)
 1384              		.loc 1 249 0 is_stmt 1
 1385 002e 0023     		movs	r3, #0
 1386 0030 7B60     		str	r3, [r7, #4]
 1387 0032 1DE0     		b	.L75
 1388              	.L76:
 250:.\my_camera_functions.c **** 				{
 251:.\my_camera_functions.c **** 					Camera_framebuffer[y][x][i] = 127;
 1389              		.loc 1 251 0 discriminator 2
 1390 0034 574A     		ldr	r2, .L82
 1391 0036 FB68     		ldr	r3, [r7, #12]
 1392 0038 5821     		movs	r1, #88
 1393 003a 01FB03F1 		mul	r1, r1, r3
 1394 003e BB68     		ldr	r3, [r7, #8]
 1395 0040 0B44     		add	r3, r3, r1
 1396 0042 9900     		lsls	r1, r3, #2
 1397 0044 7B68     		ldr	r3, [r7, #4]
 1398 0046 0B44     		add	r3, r3, r1
 1399 0048 1344     		add	r3, r3, r2
 1400 004a 7F22     		movs	r2, #127
 1401 004c 1A70     		strb	r2, [r3]
 252:.\my_camera_functions.c ****                     Camera_framebuffer[y][x][i+1] = 255;
 1402              		.loc 1 252 0 discriminator 2
 1403 004e 7B68     		ldr	r3, [r7, #4]
 1404 0050 0133     		adds	r3, r3, #1
 1405 0052 504A     		ldr	r2, .L82
 1406 0054 F968     		ldr	r1, [r7, #12]
 1407 0056 5820     		movs	r0, #88
 1408 0058 00FB01F0 		mul	r0, r0, r1
 1409 005c B968     		ldr	r1, [r7, #8]
 1410 005e 0144     		add	r1, r1, r0
 1411 0060 8900     		lsls	r1, r1, #2
 1412 0062 0B44     		add	r3, r3, r1
 1413 0064 1344     		add	r3, r3, r2
 1414 0066 FF22     		movs	r2, #255
 1415 0068 1A70     		strb	r2, [r3]
 249:.\my_camera_functions.c **** 				for(i = 0; i < 2; i++)
 1416              		.loc 1 249 0 discriminator 2
 1417 006a 7B68     		ldr	r3, [r7, #4]
 1418 006c 0133     		adds	r3, r3, #1
 1419 006e 7B60     		str	r3, [r7, #4]
 1420              	.L75:
 249:.\my_camera_functions.c **** 				for(i = 0; i < 2; i++)
 1421              		.loc 1 249 0 is_stmt 0 discriminator 1
 1422 0070 7B68     		ldr	r3, [r7, #4]
 1423 0072 012B     		cmp	r3, #1
 1424 0074 DEDD     		ble	.L76
 247:.\my_camera_functions.c **** 			if(y == 0 || y == 143 || x == 0 || x == 143)
 1425              		.loc 1 247 0 is_stmt 1
 1426 0076 57E0     		b	.L77
ARM GAS  C:\Users\xavieran\AppData\Local\Temp\ccRA778j.s 			page 31


 1427              	.L74:
 253:.\my_camera_functions.c **** 				}
 254:.\my_camera_functions.c ****             }
 255:.\my_camera_functions.c **** 			else
 256:.\my_camera_functions.c ****             {
 257:.\my_camera_functions.c **** 		    	k += PixelLuminence(x-1,y-1);
 1428              		.loc 1 257 0
 1429 0078 BB68     		ldr	r3, [r7, #8]
 1430 007a 5A1E     		subs	r2, r3, #1
 1431 007c FB68     		ldr	r3, [r7, #12]
 1432 007e 013B     		subs	r3, r3, #1
 1433 0080 1046     		mov	r0, r2
 1434 0082 1946     		mov	r1, r3
 1435 0084 FFF7FEFF 		bl	PixelLuminence
 1436 0088 0346     		mov	r3, r0
 1437 008a 3A68     		ldr	r2, [r7]
 1438 008c 1344     		add	r3, r3, r2
 1439 008e 3B60     		str	r3, [r7]
 258:.\my_camera_functions.c **** 		    	k += PixelLuminence(x-1,y);
 1440              		.loc 1 258 0
 1441 0090 BB68     		ldr	r3, [r7, #8]
 1442 0092 013B     		subs	r3, r3, #1
 1443 0094 1846     		mov	r0, r3
 1444 0096 F968     		ldr	r1, [r7, #12]
 1445 0098 FFF7FEFF 		bl	PixelLuminence
 1446 009c 0346     		mov	r3, r0
 1447 009e 3A68     		ldr	r2, [r7]
 1448 00a0 1344     		add	r3, r3, r2
 1449 00a2 3B60     		str	r3, [r7]
 259:.\my_camera_functions.c **** 		    	k += PixelLuminence(x-1,y+1);
 1450              		.loc 1 259 0
 1451 00a4 BB68     		ldr	r3, [r7, #8]
 1452 00a6 5A1E     		subs	r2, r3, #1
 1453 00a8 FB68     		ldr	r3, [r7, #12]
 1454 00aa 0133     		adds	r3, r3, #1
 1455 00ac 1046     		mov	r0, r2
 1456 00ae 1946     		mov	r1, r3
 1457 00b0 FFF7FEFF 		bl	PixelLuminence
 1458 00b4 0346     		mov	r3, r0
 1459 00b6 3A68     		ldr	r2, [r7]
 1460 00b8 1344     		add	r3, r3, r2
 1461 00ba 3B60     		str	r3, [r7]
 260:.\my_camera_functions.c **** 		    	k += PixelLuminence(x,y-1);
 1462              		.loc 1 260 0
 1463 00bc FB68     		ldr	r3, [r7, #12]
 1464 00be 013B     		subs	r3, r3, #1
 1465 00c0 B868     		ldr	r0, [r7, #8]
 1466 00c2 1946     		mov	r1, r3
 1467 00c4 FFF7FEFF 		bl	PixelLuminence
 1468 00c8 0346     		mov	r3, r0
 1469 00ca 3A68     		ldr	r2, [r7]
 1470 00cc 1344     		add	r3, r3, r2
 1471 00ce 3B60     		str	r3, [r7]
 261:.\my_camera_functions.c **** 			   	k += PixelLuminence(x,y+1);
 1472              		.loc 1 261 0
 1473 00d0 FB68     		ldr	r3, [r7, #12]
 1474 00d2 0133     		adds	r3, r3, #1
ARM GAS  C:\Users\xavieran\AppData\Local\Temp\ccRA778j.s 			page 32


 1475 00d4 B868     		ldr	r0, [r7, #8]
 1476 00d6 1946     		mov	r1, r3
 1477 00d8 FFF7FEFF 		bl	PixelLuminence
 1478 00dc 0346     		mov	r3, r0
 1479 00de 3A68     		ldr	r2, [r7]
 1480 00e0 1344     		add	r3, r3, r2
 1481 00e2 3B60     		str	r3, [r7]
 262:.\my_camera_functions.c **** 			   	k += PixelLuminence(x+1,y-1);
 1482              		.loc 1 262 0
 1483 00e4 BB68     		ldr	r3, [r7, #8]
 1484 00e6 5A1C     		adds	r2, r3, #1
 1485 00e8 FB68     		ldr	r3, [r7, #12]
 1486 00ea 013B     		subs	r3, r3, #1
 1487 00ec 1046     		mov	r0, r2
 1488 00ee 1946     		mov	r1, r3
 1489 00f0 FFF7FEFF 		bl	PixelLuminence
 1490 00f4 0346     		mov	r3, r0
 1491 00f6 3A68     		ldr	r2, [r7]
 1492 00f8 1344     		add	r3, r3, r2
 1493 00fa 3B60     		str	r3, [r7]
 263:.\my_camera_functions.c **** 			   	k += PixelLuminence(x+1,y);
 1494              		.loc 1 263 0
 1495 00fc BB68     		ldr	r3, [r7, #8]
 1496 00fe 0133     		adds	r3, r3, #1
 1497 0100 1846     		mov	r0, r3
 1498 0102 F968     		ldr	r1, [r7, #12]
 1499 0104 FFF7FEFF 		bl	PixelLuminence
 1500 0108 0346     		mov	r3, r0
 1501 010a 3A68     		ldr	r2, [r7]
 1502 010c 1344     		add	r3, r3, r2
 1503 010e 3B60     		str	r3, [r7]
 264:.\my_camera_functions.c **** 			   	k += PixelLuminence(x+1,y+1);
 1504              		.loc 1 264 0
 1505 0110 BB68     		ldr	r3, [r7, #8]
 1506 0112 5A1C     		adds	r2, r3, #1
 1507 0114 FB68     		ldr	r3, [r7, #12]
 1508 0116 0133     		adds	r3, r3, #1
 1509 0118 1046     		mov	r0, r2
 1510 011a 1946     		mov	r1, r3
 1511 011c FFF7FEFF 		bl	PixelLuminence
 1512 0120 0346     		mov	r3, r0
 1513 0122 3A68     		ldr	r2, [r7]
 1514 0124 1344     		add	r3, r3, r2
 1515 0126 3B60     		str	r3, [r7]
 1516              	.L77:
 265:.\my_camera_functions.c **** 			}
 266:.\my_camera_functions.c **** 			for(i = 0; i < 2; i++)
 1517              		.loc 1 266 0
 1518 0128 0023     		movs	r3, #0
 1519 012a 7B60     		str	r3, [r7, #4]
 1520 012c 1DE0     		b	.L78
 1521              	.L79:
 267:.\my_camera_functions.c **** 			{
 268:.\my_camera_functions.c ****                 Camera_framebuffer[y][x][i] = 127;
 1522              		.loc 1 268 0 discriminator 2
 1523 012e 194A     		ldr	r2, .L82
 1524 0130 FB68     		ldr	r3, [r7, #12]
ARM GAS  C:\Users\xavieran\AppData\Local\Temp\ccRA778j.s 			page 33


 1525 0132 5821     		movs	r1, #88
 1526 0134 01FB03F1 		mul	r1, r1, r3
 1527 0138 BB68     		ldr	r3, [r7, #8]
 1528 013a 0B44     		add	r3, r3, r1
 1529 013c 9900     		lsls	r1, r3, #2
 1530 013e 7B68     		ldr	r3, [r7, #4]
 1531 0140 0B44     		add	r3, r3, r1
 1532 0142 1344     		add	r3, r3, r2
 1533 0144 7F22     		movs	r2, #127
 1534 0146 1A70     		strb	r2, [r3]
 269:.\my_camera_functions.c **** 				Camera_framebuffer[y][x][i+1] = 0;
 1535              		.loc 1 269 0 discriminator 2
 1536 0148 7B68     		ldr	r3, [r7, #4]
 1537 014a 0133     		adds	r3, r3, #1
 1538 014c 114A     		ldr	r2, .L82
 1539 014e F968     		ldr	r1, [r7, #12]
 1540 0150 5820     		movs	r0, #88
 1541 0152 00FB01F0 		mul	r0, r0, r1
 1542 0156 B968     		ldr	r1, [r7, #8]
 1543 0158 0144     		add	r1, r1, r0
 1544 015a 8900     		lsls	r1, r1, #2
 1545 015c 0B44     		add	r3, r3, r1
 1546 015e 1344     		add	r3, r3, r2
 1547 0160 0022     		movs	r2, #0
 1548 0162 1A70     		strb	r2, [r3]
 266:.\my_camera_functions.c **** 			for(i = 0; i < 2; i++)
 1549              		.loc 1 266 0 discriminator 2
 1550 0164 7B68     		ldr	r3, [r7, #4]
 1551 0166 0133     		adds	r3, r3, #1
 1552 0168 7B60     		str	r3, [r7, #4]
 1553              	.L78:
 266:.\my_camera_functions.c **** 			for(i = 0; i < 2; i++)
 1554              		.loc 1 266 0 is_stmt 0 discriminator 1
 1555 016a 7B68     		ldr	r3, [r7, #4]
 1556 016c 012B     		cmp	r3, #1
 1557 016e DEDD     		ble	.L79
 244:.\my_camera_functions.c **** 		for(x = 0; x < 88; x++)
 1558              		.loc 1 244 0 is_stmt 1
 1559 0170 BB68     		ldr	r3, [r7, #8]
 1560 0172 0133     		adds	r3, r3, #1
 1561 0174 BB60     		str	r3, [r7, #8]
 1562              	.L72:
 244:.\my_camera_functions.c **** 		for(x = 0; x < 88; x++)
 1563              		.loc 1 244 0 is_stmt 0 discriminator 1
 1564 0176 BB68     		ldr	r3, [r7, #8]
 1565 0178 572B     		cmp	r3, #87
 1566 017a 7FF74AAF 		ble	.L80
 242:.\my_camera_functions.c **** 	for(y = 0; y < 144; y++)
 1567              		.loc 1 242 0 is_stmt 1
 1568 017e FB68     		ldr	r3, [r7, #12]
 1569 0180 0133     		adds	r3, r3, #1
 1570 0182 FB60     		str	r3, [r7, #12]
 1571              	.L71:
 242:.\my_camera_functions.c **** 	for(y = 0; y < 144; y++)
 1572              		.loc 1 242 0 is_stmt 0 discriminator 1
 1573 0184 FB68     		ldr	r3, [r7, #12]
 1574 0186 8F2B     		cmp	r3, #143
ARM GAS  C:\Users\xavieran\AppData\Local\Temp\ccRA778j.s 			page 34


 1575 0188 7FF740AF 		ble	.L81
 270:.\my_camera_functions.c **** 			}
 271:.\my_camera_functions.c **** 		}
 272:.\my_camera_functions.c **** 	}
 273:.\my_camera_functions.c **** }
 1576              		.loc 1 273 0 is_stmt 1
 1577 018c 1037     		adds	r7, r7, #16
 1578 018e BD46     		mov	sp, r7
 1579              		@ sp needed
 1580 0190 80BD     		pop	{r7, pc}
 1581              	.L83:
 1582 0192 00BF     		.align	2
 1583              	.L82:
 1584 0194 00000000 		.word	Camera_framebuffer
 1585              		.cfi_endproc
 1586              	.LFE73:
 1587              		.size	threshold_black, .-threshold_black
 1588              		.section	.rodata
 1589 0041 000000   		.align	2
 1590              	.LC5:
 1591 0044 313A2563 		.ascii	"1:%c 2:%c 3:%c 4:%c\000"
 1591      20323A25 
 1591      6320333A 
 1591      25632034 
 1591      3A256300 
 1592              		.align	2
 1593              	.LC0:
 1594 0058 4B       		.byte	75
 1595 0059 52       		.byte	82
 1596 005a 47       		.byte	71
 1597 005b 42       		.byte	66
 1598              		.section	.text.read_instruction_routine,"ax",%progbits
 1599              		.align	2
 1600              		.global	read_instruction_routine
 1601              		.thumb
 1602              		.thumb_func
 1603              		.type	read_instruction_routine, %function
 1604              	read_instruction_routine:
 1605              	.LFB74:
 274:.\my_camera_functions.c **** 
 275:.\my_camera_functions.c **** void read_instruction_routine()
 276:.\my_camera_functions.c **** {
 1606              		.loc 1 276 0
 1607              		.cfi_startproc
 1608              		@ args = 0, pretend = 0, frame = 24
 1609              		@ frame_needed = 1, uses_anonymous_args = 0
 1610 0000 90B5     		push	{r4, r7, lr}
 1611              		.cfi_def_cfa_offset 12
 1612              		.cfi_offset 4, -12
 1613              		.cfi_offset 7, -8
 1614              		.cfi_offset 14, -4
 1615 0002 89B0     		sub	sp, sp, #36
 1616              		.cfi_def_cfa_offset 48
 1617 0004 02AF     		add	r7, sp, #8
 1618              		.cfi_def_cfa 7, 40
 277:.\my_camera_functions.c ****     arm_set_level(0);
 1619              		.loc 1 277 0
ARM GAS  C:\Users\xavieran\AppData\Local\Temp\ccRA778j.s 			page 35


 1620 0006 0020     		movs	r0, #0
 1621 0008 FFF7FEFF 		bl	arm_set_level
 278:.\my_camera_functions.c ****     CyDelay(100);
 1622              		.loc 1 278 0
 1623 000c 6420     		movs	r0, #100
 1624 000e FFF7FEFF 		bl	CyDelay
 279:.\my_camera_functions.c ****     stack[0] = instruction_read();
 1625              		.loc 1 279 0
 1626 0012 FFF7FEFF 		bl	instruction_read
 1627 0016 0246     		mov	r2, r0
 1628 0018 2D4B     		ldr	r3, .L85
 1629 001a 1A60     		str	r2, [r3]
 280:.\my_camera_functions.c ****     arm_set_level(1);
 1630              		.loc 1 280 0
 1631 001c 0120     		movs	r0, #1
 1632 001e FFF7FEFF 		bl	arm_set_level
 281:.\my_camera_functions.c ****     CyDelay(100);
 1633              		.loc 1 281 0
 1634 0022 6420     		movs	r0, #100
 1635 0024 FFF7FEFF 		bl	CyDelay
 282:.\my_camera_functions.c ****     stack[1] = instruction_read();
 1636              		.loc 1 282 0
 1637 0028 FFF7FEFF 		bl	instruction_read
 1638 002c 0246     		mov	r2, r0
 1639 002e 284B     		ldr	r3, .L85
 1640 0030 5A60     		str	r2, [r3, #4]
 283:.\my_camera_functions.c ****     arm_set_level(2);
 1641              		.loc 1 283 0
 1642 0032 0220     		movs	r0, #2
 1643 0034 FFF7FEFF 		bl	arm_set_level
 284:.\my_camera_functions.c ****     CyDelay(100);
 1644              		.loc 1 284 0
 1645 0038 6420     		movs	r0, #100
 1646 003a FFF7FEFF 		bl	CyDelay
 285:.\my_camera_functions.c ****     stack[2] = instruction_read();
 1647              		.loc 1 285 0
 1648 003e FFF7FEFF 		bl	instruction_read
 1649 0042 0246     		mov	r2, r0
 1650 0044 224B     		ldr	r3, .L85
 1651 0046 9A60     		str	r2, [r3, #8]
 286:.\my_camera_functions.c ****     arm_set_level(3);
 1652              		.loc 1 286 0
 1653 0048 0320     		movs	r0, #3
 1654 004a FFF7FEFF 		bl	arm_set_level
 287:.\my_camera_functions.c ****     CyDelay(100);
 1655              		.loc 1 287 0
 1656 004e 6420     		movs	r0, #100
 1657 0050 FFF7FEFF 		bl	CyDelay
 288:.\my_camera_functions.c ****     stack[3] = instruction_read();
 1658              		.loc 1 288 0
 1659 0054 FFF7FEFF 		bl	instruction_read
 1660 0058 0246     		mov	r2, r0
 1661 005a 1D4B     		ldr	r3, .L85
 1662 005c DA60     		str	r2, [r3, #12]
 289:.\my_camera_functions.c ****     char RGB[] = {'K','R','G','B'};
 1663              		.loc 1 289 0
 1664 005e 1D4A     		ldr	r2, .L85+4
ARM GAS  C:\Users\xavieran\AppData\Local\Temp\ccRA778j.s 			page 36


 1665 0060 07F11403 		add	r3, r7, #20
 1666 0064 1068     		ldr	r0, [r2]	@ unaligned
 1667 0066 1860     		str	r0, [r3]	@ unaligned
 290:.\my_camera_functions.c ****     char display[20];
 291:.\my_camera_functions.c ****     sprintf(display,"1:%c 2:%c 3:%c 4:%c",RGB[stack[0]],RGB[stack[1]],RGB[stack[2]],RGB[stack[3]]);
 1668              		.loc 1 291 0
 1669 0068 194B     		ldr	r3, .L85
 1670 006a 1B68     		ldr	r3, [r3]
 1671 006c 07F11800 		add	r0, r7, #24
 1672 0070 0344     		add	r3, r3, r0
 1673 0072 13F8043C 		ldrb	r3, [r3, #-4]	@ zero_extendqisi2
 1674 0076 1A46     		mov	r2, r3
 1675 0078 154B     		ldr	r3, .L85
 1676 007a 5B68     		ldr	r3, [r3, #4]
 1677 007c 07F11801 		add	r1, r7, #24
 1678 0080 0B44     		add	r3, r3, r1
 1679 0082 13F8043C 		ldrb	r3, [r3, #-4]	@ zero_extendqisi2
 1680 0086 1249     		ldr	r1, .L85
 1681 0088 8968     		ldr	r1, [r1, #8]
 1682 008a 07F11800 		add	r0, r7, #24
 1683 008e 0144     		add	r1, r1, r0
 1684 0090 11F8041C 		ldrb	r1, [r1, #-4]	@ zero_extendqisi2
 1685 0094 0C46     		mov	r4, r1
 1686 0096 0E49     		ldr	r1, .L85
 1687 0098 C968     		ldr	r1, [r1, #12]
 1688 009a 07F11800 		add	r0, r7, #24
 1689 009e 0144     		add	r1, r1, r0
 1690 00a0 11F8041C 		ldrb	r1, [r1, #-4]	@ zero_extendqisi2
 1691 00a4 0846     		mov	r0, r1
 1692 00a6 3946     		mov	r1, r7
 1693 00a8 0094     		str	r4, [sp]
 1694 00aa 0190     		str	r0, [sp, #4]
 1695 00ac 0846     		mov	r0, r1
 1696 00ae 0A49     		ldr	r1, .L85+8
 1697 00b0 FFF7FEFF 		bl	sprintf
 292:.\my_camera_functions.c ****     LCD_ClearDisplay();
 1698              		.loc 1 292 0
 1699 00b4 0120     		movs	r0, #1
 1700 00b6 FFF7FEFF 		bl	LCD_WriteControl
 293:.\my_camera_functions.c ****     LCD_PosPrintString(0,0,display);
 1701              		.loc 1 293 0
 1702 00ba 0020     		movs	r0, #0
 1703 00bc 0021     		movs	r1, #0
 1704 00be FFF7FEFF 		bl	LCD_Position
 1705 00c2 3B46     		mov	r3, r7
 1706 00c4 1846     		mov	r0, r3
 1707 00c6 FFF7FEFF 		bl	LCD_PrintString
 294:.\my_camera_functions.c **** }
 1708              		.loc 1 294 0
 1709 00ca 1C37     		adds	r7, r7, #28
 1710 00cc BD46     		mov	sp, r7
 1711              		@ sp needed
 1712 00ce 90BD     		pop	{r4, r7, pc}
 1713              	.L86:
 1714              		.align	2
 1715              	.L85:
 1716 00d0 00000000 		.word	stack
ARM GAS  C:\Users\xavieran\AppData\Local\Temp\ccRA778j.s 			page 37


 1717 00d4 58000000 		.word	.LC0
 1718 00d8 44000000 		.word	.LC5
 1719              		.cfi_endproc
 1720              	.LFE74:
 1721              		.size	read_instruction_routine, .-read_instruction_routine
 1722              		.section	.rodata
 1723              		.align	2
 1724              	.LC7:
 1725 005c 233A2564 		.ascii	"#:%d R:%d G:%d B:%d\000"
 1725      20523A25 
 1725      6420473A 
 1725      25642042 
 1725      3A256400 
 1726              		.align	2
 1727              	.LC8:
 1728 0070 42433A25 		.ascii	"BC:%c R:%c G:%c B:%c\000"
 1728      6320523A 
 1728      25632047 
 1728      3A256320 
 1728      423A2563 
 1729 0085 000000   		.align	2
 1730              	.LC6:
 1731 0088 4B524742 		.ascii	"KRGB\000"
 1731      00
 1732              		.section	.text.image_stuff4,"ax",%progbits
 1733              		.align	2
 1734              		.global	image_stuff4
 1735              		.thumb
 1736              		.thumb_func
 1737              		.type	image_stuff4, %function
 1738              	image_stuff4:
 1739              	.LFB75:
 295:.\my_camera_functions.c **** 
 296:.\my_camera_functions.c **** 
 297:.\my_camera_functions.c **** void image_stuff4()
 298:.\my_camera_functions.c **** {
 1740              		.loc 1 298 0
 1741              		.cfi_startproc
 1742              		@ args = 0, pretend = 0, frame = 56
 1743              		@ frame_needed = 1, uses_anonymous_args = 0
 1744 0000 F0B5     		push	{r4, r5, r6, r7, lr}
 1745              		.cfi_def_cfa_offset 20
 1746              		.cfi_offset 4, -20
 1747              		.cfi_offset 5, -16
 1748              		.cfi_offset 6, -12
 1749              		.cfi_offset 7, -8
 1750              		.cfi_offset 14, -4
 1751 0002 91B0     		sub	sp, sp, #68
 1752              		.cfi_def_cfa_offset 88
 1753 0004 02AF     		add	r7, sp, #8
 1754              		.cfi_def_cfa 7, 80
 299:.\my_camera_functions.c ****     int x, i;
 300:.\my_camera_functions.c ****     char j,k,l,display[2][20],RGB[]="KRGB";
 1755              		.loc 1 300 0
 1756 0006 5C4A     		ldr	r2, .L100
 1757 0008 3B46     		mov	r3, r7
 1758 000a 92E80300 		ldmia	r2, {r0, r1}
ARM GAS  C:\Users\xavieran\AppData\Local\Temp\ccRA778j.s 			page 38


 1759 000e 1860     		str	r0, [r3]
 1760 0010 0433     		adds	r3, r3, #4
 1761 0012 1970     		strb	r1, [r3]
 301:.\my_camera_functions.c ****     //capture_thresh_image();
 302:.\my_camera_functions.c ****     x = to_nearest_blob(BLUE,30,1,44);
 1762              		.loc 1 302 0
 1763 0014 0320     		movs	r0, #3
 1764 0016 1E21     		movs	r1, #30
 1765 0018 0122     		movs	r2, #1
 1766 001a 2C23     		movs	r3, #44
 1767 001c FFF7FEFF 		bl	to_nearest_blob
 1768 0020 3863     		str	r0, [r7, #48]
 303:.\my_camera_functions.c ****     if(x < -2)
 1769              		.loc 1 303 0
 1770 0022 3B6B     		ldr	r3, [r7, #48]
 1771 0024 13F1020F 		cmn	r3, #2
 1772 0028 03DA     		bge	.L88
 304:.\my_camera_functions.c ****     {
 305:.\my_camera_functions.c ****         j = 'L';
 1773              		.loc 1 305 0
 1774 002a 4C23     		movs	r3, #76
 1775 002c 87F83730 		strb	r3, [r7, #55]
 1776 0030 11E0     		b	.L89
 1777              	.L88:
 306:.\my_camera_functions.c ****     }
 307:.\my_camera_functions.c ****     else if(x > 2)
 1778              		.loc 1 307 0
 1779 0032 3B6B     		ldr	r3, [r7, #48]
 1780 0034 022B     		cmp	r3, #2
 1781 0036 03DD     		ble	.L90
 308:.\my_camera_functions.c ****     {
 309:.\my_camera_functions.c ****         j = 'R';
 1782              		.loc 1 309 0
 1783 0038 5223     		movs	r3, #82
 1784 003a 87F83730 		strb	r3, [r7, #55]
 1785 003e 0AE0     		b	.L89
 1786              	.L90:
 310:.\my_camera_functions.c ****     }
 311:.\my_camera_functions.c ****     else if(x == -1)
 1787              		.loc 1 311 0
 1788 0040 3B6B     		ldr	r3, [r7, #48]
 1789 0042 B3F1FF3F 		cmp	r3, #-1
 1790 0046 03D1     		bne	.L91
 312:.\my_camera_functions.c ****     {
 313:.\my_camera_functions.c ****         j = 'N';
 1791              		.loc 1 313 0
 1792 0048 4E23     		movs	r3, #78
 1793 004a 87F83730 		strb	r3, [r7, #55]
 1794 004e 02E0     		b	.L89
 1795              	.L91:
 314:.\my_camera_functions.c ****     }
 315:.\my_camera_functions.c ****     else{j = 'C';}
 1796              		.loc 1 315 0
 1797 0050 4323     		movs	r3, #67
 1798 0052 87F83730 		strb	r3, [r7, #55]
 1799              	.L89:
 316:.\my_camera_functions.c ****     x = to_nearest_blob(RED,30,12,44);
ARM GAS  C:\Users\xavieran\AppData\Local\Temp\ccRA778j.s 			page 39


 1800              		.loc 1 316 0
 1801 0056 0120     		movs	r0, #1
 1802 0058 1E21     		movs	r1, #30
 1803 005a 0C22     		movs	r2, #12
 1804 005c 2C23     		movs	r3, #44
 1805 005e FFF7FEFF 		bl	to_nearest_blob
 1806 0062 3863     		str	r0, [r7, #48]
 317:.\my_camera_functions.c ****     if(x < -2)
 1807              		.loc 1 317 0
 1808 0064 3B6B     		ldr	r3, [r7, #48]
 1809 0066 13F1020F 		cmn	r3, #2
 1810 006a 03DA     		bge	.L92
 318:.\my_camera_functions.c ****     {
 319:.\my_camera_functions.c ****         k = 'L';
 1811              		.loc 1 319 0
 1812 006c 4C23     		movs	r3, #76
 1813 006e 87F83630 		strb	r3, [r7, #54]
 1814 0072 11E0     		b	.L93
 1815              	.L92:
 320:.\my_camera_functions.c ****     }
 321:.\my_camera_functions.c ****     else if(x > 2)
 1816              		.loc 1 321 0
 1817 0074 3B6B     		ldr	r3, [r7, #48]
 1818 0076 022B     		cmp	r3, #2
 1819 0078 03DD     		ble	.L94
 322:.\my_camera_functions.c ****     {
 323:.\my_camera_functions.c ****         k = 'R';
 1820              		.loc 1 323 0
 1821 007a 5223     		movs	r3, #82
 1822 007c 87F83630 		strb	r3, [r7, #54]
 1823 0080 0AE0     		b	.L93
 1824              	.L94:
 324:.\my_camera_functions.c ****     }
 325:.\my_camera_functions.c ****     else if(x == -1)
 1825              		.loc 1 325 0
 1826 0082 3B6B     		ldr	r3, [r7, #48]
 1827 0084 B3F1FF3F 		cmp	r3, #-1
 1828 0088 03D1     		bne	.L95
 326:.\my_camera_functions.c ****     {
 327:.\my_camera_functions.c ****         k = 'N';
 1829              		.loc 1 327 0
 1830 008a 4E23     		movs	r3, #78
 1831 008c 87F83630 		strb	r3, [r7, #54]
 1832 0090 02E0     		b	.L93
 1833              	.L95:
 328:.\my_camera_functions.c ****     }
 329:.\my_camera_functions.c ****     else{k = 'C';}
 1834              		.loc 1 329 0
 1835 0092 4323     		movs	r3, #67
 1836 0094 87F83630 		strb	r3, [r7, #54]
 1837              	.L93:
 330:.\my_camera_functions.c ****     x = to_nearest_blob(GREEN,30,12,44);
 1838              		.loc 1 330 0
 1839 0098 0220     		movs	r0, #2
 1840 009a 1E21     		movs	r1, #30
 1841 009c 0C22     		movs	r2, #12
 1842 009e 2C23     		movs	r3, #44
ARM GAS  C:\Users\xavieran\AppData\Local\Temp\ccRA778j.s 			page 40


 1843 00a0 FFF7FEFF 		bl	to_nearest_blob
 1844 00a4 3863     		str	r0, [r7, #48]
 331:.\my_camera_functions.c ****     if(x < -2)
 1845              		.loc 1 331 0
 1846 00a6 3B6B     		ldr	r3, [r7, #48]
 1847 00a8 13F1020F 		cmn	r3, #2
 1848 00ac 03DA     		bge	.L96
 332:.\my_camera_functions.c ****     {
 333:.\my_camera_functions.c ****         l = 'L';
 1849              		.loc 1 333 0
 1850 00ae 4C23     		movs	r3, #76
 1851 00b0 87F83530 		strb	r3, [r7, #53]
 1852 00b4 11E0     		b	.L97
 1853              	.L96:
 334:.\my_camera_functions.c ****     }
 335:.\my_camera_functions.c ****     else if(x > 2)
 1854              		.loc 1 335 0
 1855 00b6 3B6B     		ldr	r3, [r7, #48]
 1856 00b8 022B     		cmp	r3, #2
 1857 00ba 03DD     		ble	.L98
 336:.\my_camera_functions.c ****     {
 337:.\my_camera_functions.c ****         l = 'R';
 1858              		.loc 1 337 0
 1859 00bc 5223     		movs	r3, #82
 1860 00be 87F83530 		strb	r3, [r7, #53]
 1861 00c2 0AE0     		b	.L97
 1862              	.L98:
 338:.\my_camera_functions.c ****     }
 339:.\my_camera_functions.c ****     else if(x == -1)
 1863              		.loc 1 339 0
 1864 00c4 3B6B     		ldr	r3, [r7, #48]
 1865 00c6 B3F1FF3F 		cmp	r3, #-1
 1866 00ca 03D1     		bne	.L99
 340:.\my_camera_functions.c ****     {
 341:.\my_camera_functions.c ****         l = 'N';
 1867              		.loc 1 341 0
 1868 00cc 4E23     		movs	r3, #78
 1869 00ce 87F83530 		strb	r3, [r7, #53]
 1870 00d2 02E0     		b	.L97
 1871              	.L99:
 342:.\my_camera_functions.c ****     }
 343:.\my_camera_functions.c ****     else{l = 'C';}
 1872              		.loc 1 343 0
 1873 00d4 4323     		movs	r3, #67
 1874 00d6 87F83530 		strb	r3, [r7, #53]
 1875              	.L97:
 344:.\my_camera_functions.c ****     sprintf(display[0],"#:%d R:%d G:%d B:%d",blob_count(0),blob_count(1),blob_count(2),blob_count(3
 1876              		.loc 1 344 0
 1877 00da 0020     		movs	r0, #0
 1878 00dc FFF7FEFF 		bl	blob_count
 1879 00e0 0346     		mov	r3, r0
 1880 00e2 1D46     		mov	r5, r3
 1881 00e4 0120     		movs	r0, #1
 1882 00e6 FFF7FEFF 		bl	blob_count
 1883 00ea 0346     		mov	r3, r0
 1884 00ec 1C46     		mov	r4, r3
 1885 00ee 0220     		movs	r0, #2
ARM GAS  C:\Users\xavieran\AppData\Local\Temp\ccRA778j.s 			page 41


 1886 00f0 FFF7FEFF 		bl	blob_count
 1887 00f4 0346     		mov	r3, r0
 1888 00f6 1E46     		mov	r6, r3
 1889 00f8 0320     		movs	r0, #3
 1890 00fa FFF7FEFF 		bl	blob_count
 1891 00fe 0346     		mov	r3, r0
 1892 0100 1A46     		mov	r2, r3
 1893 0102 07F10803 		add	r3, r7, #8
 1894 0106 0096     		str	r6, [sp]
 1895 0108 0192     		str	r2, [sp, #4]
 1896 010a 1846     		mov	r0, r3
 1897 010c 1B49     		ldr	r1, .L100+4
 1898 010e 2A46     		mov	r2, r5
 1899 0110 2346     		mov	r3, r4
 1900 0112 FFF7FEFF 		bl	sprintf
 345:.\my_camera_functions.c ****     sprintf(display[1],"BC:%c R:%c G:%c B:%c",RGB[blobs[0].colour],k,l,j);
 1901              		.loc 1 345 0
 1902 0116 1A4B     		ldr	r3, .L100+8
 1903 0118 1B68     		ldr	r3, [r3]
 1904 011a 1B68     		ldr	r3, [r3]
 1905 011c 07F13802 		add	r2, r7, #56
 1906 0120 1344     		add	r3, r3, r2
 1907 0122 13F8383C 		ldrb	r3, [r3, #-56]	@ zero_extendqisi2
 1908 0126 1A46     		mov	r2, r3
 1909 0128 97F83630 		ldrb	r3, [r7, #54]	@ zero_extendqisi2
 1910 012c 97F83540 		ldrb	r4, [r7, #53]	@ zero_extendqisi2
 1911 0130 97F83700 		ldrb	r0, [r7, #55]	@ zero_extendqisi2
 1912 0134 07F10801 		add	r1, r7, #8
 1913 0138 1431     		adds	r1, r1, #20
 1914 013a 0094     		str	r4, [sp]
 1915 013c 0190     		str	r0, [sp, #4]
 1916 013e 0846     		mov	r0, r1
 1917 0140 1049     		ldr	r1, .L100+12
 1918 0142 FFF7FEFF 		bl	sprintf
 346:.\my_camera_functions.c ****     LCD_ClearDisplay();
 1919              		.loc 1 346 0
 1920 0146 0120     		movs	r0, #1
 1921 0148 FFF7FEFF 		bl	LCD_WriteControl
 347:.\my_camera_functions.c ****     LCD_PosPrintString(0,0,display[0]);
 1922              		.loc 1 347 0
 1923 014c 0020     		movs	r0, #0
 1924 014e 0021     		movs	r1, #0
 1925 0150 FFF7FEFF 		bl	LCD_Position
 1926 0154 07F10803 		add	r3, r7, #8
 1927 0158 1846     		mov	r0, r3
 1928 015a FFF7FEFF 		bl	LCD_PrintString
 348:.\my_camera_functions.c ****     LCD_PosPrintString(1,0,display[1]);
 1929              		.loc 1 348 0
 1930 015e 0120     		movs	r0, #1
 1931 0160 0021     		movs	r1, #0
 1932 0162 FFF7FEFF 		bl	LCD_Position
 1933 0166 07F10803 		add	r3, r7, #8
 1934 016a 1433     		adds	r3, r3, #20
 1935 016c 1846     		mov	r0, r3
 1936 016e FFF7FEFF 		bl	LCD_PrintString
 349:.\my_camera_functions.c **** }
 1937              		.loc 1 349 0
ARM GAS  C:\Users\xavieran\AppData\Local\Temp\ccRA778j.s 			page 42


 1938 0172 3C37     		adds	r7, r7, #60
 1939 0174 BD46     		mov	sp, r7
 1940              		@ sp needed
 1941 0176 F0BD     		pop	{r4, r5, r6, r7, pc}
 1942              	.L101:
 1943              		.align	2
 1944              	.L100:
 1945 0178 88000000 		.word	.LC6
 1946 017c 5C000000 		.word	.LC7
 1947 0180 00000000 		.word	blobs
 1948 0184 70000000 		.word	.LC8
 1949              		.cfi_endproc
 1950              	.LFE75:
 1951              		.size	image_stuff4, .-image_stuff4
 1952              		.section	.rodata
 1953 008d 000000   		.align	2
 1954              	.LC9:
 1955 0090 4D697373 		.ascii	"Missed Instruct\000"
 1955      65642049 
 1955      6E737472 
 1955      75637400 
 1956              		.align	2
 1957              	.LC10:
 1958 00a0 25632025 		.ascii	"%c %c %c %c\000"
 1958      63202563 
 1958      20256300 
 1959              		.section	.text.read_instructions,"ax",%progbits
 1960              		.align	2
 1961              		.global	read_instructions
 1962              		.thumb
 1963              		.thumb_func
 1964              		.type	read_instructions, %function
 1965              	read_instructions:
 1966              	.LFB76:
 350:.\my_camera_functions.c ****      
 351:.\my_camera_functions.c ****      
 352:.\my_camera_functions.c ****     void read_instructions()
 353:.\my_camera_functions.c ****     {
 1967              		.loc 1 353 0
 1968              		.cfi_startproc
 1969              		@ args = 0, pretend = 0, frame = 232
 1970              		@ frame_needed = 1, uses_anonymous_args = 0
 1971 0000 90B5     		push	{r4, r7, lr}
 1972              		.cfi_def_cfa_offset 12
 1973              		.cfi_offset 4, -12
 1974              		.cfi_offset 7, -8
 1975              		.cfi_offset 14, -4
 1976 0002 BDB0     		sub	sp, sp, #244
 1977              		.cfi_def_cfa_offset 256
 1978 0004 02AF     		add	r7, sp, #8
 1979              		.cfi_def_cfa 7, 248
 354:.\my_camera_functions.c ****         int stacks[10][4];
 355:.\my_camera_functions.c ****         int i,j,r,g,b;
 356:.\my_camera_functions.c ****         char RGB[] = "KRGB";
 1980              		.loc 1 356 0
 1981 0006 704A     		ldr	r2, .L121
 1982 0008 07F12C03 		add	r3, r7, #44
ARM GAS  C:\Users\xavieran\AppData\Local\Temp\ccRA778j.s 			page 43


 1983 000c 92E80300 		ldmia	r2, {r0, r1}
 1984 0010 1860     		str	r0, [r3]
 1985 0012 0433     		adds	r3, r3, #4
 1986 0014 1970     		strb	r1, [r3]
 357:.\my_camera_functions.c ****         char disp[2][20];
 358:.\my_camera_functions.c ****         for(j = 0; j < 10; j++)
 1987              		.loc 1 358 0
 1988 0016 0023     		movs	r3, #0
 1989 0018 C7F8E030 		str	r3, [r7, #224]
 1990 001c 26E0     		b	.L103
 1991              	.L106:
 359:.\my_camera_functions.c ****         {
 360:.\my_camera_functions.c ****             capture_thresh_image();
 1992              		.loc 1 360 0
 1993 001e FFF7FEFF 		bl	capture_thresh_image
 361:.\my_camera_functions.c ****             for(i = 0; i < 4; i++)
 1994              		.loc 1 361 0
 1995 0022 0023     		movs	r3, #0
 1996 0024 C7F8E430 		str	r3, [r7, #228]
 1997 0028 17E0     		b	.L104
 1998              	.L105:
 362:.\my_camera_functions.c ****             {
 363:.\my_camera_functions.c ****                 stacks[j][i] = get_blob(i,500);
 1999              		.loc 1 363 0 discriminator 2
 2000 002a D7F8E400 		ldr	r0, [r7, #228]
 2001 002e 4FF4FA71 		mov	r1, #500
 2002 0032 FFF7FEFF 		bl	get_blob
 2003 0036 0246     		mov	r2, r0
 2004 0038 D7F8E030 		ldr	r3, [r7, #224]
 2005 003c 9900     		lsls	r1, r3, #2
 2006 003e D7F8E430 		ldr	r3, [r7, #228]
 2007 0042 0B44     		add	r3, r3, r1
 2008 0044 9B00     		lsls	r3, r3, #2
 2009 0046 07F1E800 		add	r0, r7, #232
 2010 004a 0344     		add	r3, r3, r0
 2011 004c 43F8B42C 		str	r2, [r3, #-180]
 361:.\my_camera_functions.c ****             for(i = 0; i < 4; i++)
 2012              		.loc 1 361 0 discriminator 2
 2013 0050 D7F8E430 		ldr	r3, [r7, #228]
 2014 0054 0133     		adds	r3, r3, #1
 2015 0056 C7F8E430 		str	r3, [r7, #228]
 2016              	.L104:
 361:.\my_camera_functions.c ****             for(i = 0; i < 4; i++)
 2017              		.loc 1 361 0 is_stmt 0 discriminator 1
 2018 005a D7F8E430 		ldr	r3, [r7, #228]
 2019 005e 032B     		cmp	r3, #3
 2020 0060 E3DD     		ble	.L105
 358:.\my_camera_functions.c ****         for(j = 0; j < 10; j++)
 2021              		.loc 1 358 0 is_stmt 1
 2022 0062 D7F8E030 		ldr	r3, [r7, #224]
 2023 0066 0133     		adds	r3, r3, #1
 2024 0068 C7F8E030 		str	r3, [r7, #224]
 2025              	.L103:
 358:.\my_camera_functions.c ****         for(j = 0; j < 10; j++)
 2026              		.loc 1 358 0 is_stmt 0 discriminator 1
 2027 006c D7F8E030 		ldr	r3, [r7, #224]
 2028 0070 092B     		cmp	r3, #9
ARM GAS  C:\Users\xavieran\AppData\Local\Temp\ccRA778j.s 			page 44


 2029 0072 D4DD     		ble	.L106
 364:.\my_camera_functions.c ****             }
 365:.\my_camera_functions.c ****         }
 366:.\my_camera_functions.c ****         for(i = 0; i < 4; i++)
 2030              		.loc 1 366 0 is_stmt 1
 2031 0074 0023     		movs	r3, #0
 2032 0076 C7F8E430 		str	r3, [r7, #228]
 2033 007a 6DE0     		b	.L107
 2034              	.L120:
 367:.\my_camera_functions.c ****         {
 368:.\my_camera_functions.c ****             r = 0;
 2035              		.loc 1 368 0
 2036 007c 0023     		movs	r3, #0
 2037 007e C7F8DC30 		str	r3, [r7, #220]
 369:.\my_camera_functions.c ****             g = 0; 
 2038              		.loc 1 369 0
 2039 0082 0023     		movs	r3, #0
 2040 0084 C7F8D830 		str	r3, [r7, #216]
 370:.\my_camera_functions.c ****             b = 0;
 2041              		.loc 1 370 0
 2042 0088 0023     		movs	r3, #0
 2043 008a C7F8D430 		str	r3, [r7, #212]
 371:.\my_camera_functions.c ****             for(j = 0; j < 10; j++)
 2044              		.loc 1 371 0
 2045 008e 0023     		movs	r3, #0
 2046 0090 C7F8E030 		str	r3, [r7, #224]
 2047 0094 2FE0     		b	.L108
 2048              	.L115:
 372:.\my_camera_functions.c ****             {
 373:.\my_camera_functions.c ****                 switch(stacks[j][i])
 2049              		.loc 1 373 0
 2050 0096 D7F8E030 		ldr	r3, [r7, #224]
 2051 009a 9A00     		lsls	r2, r3, #2
 2052 009c D7F8E430 		ldr	r3, [r7, #228]
 2053 00a0 1344     		add	r3, r3, r2
 2054 00a2 9B00     		lsls	r3, r3, #2
 2055 00a4 07F1E801 		add	r1, r7, #232
 2056 00a8 0B44     		add	r3, r3, r1
 2057 00aa 53F8B43C 		ldr	r3, [r3, #-180]
 2058 00ae 032B     		cmp	r3, #3
 2059 00b0 1CD8     		bhi	.L109
 2060 00b2 01A2     		adr	r2, .L111
 2061 00b4 52F823F0 		ldr	pc, [r2, r3, lsl #2]
 2062              		.p2align 2
 2063              	.L111:
 2064 00b8 ED000000 		.word	.L109+1
 2065 00bc C9000000 		.word	.L112+1
 2066 00c0 E1000000 		.word	.L113+1
 2067 00c4 D5000000 		.word	.L114+1
 2068              		.p2align 1
 2069              	.L112:
 374:.\my_camera_functions.c ****                 {
 375:.\my_camera_functions.c ****                     case NONE:
 376:.\my_camera_functions.c ****                         break;
 377:.\my_camera_functions.c ****                     case RED:
 378:.\my_camera_functions.c ****                         r++;
 2070              		.loc 1 378 0
ARM GAS  C:\Users\xavieran\AppData\Local\Temp\ccRA778j.s 			page 45


 2071 00c8 D7F8DC30 		ldr	r3, [r7, #220]
 2072 00cc 0133     		adds	r3, r3, #1
 2073 00ce C7F8DC30 		str	r3, [r7, #220]
 379:.\my_camera_functions.c ****                         break;
 2074              		.loc 1 379 0
 2075 00d2 0BE0     		b	.L109
 2076              	.L114:
 380:.\my_camera_functions.c ****                     case BLUE:
 381:.\my_camera_functions.c ****                         b++;
 2077              		.loc 1 381 0
 2078 00d4 D7F8D430 		ldr	r3, [r7, #212]
 2079 00d8 0133     		adds	r3, r3, #1
 2080 00da C7F8D430 		str	r3, [r7, #212]
 382:.\my_camera_functions.c ****                         break;
 2081              		.loc 1 382 0
 2082 00de 05E0     		b	.L109
 2083              	.L113:
 383:.\my_camera_functions.c ****                     case GREEN:
 384:.\my_camera_functions.c ****                         g++;
 2084              		.loc 1 384 0
 2085 00e0 D7F8D830 		ldr	r3, [r7, #216]
 2086 00e4 0133     		adds	r3, r3, #1
 2087 00e6 C7F8D830 		str	r3, [r7, #216]
 385:.\my_camera_functions.c ****                         break;
 2088              		.loc 1 385 0
 2089 00ea 00BF     		nop
 2090              	.L109:
 371:.\my_camera_functions.c ****             for(j = 0; j < 10; j++)
 2091              		.loc 1 371 0
 2092 00ec D7F8E030 		ldr	r3, [r7, #224]
 2093 00f0 0133     		adds	r3, r3, #1
 2094 00f2 C7F8E030 		str	r3, [r7, #224]
 2095              	.L108:
 371:.\my_camera_functions.c ****             for(j = 0; j < 10; j++)
 2096              		.loc 1 371 0 is_stmt 0 discriminator 1
 2097 00f6 D7F8E030 		ldr	r3, [r7, #224]
 2098 00fa 092B     		cmp	r3, #9
 2099 00fc CBDD     		ble	.L115
 386:.\my_camera_functions.c ****                 }
 387:.\my_camera_functions.c ****             }
 388:.\my_camera_functions.c ****             if(r > 5) {stack[i] = RED;}
 2100              		.loc 1 388 0 is_stmt 1
 2101 00fe D7F8DC30 		ldr	r3, [r7, #220]
 2102 0102 052B     		cmp	r3, #5
 2103 0104 06DD     		ble	.L116
 2104              		.loc 1 388 0 is_stmt 0 discriminator 1
 2105 0106 314B     		ldr	r3, .L121+4
 2106 0108 D7F8E420 		ldr	r2, [r7, #228]
 2107 010c 0121     		movs	r1, #1
 2108 010e 43F82210 		str	r1, [r3, r2, lsl #2]
 2109 0112 19E0     		b	.L117
 2110              	.L116:
 389:.\my_camera_functions.c ****             else if(g > 5) {stack[i] = GREEN;}
 2111              		.loc 1 389 0 is_stmt 1
 2112 0114 D7F8D830 		ldr	r3, [r7, #216]
 2113 0118 052B     		cmp	r3, #5
 2114 011a 06DD     		ble	.L118
ARM GAS  C:\Users\xavieran\AppData\Local\Temp\ccRA778j.s 			page 46


 2115              		.loc 1 389 0 is_stmt 0 discriminator 1
 2116 011c 2B4B     		ldr	r3, .L121+4
 2117 011e D7F8E420 		ldr	r2, [r7, #228]
 2118 0122 0221     		movs	r1, #2
 2119 0124 43F82210 		str	r1, [r3, r2, lsl #2]
 2120 0128 0EE0     		b	.L117
 2121              	.L118:
 390:.\my_camera_functions.c ****             else if(b > 5) {stack[i] = BLUE;}
 2122              		.loc 1 390 0 is_stmt 1
 2123 012a D7F8D430 		ldr	r3, [r7, #212]
 2124 012e 052B     		cmp	r3, #5
 2125 0130 06DD     		ble	.L119
 2126              		.loc 1 390 0 is_stmt 0 discriminator 1
 2127 0132 264B     		ldr	r3, .L121+4
 2128 0134 D7F8E420 		ldr	r2, [r7, #228]
 2129 0138 0321     		movs	r1, #3
 2130 013a 43F82210 		str	r1, [r3, r2, lsl #2]
 2131 013e 03E0     		b	.L117
 2132              	.L119:
 391:.\my_camera_functions.c ****             else LCD_PosPrintString(1,0,"Missed Instruct");
 2133              		.loc 1 391 0 is_stmt 1
 2134 0140 0120     		movs	r0, #1
 2135 0142 0021     		movs	r1, #0
 2136 0144 FFF7FEFF 		bl	LCD_Position
 2137              	.L117:
 2138              		.loc 1 391 0 is_stmt 0 discriminator 1
 2139 0148 2148     		ldr	r0, .L121+8
 2140 014a FFF7FEFF 		bl	LCD_PrintString
 366:.\my_camera_functions.c ****         for(i = 0; i < 4; i++)
 2141              		.loc 1 366 0 is_stmt 1 discriminator 1
 2142 014e D7F8E430 		ldr	r3, [r7, #228]
 2143 0152 0133     		adds	r3, r3, #1
 2144 0154 C7F8E430 		str	r3, [r7, #228]
 2145              	.L107:
 2146 0158 D7F8E430 		ldr	r3, [r7, #228]
 2147 015c 032B     		cmp	r3, #3
 2148 015e 8DDD     		ble	.L120
 392:.\my_camera_functions.c ****         }
 393:.\my_camera_functions.c ****         sprintf(disp[0],"%c %c %c %c",RGB[stack[0]],RGB[stack[1]],RGB[stack[2]],RGB[stack[3]]);
 2149              		.loc 1 393 0
 2150 0160 1A4B     		ldr	r3, .L121+4
 2151 0162 1B68     		ldr	r3, [r3]
 2152 0164 07F1E800 		add	r0, r7, #232
 2153 0168 0344     		add	r3, r3, r0
 2154 016a 13F8BC3C 		ldrb	r3, [r3, #-188]	@ zero_extendqisi2
 2155 016e 1A46     		mov	r2, r3
 2156 0170 164B     		ldr	r3, .L121+4
 2157 0172 5B68     		ldr	r3, [r3, #4]
 2158 0174 07F1E801 		add	r1, r7, #232
 2159 0178 0B44     		add	r3, r3, r1
 2160 017a 13F8BC3C 		ldrb	r3, [r3, #-188]	@ zero_extendqisi2
 2161 017e 1349     		ldr	r1, .L121+4
 2162 0180 8968     		ldr	r1, [r1, #8]
 2163 0182 07F1E800 		add	r0, r7, #232
 2164 0186 0144     		add	r1, r1, r0
 2165 0188 11F8BC1C 		ldrb	r1, [r1, #-188]	@ zero_extendqisi2
 2166 018c 0C46     		mov	r4, r1
ARM GAS  C:\Users\xavieran\AppData\Local\Temp\ccRA778j.s 			page 47


 2167 018e 0F49     		ldr	r1, .L121+4
 2168 0190 C968     		ldr	r1, [r1, #12]
 2169 0192 07F1E800 		add	r0, r7, #232
 2170 0196 0144     		add	r1, r1, r0
 2171 0198 11F8BC1C 		ldrb	r1, [r1, #-188]	@ zero_extendqisi2
 2172 019c 0846     		mov	r0, r1
 2173 019e 391D     		adds	r1, r7, #4
 2174 01a0 0094     		str	r4, [sp]
 2175 01a2 0190     		str	r0, [sp, #4]
 2176 01a4 0846     		mov	r0, r1
 2177 01a6 0B49     		ldr	r1, .L121+12
 2178 01a8 FFF7FEFF 		bl	sprintf
 394:.\my_camera_functions.c ****         LCD_ClearDisplay();
 2179              		.loc 1 394 0
 2180 01ac 0120     		movs	r0, #1
 2181 01ae FFF7FEFF 		bl	LCD_WriteControl
 395:.\my_camera_functions.c ****         LCD_PosPrintString(0,0,disp[0]);
 2182              		.loc 1 395 0
 2183 01b2 0020     		movs	r0, #0
 2184 01b4 0021     		movs	r1, #0
 2185 01b6 FFF7FEFF 		bl	LCD_Position
 2186 01ba 3B1D     		adds	r3, r7, #4
 2187 01bc 1846     		mov	r0, r3
 2188 01be FFF7FEFF 		bl	LCD_PrintString
 396:.\my_camera_functions.c ****     }
 2189              		.loc 1 396 0
 2190 01c2 EC37     		adds	r7, r7, #236
 2191 01c4 BD46     		mov	sp, r7
 2192              		@ sp needed
 2193 01c6 90BD     		pop	{r4, r7, pc}
 2194              	.L122:
 2195              		.align	2
 2196              	.L121:
 2197 01c8 88000000 		.word	.LC6
 2198 01cc 00000000 		.word	stack
 2199 01d0 90000000 		.word	.LC9
 2200 01d4 A0000000 		.word	.LC10
 2201              		.cfi_endproc
 2202              	.LFE76:
 2203              		.size	read_instructions, .-read_instructions
 2204              		.text
 2205              	.Letext0:
 2206              		.file 2 "c:\\program files (x86)\\cypress\\psoc creator\\3.2\\psoc creator\\import\\gnu\\arm\\4.8.
 2207              		.file 3 "c:\\program files (x86)\\cypress\\psoc creator\\3.2\\psoc creator\\import\\gnu\\arm\\4.8.
 2208              		.file 4 "Generated_Source\\PSoC5/cytypes.h"
 2209              		.file 5 "./blob_stats.h"
 2210              		.file 6 "Generated_Source\\PSoC5/core_cm3.h"
 2211              		.file 7 "Generated_Source\\PSoC5/Camera.h"
 2212              		.file 8 "./my_camera_functions.h"