ARM GAS  C:\Users\xavieran\AppData\Local\Temp\ccZ1Ktpu.s 			page 1


   1              		.syntax unified
   2              		.cpu cortex-m3
   3              		.fpu softvfp
   4              		.eabi_attribute 20, 1
   5              		.eabi_attribute 21, 1
   6              		.eabi_attribute 23, 3
   7              		.eabi_attribute 24, 1
   8              		.eabi_attribute 25, 1
   9              		.eabi_attribute 26, 1
  10              		.eabi_attribute 30, 6
  11              		.eabi_attribute 34, 1
  12              		.eabi_attribute 18, 4
  13              		.thumb
  14              		.file	"arm.c"
  15              		.text
  16              	.Ltext0:
  17              		.cfi_sections	.debug_frame
  18              		.comm	Camera_framebuffer,50688,4
  19              		.global	arm_levels
  20              		.data
  21              		.align	2
  22              		.type	arm_levels, %object
  23              		.size	arm_levels, 6
  24              	arm_levels:
  25 0000 31       		.byte	49
  26 0001 3A       		.byte	58
  27 0002 3F       		.byte	63
  28 0003 44       		.byte	68
  29 0004 49       		.byte	73
  30 0005 4E       		.byte	78
  31 0006 0000     		.section	.text.arm_set_level,"ax",%progbits
  32              		.align	2
  33              		.global	arm_set_level
  34              		.thumb
  35              		.thumb_func
  36              		.type	arm_set_level, %function
  37              	arm_set_level:
  38              	.LFB63:
  39              		.file 1 ".\\arm.c"
   1:.\arm.c       **** /* ========================================
   2:.\arm.c       ****  *
   3:.\arm.c       ****  * Copyright YOUR COMPANY, THE YEAR
   4:.\arm.c       ****  * All Rights Reserved
   5:.\arm.c       ****  * UNPUBLISHED, LICENSED SOFTWARE.
   6:.\arm.c       ****  *
   7:.\arm.c       ****  * CONFIDENTIAL AND PROPRIETARY INFORMATION
   8:.\arm.c       ****  * WHICH IS THE PROPERTY OF your company.
   9:.\arm.c       ****  *
  10:.\arm.c       ****  * ========================================
  11:.\arm.c       **** */
  12:.\arm.c       **** /* ========================================
  13:.\arm.c       ****  *
  14:.\arm.c       ****  * Copyright YOUR COMPANY, THE YEAR
  15:.\arm.c       ****  * All Rights Reserved
  16:.\arm.c       ****  * UNPUBLISHED, LICENSED SOFTWARE.
  17:.\arm.c       ****  *
  18:.\arm.c       ****  * CONFIDENTIAL AND PROPRIETARY INFORMATION
ARM GAS  C:\Users\xavieran\AppData\Local\Temp\ccZ1Ktpu.s 			page 2


  19:.\arm.c       ****  * WHICH IS THE PROPERTY OF your company.
  20:.\arm.c       ****  *
  21:.\arm.c       ****  * ========================================
  22:.\arm.c       **** */
  23:.\arm.c       **** 
  24:.\arm.c       **** /* [] END OF FILE */
  25:.\arm.c       **** 
  26:.\arm.c       **** #include <project.h>
  27:.\arm.c       **** #include <stdio.h>
  28:.\arm.c       **** 
  29:.\arm.c       **** /* ***** ARM IS THE BLUE CABLE ******/
  30:.\arm.c       **** 
  31:.\arm.c       **** /* SERVO CONSTANTS */
  32:.\arm.c       **** #define PERIOD 799
  33:.\arm.c       **** /* EXTRA CONSTANTS */
  34:.\arm.c       **** #define PAUSE 50
  35:.\arm.c       ****  
  36:.\arm.c       **** //uint8 arm_levels[6] = {22, 30, 35, 40, 45, 50};
  37:.\arm.c       **** uint8 arm_levels[6] = {49, 58, 63, 68, 73, 78};
  38:.\arm.c       **** 
  39:.\arm.c       **** void arm_set_level(int level){
  40              		.loc 1 39 0
  41              		.cfi_startproc
  42              		@ args = 0, pretend = 0, frame = 8
  43              		@ frame_needed = 1, uses_anonymous_args = 0
  44 0000 80B5     		push	{r7, lr}
  45              		.cfi_def_cfa_offset 8
  46              		.cfi_offset 7, -8
  47              		.cfi_offset 14, -4
  48 0002 82B0     		sub	sp, sp, #8
  49              		.cfi_def_cfa_offset 16
  50 0004 00AF     		add	r7, sp, #0
  51              		.cfi_def_cfa_register 7
  52 0006 7860     		str	r0, [r7, #4]
  40:.\arm.c       ****     Arm_PWM_WriteCompare(arm_levels[level]);
  53              		.loc 1 40 0
  54 0008 044A     		ldr	r2, .L2
  55 000a 7B68     		ldr	r3, [r7, #4]
  56 000c 1344     		add	r3, r3, r2
  57 000e 1B78     		ldrb	r3, [r3]	@ zero_extendqisi2
  58 0010 1846     		mov	r0, r3
  59 0012 FFF7FEFF 		bl	Arm_PWM_WriteCompare
  41:.\arm.c       **** }
  60              		.loc 1 41 0
  61 0016 0837     		adds	r7, r7, #8
  62 0018 BD46     		mov	sp, r7
  63              		@ sp needed
  64 001a 80BD     		pop	{r7, pc}
  65              	.L3:
  66              		.align	2
  67              	.L2:
  68 001c 00000000 		.word	arm_levels
  69              		.cfi_endproc
  70              	.LFE63:
  71              		.size	arm_set_level, .-arm_set_level
  72              		.section	.text.arm_inbetween_level,"ax",%progbits
  73              		.align	2
ARM GAS  C:\Users\xavieran\AppData\Local\Temp\ccZ1Ktpu.s 			page 3


  74              		.global	arm_inbetween_level
  75              		.thumb
  76              		.thumb_func
  77              		.type	arm_inbetween_level, %function
  78              	arm_inbetween_level:
  79              	.LFB64:
  42:.\arm.c       **** 
  43:.\arm.c       **** void arm_inbetween_level(int l1, int l2){
  80              		.loc 1 43 0
  81              		.cfi_startproc
  82              		@ args = 0, pretend = 0, frame = 8
  83              		@ frame_needed = 1, uses_anonymous_args = 0
  84 0000 80B5     		push	{r7, lr}
  85              		.cfi_def_cfa_offset 8
  86              		.cfi_offset 7, -8
  87              		.cfi_offset 14, -4
  88 0002 82B0     		sub	sp, sp, #8
  89              		.cfi_def_cfa_offset 16
  90 0004 00AF     		add	r7, sp, #0
  91              		.cfi_def_cfa_register 7
  92 0006 7860     		str	r0, [r7, #4]
  93 0008 3960     		str	r1, [r7]
  44:.\arm.c       ****     Arm_PWM_WriteCompare((arm_levels[l1] + arm_levels[l2])/2);
  94              		.loc 1 44 0
  95 000a 0A4A     		ldr	r2, .L5
  96 000c 7B68     		ldr	r3, [r7, #4]
  97 000e 1344     		add	r3, r3, r2
  98 0010 1B78     		ldrb	r3, [r3]	@ zero_extendqisi2
  99 0012 1A46     		mov	r2, r3
 100 0014 0749     		ldr	r1, .L5
 101 0016 3B68     		ldr	r3, [r7]
 102 0018 0B44     		add	r3, r3, r1
 103 001a 1B78     		ldrb	r3, [r3]	@ zero_extendqisi2
 104 001c 1344     		add	r3, r3, r2
 105 001e DA0F     		lsrs	r2, r3, #31
 106 0020 1344     		add	r3, r3, r2
 107 0022 5B10     		asrs	r3, r3, #1
 108 0024 9BB2     		uxth	r3, r3
 109 0026 1846     		mov	r0, r3
 110 0028 FFF7FEFF 		bl	Arm_PWM_WriteCompare
  45:.\arm.c       **** }
 111              		.loc 1 45 0
 112 002c 0837     		adds	r7, r7, #8
 113 002e BD46     		mov	sp, r7
 114              		@ sp needed
 115 0030 80BD     		pop	{r7, pc}
 116              	.L6:
 117 0032 00BF     		.align	2
 118              	.L5:
 119 0034 00000000 		.word	arm_levels
 120              		.cfi_endproc
 121              	.LFE64:
 122              		.size	arm_inbetween_level, .-arm_inbetween_level
 123              		.section	.text.arm_carry_home,"ax",%progbits
 124              		.align	2
 125              		.global	arm_carry_home
 126              		.thumb
ARM GAS  C:\Users\xavieran\AppData\Local\Temp\ccZ1Ktpu.s 			page 4


 127              		.thumb_func
 128              		.type	arm_carry_home, %function
 129              	arm_carry_home:
 130              	.LFB65:
  46:.\arm.c       **** 
  47:.\arm.c       **** void arm_carry_home(){
 131              		.loc 1 47 0
 132              		.cfi_startproc
 133              		@ args = 0, pretend = 0, frame = 0
 134              		@ frame_needed = 1, uses_anonymous_args = 0
 135 0000 80B5     		push	{r7, lr}
 136              		.cfi_def_cfa_offset 8
 137              		.cfi_offset 7, -8
 138              		.cfi_offset 14, -4
 139 0002 00AF     		add	r7, sp, #0
 140              		.cfi_def_cfa_register 7
  48:.\arm.c       ****     Arm_PWM_WriteCompare((arm_levels[0] + arm_levels[1])/2);
 141              		.loc 1 48 0
 142 0004 064B     		ldr	r3, .L8
 143 0006 1B78     		ldrb	r3, [r3]	@ zero_extendqisi2
 144 0008 1A46     		mov	r2, r3
 145 000a 054B     		ldr	r3, .L8
 146 000c 5B78     		ldrb	r3, [r3, #1]	@ zero_extendqisi2
 147 000e 1344     		add	r3, r3, r2
 148 0010 DA0F     		lsrs	r2, r3, #31
 149 0012 1344     		add	r3, r3, r2
 150 0014 5B10     		asrs	r3, r3, #1
 151 0016 9BB2     		uxth	r3, r3
 152 0018 1846     		mov	r0, r3
 153 001a FFF7FEFF 		bl	Arm_PWM_WriteCompare
  49:.\arm.c       **** }
 154              		.loc 1 49 0
 155 001e 80BD     		pop	{r7, pc}
 156              	.L9:
 157              		.align	2
 158              	.L8:
 159 0020 00000000 		.word	arm_levels
 160              		.cfi_endproc
 161              	.LFE65:
 162              		.size	arm_carry_home, .-arm_carry_home
 163              		.section	.text.start_arm,"ax",%progbits
 164              		.align	2
 165              		.global	start_arm
 166              		.thumb
 167              		.thumb_func
 168              		.type	start_arm, %function
 169              	start_arm:
 170              	.LFB66:
  50:.\arm.c       **** 
  51:.\arm.c       **** void start_arm(){
 171              		.loc 1 51 0
 172              		.cfi_startproc
 173              		@ args = 0, pretend = 0, frame = 0
 174              		@ frame_needed = 1, uses_anonymous_args = 0
 175 0000 80B5     		push	{r7, lr}
 176              		.cfi_def_cfa_offset 8
 177              		.cfi_offset 7, -8
ARM GAS  C:\Users\xavieran\AppData\Local\Temp\ccZ1Ktpu.s 			page 5


 178              		.cfi_offset 14, -4
 179 0002 00AF     		add	r7, sp, #0
 180              		.cfi_def_cfa_register 7
  52:.\arm.c       ****     int i;
  53:.\arm.c       ****     /* Initialize the motor controller */
  54:.\arm.c       ****     Arm_PWM_Start();
 181              		.loc 1 54 0
 182 0004 FFF7FEFF 		bl	Arm_PWM_Start
  55:.\arm.c       ****     arm_set_level(0);
 183              		.loc 1 55 0
 184 0008 0020     		movs	r0, #0
 185 000a FFF7FEFF 		bl	arm_set_level
  56:.\arm.c       **** }
 186              		.loc 1 56 0
 187 000e 80BD     		pop	{r7, pc}
 188              		.cfi_endproc
 189              	.LFE66:
 190              		.size	start_arm, .-start_arm
 191              		.text
 192              	.Letext0:
 193              		.file 2 "c:\\program files (x86)\\cypress\\psoc creator\\3.2\\psoc creator\\import\\gnu\\arm\\4.8.
 194              		.file 3 "c:\\program files (x86)\\cypress\\psoc creator\\3.2\\psoc creator\\import\\gnu\\arm\\4.8.
 195              		.file 4 "Generated_Source\\PSoC5/cytypes.h"
 196              		.file 5 "Generated_Source\\PSoC5/core_cm3.h"
 197              		.file 6 "Generated_Source\\PSoC5/Camera.h"