ARM GAS  C:\Users\xavieran\AppData\Local\Temp\cc46c4Ur.s 			page 1


   1              		.syntax unified
   2              		.cpu cortex-m3
   3              		.fpu softvfp
   4              		.eabi_attribute 20, 1
   5              		.eabi_attribute 21, 1
   6              		.eabi_attribute 23, 3
   7              		.eabi_attribute 24, 1
   8              		.eabi_attribute 25, 1
   9              		.eabi_attribute 26, 1
  10              		.eabi_attribute 30, 6
  11              		.eabi_attribute 34, 1
  12              		.eabi_attribute 18, 4
  13              		.thumb
  14              		.file	"Arm_PWM.c"
  15              		.text
  16              	.Ltext0:
  17              		.cfi_sections	.debug_frame
  18              		.global	Arm_PWM_initVar
  19              		.bss
  20              		.type	Arm_PWM_initVar, %object
  21              		.size	Arm_PWM_initVar, 1
  22              	Arm_PWM_initVar:
  23 0000 00       		.space	1
  24              		.section	.text.Arm_PWM_Start,"ax",%progbits
  25              		.align	2
  26              		.global	Arm_PWM_Start
  27              		.thumb
  28              		.thumb_func
  29              		.type	Arm_PWM_Start, %function
  30              	Arm_PWM_Start:
  31              	.LFB0:
  32              		.file 1 ".\\Generated_Source\\PSoC5\\Arm_PWM.c"
   1:.\Generated_Source\PSoC5/Arm_PWM.c **** /*******************************************************************************
   2:.\Generated_Source\PSoC5/Arm_PWM.c **** * File Name: Arm_PWM.c
   3:.\Generated_Source\PSoC5/Arm_PWM.c **** * Version 3.30
   4:.\Generated_Source\PSoC5/Arm_PWM.c **** *
   5:.\Generated_Source\PSoC5/Arm_PWM.c **** * Description:
   6:.\Generated_Source\PSoC5/Arm_PWM.c **** *  The PWM User Module consist of an 8 or 16-bit counter with two 8 or 16-bit
   7:.\Generated_Source\PSoC5/Arm_PWM.c **** *  comparitors. Each instance of this user module is capable of generating
   8:.\Generated_Source\PSoC5/Arm_PWM.c **** *  two PWM outputs with the same period. The pulse width is selectable between
   9:.\Generated_Source\PSoC5/Arm_PWM.c **** *  1 and 255/65535. The period is selectable between 2 and 255/65536 clocks.
  10:.\Generated_Source\PSoC5/Arm_PWM.c **** *  The compare value output may be configured to be active when the present
  11:.\Generated_Source\PSoC5/Arm_PWM.c **** *  counter is less than or less than/equal to the compare value.
  12:.\Generated_Source\PSoC5/Arm_PWM.c **** *  A terminal count output is also provided. It generates a pulse one clock
  13:.\Generated_Source\PSoC5/Arm_PWM.c **** *  width wide when the counter is equal to zero.
  14:.\Generated_Source\PSoC5/Arm_PWM.c **** *
  15:.\Generated_Source\PSoC5/Arm_PWM.c **** * Note:
  16:.\Generated_Source\PSoC5/Arm_PWM.c **** *
  17:.\Generated_Source\PSoC5/Arm_PWM.c **** *******************************************************************************
  18:.\Generated_Source\PSoC5/Arm_PWM.c **** * Copyright 2008-2014, Cypress Semiconductor Corporation.  All rights reserved.
  19:.\Generated_Source\PSoC5/Arm_PWM.c **** * You may use this file only in accordance with the license, terms, conditions,
  20:.\Generated_Source\PSoC5/Arm_PWM.c **** * disclaimers, and limitations in the end user license agreement accompanying
  21:.\Generated_Source\PSoC5/Arm_PWM.c **** * the software package with which this file was provided.
  22:.\Generated_Source\PSoC5/Arm_PWM.c **** ********************************************************************************/
  23:.\Generated_Source\PSoC5/Arm_PWM.c **** 
  24:.\Generated_Source\PSoC5/Arm_PWM.c **** #include "Arm_PWM.h"
  25:.\Generated_Source\PSoC5/Arm_PWM.c **** 
ARM GAS  C:\Users\xavieran\AppData\Local\Temp\cc46c4Ur.s 			page 2


  26:.\Generated_Source\PSoC5/Arm_PWM.c **** /* Error message for removed <resource> through optimization */
  27:.\Generated_Source\PSoC5/Arm_PWM.c **** #ifdef Arm_PWM_PWMUDB_genblk1_ctrlreg__REMOVED
  28:.\Generated_Source\PSoC5/Arm_PWM.c ****     #error PWM_v3_30 detected with a constant 0 for the enable or \
  29:.\Generated_Source\PSoC5/Arm_PWM.c ****          constant 1 for reset. This will prevent the component from operating.
  30:.\Generated_Source\PSoC5/Arm_PWM.c **** #endif /* Arm_PWM_PWMUDB_genblk1_ctrlreg__REMOVED */
  31:.\Generated_Source\PSoC5/Arm_PWM.c **** 
  32:.\Generated_Source\PSoC5/Arm_PWM.c **** uint8 Arm_PWM_initVar = 0u;
  33:.\Generated_Source\PSoC5/Arm_PWM.c **** 
  34:.\Generated_Source\PSoC5/Arm_PWM.c **** 
  35:.\Generated_Source\PSoC5/Arm_PWM.c **** /*******************************************************************************
  36:.\Generated_Source\PSoC5/Arm_PWM.c **** * Function Name: Arm_PWM_Start
  37:.\Generated_Source\PSoC5/Arm_PWM.c **** ********************************************************************************
  38:.\Generated_Source\PSoC5/Arm_PWM.c **** *
  39:.\Generated_Source\PSoC5/Arm_PWM.c **** * Summary:
  40:.\Generated_Source\PSoC5/Arm_PWM.c **** *  The start function initializes the pwm with the default values, the
  41:.\Generated_Source\PSoC5/Arm_PWM.c **** *  enables the counter to begin counting.  It does not enable interrupts,
  42:.\Generated_Source\PSoC5/Arm_PWM.c **** *  the EnableInt command should be called if interrupt generation is required.
  43:.\Generated_Source\PSoC5/Arm_PWM.c **** *
  44:.\Generated_Source\PSoC5/Arm_PWM.c **** * Parameters:
  45:.\Generated_Source\PSoC5/Arm_PWM.c **** *  None
  46:.\Generated_Source\PSoC5/Arm_PWM.c **** *
  47:.\Generated_Source\PSoC5/Arm_PWM.c **** * Return:
  48:.\Generated_Source\PSoC5/Arm_PWM.c **** *  None
  49:.\Generated_Source\PSoC5/Arm_PWM.c **** *
  50:.\Generated_Source\PSoC5/Arm_PWM.c **** * Global variables:
  51:.\Generated_Source\PSoC5/Arm_PWM.c **** *  Arm_PWM_initVar: Is modified when this function is called for the
  52:.\Generated_Source\PSoC5/Arm_PWM.c **** *   first time. Is used to ensure that initialization happens only once.
  53:.\Generated_Source\PSoC5/Arm_PWM.c **** *
  54:.\Generated_Source\PSoC5/Arm_PWM.c **** *******************************************************************************/
  55:.\Generated_Source\PSoC5/Arm_PWM.c **** void Arm_PWM_Start(void) 
  56:.\Generated_Source\PSoC5/Arm_PWM.c **** {
  33              		.loc 1 56 0
  34              		.cfi_startproc
  35              		@ args = 0, pretend = 0, frame = 0
  36              		@ frame_needed = 1, uses_anonymous_args = 0
  37 0000 80B5     		push	{r7, lr}
  38              		.cfi_def_cfa_offset 8
  39              		.cfi_offset 7, -8
  40              		.cfi_offset 14, -4
  41 0002 00AF     		add	r7, sp, #0
  42              		.cfi_def_cfa_register 7
  57:.\Generated_Source\PSoC5/Arm_PWM.c ****     /* If not Initialized then initialize all required hardware and software */
  58:.\Generated_Source\PSoC5/Arm_PWM.c ****     if(Arm_PWM_initVar == 0u)
  43              		.loc 1 58 0
  44 0004 054B     		ldr	r3, .L3
  45 0006 1B78     		ldrb	r3, [r3]	@ zero_extendqisi2
  46 0008 002B     		cmp	r3, #0
  47 000a 04D1     		bne	.L2
  59:.\Generated_Source\PSoC5/Arm_PWM.c ****     {
  60:.\Generated_Source\PSoC5/Arm_PWM.c ****         Arm_PWM_Init();
  48              		.loc 1 60 0
  49 000c FFF7FEFF 		bl	Arm_PWM_Init
  61:.\Generated_Source\PSoC5/Arm_PWM.c ****         Arm_PWM_initVar = 1u;
  50              		.loc 1 61 0
  51 0010 024B     		ldr	r3, .L3
  52 0012 0122     		movs	r2, #1
  53 0014 1A70     		strb	r2, [r3]
ARM GAS  C:\Users\xavieran\AppData\Local\Temp\cc46c4Ur.s 			page 3


  54              	.L2:
  62:.\Generated_Source\PSoC5/Arm_PWM.c ****     }
  63:.\Generated_Source\PSoC5/Arm_PWM.c ****     Arm_PWM_Enable();
  55              		.loc 1 63 0
  56 0016 FFF7FEFF 		bl	Arm_PWM_Enable
  64:.\Generated_Source\PSoC5/Arm_PWM.c **** 
  65:.\Generated_Source\PSoC5/Arm_PWM.c **** }
  57              		.loc 1 65 0
  58 001a 80BD     		pop	{r7, pc}
  59              	.L4:
  60              		.align	2
  61              	.L3:
  62 001c 00000000 		.word	Arm_PWM_initVar
  63              		.cfi_endproc
  64              	.LFE0:
  65              		.size	Arm_PWM_Start, .-Arm_PWM_Start
  66              		.section	.text.Arm_PWM_Init,"ax",%progbits
  67              		.align	2
  68              		.global	Arm_PWM_Init
  69              		.thumb
  70              		.thumb_func
  71              		.type	Arm_PWM_Init, %function
  72              	Arm_PWM_Init:
  73              	.LFB1:
  66:.\Generated_Source\PSoC5/Arm_PWM.c **** 
  67:.\Generated_Source\PSoC5/Arm_PWM.c **** 
  68:.\Generated_Source\PSoC5/Arm_PWM.c **** /*******************************************************************************
  69:.\Generated_Source\PSoC5/Arm_PWM.c **** * Function Name: Arm_PWM_Init
  70:.\Generated_Source\PSoC5/Arm_PWM.c **** ********************************************************************************
  71:.\Generated_Source\PSoC5/Arm_PWM.c **** *
  72:.\Generated_Source\PSoC5/Arm_PWM.c **** * Summary:
  73:.\Generated_Source\PSoC5/Arm_PWM.c **** *  Initialize component's parameters to the parameters set by user in the
  74:.\Generated_Source\PSoC5/Arm_PWM.c **** *  customizer of the component placed onto schematic. Usually called in
  75:.\Generated_Source\PSoC5/Arm_PWM.c **** *  Arm_PWM_Start().
  76:.\Generated_Source\PSoC5/Arm_PWM.c **** *
  77:.\Generated_Source\PSoC5/Arm_PWM.c **** * Parameters:
  78:.\Generated_Source\PSoC5/Arm_PWM.c **** *  None
  79:.\Generated_Source\PSoC5/Arm_PWM.c **** *
  80:.\Generated_Source\PSoC5/Arm_PWM.c **** * Return:
  81:.\Generated_Source\PSoC5/Arm_PWM.c **** *  None
  82:.\Generated_Source\PSoC5/Arm_PWM.c **** *
  83:.\Generated_Source\PSoC5/Arm_PWM.c **** *******************************************************************************/
  84:.\Generated_Source\PSoC5/Arm_PWM.c **** void Arm_PWM_Init(void) 
  85:.\Generated_Source\PSoC5/Arm_PWM.c **** {
  74              		.loc 1 85 0
  75              		.cfi_startproc
  76              		@ args = 0, pretend = 0, frame = 8
  77              		@ frame_needed = 1, uses_anonymous_args = 0
  78 0000 80B5     		push	{r7, lr}
  79              		.cfi_def_cfa_offset 8
  80              		.cfi_offset 7, -8
  81              		.cfi_offset 14, -4
  82 0002 82B0     		sub	sp, sp, #8
  83              		.cfi_def_cfa_offset 16
  84 0004 00AF     		add	r7, sp, #0
  85              		.cfi_def_cfa_register 7
  86:.\Generated_Source\PSoC5/Arm_PWM.c ****     #if (Arm_PWM_UsingFixedFunction || Arm_PWM_UseControl)
ARM GAS  C:\Users\xavieran\AppData\Local\Temp\cc46c4Ur.s 			page 4


  87:.\Generated_Source\PSoC5/Arm_PWM.c ****         uint8 ctrl;
  88:.\Generated_Source\PSoC5/Arm_PWM.c ****     #endif /* (Arm_PWM_UsingFixedFunction || Arm_PWM_UseControl) */
  89:.\Generated_Source\PSoC5/Arm_PWM.c **** 
  90:.\Generated_Source\PSoC5/Arm_PWM.c ****     #if(!Arm_PWM_UsingFixedFunction)
  91:.\Generated_Source\PSoC5/Arm_PWM.c ****         #if(Arm_PWM_UseStatus)
  92:.\Generated_Source\PSoC5/Arm_PWM.c ****             /* Interrupt State Backup for Critical Region*/
  93:.\Generated_Source\PSoC5/Arm_PWM.c ****             uint8 Arm_PWM_interruptState;
  94:.\Generated_Source\PSoC5/Arm_PWM.c ****         #endif /* (Arm_PWM_UseStatus) */
  95:.\Generated_Source\PSoC5/Arm_PWM.c ****     #endif /* (!Arm_PWM_UsingFixedFunction) */
  96:.\Generated_Source\PSoC5/Arm_PWM.c **** 
  97:.\Generated_Source\PSoC5/Arm_PWM.c ****     #if (Arm_PWM_UsingFixedFunction)
  98:.\Generated_Source\PSoC5/Arm_PWM.c ****         /* You are allowed to write the compare value (FF only) */
  99:.\Generated_Source\PSoC5/Arm_PWM.c ****         Arm_PWM_CONTROL |= Arm_PWM_CFG0_MODE;
 100:.\Generated_Source\PSoC5/Arm_PWM.c ****         #if (Arm_PWM_DeadBand2_4)
 101:.\Generated_Source\PSoC5/Arm_PWM.c ****             Arm_PWM_CONTROL |= Arm_PWM_CFG0_DB;
 102:.\Generated_Source\PSoC5/Arm_PWM.c ****         #endif /* (Arm_PWM_DeadBand2_4) */
 103:.\Generated_Source\PSoC5/Arm_PWM.c **** 
 104:.\Generated_Source\PSoC5/Arm_PWM.c ****         ctrl = Arm_PWM_CONTROL3 & ((uint8 )(~Arm_PWM_CTRL_CMPMODE1_MASK));
 105:.\Generated_Source\PSoC5/Arm_PWM.c ****         Arm_PWM_CONTROL3 = ctrl | Arm_PWM_DEFAULT_COMPARE1_MODE;
 106:.\Generated_Source\PSoC5/Arm_PWM.c **** 
 107:.\Generated_Source\PSoC5/Arm_PWM.c ****          /* Clear and Set SYNCTC and SYNCCMP bits of RT1 register */
 108:.\Generated_Source\PSoC5/Arm_PWM.c ****         Arm_PWM_RT1 &= ((uint8)(~Arm_PWM_RT1_MASK));
 109:.\Generated_Source\PSoC5/Arm_PWM.c ****         Arm_PWM_RT1 |= Arm_PWM_SYNC;
 110:.\Generated_Source\PSoC5/Arm_PWM.c **** 
 111:.\Generated_Source\PSoC5/Arm_PWM.c ****         /*Enable DSI Sync all all inputs of the PWM*/
 112:.\Generated_Source\PSoC5/Arm_PWM.c ****         Arm_PWM_RT1 &= ((uint8)(~Arm_PWM_SYNCDSI_MASK));
 113:.\Generated_Source\PSoC5/Arm_PWM.c ****         Arm_PWM_RT1 |= Arm_PWM_SYNCDSI_EN;
 114:.\Generated_Source\PSoC5/Arm_PWM.c **** 
 115:.\Generated_Source\PSoC5/Arm_PWM.c ****     #elif (Arm_PWM_UseControl)
 116:.\Generated_Source\PSoC5/Arm_PWM.c ****         /* Set the default compare mode defined in the parameter */
 117:.\Generated_Source\PSoC5/Arm_PWM.c ****         ctrl = Arm_PWM_CONTROL & ((uint8)(~Arm_PWM_CTRL_CMPMODE2_MASK)) &
  86              		.loc 1 117 0
  87 0006 1F4B     		ldr	r3, .L6
  88 0008 1B78     		ldrb	r3, [r3]
  89 000a DBB2     		uxtb	r3, r3
  90 000c 23F03F03 		bic	r3, r3, #63
  91 0010 FB71     		strb	r3, [r7, #7]
 118:.\Generated_Source\PSoC5/Arm_PWM.c ****                 ((uint8)(~Arm_PWM_CTRL_CMPMODE1_MASK));
 119:.\Generated_Source\PSoC5/Arm_PWM.c ****         Arm_PWM_CONTROL = ctrl | Arm_PWM_DEFAULT_COMPARE2_MODE |
  92              		.loc 1 119 0
  93 0012 1C4B     		ldr	r3, .L6
  94 0014 FA79     		ldrb	r2, [r7, #7]
  95 0016 42F00902 		orr	r2, r2, #9
  96 001a D2B2     		uxtb	r2, r2
  97 001c 1A70     		strb	r2, [r3]
 120:.\Generated_Source\PSoC5/Arm_PWM.c ****                                    Arm_PWM_DEFAULT_COMPARE1_MODE;
 121:.\Generated_Source\PSoC5/Arm_PWM.c ****     #endif /* (Arm_PWM_UsingFixedFunction) */
 122:.\Generated_Source\PSoC5/Arm_PWM.c **** 
 123:.\Generated_Source\PSoC5/Arm_PWM.c ****     #if (!Arm_PWM_UsingFixedFunction)
 124:.\Generated_Source\PSoC5/Arm_PWM.c ****         #if (Arm_PWM_Resolution == 8)
 125:.\Generated_Source\PSoC5/Arm_PWM.c ****             /* Set FIFO 0 to 1 byte register for period*/
 126:.\Generated_Source\PSoC5/Arm_PWM.c ****             Arm_PWM_AUX_CONTROLDP0 |= (Arm_PWM_AUX_CTRL_FIFO0_CLR);
 127:.\Generated_Source\PSoC5/Arm_PWM.c ****         #else /* (Arm_PWM_Resolution == 16)*/
 128:.\Generated_Source\PSoC5/Arm_PWM.c ****             /* Set FIFO 0 to 1 byte register for period */
 129:.\Generated_Source\PSoC5/Arm_PWM.c ****             Arm_PWM_AUX_CONTROLDP0 |= (Arm_PWM_AUX_CTRL_FIFO0_CLR);
  98              		.loc 1 129 0
  99 001e 1A4B     		ldr	r3, .L6+4
ARM GAS  C:\Users\xavieran\AppData\Local\Temp\cc46c4Ur.s 			page 5


 100 0020 194A     		ldr	r2, .L6+4
 101 0022 1278     		ldrb	r2, [r2]
 102 0024 D2B2     		uxtb	r2, r2
 103 0026 42F00102 		orr	r2, r2, #1
 104 002a D2B2     		uxtb	r2, r2
 105 002c 1A70     		strb	r2, [r3]
 130:.\Generated_Source\PSoC5/Arm_PWM.c ****             Arm_PWM_AUX_CONTROLDP1 |= (Arm_PWM_AUX_CTRL_FIFO0_CLR);
 106              		.loc 1 130 0
 107 002e 174B     		ldr	r3, .L6+8
 108 0030 164A     		ldr	r2, .L6+8
 109 0032 1278     		ldrb	r2, [r2]
 110 0034 D2B2     		uxtb	r2, r2
 111 0036 42F00102 		orr	r2, r2, #1
 112 003a D2B2     		uxtb	r2, r2
 113 003c 1A70     		strb	r2, [r3]
 131:.\Generated_Source\PSoC5/Arm_PWM.c ****         #endif /* (Arm_PWM_Resolution == 8) */
 132:.\Generated_Source\PSoC5/Arm_PWM.c **** 
 133:.\Generated_Source\PSoC5/Arm_PWM.c ****         Arm_PWM_WriteCounter(Arm_PWM_INIT_PERIOD_VALUE);
 114              		.loc 1 133 0
 115 003e 40F21F30 		movw	r0, #799
 116 0042 FFF7FEFF 		bl	Arm_PWM_WriteCounter
 134:.\Generated_Source\PSoC5/Arm_PWM.c ****     #endif /* (!Arm_PWM_UsingFixedFunction) */
 135:.\Generated_Source\PSoC5/Arm_PWM.c **** 
 136:.\Generated_Source\PSoC5/Arm_PWM.c ****     Arm_PWM_WritePeriod(Arm_PWM_INIT_PERIOD_VALUE);
 117              		.loc 1 136 0
 118 0046 40F21F30 		movw	r0, #799
 119 004a FFF7FEFF 		bl	Arm_PWM_WritePeriod
 137:.\Generated_Source\PSoC5/Arm_PWM.c **** 
 138:.\Generated_Source\PSoC5/Arm_PWM.c ****         #if (Arm_PWM_UseOneCompareMode)
 139:.\Generated_Source\PSoC5/Arm_PWM.c ****             Arm_PWM_WriteCompare(Arm_PWM_INIT_COMPARE_VALUE1);
 120              		.loc 1 139 0
 121 004e 3220     		movs	r0, #50
 122 0050 FFF7FEFF 		bl	Arm_PWM_WriteCompare
 140:.\Generated_Source\PSoC5/Arm_PWM.c ****         #else
 141:.\Generated_Source\PSoC5/Arm_PWM.c ****             Arm_PWM_WriteCompare1(Arm_PWM_INIT_COMPARE_VALUE1);
 142:.\Generated_Source\PSoC5/Arm_PWM.c ****             Arm_PWM_WriteCompare2(Arm_PWM_INIT_COMPARE_VALUE2);
 143:.\Generated_Source\PSoC5/Arm_PWM.c ****         #endif /* (Arm_PWM_UseOneCompareMode) */
 144:.\Generated_Source\PSoC5/Arm_PWM.c **** 
 145:.\Generated_Source\PSoC5/Arm_PWM.c ****         #if (Arm_PWM_KillModeMinTime)
 146:.\Generated_Source\PSoC5/Arm_PWM.c ****             Arm_PWM_WriteKillTime(Arm_PWM_MinimumKillTime);
 147:.\Generated_Source\PSoC5/Arm_PWM.c ****         #endif /* (Arm_PWM_KillModeMinTime) */
 148:.\Generated_Source\PSoC5/Arm_PWM.c **** 
 149:.\Generated_Source\PSoC5/Arm_PWM.c ****         #if (Arm_PWM_DeadBandUsed)
 150:.\Generated_Source\PSoC5/Arm_PWM.c ****             Arm_PWM_WriteDeadTime(Arm_PWM_INIT_DEAD_TIME);
 151:.\Generated_Source\PSoC5/Arm_PWM.c ****         #endif /* (Arm_PWM_DeadBandUsed) */
 152:.\Generated_Source\PSoC5/Arm_PWM.c **** 
 153:.\Generated_Source\PSoC5/Arm_PWM.c ****     #if (Arm_PWM_UseStatus || Arm_PWM_UsingFixedFunction)
 154:.\Generated_Source\PSoC5/Arm_PWM.c ****         Arm_PWM_SetInterruptMode(Arm_PWM_INIT_INTERRUPTS_MODE);
 123              		.loc 1 154 0
 124 0054 0020     		movs	r0, #0
 125 0056 FFF7FEFF 		bl	Arm_PWM_SetInterruptMode
 155:.\Generated_Source\PSoC5/Arm_PWM.c ****     #endif /* (Arm_PWM_UseStatus || Arm_PWM_UsingFixedFunction) */
 156:.\Generated_Source\PSoC5/Arm_PWM.c **** 
 157:.\Generated_Source\PSoC5/Arm_PWM.c ****     #if (Arm_PWM_UsingFixedFunction)
 158:.\Generated_Source\PSoC5/Arm_PWM.c ****         /* Globally Enable the Fixed Function Block chosen */
 159:.\Generated_Source\PSoC5/Arm_PWM.c ****         Arm_PWM_GLOBAL_ENABLE |= Arm_PWM_BLOCK_EN_MASK;
 160:.\Generated_Source\PSoC5/Arm_PWM.c ****         /* Set the Interrupt source to come from the status register */
ARM GAS  C:\Users\xavieran\AppData\Local\Temp\cc46c4Ur.s 			page 6


 161:.\Generated_Source\PSoC5/Arm_PWM.c ****         Arm_PWM_CONTROL2 |= Arm_PWM_CTRL2_IRQ_SEL;
 162:.\Generated_Source\PSoC5/Arm_PWM.c ****     #else
 163:.\Generated_Source\PSoC5/Arm_PWM.c ****         #if(Arm_PWM_UseStatus)
 164:.\Generated_Source\PSoC5/Arm_PWM.c **** 
 165:.\Generated_Source\PSoC5/Arm_PWM.c ****             /* CyEnterCriticalRegion and CyExitCriticalRegion are used to mark following region cri
 166:.\Generated_Source\PSoC5/Arm_PWM.c ****             /* Enter Critical Region*/
 167:.\Generated_Source\PSoC5/Arm_PWM.c ****             Arm_PWM_interruptState = CyEnterCriticalSection();
 126              		.loc 1 167 0
 127 005a FFF7FEFF 		bl	CyEnterCriticalSection
 128 005e 0346     		mov	r3, r0
 129 0060 BB71     		strb	r3, [r7, #6]
 168:.\Generated_Source\PSoC5/Arm_PWM.c ****             /* Use the interrupt output of the status register for IRQ output */
 169:.\Generated_Source\PSoC5/Arm_PWM.c ****             Arm_PWM_STATUS_AUX_CTRL |= Arm_PWM_STATUS_ACTL_INT_EN_MASK;
 130              		.loc 1 169 0
 131 0062 0B4B     		ldr	r3, .L6+12
 132 0064 0A4A     		ldr	r2, .L6+12
 133 0066 1278     		ldrb	r2, [r2]
 134 0068 D2B2     		uxtb	r2, r2
 135 006a 42F01002 		orr	r2, r2, #16
 136 006e D2B2     		uxtb	r2, r2
 137 0070 1A70     		strb	r2, [r3]
 170:.\Generated_Source\PSoC5/Arm_PWM.c **** 
 171:.\Generated_Source\PSoC5/Arm_PWM.c ****              /* Exit Critical Region*/
 172:.\Generated_Source\PSoC5/Arm_PWM.c ****             CyExitCriticalSection(Arm_PWM_interruptState);
 138              		.loc 1 172 0
 139 0072 BB79     		ldrb	r3, [r7, #6]	@ zero_extendqisi2
 140 0074 1846     		mov	r0, r3
 141 0076 FFF7FEFF 		bl	CyExitCriticalSection
 173:.\Generated_Source\PSoC5/Arm_PWM.c **** 
 174:.\Generated_Source\PSoC5/Arm_PWM.c ****             /* Clear the FIFO to enable the Arm_PWM_STATUS_FIFOFULL
 175:.\Generated_Source\PSoC5/Arm_PWM.c ****                    bit to be set on FIFO full. */
 176:.\Generated_Source\PSoC5/Arm_PWM.c ****             Arm_PWM_ClearFIFO();
 142              		.loc 1 176 0
 143 007a FFF7FEFF 		bl	Arm_PWM_ClearFIFO
 177:.\Generated_Source\PSoC5/Arm_PWM.c ****         #endif /* (Arm_PWM_UseStatus) */
 178:.\Generated_Source\PSoC5/Arm_PWM.c ****     #endif /* (Arm_PWM_UsingFixedFunction) */
 179:.\Generated_Source\PSoC5/Arm_PWM.c **** }
 144              		.loc 1 179 0
 145 007e 0837     		adds	r7, r7, #8
 146 0080 BD46     		mov	sp, r7
 147              		@ sp needed
 148 0082 80BD     		pop	{r7, pc}
 149              	.L7:
 150              		.align	2
 151              	.L6:
 152 0084 7D640040 		.word	1073767549
 153 0088 92640040 		.word	1073767570
 154 008c 93640040 		.word	1073767571
 155 0090 97640040 		.word	1073767575
 156              		.cfi_endproc
 157              	.LFE1:
 158              		.size	Arm_PWM_Init, .-Arm_PWM_Init
 159              		.section	.text.Arm_PWM_Enable,"ax",%progbits
 160              		.align	2
 161              		.global	Arm_PWM_Enable
 162              		.thumb
 163              		.thumb_func
ARM GAS  C:\Users\xavieran\AppData\Local\Temp\cc46c4Ur.s 			page 7


 164              		.type	Arm_PWM_Enable, %function
 165              	Arm_PWM_Enable:
 166              	.LFB2:
 180:.\Generated_Source\PSoC5/Arm_PWM.c **** 
 181:.\Generated_Source\PSoC5/Arm_PWM.c **** 
 182:.\Generated_Source\PSoC5/Arm_PWM.c **** /*******************************************************************************
 183:.\Generated_Source\PSoC5/Arm_PWM.c **** * Function Name: Arm_PWM_Enable
 184:.\Generated_Source\PSoC5/Arm_PWM.c **** ********************************************************************************
 185:.\Generated_Source\PSoC5/Arm_PWM.c **** *
 186:.\Generated_Source\PSoC5/Arm_PWM.c **** * Summary:
 187:.\Generated_Source\PSoC5/Arm_PWM.c **** *  Enables the PWM block operation
 188:.\Generated_Source\PSoC5/Arm_PWM.c **** *
 189:.\Generated_Source\PSoC5/Arm_PWM.c **** * Parameters:
 190:.\Generated_Source\PSoC5/Arm_PWM.c **** *  None
 191:.\Generated_Source\PSoC5/Arm_PWM.c **** *
 192:.\Generated_Source\PSoC5/Arm_PWM.c **** * Return:
 193:.\Generated_Source\PSoC5/Arm_PWM.c **** *  None
 194:.\Generated_Source\PSoC5/Arm_PWM.c **** *
 195:.\Generated_Source\PSoC5/Arm_PWM.c **** * Side Effects:
 196:.\Generated_Source\PSoC5/Arm_PWM.c **** *  This works only if software enable mode is chosen
 197:.\Generated_Source\PSoC5/Arm_PWM.c **** *
 198:.\Generated_Source\PSoC5/Arm_PWM.c **** *******************************************************************************/
 199:.\Generated_Source\PSoC5/Arm_PWM.c **** void Arm_PWM_Enable(void) 
 200:.\Generated_Source\PSoC5/Arm_PWM.c **** {
 167              		.loc 1 200 0
 168              		.cfi_startproc
 169              		@ args = 0, pretend = 0, frame = 0
 170              		@ frame_needed = 1, uses_anonymous_args = 0
 171              		@ link register save eliminated.
 172 0000 80B4     		push	{r7}
 173              		.cfi_def_cfa_offset 4
 174              		.cfi_offset 7, -4
 175 0002 00AF     		add	r7, sp, #0
 176              		.cfi_def_cfa_register 7
 201:.\Generated_Source\PSoC5/Arm_PWM.c ****     /* Globally Enable the Fixed Function Block chosen */
 202:.\Generated_Source\PSoC5/Arm_PWM.c ****     #if (Arm_PWM_UsingFixedFunction)
 203:.\Generated_Source\PSoC5/Arm_PWM.c ****         Arm_PWM_GLOBAL_ENABLE |= Arm_PWM_BLOCK_EN_MASK;
 204:.\Generated_Source\PSoC5/Arm_PWM.c ****         Arm_PWM_GLOBAL_STBY_ENABLE |= Arm_PWM_BLOCK_STBY_EN_MASK;
 205:.\Generated_Source\PSoC5/Arm_PWM.c ****     #endif /* (Arm_PWM_UsingFixedFunction) */
 206:.\Generated_Source\PSoC5/Arm_PWM.c **** 
 207:.\Generated_Source\PSoC5/Arm_PWM.c ****     /* Enable the PWM from the control register  */
 208:.\Generated_Source\PSoC5/Arm_PWM.c ****     #if (Arm_PWM_UseControl || Arm_PWM_UsingFixedFunction)
 209:.\Generated_Source\PSoC5/Arm_PWM.c ****         Arm_PWM_CONTROL |= Arm_PWM_CTRL_ENABLE;
 177              		.loc 1 209 0
 178 0004 054B     		ldr	r3, .L9
 179 0006 054A     		ldr	r2, .L9
 180 0008 1278     		ldrb	r2, [r2]
 181 000a D2B2     		uxtb	r2, r2
 182 000c 62F07F02 		orn	r2, r2, #127
 183 0010 D2B2     		uxtb	r2, r2
 184 0012 1A70     		strb	r2, [r3]
 210:.\Generated_Source\PSoC5/Arm_PWM.c ****     #endif /* (Arm_PWM_UseControl || Arm_PWM_UsingFixedFunction) */
 211:.\Generated_Source\PSoC5/Arm_PWM.c **** }
 185              		.loc 1 211 0
 186 0014 BD46     		mov	sp, r7
 187              		@ sp needed
 188 0016 5DF8047B 		ldr	r7, [sp], #4
ARM GAS  C:\Users\xavieran\AppData\Local\Temp\cc46c4Ur.s 			page 8


 189 001a 7047     		bx	lr
 190              	.L10:
 191              		.align	2
 192              	.L9:
 193 001c 7D640040 		.word	1073767549
 194              		.cfi_endproc
 195              	.LFE2:
 196              		.size	Arm_PWM_Enable, .-Arm_PWM_Enable
 197              		.section	.text.Arm_PWM_Stop,"ax",%progbits
 198              		.align	2
 199              		.global	Arm_PWM_Stop
 200              		.thumb
 201              		.thumb_func
 202              		.type	Arm_PWM_Stop, %function
 203              	Arm_PWM_Stop:
 204              	.LFB3:
 212:.\Generated_Source\PSoC5/Arm_PWM.c **** 
 213:.\Generated_Source\PSoC5/Arm_PWM.c **** 
 214:.\Generated_Source\PSoC5/Arm_PWM.c **** /*******************************************************************************
 215:.\Generated_Source\PSoC5/Arm_PWM.c **** * Function Name: Arm_PWM_Stop
 216:.\Generated_Source\PSoC5/Arm_PWM.c **** ********************************************************************************
 217:.\Generated_Source\PSoC5/Arm_PWM.c **** *
 218:.\Generated_Source\PSoC5/Arm_PWM.c **** * Summary:
 219:.\Generated_Source\PSoC5/Arm_PWM.c **** *  The stop function halts the PWM, but does not change any modes or disable
 220:.\Generated_Source\PSoC5/Arm_PWM.c **** *  interrupts.
 221:.\Generated_Source\PSoC5/Arm_PWM.c **** *
 222:.\Generated_Source\PSoC5/Arm_PWM.c **** * Parameters:
 223:.\Generated_Source\PSoC5/Arm_PWM.c **** *  None
 224:.\Generated_Source\PSoC5/Arm_PWM.c **** *
 225:.\Generated_Source\PSoC5/Arm_PWM.c **** * Return:
 226:.\Generated_Source\PSoC5/Arm_PWM.c **** *  None
 227:.\Generated_Source\PSoC5/Arm_PWM.c **** *
 228:.\Generated_Source\PSoC5/Arm_PWM.c **** * Side Effects:
 229:.\Generated_Source\PSoC5/Arm_PWM.c **** *  If the Enable mode is set to Hardware only then this function
 230:.\Generated_Source\PSoC5/Arm_PWM.c **** *  has no effect on the operation of the PWM
 231:.\Generated_Source\PSoC5/Arm_PWM.c **** *
 232:.\Generated_Source\PSoC5/Arm_PWM.c **** *******************************************************************************/
 233:.\Generated_Source\PSoC5/Arm_PWM.c **** void Arm_PWM_Stop(void) 
 234:.\Generated_Source\PSoC5/Arm_PWM.c **** {
 205              		.loc 1 234 0
 206              		.cfi_startproc
 207              		@ args = 0, pretend = 0, frame = 0
 208              		@ frame_needed = 1, uses_anonymous_args = 0
 209              		@ link register save eliminated.
 210 0000 80B4     		push	{r7}
 211              		.cfi_def_cfa_offset 4
 212              		.cfi_offset 7, -4
 213 0002 00AF     		add	r7, sp, #0
 214              		.cfi_def_cfa_register 7
 235:.\Generated_Source\PSoC5/Arm_PWM.c ****     #if (Arm_PWM_UseControl || Arm_PWM_UsingFixedFunction)
 236:.\Generated_Source\PSoC5/Arm_PWM.c ****         Arm_PWM_CONTROL &= ((uint8)(~Arm_PWM_CTRL_ENABLE));
 215              		.loc 1 236 0
 216 0004 054B     		ldr	r3, .L12
 217 0006 054A     		ldr	r2, .L12
 218 0008 1278     		ldrb	r2, [r2]
 219 000a D2B2     		uxtb	r2, r2
 220 000c 02F07F02 		and	r2, r2, #127
ARM GAS  C:\Users\xavieran\AppData\Local\Temp\cc46c4Ur.s 			page 9


 221 0010 D2B2     		uxtb	r2, r2
 222 0012 1A70     		strb	r2, [r3]
 237:.\Generated_Source\PSoC5/Arm_PWM.c ****     #endif /* (Arm_PWM_UseControl || Arm_PWM_UsingFixedFunction) */
 238:.\Generated_Source\PSoC5/Arm_PWM.c **** 
 239:.\Generated_Source\PSoC5/Arm_PWM.c ****     /* Globally disable the Fixed Function Block chosen */
 240:.\Generated_Source\PSoC5/Arm_PWM.c ****     #if (Arm_PWM_UsingFixedFunction)
 241:.\Generated_Source\PSoC5/Arm_PWM.c ****         Arm_PWM_GLOBAL_ENABLE &= ((uint8)(~Arm_PWM_BLOCK_EN_MASK));
 242:.\Generated_Source\PSoC5/Arm_PWM.c ****         Arm_PWM_GLOBAL_STBY_ENABLE &= ((uint8)(~Arm_PWM_BLOCK_STBY_EN_MASK));
 243:.\Generated_Source\PSoC5/Arm_PWM.c ****     #endif /* (Arm_PWM_UsingFixedFunction) */
 244:.\Generated_Source\PSoC5/Arm_PWM.c **** }
 223              		.loc 1 244 0
 224 0014 BD46     		mov	sp, r7
 225              		@ sp needed
 226 0016 5DF8047B 		ldr	r7, [sp], #4
 227 001a 7047     		bx	lr
 228              	.L13:
 229              		.align	2
 230              	.L12:
 231 001c 7D640040 		.word	1073767549
 232              		.cfi_endproc
 233              	.LFE3:
 234              		.size	Arm_PWM_Stop, .-Arm_PWM_Stop
 235              		.section	.text.Arm_PWM_WriteCounter,"ax",%progbits
 236              		.align	2
 237              		.global	Arm_PWM_WriteCounter
 238              		.thumb
 239              		.thumb_func
 240              		.type	Arm_PWM_WriteCounter, %function
 241              	Arm_PWM_WriteCounter:
 242              	.LFB4:
 245:.\Generated_Source\PSoC5/Arm_PWM.c **** 
 246:.\Generated_Source\PSoC5/Arm_PWM.c **** #if (Arm_PWM_UseOneCompareMode)
 247:.\Generated_Source\PSoC5/Arm_PWM.c ****     #if (Arm_PWM_CompareMode1SW)
 248:.\Generated_Source\PSoC5/Arm_PWM.c **** 
 249:.\Generated_Source\PSoC5/Arm_PWM.c **** 
 250:.\Generated_Source\PSoC5/Arm_PWM.c ****         /*******************************************************************************
 251:.\Generated_Source\PSoC5/Arm_PWM.c ****         * Function Name: Arm_PWM_SetCompareMode
 252:.\Generated_Source\PSoC5/Arm_PWM.c ****         ********************************************************************************
 253:.\Generated_Source\PSoC5/Arm_PWM.c ****         *
 254:.\Generated_Source\PSoC5/Arm_PWM.c ****         * Summary:
 255:.\Generated_Source\PSoC5/Arm_PWM.c ****         *  This function writes the Compare Mode for the pwm output when in Dither mode,
 256:.\Generated_Source\PSoC5/Arm_PWM.c ****         *  Center Align Mode or One Output Mode.
 257:.\Generated_Source\PSoC5/Arm_PWM.c ****         *
 258:.\Generated_Source\PSoC5/Arm_PWM.c ****         * Parameters:
 259:.\Generated_Source\PSoC5/Arm_PWM.c ****         *  comparemode:  The new compare mode for the PWM output. Use the compare types
 260:.\Generated_Source\PSoC5/Arm_PWM.c ****         *                defined in the H file as input arguments.
 261:.\Generated_Source\PSoC5/Arm_PWM.c ****         *
 262:.\Generated_Source\PSoC5/Arm_PWM.c ****         * Return:
 263:.\Generated_Source\PSoC5/Arm_PWM.c ****         *  None
 264:.\Generated_Source\PSoC5/Arm_PWM.c ****         *
 265:.\Generated_Source\PSoC5/Arm_PWM.c ****         *******************************************************************************/
 266:.\Generated_Source\PSoC5/Arm_PWM.c ****         void Arm_PWM_SetCompareMode(uint8 comparemode) 
 267:.\Generated_Source\PSoC5/Arm_PWM.c ****         {
 268:.\Generated_Source\PSoC5/Arm_PWM.c ****             #if(Arm_PWM_UsingFixedFunction)
 269:.\Generated_Source\PSoC5/Arm_PWM.c **** 
 270:.\Generated_Source\PSoC5/Arm_PWM.c ****                 #if(0 != Arm_PWM_CTRL_CMPMODE1_SHIFT)
 271:.\Generated_Source\PSoC5/Arm_PWM.c ****                     uint8 comparemodemasked = ((uint8)((uint8)comparemode << Arm_PWM_CTRL_CMPMODE1_
ARM GAS  C:\Users\xavieran\AppData\Local\Temp\cc46c4Ur.s 			page 10


 272:.\Generated_Source\PSoC5/Arm_PWM.c ****                 #else
 273:.\Generated_Source\PSoC5/Arm_PWM.c ****                     uint8 comparemodemasked = comparemode;
 274:.\Generated_Source\PSoC5/Arm_PWM.c ****                 #endif /* (0 != Arm_PWM_CTRL_CMPMODE1_SHIFT) */
 275:.\Generated_Source\PSoC5/Arm_PWM.c **** 
 276:.\Generated_Source\PSoC5/Arm_PWM.c ****                 Arm_PWM_CONTROL3 &= ((uint8)(~Arm_PWM_CTRL_CMPMODE1_MASK)); /*Clear Existing Data *
 277:.\Generated_Source\PSoC5/Arm_PWM.c ****                 Arm_PWM_CONTROL3 |= comparemodemasked;
 278:.\Generated_Source\PSoC5/Arm_PWM.c **** 
 279:.\Generated_Source\PSoC5/Arm_PWM.c ****             #elif (Arm_PWM_UseControl)
 280:.\Generated_Source\PSoC5/Arm_PWM.c **** 
 281:.\Generated_Source\PSoC5/Arm_PWM.c ****                 #if(0 != Arm_PWM_CTRL_CMPMODE1_SHIFT)
 282:.\Generated_Source\PSoC5/Arm_PWM.c ****                     uint8 comparemode1masked = ((uint8)((uint8)comparemode << Arm_PWM_CTRL_CMPMODE1
 283:.\Generated_Source\PSoC5/Arm_PWM.c ****                                                 Arm_PWM_CTRL_CMPMODE1_MASK;
 284:.\Generated_Source\PSoC5/Arm_PWM.c ****                 #else
 285:.\Generated_Source\PSoC5/Arm_PWM.c ****                     uint8 comparemode1masked = comparemode & Arm_PWM_CTRL_CMPMODE1_MASK;
 286:.\Generated_Source\PSoC5/Arm_PWM.c ****                 #endif /* (0 != Arm_PWM_CTRL_CMPMODE1_SHIFT) */
 287:.\Generated_Source\PSoC5/Arm_PWM.c **** 
 288:.\Generated_Source\PSoC5/Arm_PWM.c ****                 #if(0 != Arm_PWM_CTRL_CMPMODE2_SHIFT)
 289:.\Generated_Source\PSoC5/Arm_PWM.c ****                     uint8 comparemode2masked = ((uint8)((uint8)comparemode << Arm_PWM_CTRL_CMPMODE2
 290:.\Generated_Source\PSoC5/Arm_PWM.c ****                                                Arm_PWM_CTRL_CMPMODE2_MASK;
 291:.\Generated_Source\PSoC5/Arm_PWM.c ****                 #else
 292:.\Generated_Source\PSoC5/Arm_PWM.c ****                     uint8 comparemode2masked = comparemode & Arm_PWM_CTRL_CMPMODE2_MASK;
 293:.\Generated_Source\PSoC5/Arm_PWM.c ****                 #endif /* (0 != Arm_PWM_CTRL_CMPMODE2_SHIFT) */
 294:.\Generated_Source\PSoC5/Arm_PWM.c **** 
 295:.\Generated_Source\PSoC5/Arm_PWM.c ****                 /*Clear existing mode */
 296:.\Generated_Source\PSoC5/Arm_PWM.c ****                 Arm_PWM_CONTROL &= ((uint8)(~(Arm_PWM_CTRL_CMPMODE1_MASK |
 297:.\Generated_Source\PSoC5/Arm_PWM.c ****                                             Arm_PWM_CTRL_CMPMODE2_MASK)));
 298:.\Generated_Source\PSoC5/Arm_PWM.c ****                 Arm_PWM_CONTROL |= (comparemode1masked | comparemode2masked);
 299:.\Generated_Source\PSoC5/Arm_PWM.c **** 
 300:.\Generated_Source\PSoC5/Arm_PWM.c ****             #else
 301:.\Generated_Source\PSoC5/Arm_PWM.c ****                 uint8 temp = comparemode;
 302:.\Generated_Source\PSoC5/Arm_PWM.c ****             #endif /* (Arm_PWM_UsingFixedFunction) */
 303:.\Generated_Source\PSoC5/Arm_PWM.c ****         }
 304:.\Generated_Source\PSoC5/Arm_PWM.c ****     #endif /* Arm_PWM_CompareMode1SW */
 305:.\Generated_Source\PSoC5/Arm_PWM.c **** 
 306:.\Generated_Source\PSoC5/Arm_PWM.c **** #else /* UseOneCompareMode */
 307:.\Generated_Source\PSoC5/Arm_PWM.c **** 
 308:.\Generated_Source\PSoC5/Arm_PWM.c ****     #if (Arm_PWM_CompareMode1SW)
 309:.\Generated_Source\PSoC5/Arm_PWM.c **** 
 310:.\Generated_Source\PSoC5/Arm_PWM.c **** 
 311:.\Generated_Source\PSoC5/Arm_PWM.c ****         /*******************************************************************************
 312:.\Generated_Source\PSoC5/Arm_PWM.c ****         * Function Name: Arm_PWM_SetCompareMode1
 313:.\Generated_Source\PSoC5/Arm_PWM.c ****         ********************************************************************************
 314:.\Generated_Source\PSoC5/Arm_PWM.c ****         *
 315:.\Generated_Source\PSoC5/Arm_PWM.c ****         * Summary:
 316:.\Generated_Source\PSoC5/Arm_PWM.c ****         *  This function writes the Compare Mode for the pwm or pwm1 output
 317:.\Generated_Source\PSoC5/Arm_PWM.c ****         *
 318:.\Generated_Source\PSoC5/Arm_PWM.c ****         * Parameters:
 319:.\Generated_Source\PSoC5/Arm_PWM.c ****         *  comparemode:  The new compare mode for the PWM output. Use the compare types
 320:.\Generated_Source\PSoC5/Arm_PWM.c ****         *                defined in the H file as input arguments.
 321:.\Generated_Source\PSoC5/Arm_PWM.c ****         *
 322:.\Generated_Source\PSoC5/Arm_PWM.c ****         * Return:
 323:.\Generated_Source\PSoC5/Arm_PWM.c ****         *  None
 324:.\Generated_Source\PSoC5/Arm_PWM.c ****         *
 325:.\Generated_Source\PSoC5/Arm_PWM.c ****         *******************************************************************************/
 326:.\Generated_Source\PSoC5/Arm_PWM.c ****         void Arm_PWM_SetCompareMode1(uint8 comparemode) 
 327:.\Generated_Source\PSoC5/Arm_PWM.c ****         {
 328:.\Generated_Source\PSoC5/Arm_PWM.c ****             #if(0 != Arm_PWM_CTRL_CMPMODE1_SHIFT)
ARM GAS  C:\Users\xavieran\AppData\Local\Temp\cc46c4Ur.s 			page 11


 329:.\Generated_Source\PSoC5/Arm_PWM.c ****                 uint8 comparemodemasked = ((uint8)((uint8)comparemode << Arm_PWM_CTRL_CMPMODE1_SHIF
 330:.\Generated_Source\PSoC5/Arm_PWM.c ****                                            Arm_PWM_CTRL_CMPMODE1_MASK;
 331:.\Generated_Source\PSoC5/Arm_PWM.c ****             #else
 332:.\Generated_Source\PSoC5/Arm_PWM.c ****                 uint8 comparemodemasked = comparemode & Arm_PWM_CTRL_CMPMODE1_MASK;
 333:.\Generated_Source\PSoC5/Arm_PWM.c ****             #endif /* (0 != Arm_PWM_CTRL_CMPMODE1_SHIFT) */
 334:.\Generated_Source\PSoC5/Arm_PWM.c **** 
 335:.\Generated_Source\PSoC5/Arm_PWM.c ****             #if (Arm_PWM_UseControl)
 336:.\Generated_Source\PSoC5/Arm_PWM.c ****                 Arm_PWM_CONTROL &= ((uint8)(~Arm_PWM_CTRL_CMPMODE1_MASK)); /*Clear existing mode */
 337:.\Generated_Source\PSoC5/Arm_PWM.c ****                 Arm_PWM_CONTROL |= comparemodemasked;
 338:.\Generated_Source\PSoC5/Arm_PWM.c ****             #endif /* (Arm_PWM_UseControl) */
 339:.\Generated_Source\PSoC5/Arm_PWM.c ****         }
 340:.\Generated_Source\PSoC5/Arm_PWM.c ****     #endif /* Arm_PWM_CompareMode1SW */
 341:.\Generated_Source\PSoC5/Arm_PWM.c **** 
 342:.\Generated_Source\PSoC5/Arm_PWM.c **** #if (Arm_PWM_CompareMode2SW)
 343:.\Generated_Source\PSoC5/Arm_PWM.c **** 
 344:.\Generated_Source\PSoC5/Arm_PWM.c **** 
 345:.\Generated_Source\PSoC5/Arm_PWM.c ****     /*******************************************************************************
 346:.\Generated_Source\PSoC5/Arm_PWM.c ****     * Function Name: Arm_PWM_SetCompareMode2
 347:.\Generated_Source\PSoC5/Arm_PWM.c ****     ********************************************************************************
 348:.\Generated_Source\PSoC5/Arm_PWM.c ****     *
 349:.\Generated_Source\PSoC5/Arm_PWM.c ****     * Summary:
 350:.\Generated_Source\PSoC5/Arm_PWM.c ****     *  This function writes the Compare Mode for the pwm or pwm2 output
 351:.\Generated_Source\PSoC5/Arm_PWM.c ****     *
 352:.\Generated_Source\PSoC5/Arm_PWM.c ****     * Parameters:
 353:.\Generated_Source\PSoC5/Arm_PWM.c ****     *  comparemode:  The new compare mode for the PWM output. Use the compare types
 354:.\Generated_Source\PSoC5/Arm_PWM.c ****     *                defined in the H file as input arguments.
 355:.\Generated_Source\PSoC5/Arm_PWM.c ****     *
 356:.\Generated_Source\PSoC5/Arm_PWM.c ****     * Return:
 357:.\Generated_Source\PSoC5/Arm_PWM.c ****     *  None
 358:.\Generated_Source\PSoC5/Arm_PWM.c ****     *
 359:.\Generated_Source\PSoC5/Arm_PWM.c ****     *******************************************************************************/
 360:.\Generated_Source\PSoC5/Arm_PWM.c ****     void Arm_PWM_SetCompareMode2(uint8 comparemode) 
 361:.\Generated_Source\PSoC5/Arm_PWM.c ****     {
 362:.\Generated_Source\PSoC5/Arm_PWM.c **** 
 363:.\Generated_Source\PSoC5/Arm_PWM.c ****         #if(0 != Arm_PWM_CTRL_CMPMODE2_SHIFT)
 364:.\Generated_Source\PSoC5/Arm_PWM.c ****             uint8 comparemodemasked = ((uint8)((uint8)comparemode << Arm_PWM_CTRL_CMPMODE2_SHIFT)) 
 365:.\Generated_Source\PSoC5/Arm_PWM.c ****                                                  Arm_PWM_CTRL_CMPMODE2_MASK;
 366:.\Generated_Source\PSoC5/Arm_PWM.c ****         #else
 367:.\Generated_Source\PSoC5/Arm_PWM.c ****             uint8 comparemodemasked = comparemode & Arm_PWM_CTRL_CMPMODE2_MASK;
 368:.\Generated_Source\PSoC5/Arm_PWM.c ****         #endif /* (0 != Arm_PWM_CTRL_CMPMODE2_SHIFT) */
 369:.\Generated_Source\PSoC5/Arm_PWM.c **** 
 370:.\Generated_Source\PSoC5/Arm_PWM.c ****         #if (Arm_PWM_UseControl)
 371:.\Generated_Source\PSoC5/Arm_PWM.c ****             Arm_PWM_CONTROL &= ((uint8)(~Arm_PWM_CTRL_CMPMODE2_MASK)); /*Clear existing mode */
 372:.\Generated_Source\PSoC5/Arm_PWM.c ****             Arm_PWM_CONTROL |= comparemodemasked;
 373:.\Generated_Source\PSoC5/Arm_PWM.c ****         #endif /* (Arm_PWM_UseControl) */
 374:.\Generated_Source\PSoC5/Arm_PWM.c ****     }
 375:.\Generated_Source\PSoC5/Arm_PWM.c ****     #endif /*Arm_PWM_CompareMode2SW */
 376:.\Generated_Source\PSoC5/Arm_PWM.c **** 
 377:.\Generated_Source\PSoC5/Arm_PWM.c **** #endif /* UseOneCompareMode */
 378:.\Generated_Source\PSoC5/Arm_PWM.c **** 
 379:.\Generated_Source\PSoC5/Arm_PWM.c **** 
 380:.\Generated_Source\PSoC5/Arm_PWM.c **** #if (!Arm_PWM_UsingFixedFunction)
 381:.\Generated_Source\PSoC5/Arm_PWM.c **** 
 382:.\Generated_Source\PSoC5/Arm_PWM.c **** 
 383:.\Generated_Source\PSoC5/Arm_PWM.c ****     /*******************************************************************************
 384:.\Generated_Source\PSoC5/Arm_PWM.c ****     * Function Name: Arm_PWM_WriteCounter
 385:.\Generated_Source\PSoC5/Arm_PWM.c ****     ********************************************************************************
ARM GAS  C:\Users\xavieran\AppData\Local\Temp\cc46c4Ur.s 			page 12


 386:.\Generated_Source\PSoC5/Arm_PWM.c ****     *
 387:.\Generated_Source\PSoC5/Arm_PWM.c ****     * Summary:
 388:.\Generated_Source\PSoC5/Arm_PWM.c ****     *  Writes a new counter value directly to the counter register. This will be
 389:.\Generated_Source\PSoC5/Arm_PWM.c ****     *  implemented for that currently running period and only that period. This API
 390:.\Generated_Source\PSoC5/Arm_PWM.c ****     *  is valid only for UDB implementation and not available for fixed function
 391:.\Generated_Source\PSoC5/Arm_PWM.c ****     *  PWM implementation.
 392:.\Generated_Source\PSoC5/Arm_PWM.c ****     *
 393:.\Generated_Source\PSoC5/Arm_PWM.c ****     * Parameters:
 394:.\Generated_Source\PSoC5/Arm_PWM.c ****     *  counter:  The period new period counter value.
 395:.\Generated_Source\PSoC5/Arm_PWM.c ****     *
 396:.\Generated_Source\PSoC5/Arm_PWM.c ****     * Return:
 397:.\Generated_Source\PSoC5/Arm_PWM.c ****     *  None
 398:.\Generated_Source\PSoC5/Arm_PWM.c ****     *
 399:.\Generated_Source\PSoC5/Arm_PWM.c ****     * Side Effects:
 400:.\Generated_Source\PSoC5/Arm_PWM.c ****     *  The PWM Period will be reloaded when a counter value will be a zero
 401:.\Generated_Source\PSoC5/Arm_PWM.c ****     *
 402:.\Generated_Source\PSoC5/Arm_PWM.c ****     *******************************************************************************/
 403:.\Generated_Source\PSoC5/Arm_PWM.c ****     void Arm_PWM_WriteCounter(uint16 counter) \
 404:.\Generated_Source\PSoC5/Arm_PWM.c ****                                        
 405:.\Generated_Source\PSoC5/Arm_PWM.c ****     {
 243              		.loc 1 405 0
 244              		.cfi_startproc
 245              		@ args = 0, pretend = 0, frame = 8
 246              		@ frame_needed = 1, uses_anonymous_args = 0
 247              		@ link register save eliminated.
 248 0000 80B4     		push	{r7}
 249              		.cfi_def_cfa_offset 4
 250              		.cfi_offset 7, -4
 251 0002 83B0     		sub	sp, sp, #12
 252              		.cfi_def_cfa_offset 16
 253 0004 00AF     		add	r7, sp, #0
 254              		.cfi_def_cfa_register 7
 255 0006 0346     		mov	r3, r0
 256 0008 FB80     		strh	r3, [r7, #6]	@ movhi
 406:.\Generated_Source\PSoC5/Arm_PWM.c ****         CY_SET_REG16(Arm_PWM_COUNTER_LSB_PTR, counter);
 257              		.loc 1 406 0
 258 000a 044B     		ldr	r3, .L15
 259 000c FA88     		ldrh	r2, [r7, #6]	@ movhi
 260 000e 1A80     		strh	r2, [r3]	@ movhi
 407:.\Generated_Source\PSoC5/Arm_PWM.c ****     }
 261              		.loc 1 407 0
 262 0010 0C37     		adds	r7, r7, #12
 263 0012 BD46     		mov	sp, r7
 264              		@ sp needed
 265 0014 5DF8047B 		ldr	r7, [sp], #4
 266 0018 7047     		bx	lr
 267              	.L16:
 268 001a 00BF     		.align	2
 269              	.L15:
 270 001c 04680040 		.word	1073768452
 271              		.cfi_endproc
 272              	.LFE4:
 273              		.size	Arm_PWM_WriteCounter, .-Arm_PWM_WriteCounter
 274              		.section	.text.Arm_PWM_ReadCounter,"ax",%progbits
 275              		.align	2
 276              		.global	Arm_PWM_ReadCounter
 277              		.thumb
ARM GAS  C:\Users\xavieran\AppData\Local\Temp\cc46c4Ur.s 			page 13


 278              		.thumb_func
 279              		.type	Arm_PWM_ReadCounter, %function
 280              	Arm_PWM_ReadCounter:
 281              	.LFB5:
 408:.\Generated_Source\PSoC5/Arm_PWM.c **** 
 409:.\Generated_Source\PSoC5/Arm_PWM.c **** 
 410:.\Generated_Source\PSoC5/Arm_PWM.c ****     /*******************************************************************************
 411:.\Generated_Source\PSoC5/Arm_PWM.c ****     * Function Name: Arm_PWM_ReadCounter
 412:.\Generated_Source\PSoC5/Arm_PWM.c ****     ********************************************************************************
 413:.\Generated_Source\PSoC5/Arm_PWM.c ****     *
 414:.\Generated_Source\PSoC5/Arm_PWM.c ****     * Summary:
 415:.\Generated_Source\PSoC5/Arm_PWM.c ****     *  This function returns the current value of the counter.  It doesn't matter
 416:.\Generated_Source\PSoC5/Arm_PWM.c ****     *  if the counter is enabled or running.
 417:.\Generated_Source\PSoC5/Arm_PWM.c ****     *
 418:.\Generated_Source\PSoC5/Arm_PWM.c ****     * Parameters:
 419:.\Generated_Source\PSoC5/Arm_PWM.c ****     *  None
 420:.\Generated_Source\PSoC5/Arm_PWM.c ****     *
 421:.\Generated_Source\PSoC5/Arm_PWM.c ****     * Return:
 422:.\Generated_Source\PSoC5/Arm_PWM.c ****     *  The current value of the counter.
 423:.\Generated_Source\PSoC5/Arm_PWM.c ****     *
 424:.\Generated_Source\PSoC5/Arm_PWM.c ****     *******************************************************************************/
 425:.\Generated_Source\PSoC5/Arm_PWM.c ****     uint16 Arm_PWM_ReadCounter(void) 
 426:.\Generated_Source\PSoC5/Arm_PWM.c ****     {
 282              		.loc 1 426 0
 283              		.cfi_startproc
 284              		@ args = 0, pretend = 0, frame = 0
 285              		@ frame_needed = 1, uses_anonymous_args = 0
 286              		@ link register save eliminated.
 287 0000 80B4     		push	{r7}
 288              		.cfi_def_cfa_offset 4
 289              		.cfi_offset 7, -4
 290 0002 00AF     		add	r7, sp, #0
 291              		.cfi_def_cfa_register 7
 427:.\Generated_Source\PSoC5/Arm_PWM.c ****         /* Force capture by reading Accumulator */
 428:.\Generated_Source\PSoC5/Arm_PWM.c ****         /* Must first do a software capture to be able to read the counter */
 429:.\Generated_Source\PSoC5/Arm_PWM.c ****         /* It is up to the user code to make sure there isn't already captured data in the FIFO */
 430:.\Generated_Source\PSoC5/Arm_PWM.c ****           (void)CY_GET_REG8(Arm_PWM_COUNTERCAP_LSB_PTR_8BIT);
 292              		.loc 1 430 0
 293 0004 044B     		ldr	r3, .L19
 294 0006 1B78     		ldrb	r3, [r3]
 431:.\Generated_Source\PSoC5/Arm_PWM.c **** 
 432:.\Generated_Source\PSoC5/Arm_PWM.c ****         /* Read the data from the FIFO */
 433:.\Generated_Source\PSoC5/Arm_PWM.c ****         return (CY_GET_REG16(Arm_PWM_CAPTURE_LSB_PTR));
 295              		.loc 1 433 0
 296 0008 044B     		ldr	r3, .L19+4
 297 000a 1B88     		ldrh	r3, [r3]	@ movhi
 298 000c 9BB2     		uxth	r3, r3
 434:.\Generated_Source\PSoC5/Arm_PWM.c ****     }
 299              		.loc 1 434 0
 300 000e 1846     		mov	r0, r3
 301 0010 BD46     		mov	sp, r7
 302              		@ sp needed
 303 0012 5DF8047B 		ldr	r7, [sp], #4
 304 0016 7047     		bx	lr
 305              	.L20:
 306              		.align	2
 307              	.L19:
ARM GAS  C:\Users\xavieran\AppData\Local\Temp\cc46c4Ur.s 			page 14


 308 0018 12640040 		.word	1073767442
 309 001c A4680040 		.word	1073768612
 310              		.cfi_endproc
 311              	.LFE5:
 312              		.size	Arm_PWM_ReadCounter, .-Arm_PWM_ReadCounter
 313              		.section	.text.Arm_PWM_ClearFIFO,"ax",%progbits
 314              		.align	2
 315              		.global	Arm_PWM_ClearFIFO
 316              		.thumb
 317              		.thumb_func
 318              		.type	Arm_PWM_ClearFIFO, %function
 319              	Arm_PWM_ClearFIFO:
 320              	.LFB6:
 435:.\Generated_Source\PSoC5/Arm_PWM.c **** 
 436:.\Generated_Source\PSoC5/Arm_PWM.c ****     #if (Arm_PWM_UseStatus)
 437:.\Generated_Source\PSoC5/Arm_PWM.c **** 
 438:.\Generated_Source\PSoC5/Arm_PWM.c **** 
 439:.\Generated_Source\PSoC5/Arm_PWM.c ****         /*******************************************************************************
 440:.\Generated_Source\PSoC5/Arm_PWM.c ****         * Function Name: Arm_PWM_ClearFIFO
 441:.\Generated_Source\PSoC5/Arm_PWM.c ****         ********************************************************************************
 442:.\Generated_Source\PSoC5/Arm_PWM.c ****         *
 443:.\Generated_Source\PSoC5/Arm_PWM.c ****         * Summary:
 444:.\Generated_Source\PSoC5/Arm_PWM.c ****         *  This function clears all capture data from the capture FIFO
 445:.\Generated_Source\PSoC5/Arm_PWM.c ****         *
 446:.\Generated_Source\PSoC5/Arm_PWM.c ****         * Parameters:
 447:.\Generated_Source\PSoC5/Arm_PWM.c ****         *  None
 448:.\Generated_Source\PSoC5/Arm_PWM.c ****         *
 449:.\Generated_Source\PSoC5/Arm_PWM.c ****         * Return:
 450:.\Generated_Source\PSoC5/Arm_PWM.c ****         *  None
 451:.\Generated_Source\PSoC5/Arm_PWM.c ****         *
 452:.\Generated_Source\PSoC5/Arm_PWM.c ****         *******************************************************************************/
 453:.\Generated_Source\PSoC5/Arm_PWM.c ****         void Arm_PWM_ClearFIFO(void) 
 454:.\Generated_Source\PSoC5/Arm_PWM.c ****         {
 321              		.loc 1 454 0
 322              		.cfi_startproc
 323              		@ args = 0, pretend = 0, frame = 0
 324              		@ frame_needed = 1, uses_anonymous_args = 0
 325 0000 80B5     		push	{r7, lr}
 326              		.cfi_def_cfa_offset 8
 327              		.cfi_offset 7, -8
 328              		.cfi_offset 14, -4
 329 0002 00AF     		add	r7, sp, #0
 330              		.cfi_def_cfa_register 7
 455:.\Generated_Source\PSoC5/Arm_PWM.c ****             while(0u != (Arm_PWM_ReadStatusRegister() & Arm_PWM_STATUS_FIFONEMPTY))
 331              		.loc 1 455 0
 332 0004 01E0     		b	.L22
 333              	.L23:
 456:.\Generated_Source\PSoC5/Arm_PWM.c ****             {
 457:.\Generated_Source\PSoC5/Arm_PWM.c ****                 (void)Arm_PWM_ReadCapture();
 334              		.loc 1 457 0
 335 0006 FFF7FEFF 		bl	Arm_PWM_ReadCapture
 336              	.L22:
 455:.\Generated_Source\PSoC5/Arm_PWM.c ****             while(0u != (Arm_PWM_ReadStatusRegister() & Arm_PWM_STATUS_FIFONEMPTY))
 337              		.loc 1 455 0 discriminator 1
 338 000a FFF7FEFF 		bl	Arm_PWM_ReadStatusRegister
 339 000e 0346     		mov	r3, r0
 340 0010 03F01003 		and	r3, r3, #16
ARM GAS  C:\Users\xavieran\AppData\Local\Temp\cc46c4Ur.s 			page 15


 341 0014 002B     		cmp	r3, #0
 342 0016 F6D1     		bne	.L23
 458:.\Generated_Source\PSoC5/Arm_PWM.c ****             }
 459:.\Generated_Source\PSoC5/Arm_PWM.c ****         }
 343              		.loc 1 459 0
 344 0018 80BD     		pop	{r7, pc}
 345              		.cfi_endproc
 346              	.LFE6:
 347              		.size	Arm_PWM_ClearFIFO, .-Arm_PWM_ClearFIFO
 348 001a 00BF     		.section	.text.Arm_PWM_WritePeriod,"ax",%progbits
 349              		.align	2
 350              		.global	Arm_PWM_WritePeriod
 351              		.thumb
 352              		.thumb_func
 353              		.type	Arm_PWM_WritePeriod, %function
 354              	Arm_PWM_WritePeriod:
 355              	.LFB7:
 460:.\Generated_Source\PSoC5/Arm_PWM.c **** 
 461:.\Generated_Source\PSoC5/Arm_PWM.c ****     #endif /* Arm_PWM_UseStatus */
 462:.\Generated_Source\PSoC5/Arm_PWM.c **** 
 463:.\Generated_Source\PSoC5/Arm_PWM.c **** #endif /* !Arm_PWM_UsingFixedFunction */
 464:.\Generated_Source\PSoC5/Arm_PWM.c **** 
 465:.\Generated_Source\PSoC5/Arm_PWM.c **** 
 466:.\Generated_Source\PSoC5/Arm_PWM.c **** /*******************************************************************************
 467:.\Generated_Source\PSoC5/Arm_PWM.c **** * Function Name: Arm_PWM_WritePeriod
 468:.\Generated_Source\PSoC5/Arm_PWM.c **** ********************************************************************************
 469:.\Generated_Source\PSoC5/Arm_PWM.c **** *
 470:.\Generated_Source\PSoC5/Arm_PWM.c **** * Summary:
 471:.\Generated_Source\PSoC5/Arm_PWM.c **** *  This function is used to change the period of the counter.  The new period
 472:.\Generated_Source\PSoC5/Arm_PWM.c **** *  will be loaded the next time terminal count is detected.
 473:.\Generated_Source\PSoC5/Arm_PWM.c **** *
 474:.\Generated_Source\PSoC5/Arm_PWM.c **** * Parameters:
 475:.\Generated_Source\PSoC5/Arm_PWM.c **** *  period:  Period value. May be between 1 and (2^Resolution)-1.  A value of 0
 476:.\Generated_Source\PSoC5/Arm_PWM.c **** *           will result in the counter remaining at zero.
 477:.\Generated_Source\PSoC5/Arm_PWM.c **** *
 478:.\Generated_Source\PSoC5/Arm_PWM.c **** * Return:
 479:.\Generated_Source\PSoC5/Arm_PWM.c **** *  None
 480:.\Generated_Source\PSoC5/Arm_PWM.c **** *
 481:.\Generated_Source\PSoC5/Arm_PWM.c **** *******************************************************************************/
 482:.\Generated_Source\PSoC5/Arm_PWM.c **** void Arm_PWM_WritePeriod(uint16 period) 
 483:.\Generated_Source\PSoC5/Arm_PWM.c **** {
 356              		.loc 1 483 0
 357              		.cfi_startproc
 358              		@ args = 0, pretend = 0, frame = 8
 359              		@ frame_needed = 1, uses_anonymous_args = 0
 360              		@ link register save eliminated.
 361 0000 80B4     		push	{r7}
 362              		.cfi_def_cfa_offset 4
 363              		.cfi_offset 7, -4
 364 0002 83B0     		sub	sp, sp, #12
 365              		.cfi_def_cfa_offset 16
 366 0004 00AF     		add	r7, sp, #0
 367              		.cfi_def_cfa_register 7
 368 0006 0346     		mov	r3, r0
 369 0008 FB80     		strh	r3, [r7, #6]	@ movhi
 484:.\Generated_Source\PSoC5/Arm_PWM.c ****     #if(Arm_PWM_UsingFixedFunction)
 485:.\Generated_Source\PSoC5/Arm_PWM.c ****         CY_SET_REG16(Arm_PWM_PERIOD_LSB_PTR, (uint16)period);
ARM GAS  C:\Users\xavieran\AppData\Local\Temp\cc46c4Ur.s 			page 16


 486:.\Generated_Source\PSoC5/Arm_PWM.c ****     #else
 487:.\Generated_Source\PSoC5/Arm_PWM.c ****         CY_SET_REG16(Arm_PWM_PERIOD_LSB_PTR, period);
 370              		.loc 1 487 0
 371 000a 044B     		ldr	r3, .L25
 372 000c FA88     		ldrh	r2, [r7, #6]	@ movhi
 373 000e 1A80     		strh	r2, [r3]	@ movhi
 488:.\Generated_Source\PSoC5/Arm_PWM.c ****     #endif /* (Arm_PWM_UsingFixedFunction) */
 489:.\Generated_Source\PSoC5/Arm_PWM.c **** }
 374              		.loc 1 489 0
 375 0010 0C37     		adds	r7, r7, #12
 376 0012 BD46     		mov	sp, r7
 377              		@ sp needed
 378 0014 5DF8047B 		ldr	r7, [sp], #4
 379 0018 7047     		bx	lr
 380              	.L26:
 381 001a 00BF     		.align	2
 382              	.L25:
 383 001c 84680040 		.word	1073768580
 384              		.cfi_endproc
 385              	.LFE7:
 386              		.size	Arm_PWM_WritePeriod, .-Arm_PWM_WritePeriod
 387              		.section	.text.Arm_PWM_WriteCompare,"ax",%progbits
 388              		.align	2
 389              		.global	Arm_PWM_WriteCompare
 390              		.thumb
 391              		.thumb_func
 392              		.type	Arm_PWM_WriteCompare, %function
 393              	Arm_PWM_WriteCompare:
 394              	.LFB8:
 490:.\Generated_Source\PSoC5/Arm_PWM.c **** 
 491:.\Generated_Source\PSoC5/Arm_PWM.c **** #if (Arm_PWM_UseOneCompareMode)
 492:.\Generated_Source\PSoC5/Arm_PWM.c **** 
 493:.\Generated_Source\PSoC5/Arm_PWM.c **** 
 494:.\Generated_Source\PSoC5/Arm_PWM.c ****     /*******************************************************************************
 495:.\Generated_Source\PSoC5/Arm_PWM.c ****     * Function Name: Arm_PWM_WriteCompare
 496:.\Generated_Source\PSoC5/Arm_PWM.c ****     ********************************************************************************
 497:.\Generated_Source\PSoC5/Arm_PWM.c ****     *
 498:.\Generated_Source\PSoC5/Arm_PWM.c ****     * Summary:
 499:.\Generated_Source\PSoC5/Arm_PWM.c ****     *  This funtion is used to change the compare1 value when the PWM is in Dither
 500:.\Generated_Source\PSoC5/Arm_PWM.c ****     *  mode. The compare output will reflect the new value on the next UDB clock.
 501:.\Generated_Source\PSoC5/Arm_PWM.c ****     *  The compare output will be driven high when the present counter value is
 502:.\Generated_Source\PSoC5/Arm_PWM.c ****     *  compared to the compare value based on the compare mode defined in
 503:.\Generated_Source\PSoC5/Arm_PWM.c ****     *  Dither Mode.
 504:.\Generated_Source\PSoC5/Arm_PWM.c ****     *
 505:.\Generated_Source\PSoC5/Arm_PWM.c ****     * Parameters:
 506:.\Generated_Source\PSoC5/Arm_PWM.c ****     *  compare:  New compare value.
 507:.\Generated_Source\PSoC5/Arm_PWM.c ****     *
 508:.\Generated_Source\PSoC5/Arm_PWM.c ****     * Return:
 509:.\Generated_Source\PSoC5/Arm_PWM.c ****     *  None
 510:.\Generated_Source\PSoC5/Arm_PWM.c ****     *
 511:.\Generated_Source\PSoC5/Arm_PWM.c ****     * Side Effects:
 512:.\Generated_Source\PSoC5/Arm_PWM.c ****     *  This function is only available if the PWM mode parameter is set to
 513:.\Generated_Source\PSoC5/Arm_PWM.c ****     *  Dither Mode, Center Aligned Mode or One Output Mode
 514:.\Generated_Source\PSoC5/Arm_PWM.c ****     *
 515:.\Generated_Source\PSoC5/Arm_PWM.c ****     *******************************************************************************/
 516:.\Generated_Source\PSoC5/Arm_PWM.c ****     void Arm_PWM_WriteCompare(uint16 compare) \
 517:.\Generated_Source\PSoC5/Arm_PWM.c ****                                        
ARM GAS  C:\Users\xavieran\AppData\Local\Temp\cc46c4Ur.s 			page 17


 518:.\Generated_Source\PSoC5/Arm_PWM.c ****     {
 395              		.loc 1 518 0
 396              		.cfi_startproc
 397              		@ args = 0, pretend = 0, frame = 8
 398              		@ frame_needed = 1, uses_anonymous_args = 0
 399              		@ link register save eliminated.
 400 0000 80B4     		push	{r7}
 401              		.cfi_def_cfa_offset 4
 402              		.cfi_offset 7, -4
 403 0002 83B0     		sub	sp, sp, #12
 404              		.cfi_def_cfa_offset 16
 405 0004 00AF     		add	r7, sp, #0
 406              		.cfi_def_cfa_register 7
 407 0006 0346     		mov	r3, r0
 408 0008 FB80     		strh	r3, [r7, #6]	@ movhi
 519:.\Generated_Source\PSoC5/Arm_PWM.c ****         #if(Arm_PWM_UsingFixedFunction)
 520:.\Generated_Source\PSoC5/Arm_PWM.c ****             CY_SET_REG16(Arm_PWM_COMPARE1_LSB_PTR, (uint16)compare);
 521:.\Generated_Source\PSoC5/Arm_PWM.c ****         #else
 522:.\Generated_Source\PSoC5/Arm_PWM.c ****             CY_SET_REG16(Arm_PWM_COMPARE1_LSB_PTR, compare);
 409              		.loc 1 522 0
 410 000a 044B     		ldr	r3, .L28
 411 000c FA88     		ldrh	r2, [r7, #6]	@ movhi
 412 000e 1A80     		strh	r2, [r3]	@ movhi
 523:.\Generated_Source\PSoC5/Arm_PWM.c ****         #endif /* (Arm_PWM_UsingFixedFunction) */
 524:.\Generated_Source\PSoC5/Arm_PWM.c **** 
 525:.\Generated_Source\PSoC5/Arm_PWM.c ****         #if (Arm_PWM_PWMMode == Arm_PWM__B_PWM__DITHER)
 526:.\Generated_Source\PSoC5/Arm_PWM.c ****             #if(Arm_PWM_UsingFixedFunction)
 527:.\Generated_Source\PSoC5/Arm_PWM.c ****                 CY_SET_REG16(Arm_PWM_COMPARE2_LSB_PTR, (uint16)(compare + 1u));
 528:.\Generated_Source\PSoC5/Arm_PWM.c ****             #else
 529:.\Generated_Source\PSoC5/Arm_PWM.c ****                 CY_SET_REG16(Arm_PWM_COMPARE2_LSB_PTR, (compare + 1u));
 530:.\Generated_Source\PSoC5/Arm_PWM.c ****             #endif /* (Arm_PWM_UsingFixedFunction) */
 531:.\Generated_Source\PSoC5/Arm_PWM.c ****         #endif /* (Arm_PWM_PWMMode == Arm_PWM__B_PWM__DITHER) */
 532:.\Generated_Source\PSoC5/Arm_PWM.c ****     }
 413              		.loc 1 532 0
 414 0010 0C37     		adds	r7, r7, #12
 415 0012 BD46     		mov	sp, r7
 416              		@ sp needed
 417 0014 5DF8047B 		ldr	r7, [sp], #4
 418 0018 7047     		bx	lr
 419              	.L29:
 420 001a 00BF     		.align	2
 421              	.L28:
 422 001c 44680040 		.word	1073768516
 423              		.cfi_endproc
 424              	.LFE8:
 425              		.size	Arm_PWM_WriteCompare, .-Arm_PWM_WriteCompare
 426              		.section	.text.Arm_PWM_SetInterruptMode,"ax",%progbits
 427              		.align	2
 428              		.global	Arm_PWM_SetInterruptMode
 429              		.thumb
 430              		.thumb_func
 431              		.type	Arm_PWM_SetInterruptMode, %function
 432              	Arm_PWM_SetInterruptMode:
 433              	.LFB9:
 533:.\Generated_Source\PSoC5/Arm_PWM.c **** 
 534:.\Generated_Source\PSoC5/Arm_PWM.c **** 
 535:.\Generated_Source\PSoC5/Arm_PWM.c **** #else
ARM GAS  C:\Users\xavieran\AppData\Local\Temp\cc46c4Ur.s 			page 18


 536:.\Generated_Source\PSoC5/Arm_PWM.c **** 
 537:.\Generated_Source\PSoC5/Arm_PWM.c **** 
 538:.\Generated_Source\PSoC5/Arm_PWM.c ****     /*******************************************************************************
 539:.\Generated_Source\PSoC5/Arm_PWM.c ****     * Function Name: Arm_PWM_WriteCompare1
 540:.\Generated_Source\PSoC5/Arm_PWM.c ****     ********************************************************************************
 541:.\Generated_Source\PSoC5/Arm_PWM.c ****     *
 542:.\Generated_Source\PSoC5/Arm_PWM.c ****     * Summary:
 543:.\Generated_Source\PSoC5/Arm_PWM.c ****     *  This funtion is used to change the compare1 value.  The compare output will
 544:.\Generated_Source\PSoC5/Arm_PWM.c ****     *  reflect the new value on the next UDB clock.  The compare output will be
 545:.\Generated_Source\PSoC5/Arm_PWM.c ****     *  driven high when the present counter value is less than or less than or
 546:.\Generated_Source\PSoC5/Arm_PWM.c ****     *  equal to the compare register, depending on the mode.
 547:.\Generated_Source\PSoC5/Arm_PWM.c ****     *
 548:.\Generated_Source\PSoC5/Arm_PWM.c ****     * Parameters:
 549:.\Generated_Source\PSoC5/Arm_PWM.c ****     *  compare:  New compare value.
 550:.\Generated_Source\PSoC5/Arm_PWM.c ****     *
 551:.\Generated_Source\PSoC5/Arm_PWM.c ****     * Return:
 552:.\Generated_Source\PSoC5/Arm_PWM.c ****     *  None
 553:.\Generated_Source\PSoC5/Arm_PWM.c ****     *
 554:.\Generated_Source\PSoC5/Arm_PWM.c ****     *******************************************************************************/
 555:.\Generated_Source\PSoC5/Arm_PWM.c ****     void Arm_PWM_WriteCompare1(uint16 compare) \
 556:.\Generated_Source\PSoC5/Arm_PWM.c ****                                         
 557:.\Generated_Source\PSoC5/Arm_PWM.c ****     {
 558:.\Generated_Source\PSoC5/Arm_PWM.c ****         #if(Arm_PWM_UsingFixedFunction)
 559:.\Generated_Source\PSoC5/Arm_PWM.c ****             CY_SET_REG16(Arm_PWM_COMPARE1_LSB_PTR, (uint16)compare);
 560:.\Generated_Source\PSoC5/Arm_PWM.c ****         #else
 561:.\Generated_Source\PSoC5/Arm_PWM.c ****             CY_SET_REG16(Arm_PWM_COMPARE1_LSB_PTR, compare);
 562:.\Generated_Source\PSoC5/Arm_PWM.c ****         #endif /* (Arm_PWM_UsingFixedFunction) */
 563:.\Generated_Source\PSoC5/Arm_PWM.c ****     }
 564:.\Generated_Source\PSoC5/Arm_PWM.c **** 
 565:.\Generated_Source\PSoC5/Arm_PWM.c **** 
 566:.\Generated_Source\PSoC5/Arm_PWM.c ****     /*******************************************************************************
 567:.\Generated_Source\PSoC5/Arm_PWM.c ****     * Function Name: Arm_PWM_WriteCompare2
 568:.\Generated_Source\PSoC5/Arm_PWM.c ****     ********************************************************************************
 569:.\Generated_Source\PSoC5/Arm_PWM.c ****     *
 570:.\Generated_Source\PSoC5/Arm_PWM.c ****     * Summary:
 571:.\Generated_Source\PSoC5/Arm_PWM.c ****     *  This funtion is used to change the compare value, for compare1 output.
 572:.\Generated_Source\PSoC5/Arm_PWM.c ****     *  The compare output will reflect the new value on the next UDB clock.
 573:.\Generated_Source\PSoC5/Arm_PWM.c ****     *  The compare output will be driven high when the present counter value is
 574:.\Generated_Source\PSoC5/Arm_PWM.c ****     *  less than or less than or equal to the compare register, depending on the
 575:.\Generated_Source\PSoC5/Arm_PWM.c ****     *  mode.
 576:.\Generated_Source\PSoC5/Arm_PWM.c ****     *
 577:.\Generated_Source\PSoC5/Arm_PWM.c ****     * Parameters:
 578:.\Generated_Source\PSoC5/Arm_PWM.c ****     *  compare:  New compare value.
 579:.\Generated_Source\PSoC5/Arm_PWM.c ****     *
 580:.\Generated_Source\PSoC5/Arm_PWM.c ****     * Return:
 581:.\Generated_Source\PSoC5/Arm_PWM.c ****     *  None
 582:.\Generated_Source\PSoC5/Arm_PWM.c ****     *
 583:.\Generated_Source\PSoC5/Arm_PWM.c ****     *******************************************************************************/
 584:.\Generated_Source\PSoC5/Arm_PWM.c ****     void Arm_PWM_WriteCompare2(uint16 compare) \
 585:.\Generated_Source\PSoC5/Arm_PWM.c ****                                         
 586:.\Generated_Source\PSoC5/Arm_PWM.c ****     {
 587:.\Generated_Source\PSoC5/Arm_PWM.c ****         #if(Arm_PWM_UsingFixedFunction)
 588:.\Generated_Source\PSoC5/Arm_PWM.c ****             CY_SET_REG16(Arm_PWM_COMPARE2_LSB_PTR, compare);
 589:.\Generated_Source\PSoC5/Arm_PWM.c ****         #else
 590:.\Generated_Source\PSoC5/Arm_PWM.c ****             CY_SET_REG16(Arm_PWM_COMPARE2_LSB_PTR, compare);
 591:.\Generated_Source\PSoC5/Arm_PWM.c ****         #endif /* (Arm_PWM_UsingFixedFunction) */
 592:.\Generated_Source\PSoC5/Arm_PWM.c ****     }
ARM GAS  C:\Users\xavieran\AppData\Local\Temp\cc46c4Ur.s 			page 19


 593:.\Generated_Source\PSoC5/Arm_PWM.c **** #endif /* UseOneCompareMode */
 594:.\Generated_Source\PSoC5/Arm_PWM.c **** 
 595:.\Generated_Source\PSoC5/Arm_PWM.c **** #if (Arm_PWM_DeadBandUsed)
 596:.\Generated_Source\PSoC5/Arm_PWM.c **** 
 597:.\Generated_Source\PSoC5/Arm_PWM.c **** 
 598:.\Generated_Source\PSoC5/Arm_PWM.c ****     /*******************************************************************************
 599:.\Generated_Source\PSoC5/Arm_PWM.c ****     * Function Name: Arm_PWM_WriteDeadTime
 600:.\Generated_Source\PSoC5/Arm_PWM.c ****     ********************************************************************************
 601:.\Generated_Source\PSoC5/Arm_PWM.c ****     *
 602:.\Generated_Source\PSoC5/Arm_PWM.c ****     * Summary:
 603:.\Generated_Source\PSoC5/Arm_PWM.c ****     *  This function writes the dead-band counts to the corresponding register
 604:.\Generated_Source\PSoC5/Arm_PWM.c ****     *
 605:.\Generated_Source\PSoC5/Arm_PWM.c ****     * Parameters:
 606:.\Generated_Source\PSoC5/Arm_PWM.c ****     *  deadtime:  Number of counts for dead time
 607:.\Generated_Source\PSoC5/Arm_PWM.c ****     *
 608:.\Generated_Source\PSoC5/Arm_PWM.c ****     * Return:
 609:.\Generated_Source\PSoC5/Arm_PWM.c ****     *  None
 610:.\Generated_Source\PSoC5/Arm_PWM.c ****     *
 611:.\Generated_Source\PSoC5/Arm_PWM.c ****     *******************************************************************************/
 612:.\Generated_Source\PSoC5/Arm_PWM.c ****     void Arm_PWM_WriteDeadTime(uint8 deadtime) 
 613:.\Generated_Source\PSoC5/Arm_PWM.c ****     {
 614:.\Generated_Source\PSoC5/Arm_PWM.c ****         /* If using the Dead Band 1-255 mode then just write the register */
 615:.\Generated_Source\PSoC5/Arm_PWM.c ****         #if(!Arm_PWM_DeadBand2_4)
 616:.\Generated_Source\PSoC5/Arm_PWM.c ****             CY_SET_REG8(Arm_PWM_DEADBAND_COUNT_PTR, deadtime);
 617:.\Generated_Source\PSoC5/Arm_PWM.c ****         #else
 618:.\Generated_Source\PSoC5/Arm_PWM.c ****             /* Otherwise the data has to be masked and offset */
 619:.\Generated_Source\PSoC5/Arm_PWM.c ****             /* Clear existing data */
 620:.\Generated_Source\PSoC5/Arm_PWM.c ****             Arm_PWM_DEADBAND_COUNT &= ((uint8)(~Arm_PWM_DEADBAND_COUNT_MASK));
 621:.\Generated_Source\PSoC5/Arm_PWM.c **** 
 622:.\Generated_Source\PSoC5/Arm_PWM.c ****             /* Set new dead time */
 623:.\Generated_Source\PSoC5/Arm_PWM.c ****             #if(Arm_PWM_DEADBAND_COUNT_SHIFT)
 624:.\Generated_Source\PSoC5/Arm_PWM.c ****                 Arm_PWM_DEADBAND_COUNT |= ((uint8)((uint8)deadtime << Arm_PWM_DEADBAND_COUNT_SHIFT)
 625:.\Generated_Source\PSoC5/Arm_PWM.c ****                                                     Arm_PWM_DEADBAND_COUNT_MASK;
 626:.\Generated_Source\PSoC5/Arm_PWM.c ****             #else
 627:.\Generated_Source\PSoC5/Arm_PWM.c ****                 Arm_PWM_DEADBAND_COUNT |= deadtime & Arm_PWM_DEADBAND_COUNT_MASK;
 628:.\Generated_Source\PSoC5/Arm_PWM.c ****             #endif /* (Arm_PWM_DEADBAND_COUNT_SHIFT) */
 629:.\Generated_Source\PSoC5/Arm_PWM.c **** 
 630:.\Generated_Source\PSoC5/Arm_PWM.c ****         #endif /* (!Arm_PWM_DeadBand2_4) */
 631:.\Generated_Source\PSoC5/Arm_PWM.c ****     }
 632:.\Generated_Source\PSoC5/Arm_PWM.c **** 
 633:.\Generated_Source\PSoC5/Arm_PWM.c **** 
 634:.\Generated_Source\PSoC5/Arm_PWM.c ****     /*******************************************************************************
 635:.\Generated_Source\PSoC5/Arm_PWM.c ****     * Function Name: Arm_PWM_ReadDeadTime
 636:.\Generated_Source\PSoC5/Arm_PWM.c ****     ********************************************************************************
 637:.\Generated_Source\PSoC5/Arm_PWM.c ****     *
 638:.\Generated_Source\PSoC5/Arm_PWM.c ****     * Summary:
 639:.\Generated_Source\PSoC5/Arm_PWM.c ****     *  This function reads the dead-band counts from the corresponding register
 640:.\Generated_Source\PSoC5/Arm_PWM.c ****     *
 641:.\Generated_Source\PSoC5/Arm_PWM.c ****     * Parameters:
 642:.\Generated_Source\PSoC5/Arm_PWM.c ****     *  None
 643:.\Generated_Source\PSoC5/Arm_PWM.c ****     *
 644:.\Generated_Source\PSoC5/Arm_PWM.c ****     * Return:
 645:.\Generated_Source\PSoC5/Arm_PWM.c ****     *  Dead Band Counts
 646:.\Generated_Source\PSoC5/Arm_PWM.c ****     *
 647:.\Generated_Source\PSoC5/Arm_PWM.c ****     *******************************************************************************/
 648:.\Generated_Source\PSoC5/Arm_PWM.c ****     uint8 Arm_PWM_ReadDeadTime(void) 
 649:.\Generated_Source\PSoC5/Arm_PWM.c ****     {
ARM GAS  C:\Users\xavieran\AppData\Local\Temp\cc46c4Ur.s 			page 20


 650:.\Generated_Source\PSoC5/Arm_PWM.c ****         /* If using the Dead Band 1-255 mode then just read the register */
 651:.\Generated_Source\PSoC5/Arm_PWM.c ****         #if(!Arm_PWM_DeadBand2_4)
 652:.\Generated_Source\PSoC5/Arm_PWM.c ****             return (CY_GET_REG8(Arm_PWM_DEADBAND_COUNT_PTR));
 653:.\Generated_Source\PSoC5/Arm_PWM.c ****         #else
 654:.\Generated_Source\PSoC5/Arm_PWM.c **** 
 655:.\Generated_Source\PSoC5/Arm_PWM.c ****             /* Otherwise the data has to be masked and offset */
 656:.\Generated_Source\PSoC5/Arm_PWM.c ****             #if(Arm_PWM_DEADBAND_COUNT_SHIFT)
 657:.\Generated_Source\PSoC5/Arm_PWM.c ****                 return ((uint8)(((uint8)(Arm_PWM_DEADBAND_COUNT & Arm_PWM_DEADBAND_COUNT_MASK)) >>
 658:.\Generated_Source\PSoC5/Arm_PWM.c ****                                                                            Arm_PWM_DEADBAND_COUNT_S
 659:.\Generated_Source\PSoC5/Arm_PWM.c ****             #else
 660:.\Generated_Source\PSoC5/Arm_PWM.c ****                 return (Arm_PWM_DEADBAND_COUNT & Arm_PWM_DEADBAND_COUNT_MASK);
 661:.\Generated_Source\PSoC5/Arm_PWM.c ****             #endif /* (Arm_PWM_DEADBAND_COUNT_SHIFT) */
 662:.\Generated_Source\PSoC5/Arm_PWM.c ****         #endif /* (!Arm_PWM_DeadBand2_4) */
 663:.\Generated_Source\PSoC5/Arm_PWM.c ****     }
 664:.\Generated_Source\PSoC5/Arm_PWM.c **** #endif /* DeadBandUsed */
 665:.\Generated_Source\PSoC5/Arm_PWM.c **** 
 666:.\Generated_Source\PSoC5/Arm_PWM.c **** #if (Arm_PWM_UseStatus || Arm_PWM_UsingFixedFunction)
 667:.\Generated_Source\PSoC5/Arm_PWM.c **** 
 668:.\Generated_Source\PSoC5/Arm_PWM.c **** 
 669:.\Generated_Source\PSoC5/Arm_PWM.c ****     /*******************************************************************************
 670:.\Generated_Source\PSoC5/Arm_PWM.c ****     * Function Name: Arm_PWM_SetInterruptMode
 671:.\Generated_Source\PSoC5/Arm_PWM.c ****     ********************************************************************************
 672:.\Generated_Source\PSoC5/Arm_PWM.c ****     *
 673:.\Generated_Source\PSoC5/Arm_PWM.c ****     * Summary:
 674:.\Generated_Source\PSoC5/Arm_PWM.c ****     *  This function configures the interrupts mask control of theinterrupt
 675:.\Generated_Source\PSoC5/Arm_PWM.c ****     *  source status register.
 676:.\Generated_Source\PSoC5/Arm_PWM.c ****     *
 677:.\Generated_Source\PSoC5/Arm_PWM.c ****     * Parameters:
 678:.\Generated_Source\PSoC5/Arm_PWM.c ****     *  uint8 interruptMode: Bit field containing the interrupt sources enabled
 679:.\Generated_Source\PSoC5/Arm_PWM.c ****     *
 680:.\Generated_Source\PSoC5/Arm_PWM.c ****     * Return:
 681:.\Generated_Source\PSoC5/Arm_PWM.c ****     *  None
 682:.\Generated_Source\PSoC5/Arm_PWM.c ****     *
 683:.\Generated_Source\PSoC5/Arm_PWM.c ****     *******************************************************************************/
 684:.\Generated_Source\PSoC5/Arm_PWM.c ****     void Arm_PWM_SetInterruptMode(uint8 interruptMode) 
 685:.\Generated_Source\PSoC5/Arm_PWM.c ****     {
 434              		.loc 1 685 0
 435              		.cfi_startproc
 436              		@ args = 0, pretend = 0, frame = 8
 437              		@ frame_needed = 1, uses_anonymous_args = 0
 438              		@ link register save eliminated.
 439 0000 80B4     		push	{r7}
 440              		.cfi_def_cfa_offset 4
 441              		.cfi_offset 7, -4
 442 0002 83B0     		sub	sp, sp, #12
 443              		.cfi_def_cfa_offset 16
 444 0004 00AF     		add	r7, sp, #0
 445              		.cfi_def_cfa_register 7
 446 0006 0346     		mov	r3, r0
 447 0008 FB71     		strb	r3, [r7, #7]
 686:.\Generated_Source\PSoC5/Arm_PWM.c ****         CY_SET_REG8(Arm_PWM_STATUS_MASK_PTR, interruptMode);
 448              		.loc 1 686 0
 449 000a 044B     		ldr	r3, .L31
 450 000c FA79     		ldrb	r2, [r7, #7]
 451 000e 1A70     		strb	r2, [r3]
 687:.\Generated_Source\PSoC5/Arm_PWM.c ****     }
 452              		.loc 1 687 0
ARM GAS  C:\Users\xavieran\AppData\Local\Temp\cc46c4Ur.s 			page 21


 453 0010 0C37     		adds	r7, r7, #12
 454 0012 BD46     		mov	sp, r7
 455              		@ sp needed
 456 0014 5DF8047B 		ldr	r7, [sp], #4
 457 0018 7047     		bx	lr
 458              	.L32:
 459 001a 00BF     		.align	2
 460              	.L31:
 461 001c 87640040 		.word	1073767559
 462              		.cfi_endproc
 463              	.LFE9:
 464              		.size	Arm_PWM_SetInterruptMode, .-Arm_PWM_SetInterruptMode
 465              		.section	.text.Arm_PWM_ReadStatusRegister,"ax",%progbits
 466              		.align	2
 467              		.global	Arm_PWM_ReadStatusRegister
 468              		.thumb
 469              		.thumb_func
 470              		.type	Arm_PWM_ReadStatusRegister, %function
 471              	Arm_PWM_ReadStatusRegister:
 472              	.LFB10:
 688:.\Generated_Source\PSoC5/Arm_PWM.c **** 
 689:.\Generated_Source\PSoC5/Arm_PWM.c **** 
 690:.\Generated_Source\PSoC5/Arm_PWM.c ****     /*******************************************************************************
 691:.\Generated_Source\PSoC5/Arm_PWM.c ****     * Function Name: Arm_PWM_ReadStatusRegister
 692:.\Generated_Source\PSoC5/Arm_PWM.c ****     ********************************************************************************
 693:.\Generated_Source\PSoC5/Arm_PWM.c ****     *
 694:.\Generated_Source\PSoC5/Arm_PWM.c ****     * Summary:
 695:.\Generated_Source\PSoC5/Arm_PWM.c ****     *  This function returns the current state of the status register.
 696:.\Generated_Source\PSoC5/Arm_PWM.c ****     *
 697:.\Generated_Source\PSoC5/Arm_PWM.c ****     * Parameters:
 698:.\Generated_Source\PSoC5/Arm_PWM.c ****     *  None
 699:.\Generated_Source\PSoC5/Arm_PWM.c ****     *
 700:.\Generated_Source\PSoC5/Arm_PWM.c ****     * Return:
 701:.\Generated_Source\PSoC5/Arm_PWM.c ****     *  uint8 : Current status register value. The status register bits are:
 702:.\Generated_Source\PSoC5/Arm_PWM.c ****     *  [7:6] : Unused(0)
 703:.\Generated_Source\PSoC5/Arm_PWM.c ****     *  [5]   : Kill event output
 704:.\Generated_Source\PSoC5/Arm_PWM.c ****     *  [4]   : FIFO not empty
 705:.\Generated_Source\PSoC5/Arm_PWM.c ****     *  [3]   : FIFO full
 706:.\Generated_Source\PSoC5/Arm_PWM.c ****     *  [2]   : Terminal count
 707:.\Generated_Source\PSoC5/Arm_PWM.c ****     *  [1]   : Compare output 2
 708:.\Generated_Source\PSoC5/Arm_PWM.c ****     *  [0]   : Compare output 1
 709:.\Generated_Source\PSoC5/Arm_PWM.c ****     *
 710:.\Generated_Source\PSoC5/Arm_PWM.c ****     *******************************************************************************/
 711:.\Generated_Source\PSoC5/Arm_PWM.c ****     uint8 Arm_PWM_ReadStatusRegister(void) 
 712:.\Generated_Source\PSoC5/Arm_PWM.c ****     {
 473              		.loc 1 712 0
 474              		.cfi_startproc
 475              		@ args = 0, pretend = 0, frame = 0
 476              		@ frame_needed = 1, uses_anonymous_args = 0
 477              		@ link register save eliminated.
 478 0000 80B4     		push	{r7}
 479              		.cfi_def_cfa_offset 4
 480              		.cfi_offset 7, -4
 481 0002 00AF     		add	r7, sp, #0
 482              		.cfi_def_cfa_register 7
 713:.\Generated_Source\PSoC5/Arm_PWM.c ****         return (CY_GET_REG8(Arm_PWM_STATUS_PTR));
 483              		.loc 1 713 0
ARM GAS  C:\Users\xavieran\AppData\Local\Temp\cc46c4Ur.s 			page 22


 484 0004 034B     		ldr	r3, .L35
 485 0006 1B78     		ldrb	r3, [r3]
 486 0008 DBB2     		uxtb	r3, r3
 714:.\Generated_Source\PSoC5/Arm_PWM.c ****     }
 487              		.loc 1 714 0
 488 000a 1846     		mov	r0, r3
 489 000c BD46     		mov	sp, r7
 490              		@ sp needed
 491 000e 5DF8047B 		ldr	r7, [sp], #4
 492 0012 7047     		bx	lr
 493              	.L36:
 494              		.align	2
 495              	.L35:
 496 0014 67640040 		.word	1073767527
 497              		.cfi_endproc
 498              	.LFE10:
 499              		.size	Arm_PWM_ReadStatusRegister, .-Arm_PWM_ReadStatusRegister
 500              		.section	.text.Arm_PWM_ReadControlRegister,"ax",%progbits
 501              		.align	2
 502              		.global	Arm_PWM_ReadControlRegister
 503              		.thumb
 504              		.thumb_func
 505              		.type	Arm_PWM_ReadControlRegister, %function
 506              	Arm_PWM_ReadControlRegister:
 507              	.LFB11:
 715:.\Generated_Source\PSoC5/Arm_PWM.c **** 
 716:.\Generated_Source\PSoC5/Arm_PWM.c **** #endif /* (Arm_PWM_UseStatus || Arm_PWM_UsingFixedFunction) */
 717:.\Generated_Source\PSoC5/Arm_PWM.c **** 
 718:.\Generated_Source\PSoC5/Arm_PWM.c **** 
 719:.\Generated_Source\PSoC5/Arm_PWM.c **** #if (Arm_PWM_UseControl)
 720:.\Generated_Source\PSoC5/Arm_PWM.c **** 
 721:.\Generated_Source\PSoC5/Arm_PWM.c **** 
 722:.\Generated_Source\PSoC5/Arm_PWM.c ****     /*******************************************************************************
 723:.\Generated_Source\PSoC5/Arm_PWM.c ****     * Function Name: Arm_PWM_ReadControlRegister
 724:.\Generated_Source\PSoC5/Arm_PWM.c ****     ********************************************************************************
 725:.\Generated_Source\PSoC5/Arm_PWM.c ****     *
 726:.\Generated_Source\PSoC5/Arm_PWM.c ****     * Summary:
 727:.\Generated_Source\PSoC5/Arm_PWM.c ****     *  Returns the current state of the control register. This API is available
 728:.\Generated_Source\PSoC5/Arm_PWM.c ****     *  only if the control register is not removed.
 729:.\Generated_Source\PSoC5/Arm_PWM.c ****     *
 730:.\Generated_Source\PSoC5/Arm_PWM.c ****     * Parameters:
 731:.\Generated_Source\PSoC5/Arm_PWM.c ****     *  None
 732:.\Generated_Source\PSoC5/Arm_PWM.c ****     *
 733:.\Generated_Source\PSoC5/Arm_PWM.c ****     * Return:
 734:.\Generated_Source\PSoC5/Arm_PWM.c ****     *  uint8 : Current control register value
 735:.\Generated_Source\PSoC5/Arm_PWM.c ****     *
 736:.\Generated_Source\PSoC5/Arm_PWM.c ****     *******************************************************************************/
 737:.\Generated_Source\PSoC5/Arm_PWM.c ****     uint8 Arm_PWM_ReadControlRegister(void) 
 738:.\Generated_Source\PSoC5/Arm_PWM.c ****     {
 508              		.loc 1 738 0
 509              		.cfi_startproc
 510              		@ args = 0, pretend = 0, frame = 8
 511              		@ frame_needed = 1, uses_anonymous_args = 0
 512              		@ link register save eliminated.
 513 0000 80B4     		push	{r7}
 514              		.cfi_def_cfa_offset 4
 515              		.cfi_offset 7, -4
ARM GAS  C:\Users\xavieran\AppData\Local\Temp\cc46c4Ur.s 			page 23


 516 0002 83B0     		sub	sp, sp, #12
 517              		.cfi_def_cfa_offset 16
 518 0004 00AF     		add	r7, sp, #0
 519              		.cfi_def_cfa_register 7
 739:.\Generated_Source\PSoC5/Arm_PWM.c ****         uint8 result;
 740:.\Generated_Source\PSoC5/Arm_PWM.c **** 
 741:.\Generated_Source\PSoC5/Arm_PWM.c ****         result = CY_GET_REG8(Arm_PWM_CONTROL_PTR);
 520              		.loc 1 741 0
 521 0006 054B     		ldr	r3, .L39
 522 0008 1B78     		ldrb	r3, [r3]
 523 000a FB71     		strb	r3, [r7, #7]
 742:.\Generated_Source\PSoC5/Arm_PWM.c ****         return (result);
 524              		.loc 1 742 0
 525 000c FB79     		ldrb	r3, [r7, #7]	@ zero_extendqisi2
 743:.\Generated_Source\PSoC5/Arm_PWM.c ****     }
 526              		.loc 1 743 0
 527 000e 1846     		mov	r0, r3
 528 0010 0C37     		adds	r7, r7, #12
 529 0012 BD46     		mov	sp, r7
 530              		@ sp needed
 531 0014 5DF8047B 		ldr	r7, [sp], #4
 532 0018 7047     		bx	lr
 533              	.L40:
 534 001a 00BF     		.align	2
 535              	.L39:
 536 001c 7D640040 		.word	1073767549
 537              		.cfi_endproc
 538              	.LFE11:
 539              		.size	Arm_PWM_ReadControlRegister, .-Arm_PWM_ReadControlRegister
 540              		.section	.text.Arm_PWM_WriteControlRegister,"ax",%progbits
 541              		.align	2
 542              		.global	Arm_PWM_WriteControlRegister
 543              		.thumb
 544              		.thumb_func
 545              		.type	Arm_PWM_WriteControlRegister, %function
 546              	Arm_PWM_WriteControlRegister:
 547              	.LFB12:
 744:.\Generated_Source\PSoC5/Arm_PWM.c **** 
 745:.\Generated_Source\PSoC5/Arm_PWM.c **** 
 746:.\Generated_Source\PSoC5/Arm_PWM.c ****     /*******************************************************************************
 747:.\Generated_Source\PSoC5/Arm_PWM.c ****     * Function Name: Arm_PWM_WriteControlRegister
 748:.\Generated_Source\PSoC5/Arm_PWM.c ****     ********************************************************************************
 749:.\Generated_Source\PSoC5/Arm_PWM.c ****     *
 750:.\Generated_Source\PSoC5/Arm_PWM.c ****     * Summary:
 751:.\Generated_Source\PSoC5/Arm_PWM.c ****     *  Sets the bit field of the control register. This API is available only if
 752:.\Generated_Source\PSoC5/Arm_PWM.c ****     *  the control register is not removed.
 753:.\Generated_Source\PSoC5/Arm_PWM.c ****     *
 754:.\Generated_Source\PSoC5/Arm_PWM.c ****     * Parameters:
 755:.\Generated_Source\PSoC5/Arm_PWM.c ****     *  uint8 control: Control register bit field, The status register bits are:
 756:.\Generated_Source\PSoC5/Arm_PWM.c ****     *  [7]   : PWM Enable
 757:.\Generated_Source\PSoC5/Arm_PWM.c ****     *  [6]   : Reset
 758:.\Generated_Source\PSoC5/Arm_PWM.c ****     *  [5:3] : Compare Mode2
 759:.\Generated_Source\PSoC5/Arm_PWM.c ****     *  [2:0] : Compare Mode2
 760:.\Generated_Source\PSoC5/Arm_PWM.c ****     *
 761:.\Generated_Source\PSoC5/Arm_PWM.c ****     * Return:
 762:.\Generated_Source\PSoC5/Arm_PWM.c ****     *  None
 763:.\Generated_Source\PSoC5/Arm_PWM.c ****     *
ARM GAS  C:\Users\xavieran\AppData\Local\Temp\cc46c4Ur.s 			page 24


 764:.\Generated_Source\PSoC5/Arm_PWM.c ****     *******************************************************************************/
 765:.\Generated_Source\PSoC5/Arm_PWM.c ****     void Arm_PWM_WriteControlRegister(uint8 control) 
 766:.\Generated_Source\PSoC5/Arm_PWM.c ****     {
 548              		.loc 1 766 0
 549              		.cfi_startproc
 550              		@ args = 0, pretend = 0, frame = 8
 551              		@ frame_needed = 1, uses_anonymous_args = 0
 552              		@ link register save eliminated.
 553 0000 80B4     		push	{r7}
 554              		.cfi_def_cfa_offset 4
 555              		.cfi_offset 7, -4
 556 0002 83B0     		sub	sp, sp, #12
 557              		.cfi_def_cfa_offset 16
 558 0004 00AF     		add	r7, sp, #0
 559              		.cfi_def_cfa_register 7
 560 0006 0346     		mov	r3, r0
 561 0008 FB71     		strb	r3, [r7, #7]
 767:.\Generated_Source\PSoC5/Arm_PWM.c ****         CY_SET_REG8(Arm_PWM_CONTROL_PTR, control);
 562              		.loc 1 767 0
 563 000a 044B     		ldr	r3, .L42
 564 000c FA79     		ldrb	r2, [r7, #7]
 565 000e 1A70     		strb	r2, [r3]
 768:.\Generated_Source\PSoC5/Arm_PWM.c ****     }
 566              		.loc 1 768 0
 567 0010 0C37     		adds	r7, r7, #12
 568 0012 BD46     		mov	sp, r7
 569              		@ sp needed
 570 0014 5DF8047B 		ldr	r7, [sp], #4
 571 0018 7047     		bx	lr
 572              	.L43:
 573 001a 00BF     		.align	2
 574              	.L42:
 575 001c 7D640040 		.word	1073767549
 576              		.cfi_endproc
 577              	.LFE12:
 578              		.size	Arm_PWM_WriteControlRegister, .-Arm_PWM_WriteControlRegister
 579              		.section	.text.Arm_PWM_ReadCapture,"ax",%progbits
 580              		.align	2
 581              		.global	Arm_PWM_ReadCapture
 582              		.thumb
 583              		.thumb_func
 584              		.type	Arm_PWM_ReadCapture, %function
 585              	Arm_PWM_ReadCapture:
 586              	.LFB13:
 769:.\Generated_Source\PSoC5/Arm_PWM.c **** 
 770:.\Generated_Source\PSoC5/Arm_PWM.c **** #endif /* (Arm_PWM_UseControl) */
 771:.\Generated_Source\PSoC5/Arm_PWM.c **** 
 772:.\Generated_Source\PSoC5/Arm_PWM.c **** 
 773:.\Generated_Source\PSoC5/Arm_PWM.c **** #if (!Arm_PWM_UsingFixedFunction)
 774:.\Generated_Source\PSoC5/Arm_PWM.c **** 
 775:.\Generated_Source\PSoC5/Arm_PWM.c **** 
 776:.\Generated_Source\PSoC5/Arm_PWM.c ****     /*******************************************************************************
 777:.\Generated_Source\PSoC5/Arm_PWM.c ****     * Function Name: Arm_PWM_ReadCapture
 778:.\Generated_Source\PSoC5/Arm_PWM.c ****     ********************************************************************************
 779:.\Generated_Source\PSoC5/Arm_PWM.c ****     *
 780:.\Generated_Source\PSoC5/Arm_PWM.c ****     * Summary:
 781:.\Generated_Source\PSoC5/Arm_PWM.c ****     *  Reads the capture value from the capture FIFO.
ARM GAS  C:\Users\xavieran\AppData\Local\Temp\cc46c4Ur.s 			page 25


 782:.\Generated_Source\PSoC5/Arm_PWM.c ****     *
 783:.\Generated_Source\PSoC5/Arm_PWM.c ****     * Parameters:
 784:.\Generated_Source\PSoC5/Arm_PWM.c ****     *  None
 785:.\Generated_Source\PSoC5/Arm_PWM.c ****     *
 786:.\Generated_Source\PSoC5/Arm_PWM.c ****     * Return:
 787:.\Generated_Source\PSoC5/Arm_PWM.c ****     *  uint8/uint16: The current capture value
 788:.\Generated_Source\PSoC5/Arm_PWM.c ****     *
 789:.\Generated_Source\PSoC5/Arm_PWM.c ****     *******************************************************************************/
 790:.\Generated_Source\PSoC5/Arm_PWM.c ****     uint16 Arm_PWM_ReadCapture(void) 
 791:.\Generated_Source\PSoC5/Arm_PWM.c ****     {
 587              		.loc 1 791 0
 588              		.cfi_startproc
 589              		@ args = 0, pretend = 0, frame = 0
 590              		@ frame_needed = 1, uses_anonymous_args = 0
 591              		@ link register save eliminated.
 592 0000 80B4     		push	{r7}
 593              		.cfi_def_cfa_offset 4
 594              		.cfi_offset 7, -4
 595 0002 00AF     		add	r7, sp, #0
 596              		.cfi_def_cfa_register 7
 792:.\Generated_Source\PSoC5/Arm_PWM.c ****         return (CY_GET_REG16(Arm_PWM_CAPTURE_LSB_PTR));
 597              		.loc 1 792 0
 598 0004 034B     		ldr	r3, .L46
 599 0006 1B88     		ldrh	r3, [r3]	@ movhi
 600 0008 9BB2     		uxth	r3, r3
 793:.\Generated_Source\PSoC5/Arm_PWM.c ****     }
 601              		.loc 1 793 0
 602 000a 1846     		mov	r0, r3
 603 000c BD46     		mov	sp, r7
 604              		@ sp needed
 605 000e 5DF8047B 		ldr	r7, [sp], #4
 606 0012 7047     		bx	lr
 607              	.L47:
 608              		.align	2
 609              	.L46:
 610 0014 A4680040 		.word	1073768612
 611              		.cfi_endproc
 612              	.LFE13:
 613              		.size	Arm_PWM_ReadCapture, .-Arm_PWM_ReadCapture
 614              		.section	.text.Arm_PWM_ReadCompare,"ax",%progbits
 615              		.align	2
 616              		.global	Arm_PWM_ReadCompare
 617              		.thumb
 618              		.thumb_func
 619              		.type	Arm_PWM_ReadCompare, %function
 620              	Arm_PWM_ReadCompare:
 621              	.LFB14:
 794:.\Generated_Source\PSoC5/Arm_PWM.c **** 
 795:.\Generated_Source\PSoC5/Arm_PWM.c **** #endif /* (!Arm_PWM_UsingFixedFunction) */
 796:.\Generated_Source\PSoC5/Arm_PWM.c **** 
 797:.\Generated_Source\PSoC5/Arm_PWM.c **** 
 798:.\Generated_Source\PSoC5/Arm_PWM.c **** #if (Arm_PWM_UseOneCompareMode)
 799:.\Generated_Source\PSoC5/Arm_PWM.c **** 
 800:.\Generated_Source\PSoC5/Arm_PWM.c **** 
 801:.\Generated_Source\PSoC5/Arm_PWM.c ****     /*******************************************************************************
 802:.\Generated_Source\PSoC5/Arm_PWM.c ****     * Function Name: Arm_PWM_ReadCompare
 803:.\Generated_Source\PSoC5/Arm_PWM.c ****     ********************************************************************************
ARM GAS  C:\Users\xavieran\AppData\Local\Temp\cc46c4Ur.s 			page 26


 804:.\Generated_Source\PSoC5/Arm_PWM.c ****     *
 805:.\Generated_Source\PSoC5/Arm_PWM.c ****     * Summary:
 806:.\Generated_Source\PSoC5/Arm_PWM.c ****     *  Reads the compare value for the compare output when the PWM Mode parameter is
 807:.\Generated_Source\PSoC5/Arm_PWM.c ****     *  set to Dither mode, Center Aligned mode, or One Output mode.
 808:.\Generated_Source\PSoC5/Arm_PWM.c ****     *
 809:.\Generated_Source\PSoC5/Arm_PWM.c ****     * Parameters:
 810:.\Generated_Source\PSoC5/Arm_PWM.c ****     *  None
 811:.\Generated_Source\PSoC5/Arm_PWM.c ****     *
 812:.\Generated_Source\PSoC5/Arm_PWM.c ****     * Return:
 813:.\Generated_Source\PSoC5/Arm_PWM.c ****     *  uint8/uint16: Current compare value
 814:.\Generated_Source\PSoC5/Arm_PWM.c ****     *
 815:.\Generated_Source\PSoC5/Arm_PWM.c ****     *******************************************************************************/
 816:.\Generated_Source\PSoC5/Arm_PWM.c ****     uint16 Arm_PWM_ReadCompare(void) 
 817:.\Generated_Source\PSoC5/Arm_PWM.c ****     {
 622              		.loc 1 817 0
 623              		.cfi_startproc
 624              		@ args = 0, pretend = 0, frame = 0
 625              		@ frame_needed = 1, uses_anonymous_args = 0
 626              		@ link register save eliminated.
 627 0000 80B4     		push	{r7}
 628              		.cfi_def_cfa_offset 4
 629              		.cfi_offset 7, -4
 630 0002 00AF     		add	r7, sp, #0
 631              		.cfi_def_cfa_register 7
 818:.\Generated_Source\PSoC5/Arm_PWM.c ****         #if(Arm_PWM_UsingFixedFunction)
 819:.\Generated_Source\PSoC5/Arm_PWM.c ****             return ((uint16)CY_GET_REG16(Arm_PWM_COMPARE1_LSB_PTR));
 820:.\Generated_Source\PSoC5/Arm_PWM.c ****         #else
 821:.\Generated_Source\PSoC5/Arm_PWM.c ****             return (CY_GET_REG16(Arm_PWM_COMPARE1_LSB_PTR));
 632              		.loc 1 821 0
 633 0004 034B     		ldr	r3, .L50
 634 0006 1B88     		ldrh	r3, [r3]	@ movhi
 635 0008 9BB2     		uxth	r3, r3
 822:.\Generated_Source\PSoC5/Arm_PWM.c ****         #endif /* (Arm_PWM_UsingFixedFunction) */
 823:.\Generated_Source\PSoC5/Arm_PWM.c ****     }
 636              		.loc 1 823 0
 637 000a 1846     		mov	r0, r3
 638 000c BD46     		mov	sp, r7
 639              		@ sp needed
 640 000e 5DF8047B 		ldr	r7, [sp], #4
 641 0012 7047     		bx	lr
 642              	.L51:
 643              		.align	2
 644              	.L50:
 645 0014 44680040 		.word	1073768516
 646              		.cfi_endproc
 647              	.LFE14:
 648              		.size	Arm_PWM_ReadCompare, .-Arm_PWM_ReadCompare
 649              		.section	.text.Arm_PWM_ReadPeriod,"ax",%progbits
 650              		.align	2
 651              		.global	Arm_PWM_ReadPeriod
 652              		.thumb
 653              		.thumb_func
 654              		.type	Arm_PWM_ReadPeriod, %function
 655              	Arm_PWM_ReadPeriod:
 656              	.LFB15:
 824:.\Generated_Source\PSoC5/Arm_PWM.c **** 
 825:.\Generated_Source\PSoC5/Arm_PWM.c **** #else
ARM GAS  C:\Users\xavieran\AppData\Local\Temp\cc46c4Ur.s 			page 27


 826:.\Generated_Source\PSoC5/Arm_PWM.c **** 
 827:.\Generated_Source\PSoC5/Arm_PWM.c **** 
 828:.\Generated_Source\PSoC5/Arm_PWM.c ****     /*******************************************************************************
 829:.\Generated_Source\PSoC5/Arm_PWM.c ****     * Function Name: Arm_PWM_ReadCompare1
 830:.\Generated_Source\PSoC5/Arm_PWM.c ****     ********************************************************************************
 831:.\Generated_Source\PSoC5/Arm_PWM.c ****     *
 832:.\Generated_Source\PSoC5/Arm_PWM.c ****     * Summary:
 833:.\Generated_Source\PSoC5/Arm_PWM.c ****     *  Reads the compare value for the compare1 output.
 834:.\Generated_Source\PSoC5/Arm_PWM.c ****     *
 835:.\Generated_Source\PSoC5/Arm_PWM.c ****     * Parameters:
 836:.\Generated_Source\PSoC5/Arm_PWM.c ****     *  None
 837:.\Generated_Source\PSoC5/Arm_PWM.c ****     *
 838:.\Generated_Source\PSoC5/Arm_PWM.c ****     * Return:
 839:.\Generated_Source\PSoC5/Arm_PWM.c ****     *  uint8/uint16: Current compare value.
 840:.\Generated_Source\PSoC5/Arm_PWM.c ****     *
 841:.\Generated_Source\PSoC5/Arm_PWM.c ****     *******************************************************************************/
 842:.\Generated_Source\PSoC5/Arm_PWM.c ****     uint16 Arm_PWM_ReadCompare1(void) 
 843:.\Generated_Source\PSoC5/Arm_PWM.c ****     {
 844:.\Generated_Source\PSoC5/Arm_PWM.c ****         return (CY_GET_REG16(Arm_PWM_COMPARE1_LSB_PTR));
 845:.\Generated_Source\PSoC5/Arm_PWM.c ****     }
 846:.\Generated_Source\PSoC5/Arm_PWM.c **** 
 847:.\Generated_Source\PSoC5/Arm_PWM.c **** 
 848:.\Generated_Source\PSoC5/Arm_PWM.c ****     /*******************************************************************************
 849:.\Generated_Source\PSoC5/Arm_PWM.c ****     * Function Name: Arm_PWM_ReadCompare2
 850:.\Generated_Source\PSoC5/Arm_PWM.c ****     ********************************************************************************
 851:.\Generated_Source\PSoC5/Arm_PWM.c ****     *
 852:.\Generated_Source\PSoC5/Arm_PWM.c ****     * Summary:
 853:.\Generated_Source\PSoC5/Arm_PWM.c ****     *  Reads the compare value for the compare2 output.
 854:.\Generated_Source\PSoC5/Arm_PWM.c ****     *
 855:.\Generated_Source\PSoC5/Arm_PWM.c ****     * Parameters:
 856:.\Generated_Source\PSoC5/Arm_PWM.c ****     *  None
 857:.\Generated_Source\PSoC5/Arm_PWM.c ****     *
 858:.\Generated_Source\PSoC5/Arm_PWM.c ****     * Return:
 859:.\Generated_Source\PSoC5/Arm_PWM.c ****     *  uint8/uint16: Current compare value.
 860:.\Generated_Source\PSoC5/Arm_PWM.c ****     *
 861:.\Generated_Source\PSoC5/Arm_PWM.c ****     *******************************************************************************/
 862:.\Generated_Source\PSoC5/Arm_PWM.c ****     uint16 Arm_PWM_ReadCompare2(void) 
 863:.\Generated_Source\PSoC5/Arm_PWM.c ****     {
 864:.\Generated_Source\PSoC5/Arm_PWM.c ****         return (CY_GET_REG16(Arm_PWM_COMPARE2_LSB_PTR));
 865:.\Generated_Source\PSoC5/Arm_PWM.c ****     }
 866:.\Generated_Source\PSoC5/Arm_PWM.c **** 
 867:.\Generated_Source\PSoC5/Arm_PWM.c **** #endif /* (Arm_PWM_UseOneCompareMode) */
 868:.\Generated_Source\PSoC5/Arm_PWM.c **** 
 869:.\Generated_Source\PSoC5/Arm_PWM.c **** 
 870:.\Generated_Source\PSoC5/Arm_PWM.c **** /*******************************************************************************
 871:.\Generated_Source\PSoC5/Arm_PWM.c **** * Function Name: Arm_PWM_ReadPeriod
 872:.\Generated_Source\PSoC5/Arm_PWM.c **** ********************************************************************************
 873:.\Generated_Source\PSoC5/Arm_PWM.c **** *
 874:.\Generated_Source\PSoC5/Arm_PWM.c **** * Summary:
 875:.\Generated_Source\PSoC5/Arm_PWM.c **** *  Reads the period value used by the PWM hardware.
 876:.\Generated_Source\PSoC5/Arm_PWM.c **** *
 877:.\Generated_Source\PSoC5/Arm_PWM.c **** * Parameters:
 878:.\Generated_Source\PSoC5/Arm_PWM.c **** *  None
 879:.\Generated_Source\PSoC5/Arm_PWM.c **** *
 880:.\Generated_Source\PSoC5/Arm_PWM.c **** * Return:
 881:.\Generated_Source\PSoC5/Arm_PWM.c **** *  uint8/16: Period value
 882:.\Generated_Source\PSoC5/Arm_PWM.c **** *
ARM GAS  C:\Users\xavieran\AppData\Local\Temp\cc46c4Ur.s 			page 28


 883:.\Generated_Source\PSoC5/Arm_PWM.c **** *******************************************************************************/
 884:.\Generated_Source\PSoC5/Arm_PWM.c **** uint16 Arm_PWM_ReadPeriod(void) 
 885:.\Generated_Source\PSoC5/Arm_PWM.c **** {
 657              		.loc 1 885 0
 658              		.cfi_startproc
 659              		@ args = 0, pretend = 0, frame = 0
 660              		@ frame_needed = 1, uses_anonymous_args = 0
 661              		@ link register save eliminated.
 662 0000 80B4     		push	{r7}
 663              		.cfi_def_cfa_offset 4
 664              		.cfi_offset 7, -4
 665 0002 00AF     		add	r7, sp, #0
 666              		.cfi_def_cfa_register 7
 886:.\Generated_Source\PSoC5/Arm_PWM.c ****     #if(Arm_PWM_UsingFixedFunction)
 887:.\Generated_Source\PSoC5/Arm_PWM.c ****         return ((uint16)CY_GET_REG16(Arm_PWM_PERIOD_LSB_PTR));
 888:.\Generated_Source\PSoC5/Arm_PWM.c ****     #else
 889:.\Generated_Source\PSoC5/Arm_PWM.c ****         return (CY_GET_REG16(Arm_PWM_PERIOD_LSB_PTR));
 667              		.loc 1 889 0
 668 0004 034B     		ldr	r3, .L54
 669 0006 1B88     		ldrh	r3, [r3]	@ movhi
 670 0008 9BB2     		uxth	r3, r3
 890:.\Generated_Source\PSoC5/Arm_PWM.c ****     #endif /* (Arm_PWM_UsingFixedFunction) */
 891:.\Generated_Source\PSoC5/Arm_PWM.c **** }
 671              		.loc 1 891 0
 672 000a 1846     		mov	r0, r3
 673 000c BD46     		mov	sp, r7
 674              		@ sp needed
 675 000e 5DF8047B 		ldr	r7, [sp], #4
 676 0012 7047     		bx	lr
 677              	.L55:
 678              		.align	2
 679              	.L54:
 680 0014 84680040 		.word	1073768580
 681              		.cfi_endproc
 682              	.LFE15:
 683              		.size	Arm_PWM_ReadPeriod, .-Arm_PWM_ReadPeriod
 684              		.text
 685              	.Letext0:
 686              		.file 2 ".\\Generated_Source\\PSoC5\\cytypes.h"