ARM GAS  C:\Users\xavieran\AppData\Local\Temp\ccObHBpH.s 			page 1


   1              		.syntax unified
   2              		.cpu cortex-m3
   3              		.fpu softvfp
   4              		.eabi_attribute 20, 1
   5              		.eabi_attribute 21, 1
   6              		.eabi_attribute 23, 3
   7              		.eabi_attribute 24, 1
   8              		.eabi_attribute 25, 1
   9              		.eabi_attribute 26, 1
  10              		.eabi_attribute 30, 6
  11              		.eabi_attribute 34, 1
  12              		.eabi_attribute 18, 4
  13              		.thumb
  14              		.file	"blob_stats.c"
  15              		.text
  16              	.Ltext0:
  17              		.cfi_sections	.debug_frame
  18              		.comm	Camera_framebuffer,50688,4
  19              		.comm	stack,16,4
  20              		.comm	blobs,4080,4
  21              		.section	.text.nth_blob_colour,"ax",%progbits
  22              		.align	2
  23              		.global	nth_blob_colour
  24              		.thumb
  25              		.thumb_func
  26              		.type	nth_blob_colour, %function
  27              	nth_blob_colour:
  28              	.LFB63:
  29              		.file 1 ".\\blob_stats.c"
   1:.\blob_stats.c **** #include <stdlib.h>
   2:.\blob_stats.c **** #include <project.h>
   3:.\blob_stats.c **** #include <my_camera_functions.h>
   4:.\blob_stats.c **** 
   5:.\blob_stats.c **** #define NUMBER_OF_BLOBS 255
   6:.\blob_stats.c **** #define PIXELS_FROM_CENTRE 4
   7:.\blob_stats.c **** 
   8:.\blob_stats.c **** typedef struct
   9:.\blob_stats.c **** {
  10:.\blob_stats.c ****     int colour;
  11:.\blob_stats.c ****     uint16 size;
  12:.\blob_stats.c ****     uint32 x_sum,y_sum;
  13:.\blob_stats.c **** } blob;
  14:.\blob_stats.c **** 
  15:.\blob_stats.c **** blob blobs[NUMBER_OF_BLOBS];
  16:.\blob_stats.c **** 
  17:.\blob_stats.c **** int blob_comp(const void *a, const void *b);
  18:.\blob_stats.c **** 
  19:.\blob_stats.c **** int nth_blob_colour(int n)
  20:.\blob_stats.c **** {
  30              		.loc 1 20 0
  31              		.cfi_startproc
  32              		@ args = 0, pretend = 0, frame = 8
  33              		@ frame_needed = 1, uses_anonymous_args = 0
  34              		@ link register save eliminated.
  35 0000 80B4     		push	{r7}
  36              		.cfi_def_cfa_offset 4
  37              		.cfi_offset 7, -4
ARM GAS  C:\Users\xavieran\AppData\Local\Temp\ccObHBpH.s 			page 2


  38 0002 83B0     		sub	sp, sp, #12
  39              		.cfi_def_cfa_offset 16
  40 0004 00AF     		add	r7, sp, #0
  41              		.cfi_def_cfa_register 7
  42 0006 7860     		str	r0, [r7, #4]
  21:.\blob_stats.c ****     if(n > NUMBER_OF_BLOBS || n < 0)
  43              		.loc 1 21 0
  44 0008 7B68     		ldr	r3, [r7, #4]
  45 000a FF2B     		cmp	r3, #255
  46 000c 02DC     		bgt	.L2
  47              		.loc 1 21 0 is_stmt 0 discriminator 1
  48 000e 7B68     		ldr	r3, [r7, #4]
  49 0010 002B     		cmp	r3, #0
  50 0012 02DA     		bge	.L3
  51              	.L2:
  22:.\blob_stats.c ****     {
  23:.\blob_stats.c ****         return -1;
  52              		.loc 1 23 0 is_stmt 1
  53 0014 4FF0FF33 		mov	r3, #-1
  54 0018 04E0     		b	.L4
  55              	.L3:
  24:.\blob_stats.c ****     }
  25:.\blob_stats.c ****     else
  26:.\blob_stats.c ****     {
  27:.\blob_stats.c ****         return blobs[n].colour;
  56              		.loc 1 27 0
  57 001a 054A     		ldr	r2, .L5
  58 001c 7B68     		ldr	r3, [r7, #4]
  59 001e 1B01     		lsls	r3, r3, #4
  60 0020 1344     		add	r3, r3, r2
  61 0022 1B68     		ldr	r3, [r3]
  62              	.L4:
  28:.\blob_stats.c ****     }
  29:.\blob_stats.c **** }
  63              		.loc 1 29 0
  64 0024 1846     		mov	r0, r3
  65 0026 0C37     		adds	r7, r7, #12
  66 0028 BD46     		mov	sp, r7
  67              		@ sp needed
  68 002a 5DF8047B 		ldr	r7, [sp], #4
  69 002e 7047     		bx	lr
  70              	.L6:
  71              		.align	2
  72              	.L5:
  73 0030 00000000 		.word	blobs
  74              		.cfi_endproc
  75              	.LFE63:
  76              		.size	nth_blob_colour, .-nth_blob_colour
  77              		.section	.text.blob_detect,"ax",%progbits
  78              		.align	2
  79              		.global	blob_detect
  80              		.thumb
  81              		.thumb_func
  82              		.type	blob_detect, %function
  83              	blob_detect:
  84              	.LFB64:
  30:.\blob_stats.c **** 
ARM GAS  C:\Users\xavieran\AppData\Local\Temp\ccObHBpH.s 			page 3


  31:.\blob_stats.c **** void blob_detect()
  32:.\blob_stats.c **** {
  85              		.loc 1 32 0
  86              		.cfi_startproc
  87              		@ args = 0, pretend = 0, frame = 376
  88              		@ frame_needed = 1, uses_anonymous_args = 0
  89 0000 90B5     		push	{r4, r7, lr}
  90              		.cfi_def_cfa_offset 12
  91              		.cfi_offset 4, -12
  92              		.cfi_offset 7, -8
  93              		.cfi_offset 14, -4
  94 0002 DFB0     		sub	sp, sp, #380
  95              		.cfi_def_cfa_offset 392
  96 0004 00AF     		add	r7, sp, #0
  97              		.cfi_def_cfa_register 7
  33:.\blob_stats.c **** 	int labels[88];
  34:.\blob_stats.c **** 	int x,y,keep,drop,current_available_label = 0;
  98              		.loc 1 34 0
  99 0006 0023     		movs	r3, #0
 100 0008 C7F86C31 		str	r3, [r7, #364]
  35:.\blob_stats.c ****     int i;
  36:.\blob_stats.c **** 	memset(blobs,0,sizeof(blobs));
 101              		.loc 1 36 0
 102 000c AD48     		ldr	r0, .L21
 103 000e 0021     		movs	r1, #0
 104 0010 4FF47F62 		mov	r2, #4080
 105 0014 FFF7FEFF 		bl	memset
  37:.\blob_stats.c **** 	memset(labels,-1,sizeof(labels));
 106              		.loc 1 37 0
 107 0018 3B46     		mov	r3, r7
 108 001a 1846     		mov	r0, r3
 109 001c 4FF0FF31 		mov	r1, #-1
 110 0020 4FF4B072 		mov	r2, #352
 111 0024 FFF7FEFF 		bl	memset
  38:.\blob_stats.c **** 	for(y = 1; y < 144; y++)
 112              		.loc 1 38 0
 113 0028 0123     		movs	r3, #1
 114 002a C7F87031 		str	r3, [r7, #368]
 115 002e BEE1     		b	.L8
 116              	.L20:
  39:.\blob_stats.c **** 	{
  40:.\blob_stats.c **** 		for(x = 1; x < 88; x++)
 117              		.loc 1 40 0
 118 0030 0123     		movs	r3, #1
 119 0032 C7F87431 		str	r3, [r7, #372]
 120 0036 B0E1     		b	.L9
 121              	.L19:
  41:.\blob_stats.c **** 		{
  42:.\blob_stats.c **** 			if(PixelColour(x,y) == NONE)
 122              		.loc 1 42 0
 123 0038 D7F87431 		ldr	r3, [r7, #372]
 124 003c DAB2     		uxtb	r2, r3
 125 003e D7F87031 		ldr	r3, [r7, #368]
 126 0042 DBB2     		uxtb	r3, r3
 127 0044 1046     		mov	r0, r2
 128 0046 1946     		mov	r1, r3
 129 0048 FFF7FEFF 		bl	PixelColour
ARM GAS  C:\Users\xavieran\AppData\Local\Temp\ccObHBpH.s 			page 4


 130 004c 0346     		mov	r3, r0
 131 004e 002B     		cmp	r3, #0
 132 0050 07D1     		bne	.L10
  43:.\blob_stats.c **** 			{
  44:.\blob_stats.c **** 				labels[x] = -1;
 133              		.loc 1 44 0
 134 0052 3B46     		mov	r3, r7
 135 0054 D7F87421 		ldr	r2, [r7, #372]
 136 0058 4FF0FF31 		mov	r1, #-1
 137 005c 43F82210 		str	r1, [r3, r2, lsl #2]
 138 0060 3CE1     		b	.L11
 139              	.L10:
  45:.\blob_stats.c **** 			}
  46:.\blob_stats.c **** 			else if(PixelColour(x,y) == PixelColour(x-1,y))
 140              		.loc 1 46 0
 141 0062 D7F87431 		ldr	r3, [r7, #372]
 142 0066 DAB2     		uxtb	r2, r3
 143 0068 D7F87031 		ldr	r3, [r7, #368]
 144 006c DBB2     		uxtb	r3, r3
 145 006e 1046     		mov	r0, r2
 146 0070 1946     		mov	r1, r3
 147 0072 FFF7FEFF 		bl	PixelColour
 148 0076 0346     		mov	r3, r0
 149 0078 1C46     		mov	r4, r3
 150 007a D7F87431 		ldr	r3, [r7, #372]
 151 007e DBB2     		uxtb	r3, r3
 152 0080 013B     		subs	r3, r3, #1
 153 0082 DAB2     		uxtb	r2, r3
 154 0084 D7F87031 		ldr	r3, [r7, #368]
 155 0088 DBB2     		uxtb	r3, r3
 156 008a 1046     		mov	r0, r2
 157 008c 1946     		mov	r1, r3
 158 008e FFF7FEFF 		bl	PixelColour
 159 0092 0346     		mov	r3, r0
 160 0094 9C42     		cmp	r4, r3
 161 0096 40F0EE80 		bne	.L12
  47:.\blob_stats.c **** 			{
  48:.\blob_stats.c **** 				if(PixelColour(x,y) == PixelColour(x,y-1) && labels[x] != labels[x-1])
 162              		.loc 1 48 0
 163 009a D7F87431 		ldr	r3, [r7, #372]
 164 009e DAB2     		uxtb	r2, r3
 165 00a0 D7F87031 		ldr	r3, [r7, #368]
 166 00a4 DBB2     		uxtb	r3, r3
 167 00a6 1046     		mov	r0, r2
 168 00a8 1946     		mov	r1, r3
 169 00aa FFF7FEFF 		bl	PixelColour
 170 00ae 0346     		mov	r3, r0
 171 00b0 1C46     		mov	r4, r3
 172 00b2 D7F87431 		ldr	r3, [r7, #372]
 173 00b6 DAB2     		uxtb	r2, r3
 174 00b8 D7F87031 		ldr	r3, [r7, #368]
 175 00bc DBB2     		uxtb	r3, r3
 176 00be 013B     		subs	r3, r3, #1
 177 00c0 DBB2     		uxtb	r3, r3
 178 00c2 1046     		mov	r0, r2
 179 00c4 1946     		mov	r1, r3
 180 00c6 FFF7FEFF 		bl	PixelColour
ARM GAS  C:\Users\xavieran\AppData\Local\Temp\ccObHBpH.s 			page 5


 181 00ca 0346     		mov	r3, r0
 182 00cc 9C42     		cmp	r4, r3
 183 00ce 40F0C680 		bne	.L13
 184              		.loc 1 48 0 is_stmt 0 discriminator 1
 185 00d2 3B46     		mov	r3, r7
 186 00d4 D7F87421 		ldr	r2, [r7, #372]
 187 00d8 53F82220 		ldr	r2, [r3, r2, lsl #2]
 188 00dc D7F87431 		ldr	r3, [r7, #372]
 189 00e0 591E     		subs	r1, r3, #1
 190 00e2 3B46     		mov	r3, r7
 191 00e4 53F82130 		ldr	r3, [r3, r1, lsl #2]
 192 00e8 9A42     		cmp	r2, r3
 193 00ea 00F0B880 		beq	.L13
  49:.\blob_stats.c **** 				{
  50:.\blob_stats.c **** 					keep = labels[x-1];
 194              		.loc 1 50 0 is_stmt 1
 195 00ee D7F87431 		ldr	r3, [r7, #372]
 196 00f2 5A1E     		subs	r2, r3, #1
 197 00f4 3B46     		mov	r3, r7
 198 00f6 53F82230 		ldr	r3, [r3, r2, lsl #2]
 199 00fa C7F86431 		str	r3, [r7, #356]
  51:.\blob_stats.c **** 					drop = labels[x];
 200              		.loc 1 51 0
 201 00fe 3B46     		mov	r3, r7
 202 0100 D7F87421 		ldr	r2, [r7, #372]
 203 0104 53F82230 		ldr	r3, [r3, r2, lsl #2]
 204 0108 C7F86031 		str	r3, [r7, #352]
  52:.\blob_stats.c **** 
  53:.\blob_stats.c **** 					//Merge Blobs
  54:.\blob_stats.c **** 					blobs[labels[x-1]].size += blobs[labels[x]].size;
 205              		.loc 1 54 0
 206 010c D7F87431 		ldr	r3, [r7, #372]
 207 0110 5A1E     		subs	r2, r3, #1
 208 0112 3B46     		mov	r3, r7
 209 0114 53F82230 		ldr	r3, [r3, r2, lsl #2]
 210 0118 D7F87421 		ldr	r2, [r7, #372]
 211 011c 511E     		subs	r1, r2, #1
 212 011e 3A46     		mov	r2, r7
 213 0120 52F82120 		ldr	r2, [r2, r1, lsl #2]
 214 0124 6749     		ldr	r1, .L21
 215 0126 1201     		lsls	r2, r2, #4
 216 0128 0A44     		add	r2, r2, r1
 217 012a 9188     		ldrh	r1, [r2, #4]
 218 012c 3A46     		mov	r2, r7
 219 012e D7F87401 		ldr	r0, [r7, #372]
 220 0132 52F82020 		ldr	r2, [r2, r0, lsl #2]
 221 0136 6348     		ldr	r0, .L21
 222 0138 1201     		lsls	r2, r2, #4
 223 013a 0244     		add	r2, r2, r0
 224 013c 9288     		ldrh	r2, [r2, #4]
 225 013e 0A44     		add	r2, r2, r1
 226 0140 92B2     		uxth	r2, r2
 227 0142 6049     		ldr	r1, .L21
 228 0144 1B01     		lsls	r3, r3, #4
 229 0146 0B44     		add	r3, r3, r1
 230 0148 9A80     		strh	r2, [r3, #4]	@ movhi
  55:.\blob_stats.c **** 					blobs[labels[x-1]].x_sum += blobs[labels[x]].x_sum;
ARM GAS  C:\Users\xavieran\AppData\Local\Temp\ccObHBpH.s 			page 6


 231              		.loc 1 55 0
 232 014a D7F87431 		ldr	r3, [r7, #372]
 233 014e 5A1E     		subs	r2, r3, #1
 234 0150 3B46     		mov	r3, r7
 235 0152 53F82230 		ldr	r3, [r3, r2, lsl #2]
 236 0156 D7F87421 		ldr	r2, [r7, #372]
 237 015a 511E     		subs	r1, r2, #1
 238 015c 3A46     		mov	r2, r7
 239 015e 52F82120 		ldr	r2, [r2, r1, lsl #2]
 240 0162 5849     		ldr	r1, .L21
 241 0164 1201     		lsls	r2, r2, #4
 242 0166 0A44     		add	r2, r2, r1
 243 0168 0832     		adds	r2, r2, #8
 244 016a 1168     		ldr	r1, [r2]
 245 016c 3A46     		mov	r2, r7
 246 016e D7F87401 		ldr	r0, [r7, #372]
 247 0172 52F82020 		ldr	r2, [r2, r0, lsl #2]
 248 0176 5348     		ldr	r0, .L21
 249 0178 1201     		lsls	r2, r2, #4
 250 017a 0244     		add	r2, r2, r0
 251 017c 0832     		adds	r2, r2, #8
 252 017e 1268     		ldr	r2, [r2]
 253 0180 0A44     		add	r2, r2, r1
 254 0182 5049     		ldr	r1, .L21
 255 0184 1B01     		lsls	r3, r3, #4
 256 0186 0B44     		add	r3, r3, r1
 257 0188 0833     		adds	r3, r3, #8
 258 018a 1A60     		str	r2, [r3]
  56:.\blob_stats.c **** 					blobs[labels[x-1]].y_sum += blobs[labels[x]].y_sum;
 259              		.loc 1 56 0
 260 018c D7F87431 		ldr	r3, [r7, #372]
 261 0190 5A1E     		subs	r2, r3, #1
 262 0192 3B46     		mov	r3, r7
 263 0194 53F82230 		ldr	r3, [r3, r2, lsl #2]
 264 0198 D7F87421 		ldr	r2, [r7, #372]
 265 019c 511E     		subs	r1, r2, #1
 266 019e 3A46     		mov	r2, r7
 267 01a0 52F82120 		ldr	r2, [r2, r1, lsl #2]
 268 01a4 4749     		ldr	r1, .L21
 269 01a6 1201     		lsls	r2, r2, #4
 270 01a8 0A44     		add	r2, r2, r1
 271 01aa 0832     		adds	r2, r2, #8
 272 01ac 5168     		ldr	r1, [r2, #4]
 273 01ae 3A46     		mov	r2, r7
 274 01b0 D7F87401 		ldr	r0, [r7, #372]
 275 01b4 52F82020 		ldr	r2, [r2, r0, lsl #2]
 276 01b8 4248     		ldr	r0, .L21
 277 01ba 1201     		lsls	r2, r2, #4
 278 01bc 0244     		add	r2, r2, r0
 279 01be 0832     		adds	r2, r2, #8
 280 01c0 5268     		ldr	r2, [r2, #4]
 281 01c2 0A44     		add	r2, r2, r1
 282 01c4 3F49     		ldr	r1, .L21
 283 01c6 1B01     		lsls	r3, r3, #4
 284 01c8 0B44     		add	r3, r3, r1
 285 01ca 0833     		adds	r3, r3, #8
 286 01cc 5A60     		str	r2, [r3, #4]
ARM GAS  C:\Users\xavieran\AppData\Local\Temp\ccObHBpH.s 			page 7


  57:.\blob_stats.c **** 
  58:.\blob_stats.c **** 					//Drop Blob
  59:.\blob_stats.c **** 					blobs[labels[x]].colour = NONE;
 287              		.loc 1 59 0
 288 01ce 3B46     		mov	r3, r7
 289 01d0 D7F87421 		ldr	r2, [r7, #372]
 290 01d4 53F82230 		ldr	r3, [r3, r2, lsl #2]
 291 01d8 3A4A     		ldr	r2, .L21
 292 01da 1B01     		lsls	r3, r3, #4
 293 01dc 1344     		add	r3, r3, r2
 294 01de 0022     		movs	r2, #0
 295 01e0 1A60     		str	r2, [r3]
  60:.\blob_stats.c **** 					blobs[labels[x]].size = 0;
 296              		.loc 1 60 0
 297 01e2 3B46     		mov	r3, r7
 298 01e4 D7F87421 		ldr	r2, [r7, #372]
 299 01e8 53F82230 		ldr	r3, [r3, r2, lsl #2]
 300 01ec 354A     		ldr	r2, .L21
 301 01ee 1B01     		lsls	r3, r3, #4
 302 01f0 1344     		add	r3, r3, r2
 303 01f2 0022     		movs	r2, #0
 304 01f4 9A80     		strh	r2, [r3, #4]	@ movhi
  61:.\blob_stats.c **** 					blobs[labels[x]].x_sum = 0;
 305              		.loc 1 61 0
 306 01f6 3B46     		mov	r3, r7
 307 01f8 D7F87421 		ldr	r2, [r7, #372]
 308 01fc 53F82230 		ldr	r3, [r3, r2, lsl #2]
 309 0200 304A     		ldr	r2, .L21
 310 0202 1B01     		lsls	r3, r3, #4
 311 0204 1344     		add	r3, r3, r2
 312 0206 0833     		adds	r3, r3, #8
 313 0208 0022     		movs	r2, #0
 314 020a 1A60     		str	r2, [r3]
  62:.\blob_stats.c **** 					blobs[labels[x]].y_sum = 0;
 315              		.loc 1 62 0
 316 020c 3B46     		mov	r3, r7
 317 020e D7F87421 		ldr	r2, [r7, #372]
 318 0212 53F82230 		ldr	r3, [r3, r2, lsl #2]
 319 0216 2B4A     		ldr	r2, .L21
 320 0218 1B01     		lsls	r3, r3, #4
 321 021a 1344     		add	r3, r3, r2
 322 021c 0833     		adds	r3, r3, #8
 323 021e 0022     		movs	r2, #0
 324 0220 5A60     		str	r2, [r3, #4]
  63:.\blob_stats.c **** 					for(i = x; i < 88; i++)
 325              		.loc 1 63 0
 326 0222 D7F87431 		ldr	r3, [r7, #372]
 327 0226 C7F86831 		str	r3, [r7, #360]
 328 022a 14E0     		b	.L14
 329              	.L16:
  64:.\blob_stats.c **** 					{
  65:.\blob_stats.c **** 						if(labels[i] == drop)
 330              		.loc 1 65 0
 331 022c 3B46     		mov	r3, r7
 332 022e D7F86821 		ldr	r2, [r7, #360]
 333 0232 53F82220 		ldr	r2, [r3, r2, lsl #2]
 334 0236 D7F86031 		ldr	r3, [r7, #352]
ARM GAS  C:\Users\xavieran\AppData\Local\Temp\ccObHBpH.s 			page 8


 335 023a 9A42     		cmp	r2, r3
 336 023c 06D1     		bne	.L15
  66:.\blob_stats.c **** 						{
  67:.\blob_stats.c **** 							labels[i] = keep;
 337              		.loc 1 67 0
 338 023e 3B46     		mov	r3, r7
 339 0240 D7F86821 		ldr	r2, [r7, #360]
 340 0244 D7F86411 		ldr	r1, [r7, #356]
 341 0248 43F82210 		str	r1, [r3, r2, lsl #2]
 342              	.L15:
  63:.\blob_stats.c **** 					for(i = x; i < 88; i++)
 343              		.loc 1 63 0
 344 024c D7F86831 		ldr	r3, [r7, #360]
 345 0250 0133     		adds	r3, r3, #1
 346 0252 C7F86831 		str	r3, [r7, #360]
 347              	.L14:
  63:.\blob_stats.c **** 					for(i = x; i < 88; i++)
 348              		.loc 1 63 0 is_stmt 0 discriminator 1
 349 0256 D7F86831 		ldr	r3, [r7, #360]
 350 025a 572B     		cmp	r3, #87
 351 025c E6DD     		ble	.L16
 352              	.L13:
  68:.\blob_stats.c **** 						}
  69:.\blob_stats.c **** 					}
  70:.\blob_stats.c **** 				}
  71:.\blob_stats.c **** 				labels[x] = labels[x-1];
 353              		.loc 1 71 0 is_stmt 1
 354 025e D7F87431 		ldr	r3, [r7, #372]
 355 0262 5A1E     		subs	r2, r3, #1
 356 0264 3B46     		mov	r3, r7
 357 0266 53F82210 		ldr	r1, [r3, r2, lsl #2]
 358 026a 3B46     		mov	r3, r7
 359 026c D7F87421 		ldr	r2, [r7, #372]
 360 0270 43F82210 		str	r1, [r3, r2, lsl #2]
 361 0274 32E0     		b	.L11
 362              	.L12:
  72:.\blob_stats.c **** 			}
  73:.\blob_stats.c **** 			else if(PixelColour(x,y) == PixelColour(x,y-1))
 363              		.loc 1 73 0
 364 0276 D7F87431 		ldr	r3, [r7, #372]
 365 027a DAB2     		uxtb	r2, r3
 366 027c D7F87031 		ldr	r3, [r7, #368]
 367 0280 DBB2     		uxtb	r3, r3
 368 0282 1046     		mov	r0, r2
 369 0284 1946     		mov	r1, r3
 370 0286 FFF7FEFF 		bl	PixelColour
 371 028a 0346     		mov	r3, r0
 372 028c 1C46     		mov	r4, r3
 373 028e D7F87431 		ldr	r3, [r7, #372]
 374 0292 DAB2     		uxtb	r2, r3
 375 0294 D7F87031 		ldr	r3, [r7, #368]
 376 0298 DBB2     		uxtb	r3, r3
 377 029a 013B     		subs	r3, r3, #1
 378 029c DBB2     		uxtb	r3, r3
 379 029e 1046     		mov	r0, r2
 380 02a0 1946     		mov	r1, r3
 381 02a2 FFF7FEFF 		bl	PixelColour
ARM GAS  C:\Users\xavieran\AppData\Local\Temp\ccObHBpH.s 			page 9


 382 02a6 0346     		mov	r3, r0
 383 02a8 9C42     		cmp	r4, r3
 384 02aa 0DD1     		bne	.L17
  74:.\blob_stats.c **** 			{
  75:.\blob_stats.c **** 				// Same as above, but not to the left. An "Edge"
  76:.\blob_stats.c **** 				labels[x] = labels[x];
 385              		.loc 1 76 0
 386 02ac 3B46     		mov	r3, r7
 387 02ae D7F87421 		ldr	r2, [r7, #372]
 388 02b2 53F82210 		ldr	r1, [r3, r2, lsl #2]
 389 02b6 3B46     		mov	r3, r7
 390 02b8 D7F87421 		ldr	r2, [r7, #372]
 391 02bc 43F82210 		str	r1, [r3, r2, lsl #2]
 392 02c0 0CE0     		b	.L11
 393              	.L22:
 394 02c2 00BF     		.align	2
 395              	.L21:
 396 02c4 00000000 		.word	blobs
 397              	.L17:
  77:.\blob_stats.c **** 			}
  78:.\blob_stats.c **** 			else
  79:.\blob_stats.c **** 			{
  80:.\blob_stats.c **** 				//New Label
  81:.\blob_stats.c **** 				labels[x] = current_available_label++;
 398              		.loc 1 81 0
 399 02c8 D7F86C31 		ldr	r3, [r7, #364]
 400 02cc 5A1C     		adds	r2, r3, #1
 401 02ce C7F86C21 		str	r2, [r7, #364]
 402 02d2 3A46     		mov	r2, r7
 403 02d4 D7F87411 		ldr	r1, [r7, #372]
 404 02d8 42F82130 		str	r3, [r2, r1, lsl #2]
 405              	.L11:
  82:.\blob_stats.c **** 			}
  83:.\blob_stats.c **** 			if(labels[x] != -1)
 406              		.loc 1 83 0
 407 02dc 3B46     		mov	r3, r7
 408 02de D7F87421 		ldr	r2, [r7, #372]
 409 02e2 53F82230 		ldr	r3, [r3, r2, lsl #2]
 410 02e6 B3F1FF3F 		cmp	r3, #-1
 411 02ea 51D0     		beq	.L18
  84:.\blob_stats.c **** 			{
  85:.\blob_stats.c **** 				blobs[labels[x]].colour = PixelColour(x,y);
 412              		.loc 1 85 0
 413 02ec 3B46     		mov	r3, r7
 414 02ee D7F87421 		ldr	r2, [r7, #372]
 415 02f2 53F82240 		ldr	r4, [r3, r2, lsl #2]
 416 02f6 D7F87431 		ldr	r3, [r7, #372]
 417 02fa DAB2     		uxtb	r2, r3
 418 02fc D7F87031 		ldr	r3, [r7, #368]
 419 0300 DBB2     		uxtb	r3, r3
 420 0302 1046     		mov	r0, r2
 421 0304 1946     		mov	r1, r3
 422 0306 FFF7FEFF 		bl	PixelColour
 423 030a 0346     		mov	r3, r0
 424 030c 1A46     		mov	r2, r3
 425 030e 2F49     		ldr	r1, .L23
 426 0310 2301     		lsls	r3, r4, #4
ARM GAS  C:\Users\xavieran\AppData\Local\Temp\ccObHBpH.s 			page 10


 427 0312 0B44     		add	r3, r3, r1
 428 0314 1A60     		str	r2, [r3]
  86:.\blob_stats.c **** 				blobs[labels[x]].size++;
 429              		.loc 1 86 0
 430 0316 3B46     		mov	r3, r7
 431 0318 D7F87421 		ldr	r2, [r7, #372]
 432 031c 53F82230 		ldr	r3, [r3, r2, lsl #2]
 433 0320 2A49     		ldr	r1, .L23
 434 0322 1A01     		lsls	r2, r3, #4
 435 0324 0A44     		add	r2, r2, r1
 436 0326 9288     		ldrh	r2, [r2, #4]
 437 0328 0132     		adds	r2, r2, #1
 438 032a 92B2     		uxth	r2, r2
 439 032c 2749     		ldr	r1, .L23
 440 032e 1B01     		lsls	r3, r3, #4
 441 0330 0B44     		add	r3, r3, r1
 442 0332 9A80     		strh	r2, [r3, #4]	@ movhi
  87:.\blob_stats.c **** 				blobs[labels[x]].x_sum += x;
 443              		.loc 1 87 0
 444 0334 3B46     		mov	r3, r7
 445 0336 D7F87421 		ldr	r2, [r7, #372]
 446 033a 53F82230 		ldr	r3, [r3, r2, lsl #2]
 447 033e 3A46     		mov	r2, r7
 448 0340 D7F87411 		ldr	r1, [r7, #372]
 449 0344 52F82120 		ldr	r2, [r2, r1, lsl #2]
 450 0348 2049     		ldr	r1, .L23
 451 034a 1201     		lsls	r2, r2, #4
 452 034c 0A44     		add	r2, r2, r1
 453 034e 0832     		adds	r2, r2, #8
 454 0350 1168     		ldr	r1, [r2]
 455 0352 D7F87421 		ldr	r2, [r7, #372]
 456 0356 0A44     		add	r2, r2, r1
 457 0358 1C49     		ldr	r1, .L23
 458 035a 1B01     		lsls	r3, r3, #4
 459 035c 0B44     		add	r3, r3, r1
 460 035e 0833     		adds	r3, r3, #8
 461 0360 1A60     		str	r2, [r3]
  88:.\blob_stats.c **** 				blobs[labels[y]].y_sum += y;
 462              		.loc 1 88 0
 463 0362 3B46     		mov	r3, r7
 464 0364 D7F87021 		ldr	r2, [r7, #368]
 465 0368 53F82230 		ldr	r3, [r3, r2, lsl #2]
 466 036c 3A46     		mov	r2, r7
 467 036e D7F87011 		ldr	r1, [r7, #368]
 468 0372 52F82120 		ldr	r2, [r2, r1, lsl #2]
 469 0376 1549     		ldr	r1, .L23
 470 0378 1201     		lsls	r2, r2, #4
 471 037a 0A44     		add	r2, r2, r1
 472 037c 0832     		adds	r2, r2, #8
 473 037e 5168     		ldr	r1, [r2, #4]
 474 0380 D7F87021 		ldr	r2, [r7, #368]
 475 0384 0A44     		add	r2, r2, r1
 476 0386 1149     		ldr	r1, .L23
 477 0388 1B01     		lsls	r3, r3, #4
 478 038a 0B44     		add	r3, r3, r1
 479 038c 0833     		adds	r3, r3, #8
 480 038e 5A60     		str	r2, [r3, #4]
ARM GAS  C:\Users\xavieran\AppData\Local\Temp\ccObHBpH.s 			page 11


 481              	.L18:
  40:.\blob_stats.c **** 		for(x = 1; x < 88; x++)
 482              		.loc 1 40 0
 483 0390 D7F87431 		ldr	r3, [r7, #372]
 484 0394 0133     		adds	r3, r3, #1
 485 0396 C7F87431 		str	r3, [r7, #372]
 486              	.L9:
  40:.\blob_stats.c **** 		for(x = 1; x < 88; x++)
 487              		.loc 1 40 0 is_stmt 0 discriminator 1
 488 039a D7F87431 		ldr	r3, [r7, #372]
 489 039e 572B     		cmp	r3, #87
 490 03a0 7FF74AAE 		ble	.L19
  38:.\blob_stats.c **** 	for(y = 1; y < 144; y++)
 491              		.loc 1 38 0 is_stmt 1
 492 03a4 D7F87031 		ldr	r3, [r7, #368]
 493 03a8 0133     		adds	r3, r3, #1
 494 03aa C7F87031 		str	r3, [r7, #368]
 495              	.L8:
  38:.\blob_stats.c **** 	for(y = 1; y < 144; y++)
 496              		.loc 1 38 0 is_stmt 0 discriminator 1
 497 03ae D7F87031 		ldr	r3, [r7, #368]
 498 03b2 8F2B     		cmp	r3, #143
 499 03b4 7FF73CAE 		ble	.L20
  89:.\blob_stats.c **** 			}
  90:.\blob_stats.c **** 		}
  91:.\blob_stats.c **** 	}
  92:.\blob_stats.c ****     // THE MOST IMPORTANT LINE IN BLOB STATS
  93:.\blob_stats.c ****     qsort(blobs,NUMBER_OF_BLOBS,sizeof(blob),blob_comp);           
 500              		.loc 1 93 0 is_stmt 1
 501 03b8 0448     		ldr	r0, .L23
 502 03ba FF21     		movs	r1, #255
 503 03bc 1022     		movs	r2, #16
 504 03be 044B     		ldr	r3, .L23+4
 505 03c0 FFF7FEFF 		bl	qsort
  94:.\blob_stats.c **** }
 506              		.loc 1 94 0
 507 03c4 07F5BE77 		add	r7, r7, #380
 508 03c8 BD46     		mov	sp, r7
 509              		@ sp needed
 510 03ca 90BD     		pop	{r4, r7, pc}
 511              	.L24:
 512              		.align	2
 513              	.L23:
 514 03cc 00000000 		.word	blobs
 515 03d0 00000000 		.word	blob_comp
 516              		.cfi_endproc
 517              	.LFE64:
 518              		.size	blob_detect, .-blob_detect
 519              		.section	.text.blob_count,"ax",%progbits
 520              		.align	2
 521              		.global	blob_count
 522              		.thumb
 523              		.thumb_func
 524              		.type	blob_count, %function
 525              	blob_count:
 526              	.LFB65:
  95:.\blob_stats.c **** 
ARM GAS  C:\Users\xavieran\AppData\Local\Temp\ccObHBpH.s 			page 12


  96:.\blob_stats.c **** uint16 blob_count(int colour, int size)
  97:.\blob_stats.c **** {
 527              		.loc 1 97 0
 528              		.cfi_startproc
 529              		@ args = 0, pretend = 0, frame = 16
 530              		@ frame_needed = 1, uses_anonymous_args = 0
 531              		@ link register save eliminated.
 532 0000 80B4     		push	{r7}
 533              		.cfi_def_cfa_offset 4
 534              		.cfi_offset 7, -4
 535 0002 85B0     		sub	sp, sp, #20
 536              		.cfi_def_cfa_offset 24
 537 0004 00AF     		add	r7, sp, #0
 538              		.cfi_def_cfa_register 7
 539 0006 7860     		str	r0, [r7, #4]
 540 0008 3960     		str	r1, [r7]
  98:.\blob_stats.c **** 	uint16 count = 0; 
 541              		.loc 1 98 0
 542 000a 0023     		movs	r3, #0
 543 000c FB81     		strh	r3, [r7, #14]	@ movhi
  99:.\blob_stats.c ****     int i;
 100:.\blob_stats.c **** 	if(colour == 0)
 544              		.loc 1 100 0
 545 000e 7B68     		ldr	r3, [r7, #4]
 546 0010 002B     		cmp	r3, #0
 547 0012 15D1     		bne	.L26
 101:.\blob_stats.c ****     {
 102:.\blob_stats.c ****         for(i = 0; i < NUMBER_OF_BLOBS; i++)
 548              		.loc 1 102 0
 549 0014 0023     		movs	r3, #0
 550 0016 BB60     		str	r3, [r7, #8]
 551 0018 0EE0     		b	.L27
 552              	.L29:
 103:.\blob_stats.c **** 	    {
 104:.\blob_stats.c **** 		    if(blobs[i].size >= size)
 553              		.loc 1 104 0
 554 001a 1B4A     		ldr	r2, .L35
 555 001c BB68     		ldr	r3, [r7, #8]
 556 001e 1B01     		lsls	r3, r3, #4
 557 0020 1344     		add	r3, r3, r2
 558 0022 9B88     		ldrh	r3, [r3, #4]
 559 0024 1A46     		mov	r2, r3
 560 0026 3B68     		ldr	r3, [r7]
 561 0028 9A42     		cmp	r2, r3
 562 002a 02DB     		blt	.L28
 105:.\blob_stats.c **** 		    {
 106:.\blob_stats.c **** 			    count++;
 563              		.loc 1 106 0
 564 002c FB89     		ldrh	r3, [r7, #14]
 565 002e 0133     		adds	r3, r3, #1
 566 0030 FB81     		strh	r3, [r7, #14]	@ movhi
 567              	.L28:
 102:.\blob_stats.c ****         for(i = 0; i < NUMBER_OF_BLOBS; i++)
 568              		.loc 1 102 0
 569 0032 BB68     		ldr	r3, [r7, #8]
 570 0034 0133     		adds	r3, r3, #1
 571 0036 BB60     		str	r3, [r7, #8]
ARM GAS  C:\Users\xavieran\AppData\Local\Temp\ccObHBpH.s 			page 13


 572              	.L27:
 102:.\blob_stats.c ****         for(i = 0; i < NUMBER_OF_BLOBS; i++)
 573              		.loc 1 102 0 is_stmt 0 discriminator 1
 574 0038 BB68     		ldr	r3, [r7, #8]
 575 003a FE2B     		cmp	r3, #254
 576 003c EDDD     		ble	.L29
 577 003e 1CE0     		b	.L30
 578              	.L26:
 107:.\blob_stats.c **** 		    }
 108:.\blob_stats.c **** 	    }
 109:.\blob_stats.c ****     }
 110:.\blob_stats.c ****     else
 111:.\blob_stats.c ****     {
 112:.\blob_stats.c ****         for(i = 0; i < NUMBER_OF_BLOBS; i++)
 579              		.loc 1 112 0 is_stmt 1
 580 0040 0023     		movs	r3, #0
 581 0042 BB60     		str	r3, [r7, #8]
 582 0044 16E0     		b	.L31
 583              	.L33:
 113:.\blob_stats.c **** 	    {
 114:.\blob_stats.c **** 		    if(blobs[i].size >= size && blobs[i].colour == colour)
 584              		.loc 1 114 0
 585 0046 104A     		ldr	r2, .L35
 586 0048 BB68     		ldr	r3, [r7, #8]
 587 004a 1B01     		lsls	r3, r3, #4
 588 004c 1344     		add	r3, r3, r2
 589 004e 9B88     		ldrh	r3, [r3, #4]
 590 0050 1A46     		mov	r2, r3
 591 0052 3B68     		ldr	r3, [r7]
 592 0054 9A42     		cmp	r2, r3
 593 0056 0ADB     		blt	.L32
 594              		.loc 1 114 0 is_stmt 0 discriminator 1
 595 0058 0B4A     		ldr	r2, .L35
 596 005a BB68     		ldr	r3, [r7, #8]
 597 005c 1B01     		lsls	r3, r3, #4
 598 005e 1344     		add	r3, r3, r2
 599 0060 1A68     		ldr	r2, [r3]
 600 0062 7B68     		ldr	r3, [r7, #4]
 601 0064 9A42     		cmp	r2, r3
 602 0066 02D1     		bne	.L32
 115:.\blob_stats.c **** 		    {
 116:.\blob_stats.c **** 			    count++;
 603              		.loc 1 116 0 is_stmt 1
 604 0068 FB89     		ldrh	r3, [r7, #14]
 605 006a 0133     		adds	r3, r3, #1
 606 006c FB81     		strh	r3, [r7, #14]	@ movhi
 607              	.L32:
 112:.\blob_stats.c ****         for(i = 0; i < NUMBER_OF_BLOBS; i++)
 608              		.loc 1 112 0
 609 006e BB68     		ldr	r3, [r7, #8]
 610 0070 0133     		adds	r3, r3, #1
 611 0072 BB60     		str	r3, [r7, #8]
 612              	.L31:
 112:.\blob_stats.c ****         for(i = 0; i < NUMBER_OF_BLOBS; i++)
 613              		.loc 1 112 0 is_stmt 0 discriminator 1
 614 0074 BB68     		ldr	r3, [r7, #8]
 615 0076 FE2B     		cmp	r3, #254
ARM GAS  C:\Users\xavieran\AppData\Local\Temp\ccObHBpH.s 			page 14


 616 0078 E5DD     		ble	.L33
 617              	.L30:
 117:.\blob_stats.c **** 		    }
 118:.\blob_stats.c **** 	    } 
 119:.\blob_stats.c ****     }
 120:.\blob_stats.c **** 	return count;
 618              		.loc 1 120 0 is_stmt 1
 619 007a FB89     		ldrh	r3, [r7, #14]
 121:.\blob_stats.c **** }
 620              		.loc 1 121 0
 621 007c 1846     		mov	r0, r3
 622 007e 1437     		adds	r7, r7, #20
 623 0080 BD46     		mov	sp, r7
 624              		@ sp needed
 625 0082 5DF8047B 		ldr	r7, [sp], #4
 626 0086 7047     		bx	lr
 627              	.L36:
 628              		.align	2
 629              	.L35:
 630 0088 00000000 		.word	blobs
 631              		.cfi_endproc
 632              	.LFE65:
 633              		.size	blob_count, .-blob_count
 634              		.section	.text.blob_comp,"ax",%progbits
 635              		.align	2
 636              		.global	blob_comp
 637              		.thumb
 638              		.thumb_func
 639              		.type	blob_comp, %function
 640              	blob_comp:
 641              	.LFB66:
 122:.\blob_stats.c **** 
 123:.\blob_stats.c **** int blob_comp(const void *a, const void *b)
 124:.\blob_stats.c **** {
 642              		.loc 1 124 0
 643              		.cfi_startproc
 644              		@ args = 0, pretend = 0, frame = 40
 645              		@ frame_needed = 1, uses_anonymous_args = 0
 646              		@ link register save eliminated.
 647 0000 90B4     		push	{r4, r7}
 648              		.cfi_def_cfa_offset 8
 649              		.cfi_offset 4, -8
 650              		.cfi_offset 7, -4
 651 0002 8AB0     		sub	sp, sp, #40
 652              		.cfi_def_cfa_offset 48
 653 0004 00AF     		add	r7, sp, #0
 654              		.cfi_def_cfa_register 7
 655 0006 7860     		str	r0, [r7, #4]
 656 0008 3960     		str	r1, [r7]
 125:.\blob_stats.c ****     blob b1 = *((blob *) a);
 657              		.loc 1 125 0
 658 000a 7B68     		ldr	r3, [r7, #4]
 659 000c 07F11804 		add	r4, r7, #24
 660 0010 0FCB     		ldmia	r3, {r0, r1, r2, r3}
 661 0012 84E80F00 		stmia	r4, {r0, r1, r2, r3}
 126:.\blob_stats.c ****     blob b2 = *((blob *) b);
 662              		.loc 1 126 0
ARM GAS  C:\Users\xavieran\AppData\Local\Temp\ccObHBpH.s 			page 15


 663 0016 3B68     		ldr	r3, [r7]
 664 0018 07F10804 		add	r4, r7, #8
 665 001c 0FCB     		ldmia	r3, {r0, r1, r2, r3}
 666 001e 84E80F00 		stmia	r4, {r0, r1, r2, r3}
 127:.\blob_stats.c ****     
 128:.\blob_stats.c ****     if(b1.size > b2.size)
 667              		.loc 1 128 0
 668 0022 BA8B     		ldrh	r2, [r7, #28]
 669 0024 BB89     		ldrh	r3, [r7, #12]
 670 0026 9A42     		cmp	r2, r3
 671 0028 02D9     		bls	.L38
 129:.\blob_stats.c ****     {
 130:.\blob_stats.c ****         return -1;
 672              		.loc 1 130 0
 673 002a 4FF0FF33 		mov	r3, #-1
 674 002e 06E0     		b	.L41
 675              	.L38:
 131:.\blob_stats.c ****     }
 132:.\blob_stats.c ****     else if(b2.size > b1.size)
 676              		.loc 1 132 0
 677 0030 BA89     		ldrh	r2, [r7, #12]
 678 0032 BB8B     		ldrh	r3, [r7, #28]
 679 0034 9A42     		cmp	r2, r3
 680 0036 01D9     		bls	.L40
 133:.\blob_stats.c ****     {
 134:.\blob_stats.c ****         return 1;
 681              		.loc 1 134 0
 682 0038 0123     		movs	r3, #1
 683 003a 00E0     		b	.L41
 684              	.L40:
 135:.\blob_stats.c ****     }
 136:.\blob_stats.c ****     else return 0;
 685              		.loc 1 136 0
 686 003c 0023     		movs	r3, #0
 687              	.L41:
 137:.\blob_stats.c **** }
 688              		.loc 1 137 0
 689 003e 1846     		mov	r0, r3
 690 0040 2837     		adds	r7, r7, #40
 691 0042 BD46     		mov	sp, r7
 692              		@ sp needed
 693 0044 90BC     		pop	{r4, r7}
 694 0046 7047     		bx	lr
 695              		.cfi_endproc
 696              	.LFE66:
 697              		.size	blob_comp, .-blob_comp
 698              		.section	.text.to_nearest_blob,"ax",%progbits
 699              		.align	2
 700              		.global	to_nearest_blob
 701              		.thumb
 702              		.thumb_func
 703              		.type	to_nearest_blob, %function
 704              	to_nearest_blob:
 705              	.LFB67:
 138:.\blob_stats.c **** 
 139:.\blob_stats.c **** int to_nearest_blob(int colour,int size,int centre_threshold)
 140:.\blob_stats.c **** {
ARM GAS  C:\Users\xavieran\AppData\Local\Temp\ccObHBpH.s 			page 16


 706              		.loc 1 140 0
 707              		.cfi_startproc
 708              		@ args = 0, pretend = 0, frame = 32
 709              		@ frame_needed = 1, uses_anonymous_args = 0
 710              		@ link register save eliminated.
 711 0000 80B4     		push	{r7}
 712              		.cfi_def_cfa_offset 4
 713              		.cfi_offset 7, -4
 714 0002 89B0     		sub	sp, sp, #36
 715              		.cfi_def_cfa_offset 40
 716 0004 00AF     		add	r7, sp, #0
 717              		.cfi_def_cfa_register 7
 718 0006 F860     		str	r0, [r7, #12]
 719 0008 B960     		str	r1, [r7, #8]
 720 000a 7A60     		str	r2, [r7, #4]
 141:.\blob_stats.c ****      // 0 center, + => Blob to Right, - => Blob to Left, -1 No blobs big enough
 142:.\blob_stats.c ****     int cx, cy, i;
 143:.\blob_stats.c ****     for(i = 0; i < NUMBER_OF_BLOBS; i++)
 721              		.loc 1 143 0
 722 000c 0023     		movs	r3, #0
 723 000e FB61     		str	r3, [r7, #28]
 724 0010 59E0     		b	.L43
 725              	.L48:
 144:.\blob_stats.c ****     {
 145:.\blob_stats.c ****         if(blobs[i].size < size)
 726              		.loc 1 145 0
 727 0012 324A     		ldr	r2, .L49
 728 0014 FB69     		ldr	r3, [r7, #28]
 729 0016 1B01     		lsls	r3, r3, #4
 730 0018 1344     		add	r3, r3, r2
 731 001a 9B88     		ldrh	r3, [r3, #4]
 732 001c 1A46     		mov	r2, r3
 733 001e BB68     		ldr	r3, [r7, #8]
 734 0020 9A42     		cmp	r2, r3
 735 0022 02DA     		bge	.L44
 146:.\blob_stats.c ****         {
 147:.\blob_stats.c ****             return -1;
 736              		.loc 1 147 0
 737 0024 4FF0FF33 		mov	r3, #-1
 738 0028 52E0     		b	.L45
 739              	.L44:
 148:.\blob_stats.c ****         } 
 149:.\blob_stats.c ****         else if(blobs[i].colour == colour)
 740              		.loc 1 149 0
 741 002a 2C4A     		ldr	r2, .L49
 742 002c FB69     		ldr	r3, [r7, #28]
 743 002e 1B01     		lsls	r3, r3, #4
 744 0030 1344     		add	r3, r3, r2
 745 0032 1A68     		ldr	r2, [r3]
 746 0034 FB68     		ldr	r3, [r7, #12]
 747 0036 9A42     		cmp	r2, r3
 748 0038 42D1     		bne	.L46
 150:.\blob_stats.c ****         {
 151:.\blob_stats.c ****             cx = blobs[i].x_sum/blobs[i].size;
 749              		.loc 1 151 0
 750 003a 284A     		ldr	r2, .L49
 751 003c FB69     		ldr	r3, [r7, #28]
ARM GAS  C:\Users\xavieran\AppData\Local\Temp\ccObHBpH.s 			page 17


 752 003e 1B01     		lsls	r3, r3, #4
 753 0040 1344     		add	r3, r3, r2
 754 0042 0833     		adds	r3, r3, #8
 755 0044 1A68     		ldr	r2, [r3]
 756 0046 2549     		ldr	r1, .L49
 757 0048 FB69     		ldr	r3, [r7, #28]
 758 004a 1B01     		lsls	r3, r3, #4
 759 004c 0B44     		add	r3, r3, r1
 760 004e 9B88     		ldrh	r3, [r3, #4]
 761 0050 B2FBF3F3 		udiv	r3, r2, r3
 762 0054 BB61     		str	r3, [r7, #24]
 152:.\blob_stats.c ****             cy = blobs[i].y_sum/blobs[i].size;
 763              		.loc 1 152 0
 764 0056 214A     		ldr	r2, .L49
 765 0058 FB69     		ldr	r3, [r7, #28]
 766 005a 1B01     		lsls	r3, r3, #4
 767 005c 1344     		add	r3, r3, r2
 768 005e 0833     		adds	r3, r3, #8
 769 0060 5A68     		ldr	r2, [r3, #4]
 770 0062 1E49     		ldr	r1, .L49
 771 0064 FB69     		ldr	r3, [r7, #28]
 772 0066 1B01     		lsls	r3, r3, #4
 773 0068 0B44     		add	r3, r3, r1
 774 006a 9B88     		ldrh	r3, [r3, #4]
 775 006c B2FBF3F3 		udiv	r3, r2, r3
 776 0070 7B61     		str	r3, [r7, #20]
 153:.\blob_stats.c ****             Camera_framebuffer[cy][cx][0] = 255;
 777              		.loc 1 153 0
 778 0072 1B4B     		ldr	r3, .L49+4
 779 0074 7A69     		ldr	r2, [r7, #20]
 780 0076 5821     		movs	r1, #88
 781 0078 01FB02F1 		mul	r1, r1, r2
 782 007c BA69     		ldr	r2, [r7, #24]
 783 007e 0A44     		add	r2, r2, r1
 784 0080 FF21     		movs	r1, #255
 785 0082 03F82210 		strb	r1, [r3, r2, lsl #2]
 154:.\blob_stats.c ****             Camera_framebuffer[cy][cx][2] = 255;
 786              		.loc 1 154 0
 787 0086 164A     		ldr	r2, .L49+4
 788 0088 7B69     		ldr	r3, [r7, #20]
 789 008a 5821     		movs	r1, #88
 790 008c 01FB03F1 		mul	r1, r1, r3
 791 0090 BB69     		ldr	r3, [r7, #24]
 792 0092 0B44     		add	r3, r3, r1
 793 0094 9B00     		lsls	r3, r3, #2
 794 0096 1344     		add	r3, r3, r2
 795 0098 FF22     		movs	r2, #255
 796 009a 9A70     		strb	r2, [r3, #2]
 155:.\blob_stats.c ****             if((cx - 44) >= -centre_threshold && (cx-44) <= centre_threshold)
 797              		.loc 1 155 0
 798 009c BB69     		ldr	r3, [r7, #24]
 799 009e A3F12C02 		sub	r2, r3, #44
 800 00a2 7B68     		ldr	r3, [r7, #4]
 801 00a4 5B42     		negs	r3, r3
 802 00a6 9A42     		cmp	r2, r3
 803 00a8 07DB     		blt	.L47
 804              		.loc 1 155 0 is_stmt 0 discriminator 1
ARM GAS  C:\Users\xavieran\AppData\Local\Temp\ccObHBpH.s 			page 18


 805 00aa BB69     		ldr	r3, [r7, #24]
 806 00ac A3F12C02 		sub	r2, r3, #44
 807 00b0 7B68     		ldr	r3, [r7, #4]
 808 00b2 9A42     		cmp	r2, r3
 809 00b4 01DC     		bgt	.L47
 156:.\blob_stats.c ****             {
 157:.\blob_stats.c ****                 return 0;
 810              		.loc 1 157 0 is_stmt 1
 811 00b6 0023     		movs	r3, #0
 812 00b8 0AE0     		b	.L45
 813              	.L47:
 158:.\blob_stats.c ****             }
 159:.\blob_stats.c ****             else
 160:.\blob_stats.c ****             {
 161:.\blob_stats.c ****             	return cx-44;
 814              		.loc 1 161 0
 815 00ba BB69     		ldr	r3, [r7, #24]
 816 00bc 2C3B     		subs	r3, r3, #44
 817 00be 07E0     		b	.L45
 818              	.L46:
 143:.\blob_stats.c ****     for(i = 0; i < NUMBER_OF_BLOBS; i++)
 819              		.loc 1 143 0
 820 00c0 FB69     		ldr	r3, [r7, #28]
 821 00c2 0133     		adds	r3, r3, #1
 822 00c4 FB61     		str	r3, [r7, #28]
 823              	.L43:
 143:.\blob_stats.c ****     for(i = 0; i < NUMBER_OF_BLOBS; i++)
 824              		.loc 1 143 0 is_stmt 0 discriminator 1
 825 00c6 FB69     		ldr	r3, [r7, #28]
 826 00c8 FE2B     		cmp	r3, #254
 827 00ca A2DD     		ble	.L48
 162:.\blob_stats.c ****             }
 163:.\blob_stats.c ****         }
 164:.\blob_stats.c ****     }
 165:.\blob_stats.c ****     return -1;
 828              		.loc 1 165 0 is_stmt 1
 829 00cc 4FF0FF33 		mov	r3, #-1
 830              	.L45:
 166:.\blob_stats.c **** }
 831              		.loc 1 166 0
 832 00d0 1846     		mov	r0, r3
 833 00d2 2437     		adds	r7, r7, #36
 834 00d4 BD46     		mov	sp, r7
 835              		@ sp needed
 836 00d6 5DF8047B 		ldr	r7, [sp], #4
 837 00da 7047     		bx	lr
 838              	.L50:
 839              		.align	2
 840              	.L49:
 841 00dc 00000000 		.word	blobs
 842 00e0 00000000 		.word	Camera_framebuffer
 843              		.cfi_endproc
 844              	.LFE67:
 845              		.size	to_nearest_blob, .-to_nearest_blob
 846              		.section	.text.size_of_biggest_colour,"ax",%progbits
 847              		.align	2
 848              		.global	size_of_biggest_colour
ARM GAS  C:\Users\xavieran\AppData\Local\Temp\ccObHBpH.s 			page 19


 849              		.thumb
 850              		.thumb_func
 851              		.type	size_of_biggest_colour, %function
 852              	size_of_biggest_colour:
 853              	.LFB68:
 167:.\blob_stats.c **** 
 168:.\blob_stats.c **** uint8 size_of_biggest_colour(int colour)
 169:.\blob_stats.c **** {
 854              		.loc 1 169 0
 855              		.cfi_startproc
 856              		@ args = 0, pretend = 0, frame = 16
 857              		@ frame_needed = 1, uses_anonymous_args = 0
 858              		@ link register save eliminated.
 859 0000 80B4     		push	{r7}
 860              		.cfi_def_cfa_offset 4
 861              		.cfi_offset 7, -4
 862 0002 85B0     		sub	sp, sp, #20
 863              		.cfi_def_cfa_offset 24
 864 0004 00AF     		add	r7, sp, #0
 865              		.cfi_def_cfa_register 7
 866 0006 7860     		str	r0, [r7, #4]
 170:.\blob_stats.c ****     int i;
 171:.\blob_stats.c ****     for(i = 0; i < NUMBER_OF_BLOBS; i++)
 867              		.loc 1 171 0
 868 0008 0023     		movs	r3, #0
 869 000a FB60     		str	r3, [r7, #12]
 870 000c 11E0     		b	.L52
 871              	.L55:
 172:.\blob_stats.c ****     {
 173:.\blob_stats.c ****         if(blobs[i].colour == colour)
 872              		.loc 1 173 0
 873 000e 0E4A     		ldr	r2, .L56
 874 0010 FB68     		ldr	r3, [r7, #12]
 875 0012 1B01     		lsls	r3, r3, #4
 876 0014 1344     		add	r3, r3, r2
 877 0016 1A68     		ldr	r2, [r3]
 878 0018 7B68     		ldr	r3, [r7, #4]
 879 001a 9A42     		cmp	r2, r3
 880 001c 06D1     		bne	.L53
 174:.\blob_stats.c ****         {
 175:.\blob_stats.c ****             return blobs[i].size;   
 881              		.loc 1 175 0
 882 001e 0A4A     		ldr	r2, .L56
 883 0020 FB68     		ldr	r3, [r7, #12]
 884 0022 1B01     		lsls	r3, r3, #4
 885 0024 1344     		add	r3, r3, r2
 886 0026 9B88     		ldrh	r3, [r3, #4]
 887 0028 DBB2     		uxtb	r3, r3
 888 002a 06E0     		b	.L54
 889              	.L53:
 171:.\blob_stats.c ****     for(i = 0; i < NUMBER_OF_BLOBS; i++)
 890              		.loc 1 171 0
 891 002c FB68     		ldr	r3, [r7, #12]
 892 002e 0133     		adds	r3, r3, #1
 893 0030 FB60     		str	r3, [r7, #12]
 894              	.L52:
 171:.\blob_stats.c ****     for(i = 0; i < NUMBER_OF_BLOBS; i++)
ARM GAS  C:\Users\xavieran\AppData\Local\Temp\ccObHBpH.s 			page 20


 895              		.loc 1 171 0 is_stmt 0 discriminator 1
 896 0032 FB68     		ldr	r3, [r7, #12]
 897 0034 FE2B     		cmp	r3, #254
 898 0036 EADD     		ble	.L55
 176:.\blob_stats.c ****         }
 177:.\blob_stats.c ****     }
 178:.\blob_stats.c ****     return 0;
 899              		.loc 1 178 0 is_stmt 1
 900 0038 0023     		movs	r3, #0
 901              	.L54:
 179:.\blob_stats.c **** }
 902              		.loc 1 179 0
 903 003a 1846     		mov	r0, r3
 904 003c 1437     		adds	r7, r7, #20
 905 003e BD46     		mov	sp, r7
 906              		@ sp needed
 907 0040 5DF8047B 		ldr	r7, [sp], #4
 908 0044 7047     		bx	lr
 909              	.L57:
 910 0046 00BF     		.align	2
 911              	.L56:
 912 0048 00000000 		.word	blobs
 913              		.cfi_endproc
 914              	.LFE68:
 915              		.size	size_of_biggest_colour, .-size_of_biggest_colour
 916              		.section	.text.sideways_instruction_read,"ax",%progbits
 917              		.align	2
 918              		.global	sideways_instruction_read
 919              		.thumb
 920              		.thumb_func
 921              		.type	sideways_instruction_read, %function
 922              	sideways_instruction_read:
 923              	.LFB69:
 180:.\blob_stats.c **** 
 181:.\blob_stats.c **** void sideways_instruction_read()
 182:.\blob_stats.c **** {
 924              		.loc 1 182 0
 925              		.cfi_startproc
 926              		@ args = 0, pretend = 0, frame = 64
 927              		@ frame_needed = 1, uses_anonymous_args = 0
 928              		@ link register save eliminated.
 929 0000 80B4     		push	{r7}
 930              		.cfi_def_cfa_offset 4
 931              		.cfi_offset 7, -4
 932 0002 91B0     		sub	sp, sp, #68
 933              		.cfi_def_cfa_offset 72
 934 0004 00AF     		add	r7, sp, #0
 935              		.cfi_def_cfa_register 7
 183:.\blob_stats.c ****      // 0 center, + => Blob to Right, - => Blob to Left, -1 No blobs big enough
 184:.\blob_stats.c ****     int cx, cy, i;
 185:.\blob_stats.c ****     int c[4],s[4],ind[4];
 186:.\blob_stats.c ****     for(i = 0; i < 4; i++)
 936              		.loc 1 186 0
 937 0006 0023     		movs	r3, #0
 938 0008 FB63     		str	r3, [r7, #60]
 939 000a 44E0     		b	.L59
 940              	.L60:
ARM GAS  C:\Users\xavieran\AppData\Local\Temp\ccObHBpH.s 			page 21


 187:.\blob_stats.c ****     {
 188:.\blob_stats.c ****         cx = blobs[i].x_sum/blobs[i].size;
 941              		.loc 1 188 0 discriminator 2
 942 000c 764A     		ldr	r2, .L75
 943 000e FB6B     		ldr	r3, [r7, #60]
 944 0010 1B01     		lsls	r3, r3, #4
 945 0012 1344     		add	r3, r3, r2
 946 0014 0833     		adds	r3, r3, #8
 947 0016 1A68     		ldr	r2, [r3]
 948 0018 7349     		ldr	r1, .L75
 949 001a FB6B     		ldr	r3, [r7, #60]
 950 001c 1B01     		lsls	r3, r3, #4
 951 001e 0B44     		add	r3, r3, r1
 952 0020 9B88     		ldrh	r3, [r3, #4]
 953 0022 B2FBF3F3 		udiv	r3, r2, r3
 954 0026 BB63     		str	r3, [r7, #56]
 189:.\blob_stats.c ****         cy = blobs[i].y_sum/blobs[i].size;
 955              		.loc 1 189 0 discriminator 2
 956 0028 6F4A     		ldr	r2, .L75
 957 002a FB6B     		ldr	r3, [r7, #60]
 958 002c 1B01     		lsls	r3, r3, #4
 959 002e 1344     		add	r3, r3, r2
 960 0030 0833     		adds	r3, r3, #8
 961 0032 5A68     		ldr	r2, [r3, #4]
 962 0034 6C49     		ldr	r1, .L75
 963 0036 FB6B     		ldr	r3, [r7, #60]
 964 0038 1B01     		lsls	r3, r3, #4
 965 003a 0B44     		add	r3, r3, r1
 966 003c 9B88     		ldrh	r3, [r3, #4]
 967 003e B2FBF3F3 		udiv	r3, r2, r3
 968 0042 7B63     		str	r3, [r7, #52]
 190:.\blob_stats.c ****         Camera_framebuffer[cy][cx][0] = 255;
 969              		.loc 1 190 0 discriminator 2
 970 0044 694B     		ldr	r3, .L75+4
 971 0046 7A6B     		ldr	r2, [r7, #52]
 972 0048 5821     		movs	r1, #88
 973 004a 01FB02F1 		mul	r1, r1, r2
 974 004e BA6B     		ldr	r2, [r7, #56]
 975 0050 0A44     		add	r2, r2, r1
 976 0052 FF21     		movs	r1, #255
 977 0054 03F82210 		strb	r1, [r3, r2, lsl #2]
 191:.\blob_stats.c ****         Camera_framebuffer[cy][cx][2] = 255;
 978              		.loc 1 191 0 discriminator 2
 979 0058 644A     		ldr	r2, .L75+4
 980 005a 7B6B     		ldr	r3, [r7, #52]
 981 005c 5821     		movs	r1, #88
 982 005e 01FB03F1 		mul	r1, r1, r3
 983 0062 BB6B     		ldr	r3, [r7, #56]
 984 0064 0B44     		add	r3, r3, r1
 985 0066 9B00     		lsls	r3, r3, #2
 986 0068 1344     		add	r3, r3, r2
 987 006a FF22     		movs	r2, #255
 988 006c 9A70     		strb	r2, [r3, #2]
 192:.\blob_stats.c ****         c[i] = cx;
 989              		.loc 1 192 0 discriminator 2
 990 006e FB6B     		ldr	r3, [r7, #60]
 991 0070 9B00     		lsls	r3, r3, #2
ARM GAS  C:\Users\xavieran\AppData\Local\Temp\ccObHBpH.s 			page 22


 992 0072 07F14002 		add	r2, r7, #64
 993 0076 1344     		add	r3, r3, r2
 994 0078 BA6B     		ldr	r2, [r7, #56]
 995 007a 43F81C2C 		str	r2, [r3, #-28]
 193:.\blob_stats.c ****         s[i] = 1000;
 996              		.loc 1 193 0 discriminator 2
 997 007e FB6B     		ldr	r3, [r7, #60]
 998 0080 9B00     		lsls	r3, r3, #2
 999 0082 07F14002 		add	r2, r7, #64
 1000 0086 1344     		add	r3, r3, r2
 1001 0088 4FF47A72 		mov	r2, #1000
 1002 008c 43F82C2C 		str	r2, [r3, #-44]
 186:.\blob_stats.c ****     for(i = 0; i < 4; i++)
 1003              		.loc 1 186 0 discriminator 2
 1004 0090 FB6B     		ldr	r3, [r7, #60]
 1005 0092 0133     		adds	r3, r3, #1
 1006 0094 FB63     		str	r3, [r7, #60]
 1007              	.L59:
 186:.\blob_stats.c ****     for(i = 0; i < 4; i++)
 1008              		.loc 1 186 0 is_stmt 0 discriminator 1
 1009 0096 FB6B     		ldr	r3, [r7, #60]
 1010 0098 032B     		cmp	r3, #3
 1011 009a B7DD     		ble	.L60
 194:.\blob_stats.c ****     }
 195:.\blob_stats.c ****     for(i = 0; i < 4; i++)
 1012              		.loc 1 195 0 is_stmt 1
 1013 009c 0023     		movs	r3, #0
 1014 009e FB63     		str	r3, [r7, #60]
 1015 00a0 16E0     		b	.L61
 1016              	.L63:
 196:.\blob_stats.c ****     {
 197:.\blob_stats.c ****         if(c[i] < s[0])
 1017              		.loc 1 197 0
 1018 00a2 FB6B     		ldr	r3, [r7, #60]
 1019 00a4 9B00     		lsls	r3, r3, #2
 1020 00a6 07F14002 		add	r2, r7, #64
 1021 00aa 1344     		add	r3, r3, r2
 1022 00ac 53F81C2C 		ldr	r2, [r3, #-28]
 1023 00b0 7B69     		ldr	r3, [r7, #20]
 1024 00b2 9A42     		cmp	r2, r3
 1025 00b4 09DA     		bge	.L62
 198:.\blob_stats.c ****         {
 199:.\blob_stats.c ****             ind[0] = i;
 1026              		.loc 1 199 0
 1027 00b6 FB6B     		ldr	r3, [r7, #60]
 1028 00b8 7B60     		str	r3, [r7, #4]
 200:.\blob_stats.c ****             s[0] = c[i];
 1029              		.loc 1 200 0
 1030 00ba FB6B     		ldr	r3, [r7, #60]
 1031 00bc 9B00     		lsls	r3, r3, #2
 1032 00be 07F14002 		add	r2, r7, #64
 1033 00c2 1344     		add	r3, r3, r2
 1034 00c4 53F81C3C 		ldr	r3, [r3, #-28]
 1035 00c8 7B61     		str	r3, [r7, #20]
 1036              	.L62:
 195:.\blob_stats.c ****     for(i = 0; i < 4; i++)
 1037              		.loc 1 195 0
ARM GAS  C:\Users\xavieran\AppData\Local\Temp\ccObHBpH.s 			page 23


 1038 00ca FB6B     		ldr	r3, [r7, #60]
 1039 00cc 0133     		adds	r3, r3, #1
 1040 00ce FB63     		str	r3, [r7, #60]
 1041              	.L61:
 195:.\blob_stats.c ****     for(i = 0; i < 4; i++)
 1042              		.loc 1 195 0 is_stmt 0 discriminator 1
 1043 00d0 FB6B     		ldr	r3, [r7, #60]
 1044 00d2 032B     		cmp	r3, #3
 1045 00d4 E5DD     		ble	.L63
 201:.\blob_stats.c ****         }
 202:.\blob_stats.c ****     }
 203:.\blob_stats.c ****     for(i = 0; i < 4; i++)
 1046              		.loc 1 203 0 is_stmt 1
 1047 00d6 0023     		movs	r3, #0
 1048 00d8 FB63     		str	r3, [r7, #60]
 1049 00da 20E0     		b	.L64
 1050              	.L66:
 204:.\blob_stats.c ****     {   
 205:.\blob_stats.c ****         if(c[i] > s[0] && c[i] < s[1])
 1051              		.loc 1 205 0
 1052 00dc FB6B     		ldr	r3, [r7, #60]
 1053 00de 9B00     		lsls	r3, r3, #2
 1054 00e0 07F14002 		add	r2, r7, #64
 1055 00e4 1344     		add	r3, r3, r2
 1056 00e6 53F81C2C 		ldr	r2, [r3, #-28]
 1057 00ea 7B69     		ldr	r3, [r7, #20]
 1058 00ec 9A42     		cmp	r2, r3
 1059 00ee 13DD     		ble	.L65
 1060              		.loc 1 205 0 is_stmt 0 discriminator 1
 1061 00f0 FB6B     		ldr	r3, [r7, #60]
 1062 00f2 9B00     		lsls	r3, r3, #2
 1063 00f4 07F14002 		add	r2, r7, #64
 1064 00f8 1344     		add	r3, r3, r2
 1065 00fa 53F81C2C 		ldr	r2, [r3, #-28]
 1066 00fe BB69     		ldr	r3, [r7, #24]
 1067 0100 9A42     		cmp	r2, r3
 1068 0102 09DA     		bge	.L65
 206:.\blob_stats.c ****         {
 207:.\blob_stats.c ****             ind[1] = i;
 1069              		.loc 1 207 0 is_stmt 1
 1070 0104 FB6B     		ldr	r3, [r7, #60]
 1071 0106 BB60     		str	r3, [r7, #8]
 208:.\blob_stats.c ****             s[1] = c[i];
 1072              		.loc 1 208 0
 1073 0108 FB6B     		ldr	r3, [r7, #60]
 1074 010a 9B00     		lsls	r3, r3, #2
 1075 010c 07F14002 		add	r2, r7, #64
 1076 0110 1344     		add	r3, r3, r2
 1077 0112 53F81C3C 		ldr	r3, [r3, #-28]
 1078 0116 BB61     		str	r3, [r7, #24]
 1079              	.L65:
 203:.\blob_stats.c ****     for(i = 0; i < 4; i++)
 1080              		.loc 1 203 0
 1081 0118 FB6B     		ldr	r3, [r7, #60]
 1082 011a 0133     		adds	r3, r3, #1
 1083 011c FB63     		str	r3, [r7, #60]
 1084              	.L64:
ARM GAS  C:\Users\xavieran\AppData\Local\Temp\ccObHBpH.s 			page 24


 203:.\blob_stats.c ****     for(i = 0; i < 4; i++)
 1085              		.loc 1 203 0 is_stmt 0 discriminator 1
 1086 011e FB6B     		ldr	r3, [r7, #60]
 1087 0120 032B     		cmp	r3, #3
 1088 0122 DBDD     		ble	.L66
 209:.\blob_stats.c ****         }
 210:.\blob_stats.c ****     }
 211:.\blob_stats.c ****     for(i = 0; i < 4; i++)
 1089              		.loc 1 211 0 is_stmt 1
 1090 0124 0023     		movs	r3, #0
 1091 0126 FB63     		str	r3, [r7, #60]
 1092 0128 20E0     		b	.L67
 1093              	.L69:
 212:.\blob_stats.c ****     {
 213:.\blob_stats.c ****         if(c[i] > s[1] && c[i] < s[2])
 1094              		.loc 1 213 0
 1095 012a FB6B     		ldr	r3, [r7, #60]
 1096 012c 9B00     		lsls	r3, r3, #2
 1097 012e 07F14002 		add	r2, r7, #64
 1098 0132 1344     		add	r3, r3, r2
 1099 0134 53F81C2C 		ldr	r2, [r3, #-28]
 1100 0138 BB69     		ldr	r3, [r7, #24]
 1101 013a 9A42     		cmp	r2, r3
 1102 013c 13DD     		ble	.L68
 1103              		.loc 1 213 0 is_stmt 0 discriminator 1
 1104 013e FB6B     		ldr	r3, [r7, #60]
 1105 0140 9B00     		lsls	r3, r3, #2
 1106 0142 07F14002 		add	r2, r7, #64
 1107 0146 1344     		add	r3, r3, r2
 1108 0148 53F81C2C 		ldr	r2, [r3, #-28]
 1109 014c FB69     		ldr	r3, [r7, #28]
 1110 014e 9A42     		cmp	r2, r3
 1111 0150 09DA     		bge	.L68
 214:.\blob_stats.c ****         {
 215:.\blob_stats.c ****             ind[2] = i;
 1112              		.loc 1 215 0 is_stmt 1
 1113 0152 FB6B     		ldr	r3, [r7, #60]
 1114 0154 FB60     		str	r3, [r7, #12]
 216:.\blob_stats.c ****             s[2] = c[i];
 1115              		.loc 1 216 0
 1116 0156 FB6B     		ldr	r3, [r7, #60]
 1117 0158 9B00     		lsls	r3, r3, #2
 1118 015a 07F14002 		add	r2, r7, #64
 1119 015e 1344     		add	r3, r3, r2
 1120 0160 53F81C3C 		ldr	r3, [r3, #-28]
 1121 0164 FB61     		str	r3, [r7, #28]
 1122              	.L68:
 211:.\blob_stats.c ****     for(i = 0; i < 4; i++)
 1123              		.loc 1 211 0
 1124 0166 FB6B     		ldr	r3, [r7, #60]
 1125 0168 0133     		adds	r3, r3, #1
 1126 016a FB63     		str	r3, [r7, #60]
 1127              	.L67:
 211:.\blob_stats.c ****     for(i = 0; i < 4; i++)
 1128              		.loc 1 211 0 is_stmt 0 discriminator 1
 1129 016c FB6B     		ldr	r3, [r7, #60]
 1130 016e 032B     		cmp	r3, #3
ARM GAS  C:\Users\xavieran\AppData\Local\Temp\ccObHBpH.s 			page 25


 1131 0170 DBDD     		ble	.L69
 217:.\blob_stats.c ****         }
 218:.\blob_stats.c ****     }
 219:.\blob_stats.c ****     for(i = 0; i < 4; i++)
 1132              		.loc 1 219 0 is_stmt 1
 1133 0172 0023     		movs	r3, #0
 1134 0174 FB63     		str	r3, [r7, #60]
 1135 0176 16E0     		b	.L70
 1136              	.L72:
 220:.\blob_stats.c ****     {
 221:.\blob_stats.c ****         if(c[i] > s[2])
 1137              		.loc 1 221 0
 1138 0178 FB6B     		ldr	r3, [r7, #60]
 1139 017a 9B00     		lsls	r3, r3, #2
 1140 017c 07F14002 		add	r2, r7, #64
 1141 0180 1344     		add	r3, r3, r2
 1142 0182 53F81C2C 		ldr	r2, [r3, #-28]
 1143 0186 FB69     		ldr	r3, [r7, #28]
 1144 0188 9A42     		cmp	r2, r3
 1145 018a 09DD     		ble	.L71
 222:.\blob_stats.c ****         {
 223:.\blob_stats.c ****             ind[3] = i;
 1146              		.loc 1 223 0
 1147 018c FB6B     		ldr	r3, [r7, #60]
 1148 018e 3B61     		str	r3, [r7, #16]
 224:.\blob_stats.c ****             s[2] = c[i];
 1149              		.loc 1 224 0
 1150 0190 FB6B     		ldr	r3, [r7, #60]
 1151 0192 9B00     		lsls	r3, r3, #2
 1152 0194 07F14002 		add	r2, r7, #64
 1153 0198 1344     		add	r3, r3, r2
 1154 019a 53F81C3C 		ldr	r3, [r3, #-28]
 1155 019e FB61     		str	r3, [r7, #28]
 1156              	.L71:
 219:.\blob_stats.c ****     for(i = 0; i < 4; i++)
 1157              		.loc 1 219 0
 1158 01a0 FB6B     		ldr	r3, [r7, #60]
 1159 01a2 0133     		adds	r3, r3, #1
 1160 01a4 FB63     		str	r3, [r7, #60]
 1161              	.L70:
 219:.\blob_stats.c ****     for(i = 0; i < 4; i++)
 1162              		.loc 1 219 0 is_stmt 0 discriminator 1
 1163 01a6 FB6B     		ldr	r3, [r7, #60]
 1164 01a8 032B     		cmp	r3, #3
 1165 01aa E5DD     		ble	.L72
 225:.\blob_stats.c ****         }
 226:.\blob_stats.c ****     }
 227:.\blob_stats.c ****     for(i = 0; i < 4; i++)
 1166              		.loc 1 227 0 is_stmt 1
 1167 01ac 0023     		movs	r3, #0
 1168 01ae FB63     		str	r3, [r7, #60]
 1169 01b0 11E0     		b	.L73
 1170              	.L74:
 228:.\blob_stats.c ****     {
 229:.\blob_stats.c ****         stack[i] = blobs[ind[i]].colour;
 1171              		.loc 1 229 0 discriminator 2
 1172 01b2 FB6B     		ldr	r3, [r7, #60]
ARM GAS  C:\Users\xavieran\AppData\Local\Temp\ccObHBpH.s 			page 26


 1173 01b4 9B00     		lsls	r3, r3, #2
 1174 01b6 07F14002 		add	r2, r7, #64
 1175 01ba 1344     		add	r3, r3, r2
 1176 01bc 53F83C3C 		ldr	r3, [r3, #-60]
 1177 01c0 094A     		ldr	r2, .L75
 1178 01c2 1B01     		lsls	r3, r3, #4
 1179 01c4 1344     		add	r3, r3, r2
 1180 01c6 1968     		ldr	r1, [r3]
 1181 01c8 094B     		ldr	r3, .L75+8
 1182 01ca FA6B     		ldr	r2, [r7, #60]
 1183 01cc 43F82210 		str	r1, [r3, r2, lsl #2]
 227:.\blob_stats.c ****     for(i = 0; i < 4; i++)
 1184              		.loc 1 227 0 discriminator 2
 1185 01d0 FB6B     		ldr	r3, [r7, #60]
 1186 01d2 0133     		adds	r3, r3, #1
 1187 01d4 FB63     		str	r3, [r7, #60]
 1188              	.L73:
 227:.\blob_stats.c ****     for(i = 0; i < 4; i++)
 1189              		.loc 1 227 0 is_stmt 0 discriminator 1
 1190 01d6 FB6B     		ldr	r3, [r7, #60]
 1191 01d8 032B     		cmp	r3, #3
 1192 01da EADD     		ble	.L74
 230:.\blob_stats.c ****     }
 231:.\blob_stats.c **** }...
 1193              		.loc 1 231 0 is_stmt 1
 1194 01dc 4437     		adds	r7, r7, #68
 1195 01de BD46     		mov	sp, r7
 1196              		@ sp needed
 1197 01e0 5DF8047B 		ldr	r7, [sp], #4
 1198 01e4 7047     		bx	lr
 1199              	.L76:
 1200 01e6 00BF     		.align	2
 1201              	.L75:
 1202 01e8 00000000 		.word	blobs
 1203 01ec 00000000 		.word	Camera_framebuffer
 1204 01f0 00000000 		.word	stack
 1205              		.cfi_endproc
 1206              	.LFE69:
 1207              		.size	sideways_instruction_read, .-sideways_instruction_read
 1208              		.text
 1209              	.Letext0:
 1210              		.file 2 "c:\\program files (x86)\\cypress\\psoc creator\\3.2\\psoc creator\\import\\gnu\\arm\\4.8.
 1211              		.file 3 "c:\\program files (x86)\\cypress\\psoc creator\\3.2\\psoc creator\\import\\gnu\\arm\\4.8.
 1212              		.file 4 "Generated_Source\\PSoC5/cytypes.h"
 1213              		.file 5 "Generated_Source\\PSoC5/core_cm3.h"
 1214              		.file 6 "Generated_Source\\PSoC5/Camera.h"
 1215              		.file 7 "./my_camera_functions.h"
 1216              		.section	.debug_info,"",%progbits
 1217              	.Ldebug_info0:
 1218 0000 ED030000 		.4byte	0x3ed
 1219 0004 0400     		.2byte	0x4
 1220 0006 00000000 		.4byte	.Ldebug_abbrev0
 1221 000a 04       		.byte	0x4
 1222 000b 01       		.uleb128 0x1
 1223 000c 05000000 		.4byte	.LASF43
 1224 0010 01       		.byte	0x1
 1225 0011 90000000 		.4byte	.LASF44
ARM GAS  C:\Users\xavieran\AppData\Local\Temp\ccObHBpH.s 			page 27


 1226 0015 09010000 		.4byte	.LASF45
 1227 0019 00000000 		.4byte	.Ldebug_ranges0+0
 1228 001d 00000000 		.4byte	0
 1229 0021 00000000 		.4byte	.Ldebug_line0
 1230 0025 02       		.uleb128 0x2
 1231 0026 04       		.byte	0x4
 1232 0027 07       		.byte	0x7
 1233 0028 E4010000 		.4byte	.LASF0
 1234 002c 03       		.uleb128 0x3
 1235 002d 04       		.byte	0x4
 1236 002e 05       		.byte	0x5
 1237 002f 696E7400 		.ascii	"int\000"
 1238 0033 02       		.uleb128 0x2
 1239 0034 01       		.byte	0x1
 1240 0035 06       		.byte	0x6
 1241 0036 7F020000 		.4byte	.LASF1
 1242 003a 02       		.uleb128 0x2
 1243 003b 01       		.byte	0x1
 1244 003c 08       		.byte	0x8
 1245 003d 88010000 		.4byte	.LASF2
 1246 0041 02       		.uleb128 0x2
 1247 0042 02       		.byte	0x2
 1248 0043 05       		.byte	0x5
 1249 0044 BD000000 		.4byte	.LASF3
 1250 0048 02       		.uleb128 0x2
 1251 0049 02       		.byte	0x2
 1252 004a 07       		.byte	0x7
 1253 004b 8B020000 		.4byte	.LASF4
 1254 004f 04       		.uleb128 0x4
 1255 0050 86000000 		.4byte	.LASF11
 1256 0054 02       		.byte	0x2
 1257 0055 37       		.byte	0x37
 1258 0056 5A000000 		.4byte	0x5a
 1259 005a 02       		.uleb128 0x2
 1260 005b 04       		.byte	0x4
 1261 005c 05       		.byte	0x5
 1262 005d 70020000 		.4byte	.LASF5
 1263 0061 02       		.uleb128 0x2
 1264 0062 04       		.byte	0x4
 1265 0063 07       		.byte	0x7
 1266 0064 A7010000 		.4byte	.LASF6
 1267 0068 02       		.uleb128 0x2
 1268 0069 08       		.byte	0x8
 1269 006a 05       		.byte	0x5
 1270 006b F6000000 		.4byte	.LASF7
 1271 006f 02       		.uleb128 0x2
 1272 0070 08       		.byte	0x8
 1273 0071 07       		.byte	0x7
 1274 0072 1B020000 		.4byte	.LASF8
 1275 0076 02       		.uleb128 0x2
 1276 0077 04       		.byte	0x4
 1277 0078 07       		.byte	0x7
 1278 0079 50020000 		.4byte	.LASF9
 1279 007d 02       		.uleb128 0x2
 1280 007e 01       		.byte	0x1
 1281 007f 08       		.byte	0x8
 1282 0080 59020000 		.4byte	.LASF10
ARM GAS  C:\Users\xavieran\AppData\Local\Temp\ccObHBpH.s 			page 28


 1283 0084 05       		.uleb128 0x5
 1284 0085 04       		.byte	0x4
 1285 0086 8A000000 		.4byte	0x8a
 1286 008a 06       		.uleb128 0x6
 1287 008b 04       		.uleb128 0x4
 1288 008c 48020000 		.4byte	.LASF12
 1289 0090 03       		.byte	0x3
 1290 0091 41       		.byte	0x41
 1291 0092 4F000000 		.4byte	0x4f
 1292 0096 04       		.uleb128 0x4
 1293 0097 6A020000 		.4byte	.LASF13
 1294 009b 04       		.byte	0x4
 1295 009c B3       		.byte	0xb3
 1296 009d 3A000000 		.4byte	0x3a
 1297 00a1 04       		.uleb128 0x4
 1298 00a2 C9010000 		.4byte	.LASF14
 1299 00a6 04       		.byte	0x4
 1300 00a7 B4       		.byte	0xb4
 1301 00a8 48000000 		.4byte	0x48
 1302 00ac 04       		.uleb128 0x4
 1303 00ad D0010000 		.4byte	.LASF15
 1304 00b1 04       		.byte	0x4
 1305 00b2 B5       		.byte	0xb5
 1306 00b3 61000000 		.4byte	0x61
 1307 00b7 02       		.uleb128 0x2
 1308 00b8 04       		.byte	0x4
 1309 00b9 04       		.byte	0x4
 1310 00ba F0000000 		.4byte	.LASF16
 1311 00be 02       		.uleb128 0x2
 1312 00bf 08       		.byte	0x8
 1313 00c0 04       		.byte	0x4
 1314 00c1 C7000000 		.4byte	.LASF17
 1315 00c5 07       		.uleb128 0x7
 1316 00c6 01       		.byte	0x1
 1317 00c7 07       		.byte	0x7
 1318 00c8 21       		.byte	0x21
 1319 00c9 E6000000 		.4byte	0xe6
 1320 00cd 08       		.uleb128 0x8
 1321 00ce 81000000 		.4byte	.LASF18
 1322 00d2 00       		.sleb128 0
 1323 00d3 09       		.uleb128 0x9
 1324 00d4 52454400 		.ascii	"RED\000"
 1325 00d8 01       		.sleb128 1
 1326 00d9 08       		.uleb128 0x8
 1327 00da DE010000 		.4byte	.LASF19
 1328 00de 02       		.sleb128 2
 1329 00df 08       		.uleb128 0x8
 1330 00e0 CE000000 		.4byte	.LASF20
 1331 00e4 03       		.sleb128 3
 1332 00e5 00       		.byte	0
 1333 00e6 0A       		.uleb128 0xa
 1334 00e7 10       		.byte	0x10
 1335 00e8 01       		.byte	0x1
 1336 00e9 08       		.byte	0x8
 1337 00ea 1F010000 		.4byte	0x11f
 1338 00ee 0B       		.uleb128 0xb
 1339 00ef D7010000 		.4byte	.LASF21
ARM GAS  C:\Users\xavieran\AppData\Local\Temp\ccObHBpH.s 			page 29


 1340 00f3 01       		.byte	0x1
 1341 00f4 0A       		.byte	0xa
 1342 00f5 2C000000 		.4byte	0x2c
 1343 00f9 00       		.byte	0
 1344 00fa 0B       		.uleb128 0xb
 1345 00fb 04010000 		.4byte	.LASF22
 1346 00ff 01       		.byte	0x1
 1347 0100 0B       		.byte	0xb
 1348 0101 A1000000 		.4byte	0xa1
 1349 0105 04       		.byte	0x4
 1350 0106 0B       		.uleb128 0xb
 1351 0107 42020000 		.4byte	.LASF23
 1352 010b 01       		.byte	0x1
 1353 010c 0C       		.byte	0xc
 1354 010d AC000000 		.4byte	0xac
 1355 0111 08       		.byte	0x8
 1356 0112 0B       		.uleb128 0xb
 1357 0113 79020000 		.4byte	.LASF24
 1358 0117 01       		.byte	0x1
 1359 0118 0C       		.byte	0xc
 1360 0119 AC000000 		.4byte	0xac
 1361 011d 0C       		.byte	0xc
 1362 011e 00       		.byte	0
 1363 011f 04       		.uleb128 0x4
 1364 0120 00000000 		.4byte	.LASF25
 1365 0124 01       		.byte	0x1
 1366 0125 0D       		.byte	0xd
 1367 0126 E6000000 		.4byte	0xe6
 1368 012a 0C       		.uleb128 0xc
 1369 012b F1010000 		.4byte	.LASF30
 1370 012f 01       		.byte	0x1
 1371 0130 13       		.byte	0x13
 1372 0131 2C000000 		.4byte	0x2c
 1373 0135 00000000 		.4byte	.LFB63
 1374 0139 34000000 		.4byte	.LFE63-.LFB63
 1375 013d 01       		.uleb128 0x1
 1376 013e 9C       		.byte	0x9c
 1377 013f 50010000 		.4byte	0x150
 1378 0143 0D       		.uleb128 0xd
 1379 0144 6E00     		.ascii	"n\000"
 1380 0146 01       		.byte	0x1
 1381 0147 13       		.byte	0x13
 1382 0148 2C000000 		.4byte	0x2c
 1383 014c 02       		.uleb128 0x2
 1384 014d 91       		.byte	0x91
 1385 014e 74       		.sleb128 -12
 1386 014f 00       		.byte	0
 1387 0150 0E       		.uleb128 0xe
 1388 0151 9E020000 		.4byte	.LASF37
 1389 0155 01       		.byte	0x1
 1390 0156 1F       		.byte	0x1f
 1391 0157 00000000 		.4byte	.LFB64
 1392 015b D4030000 		.4byte	.LFE64-.LFB64
 1393 015f 01       		.uleb128 0x1
 1394 0160 9C       		.byte	0x9c
 1395 0161 C3010000 		.4byte	0x1c3
 1396 0165 0F       		.uleb128 0xf
ARM GAS  C:\Users\xavieran\AppData\Local\Temp\ccObHBpH.s 			page 30


 1397 0166 5D010000 		.4byte	.LASF26
 1398 016a 01       		.byte	0x1
 1399 016b 21       		.byte	0x21
 1400 016c C3010000 		.4byte	0x1c3
 1401 0170 03       		.uleb128 0x3
 1402 0171 91       		.byte	0x91
 1403 0172 F87C     		.sleb128 -392
 1404 0174 10       		.uleb128 0x10
 1405 0175 7800     		.ascii	"x\000"
 1406 0177 01       		.byte	0x1
 1407 0178 22       		.byte	0x22
 1408 0179 2C000000 		.4byte	0x2c
 1409 017d 02       		.uleb128 0x2
 1410 017e 91       		.byte	0x91
 1411 017f 6C       		.sleb128 -20
 1412 0180 10       		.uleb128 0x10
 1413 0181 7900     		.ascii	"y\000"
 1414 0183 01       		.byte	0x1
 1415 0184 22       		.byte	0x22
 1416 0185 2C000000 		.4byte	0x2c
 1417 0189 02       		.uleb128 0x2
 1418 018a 91       		.byte	0x91
 1419 018b 68       		.sleb128 -24
 1420 018c 0F       		.uleb128 0xf
 1421 018d 58010000 		.4byte	.LASF27
 1422 0191 01       		.byte	0x1
 1423 0192 22       		.byte	0x22
 1424 0193 2C000000 		.4byte	0x2c
 1425 0197 02       		.uleb128 0x2
 1426 0198 91       		.byte	0x91
 1427 0199 5C       		.sleb128 -36
 1428 019a 0F       		.uleb128 0xf
 1429 019b 3D020000 		.4byte	.LASF28
 1430 019f 01       		.byte	0x1
 1431 01a0 22       		.byte	0x22
 1432 01a1 2C000000 		.4byte	0x2c
 1433 01a5 02       		.uleb128 0x2
 1434 01a6 91       		.byte	0x91
 1435 01a7 58       		.sleb128 -40
 1436 01a8 0F       		.uleb128 0xf
 1437 01a9 A5000000 		.4byte	.LASF29
 1438 01ad 01       		.byte	0x1
 1439 01ae 22       		.byte	0x22
 1440 01af 2C000000 		.4byte	0x2c
 1441 01b3 02       		.uleb128 0x2
 1442 01b4 91       		.byte	0x91
 1443 01b5 64       		.sleb128 -28
 1444 01b6 10       		.uleb128 0x10
 1445 01b7 6900     		.ascii	"i\000"
 1446 01b9 01       		.byte	0x1
 1447 01ba 23       		.byte	0x23
 1448 01bb 2C000000 		.4byte	0x2c
 1449 01bf 02       		.uleb128 0x2
 1450 01c0 91       		.byte	0x91
 1451 01c1 60       		.sleb128 -32
 1452 01c2 00       		.byte	0
 1453 01c3 11       		.uleb128 0x11
ARM GAS  C:\Users\xavieran\AppData\Local\Temp\ccObHBpH.s 			page 31


 1454 01c4 2C000000 		.4byte	0x2c
 1455 01c8 D3010000 		.4byte	0x1d3
 1456 01cc 12       		.uleb128 0x12
 1457 01cd 76000000 		.4byte	0x76
 1458 01d1 57       		.byte	0x57
 1459 01d2 00       		.byte	0
 1460 01d3 0C       		.uleb128 0xc
 1461 01d4 32020000 		.4byte	.LASF31
 1462 01d8 01       		.byte	0x1
 1463 01d9 60       		.byte	0x60
 1464 01da A1000000 		.4byte	0xa1
 1465 01de 00000000 		.4byte	.LFB65
 1466 01e2 8C000000 		.4byte	.LFE65-.LFB65
 1467 01e6 01       		.uleb128 0x1
 1468 01e7 9C       		.byte	0x9c
 1469 01e8 23020000 		.4byte	0x223
 1470 01ec 13       		.uleb128 0x13
 1471 01ed D7010000 		.4byte	.LASF21
 1472 01f1 01       		.byte	0x1
 1473 01f2 60       		.byte	0x60
 1474 01f3 2C000000 		.4byte	0x2c
 1475 01f7 02       		.uleb128 0x2
 1476 01f8 91       		.byte	0x91
 1477 01f9 6C       		.sleb128 -20
 1478 01fa 13       		.uleb128 0x13
 1479 01fb 04010000 		.4byte	.LASF22
 1480 01ff 01       		.byte	0x1
 1481 0200 60       		.byte	0x60
 1482 0201 2C000000 		.4byte	0x2c
 1483 0205 02       		.uleb128 0x2
 1484 0206 91       		.byte	0x91
 1485 0207 68       		.sleb128 -24
 1486 0208 0F       		.uleb128 0xf
 1487 0209 5E020000 		.4byte	.LASF32
 1488 020d 01       		.byte	0x1
 1489 020e 62       		.byte	0x62
 1490 020f A1000000 		.4byte	0xa1
 1491 0213 02       		.uleb128 0x2
 1492 0214 91       		.byte	0x91
 1493 0215 76       		.sleb128 -10
 1494 0216 10       		.uleb128 0x10
 1495 0217 6900     		.ascii	"i\000"
 1496 0219 01       		.byte	0x1
 1497 021a 63       		.byte	0x63
 1498 021b 2C000000 		.4byte	0x2c
 1499 021f 02       		.uleb128 0x2
 1500 0220 91       		.byte	0x91
 1501 0221 70       		.sleb128 -16
 1502 0222 00       		.byte	0
 1503 0223 0C       		.uleb128 0xc
 1504 0224 D3000000 		.4byte	.LASF33
 1505 0228 01       		.byte	0x1
 1506 0229 7B       		.byte	0x7b
 1507 022a 2C000000 		.4byte	0x2c
 1508 022e 00000000 		.4byte	.LFB66
 1509 0232 48000000 		.4byte	.LFE66-.LFB66
 1510 0236 01       		.uleb128 0x1
ARM GAS  C:\Users\xavieran\AppData\Local\Temp\ccObHBpH.s 			page 32


 1511 0237 9C       		.byte	0x9c
 1512 0238 6F020000 		.4byte	0x26f
 1513 023c 0D       		.uleb128 0xd
 1514 023d 6100     		.ascii	"a\000"
 1515 023f 01       		.byte	0x1
 1516 0240 7B       		.byte	0x7b
 1517 0241 84000000 		.4byte	0x84
 1518 0245 02       		.uleb128 0x2
 1519 0246 91       		.byte	0x91
 1520 0247 54       		.sleb128 -44
 1521 0248 0D       		.uleb128 0xd
 1522 0249 6200     		.ascii	"b\000"
 1523 024b 01       		.byte	0x1
 1524 024c 7B       		.byte	0x7b
 1525 024d 84000000 		.4byte	0x84
 1526 0251 02       		.uleb128 0x2
 1527 0252 91       		.byte	0x91
 1528 0253 50       		.sleb128 -48
 1529 0254 10       		.uleb128 0x10
 1530 0255 623100   		.ascii	"b1\000"
 1531 0258 01       		.byte	0x1
 1532 0259 7D       		.byte	0x7d
 1533 025a 1F010000 		.4byte	0x11f
 1534 025e 02       		.uleb128 0x2
 1535 025f 91       		.byte	0x91
 1536 0260 68       		.sleb128 -24
 1537 0261 10       		.uleb128 0x10
 1538 0262 623200   		.ascii	"b2\000"
 1539 0265 01       		.byte	0x1
 1540 0266 7E       		.byte	0x7e
 1541 0267 1F010000 		.4byte	0x11f
 1542 026b 02       		.uleb128 0x2
 1543 026c 91       		.byte	0x91
 1544 026d 58       		.sleb128 -40
 1545 026e 00       		.byte	0
 1546 026f 0C       		.uleb128 0xc
 1547 0270 B9010000 		.4byte	.LASF34
 1548 0274 01       		.byte	0x1
 1549 0275 8B       		.byte	0x8b
 1550 0276 2C000000 		.4byte	0x2c
 1551 027a 00000000 		.4byte	.LFB67
 1552 027e E4000000 		.4byte	.LFE67-.LFB67
 1553 0282 01       		.uleb128 0x1
 1554 0283 9C       		.byte	0x9c
 1555 0284 D9020000 		.4byte	0x2d9
 1556 0288 13       		.uleb128 0x13
 1557 0289 D7010000 		.4byte	.LASF21
 1558 028d 01       		.byte	0x1
 1559 028e 8B       		.byte	0x8b
 1560 028f 2C000000 		.4byte	0x2c
 1561 0293 02       		.uleb128 0x2
 1562 0294 91       		.byte	0x91
 1563 0295 64       		.sleb128 -28
 1564 0296 13       		.uleb128 0x13
 1565 0297 04010000 		.4byte	.LASF22
 1566 029b 01       		.byte	0x1
 1567 029c 8B       		.byte	0x8b
ARM GAS  C:\Users\xavieran\AppData\Local\Temp\ccObHBpH.s 			page 33


 1568 029d 2C000000 		.4byte	0x2c
 1569 02a1 02       		.uleb128 0x2
 1570 02a2 91       		.byte	0x91
 1571 02a3 60       		.sleb128 -32
 1572 02a4 13       		.uleb128 0x13
 1573 02a5 96010000 		.4byte	.LASF35
 1574 02a9 01       		.byte	0x1
 1575 02aa 8B       		.byte	0x8b
 1576 02ab 2C000000 		.4byte	0x2c
 1577 02af 02       		.uleb128 0x2
 1578 02b0 91       		.byte	0x91
 1579 02b1 5C       		.sleb128 -36
 1580 02b2 10       		.uleb128 0x10
 1581 02b3 637800   		.ascii	"cx\000"
 1582 02b6 01       		.byte	0x1
 1583 02b7 8E       		.byte	0x8e
 1584 02b8 2C000000 		.4byte	0x2c
 1585 02bc 02       		.uleb128 0x2
 1586 02bd 91       		.byte	0x91
 1587 02be 70       		.sleb128 -16
 1588 02bf 10       		.uleb128 0x10
 1589 02c0 637900   		.ascii	"cy\000"
 1590 02c3 01       		.byte	0x1
 1591 02c4 8E       		.byte	0x8e
 1592 02c5 2C000000 		.4byte	0x2c
 1593 02c9 02       		.uleb128 0x2
 1594 02ca 91       		.byte	0x91
 1595 02cb 6C       		.sleb128 -20
 1596 02cc 10       		.uleb128 0x10
 1597 02cd 6900     		.ascii	"i\000"
 1598 02cf 01       		.byte	0x1
 1599 02d0 8E       		.byte	0x8e
 1600 02d1 2C000000 		.4byte	0x2c
 1601 02d5 02       		.uleb128 0x2
 1602 02d6 91       		.byte	0x91
 1603 02d7 74       		.sleb128 -12
 1604 02d8 00       		.byte	0
 1605 02d9 0C       		.uleb128 0xc
 1606 02da 71010000 		.4byte	.LASF36
 1607 02de 01       		.byte	0x1
 1608 02df A8       		.byte	0xa8
 1609 02e0 96000000 		.4byte	0x96
 1610 02e4 00000000 		.4byte	.LFB68
 1611 02e8 4C000000 		.4byte	.LFE68-.LFB68
 1612 02ec 01       		.uleb128 0x1
 1613 02ed 9C       		.byte	0x9c
 1614 02ee 0D030000 		.4byte	0x30d
 1615 02f2 13       		.uleb128 0x13
 1616 02f3 D7010000 		.4byte	.LASF21
 1617 02f7 01       		.byte	0x1
 1618 02f8 A8       		.byte	0xa8
 1619 02f9 2C000000 		.4byte	0x2c
 1620 02fd 02       		.uleb128 0x2
 1621 02fe 91       		.byte	0x91
 1622 02ff 6C       		.sleb128 -20
 1623 0300 10       		.uleb128 0x10
 1624 0301 6900     		.ascii	"i\000"
ARM GAS  C:\Users\xavieran\AppData\Local\Temp\ccObHBpH.s 			page 34


 1625 0303 01       		.byte	0x1
 1626 0304 AA       		.byte	0xaa
 1627 0305 2C000000 		.4byte	0x2c
 1628 0309 02       		.uleb128 0x2
 1629 030a 91       		.byte	0x91
 1630 030b 74       		.sleb128 -12
 1631 030c 00       		.byte	0
 1632 030d 14       		.uleb128 0x14
 1633 030e 01020000 		.4byte	.LASF38
 1634 0312 01       		.byte	0x1
 1635 0313 B5       		.byte	0xb5
 1636 0314 00000000 		.4byte	.LFB69
 1637 0318 F4010000 		.4byte	.LFE69-.LFB69
 1638 031c 01       		.uleb128 0x1
 1639 031d 9C       		.byte	0x9c
 1640 031e 70030000 		.4byte	0x370
 1641 0322 10       		.uleb128 0x10
 1642 0323 637800   		.ascii	"cx\000"
 1643 0326 01       		.byte	0x1
 1644 0327 B8       		.byte	0xb8
 1645 0328 2C000000 		.4byte	0x2c
 1646 032c 02       		.uleb128 0x2
 1647 032d 91       		.byte	0x91
 1648 032e 70       		.sleb128 -16
 1649 032f 10       		.uleb128 0x10
 1650 0330 637900   		.ascii	"cy\000"
 1651 0333 01       		.byte	0x1
 1652 0334 B8       		.byte	0xb8
 1653 0335 2C000000 		.4byte	0x2c
 1654 0339 02       		.uleb128 0x2
 1655 033a 91       		.byte	0x91
 1656 033b 6C       		.sleb128 -20
 1657 033c 10       		.uleb128 0x10
 1658 033d 6900     		.ascii	"i\000"
 1659 033f 01       		.byte	0x1
 1660 0340 B8       		.byte	0xb8
 1661 0341 2C000000 		.4byte	0x2c
 1662 0345 02       		.uleb128 0x2
 1663 0346 91       		.byte	0x91
 1664 0347 74       		.sleb128 -12
 1665 0348 10       		.uleb128 0x10
 1666 0349 6300     		.ascii	"c\000"
 1667 034b 01       		.byte	0x1
 1668 034c B9       		.byte	0xb9
 1669 034d 70030000 		.4byte	0x370
 1670 0351 02       		.uleb128 0x2
 1671 0352 91       		.byte	0x91
 1672 0353 5C       		.sleb128 -36
 1673 0354 10       		.uleb128 0x10
 1674 0355 7300     		.ascii	"s\000"
 1675 0357 01       		.byte	0x1
 1676 0358 B9       		.byte	0xb9
 1677 0359 70030000 		.4byte	0x370
 1678 035d 02       		.uleb128 0x2
 1679 035e 91       		.byte	0x91
 1680 035f 4C       		.sleb128 -52
 1681 0360 10       		.uleb128 0x10
ARM GAS  C:\Users\xavieran\AppData\Local\Temp\ccObHBpH.s 			page 35


 1682 0361 696E6400 		.ascii	"ind\000"
 1683 0365 01       		.byte	0x1
 1684 0366 B9       		.byte	0xb9
 1685 0367 70030000 		.4byte	0x370
 1686 036b 03       		.uleb128 0x3
 1687 036c 91       		.byte	0x91
 1688 036d BC7F     		.sleb128 -68
 1689 036f 00       		.byte	0
 1690 0370 11       		.uleb128 0x11
 1691 0371 2C000000 		.4byte	0x2c
 1692 0375 80030000 		.4byte	0x380
 1693 0379 12       		.uleb128 0x12
 1694 037a 76000000 		.4byte	0x76
 1695 037e 03       		.byte	0x3
 1696 037f 00       		.byte	0
 1697 0380 15       		.uleb128 0x15
 1698 0381 64010000 		.4byte	.LASF39
 1699 0385 05       		.byte	0x5
 1700 0386 2A06     		.2byte	0x62a
 1701 0388 8C030000 		.4byte	0x38c
 1702 038c 16       		.uleb128 0x16
 1703 038d 8B000000 		.4byte	0x8b
 1704 0391 11       		.uleb128 0x11
 1705 0392 96000000 		.4byte	0x96
 1706 0396 AD030000 		.4byte	0x3ad
 1707 039a 12       		.uleb128 0x12
 1708 039b 76000000 		.4byte	0x76
 1709 039f 8F       		.byte	0x8f
 1710 03a0 12       		.uleb128 0x12
 1711 03a1 76000000 		.4byte	0x76
 1712 03a5 57       		.byte	0x57
 1713 03a6 12       		.uleb128 0x12
 1714 03a7 76000000 		.4byte	0x76
 1715 03ab 03       		.byte	0x3
 1716 03ac 00       		.byte	0
 1717 03ad 17       		.uleb128 0x17
 1718 03ae DD000000 		.4byte	.LASF40
 1719 03b2 06       		.byte	0x6
 1720 03b3 08       		.byte	0x8
 1721 03b4 91030000 		.4byte	0x391
 1722 03b8 05       		.uleb128 0x5
 1723 03b9 03       		.byte	0x3
 1724 03ba 00000000 		.4byte	Camera_framebuffer
 1725 03be 17       		.uleb128 0x17
 1726 03bf 9F000000 		.4byte	.LASF41
 1727 03c3 07       		.byte	0x7
 1728 03c4 1F       		.byte	0x1f
 1729 03c5 70030000 		.4byte	0x370
 1730 03c9 05       		.uleb128 0x5
 1731 03ca 03       		.byte	0x3
 1732 03cb 00000000 		.4byte	stack
 1733 03cf 11       		.uleb128 0x11
 1734 03d0 1F010000 		.4byte	0x11f
 1735 03d4 DF030000 		.4byte	0x3df
 1736 03d8 12       		.uleb128 0x12
 1737 03d9 76000000 		.4byte	0x76
 1738 03dd FE       		.byte	0xfe
ARM GAS  C:\Users\xavieran\AppData\Local\Temp\ccObHBpH.s 			page 36


 1739 03de 00       		.byte	0
 1740 03df 17       		.uleb128 0x17
 1741 03e0 64020000 		.4byte	.LASF42
 1742 03e4 01       		.byte	0x1
 1743 03e5 0F       		.byte	0xf
 1744 03e6 CF030000 		.4byte	0x3cf
 1745 03ea 05       		.uleb128 0x5
 1746 03eb 03       		.byte	0x3
 1747 03ec 00000000 		.4byte	blobs
 1748 03f0 00       		.byte	0
 1749              		.section	.debug_abbrev,"",%progbits
 1750              	.Ldebug_abbrev0:
 1751 0000 01       		.uleb128 0x1
 1752 0001 11       		.uleb128 0x11
 1753 0002 01       		.byte	0x1
 1754 0003 25       		.uleb128 0x25
 1755 0004 0E       		.uleb128 0xe
 1756 0005 13       		.uleb128 0x13
 1757 0006 0B       		.uleb128 0xb
 1758 0007 03       		.uleb128 0x3
 1759 0008 0E       		.uleb128 0xe
 1760 0009 1B       		.uleb128 0x1b
 1761 000a 0E       		.uleb128 0xe
 1762 000b 55       		.uleb128 0x55
 1763 000c 17       		.uleb128 0x17
 1764 000d 11       		.uleb128 0x11
 1765 000e 01       		.uleb128 0x1
 1766 000f 10       		.uleb128 0x10
 1767 0010 17       		.uleb128 0x17
 1768 0011 00       		.byte	0
 1769 0012 00       		.byte	0
 1770 0013 02       		.uleb128 0x2
 1771 0014 24       		.uleb128 0x24
 1772 0015 00       		.byte	0
 1773 0016 0B       		.uleb128 0xb
 1774 0017 0B       		.uleb128 0xb
 1775 0018 3E       		.uleb128 0x3e
 1776 0019 0B       		.uleb128 0xb
 1777 001a 03       		.uleb128 0x3
 1778 001b 0E       		.uleb128 0xe
 1779 001c 00       		.byte	0
 1780 001d 00       		.byte	0
 1781 001e 03       		.uleb128 0x3
 1782 001f 24       		.uleb128 0x24
 1783 0020 00       		.byte	0
 1784 0021 0B       		.uleb128 0xb
 1785 0022 0B       		.uleb128 0xb
 1786 0023 3E       		.uleb128 0x3e
 1787 0024 0B       		.uleb128 0xb
 1788 0025 03       		.uleb128 0x3
 1789 0026 08       		.uleb128 0x8
 1790 0027 00       		.byte	0
 1791 0028 00       		.byte	0
 1792 0029 04       		.uleb128 0x4
 1793 002a 16       		.uleb128 0x16
 1794 002b 00       		.byte	0
 1795 002c 03       		.uleb128 0x3
ARM GAS  C:\Users\xavieran\AppData\Local\Temp\ccObHBpH.s 			page 37


 1796 002d 0E       		.uleb128 0xe
 1797 002e 3A       		.uleb128 0x3a
 1798 002f 0B       		.uleb128 0xb
 1799 0030 3B       		.uleb128 0x3b
 1800 0031 0B       		.uleb128 0xb
 1801 0032 49       		.uleb128 0x49
 1802 0033 13       		.uleb128 0x13
 1803 0034 00       		.byte	0
 1804 0035 00       		.byte	0
 1805 0036 05       		.uleb128 0x5
 1806 0037 0F       		.uleb128 0xf
 1807 0038 00       		.byte	0
 1808 0039 0B       		.uleb128 0xb
 1809 003a 0B       		.uleb128 0xb
 1810 003b 49       		.uleb128 0x49
 1811 003c 13       		.uleb128 0x13
 1812 003d 00       		.byte	0
 1813 003e 00       		.byte	0
 1814 003f 06       		.uleb128 0x6
 1815 0040 26       		.uleb128 0x26
 1816 0041 00       		.byte	0
 1817 0042 00       		.byte	0
 1818 0043 00       		.byte	0
 1819 0044 07       		.uleb128 0x7
 1820 0045 04       		.uleb128 0x4
 1821 0046 01       		.byte	0x1
 1822 0047 0B       		.uleb128 0xb
 1823 0048 0B       		.uleb128 0xb
 1824 0049 3A       		.uleb128 0x3a
 1825 004a 0B       		.uleb128 0xb
 1826 004b 3B       		.uleb128 0x3b
 1827 004c 0B       		.uleb128 0xb
 1828 004d 01       		.uleb128 0x1
 1829 004e 13       		.uleb128 0x13
 1830 004f 00       		.byte	0
 1831 0050 00       		.byte	0
 1832 0051 08       		.uleb128 0x8
 1833 0052 28       		.uleb128 0x28
 1834 0053 00       		.byte	0
 1835 0054 03       		.uleb128 0x3
 1836 0055 0E       		.uleb128 0xe
 1837 0056 1C       		.uleb128 0x1c
 1838 0057 0D       		.uleb128 0xd
 1839 0058 00       		.byte	0
 1840 0059 00       		.byte	0
 1841 005a 09       		.uleb128 0x9
 1842 005b 28       		.uleb128 0x28
 1843 005c 00       		.byte	0
 1844 005d 03       		.uleb128 0x3
 1845 005e 08       		.uleb128 0x8
 1846 005f 1C       		.uleb128 0x1c
 1847 0060 0D       		.uleb128 0xd
 1848 0061 00       		.byte	0
 1849 0062 00       		.byte	0
 1850 0063 0A       		.uleb128 0xa
 1851 0064 13       		.uleb128 0x13
 1852 0065 01       		.byte	0x1
ARM GAS  C:\Users\xavieran\AppData\Local\Temp\ccObHBpH.s 			page 38


 1853 0066 0B       		.uleb128 0xb
 1854 0067 0B       		.uleb128 0xb
 1855 0068 3A       		.uleb128 0x3a
 1856 0069 0B       		.uleb128 0xb
 1857 006a 3B       		.uleb128 0x3b
 1858 006b 0B       		.uleb128 0xb
 1859 006c 01       		.uleb128 0x1
 1860 006d 13       		.uleb128 0x13
 1861 006e 00       		.byte	0
 1862 006f 00       		.byte	0
 1863 0070 0B       		.uleb128 0xb
 1864 0071 0D       		.uleb128 0xd
 1865 0072 00       		.byte	0
 1866 0073 03       		.uleb128 0x3
 1867 0074 0E       		.uleb128 0xe
 1868 0075 3A       		.uleb128 0x3a
 1869 0076 0B       		.uleb128 0xb
 1870 0077 3B       		.uleb128 0x3b
 1871 0078 0B       		.uleb128 0xb
 1872 0079 49       		.uleb128 0x49
 1873 007a 13       		.uleb128 0x13
 1874 007b 38       		.uleb128 0x38
 1875 007c 0B       		.uleb128 0xb
 1876 007d 00       		.byte	0
 1877 007e 00       		.byte	0
 1878 007f 0C       		.uleb128 0xc
 1879 0080 2E       		.uleb128 0x2e
 1880 0081 01       		.byte	0x1
 1881 0082 3F       		.uleb128 0x3f
 1882 0083 19       		.uleb128 0x19
 1883 0084 03       		.uleb128 0x3
 1884 0085 0E       		.uleb128 0xe
 1885 0086 3A       		.uleb128 0x3a
 1886 0087 0B       		.uleb128 0xb
 1887 0088 3B       		.uleb128 0x3b
 1888 0089 0B       		.uleb128 0xb
 1889 008a 27       		.uleb128 0x27
 1890 008b 19       		.uleb128 0x19
 1891 008c 49       		.uleb128 0x49
 1892 008d 13       		.uleb128 0x13
 1893 008e 11       		.uleb128 0x11
 1894 008f 01       		.uleb128 0x1
 1895 0090 12       		.uleb128 0x12
 1896 0091 06       		.uleb128 0x6
 1897 0092 40       		.uleb128 0x40
 1898 0093 18       		.uleb128 0x18
 1899 0094 9742     		.uleb128 0x2117
 1900 0096 19       		.uleb128 0x19
 1901 0097 01       		.uleb128 0x1
 1902 0098 13       		.uleb128 0x13
 1903 0099 00       		.byte	0
 1904 009a 00       		.byte	0
 1905 009b 0D       		.uleb128 0xd
 1906 009c 05       		.uleb128 0x5
 1907 009d 00       		.byte	0
 1908 009e 03       		.uleb128 0x3
 1909 009f 08       		.uleb128 0x8
ARM GAS  C:\Users\xavieran\AppData\Local\Temp\ccObHBpH.s 			page 39


 1910 00a0 3A       		.uleb128 0x3a
 1911 00a1 0B       		.uleb128 0xb
 1912 00a2 3B       		.uleb128 0x3b
 1913 00a3 0B       		.uleb128 0xb
 1914 00a4 49       		.uleb128 0x49
 1915 00a5 13       		.uleb128 0x13
 1916 00a6 02       		.uleb128 0x2
 1917 00a7 18       		.uleb128 0x18
 1918 00a8 00       		.byte	0
 1919 00a9 00       		.byte	0
 1920 00aa 0E       		.uleb128 0xe
 1921 00ab 2E       		.uleb128 0x2e
 1922 00ac 01       		.byte	0x1
 1923 00ad 3F       		.uleb128 0x3f
 1924 00ae 19       		.uleb128 0x19
 1925 00af 03       		.uleb128 0x3
 1926 00b0 0E       		.uleb128 0xe
 1927 00b1 3A       		.uleb128 0x3a
 1928 00b2 0B       		.uleb128 0xb
 1929 00b3 3B       		.uleb128 0x3b
 1930 00b4 0B       		.uleb128 0xb
 1931 00b5 11       		.uleb128 0x11
 1932 00b6 01       		.uleb128 0x1
 1933 00b7 12       		.uleb128 0x12
 1934 00b8 06       		.uleb128 0x6
 1935 00b9 40       		.uleb128 0x40
 1936 00ba 18       		.uleb128 0x18
 1937 00bb 9642     		.uleb128 0x2116
 1938 00bd 19       		.uleb128 0x19
 1939 00be 01       		.uleb128 0x1
 1940 00bf 13       		.uleb128 0x13
 1941 00c0 00       		.byte	0
 1942 00c1 00       		.byte	0
 1943 00c2 0F       		.uleb128 0xf
 1944 00c3 34       		.uleb128 0x34
 1945 00c4 00       		.byte	0
 1946 00c5 03       		.uleb128 0x3
 1947 00c6 0E       		.uleb128 0xe
 1948 00c7 3A       		.uleb128 0x3a
 1949 00c8 0B       		.uleb128 0xb
 1950 00c9 3B       		.uleb128 0x3b
 1951 00ca 0B       		.uleb128 0xb
 1952 00cb 49       		.uleb128 0x49
 1953 00cc 13       		.uleb128 0x13
 1954 00cd 02       		.uleb128 0x2
 1955 00ce 18       		.uleb128 0x18
 1956 00cf 00       		.byte	0
 1957 00d0 00       		.byte	0
 1958 00d1 10       		.uleb128 0x10
 1959 00d2 34       		.uleb128 0x34
 1960 00d3 00       		.byte	0
 1961 00d4 03       		.uleb128 0x3
 1962 00d5 08       		.uleb128 0x8
 1963 00d6 3A       		.uleb128 0x3a
 1964 00d7 0B       		.uleb128 0xb
 1965 00d8 3B       		.uleb128 0x3b
 1966 00d9 0B       		.uleb128 0xb
ARM GAS  C:\Users\xavieran\AppData\Local\Temp\ccObHBpH.s 			page 40


 1967 00da 49       		.uleb128 0x49
 1968 00db 13       		.uleb128 0x13
 1969 00dc 02       		.uleb128 0x2
 1970 00dd 18       		.uleb128 0x18
 1971 00de 00       		.byte	0
 1972 00df 00       		.byte	0
 1973 00e0 11       		.uleb128 0x11
 1974 00e1 01       		.uleb128 0x1
 1975 00e2 01       		.byte	0x1
 1976 00e3 49       		.uleb128 0x49
 1977 00e4 13       		.uleb128 0x13
 1978 00e5 01       		.uleb128 0x1
 1979 00e6 13       		.uleb128 0x13
 1980 00e7 00       		.byte	0
 1981 00e8 00       		.byte	0
 1982 00e9 12       		.uleb128 0x12
 1983 00ea 21       		.uleb128 0x21
 1984 00eb 00       		.byte	0
 1985 00ec 49       		.uleb128 0x49
 1986 00ed 13       		.uleb128 0x13
 1987 00ee 2F       		.uleb128 0x2f
 1988 00ef 0B       		.uleb128 0xb
 1989 00f0 00       		.byte	0
 1990 00f1 00       		.byte	0
 1991 00f2 13       		.uleb128 0x13
 1992 00f3 05       		.uleb128 0x5
 1993 00f4 00       		.byte	0
 1994 00f5 03       		.uleb128 0x3
 1995 00f6 0E       		.uleb128 0xe
 1996 00f7 3A       		.uleb128 0x3a
 1997 00f8 0B       		.uleb128 0xb
 1998 00f9 3B       		.uleb128 0x3b
 1999 00fa 0B       		.uleb128 0xb
 2000 00fb 49       		.uleb128 0x49
 2001 00fc 13       		.uleb128 0x13
 2002 00fd 02       		.uleb128 0x2
 2003 00fe 18       		.uleb128 0x18
 2004 00ff 00       		.byte	0
 2005 0100 00       		.byte	0
 2006 0101 14       		.uleb128 0x14
 2007 0102 2E       		.uleb128 0x2e
 2008 0103 01       		.byte	0x1
 2009 0104 3F       		.uleb128 0x3f
 2010 0105 19       		.uleb128 0x19
 2011 0106 03       		.uleb128 0x3
 2012 0107 0E       		.uleb128 0xe
 2013 0108 3A       		.uleb128 0x3a
 2014 0109 0B       		.uleb128 0xb
 2015 010a 3B       		.uleb128 0x3b
 2016 010b 0B       		.uleb128 0xb
 2017 010c 11       		.uleb128 0x11
 2018 010d 01       		.uleb128 0x1
 2019 010e 12       		.uleb128 0x12
 2020 010f 06       		.uleb128 0x6
 2021 0110 40       		.uleb128 0x40
 2022 0111 18       		.uleb128 0x18
 2023 0112 9742     		.uleb128 0x2117
ARM GAS  C:\Users\xavieran\AppData\Local\Temp\ccObHBpH.s 			page 41


 2024 0114 19       		.uleb128 0x19
 2025 0115 01       		.uleb128 0x1
 2026 0116 13       		.uleb128 0x13
 2027 0117 00       		.byte	0
 2028 0118 00       		.byte	0
 2029 0119 15       		.uleb128 0x15
 2030 011a 34       		.uleb128 0x34
 2031 011b 00       		.byte	0
 2032 011c 03       		.uleb128 0x3
 2033 011d 0E       		.uleb128 0xe
 2034 011e 3A       		.uleb128 0x3a
 2035 011f 0B       		.uleb128 0xb
 2036 0120 3B       		.uleb128 0x3b
 2037 0121 05       		.uleb128 0x5
 2038 0122 49       		.uleb128 0x49
 2039 0123 13       		.uleb128 0x13
 2040 0124 3F       		.uleb128 0x3f
 2041 0125 19       		.uleb128 0x19
 2042 0126 3C       		.uleb128 0x3c
 2043 0127 19       		.uleb128 0x19
 2044 0128 00       		.byte	0
 2045 0129 00       		.byte	0
 2046 012a 16       		.uleb128 0x16
 2047 012b 35       		.uleb128 0x35
 2048 012c 00       		.byte	0
 2049 012d 49       		.uleb128 0x49
 2050 012e 13       		.uleb128 0x13
 2051 012f 00       		.byte	0
 2052 0130 00       		.byte	0
 2053 0131 17       		.uleb128 0x17
 2054 0132 34       		.uleb128 0x34
 2055 0133 00       		.byte	0
 2056 0134 03       		.uleb128 0x3
 2057 0135 0E       		.uleb128 0xe
 2058 0136 3A       		.uleb128 0x3a
 2059 0137 0B       		.uleb128 0xb
 2060 0138 3B       		.uleb128 0x3b
 2061 0139 0B       		.uleb128 0xb
 2062 013a 49       		.uleb128 0x49
 2063 013b 13       		.uleb128 0x13
 2064 013c 3F       		.uleb128 0x3f
 2065 013d 19       		.uleb128 0x19
 2066 013e 02       		.uleb128 0x2
 2067 013f 18       		.uleb128 0x18
 2068 0140 00       		.byte	0
 2069 0141 00       		.byte	0
 2070 0142 00       		.byte	0
 2071              		.section	.debug_aranges,"",%progbits
 2072 0000 4C000000 		.4byte	0x4c
 2073 0004 0200     		.2byte	0x2
 2074 0006 00000000 		.4byte	.Ldebug_info0
 2075 000a 04       		.byte	0x4
 2076 000b 00       		.byte	0
 2077 000c 0000     		.2byte	0
 2078 000e 0000     		.2byte	0
 2079 0010 00000000 		.4byte	.LFB63
 2080 0014 34000000 		.4byte	.LFE63-.LFB63
ARM GAS  C:\Users\xavieran\AppData\Local\Temp\ccObHBpH.s 			page 42


 2081 0018 00000000 		.4byte	.LFB64
 2082 001c D4030000 		.4byte	.LFE64-.LFB64
 2083 0020 00000000 		.4byte	.LFB65
 2084 0024 8C000000 		.4byte	.LFE65-.LFB65
 2085 0028 00000000 		.4byte	.LFB66
 2086 002c 48000000 		.4byte	.LFE66-.LFB66
 2087 0030 00000000 		.4byte	.LFB67
 2088 0034 E4000000 		.4byte	.LFE67-.LFB67
 2089 0038 00000000 		.4byte	.LFB68
 2090 003c 4C000000 		.4byte	.LFE68-.LFB68
 2091 0040 00000000 		.4byte	.LFB69
 2092 0044 F4010000 		.4byte	.LFE69-.LFB69
 2093 0048 00000000 		.4byte	0
 2094 004c 00000000 		.4byte	0
 2095              		.section	.debug_ranges,"",%progbits
 2096              	.Ldebug_ranges0:
 2097 0000 00000000 		.4byte	.LFB63
 2098 0004 34000000 		.4byte	.LFE63
 2099 0008 00000000 		.4byte	.LFB64
 2100 000c D4030000 		.4byte	.LFE64
 2101 0010 00000000 		.4byte	.LFB65
 2102 0014 8C000000 		.4byte	.LFE65
 2103 0018 00000000 		.4byte	.LFB66
 2104 001c 48000000 		.4byte	.LFE66
 2105 0020 00000000 		.4byte	.LFB67
 2106 0024 E4000000 		.4byte	.LFE67
 2107 0028 00000000 		.4byte	.LFB68
 2108 002c 4C000000 		.4byte	.LFE68
 2109 0030 00000000 		.4byte	.LFB69
 2110 0034 F4010000 		.4byte	.LFE69
 2111 0038 00000000 		.4byte	0
 2112 003c 00000000 		.4byte	0
 2113              		.section	.debug_line,"",%progbits
 2114              	.Ldebug_line0:
 2115 0000 19030000 		.section	.debug_str,"MS",%progbits,1
 2115      02007601 
 2115      00000201 
 2115      FB0E0D00 
 2115      01010101 
 2116              	.LASF25:
 2117 0000 626C6F62 		.ascii	"blob\000"
 2117      00
 2118              	.LASF43:
 2119 0005 474E5520 		.ascii	"GNU C 4.8.4 20140526 (release) [ARM/embedded-4_8-br"
 2119      4320342E 
 2119      382E3420 
 2119      32303134 
 2119      30353236 
 2120 0038 616E6368 		.ascii	"anch revision 211358] -mcpu=cortex-m3 -mthumb -g -O"
 2120      20726576 
 2120      6973696F 
 2120      6E203231 
 2120      31333538 
 2121 006b 30202D66 		.ascii	"0 -ffunction-sections\000"
 2121      66756E63 
 2121      74696F6E 
 2121      2D736563 
ARM GAS  C:\Users\xavieran\AppData\Local\Temp\ccObHBpH.s 			page 43


 2121      74696F6E 
 2122              	.LASF18:
 2123 0081 4E4F4E45 		.ascii	"NONE\000"
 2123      00
 2124              	.LASF11:
 2125 0086 5F5F696E 		.ascii	"__int32_t\000"
 2125      7433325F 
 2125      7400
 2126              	.LASF44:
 2127 0090 2E5C626C 		.ascii	".\\blob_stats.c\000"
 2127      6F625F73 
 2127      74617473 
 2127      2E6300
 2128              	.LASF41:
 2129 009f 73746163 		.ascii	"stack\000"
 2129      6B00
 2130              	.LASF29:
 2131 00a5 63757272 		.ascii	"current_available_label\000"
 2131      656E745F 
 2131      61766169 
 2131      6C61626C 
 2131      655F6C61 
 2132              	.LASF3:
 2133 00bd 73686F72 		.ascii	"short int\000"
 2133      7420696E 
 2133      7400
 2134              	.LASF17:
 2135 00c7 646F7562 		.ascii	"double\000"
 2135      6C6500
 2136              	.LASF20:
 2137 00ce 424C5545 		.ascii	"BLUE\000"
 2137      00
 2138              	.LASF33:
 2139 00d3 626C6F62 		.ascii	"blob_comp\000"
 2139      5F636F6D 
 2139      7000
 2140              	.LASF40:
 2141 00dd 43616D65 		.ascii	"Camera_framebuffer\000"
 2141      72615F66 
 2141      72616D65 
 2141      62756666 
 2141      657200
 2142              	.LASF16:
 2143 00f0 666C6F61 		.ascii	"float\000"
 2143      7400
 2144              	.LASF7:
 2145 00f6 6C6F6E67 		.ascii	"long long int\000"
 2145      206C6F6E 
 2145      6720696E 
 2145      7400
 2146              	.LASF22:
 2147 0104 73697A65 		.ascii	"size\000"
 2147      00
 2148              	.LASF45:
 2149 0109 433A5C55 		.ascii	"C:\\Users\\xavieran\\Desktop\\ECE3091\\PSOCProjects"
 2149      73657273 
 2149      5C786176 
ARM GAS  C:\Users\xavieran\AppData\Local\Temp\ccObHBpH.s 			page 44


 2149      69657261 
 2149      6E5C4465 
 2150 0137 5C454E47 		.ascii	"\\ENG3091_MandM\\camera_test.cydsn\000"
 2150      33303931 
 2150      5F4D616E 
 2150      644D5C63 
 2150      616D6572 
 2151              	.LASF27:
 2152 0158 6B656570 		.ascii	"keep\000"
 2152      00
 2153              	.LASF26:
 2154 015d 6C616265 		.ascii	"labels\000"
 2154      6C7300
 2155              	.LASF39:
 2156 0164 49544D5F 		.ascii	"ITM_RxBuffer\000"
 2156      52784275 
 2156      66666572 
 2156      00
 2157              	.LASF36:
 2158 0171 73697A65 		.ascii	"size_of_biggest_colour\000"
 2158      5F6F665F 
 2158      62696767 
 2158      6573745F 
 2158      636F6C6F 
 2159              	.LASF2:
 2160 0188 756E7369 		.ascii	"unsigned char\000"
 2160      676E6564 
 2160      20636861 
 2160      7200
 2161              	.LASF35:
 2162 0196 63656E74 		.ascii	"centre_threshold\000"
 2162      72655F74 
 2162      68726573 
 2162      686F6C64 
 2162      00
 2163              	.LASF6:
 2164 01a7 6C6F6E67 		.ascii	"long unsigned int\000"
 2164      20756E73 
 2164      69676E65 
 2164      6420696E 
 2164      7400
 2165              	.LASF34:
 2166 01b9 746F5F6E 		.ascii	"to_nearest_blob\000"
 2166      65617265 
 2166      73745F62 
 2166      6C6F6200 
 2167              	.LASF14:
 2168 01c9 75696E74 		.ascii	"uint16\000"
 2168      313600
 2169              	.LASF15:
 2170 01d0 75696E74 		.ascii	"uint32\000"
 2170      333200
 2171              	.LASF21:
 2172 01d7 636F6C6F 		.ascii	"colour\000"
 2172      757200
 2173              	.LASF19:
 2174 01de 47524545 		.ascii	"GREEN\000"
ARM GAS  C:\Users\xavieran\AppData\Local\Temp\ccObHBpH.s 			page 45


 2174      4E00
 2175              	.LASF0:
 2176 01e4 756E7369 		.ascii	"unsigned int\000"
 2176      676E6564 
 2176      20696E74 
 2176      00
 2177              	.LASF30:
 2178 01f1 6E74685F 		.ascii	"nth_blob_colour\000"
 2178      626C6F62 
 2178      5F636F6C 
 2178      6F757200 
 2179              	.LASF38:
 2180 0201 73696465 		.ascii	"sideways_instruction_read\000"
 2180      77617973 
 2180      5F696E73 
 2180      74727563 
 2180      74696F6E 
 2181              	.LASF8:
 2182 021b 6C6F6E67 		.ascii	"long long unsigned int\000"
 2182      206C6F6E 
 2182      6720756E 
 2182      7369676E 
 2182      65642069 
 2183              	.LASF31:
 2184 0232 626C6F62 		.ascii	"blob_count\000"
 2184      5F636F75 
 2184      6E7400
 2185              	.LASF28:
 2186 023d 64726F70 		.ascii	"drop\000"
 2186      00
 2187              	.LASF23:
 2188 0242 785F7375 		.ascii	"x_sum\000"
 2188      6D00
 2189              	.LASF12:
 2190 0248 696E7433 		.ascii	"int32_t\000"
 2190      325F7400 
 2191              	.LASF9:
 2192 0250 73697A65 		.ascii	"sizetype\000"
 2192      74797065 
 2192      00
 2193              	.LASF10:
 2194 0259 63686172 		.ascii	"char\000"
 2194      00
 2195              	.LASF32:
 2196 025e 636F756E 		.ascii	"count\000"
 2196      7400
 2197              	.LASF42:
 2198 0264 626C6F62 		.ascii	"blobs\000"
 2198      7300
 2199              	.LASF13:
 2200 026a 75696E74 		.ascii	"uint8\000"
 2200      3800
 2201              	.LASF5:
 2202 0270 6C6F6E67 		.ascii	"long int\000"
 2202      20696E74 
 2202      00
 2203              	.LASF24:
ARM GAS  C:\Users\xavieran\AppData\Local\Temp\ccObHBpH.s 			page 46


 2204 0279 795F7375 		.ascii	"y_sum\000"
 2204      6D00
 2205              	.LASF1:
 2206 027f 7369676E 		.ascii	"signed char\000"
 2206      65642063 
 2206      68617200 
 2207              	.LASF4:
 2208 028b 73686F72 		.ascii	"short unsigned int\000"
 2208      7420756E 
 2208      7369676E 
 2208      65642069 
 2208      6E7400
 2209              	.LASF37:
 2210 029e 626C6F62 		.ascii	"blob_detect\000"
 2210      5F646574 
 2210      65637400 
 2211              		.ident	"GCC: (GNU Tools for ARM Embedded Processors) 4.8.4 20140526 (release) [ARM/embedded-4_8-br
