ARM GAS  C:\Users\xavieran\AppData\Local\Temp\ccObHBpH.s 			page 1


   1              		.syntax unified
   2              		.cpu cortex-m3
   3              		.fpu softvfp
   4              		.eabi_attribute 20, 1
   5              		.eabi_attribute 21, 1
   6              		.eabi_attribute 23, 3
   7              		.eabi_attribute 24, 1
   8              		.eabi_attribute 25, 1
   9              		.eabi_attribute 26, 1
  10              		.eabi_attribute 30, 6
  11              		.eabi_attribute 34, 1
  12              		.eabi_attribute 18, 4
  13              		.thumb
  14              		.file	"blob_stats.c"
  15              		.text
  16              	.Ltext0:
  17              		.cfi_sections	.debug_frame
  18              		.comm	Camera_framebuffer,50688,4
  19              		.comm	stack,16,4
  20              		.comm	blobs,4080,4
  21              		.section	.text.nth_blob_colour,"ax",%progbits
  22              		.align	2
  23              		.global	nth_blob_colour
  24              		.thumb
  25              		.thumb_func
  26              		.type	nth_blob_colour, %function
  27              	nth_blob_colour:
  28              	.LFB63:
  29              		.file 1 ".\\blob_stats.c"
   1:.\blob_stats.c **** #include <stdlib.h>
   2:.\blob_stats.c **** #include <project.h>
   3:.\blob_stats.c **** #include <my_camera_functions.h>
   4:.\blob_stats.c **** 
   5:.\blob_stats.c **** #define NUMBER_OF_BLOBS 255
   6:.\blob_stats.c **** #define PIXELS_FROM_CENTRE 4
   7:.\blob_stats.c **** 
   8:.\blob_stats.c **** typedef struct
   9:.\blob_stats.c **** {
  10:.\blob_stats.c ****     int colour;
  11:.\blob_stats.c ****     uint16 size;
  12:.\blob_stats.c ****     uint32 x_sum,y_sum;
  13:.\blob_stats.c **** } blob;
  14:.\blob_stats.c **** 
  15:.\blob_stats.c **** blob blobs[NUMBER_OF_BLOBS];
  16:.\blob_stats.c **** 
  17:.\blob_stats.c **** int blob_comp(const void *a, const void *b);
  18:.\blob_stats.c **** 
  19:.\blob_stats.c **** int nth_blob_colour(int n)
  20:.\blob_stats.c **** {
  30              		.loc 1 20 0
  31              		.cfi_startproc
  32              		@ args = 0, pretend = 0, frame = 8
  33              		@ frame_needed = 1, uses_anonymous_args = 0
  34              		@ link register save eliminated.
  35 0000 80B4     		push	{r7}
  36              		.cfi_def_cfa_offset 4
  37              		.cfi_offset 7, -4
ARM GAS  C:\Users\xavieran\AppData\Local\Temp\ccObHBpH.s 			page 2


  38 0002 83B0     		sub	sp, sp, #12
  39              		.cfi_def_cfa_offset 16
  40 0004 00AF     		add	r7, sp, #0
  41              		.cfi_def_cfa_register 7
  42 0006 7860     		str	r0, [r7, #4]
  21:.\blob_stats.c ****     if(n > NUMBER_OF_BLOBS || n < 0)
  43              		.loc 1 21 0
  44 0008 7B68     		ldr	r3, [r7, #4]
  45 000a FF2B     		cmp	r3, #255
  46 000c 02DC     		bgt	.L2
  47              		.loc 1 21 0 is_stmt 0 discriminator 1
  48 000e 7B68     		ldr	r3, [r7, #4]
  49 0010 002B     		cmp	r3, #0
  50 0012 02DA     		bge	.L3
  51              	.L2:
  22:.\blob_stats.c ****     {
  23:.\blob_stats.c ****         return -1;
  52              		.loc 1 23 0 is_stmt 1
  53 0014 4FF0FF33 		mov	r3, #-1
  54 0018 04E0     		b	.L4
  55              	.L3:
  24:.\blob_stats.c ****     }
  25:.\blob_stats.c ****     else
  26:.\blob_stats.c ****     {
  27:.\blob_stats.c ****         return blobs[n].colour;
  56              		.loc 1 27 0
  57 001a 054A     		ldr	r2, .L5
  58 001c 7B68     		ldr	r3, [r7, #4]
  59 001e 1B01     		lsls	r3, r3, #4
  60 0020 1344     		add	r3, r3, r2
  61 0022 1B68     		ldr	r3, [r3]
  62              	.L4:
  28:.\blob_stats.c ****     }
  29:.\blob_stats.c **** }
  63              		.loc 1 29 0
  64 0024 1846     		mov	r0, r3
  65 0026 0C37     		adds	r7, r7, #12
  66 0028 BD46     		mov	sp, r7
  67              		@ sp needed
  68 002a 5DF8047B 		ldr	r7, [sp], #4
  69 002e 7047     		bx	lr
  70              	.L6:
  71              		.align	2
  72              	.L5:
  73 0030 00000000 		.word	blobs
  74              		.cfi_endproc
  75              	.LFE63:
  76              		.size	nth_blob_colour, .-nth_blob_colour
  77              		.section	.text.blob_detect,"ax",%progbits
  78              		.align	2
  79              		.global	blob_detect
  80              		.thumb
  81              		.thumb_func
  82              		.type	blob_detect, %function
  83              	blob_detect:
  84              	.LFB64:
  30:.\blob_stats.c **** 
ARM GAS  C:\Users\xavieran\AppData\Local\Temp\ccObHBpH.s 			page 3


  31:.\blob_stats.c **** void blob_detect()
  32:.\blob_stats.c **** {
  85              		.loc 1 32 0
  86              		.cfi_startproc
  87              		@ args = 0, pretend = 0, frame = 376
  88              		@ frame_needed = 1, uses_anonymous_args = 0
  89 0000 90B5     		push	{r4, r7, lr}
  90              		.cfi_def_cfa_offset 12
  91              		.cfi_offset 4, -12
  92              		.cfi_offset 7, -8
  93              		.cfi_offset 14, -4
  94 0002 DFB0     		sub	sp, sp, #380
  95              		.cfi_def_cfa_offset 392
  96 0004 00AF     		add	r7, sp, #0
  97              		.cfi_def_cfa_register 7
  33:.\blob_stats.c **** 	int labels[88];
  34:.\blob_stats.c **** 	int x,y,keep,drop,current_available_label = 0;
  98              		.loc 1 34 0
  99 0006 0023     		movs	r3, #0
 100 0008 C7F86C31 		str	r3, [r7, #364]
  35:.\blob_stats.c ****     int i;
  36:.\blob_stats.c **** 	memset(blobs,0,sizeof(blobs));
 101              		.loc 1 36 0
 102 000c AD48     		ldr	r0, .L21
 103 000e 0021     		movs	r1, #0
 104 0010 4FF47F62 		mov	r2, #4080
 105 0014 FFF7FEFF 		bl	memset
  37:.\blob_stats.c **** 	memset(labels,-1,sizeof(labels));
 106              		.loc 1 37 0
 107 0018 3B46     		mov	r3, r7
 108 001a 1846     		mov	r0, r3
 109 001c 4FF0FF31 		mov	r1, #-1
 110 0020 4FF4B072 		mov	r2, #352
 111 0024 FFF7FEFF 		bl	memset
  38:.\blob_stats.c **** 	for(y = 1; y < 144; y++)
 112              		.loc 1 38 0
 113 0028 0123     		movs	r3, #1
 114 002a C7F87031 		str	r3, [r7, #368]
 115 002e BEE1     		b	.L8
 116              	.L20:
  39:.\blob_stats.c **** 	{
  40:.\blob_stats.c **** 		for(x = 1; x < 88; x++)
 117              		.loc 1 40 0
 118 0030 0123     		movs	r3, #1
 119 0032 C7F87431 		str	r3, [r7, #372]
 120 0036 B0E1     		b	.L9
 121              	.L19:
  41:.\blob_stats.c **** 		{
  42:.\blob_stats.c **** 			if(PixelColour(x,y) == NONE)
 122              		.loc 1 42 0
 123 0038 D7F87431 		ldr	r3, [r7, #372]
 124 003c DAB2     		uxtb	r2, r3
 125 003e D7F87031 		ldr	r3, [r7, #368]
 126 0042 DBB2     		uxtb	r3, r3
 127 0044 1046     		mov	r0, r2
 128 0046 1946     		mov	r1, r3
 129 0048 FFF7FEFF 		bl	PixelColour
ARM GAS  C:\Users\xavieran\AppData\Local\Temp\ccObHBpH.s 			page 4


 130 004c 0346     		mov	r3, r0
 131 004e 002B     		cmp	r3, #0
 132 0050 07D1     		bne	.L10
  43:.\blob_stats.c **** 			{
  44:.\blob_stats.c **** 				labels[x] = -1;
 133              		.loc 1 44 0
 134 0052 3B46     		mov	r3, r7
 135 0054 D7F87421 		ldr	r2, [r7, #372]
 136 0058 4FF0FF31 		mov	r1, #-1
 137 005c 43F82210 		str	r1, [r3, r2, lsl #2]
 138 0060 3CE1     		b	.L11
 139              	.L10:
  45:.\blob_stats.c **** 			}
  46:.\blob_stats.c **** 			else if(PixelColour(x,y) == PixelColour(x-1,y))
 140              		.loc 1 46 0
 141 0062 D7F87431 		ldr	r3, [r7, #372]
 142 0066 DAB2     		uxtb	r2, r3
 143 0068 D7F87031 		ldr	r3, [r7, #368]
 144 006c DBB2     		uxtb	r3, r3
 145 006e 1046     		mov	r0, r2
 146 0070 1946     		mov	r1, r3
 147 0072 FFF7FEFF 		bl	PixelColour
 148 0076 0346     		mov	r3, r0
 149 0078 1C46     		mov	r4, r3
 150 007a D7F87431 		ldr	r3, [r7, #372]
 151 007e DBB2     		uxtb	r3, r3
 152 0080 013B     		subs	r3, r3, #1
 153 0082 DAB2     		uxtb	r2, r3
 154 0084 D7F87031 		ldr	r3, [r7, #368]
 155 0088 DBB2     		uxtb	r3, r3
 156 008a 1046     		mov	r0, r2
 157 008c 1946     		mov	r1, r3
 158 008e FFF7FEFF 		bl	PixelColour
 159 0092 0346     		mov	r3, r0
 160 0094 9C42     		cmp	r4, r3
 161 0096 40F0EE80 		bne	.L12
  47:.\blob_stats.c **** 			{
  48:.\blob_stats.c **** 				if(PixelColour(x,y) == PixelColour(x,y-1) && labels[x] != labels[x-1])
 162              		.loc 1 48 0
 163 009a D7F87431 		ldr	r3, [r7, #372]
 164 009e DAB2     		uxtb	r2, r3
 165 00a0 D7F87031 		ldr	r3, [r7, #368]
 166 00a4 DBB2     		uxtb	r3, r3
 167 00a6 1046     		mov	r0, r2
 168 00a8 1946     		mov	r1, r3
 169 00aa FFF7FEFF 		bl	PixelColour
 170 00ae 0346     		mov	r3, r0
 171 00b0 1C46     		mov	r4, r3
 172 00b2 D7F87431 		ldr	r3, [r7, #372]
 173 00b6 DAB2     		uxtb	r2, r3
 174 00b8 D7F87031 		ldr	r3, [r7, #368]
 175 00bc DBB2     		uxtb	r3, r3
 176 00be 013B     		subs	r3, r3, #1
 177 00c0 DBB2     		uxtb	r3, r3
 178 00c2 1046     		mov	r0, r2
 179 00c4 1946     		mov	r1, r3
 180 00c6 FFF7FEFF 		bl	PixelColour
ARM GAS  C:\Users\xavieran\AppData\Local\Temp\ccObHBpH.s 			page 5


 181 00ca 0346     		mov	r3, r0
 182 00cc 9C42     		cmp	r4, r3
 183 00ce 40F0C680 		bne	.L13
 184              		.loc 1 48 0 is_stmt 0 discriminator 1
 185 00d2 3B46     		mov	r3, r7
 186 00d4 D7F87421 		ldr	r2, [r7, #372]
 187 00d8 53F82220 		ldr	r2, [r3, r2, lsl #2]
 188 00dc D7F87431 		ldr	r3, [r7, #372]
 189 00e0 591E     		subs	r1, r3, #1
 190 00e2 3B46     		mov	r3, r7
 191 00e4 53F82130 		ldr	r3, [r3, r1, lsl #2]
 192 00e8 9A42     		cmp	r2, r3
 193 00ea 00F0B880 		beq	.L13
  49:.\blob_stats.c **** 				{
  50:.\blob_stats.c **** 					keep = labels[x-1];
 194              		.loc 1 50 0 is_stmt 1
 195 00ee D7F87431 		ldr	r3, [r7, #372]
 196 00f2 5A1E     		subs	r2, r3, #1
 197 00f4 3B46     		mov	r3, r7
 198 00f6 53F82230 		ldr	r3, [r3, r2, lsl #2]
 199 00fa C7F86431 		str	r3, [r7, #356]
  51:.\blob_stats.c **** 					drop = labels[x];
 200              		.loc 1 51 0
 201 00fe 3B46     		mov	r3, r7
 202 0100 D7F87421 		ldr	r2, [r7, #372]
 203 0104 53F82230 		ldr	r3, [r3, r2, lsl #2]
 204 0108 C7F86031 		str	r3, [r7, #352]
  52:.\blob_stats.c **** 
  53:.\blob_stats.c **** 					//Merge Blobs
  54:.\blob_stats.c **** 					blobs[labels[x-1]].size += blobs[labels[x]].size;
 205              		.loc 1 54 0
 206 010c D7F87431 		ldr	r3, [r7, #372]
 207 0110 5A1E     		subs	r2, r3, #1
 208 0112 3B46     		mov	r3, r7
 209 0114 53F82230 		ldr	r3, [r3, r2, lsl #2]
 210 0118 D7F87421 		ldr	r2, [r7, #372]
 211 011c 511E     		subs	r1, r2, #1
 212 011e 3A46     		mov	r2, r7
 213 0120 52F82120 		ldr	r2, [r2, r1, lsl #2]
 214 0124 6749     		ldr	r1, .L21
 215 0126 1201     		lsls	r2, r2, #4
 216 0128 0A44     		add	r2, r2, r1
 217 012a 9188     		ldrh	r1, [r2, #4]
 218 012c 3A46     		mov	r2, r7
 219 012e D7F87401 		ldr	r0, [r7, #372]
 220 0132 52F82020 		ldr	r2, [r2, r0, lsl #2]
 221 0136 6348     		ldr	r0, .L21
 222 0138 1201     		lsls	r2, r2, #4
 223 013a 0244     		add	r2, r2, r0
 224 013c 9288     		ldrh	r2, [r2, #4]
 225 013e 0A44     		add	r2, r2, r1
 226 0140 92B2     		uxth	r2, r2
 227 0142 6049     		ldr	r1, .L21
 228 0144 1B01     		lsls	r3, r3, #4
 229 0146 0B44     		add	r3, r3, r1
 230 0148 9A80     		strh	r2, [r3, #4]	@ movhi
  55:.\blob_stats.c **** 					blobs[labels[x-1]].x_sum += blobs[labels[x]].x_sum;
ARM GAS  C:\Users\xavieran\AppData\Local\Temp\ccObHBpH.s 			page 6


 231              		.loc 1 55 0
 232 014a D7F87431 		ldr	r3, [r7, #372]
 233 014e 5A1E     		subs	r2, r3, #1
 234 0150 3B46     		mov	r3, r7
 235 0152 53F82230 		ldr	r3, [r3, r2, lsl #2]
 236 0156 D7F87421 		ldr	r2, [r7, #372]
 237 015a 511E     		subs	r1, r2, #1
 238 015c 3A46     		mov	r2, r7
 239 015e 52F82120 		ldr	r2, [r2, r1, lsl #2]
 240 0162 5849     		ldr	r1, .L21
 241 0164 1201     		lsls	r2, r2, #4
 242 0166 0A44     		add	r2, r2, r1
 243 0168 0832     		adds	r2, r2, #8
 244 016a 1168     		ldr	r1, [r2]
 245 016c 3A46     		mov	r2, r7
 246 016e D7F87401 		ldr	r0, [r7, #372]
 247 0172 52F82020 		ldr	r2, [r2, r0, lsl #2]
 248 0176 5348     		ldr	r0, .L21
 249 0178 1201     		lsls	r2, r2, #4
 250 017a 0244     		add	r2, r2, r0
 251 017c 0832     		adds	r2, r2, #8
 252 017e 1268     		ldr	r2, [r2]
 253 0180 0A44     		add	r2, r2, r1
 254 0182 5049     		ldr	r1, .L21
 255 0184 1B01     		lsls	r3, r3, #4
 256 0186 0B44     		add	r3, r3, r1
 257 0188 0833     		adds	r3, r3, #8
 258 018a 1A60     		str	r2, [r3]
  56:.\blob_stats.c **** 					blobs[labels[x-1]].y_sum += blobs[labels[x]].y_sum;
 259              		.loc 1 56 0
 260 018c D7F87431 		ldr	r3, [r7, #372]
 261 0190 5A1E     		subs	r2, r3, #1
 262 0192 3B46     		mov	r3, r7
 263 0194 53F82230 		ldr	r3, [r3, r2, lsl #2]
 264 0198 D7F87421 		ldr	r2, [r7, #372]
 265 019c 511E     		subs	r1, r2, #1
 266 019e 3A46     		mov	r2, r7
 267 01a0 52F82120 		ldr	r2, [r2, r1, lsl #2]
 268 01a4 4749     		ldr	r1, .L21
 269 01a6 1201     		lsls	r2, r2, #4
 270 01a8 0A44     		add	r2, r2, r1
 271 01aa 0832     		adds	r2, r2, #8
 272 01ac 5168     		ldr	r1, [r2, #4]
 273 01ae 3A46     		mov	r2, r7
 274 01b0 D7F87401 		ldr	r0, [r7, #372]
 275 01b4 52F82020 		ldr	r2, [r2, r0, lsl #2]
 276 01b8 4248     		ldr	r0, .L21
 277 01ba 1201     		lsls	r2, r2, #4
 278 01bc 0244     		add	r2, r2, r0
 279 01be 0832     		adds	r2, r2, #8
 280 01c0 5268     		ldr	r2, [r2, #4]
 281 01c2 0A44     		add	r2, r2, r1
 282 01c4 3F49     		ldr	r1, .L21
 283 01c6 1B01     		lsls	r3, r3, #4
 284 01c8 0B44     		add	r3, r3, r1
 285 01ca 0833     		adds	r3, r3, #8
 286 01cc 5A60     		str	r2, [r3, #4]
ARM GAS  C:\Users\xavieran\AppData\Local\Temp\ccObHBpH.s 			page 7


  57:.\blob_stats.c **** 
  58:.\blob_stats.c **** 					//Drop Blob
  59:.\blob_stats.c **** 					blobs[labels[x]].colour = NONE;
 287              		.loc 1 59 0
 288 01ce 3B46     		mov	r3, r7
 289 01d0 D7F87421 		ldr	r2, [r7, #372]
 290 01d4 53F82230 		ldr	r3, [r3, r2, lsl #2]
 291 01d8 3A4A     		ldr	r2, .L21
 292 01da 1B01     		lsls	r3, r3, #4
 293 01dc 1344     		add	r3, r3, r2
 294 01de 0022     		movs	r2, #0
 295 01e0 1A60     		str	r2, [r3]
  60:.\blob_stats.c **** 					blobs[labels[x]].size = 0;
 296              		.loc 1 60 0
 297 01e2 3B46     		mov	r3, r7
 298 01e4 D7F87421 		ldr	r2, [r7, #372]
 299 01e8 53F82230 		ldr	r3, [r3, r2, lsl #2]
 300 01ec 354A     		ldr	r2, .L21
 301 01ee 1B01     		lsls	r3, r3, #4
 302 01f0 1344     		add	r3, r3, r2
 303 01f2 0022     		movs	r2, #0
 304 01f4 9A80     		strh	r2, [r3, #4]	@ movhi
  61:.\blob_stats.c **** 					blobs[labels[x]].x_sum = 0;
 305              		.loc 1 61 0
 306 01f6 3B46     		mov	r3, r7
 307 01f8 D7F87421 		ldr	r2, [r7, #372]
 308 01fc 53F82230 		ldr	r3, [r3, r2, lsl #2]
 309 0200 304A     		ldr	r2, .L21
 310 0202 1B01     		lsls	r3, r3, #4
 311 0204 1344     		add	r3, r3, r2
 312 0206 0833     		adds	r3, r3, #8
 313 0208 0022     		movs	r2, #0
 314 020a 1A60     		str	r2, [r3]
  62:.\blob_stats.c **** 					blobs[labels[x]].y_sum = 0;
 315              		.loc 1 62 0
 316 020c 3B46     		mov	r3, r7
 317 020e D7F87421 		ldr	r2, [r7, #372]
 318 0212 53F82230 		ldr	r3, [r3, r2, lsl #2]
 319 0216 2B4A     		ldr	r2, .L21
 320 0218 1B01     		lsls	r3, r3, #4
 321 021a 1344     		add	r3, r3, r2
 322 021c 0833     		adds	r3, r3, #8
 323 021e 0022     		movs	r2, #0
 324 0220 5A60     		str	r2, [r3, #4]
  63:.\blob_stats.c **** 					for(i = x; i < 88; i++)
 325              		.loc 1 63 0
 326 0222 D7F87431 		ldr	r3, [r7, #372]
 327 0226 C7F86831 		str	r3, [r7, #360]
 328 022a 14E0     		b	.L14
 329              	.L16:
  64:.\blob_stats.c **** 					{
  65:.\blob_stats.c **** 						if(labels[i] == drop)
 330              		.loc 1 65 0
 331 022c 3B46     		mov	r3, r7
 332 022e D7F86821 		ldr	r2, [r7, #360]
 333 0232 53F82220 		ldr	r2, [r3, r2, lsl #2]
 334 0236 D7F86031 		ldr	r3, [r7, #352]
ARM GAS  C:\Users\xavieran\AppData\Local\Temp\ccObHBpH.s 			page 8


 335 023a 9A42     		cmp	r2, r3
 336 023c 06D1     		bne	.L15
  66:.\blob_stats.c **** 						{
  67:.\blob_stats.c **** 							labels[i] = keep;
 337              		.loc 1 67 0
 338 023e 3B46     		mov	r3, r7
 339 0240 D7F86821 		ldr	r2, [r7, #360]
 340 0244 D7F86411 		ldr	r1, [r7, #356]
 341 0248 43F82210 		str	r1, [r3, r2, lsl #2]
 342              	.L15:
  63:.\blob_stats.c **** 					for(i = x; i < 88; i++)
 343              		.loc 1 63 0
 344 024c D7F86831 		ldr	r3, [r7, #360]
 345 0250 0133     		adds	r3, r3, #1
 346 0252 C7F86831 		str	r3, [r7, #360]
 347              	.L14:
  63:.\blob_stats.c **** 					for(i = x; i < 88; i++)
 348              		.loc 1 63 0 is_stmt 0 discriminator 1
 349 0256 D7F86831 		ldr	r3, [r7, #360]
 350 025a 572B     		cmp	r3, #87
 351 025c E6DD     		ble	.L16
 352              	.L13:
  68:.\blob_stats.c **** 						}
  69:.\blob_stats.c **** 					}
  70:.\blob_stats.c **** 				}
  71:.\blob_stats.c **** 				labels[x] = labels[x-1];
 353              		.loc 1 71 0 is_stmt 1
 354 025e D7F87431 		ldr	r3, [r7, #372]
 355 0262 5A1E     		subs	r2, r3, #1
 356 0264 3B46     		mov	r3, r7
 357 0266 53F82210 		ldr	r1, [r3, r2, lsl #2]
 358 026a 3B46     		mov	r3, r7
 359 026c D7F87421 		ldr	r2, [r7, #372]
 360 0270 43F82210 		str	r1, [r3, r2, lsl #2]
 361 0274 32E0     		b	.L11
 362              	.L12:
  72:.\blob_stats.c **** 			}
  73:.\blob_stats.c **** 			else if(PixelColour(x,y) == PixelColour(x,y-1))
 363              		.loc 1 73 0
 364 0276 D7F87431 		ldr	r3, [r7, #372]
 365 027a DAB2     		uxtb	r2, r3
 366 027c D7F87031 		ldr	r3, [r7, #368]
 367 0280 DBB2     		uxtb	r3, r3
 368 0282 1046     		mov	r0, r2
 369 0284 1946     		mov	r1, r3
 370 0286 FFF7FEFF 		bl	PixelColour
 371 028a 0346     		mov	r3, r0
 372 028c 1C46     		mov	r4, r3
 373 028e D7F87431 		ldr	r3, [r7, #372]
 374 0292 DAB2     		uxtb	r2, r3
 375 0294 D7F87031 		ldr	r3, [r7, #368]
 376 0298 DBB2     		uxtb	r3, r3
 377 029a 013B     		subs	r3, r3, #1
 378 029c DBB2     		uxtb	r3, r3
 379 029e 1046     		mov	r0, r2
 380 02a0 1946     		mov	r1, r3
 381 02a2 FFF7FEFF 		bl	PixelColour
ARM GAS  C:\Users\xavieran\AppData\Local\Temp\ccObHBpH.s 			page 9


 382 02a6 0346     		mov	r3, r0
 383 02a8 9C42     		cmp	r4, r3
 384 02aa 0DD1     		bne	.L17
  74:.\blob_stats.c **** 			{
  75:.\blob_stats.c **** 				// Same as above, but not to the left. An "Edge"
  76:.\blob_stats.c **** 				labels[x] = labels[x];
 385              		.loc 1 76 0
 386 02ac 3B46     		mov	r3, r7
 387 02ae D7F87421 		ldr	r2, [r7, #372]
 388 02b2 53F82210 		ldr	r1, [r3, r2, lsl #2]
 389 02b6 3B46     		mov	r3, r7
 390 02b8 D7F87421 		ldr	r2, [r7, #372]
 391 02bc 43F82210 		str	r1, [r3, r2, lsl #2]
 392 02c0 0CE0     		b	.L11
 393              	.L22:
 394 02c2 00BF     		.align	2
 395              	.L21:
 396 02c4 00000000 		.word	blobs
 397              	.L17:
  77:.\blob_stats.c **** 			}
  78:.\blob_stats.c **** 			else
  79:.\blob_stats.c **** 			{
  80:.\blob_stats.c **** 				//New Label
  81:.\blob_stats.c **** 				labels[x] = current_available_label++;
 398              		.loc 1 81 0
 399 02c8 D7F86C31 		ldr	r3, [r7, #364]
 400 02cc 5A1C     		adds	r2, r3, #1
 401 02ce C7F86C21 		str	r2, [r7, #364]
 402 02d2 3A46     		mov	r2, r7
 403 02d4 D7F87411 		ldr	r1, [r7, #372]
 404 02d8 42F82130 		str	r3, [r2, r1, lsl #2]
 405              	.L11:
  82:.\blob_stats.c **** 			}
  83:.\blob_stats.c **** 			if(labels[x] != -1)
 406              		.loc 1 83 0
 407 02dc 3B46     		mov	r3, r7
 408 02de D7F87421 		ldr	r2, [r7, #372]
 409 02e2 53F82230 		ldr	r3, [r3, r2, lsl #2]
 410 02e6 B3F1FF3F 		cmp	r3, #-1
 411 02ea 51D0     		beq	.L18
  84:.\blob_stats.c **** 			{
  85:.\blob_stats.c **** 				blobs[labels[x]].colour = PixelColour(x,y);
 412              		.loc 1 85 0
 413 02ec 3B46     		mov	r3, r7
 414 02ee D7F87421 		ldr	r2, [r7, #372]
 415 02f2 53F82240 		ldr	r4, [r3, r2, lsl #2]
 416 02f6 D7F87431 		ldr	r3, [r7, #372]
 417 02fa DAB2     		uxtb	r2, r3
 418 02fc D7F87031 		ldr	r3, [r7, #368]
 419 0300 DBB2     		uxtb	r3, r3
 420 0302 1046     		mov	r0, r2
 421 0304 1946     		mov	r1, r3
 422 0306 FFF7FEFF 		bl	PixelColour
 423 030a 0346     		mov	r3, r0
 424 030c 1A46     		mov	r2, r3
 425 030e 2F49     		ldr	r1, .L23
 426 0310 2301     		lsls	r3, r4, #4
ARM GAS  C:\Users\xavieran\AppData\Local\Temp\ccObHBpH.s 			page 10


 427 0312 0B44     		add	r3, r3, r1
 428 0314 1A60     		str	r2, [r3]
  86:.\blob_stats.c **** 				blobs[labels[x]].size++;
 429              		.loc 1 86 0
 430 0316 3B46     		mov	r3, r7
 431 0318 D7F87421 		ldr	r2, [r7, #372]
 432 031c 53F82230 		ldr	r3, [r3, r2, lsl #2]
 433 0320 2A49     		ldr	r1, .L23
 434 0322 1A01     		lsls	r2, r3, #4
 435 0324 0A44     		add	r2, r2, r1
 436 0326 9288     		ldrh	r2, [r2, #4]
 437 0328 0132     		adds	r2, r2, #1
 438 032a 92B2     		uxth	r2, r2
 439 032c 2749     		ldr	r1, .L23
 440 032e 1B01     		lsls	r3, r3, #4
 441 0330 0B44     		add	r3, r3, r1
 442 0332 9A80     		strh	r2, [r3, #4]	@ movhi
  87:.\blob_stats.c **** 				blobs[labels[x]].x_sum += x;
 443              		.loc 1 87 0
 444 0334 3B46     		mov	r3, r7
 445 0336 D7F87421 		ldr	r2, [r7, #372]
 446 033a 53F82230 		ldr	r3, [r3, r2, lsl #2]
 447 033e 3A46     		mov	r2, r7
 448 0340 D7F87411 		ldr	r1, [r7, #372]
 449 0344 52F82120 		ldr	r2, [r2, r1, lsl #2]
 450 0348 2049     		ldr	r1, .L23
 451 034a 1201     		lsls	r2, r2, #4
 452 034c 0A44     		add	r2, r2, r1
 453 034e 0832     		adds	r2, r2, #8
 454 0350 1168     		ldr	r1, [r2]
 455 0352 D7F87421 		ldr	r2, [r7, #372]
 456 0356 0A44     		add	r2, r2, r1
 457 0358 1C49     		ldr	r1, .L23
 458 035a 1B01     		lsls	r3, r3, #4
 459 035c 0B44     		add	r3, r3, r1
 460 035e 0833     		adds	r3, r3, #8
 461 0360 1A60     		str	r2, [r3]
  88:.\blob_stats.c **** 				blobs[labels[y]].y_sum += y;
 462              		.loc 1 88 0
 463 0362 3B46     		mov	r3, r7
 464 0364 D7F87021 		ldr	r2, [r7, #368]
 465 0368 53F82230 		ldr	r3, [r3, r2, lsl #2]
 466 036c 3A46     		mov	r2, r7
 467 036e D7F87011 		ldr	r1, [r7, #368]
 468 0372 52F82120 		ldr	r2, [r2, r1, lsl #2]
 469 0376 1549     		ldr	r1, .L23
 470 0378 1201     		lsls	r2, r2, #4
 471 037a 0A44     		add	r2, r2, r1
 472 037c 0832     		adds	r2, r2, #8
 473 037e 5168     		ldr	r1, [r2, #4]
 474 0380 D7F87021 		ldr	r2, [r7, #368]
 475 0384 0A44     		add	r2, r2, r1
 476 0386 1149     		ldr	r1, .L23
 477 0388 1B01     		lsls	r3, r3, #4
 478 038a 0B44     		add	r3, r3, r1
 479 038c 0833     		adds	r3, r3, #8
 480 038e 5A60     		str	r2, [r3, #4]
ARM GAS  C:\Users\xavieran\AppData\Local\Temp\ccObHBpH.s 			page 11


 481              	.L18:
  40:.\blob_stats.c **** 		for(x = 1; x < 88; x++)
 482              		.loc 1 40 0
 483 0390 D7F87431 		ldr	r3, [r7, #372]
 484 0394 0133     		adds	r3, r3, #1
 485 0396 C7F87431 		str	r3, [r7, #372]
 486              	.L9:
  40:.\blob_stats.c **** 		for(x = 1; x < 88; x++)
 487              		.loc 1 40 0 is_stmt 0 discriminator 1
 488 039a D7F87431 		ldr	r3, [r7, #372]
 489 039e 572B     		cmp	r3, #87
 490 03a0 7FF74AAE 		ble	.L19
  38:.\blob_stats.c **** 	for(y = 1; y < 144; y++)
 491              		.loc 1 38 0 is_stmt 1
 492 03a4 D7F87031 		ldr	r3, [r7, #368]
 493 03a8 0133     		adds	r3, r3, #1
 494 03aa C7F87031 		str	r3, [r7, #368]
 495              	.L8:
  38:.\blob_stats.c **** 	for(y = 1; y < 144; y++)
 496              		.loc 1 38 0 is_stmt 0 discriminator 1
 497 03ae D7F87031 		ldr	r3, [r7, #368]
 498 03b2 8F2B     		cmp	r3, #143
 499 03b4 7FF73CAE 		ble	.L20
  89:.\blob_stats.c **** 			}
  90:.\blob_stats.c **** 		}
  91:.\blob_stats.c **** 	}
  92:.\blob_stats.c ****     // THE MOST IMPORTANT LINE IN BLOB STATS
  93:.\blob_stats.c ****     qsort(blobs,NUMBER_OF_BLOBS,sizeof(blob),blob_comp);           
 500              		.loc 1 93 0 is_stmt 1
 501 03b8 0448     		ldr	r0, .L23
 502 03ba FF21     		movs	r1, #255
 503 03bc 1022     		movs	r2, #16
 504 03be 044B     		ldr	r3, .L23+4
 505 03c0 FFF7FEFF 		bl	qsort
  94:.\blob_stats.c **** }
 506              		.loc 1 94 0
 507 03c4 07F5BE77 		add	r7, r7, #380
 508 03c8 BD46     		mov	sp, r7
 509              		@ sp needed
 510 03ca 90BD     		pop	{r4, r7, pc}
 511              	.L24:
 512              		.align	2
 513              	.L23:
 514 03cc 00000000 		.word	blobs
 515 03d0 00000000 		.word	blob_comp
 516              		.cfi_endproc
 517              	.LFE64:
 518              		.size	blob_detect, .-blob_detect
 519              		.section	.text.blob_count,"ax",%progbits
 520              		.align	2
 521              		.global	blob_count
 522              		.thumb
 523              		.thumb_func
 524              		.type	blob_count, %function
 525              	blob_count:
 526              	.LFB65:
  95:.\blob_stats.c **** 
ARM GAS  C:\Users\xavieran\AppData\Local\Temp\ccObHBpH.s 			page 12


  96:.\blob_stats.c **** uint16 blob_count(int colour, int size)
  97:.\blob_stats.c **** {
 527              		.loc 1 97 0
 528              		.cfi_startproc
 529              		@ args = 0, pretend = 0, frame = 16
 530              		@ frame_needed = 1, uses_anonymous_args = 0
 531              		@ link register save eliminated.
 532 0000 80B4     		push	{r7}
 533              		.cfi_def_cfa_offset 4
 534              		.cfi_offset 7, -4
 535 0002 85B0     		sub	sp, sp, #20
 536              		.cfi_def_cfa_offset 24
 537 0004 00AF     		add	r7, sp, #0
 538              		.cfi_def_cfa_register 7
 539 0006 7860     		str	r0, [r7, #4]
 540 0008 3960     		str	r1, [r7]
  98:.\blob_stats.c **** 	uint16 count = 0; 
 541              		.loc 1 98 0
 542 000a 0023     		movs	r3, #0
 543 000c FB81     		strh	r3, [r7, #14]	@ movhi
  99:.\blob_stats.c ****     int i;
 100:.\blob_stats.c **** 	if(colour == 0)
 544              		.loc 1 100 0
 545 000e 7B68     		ldr	r3, [r7, #4]
 546 0010 002B     		cmp	r3, #0
 547 0012 15D1     		bne	.L26
 101:.\blob_stats.c ****     {
 102:.\blob_stats.c ****         for(i = 0; i < NUMBER_OF_BLOBS; i++)
 548              		.loc 1 102 0
 549 0014 0023     		movs	r3, #0
 550 0016 BB60     		str	r3, [r7, #8]
 551 0018 0EE0     		b	.L27
 552              	.L29:
 103:.\blob_stats.c **** 	    {
 104:.\blob_stats.c **** 		    if(blobs[i].size >= size)
 553              		.loc 1 104 0
 554 001a 1B4A     		ldr	r2, .L35
 555 001c BB68     		ldr	r3, [r7, #8]
 556 001e 1B01     		lsls	r3, r3, #4
 557 0020 1344     		add	r3, r3, r2
 558 0022 9B88     		ldrh	r3, [r3, #4]
 559 0024 1A46     		mov	r2, r3
 560 0026 3B68     		ldr	r3, [r7]
 561 0028 9A42     		cmp	r2, r3
 562 002a 02DB     		blt	.L28
 105:.\blob_stats.c **** 		    {
 106:.\blob_stats.c **** 			    count++;
 563              		.loc 1 106 0
 564 002c FB89     		ldrh	r3, [r7, #14]
 565 002e 0133     		adds	r3, r3, #1
 566 0030 FB81     		strh	r3, [r7, #14]	@ movhi
 567              	.L28:
 102:.\blob_stats.c ****         for(i = 0; i < NUMBER_OF_BLOBS; i++)
 568              		.loc 1 102 0
 569 0032 BB68     		ldr	r3, [r7, #8]
 570 0034 0133     		adds	r3, r3, #1
 571 0036 BB60     		str	r3, [r7, #8]
ARM GAS  C:\Users\xavieran\AppData\Local\Temp\ccObHBpH.s 			page 13


 572              	.L27:
 102:.\blob_stats.c ****         for(i = 0; i < NUMBER_OF_BLOBS; i++)
 573              		.loc 1 102 0 is_stmt 0 discriminator 1
 574 0038 BB68     		ldr	r3, [r7, #8]
 575 003a FE2B     		cmp	r3, #254
 576 003c EDDD     		ble	.L29
 577 003e 1CE0     		b	.L30
 578              	.L26:
 107:.\blob_stats.c **** 		    }
 108:.\blob_stats.c **** 	    }
 109:.\blob_stats.c ****     }
 110:.\blob_stats.c ****     else
 111:.\blob_stats.c ****     {
 112:.\blob_stats.c ****         for(i = 0; i < NUMBER_OF_BLOBS; i++)
 579              		.loc 1 112 0 is_stmt 1
 580 0040 0023     		movs	r3, #0
 581 0042 BB60     		str	r3, [r7, #8]
 582 0044 16E0     		b	.L31
 583              	.L33:
 113:.\blob_stats.c **** 	    {
 114:.\blob_stats.c **** 		    if(blobs[i].size >= size && blobs[i].colour == colour)
 584              		.loc 1 114 0
 585 0046 104A     		ldr	r2, .L35
 586 0048 BB68     		ldr	r3, [r7, #8]
 587 004a 1B01     		lsls	r3, r3, #4
 588 004c 1344     		add	r3, r3, r2
 589 004e 9B88     		ldrh	r3, [r3, #4]
 590 0050 1A46     		mov	r2, r3
 591 0052 3B68     		ldr	r3, [r7]
 592 0054 9A42     		cmp	r2, r3
 593 0056 0ADB     		blt	.L32
 594              		.loc 1 114 0 is_stmt 0 discriminator 1
 595 0058 0B4A     		ldr	r2, .L35
 596 005a BB68     		ldr	r3, [r7, #8]
 597 005c 1B01     		lsls	r3, r3, #4
 598 005e 1344     		add	r3, r3, r2
 599 0060 1A68     		ldr	r2, [r3]
 600 0062 7B68     		ldr	r3, [r7, #4]
 601 0064 9A42     		cmp	r2, r3
 602 0066 02D1     		bne	.L32
 115:.\blob_stats.c **** 		    {
 116:.\blob_stats.c **** 			    count++;
 603              		.loc 1 116 0 is_stmt 1
 604 0068 FB89     		ldrh	r3, [r7, #14]
 605 006a 0133     		adds	r3, r3, #1
 606 006c FB81     		strh	r3, [r7, #14]	@ movhi
 607              	.L32:
 112:.\blob_stats.c ****         for(i = 0; i < NUMBER_OF_BLOBS; i++)
 608              		.loc 1 112 0
 609 006e BB68     		ldr	r3, [r7, #8]
 610 0070 0133     		adds	r3, r3, #1
 611 0072 BB60     		str	r3, [r7, #8]
 612              	.L31:
 112:.\blob_stats.c ****         for(i = 0; i < NUMBER_OF_BLOBS; i++)
 613              		.loc 1 112 0 is_stmt 0 discriminator 1
 614 0074 BB68     		ldr	r3, [r7, #8]
 615 0076 FE2B     		cmp	r3, #254
ARM GAS  C:\Users\xavieran\AppData\Local\Temp\ccObHBpH.s 			page 14


 616 0078 E5DD     		ble	.L33
 617              	.L30:
 117:.\blob_stats.c **** 		    }
 118:.\blob_stats.c **** 	    } 
 119:.\blob_stats.c ****     }
 120:.\blob_stats.c **** 	return count;
 618              		.loc 1 120 0 is_stmt 1
 619 007a FB89     		ldrh	r3, [r7, #14]
 121:.\blob_stats.c **** }
 620              		.loc 1 121 0
 621 007c 1846     		mov	r0, r3
 622 007e 1437     		adds	r7, r7, #20
 623 0080 BD46     		mov	sp, r7
 624              		@ sp needed
 625 0082 5DF8047B 		ldr	r7, [sp], #4
 626 0086 7047     		bx	lr
 627              	.L36:
 628              		.align	2
 629              	.L35:
 630 0088 00000000 		.word	blobs
 631              		.cfi_endproc
 632              	.LFE65:
 633              		.size	blob_count, .-blob_count
 634              		.section	.text.blob_comp,"ax",%progbits
 635              		.align	2
 636              		.global	blob_comp
 637              		.thumb
 638              		.thumb_func
 639              		.type	blob_comp, %function
 640              	blob_comp:
 641              	.LFB66:
 122:.\blob_stats.c **** 
 123:.\blob_stats.c **** int blob_comp(const void *a, const void *b)
 124:.\blob_stats.c **** {
 642              		.loc 1 124 0
 643              		.cfi_startproc
 644              		@ args = 0, pretend = 0, frame = 40
 645              		@ frame_needed = 1, uses_anonymous_args = 0
 646              		@ link register save eliminated.
 647 0000 90B4     		push	{r4, r7}
 648              		.cfi_def_cfa_offset 8
 649              		.cfi_offset 4, -8
 650              		.cfi_offset 7, -4
 651 0002 8AB0     		sub	sp, sp, #40
 652              		.cfi_def_cfa_offset 48
 653 0004 00AF     		add	r7, sp, #0
 654              		.cfi_def_cfa_register 7
 655 0006 7860     		str	r0, [r7, #4]
 656 0008 3960     		str	r1, [r7]
 125:.\blob_stats.c ****     blob b1 = *((blob *) a);
 657              		.loc 1 125 0
 658 000a 7B68     		ldr	r3, [r7, #4]
 659 000c 07F11804 		add	r4, r7, #24
 660 0010 0FCB     		ldmia	r3, {r0, r1, r2, r3}
 661 0012 84E80F00 		stmia	r4, {r0, r1, r2, r3}
 126:.\blob_stats.c ****     blob b2 = *((blob *) b);
 662              		.loc 1 126 0
ARM GAS  C:\Users\xavieran\AppData\Local\Temp\ccObHBpH.s 			page 15


 663 0016 3B68     		ldr	r3, [r7]
 664 0018 07F10804 		add	r4, r7, #8
 665 001c 0FCB     		ldmia	r3, {r0, r1, r2, r3}
 666 001e 84E80F00 		stmia	r4, {r0, r1, r2, r3}
 127:.\blob_stats.c ****     
 128:.\blob_stats.c ****     if(b1.size > b2.size)
 667              		.loc 1 128 0
 668 0022 BA8B     		ldrh	r2, [r7, #28]
 669 0024 BB89     		ldrh	r3, [r7, #12]
 670 0026 9A42     		cmp	r2, r3
 671 0028 02D9     		bls	.L38
 129:.\blob_stats.c ****     {
 130:.\blob_stats.c ****         return -1;
 672              		.loc 1 130 0
 673 002a 4FF0FF33 		mov	r3, #-1
 674 002e 06E0     		b	.L41
 675              	.L38:
 131:.\blob_stats.c ****     }
 132:.\blob_stats.c ****     else if(b2.size > b1.size)
 676              		.loc 1 132 0
 677 0030 BA89     		ldrh	r2, [r7, #12]
 678 0032 BB8B     		ldrh	r3, [r7, #28]
 679 0034 9A42     		cmp	r2, r3
 680 0036 01D9     		bls	.L40
 133:.\blob_stats.c ****     {
 134:.\blob_stats.c ****         return 1;
 681              		.loc 1 134 0
 682 0038 0123     		movs	r3, #1
 683 003a 00E0     		b	.L41
 684              	.L40:
 135:.\blob_stats.c ****     }
 136:.\blob_stats.c ****     else return 0;
 685              		.loc 1 136 0
 686 003c 0023     		movs	r3, #0
 687              	.L41:
 137:.\blob_stats.c **** }
 688              		.loc 1 137 0
 689 003e 1846     		mov	r0, r3
 690 0040 2837     		adds	r7, r7, #40
 691 0042 BD46     		mov	sp, r7
 692              		@ sp needed
 693 0044 90BC     		pop	{r4, r7}
 694 0046 7047     		bx	lr
 695              		.cfi_endproc
 696              	.LFE66:
 697              		.size	blob_comp, .-blob_comp
 698              		.section	.text.to_nearest_blob,"ax",%progbits
 699              		.align	2
 700              		.global	to_nearest_blob
 701              		.thumb
 702              		.thumb_func
 703              		.type	to_nearest_blob, %function
 704              	to_nearest_blob:
 705              	.LFB67:
 138:.\blob_stats.c **** 
 139:.\blob_stats.c **** int to_nearest_blob(int colour,int size,int centre_threshold)
 140:.\blob_stats.c **** {
ARM GAS  C:\Users\xavieran\AppData\Local\Temp\ccObHBpH.s 			page 16


 706              		.loc 1 140 0
 707              		.cfi_startproc
 708              		@ args = 0, pretend = 0, frame = 32
 709              		@ frame_needed = 1, uses_anonymous_args = 0
 710              		@ link register save eliminated.
 711 0000 80B4     		push	{r7}
 712              		.cfi_def_cfa_offset 4
 713              		.cfi_offset 7, -4
 714 0002 89B0     		sub	sp, sp, #36
 715              		.cfi_def_cfa_offset 40
 716 0004 00AF     		add	r7, sp, #0
 717              		.cfi_def_cfa_register 7
 718 0006 F860     		str	r0, [r7, #12]
 719 0008 B960     		str	r1, [r7, #8]
 720 000a 7A60     		str	r2, [r7, #4]
 141:.\blob_stats.c ****      // 0 center, + => Blob to Right, - => Blob to Left, -1 No blobs big enough
 142:.\blob_stats.c ****     int cx, cy, i;
 143:.\blob_stats.c ****     for(i = 0; i < NUMBER_OF_BLOBS; i++)
 721              		.loc 1 143 0
 722 000c 0023     		movs	r3, #0
 723 000e FB61     		str	r3, [r7, #28]
 724 0010 59E0     		b	.L43
 725              	.L48:
 144:.\blob_stats.c ****     {
 145:.\blob_stats.c ****         if(blobs[i].size < size)
 726              		.loc 1 145 0
 727 0012 324A     		ldr	r2, .L49
 728 0014 FB69     		ldr	r3, [r7, #28]
 729 0016 1B01     		lsls	r3, r3, #4
 730 0018 1344     		add	r3, r3, r2
 731 001a 9B88     		ldrh	r3, [r3, #4]
 732 001c 1A46     		mov	r2, r3
 733 001e BB68     		ldr	r3, [r7, #8]
 734 0020 9A42     		cmp	r2, r3
 735 0022 02DA     		bge	.L44
 146:.\blob_stats.c ****         {
 147:.\blob_stats.c ****             return -1;
 736              		.loc 1 147 0
 737 0024 4FF0FF33 		mov	r3, #-1
 738 0028 52E0     		b	.L45
 739              	.L44:
 148:.\blob_stats.c ****         } 
 149:.\blob_stats.c ****         else if(blobs[i].colour == colour)
 740              		.loc 1 149 0
 741 002a 2C4A     		ldr	r2, .L49
 742 002c FB69     		ldr	r3, [r7, #28]
 743 002e 1B01     		lsls	r3, r3, #4
 744 0030 1344     		add	r3, r3, r2
 745 0032 1A68     		ldr	r2, [r3]
 746 0034 FB68     		ldr	r3, [r7, #12]
 747 0036 9A42     		cmp	r2, r3
 748 0038 42D1     		bne	.L46
 150:.\blob_stats.c ****         {
 151:.\blob_stats.c ****             cx = blobs[i].x_sum/blobs[i].size;
 749              		.loc 1 151 0
 750 003a 284A     		ldr	r2, .L49
 751 003c FB69     		ldr	r3, [r7, #28]
ARM GAS  C:\Users\xavieran\AppData\Local\Temp\ccObHBpH.s 			page 17


 752 003e 1B01     		lsls	r3, r3, #4
 753 0040 1344     		add	r3, r3, r2
 754 0042 0833     		adds	r3, r3, #8
 755 0044 1A68     		ldr	r2, [r3]
 756 0046 2549     		ldr	r1, .L49
 757 0048 FB69     		ldr	r3, [r7, #28]
 758 004a 1B01     		lsls	r3, r3, #4
 759 004c 0B44     		add	r3, r3, r1
 760 004e 9B88     		ldrh	r3, [r3, #4]
 761 0050 B2FBF3F3 		udiv	r3, r2, r3
 762 0054 BB61     		str	r3, [r7, #24]
 152:.\blob_stats.c ****             cy = blobs[i].y_sum/blobs[i].size;
 763              		.loc 1 152 0
 764 0056 214A     		ldr	r2, .L49
 765 0058 FB69     		ldr	r3, [r7, #28]
 766 005a 1B01     		lsls	r3, r3, #4
 767 005c 1344     		add	r3, r3, r2
 768 005e 0833     		adds	r3, r3, #8
 769 0060 5A68     		ldr	r2, [r3, #4]
 770 0062 1E49     		ldr	r1, .L49
 771 0064 FB69     		ldr	r3, [r7, #28]
 772 0066 1B01     		lsls	r3, r3, #4
 773 0068 0B44     		add	r3, r3, r1
 774 006a 9B88     		ldrh	r3, [r3, #4]
 775 006c B2FBF3F3 		udiv	r3, r2, r3
 776 0070 7B61     		str	r3, [r7, #20]
 153:.\blob_stats.c ****             Camera_framebuffer[cy][cx][0] = 255;
 777              		.loc 1 153 0
 778 0072 1B4B     		ldr	r3, .L49+4
 779 0074 7A69     		ldr	r2, [r7, #20]
 780 0076 5821     		movs	r1, #88
 781 0078 01FB02F1 		mul	r1, r1, r2
 782 007c BA69     		ldr	r2, [r7, #24]
 783 007e 0A44     		add	r2, r2, r1
 784 0080 FF21     		movs	r1, #255
 785 0082 03F82210 		strb	r1, [r3, r2, lsl #2]
 154:.\blob_stats.c ****             Camera_framebuffer[cy][cx][2] = 255;
 786              		.loc 1 154 0
 787 0086 164A     		ldr	r2, .L49+4
 788 0088 7B69     		ldr	r3, [r7, #20]
 789 008a 5821     		movs	r1, #88
 790 008c 01FB03F1 		mul	r1, r1, r3
 791 0090 BB69     		ldr	r3, [r7, #24]
 792 0092 0B44     		add	r3, r3, r1
 793 0094 9B00     		lsls	r3, r3, #2
 794 0096 1344     		add	r3, r3, r2
 795 0098 FF22     		movs	r2, #255
 796 009a 9A70     		strb	r2, [r3, #2]
 155:.\blob_stats.c ****             if((cx - 44) >= -centre_threshold && (cx-44) <= centre_threshold)
 797              		.loc 1 155 0
 798 009c BB69     		ldr	r3, [r7, #24]
 799 009e A3F12C02 		sub	r2, r3, #44
 800 00a2 7B68     		ldr	r3, [r7, #4]
 801 00a4 5B42     		negs	r3, r3
 802 00a6 9A42     		cmp	r2, r3
 803 00a8 07DB     		blt	.L47
 804              		.loc 1 155 0 is_stmt 0 discriminator 1
ARM GAS  C:\Users\xavieran\AppData\Local\Temp\ccObHBpH.s 			page 18


 805 00aa BB69     		ldr	r3, [r7, #24]
 806 00ac A3F12C02 		sub	r2, r3, #44
 807 00b0 7B68     		ldr	r3, [r7, #4]
 808 00b2 9A42     		cmp	r2, r3
 809 00b4 01DC     		bgt	.L47
 156:.\blob_stats.c ****             {
 157:.\blob_stats.c ****                 return 0;
 810              		.loc 1 157 0 is_stmt 1
 811 00b6 0023     		movs	r3, #0
 812 00b8 0AE0     		b	.L45
 813              	.L47:
 158:.\blob_stats.c ****             }
 159:.\blob_stats.c ****             else
 160:.\blob_stats.c ****             {
 161:.\blob_stats.c ****             	return cx-44;
 814              		.loc 1 161 0
 815 00ba BB69     		ldr	r3, [r7, #24]
 816 00bc 2C3B     		subs	r3, r3, #44
 817 00be 07E0     		b	.L45
 818              	.L46:
 143:.\blob_stats.c ****     for(i = 0; i < NUMBER_OF_BLOBS; i++)
 819              		.loc 1 143 0
 820 00c0 FB69     		ldr	r3, [r7, #28]
 821 00c2 0133     		adds	r3, r3, #1
 822 00c4 FB61     		str	r3, [r7, #28]
 823              	.L43:
 143:.\blob_stats.c ****     for(i = 0; i < NUMBER_OF_BLOBS; i++)
 824              		.loc 1 143 0 is_stmt 0 discriminator 1
 825 00c6 FB69     		ldr	r3, [r7, #28]
 826 00c8 FE2B     		cmp	r3, #254
 827 00ca A2DD     		ble	.L48
 162:.\blob_stats.c ****             }
 163:.\blob_stats.c ****         }
 164:.\blob_stats.c ****     }
 165:.\blob_stats.c ****     return -1;
 828              		.loc 1 165 0 is_stmt 1
 829 00cc 4FF0FF33 		mov	r3, #-1
 830              	.L45:
 166:.\blob_stats.c **** }
 831              		.loc 1 166 0
 832 00d0 1846     		mov	r0, r3
 833 00d2 2437     		adds	r7, r7, #36
 834 00d4 BD46     		mov	sp, r7
 835              		@ sp needed
 836 00d6 5DF8047B 		ldr	r7, [sp], #4
 837 00da 7047     		bx	lr
 838              	.L50:
 839              		.align	2
 840              	.L49:
 841 00dc 00000000 		.word	blobs
 842 00e0 00000000 		.word	Camera_framebuffer
 843              		.cfi_endproc
 844              	.LFE67:
 845              		.size	to_nearest_blob, .-to_nearest_blob
 846              		.section	.text.size_of_biggest_colour,"ax",%progbits
 847              		.align	2
 848              		.global	size_of_biggest_colour
ARM GAS  C:\Users\xavieran\AppData\Local\Temp\ccObHBpH.s 			page 19


 849              		.thumb
 850              		.thumb_func
 851              		.type	size_of_biggest_colour, %function
 852              	size_of_biggest_colour:
 853              	.LFB68:
 167:.\blob_stats.c **** 
 168:.\blob_stats.c **** uint8 size_of_biggest_colour(int colour)
 169:.\blob_stats.c **** {
 854              		.loc 1 169 0
 855              		.cfi_startproc
 856              		@ args = 0, pretend = 0, frame = 16
 857              		@ frame_needed = 1, uses_anonymous_args = 0
 858              		@ link register save eliminated.
 859 0000 80B4     		push	{r7}
 860              		.cfi_def_cfa_offset 4
 861              		.cfi_offset 7, -4
 862 0002 85B0     		sub	sp, sp, #20
 863              		.cfi_def_cfa_offset 24
 864 0004 00AF     		add	r7, sp, #0
 865              		.cfi_def_cfa_register 7
 866 0006 7860     		str	r0, [r7, #4]
 170:.\blob_stats.c ****     int i;
 171:.\blob_stats.c ****     for(i = 0; i < NUMBER_OF_BLOBS; i++)
 867              		.loc 1 171 0
 868 0008 0023     		movs	r3, #0
 869 000a FB60     		str	r3, [r7, #12]
 870 000c 11E0     		b	.L52
 871              	.L55:
 172:.\blob_stats.c ****     {
 173:.\blob_stats.c ****         if(blobs[i].colour == colour)
 872              		.loc 1 173 0
 873 000e 0E4A     		ldr	r2, .L56
 874 0010 FB68     		ldr	r3, [r7, #12]
 875 0012 1B01     		lsls	r3, r3, #4
 876 0014 1344     		add	r3, r3, r2
 877 0016 1A68     		ldr	r2, [r3]
 878 0018 7B68     		ldr	r3, [r7, #4]
 879 001a 9A42     		cmp	r2, r3
 880 001c 06D1     		bne	.L53
 174:.\blob_stats.c ****         {
 175:.\blob_stats.c ****             return blobs[i].size;   
 881              		.loc 1 175 0
 882 001e 0A4A     		ldr	r2, .L56
 883 0020 FB68     		ldr	r3, [r7, #12]
 884 0022 1B01     		lsls	r3, r3, #4
 885 0024 1344     		add	r3, r3, r2
 886 0026 9B88     		ldrh	r3, [r3, #4]
 887 0028 DBB2     		uxtb	r3, r3
 888 002a 06E0     		b	.L54
 889              	.L53:
 171:.\blob_stats.c ****     for(i = 0; i < NUMBER_OF_BLOBS; i++)
 890              		.loc 1 171 0
 891 002c FB68     		ldr	r3, [r7, #12]
 892 002e 0133     		adds	r3, r3, #1
 893 0030 FB60     		str	r3, [r7, #12]
 894              	.L52:
 171:.\blob_stats.c ****     for(i = 0; i < NUMBER_OF_BLOBS; i++)
ARM GAS  C:\Users\xavieran\AppData\Local\Temp\ccObHBpH.s 			page 20


 895              		.loc 1 171 0 is_stmt 0 discriminator 1
 896 0032 FB68     		ldr	r3, [r7, #12]
 897 0034 FE2B     		cmp	r3, #254
 898 0036 EADD     		ble	.L55
 176:.\blob_stats.c ****         }
 177:.\blob_stats.c ****     }
 178:.\blob_stats.c ****     return 0;
 899              		.loc 1 178 0 is_stmt 1
 900 0038 0023     		movs	r3, #0
 901              	.L54:
 179:.\blob_stats.c **** }
 902              		.loc 1 179 0
 903 003a 1846     		mov	r0, r3
 904 003c 1437     		adds	r7, r7, #20
 905 003e BD46     		mov	sp, r7
 906              		@ sp needed
 907 0040 5DF8047B 		ldr	r7, [sp], #4
 908 0044 7047     		bx	lr
 909              	.L57:
 910 0046 00BF     		.align	2
 911              	.L56:
 912 0048 00000000 		.word	blobs
 913              		.cfi_endproc
 914              	.LFE68:
 915              		.size	size_of_biggest_colour, .-size_of_biggest_colour
 916              		.section	.text.sideways_instruction_read,"ax",%progbits
 917              		.align	2
 918              		.global	sideways_instruction_read
 919              		.thumb
 920              		.thumb_func
 921              		.type	sideways_instruction_read, %function
 922              	sideways_instruction_read:
 923              	.LFB69:
 180:.\blob_stats.c **** 
 181:.\blob_stats.c **** void sideways_instruction_read()
 182:.\blob_stats.c **** {
 924              		.loc 1 182 0
 925              		.cfi_startproc
 926              		@ args = 0, pretend = 0, frame = 64
 927              		@ frame_needed = 1, uses_anonymous_args = 0
 928              		@ link register save eliminated.
 929 0000 80B4     		push	{r7}
 930              		.cfi_def_cfa_offset 4
 931              		.cfi_offset 7, -4
 932 0002 91B0     		sub	sp, sp, #68
 933              		.cfi_def_cfa_offset 72
 934 0004 00AF     		add	r7, sp, #0
 935              		.cfi_def_cfa_register 7
 183:.\blob_stats.c ****      // 0 center, + => Blob to Right, - => Blob to Left, -1 No blobs big enough
 184:.\blob_stats.c ****     int cx, cy, i;
 185:.\blob_stats.c ****     int c[4],s[4],ind[4];
 186:.\blob_stats.c ****     for(i = 0; i < 4; i++)
 936              		.loc 1 186 0
 937 0006 0023     		movs	r3, #0
 938 0008 FB63     		str	r3, [r7, #60]
 939 000a 44E0     		b	.L59
 940              	.L60:
ARM GAS  C:\Users\xavieran\AppData\Local\Temp\ccObHBpH.s 			page 21


 187:.\blob_stats.c ****     {
 188:.\blob_stats.c ****         cx = blobs[i].x_sum/blobs[i].size;
 941              		.loc 1 188 0 discriminator 2
 942 000c 764A     		ldr	r2, .L75
 943 000e FB6B     		ldr	r3, [r7, #60]
 944 0010 1B01     		lsls	r3, r3, #4
 945 0012 1344     		add	r3, r3, r2
 946 0014 0833     		adds	r3, r3, #8
 947 0016 1A68     		ldr	r2, [r3]
 948 0018 7349     		ldr	r1, .L75
 949 001a FB6B     		ldr	r3, [r7, #60]
 950 001c 1B01     		lsls	r3, r3, #4
 951 001e 0B44     		add	r3, r3, r1
 952 0020 9B88     		ldrh	r3, [r3, #4]
 953 0022 B2FBF3F3 		udiv	r3, r2, r3
 954 0026 BB63     		str	r3, [r7, #56]
 189:.\blob_stats.c ****         cy = blobs[i].y_sum/blobs[i].size;
 955              		.loc 1 189 0 discriminator 2
 956 0028 6F4A     		ldr	r2, .L75
 957 002a FB6B     		ldr	r3, [r7, #60]
 958 002c 1B01     		lsls	r3, r3, #4
 959 002e 1344     		add	r3, r3, r2
 960 0030 0833     		adds	r3, r3, #8
 961 0032 5A68     		ldr	r2, [r3, #4]
 962 0034 6C49     		ldr	r1, .L75
 963 0036 FB6B     		ldr	r3, [r7, #60]
 964 0038 1B01     		lsls	r3, r3, #4
 965 003a 0B44     		add	r3, r3, r1
 966 003c 9B88     		ldrh	r3, [r3, #4]
 967 003e B2FBF3F3 		udiv	r3, r2, r3
 968 0042 7B63     		str	r3, [r7, #52]
 190:.\blob_stats.c ****         Camera_framebuffer[cy][cx][0] = 255;
 969              		.loc 1 190 0 discriminator 2
 970 0044 694B     		ldr	r3, .L75+4
 971 0046 7A6B     		ldr	r2, [r7, #52]
 972 0048 5821     		movs	r1, #88
 973 004a 01FB02F1 		mul	r1, r1, r2
 974 004e BA6B     		ldr	r2, [r7, #56]
 975 0050 0A44     		add	r2, r2, r1
 976 0052 FF21     		movs	r1, #255
 977 0054 03F82210 		strb	r1, [r3, r2, lsl #2]
 191:.\blob_stats.c ****         Camera_framebuffer[cy][cx][2] = 255;
 978              		.loc 1 191 0 discriminator 2
 979 0058 644A     		ldr	r2, .L75+4
 980 005a 7B6B     		ldr	r3, [r7, #52]
 981 005c 5821     		movs	r1, #88
 982 005e 01FB03F1 		mul	r1, r1, r3
 983 0062 BB6B     		ldr	r3, [r7, #56]
 984 0064 0B44     		add	r3, r3, r1
 985 0066 9B00     		lsls	r3, r3, #2
 986 0068 1344     		add	r3, r3, r2
 987 006a FF22     		movs	r2, #255
 988 006c 9A70     		strb	r2, [r3, #2]
 192:.\blob_stats.c ****         c[i] = cx;
 989              		.loc 1 192 0 discriminator 2
 990 006e FB6B     		ldr	r3, [r7, #60]
 991 0070 9B00     		lsls	r3, r3, #2
ARM GAS  C:\Users\xavieran\AppData\Local\Temp\ccObHBpH.s 			page 22


 992 0072 07F14002 		add	r2, r7, #64
 993 0076 1344     		add	r3, r3, r2
 994 0078 BA6B     		ldr	r2, [r7, #56]
 995 007a 43F81C2C 		str	r2, [r3, #-28]
 193:.\blob_stats.c ****         s[i] = 1000;
 996              		.loc 1 193 0 discriminator 2
 997 007e FB6B     		ldr	r3, [r7, #60]
 998 0080 9B00     		lsls	r3, r3, #2
 999 0082 07F14002 		add	r2, r7, #64
 1000 0086 1344     		add	r3, r3, r2
 1001 0088 4FF47A72 		mov	r2, #1000
 1002 008c 43F82C2C 		str	r2, [r3, #-44]
 186:.\blob_stats.c ****     for(i = 0; i < 4; i++)
 1003              		.loc 1 186 0 discriminator 2
 1004 0090 FB6B     		ldr	r3, [r7, #60]
 1005 0092 0133     		adds	r3, r3, #1
 1006 0094 FB63     		str	r3, [r7, #60]
 1007              	.L59:
 186:.\blob_stats.c ****     for(i = 0; i < 4; i++)
 1008              		.loc 1 186 0 is_stmt 0 discriminator 1
 1009 0096 FB6B     		ldr	r3, [r7, #60]
 1010 0098 032B     		cmp	r3, #3
 1011 009a B7DD     		ble	.L60
 194:.\blob_stats.c ****     }
 195:.\blob_stats.c ****     for(i = 0; i < 4; i++)
 1012              		.loc 1 195 0 is_stmt 1
 1013 009c 0023     		movs	r3, #0
 1014 009e FB63     		str	r3, [r7, #60]
 1015 00a0 16E0     		b	.L61
 1016              	.L63:
 196:.\blob_stats.c ****     {
 197:.\blob_stats.c ****         if(c[i] < s[0])
 1017              		.loc 1 197 0
 1018 00a2 FB6B     		ldr	r3, [r7, #60]
 1019 00a4 9B00     		lsls	r3, r3, #2
 1020 00a6 07F14002 		add	r2, r7, #64
 1021 00aa 1344     		add	r3, r3, r2
 1022 00ac 53F81C2C 		ldr	r2, [r3, #-28]
 1023 00b0 7B69     		ldr	r3, [r7, #20]
 1024 00b2 9A42     		cmp	r2, r3
 1025 00b4 09DA     		bge	.L62
 198:.\blob_stats.c ****         {
 199:.\blob_stats.c ****             ind[0] = i;
 1026              		.loc 1 199 0
 1027 00b6 FB6B     		ldr	r3, [r7, #60]
 1028 00b8 7B60     		str	r3, [r7, #4]
 200:.\blob_stats.c ****             s[0] = c[i];
 1029              		.loc 1 200 0
 1030 00ba FB6B     		ldr	r3, [r7, #60]
 1031 00bc 9B00     		lsls	r3, r3, #2
 1032 00be 07F14002 		add	r2, r7, #64
 1033 00c2 1344     		add	r3, r3, r2
 1034 00c4 53F81C3C 		ldr	r3, [r3, #-28]
 1035 00c8 7B61     		str	r3, [r7, #20]
 1036              	.L62:
 195:.\blob_stats.c ****     for(i = 0; i < 4; i++)
 1037              		.loc 1 195 0
ARM GAS  C:\Users\xavieran\AppData\Local\Temp\ccObHBpH.s 			page 23


 1038 00ca FB6B     		ldr	r3, [r7, #60]
 1039 00cc 0133     		adds	r3, r3, #1
 1040 00ce FB63     		str	r3, [r7, #60]
 1041              	.L61:
 195:.\blob_stats.c ****     for(i = 0; i < 4; i++)
 1042              		.loc 1 195 0 is_stmt 0 discriminator 1
 1043 00d0 FB6B     		ldr	r3, [r7, #60]
 1044 00d2 032B     		cmp	r3, #3
 1045 00d4 E5DD     		ble	.L63
 201:.\blob_stats.c ****         }
 202:.\blob_stats.c ****     }
 203:.\blob_stats.c ****     for(i = 0; i < 4; i++)
 1046              		.loc 1 203 0 is_stmt 1
 1047 00d6 0023     		movs	r3, #0
 1048 00d8 FB63     		str	r3, [r7, #60]
 1049 00da 20E0     		b	.L64
 1050              	.L66:
 204:.\blob_stats.c ****     {   
 205:.\blob_stats.c ****         if(c[i] > s[0] && c[i] < s[1])
 1051              		.loc 1 205 0
 1052 00dc FB6B     		ldr	r3, [r7, #60]
 1053 00de 9B00     		lsls	r3, r3, #2
 1054 00e0 07F14002 		add	r2, r7, #64
 1055 00e4 1344     		add	r3, r3, r2
 1056 00e6 53F81C2C 		ldr	r2, [r3, #-28]
 1057 00ea 7B69     		ldr	r3, [r7, #20]
 1058 00ec 9A42     		cmp	r2, r3
 1059 00ee 13DD     		ble	.L65
 1060              		.loc 1 205 0 is_stmt 0 discriminator 1
 1061 00f0 FB6B     		ldr	r3, [r7, #60]
 1062 00f2 9B00     		lsls	r3, r3, #2
 1063 00f4 07F14002 		add	r2, r7, #64
 1064 00f8 1344     		add	r3, r3, r2
 1065 00fa 53F81C2C 		ldr	r2, [r3, #-28]
 1066 00fe BB69     		ldr	r3, [r7, #24]
 1067 0100 9A42     		cmp	r2, r3
 1068 0102 09DA     		bge	.L65
 206:.\blob_stats.c ****         {
 207:.\blob_stats.c ****             ind[1] = i;
 1069              		.loc 1 207 0 is_stmt 1
 1070 0104 FB6B     		ldr	r3, [r7, #60]
 1071 0106 BB60     		str	r3, [r7, #8]
 208:.\blob_stats.c ****             s[1] = c[i];
 1072              		.loc 1 208 0
 1073 0108 FB6B     		ldr	r3, [r7, #60]
 1074 010a 9B00     		lsls	r3, r3, #2
 1075 010c 07F14002 		add	r2, r7, #64
 1076 0110 1344     		add	r3, r3, r2
 1077 0112 53F81C3C 		ldr	r3, [r3, #-28]
 1078 0116 BB61     		str	r3, [r7, #24]
 1079              	.L65:
 203:.\blob_stats.c ****     for(i = 0; i < 4; i++)
 1080              		.loc 1 203 0
 1081 0118 FB6B     		ldr	r3, [r7, #60]
 1082 011a 0133     		adds	r3, r3, #1
 1083 011c FB63     		str	r3, [r7, #60]
 1084              	.L64:
ARM GAS  C:\Users\xavieran\AppData\Local\Temp\ccObHBpH.s 			page 24


 203:.\blob_stats.c ****     for(i = 0; i < 4; i++)
 1085              		.loc 1 203 0 is_stmt 0 discriminator 1
 1086 011e FB6B     		ldr	r3, [r7, #60]
 1087 0120 032B     		cmp	r3, #3
 1088 0122 DBDD     		ble	.L66
 209:.\blob_stats.c ****         }
 210:.\blob_stats.c ****     }
 211:.\blob_stats.c ****     for(i = 0; i < 4; i++)
 1089              		.loc 1 211 0 is_stmt 1
 1090 0124 0023     		movs	r3, #0
 1091 0126 FB63     		str	r3, [r7, #60]
 1092 0128 20E0     		b	.L67
 1093              	.L69:
 212:.\blob_stats.c ****     {
 213:.\blob_stats.c ****         if(c[i] > s[1] && c[i] < s[2])
 1094              		.loc 1 213 0
 1095 012a FB6B     		ldr	r3, [r7, #60]
 1096 012c 9B00     		lsls	r3, r3, #2
 1097 012e 07F14002 		add	r2, r7, #64
 1098 0132 1344     		add	r3, r3, r2
 1099 0134 53F81C2C 		ldr	r2, [r3, #-28]
 1100 0138 BB69     		ldr	r3, [r7, #24]
 1101 013a 9A42     		cmp	r2, r3
 1102 013c 13DD     		ble	.L68
 1103              		.loc 1 213 0 is_stmt 0 discriminator 1
 1104 013e FB6B     		ldr	r3, [r7, #60]
 1105 0140 9B00     		lsls	r3, r3, #2
 1106 0142 07F14002 		add	r2, r7, #64
 1107 0146 1344     		add	r3, r3, r2
 1108 0148 53F81C2C 		ldr	r2, [r3, #-28]
 1109 014c FB69     		ldr	r3, [r7, #28]
 1110 014e 9A42     		cmp	r2, r3
 1111 0150 09DA     		bge	.L68
 214:.\blob_stats.c ****         {
 215:.\blob_stats.c ****             ind[2] = i;
 1112              		.loc 1 215 0 is_stmt 1
 1113 0152 FB6B     		ldr	r3, [r7, #60]
 1114 0154 FB60     		str	r3, [r7, #12]
 216:.\blob_stats.c ****             s[2] = c[i];
 1115              		.loc 1 216 0
 1116 0156 FB6B     		ldr	r3, [r7, #60]
 1117 0158 9B00     		lsls	r3, r3, #2
 1118 015a 07F14002 		add	r2, r7, #64
 1119 015e 1344     		add	r3, r3, r2
 1120 0160 53F81C3C 		ldr	r3, [r3, #-28]
 1121 0164 FB61     		str	r3, [r7, #28]
 1122              	.L68:
 211:.\blob_stats.c ****     for(i = 0; i < 4; i++)
 1123              		.loc 1 211 0
 1124 0166 FB6B     		ldr	r3, [r7, #60]
 1125 0168 0133     		adds	r3, r3, #1
 1126 016a FB63     		str	r3, [r7, #60]
 1127              	.L67:
 211:.\blob_stats.c ****     for(i = 0; i < 4; i++)
 1128              		.loc 1 211 0 is_stmt 0 discriminator 1
 1129 016c FB6B     		ldr	r3, [r7, #60]
 1130 016e 032B     		cmp	r3, #3
ARM GAS  C:\Users\xavieran\AppData\Local\Temp\ccObHBpH.s 			page 25


 1131 0170 DBDD     		ble	.L69
 217:.\blob_stats.c ****         }
 218:.\blob_stats.c ****     }
 219:.\blob_stats.c ****     for(i = 0; i < 4; i++)
 1132              		.loc 1 219 0 is_stmt 1
 1133 0172 0023     		movs	r3, #0
 1134 0174 FB63     		str	r3, [r7, #60]
 1135 0176 16E0     		b	.L70
 1136              	.L72:
 220:.\blob_stats.c ****     {
 221:.\blob_stats.c ****         if(c[i] > s[2])
 1137              		.loc 1 221 0
 1138 0178 FB6B     		ldr	r3, [r7, #60]
 1139 017a 9B00     		lsls	r3, r3, #2
 1140 017c 07F14002 		add	r2, r7, #64
 1141 0180 1344     		add	r3, r3, r2
 1142 0182 53F81C2C 		ldr	r2, [r3, #-28]
 1143 0186 FB69     		ldr	r3, [r7, #28]
 1144 0188 9A42     		cmp	r2, r3
 1145 018a 09DD     		ble	.L71
 222:.\blob_stats.c ****         {
 223:.\blob_stats.c ****             ind[3] = i;
 1146              		.loc 1 223 0
 1147 018c FB6B     		ldr	r3, [r7, #60]
 1148 018e 3B61     		str	r3, [r7, #16]
 224:.\blob_stats.c ****             s[2] = c[i];
 1149              		.loc 1 224 0
 1150 0190 FB6B     		ldr	r3, [r7, #60]
 1151 0192 9B00     		lsls	r3, r3, #2
 1152 0194 07F14002 		add	r2, r7, #64
 1153 0198 1344     		add	r3, r3, r2
 1154 019a 53F81C3C 		ldr	r3, [r3, #-28]
 1155 019e FB61     		str	r3, [r7, #28]
 1156              	.L71:
 219:.\blob_stats.c ****     for(i = 0; i < 4; i++)
 1157              		.loc 1 219 0
 1158 01a0 FB6B     		ldr	r3, [r7, #60]
 1159 01a2 0133     		adds	r3, r3, #1
 1160 01a4 FB63     		str	r3, [r7, #60]
 1161              	.L70:
 219:.\blob_stats.c ****     for(i = 0; i < 4; i++)
 1162              		.loc 1 219 0 is_stmt 0 discriminator 1
 1163 01a6 FB6B     		ldr	r3, [r7, #60]
 1164 01a8 032B     		cmp	r3, #3
 1165 01aa E5DD     		ble	.L72
 225:.\blob_stats.c ****         }
 226:.\blob_stats.c ****     }
 227:.\blob_stats.c ****     for(i = 0; i < 4; i++)
 1166              		.loc 1 227 0 is_stmt 1
 1167 01ac 0023     		movs	r3, #0
 1168 01ae FB63     		str	r3, [r7, #60]
 1169 01b0 11E0     		b	.L73
 1170              	.L74:
 228:.\blob_stats.c ****     {
 229:.\blob_stats.c ****         stack[i] = blobs[ind[i]].colour;
 1171              		.loc 1 229 0 discriminator 2
 1172 01b2 FB6B     		ldr	r3, [r7, #60]
ARM GAS  C:\Users\xavieran\AppData\Local\Temp\ccObHBpH.s 			page 26


 1173 01b4 9B00     		lsls	r3, r3, #2
 1174 01b6 07F14002 		add	r2, r7, #64
 1175 01ba 1344     		add	r3, r3, r2
 1176 01bc 53F83C3C 		ldr	r3, [r3, #-60]
 1177 01c0 094A     		ldr	r2, .L75
 1178 01c2 1B01     		lsls	r3, r3, #4
 1179 01c4 1344     		add	r3, r3, r2
 1180 01c6 1968     		ldr	r1, [r3]
 1181 01c8 094B     		ldr	r3, .L75+8
 1182 01ca FA6B     		ldr	r2, [r7, #60]
 1183 01cc 43F82210 		str	r1, [r3, r2, lsl #2]
 227:.\blob_stats.c ****     for(i = 0; i < 4; i++)
 1184              		.loc 1 227 0 discriminator 2
 1185 01d0 FB6B     		ldr	r3, [r7, #60]
 1186 01d2 0133     		adds	r3, r3, #1
 1187 01d4 FB63     		str	r3, [r7, #60]
 1188              	.L73:
 227:.\blob_stats.c ****     for(i = 0; i < 4; i++)
 1189              		.loc 1 227 0 is_stmt 0 discriminator 1
 1190 01d6 FB6B     		ldr	r3, [r7, #60]
 1191 01d8 032B     		cmp	r3, #3
 1192 01da EADD     		ble	.L74
 230:.\blob_stats.c ****     }
 231:.\blob_stats.c **** }...
 1193              		.loc 1 231 0 is_stmt 1
 1194 01dc 4437     		adds	r7, r7, #68
 1195 01de BD46     		mov	sp, r7
 1196              		@ sp needed
 1197 01e0 5DF8047B 		ldr	r7, [sp], #4
 1198 01e4 7047     		bx	lr
 1199              	.L76:
 1200 01e6 00BF     		.align	2
 1201              	.L75:
 1202 01e8 00000000 		.word	blobs
 1203 01ec 00000000 		.word	Camera_framebuffer
 1204 01f0 00000000 		.word	stack
 1205              		.cfi_endproc
 1206              	.LFE69:
 1207              		.size	sideways_instruction_read, .-sideways_instruction_read
 1208              		.text
 1209              	.Letext0:
 1210              		.file 2 "c:\\program files (x86)\\cypress\\psoc creator\\3.2\\psoc creator\\import\\gnu\\arm\\4.8.
 1211              		.file 3 "c:\\program files (x86)\\cypress\\psoc creator\\3.2\\psoc creator\\import\\gnu\\arm\\4.8.
 1212              		.file 4 "Generated_Source\\PSoC5/cytypes.h"
 1213              		.file 5 "Generated_Source\\PSoC5/core_cm3.h"
 1214              		.file 6 "Generated_Source\\PSoC5/Camera.h"
 1215              		.file 7 "./my_camera_functions.h"