ARM GAS  C:\Users\xavieran\AppData\Local\Temp\ccuR4odA.s 			page 1


   1              		.syntax unified
   2              		.cpu cortex-m3
   3              		.fpu softvfp
   4              		.eabi_attribute 20, 1
   5              		.eabi_attribute 21, 1
   6              		.eabi_attribute 23, 3
   7              		.eabi_attribute 24, 1
   8              		.eabi_attribute 25, 1
   9              		.eabi_attribute 26, 1
  10              		.eabi_attribute 30, 6
  11              		.eabi_attribute 34, 1
  12              		.eabi_attribute 18, 4
  13              		.thumb
  14              		.file	"Camera.c"
  15              		.text
  16              	.Ltext0:
  17              		.cfi_sections	.debug_frame
  18              		.comm	Camera_framebuffer,50688,4
  19              		.bss
  20              	DMA_channel:
  21 0000 00       		.space	1
  22 0001 000000   		.align	2
  23              	DMA_TD:
  24 0004 00000000 		.space	16
  24      00000000 
  24      00000000 
  24      00000000 
  25              		.section	.text.Camera_WriteReg,"ax",%progbits
  26              		.align	2
  27              		.global	Camera_WriteReg
  28              		.thumb
  29              		.thumb_func
  30              		.type	Camera_WriteReg, %function
  31              	Camera_WriteReg:
  32              	.LFB63:
  33              		.file 1 ".\\Generated_Source\\PSoC5\\Camera.c"
   1:.\Generated_Source\PSoC5/Camera.c **** #include "Camera.h"
   2:.\Generated_Source\PSoC5/Camera.c **** 
   3:.\Generated_Source\PSoC5/Camera.c **** extern const uint8 Camera_settings[][2];
   4:.\Generated_Source\PSoC5/Camera.c **** extern const uint8 Camera_format[];
   5:.\Generated_Source\PSoC5/Camera.c **** extern const uint8 Camera_sxga[];
   6:.\Generated_Source\PSoC5/Camera.c **** extern const uint8 Camera_vga[];
   7:.\Generated_Source\PSoC5/Camera.c **** extern const uint8 Camera_qvga[];
   8:.\Generated_Source\PSoC5/Camera.c **** extern const uint8 Camera_cif[];
   9:.\Generated_Source\PSoC5/Camera.c **** extern const uint8 Camera_qcif[];
  10:.\Generated_Source\PSoC5/Camera.c **** 
  11:.\Generated_Source\PSoC5/Camera.c **** #define N_BUFFERS 16
  12:.\Generated_Source\PSoC5/Camera.c **** #define BUFFER_SIZE 3168
  13:.\Generated_Source\PSoC5/Camera.c **** static uint8 DMA_channel;
  14:.\Generated_Source\PSoC5/Camera.c **** static uint8 DMA_TD[N_BUFFERS];
  15:.\Generated_Source\PSoC5/Camera.c **** 
  16:.\Generated_Source\PSoC5/Camera.c **** void Camera_WriteReg(const uint8 reg,const uint8 value)
  17:.\Generated_Source\PSoC5/Camera.c **** {
  34              		.loc 1 17 0
  35              		.cfi_startproc
  36              		@ args = 0, pretend = 0, frame = 8
  37              		@ frame_needed = 1, uses_anonymous_args = 0
ARM GAS  C:\Users\xavieran\AppData\Local\Temp\ccuR4odA.s 			page 2


  38 0000 80B5     		push	{r7, lr}
  39              		.cfi_def_cfa_offset 8
  40              		.cfi_offset 7, -8
  41              		.cfi_offset 14, -4
  42 0002 82B0     		sub	sp, sp, #8
  43              		.cfi_def_cfa_offset 16
  44 0004 00AF     		add	r7, sp, #0
  45              		.cfi_def_cfa_register 7
  46 0006 0246     		mov	r2, r0
  47 0008 0B46     		mov	r3, r1
  48 000a FA71     		strb	r2, [r7, #7]
  49 000c BB71     		strb	r3, [r7, #6]
  18:.\Generated_Source\PSoC5/Camera.c **** 	while(Camera_I2C_MasterSendStart(0x30,0)!=Camera_I2C_MSTR_NO_ERROR);
  50              		.loc 1 18 0
  51 000e 00BF     		nop
  52              	.L2:
  53              		.loc 1 18 0 is_stmt 0 discriminator 1
  54 0010 3020     		movs	r0, #48
  55 0012 0021     		movs	r1, #0
  56 0014 FFF7FEFF 		bl	Camera_I2C_MasterSendStart
  57 0018 0346     		mov	r3, r0
  58 001a 002B     		cmp	r3, #0
  59 001c F8D1     		bne	.L2
  19:.\Generated_Source\PSoC5/Camera.c ****     Camera_I2C_MasterWriteByte(reg);
  60              		.loc 1 19 0 is_stmt 1
  61 001e FB79     		ldrb	r3, [r7, #7]	@ zero_extendqisi2
  62 0020 1846     		mov	r0, r3
  63 0022 FFF7FEFF 		bl	Camera_I2C_MasterWriteByte
  20:.\Generated_Source\PSoC5/Camera.c ****     Camera_I2C_MasterWriteByte(value);
  64              		.loc 1 20 0
  65 0026 BB79     		ldrb	r3, [r7, #6]	@ zero_extendqisi2
  66 0028 1846     		mov	r0, r3
  67 002a FFF7FEFF 		bl	Camera_I2C_MasterWriteByte
  21:.\Generated_Source\PSoC5/Camera.c ****     Camera_I2C_MasterSendStop();
  68              		.loc 1 21 0
  69 002e FFF7FEFF 		bl	Camera_I2C_MasterSendStop
  22:.\Generated_Source\PSoC5/Camera.c **** }
  70              		.loc 1 22 0
  71 0032 0837     		adds	r7, r7, #8
  72 0034 BD46     		mov	sp, r7
  73              		@ sp needed
  74 0036 80BD     		pop	{r7, pc}
  75              		.cfi_endproc
  76              	.LFE63:
  77              		.size	Camera_WriteReg, .-Camera_WriteReg
  78              		.section	.text.Camera_ReadReg,"ax",%progbits
  79              		.align	2
  80              		.global	Camera_ReadReg
  81              		.thumb
  82              		.thumb_func
  83              		.type	Camera_ReadReg, %function
  84              	Camera_ReadReg:
  85              	.LFB64:
  23:.\Generated_Source\PSoC5/Camera.c **** 
  24:.\Generated_Source\PSoC5/Camera.c **** uint8 Camera_ReadReg(const uint8 reg)
  25:.\Generated_Source\PSoC5/Camera.c **** {
  86              		.loc 1 25 0
ARM GAS  C:\Users\xavieran\AppData\Local\Temp\ccuR4odA.s 			page 3


  87              		.cfi_startproc
  88              		@ args = 0, pretend = 0, frame = 16
  89              		@ frame_needed = 1, uses_anonymous_args = 0
  90 0000 80B5     		push	{r7, lr}
  91              		.cfi_def_cfa_offset 8
  92              		.cfi_offset 7, -8
  93              		.cfi_offset 14, -4
  94 0002 84B0     		sub	sp, sp, #16
  95              		.cfi_def_cfa_offset 24
  96 0004 00AF     		add	r7, sp, #0
  97              		.cfi_def_cfa_register 7
  98 0006 0346     		mov	r3, r0
  99 0008 FB71     		strb	r3, [r7, #7]
  26:.\Generated_Source\PSoC5/Camera.c **** 	while(Camera_I2C_MasterSendStart(0x30,0)!=Camera_I2C_MSTR_NO_ERROR);
 100              		.loc 1 26 0
 101 000a 00BF     		nop
 102              	.L4:
 103              		.loc 1 26 0 is_stmt 0 discriminator 1
 104 000c 3020     		movs	r0, #48
 105 000e 0021     		movs	r1, #0
 106 0010 FFF7FEFF 		bl	Camera_I2C_MasterSendStart
 107 0014 0346     		mov	r3, r0
 108 0016 002B     		cmp	r3, #0
 109 0018 F8D1     		bne	.L4
  27:.\Generated_Source\PSoC5/Camera.c ****     Camera_I2C_MasterWriteByte(reg);
 110              		.loc 1 27 0 is_stmt 1
 111 001a FB79     		ldrb	r3, [r7, #7]	@ zero_extendqisi2
 112 001c 1846     		mov	r0, r3
 113 001e FFF7FEFF 		bl	Camera_I2C_MasterWriteByte
  28:.\Generated_Source\PSoC5/Camera.c ****     Camera_I2C_MasterSendStop();
 114              		.loc 1 28 0
 115 0022 FFF7FEFF 		bl	Camera_I2C_MasterSendStop
  29:.\Generated_Source\PSoC5/Camera.c **** 	
  30:.\Generated_Source\PSoC5/Camera.c **** 	while(Camera_I2C_MasterSendStart(0x30,1)!=Camera_I2C_MSTR_NO_ERROR);
 116              		.loc 1 30 0
 117 0026 00BF     		nop
 118              	.L5:
 119              		.loc 1 30 0 is_stmt 0 discriminator 1
 120 0028 3020     		movs	r0, #48
 121 002a 0121     		movs	r1, #1
 122 002c FFF7FEFF 		bl	Camera_I2C_MasterSendStart
 123 0030 0346     		mov	r3, r0
 124 0032 002B     		cmp	r3, #0
 125 0034 F8D1     		bne	.L5
  31:.\Generated_Source\PSoC5/Camera.c ****     uint8 value=Camera_I2C_MasterReadByte(Camera_I2C_NAK_DATA);
 126              		.loc 1 31 0 is_stmt 1
 127 0036 0020     		movs	r0, #0
 128 0038 FFF7FEFF 		bl	Camera_I2C_MasterReadByte
 129 003c 0346     		mov	r3, r0
 130 003e FB73     		strb	r3, [r7, #15]
  32:.\Generated_Source\PSoC5/Camera.c ****     Camera_I2C_MasterSendStop();
 131              		.loc 1 32 0
 132 0040 FFF7FEFF 		bl	Camera_I2C_MasterSendStop
  33:.\Generated_Source\PSoC5/Camera.c **** 	return value;
 133              		.loc 1 33 0
 134 0044 FB7B     		ldrb	r3, [r7, #15]	@ zero_extendqisi2
  34:.\Generated_Source\PSoC5/Camera.c **** }
ARM GAS  C:\Users\xavieran\AppData\Local\Temp\ccuR4odA.s 			page 4


 135              		.loc 1 34 0
 136 0046 1846     		mov	r0, r3
 137 0048 1037     		adds	r7, r7, #16
 138 004a BD46     		mov	sp, r7
 139              		@ sp needed
 140 004c 80BD     		pop	{r7, pc}
 141              		.cfi_endproc
 142              	.LFE64:
 143              		.size	Camera_ReadReg, .-Camera_ReadReg
 144 004e 00BF     		.section	.text.Camera_SyncFrame,"ax",%progbits
 145              		.align	2
 146              		.global	Camera_SyncFrame
 147              		.thumb
 148              		.thumb_func
 149              		.type	Camera_SyncFrame, %function
 150              	Camera_SyncFrame:
 151              	.LFB65:
  35:.\Generated_Source\PSoC5/Camera.c **** 
  36:.\Generated_Source\PSoC5/Camera.c **** void Camera_SyncFrame()
  37:.\Generated_Source\PSoC5/Camera.c **** {
 152              		.loc 1 37 0
 153              		.cfi_startproc
 154              		@ args = 0, pretend = 0, frame = 0
 155              		@ frame_needed = 1, uses_anonymous_args = 0
 156 0000 80B5     		push	{r7, lr}
 157              		.cfi_def_cfa_offset 8
 158              		.cfi_offset 7, -8
 159              		.cfi_offset 14, -4
 160 0002 00AF     		add	r7, sp, #0
 161              		.cfi_def_cfa_register 7
  38:.\Generated_Source\PSoC5/Camera.c **** 	while(Camera_VSYNC_Read());
 162              		.loc 1 38 0
 163 0004 00BF     		nop
 164              	.L8:
 165              		.loc 1 38 0 is_stmt 0 discriminator 1
 166 0006 FFF7FEFF 		bl	Camera_VSYNC_Read
 167 000a 0346     		mov	r3, r0
 168 000c 002B     		cmp	r3, #0
 169 000e FAD1     		bne	.L8
  39:.\Generated_Source\PSoC5/Camera.c **** 	while(!Camera_VSYNC_Read());
 170              		.loc 1 39 0 is_stmt 1
 171 0010 00BF     		nop
 172              	.L9:
 173              		.loc 1 39 0 is_stmt 0 discriminator 1
 174 0012 FFF7FEFF 		bl	Camera_VSYNC_Read
 175 0016 0346     		mov	r3, r0
 176 0018 002B     		cmp	r3, #0
 177 001a FAD0     		beq	.L9
  40:.\Generated_Source\PSoC5/Camera.c **** }
 178              		.loc 1 40 0 is_stmt 1
 179 001c 80BD     		pop	{r7, pc}
 180              		.cfi_endproc
 181              	.LFE65:
 182              		.size	Camera_SyncFrame, .-Camera_SyncFrame
 183 001e 00BF     		.section	.text.Camera_Start,"ax",%progbits
 184              		.align	2
 185              		.global	Camera_Start
ARM GAS  C:\Users\xavieran\AppData\Local\Temp\ccuR4odA.s 			page 5


 186              		.thumb
 187              		.thumb_func
 188              		.type	Camera_Start, %function
 189              	Camera_Start:
 190              	.LFB66:
  41:.\Generated_Source\PSoC5/Camera.c **** 
  42:.\Generated_Source\PSoC5/Camera.c **** void Camera_Start()
  43:.\Generated_Source\PSoC5/Camera.c **** {
 191              		.loc 1 43 0
 192              		.cfi_startproc
 193              		@ args = 0, pretend = 0, frame = 8
 194              		@ frame_needed = 1, uses_anonymous_args = 0
 195 0000 90B5     		push	{r4, r7, lr}
 196              		.cfi_def_cfa_offset 12
 197              		.cfi_offset 4, -12
 198              		.cfi_offset 7, -8
 199              		.cfi_offset 14, -4
 200 0002 83B0     		sub	sp, sp, #12
 201              		.cfi_def_cfa_offset 24
 202 0004 00AF     		add	r7, sp, #0
 203              		.cfi_def_cfa_register 7
  44:.\Generated_Source\PSoC5/Camera.c **** 	Camera_SIOD_SetDriveMode(Camera_SIOD_DM_RES_UP); //turn on pull-up resistors on I2C pins
 204              		.loc 1 44 0
 205 0006 0420     		movs	r0, #4
 206 0008 FFF7FEFF 		bl	Camera_SIOD_SetDriveMode
  45:.\Generated_Source\PSoC5/Camera.c **** 	Camera_SIOC_SetDriveMode(Camera_SIOC_DM_RES_UP);
 207              		.loc 1 45 0
 208 000c 0420     		movs	r0, #4
 209 000e FFF7FEFF 		bl	Camera_SIOC_SetDriveMode
  46:.\Generated_Source\PSoC5/Camera.c **** 	Camera_I2C_Start();
 210              		.loc 1 46 0
 211 0012 FFF7FEFF 		bl	Camera_I2C_Start
  47:.\Generated_Source\PSoC5/Camera.c **** 	
  48:.\Generated_Source\PSoC5/Camera.c **** 	Camera_WriteReg(0x12,0x80); //reset
 212              		.loc 1 48 0
 213 0016 1220     		movs	r0, #18
 214 0018 8021     		movs	r1, #128
 215 001a FFF7FEFF 		bl	Camera_WriteReg
  49:.\Generated_Source\PSoC5/Camera.c **** 	CyDelay(1);
 216              		.loc 1 49 0
 217 001e 0120     		movs	r0, #1
 218 0020 FFF7FEFF 		bl	CyDelay
  50:.\Generated_Source\PSoC5/Camera.c **** 	uint16 i;
  51:.\Generated_Source\PSoC5/Camera.c **** 	for(i=0;Camera_settings[i][0]!=0xff;i++) Camera_WriteReg(Camera_settings[i][0],Camera_settings[i][
 219              		.loc 1 51 0
 220 0024 0023     		movs	r3, #0
 221 0026 FB80     		strh	r3, [r7, #6]	@ movhi
 222 0028 0FE0     		b	.L11
 223              	.L12:
 224              		.loc 1 51 0 is_stmt 0 discriminator 2
 225 002a FA88     		ldrh	r2, [r7, #6]
 226 002c 394B     		ldr	r3, .L18
 227 002e 13F81220 		ldrb	r2, [r3, r2, lsl #1]	@ zero_extendqisi2
 228 0032 FB88     		ldrh	r3, [r7, #6]
 229 0034 3749     		ldr	r1, .L18
 230 0036 5B00     		lsls	r3, r3, #1
 231 0038 0B44     		add	r3, r3, r1
ARM GAS  C:\Users\xavieran\AppData\Local\Temp\ccuR4odA.s 			page 6


 232 003a 5B78     		ldrb	r3, [r3, #1]	@ zero_extendqisi2
 233 003c 1046     		mov	r0, r2
 234 003e 1946     		mov	r1, r3
 235 0040 FFF7FEFF 		bl	Camera_WriteReg
 236 0044 FB88     		ldrh	r3, [r7, #6]
 237 0046 0133     		adds	r3, r3, #1
 238 0048 FB80     		strh	r3, [r7, #6]	@ movhi
 239              	.L11:
 240              		.loc 1 51 0 discriminator 1
 241 004a FA88     		ldrh	r2, [r7, #6]
 242 004c 314B     		ldr	r3, .L18
 243 004e 13F81230 		ldrb	r3, [r3, r2, lsl #1]	@ zero_extendqisi2
 244 0052 FF2B     		cmp	r3, #255
 245 0054 E9D1     		bne	.L12
  52:.\Generated_Source\PSoC5/Camera.c **** 	for(i=0;Camera_format[i]!=0xff;i++) Camera_WriteReg(Camera_format[i],Camera_qcif[i]); //qcif forma
 246              		.loc 1 52 0 is_stmt 1
 247 0056 0023     		movs	r3, #0
 248 0058 FB80     		strh	r3, [r7, #6]	@ movhi
 249 005a 0CE0     		b	.L13
 250              	.L14:
 251              		.loc 1 52 0 is_stmt 0 discriminator 2
 252 005c FB88     		ldrh	r3, [r7, #6]
 253 005e 2E4A     		ldr	r2, .L18+4
 254 0060 D25C     		ldrb	r2, [r2, r3]	@ zero_extendqisi2
 255 0062 FB88     		ldrh	r3, [r7, #6]
 256 0064 2D49     		ldr	r1, .L18+8
 257 0066 CB5C     		ldrb	r3, [r1, r3]	@ zero_extendqisi2
 258 0068 1046     		mov	r0, r2
 259 006a 1946     		mov	r1, r3
 260 006c FFF7FEFF 		bl	Camera_WriteReg
 261 0070 FB88     		ldrh	r3, [r7, #6]
 262 0072 0133     		adds	r3, r3, #1
 263 0074 FB80     		strh	r3, [r7, #6]	@ movhi
 264              	.L13:
 265              		.loc 1 52 0 discriminator 1
 266 0076 FB88     		ldrh	r3, [r7, #6]
 267 0078 274A     		ldr	r2, .L18+4
 268 007a D35C     		ldrb	r3, [r2, r3]	@ zero_extendqisi2
 269 007c FF2B     		cmp	r3, #255
 270 007e EDD1     		bne	.L14
  53:.\Generated_Source\PSoC5/Camera.c **** 	
  54:.\Generated_Source\PSoC5/Camera.c **** 	uint8 (*buffer)[BUFFER_SIZE]=(uint8(*)[BUFFER_SIZE])Camera_framebuffer; //recast buffer for easier
 271              		.loc 1 54 0 is_stmt 1
 272 0080 274B     		ldr	r3, .L18+12
 273 0082 3B60     		str	r3, [r7]
  55:.\Generated_Source\PSoC5/Camera.c **** 	DMA_channel=Camera_DMA_DmaInitialize(1,1,HI16(CYDEV_PERIPH_BASE),HI16(CYDEV_SRAM_BASE)); //periphe
 274              		.loc 1 55 0
 275 0084 0120     		movs	r0, #1
 276 0086 0121     		movs	r1, #1
 277 0088 4FF48042 		mov	r2, #16384
 278 008c 41F6FF73 		movw	r3, #8191
 279 0090 FFF7FEFF 		bl	Camera_DMA_DmaInitialize
 280 0094 0346     		mov	r3, r0
 281 0096 1A46     		mov	r2, r3
 282 0098 224B     		ldr	r3, .L18+16
 283 009a 1A70     		strb	r2, [r3]
  56:.\Generated_Source\PSoC5/Camera.c **** 	for(i=0;i<sizeof DMA_TD;i++) //set up TDs
ARM GAS  C:\Users\xavieran\AppData\Local\Temp\ccuR4odA.s 			page 7


 284              		.loc 1 56 0
 285 009c 0023     		movs	r3, #0
 286 009e FB80     		strh	r3, [r7, #6]	@ movhi
 287 00a0 2BE0     		b	.L15
 288              	.L17:
  57:.\Generated_Source\PSoC5/Camera.c **** 	{
  58:.\Generated_Source\PSoC5/Camera.c **** 		DMA_TD[i]=CyDmaTdAllocate();
 289              		.loc 1 58 0
 290 00a2 FC88     		ldrh	r4, [r7, #6]
 291 00a4 FFF7FEFF 		bl	CyDmaTdAllocate
 292 00a8 0346     		mov	r3, r0
 293 00aa 1A46     		mov	r2, r3
 294 00ac 1E4B     		ldr	r3, .L18+20
 295 00ae 1A55     		strb	r2, [r3, r4]
  59:.\Generated_Source\PSoC5/Camera.c **** 		CyDmaTdSetAddress(DMA_TD[i],LO16(Camera_FIFO_dp__F0_REG),LO16((uint32)buffer[i]));
 296              		.loc 1 59 0
 297 00b0 FB88     		ldrh	r3, [r7, #6]
 298 00b2 1D4A     		ldr	r2, .L18+20
 299 00b4 D25C     		ldrb	r2, [r2, r3]	@ zero_extendqisi2
 300 00b6 FB88     		ldrh	r3, [r7, #6]
 301 00b8 4FF44661 		mov	r1, #3168
 302 00bc 01FB03F3 		mul	r3, r1, r3
 303 00c0 3968     		ldr	r1, [r7]
 304 00c2 0B44     		add	r3, r3, r1
 305 00c4 9BB2     		uxth	r3, r3
 306 00c6 1046     		mov	r0, r2
 307 00c8 46F24E41 		movw	r1, #25678
 308 00cc 1A46     		mov	r2, r3
 309 00ce FFF7FEFF 		bl	CyDmaTdSetAddress
  60:.\Generated_Source\PSoC5/Camera.c **** 		if(i) CyDmaTdSetConfiguration(DMA_TD[i-1],BUFFER_SIZE,DMA_TD[i],TD_INC_DST_ADR);
 310              		.loc 1 60 0
 311 00d2 FB88     		ldrh	r3, [r7, #6]
 312 00d4 002B     		cmp	r3, #0
 313 00d6 0DD0     		beq	.L16
 314              		.loc 1 60 0 is_stmt 0 discriminator 1
 315 00d8 FB88     		ldrh	r3, [r7, #6]
 316 00da 013B     		subs	r3, r3, #1
 317 00dc 124A     		ldr	r2, .L18+20
 318 00de D25C     		ldrb	r2, [r2, r3]	@ zero_extendqisi2
 319 00e0 FB88     		ldrh	r3, [r7, #6]
 320 00e2 1149     		ldr	r1, .L18+20
 321 00e4 CB5C     		ldrb	r3, [r1, r3]	@ zero_extendqisi2
 322 00e6 1046     		mov	r0, r2
 323 00e8 4FF44661 		mov	r1, #3168
 324 00ec 1A46     		mov	r2, r3
 325 00ee 0223     		movs	r3, #2
 326 00f0 FFF7FEFF 		bl	CyDmaTdSetConfiguration
 327              	.L16:
  56:.\Generated_Source\PSoC5/Camera.c **** 	for(i=0;i<sizeof DMA_TD;i++) //set up TDs
 328              		.loc 1 56 0 is_stmt 1
 329 00f4 FB88     		ldrh	r3, [r7, #6]
 330 00f6 0133     		adds	r3, r3, #1
 331 00f8 FB80     		strh	r3, [r7, #6]	@ movhi
 332              	.L15:
  56:.\Generated_Source\PSoC5/Camera.c **** 	for(i=0;i<sizeof DMA_TD;i++) //set up TDs
 333              		.loc 1 56 0 is_stmt 0 discriminator 1
 334 00fa FB88     		ldrh	r3, [r7, #6]
ARM GAS  C:\Users\xavieran\AppData\Local\Temp\ccuR4odA.s 			page 8


 335 00fc 0F2B     		cmp	r3, #15
 336 00fe D0D9     		bls	.L17
  61:.\Generated_Source\PSoC5/Camera.c **** 	}
  62:.\Generated_Source\PSoC5/Camera.c **** 	CyDmaChPriority(DMA_channel,0); //ensure highest priority for DMA channel
 337              		.loc 1 62 0 is_stmt 1
 338 0100 084B     		ldr	r3, .L18+16
 339 0102 1B78     		ldrb	r3, [r3]	@ zero_extendqisi2
 340 0104 1846     		mov	r0, r3
 341 0106 0021     		movs	r1, #0
 342 0108 FFF7FEFF 		bl	CyDmaChPriority
  63:.\Generated_Source\PSoC5/Camera.c **** }
 343              		.loc 1 63 0
 344 010c 0C37     		adds	r7, r7, #12
 345 010e BD46     		mov	sp, r7
 346              		@ sp needed
 347 0110 90BD     		pop	{r4, r7, pc}
 348              	.L19:
 349 0112 00BF     		.align	2
 350              	.L18:
 351 0114 00000000 		.word	Camera_settings
 352 0118 00000000 		.word	Camera_format
 353 011c 00000000 		.word	Camera_qcif
 354 0120 00000000 		.word	Camera_framebuffer
 355 0124 00000000 		.word	DMA_channel
 356 0128 04000000 		.word	DMA_TD
 357              		.cfi_endproc
 358              	.LFE66:
 359              		.size	Camera_Start, .-Camera_Start
 360              		.section	.text.DMA_Start,"ax",%progbits
 361              		.align	2
 362              		.thumb
 363              		.thumb_func
 364              		.type	DMA_Start, %function
 365              	DMA_Start:
 366              	.LFB67:
  64:.\Generated_Source\PSoC5/Camera.c **** 
  65:.\Generated_Source\PSoC5/Camera.c **** static void DMA_Start()
  66:.\Generated_Source\PSoC5/Camera.c **** {
 367              		.loc 1 66 0
 368              		.cfi_startproc
 369              		@ args = 0, pretend = 0, frame = 0
 370              		@ frame_needed = 1, uses_anonymous_args = 0
 371 0000 80B5     		push	{r7, lr}
 372              		.cfi_def_cfa_offset 8
 373              		.cfi_offset 7, -8
 374              		.cfi_offset 14, -4
 375 0002 00AF     		add	r7, sp, #0
 376              		.cfi_def_cfa_register 7
  67:.\Generated_Source\PSoC5/Camera.c **** 	*(reg8*)Camera_FIFO_dp__F0_REG;
 377              		.loc 1 67 0
 378 0004 0D4B     		ldr	r3, .L21
 379 0006 1B78     		ldrb	r3, [r3]
  68:.\Generated_Source\PSoC5/Camera.c **** 	*(reg8*)Camera_FIFO_dp__F0_REG;
 380              		.loc 1 68 0
 381 0008 0C4B     		ldr	r3, .L21
 382 000a 1B78     		ldrb	r3, [r3]
  69:.\Generated_Source\PSoC5/Camera.c **** 	*(reg8*)Camera_FIFO_dp__F0_REG;
ARM GAS  C:\Users\xavieran\AppData\Local\Temp\ccuR4odA.s 			page 9


 383              		.loc 1 69 0
 384 000c 0B4B     		ldr	r3, .L21
 385 000e 1B78     		ldrb	r3, [r3]
  70:.\Generated_Source\PSoC5/Camera.c **** 	*(reg8*)Camera_FIFO_dp__F0_REG; //clear fifo
 386              		.loc 1 70 0
 387 0010 0A4B     		ldr	r3, .L21
 388 0012 1B78     		ldrb	r3, [r3]
  71:.\Generated_Source\PSoC5/Camera.c **** 	CyDmaClearPendingDrq(DMA_channel); //invalidate pending requests
 389              		.loc 1 71 0
 390 0014 0A4B     		ldr	r3, .L21+4
 391 0016 1B78     		ldrb	r3, [r3]	@ zero_extendqisi2
 392 0018 1846     		mov	r0, r3
 393 001a FFF7FEFF 		bl	CyDmaClearPendingDrq
  72:.\Generated_Source\PSoC5/Camera.c **** 	CyDmaChSetInitialTd(DMA_channel,DMA_TD[0]); //set initial TD
 394              		.loc 1 72 0
 395 001e 084B     		ldr	r3, .L21+4
 396 0020 1A78     		ldrb	r2, [r3]	@ zero_extendqisi2
 397 0022 084B     		ldr	r3, .L21+8
 398 0024 1B78     		ldrb	r3, [r3]	@ zero_extendqisi2
 399 0026 1046     		mov	r0, r2
 400 0028 1946     		mov	r1, r3
 401 002a FFF7FEFF 		bl	CyDmaChSetInitialTd
  73:.\Generated_Source\PSoC5/Camera.c **** 	CyDmaChEnable(DMA_channel,1); //enable channel (start streaming)
 402              		.loc 1 73 0
 403 002e 044B     		ldr	r3, .L21+4
 404 0030 1B78     		ldrb	r3, [r3]	@ zero_extendqisi2
 405 0032 1846     		mov	r0, r3
 406 0034 0121     		movs	r1, #1
 407 0036 FFF7FEFF 		bl	CyDmaChEnable
  74:.\Generated_Source\PSoC5/Camera.c **** }
 408              		.loc 1 74 0
 409 003a 80BD     		pop	{r7, pc}
 410              	.L22:
 411              		.align	2
 412              	.L21:
 413 003c 4E640040 		.word	1073767502
 414 0040 00000000 		.word	DMA_channel
 415 0044 04000000 		.word	DMA_TD
 416              		.cfi_endproc
 417              	.LFE67:
 418              		.size	DMA_Start, .-DMA_Start
 419              		.section	.text.Camera_GetFrame,"ax",%progbits
 420              		.align	2
 421              		.global	Camera_GetFrame
 422              		.thumb
 423              		.thumb_func
 424              		.type	Camera_GetFrame, %function
 425              	Camera_GetFrame:
 426              	.LFB68:
  75:.\Generated_Source\PSoC5/Camera.c **** 
  76:.\Generated_Source\PSoC5/Camera.c **** void Camera_GetFrame()
  77:.\Generated_Source\PSoC5/Camera.c **** {
 427              		.loc 1 77 0
 428              		.cfi_startproc
 429              		@ args = 0, pretend = 0, frame = 0
 430              		@ frame_needed = 1, uses_anonymous_args = 0
 431 0000 80B5     		push	{r7, lr}
ARM GAS  C:\Users\xavieran\AppData\Local\Temp\ccuR4odA.s 			page 10


 432              		.cfi_def_cfa_offset 8
 433              		.cfi_offset 7, -8
 434              		.cfi_offset 14, -4
 435 0002 00AF     		add	r7, sp, #0
 436              		.cfi_def_cfa_register 7
  78:.\Generated_Source\PSoC5/Camera.c **** 	CyDmaTdSetConfiguration(DMA_TD[sizeof(DMA_TD)-1],BUFFER_SIZE,CY_DMA_DISABLE_TD,TD_INC_DST_ADR); //
 437              		.loc 1 78 0
 438 0004 054B     		ldr	r3, .L24
 439 0006 DB7B     		ldrb	r3, [r3, #15]	@ zero_extendqisi2
 440 0008 1846     		mov	r0, r3
 441 000a 4FF44661 		mov	r1, #3168
 442 000e FE22     		movs	r2, #254
 443 0010 0223     		movs	r3, #2
 444 0012 FFF7FEFF 		bl	CyDmaTdSetConfiguration
  79:.\Generated_Source\PSoC5/Camera.c **** 	DMA_Start();
 445              		.loc 1 79 0
 446 0016 FFF7FEFF 		bl	DMA_Start
  80:.\Generated_Source\PSoC5/Camera.c **** }
 447              		.loc 1 80 0
 448 001a 80BD     		pop	{r7, pc}
 449              	.L25:
 450              		.align	2
 451              	.L24:
 452 001c 04000000 		.word	DMA_TD
 453              		.cfi_endproc
 454              	.LFE68:
 455              		.size	Camera_GetFrame, .-Camera_GetFrame
 456              		.section	.text.Camera_Stream,"ax",%progbits
 457              		.align	2
 458              		.global	Camera_Stream
 459              		.thumb
 460              		.thumb_func
 461              		.type	Camera_Stream, %function
 462              	Camera_Stream:
 463              	.LFB69:
  81:.\Generated_Source\PSoC5/Camera.c **** 
  82:.\Generated_Source\PSoC5/Camera.c **** void Camera_Stream()
  83:.\Generated_Source\PSoC5/Camera.c **** {
 464              		.loc 1 83 0
 465              		.cfi_startproc
 466              		@ args = 0, pretend = 0, frame = 0
 467              		@ frame_needed = 1, uses_anonymous_args = 0
 468 0000 80B5     		push	{r7, lr}
 469              		.cfi_def_cfa_offset 8
 470              		.cfi_offset 7, -8
 471              		.cfi_offset 14, -4
 472 0002 00AF     		add	r7, sp, #0
 473              		.cfi_def_cfa_register 7
  84:.\Generated_Source\PSoC5/Camera.c **** 	CyDmaTdSetConfiguration(DMA_TD[sizeof(DMA_TD)-1],BUFFER_SIZE,DMA_TD[0],TD_INC_DST_ADR); //loop TDs
 474              		.loc 1 84 0
 475 0004 064B     		ldr	r3, .L27
 476 0006 DA7B     		ldrb	r2, [r3, #15]	@ zero_extendqisi2
 477 0008 054B     		ldr	r3, .L27
 478 000a 1B78     		ldrb	r3, [r3]	@ zero_extendqisi2
 479 000c 1046     		mov	r0, r2
 480 000e 4FF44661 		mov	r1, #3168
 481 0012 1A46     		mov	r2, r3
ARM GAS  C:\Users\xavieran\AppData\Local\Temp\ccuR4odA.s 			page 11


 482 0014 0223     		movs	r3, #2
 483 0016 FFF7FEFF 		bl	CyDmaTdSetConfiguration
  85:.\Generated_Source\PSoC5/Camera.c **** 	DMA_Start();
 484              		.loc 1 85 0
 485 001a FFF7FEFF 		bl	DMA_Start
  86:.\Generated_Source\PSoC5/Camera.c **** }
 486              		.loc 1 86 0
 487 001e 80BD     		pop	{r7, pc}
 488              	.L28:
 489              		.align	2
 490              	.L27:
 491 0020 04000000 		.word	DMA_TD
 492              		.cfi_endproc
 493              	.LFE69:
 494              		.size	Camera_Stream, .-Camera_Stream
 495              		.section	.text.Camera_StopStreaming,"ax",%progbits
 496              		.align	2
 497              		.global	Camera_StopStreaming
 498              		.thumb
 499              		.thumb_func
 500              		.type	Camera_StopStreaming, %function
 501              	Camera_StopStreaming:
 502              	.LFB70:
  87:.\Generated_Source\PSoC5/Camera.c **** 
  88:.\Generated_Source\PSoC5/Camera.c **** void Camera_StopStreaming()
  89:.\Generated_Source\PSoC5/Camera.c **** {
 503              		.loc 1 89 0
 504              		.cfi_startproc
 505              		@ args = 0, pretend = 0, frame = 0
 506              		@ frame_needed = 1, uses_anonymous_args = 0
 507 0000 80B5     		push	{r7, lr}
 508              		.cfi_def_cfa_offset 8
 509              		.cfi_offset 7, -8
 510              		.cfi_offset 14, -4
 511 0002 00AF     		add	r7, sp, #0
 512              		.cfi_def_cfa_register 7
  90:.\Generated_Source\PSoC5/Camera.c **** 	CyDmaChSetRequest(DMA_channel,CY_DMA_CPU_TERM_CHAIN);
 513              		.loc 1 90 0
 514 0004 034B     		ldr	r3, .L30
 515 0006 1B78     		ldrb	r3, [r3]	@ zero_extendqisi2
 516 0008 1846     		mov	r0, r3
 517 000a 0421     		movs	r1, #4
 518 000c FFF7FEFF 		bl	CyDmaChSetRequest
  91:.\Generated_Source\PSoC5/Camera.c **** }...
 519              		.loc 1 91 0
 520 0010 80BD     		pop	{r7, pc}
 521              	.L31:
 522 0012 00BF     		.align	2
 523              	.L30:
 524 0014 00000000 		.word	DMA_channel
 525              		.cfi_endproc
 526              	.LFE70:
 527              		.size	Camera_StopStreaming, .-Camera_StopStreaming
 528              		.text
 529              	.Letext0:
 530              		.file 2 "c:\\program files (x86)\\cypress\\psoc creator\\3.2\\psoc creator\\import\\gnu\\arm\\4.8.
 531              		.file 3 "c:\\program files (x86)\\cypress\\psoc creator\\3.2\\psoc creator\\import\\gnu\\arm\\4.8.
ARM GAS  C:\Users\xavieran\AppData\Local\Temp\ccuR4odA.s 			page 12


 532              		.file 4 "Generated_Source\\PSoC5/cytypes.h"
 533              		.file 5 "Generated_Source\\PSoC5/core_cm3.h"
 534              		.file 6 ".\\Generated_Source\\PSoC5\\Camera.h"