ARM GAS  C:\Users\xavieran\AppData\Local\Temp\ccsZrIMd.s 			page 1


   1              		.syntax unified
   2              		.cpu cortex-m3
   3              		.fpu softvfp
   4              		.eabi_attribute 20, 1
   5              		.eabi_attribute 21, 1
   6              		.eabi_attribute 23, 3
   7              		.eabi_attribute 24, 1
   8              		.eabi_attribute 25, 1
   9              		.eabi_attribute 26, 1
  10              		.eabi_attribute 30, 6
  11              		.eabi_attribute 34, 1
  12              		.eabi_attribute 18, 4
  13              		.thumb
  14              		.file	"compass.c"
  15              		.text
  16              	.Ltext0:
  17              		.cfi_sections	.debug_frame
  18              		.comm	Camera_framebuffer,50688,4
  19              		.comm	compass_x,2,2
  20              		.comm	compass_y,2,2
  21              		.comm	compass_z,2,2
  22              		.comm	compass_heading,2,2
  23              		.comm	compass_ready,1,1
  24              		.comm	original_compass_heading,2,2
  25              		.section	.text.DRDY_INTERRUPT,"ax",%progbits
  26              		.align	2
  27              		.global	DRDY_INTERRUPT
  28              		.thumb
  29              		.thumb_func
  30              		.type	DRDY_INTERRUPT, %function
  31              	DRDY_INTERRUPT:
  32              	.LFB63:
  33              		.file 1 ".\\compass.c"
   1:.\compass.c   **** /* ========================================
   2:.\compass.c   ****  *
   3:.\compass.c   ****  * Copyright YOUR COMPANY, THE YEAR
   4:.\compass.c   ****  * All Rights Reserved
   5:.\compass.c   ****  * UNPUBLISHED, LICENSED SOFTWARE.
   6:.\compass.c   ****  *
   7:.\compass.c   ****  * CONFIDENTIAL AND PROPRIETARY INFORMATION
   8:.\compass.c   ****  * WHICH IS THE PROPERTY OF your company.
   9:.\compass.c   ****  *
  10:.\compass.c   ****  * ========================================
  11:.\compass.c   **** */
  12:.\compass.c   **** 
  13:.\compass.c   **** /** HOW TO USE THIS MODULE **
  14:.\compass.c   ****  * 1. Start the compass with start_compass()
  15:.\compass.c   ****  * 2. Monitor the compass_ready variable, if it is true, then you
  16:.\compass.c   ****  *    can call compass_read() to refresh the compass data
  17:.\compass.c   ****  * 3. Read from compass x,y,z and heading to get the heading info
  18:.\compass.c   ****  */
  19:.\compass.c   **** 
  20:.\compass.c   **** /* Example code to put in main loop
  21:.\compass.c   **** //Read the compass when it is ready for reading
  22:.\compass.c   **** if (compass_ready){
  23:.\compass.c   ****     compass_ready = 0;
  24:.\compass.c   ****     compass_read();
ARM GAS  C:\Users\xavieran\AppData\Local\Temp\ccsZrIMd.s 			page 2


  25:.\compass.c   ****     //Access compass_x, compass_y, etc.
  26:.\compass.c   **** }
  27:.\compass.c   **** */
  28:.\compass.c   **** 
  29:.\compass.c   **** #include <project.h>
  30:.\compass.c   **** #include <compass.h>
  31:.\compass.c   **** #include <math.h>
  32:.\compass.c   **** 
  33:.\compass.c   **** int16 compass_x;
  34:.\compass.c   **** int16 compass_y;
  35:.\compass.c   **** int16 compass_z;
  36:.\compass.c   **** int16 compass_heading; //0-360 degrees
  37:.\compass.c   **** volatile uint8 compass_ready;
  38:.\compass.c   **** 
  39:.\compass.c   **** int16 original_compass_heading; //this makes our compass relative
  40:.\compass.c   **** 
  41:.\compass.c   **** // These calibration values can be found by plotting the x,y pairs
  42:.\compass.c   **** // whilst turning the compass through 360 degrees, then moving the 
  43:.\compass.c   **** // resulting circle to center on the origin
  44:.\compass.c   **** //AT HOME
  45:.\compass.c   **** //#define CALIBRATION_X -25
  46:.\compass.c   **** //#define CALIBRATION_Y 50
  47:.\compass.c   **** //AT THE LAB/ARENA
  48:.\compass.c   **** //#define CALIBRATION_X 25
  49:.\compass.c   **** //#define CALIBRATION_Y -25
  50:.\compass.c   **** #define CALIBRATION_X 10
  51:.\compass.c   **** #define CALIBRATION_Y -80
  52:.\compass.c   **** CY_ISR(DRDY_INTERRUPT){
  34              		.loc 1 52 0
  35              		.cfi_startproc
  36              		@ args = 0, pretend = 0, frame = 0
  37              		@ frame_needed = 1, uses_anonymous_args = 0
  38 0000 80B5     		push	{r7, lr}
  39              		.cfi_def_cfa_offset 8
  40              		.cfi_offset 7, -8
  41              		.cfi_offset 14, -4
  42 0002 00AF     		add	r7, sp, #0
  43              		.cfi_def_cfa_register 7
  53:.\compass.c   ****     compass_ready = 1;
  44              		.loc 1 53 0
  45 0004 024B     		ldr	r3, .L2
  46 0006 0122     		movs	r2, #1
  47 0008 1A70     		strb	r2, [r3]
  54:.\compass.c   ****     Compass_DRDY_ISR_ClearPending();
  48              		.loc 1 54 0
  49 000a FFF7FEFF 		bl	Compass_DRDY_ISR_ClearPending
  55:.\compass.c   **** }
  50              		.loc 1 55 0
  51 000e 80BD     		pop	{r7, pc}
  52              	.L3:
  53              		.align	2
  54              	.L2:
  55 0010 00000000 		.word	compass_ready
  56              		.cfi_endproc
  57              	.LFE63:
  58              		.size	DRDY_INTERRUPT, .-DRDY_INTERRUPT
  59              		.comm	SinDeg,2880,8
ARM GAS  C:\Users\xavieran\AppData\Local\Temp\ccsZrIMd.s 			page 3


  60              		.comm	CosDeg,2880,8
  61              		.global	__aeabi_i2d
  62              		.global	__aeabi_dsub
  63              		.global	__aeabi_dmul
  64              		.section	.text.calculate_circular_functions,"ax",%progbits
  65              		.align	2
  66              		.global	calculate_circular_functions
  67              		.thumb
  68              		.thumb_func
  69              		.type	calculate_circular_functions, %function
  70              	calculate_circular_functions:
  71              	.LFB64:
  56:.\compass.c   **** 
  57:.\compass.c   **** //These are lookup tables storing sin and cos values in degrees
  58:.\compass.c   **** double SinDeg[360];
  59:.\compass.c   **** double CosDeg[360];
  60:.\compass.c   **** 
  61:.\compass.c   **** void calculate_circular_functions(){
  72              		.loc 1 61 0
  73              		.cfi_startproc
  74              		@ args = 0, pretend = 0, frame = 8
  75              		@ frame_needed = 1, uses_anonymous_args = 0
  76 0000 80B5     		push	{r7, lr}
  77              		.cfi_def_cfa_offset 8
  78              		.cfi_offset 7, -8
  79              		.cfi_offset 14, -4
  80 0002 82B0     		sub	sp, sp, #8
  81              		.cfi_def_cfa_offset 16
  82 0004 00AF     		add	r7, sp, #0
  83              		.cfi_def_cfa_register 7
  62:.\compass.c   ****     int i;
  63:.\compass.c   ****     for (i = 0; i < 360; i++){
  84              		.loc 1 63 0
  85 0006 0023     		movs	r3, #0
  86 0008 7B60     		str	r3, [r7, #4]
  87 000a 48E0     		b	.L5
  88              	.L6:
  64:.\compass.c   ****         SinDeg[i] = sin((((double) i) - 180) * (M_PI / 180.0));
  89              		.loc 1 64 0 discriminator 2
  90 000c 7868     		ldr	r0, [r7, #4]
  91 000e FFF7FEFF 		bl	__aeabi_i2d
  92 0012 0246     		mov	r2, r0
  93 0014 0B46     		mov	r3, r1
  94 0016 1046     		mov	r0, r2
  95 0018 1946     		mov	r1, r3
  96 001a 4FF00002 		mov	r2, #0
  97 001e 264B     		ldr	r3, .L7+8
  98 0020 FFF7FEFF 		bl	__aeabi_dsub
  99 0024 0246     		mov	r2, r0
 100 0026 0B46     		mov	r3, r1
 101 0028 1046     		mov	r0, r2
 102 002a 1946     		mov	r1, r3
 103 002c 20A3     		adr	r3, .L7
 104 002e D3E90023 		ldrd	r2, [r3]
 105 0032 FFF7FEFF 		bl	__aeabi_dmul
 106 0036 0246     		mov	r2, r0
 107 0038 0B46     		mov	r3, r1
ARM GAS  C:\Users\xavieran\AppData\Local\Temp\ccsZrIMd.s 			page 4


 108 003a 1046     		mov	r0, r2
 109 003c 1946     		mov	r1, r3
 110 003e FFF7FEFF 		bl	sin
 111 0042 0246     		mov	r2, r0
 112 0044 0B46     		mov	r3, r1
 113 0046 1D48     		ldr	r0, .L7+12
 114 0048 7968     		ldr	r1, [r7, #4]
 115 004a C900     		lsls	r1, r1, #3
 116 004c 0144     		add	r1, r1, r0
 117 004e C1E90023 		strd	r2, [r1]
  65:.\compass.c   ****         CosDeg[i] = cos((((double) i) - 180) * (M_PI / 180.0));
 118              		.loc 1 65 0 discriminator 2
 119 0052 7868     		ldr	r0, [r7, #4]
 120 0054 FFF7FEFF 		bl	__aeabi_i2d
 121 0058 0246     		mov	r2, r0
 122 005a 0B46     		mov	r3, r1
 123 005c 1046     		mov	r0, r2
 124 005e 1946     		mov	r1, r3
 125 0060 4FF00002 		mov	r2, #0
 126 0064 144B     		ldr	r3, .L7+8
 127 0066 FFF7FEFF 		bl	__aeabi_dsub
 128 006a 0246     		mov	r2, r0
 129 006c 0B46     		mov	r3, r1
 130 006e 1046     		mov	r0, r2
 131 0070 1946     		mov	r1, r3
 132 0072 0FA3     		adr	r3, .L7
 133 0074 D3E90023 		ldrd	r2, [r3]
 134 0078 FFF7FEFF 		bl	__aeabi_dmul
 135 007c 0246     		mov	r2, r0
 136 007e 0B46     		mov	r3, r1
 137 0080 1046     		mov	r0, r2
 138 0082 1946     		mov	r1, r3
 139 0084 FFF7FEFF 		bl	cos
 140 0088 0246     		mov	r2, r0
 141 008a 0B46     		mov	r3, r1
 142 008c 0C48     		ldr	r0, .L7+16
 143 008e 7968     		ldr	r1, [r7, #4]
 144 0090 C900     		lsls	r1, r1, #3
 145 0092 0144     		add	r1, r1, r0
 146 0094 C1E90023 		strd	r2, [r1]
  63:.\compass.c   ****     for (i = 0; i < 360; i++){
 147              		.loc 1 63 0 discriminator 2
 148 0098 7B68     		ldr	r3, [r7, #4]
 149 009a 0133     		adds	r3, r3, #1
 150 009c 7B60     		str	r3, [r7, #4]
 151              	.L5:
  63:.\compass.c   ****     for (i = 0; i < 360; i++){
 152              		.loc 1 63 0 is_stmt 0 discriminator 1
 153 009e 7B68     		ldr	r3, [r7, #4]
 154 00a0 B3F5B47F 		cmp	r3, #360
 155 00a4 B2DB     		blt	.L6
  66:.\compass.c   ****     }
  67:.\compass.c   **** }
 156              		.loc 1 67 0 is_stmt 1
 157 00a6 0837     		adds	r7, r7, #8
 158 00a8 BD46     		mov	sp, r7
 159              		@ sp needed
ARM GAS  C:\Users\xavieran\AppData\Local\Temp\ccsZrIMd.s 			page 5


 160 00aa 80BD     		pop	{r7, pc}
 161              	.L8:
 162 00ac AFF30080 		.align	3
 163              	.L7:
 164 00b0 399D52A2 		.word	-1571644103
 165 00b4 46DF913F 		.word	1066524486
 166 00b8 00806640 		.word	1080459264
 167 00bc 00000000 		.word	SinDeg
 168 00c0 00000000 		.word	CosDeg
 169              		.cfi_endproc
 170              	.LFE64:
 171              		.size	calculate_circular_functions, .-calculate_circular_functions
 172 00c4 AFF30080 		.section	.text.start_compass,"ax",%progbits
 173              		.align	2
 174              		.global	start_compass
 175              		.thumb
 176              		.thumb_func
 177              		.type	start_compass, %function
 178              	start_compass:
 179              	.LFB65:
  68:.\compass.c   **** 
  69:.\compass.c   **** void start_compass(){
 180              		.loc 1 69 0
 181              		.cfi_startproc
 182              		@ args = 0, pretend = 0, frame = 0
 183              		@ frame_needed = 1, uses_anonymous_args = 0
 184 0000 80B5     		push	{r7, lr}
 185              		.cfi_def_cfa_offset 8
 186              		.cfi_offset 7, -8
 187              		.cfi_offset 14, -4
 188 0002 00AF     		add	r7, sp, #0
 189              		.cfi_def_cfa_register 7
  70:.\compass.c   ****     compass_ready = 0;
 190              		.loc 1 70 0
 191 0004 1D4B     		ldr	r3, .L10
 192 0006 0022     		movs	r2, #0
 193 0008 1A70     		strb	r2, [r3]
  71:.\compass.c   ****     compass_x = 0;
 194              		.loc 1 71 0
 195 000a 1D4B     		ldr	r3, .L10+4
 196 000c 0022     		movs	r2, #0
 197 000e 1A80     		strh	r2, [r3]	@ movhi
  72:.\compass.c   ****     compass_y = 0;
 198              		.loc 1 72 0
 199 0010 1C4B     		ldr	r3, .L10+8
 200 0012 0022     		movs	r2, #0
 201 0014 1A80     		strh	r2, [r3]	@ movhi
  73:.\compass.c   ****     compass_z = 0;
 202              		.loc 1 73 0
 203 0016 1C4B     		ldr	r3, .L10+12
 204 0018 0022     		movs	r2, #0
 205 001a 1A80     		strh	r2, [r3]	@ movhi
  74:.\compass.c   ****     compass_heading = 0;
 206              		.loc 1 74 0
 207 001c 1B4B     		ldr	r3, .L10+16
 208 001e 0022     		movs	r2, #0
 209 0020 1A80     		strh	r2, [r3]	@ movhi
ARM GAS  C:\Users\xavieran\AppData\Local\Temp\ccsZrIMd.s 			page 6


  75:.\compass.c   ****     original_compass_heading = 0;
 210              		.loc 1 75 0
 211 0022 1B4B     		ldr	r3, .L10+20
 212 0024 0022     		movs	r2, #0
 213 0026 1A80     		strh	r2, [r3]	@ movhi
  76:.\compass.c   ****     
  77:.\compass.c   ****     I2C_Start();
 214              		.loc 1 77 0
 215 0028 FFF7FEFF 		bl	I2C_Start
  78:.\compass.c   ****     //Write configuration register A
  79:.\compass.c   ****     I2C_MasterSendStart(COMPASS_ADDR, I2C_WRITE_XFER_MODE); 
 216              		.loc 1 79 0
 217 002c 1E20     		movs	r0, #30
 218 002e 0021     		movs	r1, #0
 219 0030 FFF7FEFF 		bl	I2C_MasterSendStart
  80:.\compass.c   ****     I2C_MasterWriteByte(COMPASS_REG_CONF_A);
 220              		.loc 1 80 0
 221 0034 0020     		movs	r0, #0
 222 0036 FFF7FEFF 		bl	I2C_MasterWriteByte
  81:.\compass.c   ****     I2C_MasterWriteByte(COMPASS_DAT_CONF_A);
 223              		.loc 1 81 0
 224 003a 7020     		movs	r0, #112
 225 003c FFF7FEFF 		bl	I2C_MasterWriteByte
  82:.\compass.c   ****     I2C_MasterSendStop();
 226              		.loc 1 82 0
 227 0040 FFF7FEFF 		bl	I2C_MasterSendStop
  83:.\compass.c   ****     //Write configuration register A    
  84:.\compass.c   ****     I2C_MasterSendStart(COMPASS_ADDR, I2C_WRITE_XFER_MODE); 
 228              		.loc 1 84 0
 229 0044 1E20     		movs	r0, #30
 230 0046 0021     		movs	r1, #0
 231 0048 FFF7FEFF 		bl	I2C_MasterSendStart
  85:.\compass.c   ****     I2C_MasterWriteByte(COMPASS_REG_CONF_B);
 232              		.loc 1 85 0
 233 004c 0120     		movs	r0, #1
 234 004e FFF7FEFF 		bl	I2C_MasterWriteByte
  86:.\compass.c   ****     I2C_MasterWriteByte(COMPASS_DAT_CONF_B);
 235              		.loc 1 86 0
 236 0052 2020     		movs	r0, #32
 237 0054 FFF7FEFF 		bl	I2C_MasterWriteByte
  87:.\compass.c   ****     I2C_MasterSendStop();
 238              		.loc 1 87 0
 239 0058 FFF7FEFF 		bl	I2C_MasterSendStop
  88:.\compass.c   ****     //Write mode register
  89:.\compass.c   ****     I2C_MasterSendStart(COMPASS_ADDR, I2C_WRITE_XFER_MODE); 
 240              		.loc 1 89 0
 241 005c 1E20     		movs	r0, #30
 242 005e 0021     		movs	r1, #0
 243 0060 FFF7FEFF 		bl	I2C_MasterSendStart
  90:.\compass.c   ****     I2C_MasterWriteByte(COMPASS_REG_MODE);
 244              		.loc 1 90 0
 245 0064 0220     		movs	r0, #2
 246 0066 FFF7FEFF 		bl	I2C_MasterWriteByte
  91:.\compass.c   ****     I2C_MasterWriteByte(COMPASS_DAT_MODE);
 247              		.loc 1 91 0
 248 006a 0020     		movs	r0, #0
 249 006c FFF7FEFF 		bl	I2C_MasterWriteByte
ARM GAS  C:\Users\xavieran\AppData\Local\Temp\ccsZrIMd.s 			page 7


  92:.\compass.c   ****     I2C_MasterSendStop();
 250              		.loc 1 92 0
 251 0070 FFF7FEFF 		bl	I2C_MasterSendStop
  93:.\compass.c   ****     
  94:.\compass.c   ****     Compass_DRDY_ISR_StartEx(DRDY_INTERRUPT);
 252              		.loc 1 94 0
 253 0074 0748     		ldr	r0, .L10+24
 254 0076 FFF7FEFF 		bl	Compass_DRDY_ISR_StartEx
  95:.\compass.c   **** }
 255              		.loc 1 95 0
 256 007a 80BD     		pop	{r7, pc}
 257              	.L11:
 258              		.align	2
 259              	.L10:
 260 007c 00000000 		.word	compass_ready
 261 0080 00000000 		.word	compass_x
 262 0084 00000000 		.word	compass_y
 263 0088 00000000 		.word	compass_z
 264 008c 00000000 		.word	compass_heading
 265 0090 00000000 		.word	original_compass_heading
 266 0094 00000000 		.word	DRDY_INTERRUPT
 267              		.cfi_endproc
 268              	.LFE65:
 269              		.size	start_compass, .-start_compass
 270              		.global	__aeabi_dadd
 271              		.global	__aeabi_d2iz
 272              		.section	.text.compass_read,"ax",%progbits
 273              		.align	2
 274              		.global	compass_read
 275              		.thumb
 276              		.thumb_func
 277              		.type	compass_read, %function
 278              	compass_read:
 279              	.LFB66:
  96:.\compass.c   **** 
  97:.\compass.c   **** 
  98:.\compass.c   **** void compass_read(){
 280              		.loc 1 98 0
 281              		.cfi_startproc
 282              		@ args = 0, pretend = 0, frame = 8
 283              		@ frame_needed = 1, uses_anonymous_args = 0
 284 0000 B0B5     		push	{r4, r5, r7, lr}
 285              		.cfi_def_cfa_offset 16
 286              		.cfi_offset 4, -16
 287              		.cfi_offset 5, -12
 288              		.cfi_offset 7, -8
 289              		.cfi_offset 14, -4
 290 0002 82B0     		sub	sp, sp, #8
 291              		.cfi_def_cfa_offset 24
 292 0004 00AF     		add	r7, sp, #0
 293              		.cfi_def_cfa_register 7
  99:.\compass.c   ****     uint8 data[6] = {0, 0, 0, 0, 0, 0};
 294              		.loc 1 99 0
 295 0006 0023     		movs	r3, #0
 296 0008 3B70     		strb	r3, [r7]
 297 000a 0023     		movs	r3, #0
 298 000c 7B70     		strb	r3, [r7, #1]
ARM GAS  C:\Users\xavieran\AppData\Local\Temp\ccsZrIMd.s 			page 8


 299 000e 0023     		movs	r3, #0
 300 0010 BB70     		strb	r3, [r7, #2]
 301 0012 0023     		movs	r3, #0
 302 0014 FB70     		strb	r3, [r7, #3]
 303 0016 0023     		movs	r3, #0
 304 0018 3B71     		strb	r3, [r7, #4]
 305 001a 0023     		movs	r3, #0
 306 001c 7B71     		strb	r3, [r7, #5]
 100:.\compass.c   ****     //Set the compass internal address pointer to xh
 101:.\compass.c   ****     I2C_MasterSendStart(COMPASS_ADDR, I2C_WRITE_XFER_MODE);
 307              		.loc 1 101 0
 308 001e 1E20     		movs	r0, #30
 309 0020 0021     		movs	r1, #0
 310 0022 FFF7FEFF 		bl	I2C_MasterSendStart
 102:.\compass.c   ****     I2C_MasterWriteByte(0x03);
 311              		.loc 1 102 0
 312 0026 0320     		movs	r0, #3
 313 0028 FFF7FEFF 		bl	I2C_MasterWriteByte
 103:.\compass.c   ****     I2C_MasterSendStop();
 314              		.loc 1 103 0
 315 002c FFF7FEFF 		bl	I2C_MasterSendStop
 104:.\compass.c   ****     //Read six bytes
 105:.\compass.c   ****     I2C_MasterSendStart(COMPASS_ADDR, I2C_READ_XFER_MODE);
 316              		.loc 1 105 0
 317 0030 1E20     		movs	r0, #30
 318 0032 0121     		movs	r1, #1
 319 0034 FFF7FEFF 		bl	I2C_MasterSendStart
 106:.\compass.c   ****     data[0] = I2C_MasterReadByte(I2C_ACK_DATA);
 320              		.loc 1 106 0
 321 0038 0120     		movs	r0, #1
 322 003a FFF7FEFF 		bl	I2C_MasterReadByte
 323 003e 0346     		mov	r3, r0
 324 0040 3B70     		strb	r3, [r7]
 107:.\compass.c   ****     data[1] = I2C_MasterReadByte(I2C_ACK_DATA);
 325              		.loc 1 107 0
 326 0042 0120     		movs	r0, #1
 327 0044 FFF7FEFF 		bl	I2C_MasterReadByte
 328 0048 0346     		mov	r3, r0
 329 004a 7B70     		strb	r3, [r7, #1]
 108:.\compass.c   ****     data[2] = I2C_MasterReadByte(I2C_ACK_DATA);
 330              		.loc 1 108 0
 331 004c 0120     		movs	r0, #1
 332 004e FFF7FEFF 		bl	I2C_MasterReadByte
 333 0052 0346     		mov	r3, r0
 334 0054 BB70     		strb	r3, [r7, #2]
 109:.\compass.c   ****     data[3] = I2C_MasterReadByte(I2C_ACK_DATA);
 335              		.loc 1 109 0
 336 0056 0120     		movs	r0, #1
 337 0058 FFF7FEFF 		bl	I2C_MasterReadByte
 338 005c 0346     		mov	r3, r0
 339 005e FB70     		strb	r3, [r7, #3]
 110:.\compass.c   ****     data[4] = I2C_MasterReadByte(I2C_ACK_DATA);
 340              		.loc 1 110 0
 341 0060 0120     		movs	r0, #1
 342 0062 FFF7FEFF 		bl	I2C_MasterReadByte
 343 0066 0346     		mov	r3, r0
 344 0068 3B71     		strb	r3, [r7, #4]
ARM GAS  C:\Users\xavieran\AppData\Local\Temp\ccsZrIMd.s 			page 9


 111:.\compass.c   ****     data[5] = I2C_MasterReadByte(I2C_NAK_DATA);
 345              		.loc 1 111 0
 346 006a 0020     		movs	r0, #0
 347 006c FFF7FEFF 		bl	I2C_MasterReadByte
 348 0070 0346     		mov	r3, r0
 349 0072 7B71     		strb	r3, [r7, #5]
 112:.\compass.c   ****     I2C_MasterSendStop();
 350              		.loc 1 112 0
 351 0074 FFF7FEFF 		bl	I2C_MasterSendStop
 113:.\compass.c   ****     
 114:.\compass.c   ****     compass_x = ((data[0] << 8) | data[1]);
 352              		.loc 1 114 0
 353 0078 3B78     		ldrb	r3, [r7]	@ zero_extendqisi2
 354 007a 1B02     		lsls	r3, r3, #8
 355 007c 9AB2     		uxth	r2, r3
 356 007e 7B78     		ldrb	r3, [r7, #1]	@ zero_extendqisi2
 357 0080 1343     		orrs	r3, r3, r2
 358 0082 9AB2     		uxth	r2, r3
 359 0084 3C4B     		ldr	r3, .L15+8
 360 0086 1A80     		strh	r2, [r3]	@ movhi
 115:.\compass.c   ****     compass_z = (data[2] << 8) | data[3];//Bizarrely, the device reads x,z,y...
 361              		.loc 1 115 0
 362 0088 BB78     		ldrb	r3, [r7, #2]	@ zero_extendqisi2
 363 008a 1B02     		lsls	r3, r3, #8
 364 008c 9AB2     		uxth	r2, r3
 365 008e FB78     		ldrb	r3, [r7, #3]	@ zero_extendqisi2
 366 0090 1343     		orrs	r3, r3, r2
 367 0092 9AB2     		uxth	r2, r3
 368 0094 394B     		ldr	r3, .L15+12
 369 0096 1A80     		strh	r2, [r3]	@ movhi
 116:.\compass.c   ****     compass_y = ((data[4] << 8) | data[5]);
 370              		.loc 1 116 0
 371 0098 3B79     		ldrb	r3, [r7, #4]	@ zero_extendqisi2
 372 009a 1B02     		lsls	r3, r3, #8
 373 009c 9AB2     		uxth	r2, r3
 374 009e 7B79     		ldrb	r3, [r7, #5]	@ zero_extendqisi2
 375 00a0 1343     		orrs	r3, r3, r2
 376 00a2 9AB2     		uxth	r2, r3
 377 00a4 364B     		ldr	r3, .L15+16
 378 00a6 1A80     		strh	r2, [r3]	@ movhi
 117:.\compass.c   ****     compass_heading = atan2((double) (compass_y + CALIBRATION_Y), 
 379              		.loc 1 117 0
 380 00a8 354B     		ldr	r3, .L15+16
 381 00aa 1B88     		ldrh	r3, [r3]
 382 00ac 1BB2     		sxth	r3, r3
 383 00ae 503B     		subs	r3, r3, #80
 384 00b0 1846     		mov	r0, r3
 385 00b2 FFF7FEFF 		bl	__aeabi_i2d
 386 00b6 0446     		mov	r4, r0
 387 00b8 0D46     		mov	r5, r1
 118:.\compass.c   ****                             (double) (compass_x + CALIBRATION_X)) * 
 388              		.loc 1 118 0
 389 00ba 2F4B     		ldr	r3, .L15+8
 390 00bc 1B88     		ldrh	r3, [r3]
 391 00be 1BB2     		sxth	r3, r3
 392 00c0 0A33     		adds	r3, r3, #10
 117:.\compass.c   ****     compass_heading = atan2((double) (compass_y + CALIBRATION_Y), 
ARM GAS  C:\Users\xavieran\AppData\Local\Temp\ccsZrIMd.s 			page 10


 393              		.loc 1 117 0
 394 00c2 1846     		mov	r0, r3
 395 00c4 FFF7FEFF 		bl	__aeabi_i2d
 396 00c8 0246     		mov	r2, r0
 397 00ca 0B46     		mov	r3, r1
 398 00cc 2046     		mov	r0, r4
 399 00ce 2946     		mov	r1, r5
 400 00d0 FFF7FEFF 		bl	atan2
 401 00d4 0246     		mov	r2, r0
 402 00d6 0B46     		mov	r3, r1
 403              		.loc 1 118 0
 404 00d8 1046     		mov	r0, r2
 405 00da 1946     		mov	r1, r3
 406 00dc 24A3     		adr	r3, .L15
 407 00de D3E90023 		ldrd	r2, [r3]
 408 00e2 FFF7FEFF 		bl	__aeabi_dmul
 409 00e6 0246     		mov	r2, r0
 410 00e8 0B46     		mov	r3, r1
 119:.\compass.c   ****                             (180/M_PI) + 180 - original_compass_heading;
 411              		.loc 1 119 0
 412 00ea 1046     		mov	r0, r2
 413 00ec 1946     		mov	r1, r3
 414 00ee 4FF00002 		mov	r2, #0
 415 00f2 244B     		ldr	r3, .L15+20
 416 00f4 FFF7FEFF 		bl	__aeabi_dadd
 417 00f8 0246     		mov	r2, r0
 418 00fa 0B46     		mov	r3, r1
 419 00fc 1446     		mov	r4, r2
 420 00fe 1D46     		mov	r5, r3
 421 0100 214B     		ldr	r3, .L15+24
 422 0102 1B88     		ldrh	r3, [r3]
 423 0104 1BB2     		sxth	r3, r3
 424 0106 1846     		mov	r0, r3
 425 0108 FFF7FEFF 		bl	__aeabi_i2d
 426 010c 0246     		mov	r2, r0
 427 010e 0B46     		mov	r3, r1
 428 0110 2046     		mov	r0, r4
 429 0112 2946     		mov	r1, r5
 430 0114 FFF7FEFF 		bl	__aeabi_dsub
 431 0118 0246     		mov	r2, r0
 432 011a 0B46     		mov	r3, r1
 117:.\compass.c   ****     compass_heading = atan2((double) (compass_y + CALIBRATION_Y), 
 433              		.loc 1 117 0
 434 011c 1046     		mov	r0, r2
 435 011e 1946     		mov	r1, r3
 436 0120 FFF7FEFF 		bl	__aeabi_d2iz
 437 0124 0346     		mov	r3, r0
 438 0126 9AB2     		uxth	r2, r3
 439 0128 184B     		ldr	r3, .L15+28
 440 012a 1A80     		strh	r2, [r3]	@ movhi
 120:.\compass.c   ****     if (compass_heading > 360){
 441              		.loc 1 120 0
 442 012c 174B     		ldr	r3, .L15+28
 443 012e 1B88     		ldrh	r3, [r3]
 444 0130 1BB2     		sxth	r3, r3
 445 0132 B3F5B47F 		cmp	r3, #360
 446 0136 09DD     		ble	.L13
ARM GAS  C:\Users\xavieran\AppData\Local\Temp\ccsZrIMd.s 			page 11


 121:.\compass.c   ****         compass_heading -= 360;
 447              		.loc 1 121 0
 448 0138 144B     		ldr	r3, .L15+28
 449 013a 1B88     		ldrh	r3, [r3]
 450 013c 9BB2     		uxth	r3, r3
 451 013e A3F5B473 		sub	r3, r3, #360
 452 0142 9BB2     		uxth	r3, r3
 453 0144 9AB2     		uxth	r2, r3
 454 0146 114B     		ldr	r3, .L15+28
 455 0148 1A80     		strh	r2, [r3]	@ movhi
 456 014a 0DE0     		b	.L12
 457              	.L13:
 122:.\compass.c   ****     } else if (compass_heading < 0){
 458              		.loc 1 122 0
 459 014c 0F4B     		ldr	r3, .L15+28
 460 014e 1B88     		ldrh	r3, [r3]
 461 0150 1BB2     		sxth	r3, r3
 462 0152 002B     		cmp	r3, #0
 463 0154 08DA     		bge	.L12
 123:.\compass.c   ****         compass_heading += 360;
 464              		.loc 1 123 0
 465 0156 0D4B     		ldr	r3, .L15+28
 466 0158 1B88     		ldrh	r3, [r3]
 467 015a 9BB2     		uxth	r3, r3
 468 015c 03F5B473 		add	r3, r3, #360
 469 0160 9BB2     		uxth	r3, r3
 470 0162 9AB2     		uxth	r2, r3
 471 0164 094B     		ldr	r3, .L15+28
 472 0166 1A80     		strh	r2, [r3]	@ movhi
 473              	.L12:
 124:.\compass.c   ****     }
 125:.\compass.c   **** }
 474              		.loc 1 125 0
 475 0168 0837     		adds	r7, r7, #8
 476 016a BD46     		mov	sp, r7
 477              		@ sp needed
 478 016c B0BD     		pop	{r4, r5, r7, pc}
 479              	.L16:
 480 016e 00BF     		.align	3
 481              	.L15:
 482 0170 F8C1631A 		.word	442745336
 483 0174 DCA54C40 		.word	1078765020
 484 0178 00000000 		.word	compass_x
 485 017c 00000000 		.word	compass_z
 486 0180 00000000 		.word	compass_y
 487 0184 00806640 		.word	1080459264
 488 0188 00000000 		.word	original_compass_heading
 489 018c 00000000 		.word	compass_heading
 490              		.cfi_endproc
 491              	.LFE66:
 492              		.size	compass_read, .-compass_read
 493              		.text
 494              	.Letext0:
 495              		.file 2 "c:\\program files (x86)\\cypress\\psoc creator\\3.2\\psoc creator\\import\\gnu\\arm\\4.8.
 496              		.file 3 "c:\\program files (x86)\\cypress\\psoc creator\\3.2\\psoc creator\\import\\gnu\\arm\\4.8.
 497              		.file 4 "Generated_Source\\PSoC5/cytypes.h"
 498              		.file 5 "Generated_Source\\PSoC5/core_cm3.h"
ARM GAS  C:\Users\xavieran\AppData\Local\Temp\ccsZrIMd.s 			page 12


 499              		.file 6 "Generated_Source\\PSoC5/Camera.h"