ARM GAS  C:\Users\xavieran\AppData\Local\Temp\ccKklXac.s 			page 1


   1              		.syntax unified
   2              		.cpu cortex-m3
   3              		.fpu softvfp
   4              		.eabi_attribute 20, 1
   5              		.eabi_attribute 21, 1
   6              		.eabi_attribute 23, 3
   7              		.eabi_attribute 24, 1
   8              		.eabi_attribute 25, 1
   9              		.eabi_attribute 26, 1
  10              		.eabi_attribute 30, 6
  11              		.eabi_attribute 34, 1
  12              		.eabi_attribute 18, 4
  13              		.thumb
  14              		.file	"cyfitter_cfg.c"
  15              		.text
  16              	.Ltext0:
  17              		.cfi_sections	.debug_frame
  18              		.section	.text.CYMEMZERO,"ax",%progbits
  19              		.align	2
  20              		.thumb
  21              		.thumb_func
  22              		.type	CYMEMZERO, %function
  23              	CYMEMZERO:
  24              	.LFB0:
  25              		.file 1 ".\\Generated_Source\\PSoC5\\cyfitter_cfg.c"
   1:.\Generated_Source\PSoC5/cyfitter_cfg.c **** /*******************************************************************************
   2:.\Generated_Source\PSoC5/cyfitter_cfg.c **** * FILENAME: cyfitter_cfg.c
   3:.\Generated_Source\PSoC5/cyfitter_cfg.c **** * 
   4:.\Generated_Source\PSoC5/cyfitter_cfg.c **** * PSoC Creator  3.2 SP1
   5:.\Generated_Source\PSoC5/cyfitter_cfg.c **** *
   6:.\Generated_Source\PSoC5/cyfitter_cfg.c **** * DESCRIPTION:
   7:.\Generated_Source\PSoC5/cyfitter_cfg.c **** * This file contains device initialization code.
   8:.\Generated_Source\PSoC5/cyfitter_cfg.c **** * Except for the user defined sections in CyClockStartupError(), this file should not be modified.
   9:.\Generated_Source\PSoC5/cyfitter_cfg.c **** * This file is automatically generated by PSoC Creator.
  10:.\Generated_Source\PSoC5/cyfitter_cfg.c **** *
  11:.\Generated_Source\PSoC5/cyfitter_cfg.c **** ********************************************************************************
  12:.\Generated_Source\PSoC5/cyfitter_cfg.c **** * Copyright (c) 2007-2015 Cypress Semiconductor.  All rights reserved.
  13:.\Generated_Source\PSoC5/cyfitter_cfg.c **** * You may use this file only in accordance with the license, terms, conditions, 
  14:.\Generated_Source\PSoC5/cyfitter_cfg.c **** * disclaimers, and limitations in the end user license agreement accompanying 
  15:.\Generated_Source\PSoC5/cyfitter_cfg.c **** * the software package with which this file was provided.
  16:.\Generated_Source\PSoC5/cyfitter_cfg.c **** ********************************************************************************/
  17:.\Generated_Source\PSoC5/cyfitter_cfg.c **** 
  18:.\Generated_Source\PSoC5/cyfitter_cfg.c **** #include <string.h>
  19:.\Generated_Source\PSoC5/cyfitter_cfg.c **** #include "cytypes.h"
  20:.\Generated_Source\PSoC5/cyfitter_cfg.c **** #include "cydevice_trm.h"
  21:.\Generated_Source\PSoC5/cyfitter_cfg.c **** #include "cyfitter.h"
  22:.\Generated_Source\PSoC5/cyfitter_cfg.c **** #include "CyLib.h"
  23:.\Generated_Source\PSoC5/cyfitter_cfg.c **** #include "cyfitter_cfg.h"
  24:.\Generated_Source\PSoC5/cyfitter_cfg.c **** 
  25:.\Generated_Source\PSoC5/cyfitter_cfg.c **** #define CY_NEED_CYCLOCKSTARTUPERROR 1
  26:.\Generated_Source\PSoC5/cyfitter_cfg.c **** 
  27:.\Generated_Source\PSoC5/cyfitter_cfg.c **** 
  28:.\Generated_Source\PSoC5/cyfitter_cfg.c **** #if defined(__GNUC__) || defined(__ARMCC_VERSION)
  29:.\Generated_Source\PSoC5/cyfitter_cfg.c ****     #define CYPACKED 
  30:.\Generated_Source\PSoC5/cyfitter_cfg.c ****     #define CYPACKED_ATTR __attribute__ ((packed))
  31:.\Generated_Source\PSoC5/cyfitter_cfg.c ****     #define CYALIGNED __attribute__ ((aligned))
  32:.\Generated_Source\PSoC5/cyfitter_cfg.c ****     #define CY_CFG_UNUSED __attribute__ ((unused))
ARM GAS  C:\Users\xavieran\AppData\Local\Temp\ccKklXac.s 			page 2


  33:.\Generated_Source\PSoC5/cyfitter_cfg.c ****     #define CY_CFG_SECTION __attribute__ ((section(".psocinit")))
  34:.\Generated_Source\PSoC5/cyfitter_cfg.c ****     
  35:.\Generated_Source\PSoC5/cyfitter_cfg.c ****     #if defined(__ARMCC_VERSION)
  36:.\Generated_Source\PSoC5/cyfitter_cfg.c ****         #define CY_CFG_MEMORY_BARRIER() __memory_changed()
  37:.\Generated_Source\PSoC5/cyfitter_cfg.c ****     #else
  38:.\Generated_Source\PSoC5/cyfitter_cfg.c ****         #define CY_CFG_MEMORY_BARRIER() __sync_synchronize()
  39:.\Generated_Source\PSoC5/cyfitter_cfg.c ****     #endif
  40:.\Generated_Source\PSoC5/cyfitter_cfg.c ****     
  41:.\Generated_Source\PSoC5/cyfitter_cfg.c **** #elif defined(__ICCARM__)
  42:.\Generated_Source\PSoC5/cyfitter_cfg.c ****     #include <intrinsics.h>
  43:.\Generated_Source\PSoC5/cyfitter_cfg.c **** 
  44:.\Generated_Source\PSoC5/cyfitter_cfg.c ****     #define CYPACKED __packed
  45:.\Generated_Source\PSoC5/cyfitter_cfg.c ****     #define CYPACKED_ATTR 
  46:.\Generated_Source\PSoC5/cyfitter_cfg.c ****     #define CYALIGNED _Pragma("data_alignment=4")
  47:.\Generated_Source\PSoC5/cyfitter_cfg.c ****     #define CY_CFG_UNUSED _Pragma("diag_suppress=Pe177")
  48:.\Generated_Source\PSoC5/cyfitter_cfg.c ****     #define CY_CFG_SECTION _Pragma("location=\".psocinit\"")
  49:.\Generated_Source\PSoC5/cyfitter_cfg.c ****     
  50:.\Generated_Source\PSoC5/cyfitter_cfg.c ****     #define CY_CFG_MEMORY_BARRIER() __DMB()
  51:.\Generated_Source\PSoC5/cyfitter_cfg.c ****     
  52:.\Generated_Source\PSoC5/cyfitter_cfg.c **** #else
  53:.\Generated_Source\PSoC5/cyfitter_cfg.c ****     #error Unsupported toolchain
  54:.\Generated_Source\PSoC5/cyfitter_cfg.c **** #endif
  55:.\Generated_Source\PSoC5/cyfitter_cfg.c **** 
  56:.\Generated_Source\PSoC5/cyfitter_cfg.c **** 
  57:.\Generated_Source\PSoC5/cyfitter_cfg.c **** CY_CFG_UNUSED
  58:.\Generated_Source\PSoC5/cyfitter_cfg.c **** static void CYMEMZERO(void *s, size_t n);
  59:.\Generated_Source\PSoC5/cyfitter_cfg.c **** CY_CFG_UNUSED
  60:.\Generated_Source\PSoC5/cyfitter_cfg.c **** static void CYMEMZERO(void *s, size_t n)
  61:.\Generated_Source\PSoC5/cyfitter_cfg.c **** {
  26              		.loc 1 61 0
  27              		.cfi_startproc
  28              		@ args = 0, pretend = 0, frame = 8
  29              		@ frame_needed = 1, uses_anonymous_args = 0
  30 0000 80B5     		push	{r7, lr}
  31              		.cfi_def_cfa_offset 8
  32              		.cfi_offset 7, -8
  33              		.cfi_offset 14, -4
  34 0002 82B0     		sub	sp, sp, #8
  35              		.cfi_def_cfa_offset 16
  36 0004 00AF     		add	r7, sp, #0
  37              		.cfi_def_cfa_register 7
  38 0006 7860     		str	r0, [r7, #4]
  39 0008 3960     		str	r1, [r7]
  62:.\Generated_Source\PSoC5/cyfitter_cfg.c **** 	(void)memset(s, 0, n);
  40              		.loc 1 62 0
  41 000a 7868     		ldr	r0, [r7, #4]
  42 000c 0021     		movs	r1, #0
  43 000e 3A68     		ldr	r2, [r7]
  44 0010 FFF7FEFF 		bl	memset
  63:.\Generated_Source\PSoC5/cyfitter_cfg.c **** }
  45              		.loc 1 63 0
  46 0014 0837     		adds	r7, r7, #8
  47 0016 BD46     		mov	sp, r7
  48              		@ sp needed
  49 0018 80BD     		pop	{r7, pc}
  50              		.cfi_endproc
  51              	.LFE0:
ARM GAS  C:\Users\xavieran\AppData\Local\Temp\ccKklXac.s 			page 3


  52              		.size	CYMEMZERO, .-CYMEMZERO
  53 001a 00BF     		.section	.text.CYCONFIGCPY,"ax",%progbits
  54              		.align	2
  55              		.thumb
  56              		.thumb_func
  57              		.type	CYCONFIGCPY, %function
  58              	CYCONFIGCPY:
  59              	.LFB1:
  64:.\Generated_Source\PSoC5/cyfitter_cfg.c **** CY_CFG_UNUSED
  65:.\Generated_Source\PSoC5/cyfitter_cfg.c **** static void CYCONFIGCPY(void *dest, const void *src, size_t n);
  66:.\Generated_Source\PSoC5/cyfitter_cfg.c **** CY_CFG_UNUSED
  67:.\Generated_Source\PSoC5/cyfitter_cfg.c **** static void CYCONFIGCPY(void *dest, const void *src, size_t n)
  68:.\Generated_Source\PSoC5/cyfitter_cfg.c **** {
  60              		.loc 1 68 0
  61              		.cfi_startproc
  62              		@ args = 0, pretend = 0, frame = 16
  63              		@ frame_needed = 1, uses_anonymous_args = 0
  64 0000 80B5     		push	{r7, lr}
  65              		.cfi_def_cfa_offset 8
  66              		.cfi_offset 7, -8
  67              		.cfi_offset 14, -4
  68 0002 84B0     		sub	sp, sp, #16
  69              		.cfi_def_cfa_offset 24
  70 0004 00AF     		add	r7, sp, #0
  71              		.cfi_def_cfa_register 7
  72 0006 F860     		str	r0, [r7, #12]
  73 0008 B960     		str	r1, [r7, #8]
  74 000a 7A60     		str	r2, [r7, #4]
  69:.\Generated_Source\PSoC5/cyfitter_cfg.c **** 	(void)memcpy(dest, src, n);
  75              		.loc 1 69 0
  76 000c F868     		ldr	r0, [r7, #12]
  77 000e B968     		ldr	r1, [r7, #8]
  78 0010 7A68     		ldr	r2, [r7, #4]
  79 0012 FFF7FEFF 		bl	memcpy
  70:.\Generated_Source\PSoC5/cyfitter_cfg.c **** }
  80              		.loc 1 70 0
  81 0016 1037     		adds	r7, r7, #16
  82 0018 BD46     		mov	sp, r7
  83              		@ sp needed
  84 001a 80BD     		pop	{r7, pc}
  85              		.cfi_endproc
  86              	.LFE1:
  87              		.size	CYCONFIGCPY, .-CYCONFIGCPY
  88              		.section	.text.CYCONFIGCPYCODE,"ax",%progbits
  89              		.align	2
  90              		.thumb
  91              		.thumb_func
  92              		.type	CYCONFIGCPYCODE, %function
  93              	CYCONFIGCPYCODE:
  94              	.LFB2:
  71:.\Generated_Source\PSoC5/cyfitter_cfg.c **** CY_CFG_UNUSED
  72:.\Generated_Source\PSoC5/cyfitter_cfg.c **** static void CYCONFIGCPYCODE(void *dest, const void *src, size_t n);
  73:.\Generated_Source\PSoC5/cyfitter_cfg.c **** CY_CFG_UNUSED
  74:.\Generated_Source\PSoC5/cyfitter_cfg.c **** static void CYCONFIGCPYCODE(void *dest, const void *src, size_t n)
  75:.\Generated_Source\PSoC5/cyfitter_cfg.c **** {
  95              		.loc 1 75 0
  96              		.cfi_startproc
ARM GAS  C:\Users\xavieran\AppData\Local\Temp\ccKklXac.s 			page 4


  97              		@ args = 0, pretend = 0, frame = 16
  98              		@ frame_needed = 1, uses_anonymous_args = 0
  99 0000 80B5     		push	{r7, lr}
 100              		.cfi_def_cfa_offset 8
 101              		.cfi_offset 7, -8
 102              		.cfi_offset 14, -4
 103 0002 84B0     		sub	sp, sp, #16
 104              		.cfi_def_cfa_offset 24
 105 0004 00AF     		add	r7, sp, #0
 106              		.cfi_def_cfa_register 7
 107 0006 F860     		str	r0, [r7, #12]
 108 0008 B960     		str	r1, [r7, #8]
 109 000a 7A60     		str	r2, [r7, #4]
  76:.\Generated_Source\PSoC5/cyfitter_cfg.c **** 	(void)memcpy(dest, src, n);
 110              		.loc 1 76 0
 111 000c F868     		ldr	r0, [r7, #12]
 112 000e B968     		ldr	r1, [r7, #8]
 113 0010 7A68     		ldr	r2, [r7, #4]
 114 0012 FFF7FEFF 		bl	memcpy
  77:.\Generated_Source\PSoC5/cyfitter_cfg.c **** }
 115              		.loc 1 77 0
 116 0016 1037     		adds	r7, r7, #16
 117 0018 BD46     		mov	sp, r7
 118              		@ sp needed
 119 001a 80BD     		pop	{r7, pc}
 120              		.cfi_endproc
 121              	.LFE2:
 122              		.size	CYCONFIGCPYCODE, .-CYCONFIGCPYCODE
 123              		.section	.text.CyClockStartupError,"ax",%progbits
 124              		.align	2
 125              		.thumb
 126              		.thumb_func
 127              		.type	CyClockStartupError, %function
 128              	CyClockStartupError:
 129              	.LFB3:
  78:.\Generated_Source\PSoC5/cyfitter_cfg.c **** 
  79:.\Generated_Source\PSoC5/cyfitter_cfg.c **** 
  80:.\Generated_Source\PSoC5/cyfitter_cfg.c **** 
  81:.\Generated_Source\PSoC5/cyfitter_cfg.c **** /* Clock startup error codes                                                   */
  82:.\Generated_Source\PSoC5/cyfitter_cfg.c **** #define CYCLOCKSTART_NO_ERROR    0u
  83:.\Generated_Source\PSoC5/cyfitter_cfg.c **** #define CYCLOCKSTART_XTAL_ERROR  1u
  84:.\Generated_Source\PSoC5/cyfitter_cfg.c **** #define CYCLOCKSTART_32KHZ_ERROR 2u
  85:.\Generated_Source\PSoC5/cyfitter_cfg.c **** #define CYCLOCKSTART_PLL_ERROR   3u
  86:.\Generated_Source\PSoC5/cyfitter_cfg.c **** 
  87:.\Generated_Source\PSoC5/cyfitter_cfg.c **** #ifdef CY_NEED_CYCLOCKSTARTUPERROR
  88:.\Generated_Source\PSoC5/cyfitter_cfg.c **** /*******************************************************************************
  89:.\Generated_Source\PSoC5/cyfitter_cfg.c **** * Function Name: CyClockStartupError
  90:.\Generated_Source\PSoC5/cyfitter_cfg.c **** ********************************************************************************
  91:.\Generated_Source\PSoC5/cyfitter_cfg.c **** * Summary:
  92:.\Generated_Source\PSoC5/cyfitter_cfg.c **** *  If an error is encountered during clock configuration (crystal startup error,
  93:.\Generated_Source\PSoC5/cyfitter_cfg.c **** *  PLL lock error, etc.), the system will end up here.  Unless reimplemented by
  94:.\Generated_Source\PSoC5/cyfitter_cfg.c **** *  the customer, this function will stop in an infinite loop.
  95:.\Generated_Source\PSoC5/cyfitter_cfg.c **** *
  96:.\Generated_Source\PSoC5/cyfitter_cfg.c **** * Parameters:
  97:.\Generated_Source\PSoC5/cyfitter_cfg.c **** *   void
  98:.\Generated_Source\PSoC5/cyfitter_cfg.c **** *
  99:.\Generated_Source\PSoC5/cyfitter_cfg.c **** * Return:
ARM GAS  C:\Users\xavieran\AppData\Local\Temp\ccKklXac.s 			page 5


 100:.\Generated_Source\PSoC5/cyfitter_cfg.c **** *   void
 101:.\Generated_Source\PSoC5/cyfitter_cfg.c **** *
 102:.\Generated_Source\PSoC5/cyfitter_cfg.c **** *******************************************************************************/
 103:.\Generated_Source\PSoC5/cyfitter_cfg.c **** CY_CFG_UNUSED
 104:.\Generated_Source\PSoC5/cyfitter_cfg.c **** static void CyClockStartupError(uint8 errorCode);
 105:.\Generated_Source\PSoC5/cyfitter_cfg.c **** CY_CFG_UNUSED
 106:.\Generated_Source\PSoC5/cyfitter_cfg.c **** static void CyClockStartupError(uint8 errorCode)
 107:.\Generated_Source\PSoC5/cyfitter_cfg.c **** {
 130              		.loc 1 107 0
 131              		.cfi_startproc
 132              		@ args = 0, pretend = 0, frame = 8
 133              		@ frame_needed = 1, uses_anonymous_args = 0
 134              		@ link register save eliminated.
 135 0000 80B4     		push	{r7}
 136              		.cfi_def_cfa_offset 4
 137              		.cfi_offset 7, -4
 138 0002 83B0     		sub	sp, sp, #12
 139              		.cfi_def_cfa_offset 16
 140 0004 00AF     		add	r7, sp, #0
 141              		.cfi_def_cfa_register 7
 142 0006 0346     		mov	r3, r0
 143 0008 FB71     		strb	r3, [r7, #7]
 144              	.L5:
 108:.\Generated_Source\PSoC5/cyfitter_cfg.c ****     /* To remove the compiler warning if errorCode not used.                */
 109:.\Generated_Source\PSoC5/cyfitter_cfg.c ****     errorCode = errorCode;
 110:.\Generated_Source\PSoC5/cyfitter_cfg.c **** 
 111:.\Generated_Source\PSoC5/cyfitter_cfg.c ****     /* `#START CyClockStartupError` */
 112:.\Generated_Source\PSoC5/cyfitter_cfg.c **** 
 113:.\Generated_Source\PSoC5/cyfitter_cfg.c ****     /* If we have a clock startup error (bad MHz crystal, PLL lock, etc.),  */
 114:.\Generated_Source\PSoC5/cyfitter_cfg.c ****     /* we will end up here to allow the customer to implement something to  */
 115:.\Generated_Source\PSoC5/cyfitter_cfg.c ****     /* deal with the clock condition.                                       */
 116:.\Generated_Source\PSoC5/cyfitter_cfg.c **** 
 117:.\Generated_Source\PSoC5/cyfitter_cfg.c ****     /* `#END` */
 118:.\Generated_Source\PSoC5/cyfitter_cfg.c **** 
 119:.\Generated_Source\PSoC5/cyfitter_cfg.c ****     /* If nothing else, stop here since the clocks have not started         */
 120:.\Generated_Source\PSoC5/cyfitter_cfg.c ****     /* correctly.                                                           */
 121:.\Generated_Source\PSoC5/cyfitter_cfg.c ****     while(1) {}
 145              		.loc 1 121 0 discriminator 1
 146 000a FEE7     		b	.L5
 147              		.cfi_endproc
 148              	.LFE3:
 149              		.size	CyClockStartupError, .-CyClockStartupError
 150              		.section	.text.cfg_write_bytes32,"ax",%progbits
 151              		.align	2
 152              		.thumb
 153              		.thumb_func
 154              		.type	cfg_write_bytes32, %function
 155              	cfg_write_bytes32:
 156              	.LFB4:
 122:.\Generated_Source\PSoC5/cyfitter_cfg.c **** }
 123:.\Generated_Source\PSoC5/cyfitter_cfg.c **** #endif
 124:.\Generated_Source\PSoC5/cyfitter_cfg.c **** 
 125:.\Generated_Source\PSoC5/cyfitter_cfg.c **** #define CY_CFG_BASE_ADDR_COUNT 43u
 126:.\Generated_Source\PSoC5/cyfitter_cfg.c **** CYPACKED typedef struct
 127:.\Generated_Source\PSoC5/cyfitter_cfg.c **** {
 128:.\Generated_Source\PSoC5/cyfitter_cfg.c **** 	uint8 offset;
 129:.\Generated_Source\PSoC5/cyfitter_cfg.c **** 	uint8 value;
ARM GAS  C:\Users\xavieran\AppData\Local\Temp\ccKklXac.s 			page 6


 130:.\Generated_Source\PSoC5/cyfitter_cfg.c **** } CYPACKED_ATTR cy_cfg_addrvalue_t;
 131:.\Generated_Source\PSoC5/cyfitter_cfg.c **** 
 132:.\Generated_Source\PSoC5/cyfitter_cfg.c **** 
 133:.\Generated_Source\PSoC5/cyfitter_cfg.c **** 
 134:.\Generated_Source\PSoC5/cyfitter_cfg.c **** /*******************************************************************************
 135:.\Generated_Source\PSoC5/cyfitter_cfg.c **** * Function Name: cfg_write_bytes32
 136:.\Generated_Source\PSoC5/cyfitter_cfg.c **** ********************************************************************************
 137:.\Generated_Source\PSoC5/cyfitter_cfg.c **** * Summary:
 138:.\Generated_Source\PSoC5/cyfitter_cfg.c **** *  This function is used for setting up the chip configuration areas that
 139:.\Generated_Source\PSoC5/cyfitter_cfg.c **** *  contain relatively sparse data.
 140:.\Generated_Source\PSoC5/cyfitter_cfg.c **** *
 141:.\Generated_Source\PSoC5/cyfitter_cfg.c **** * Parameters:
 142:.\Generated_Source\PSoC5/cyfitter_cfg.c **** *   void
 143:.\Generated_Source\PSoC5/cyfitter_cfg.c **** *
 144:.\Generated_Source\PSoC5/cyfitter_cfg.c **** * Return:
 145:.\Generated_Source\PSoC5/cyfitter_cfg.c **** *   void
 146:.\Generated_Source\PSoC5/cyfitter_cfg.c **** *
 147:.\Generated_Source\PSoC5/cyfitter_cfg.c **** *******************************************************************************/
 148:.\Generated_Source\PSoC5/cyfitter_cfg.c **** static void cfg_write_bytes32(const uint32 addr_table[], const cy_cfg_addrvalue_t data_table[]);
 149:.\Generated_Source\PSoC5/cyfitter_cfg.c **** static void cfg_write_bytes32(const uint32 addr_table[], const cy_cfg_addrvalue_t data_table[])
 150:.\Generated_Source\PSoC5/cyfitter_cfg.c **** {
 157              		.loc 1 150 0
 158              		.cfi_startproc
 159              		@ args = 0, pretend = 0, frame = 24
 160              		@ frame_needed = 1, uses_anonymous_args = 0
 161              		@ link register save eliminated.
 162 0000 80B4     		push	{r7}
 163              		.cfi_def_cfa_offset 4
 164              		.cfi_offset 7, -4
 165 0002 87B0     		sub	sp, sp, #28
 166              		.cfi_def_cfa_offset 32
 167 0004 00AF     		add	r7, sp, #0
 168              		.cfi_def_cfa_register 7
 169 0006 7860     		str	r0, [r7, #4]
 170 0008 3960     		str	r1, [r7]
 151:.\Generated_Source\PSoC5/cyfitter_cfg.c **** 	/* For 32-bit little-endian architectures */
 152:.\Generated_Source\PSoC5/cyfitter_cfg.c **** 	uint32 i, j = 0u;
 171              		.loc 1 152 0
 172 000a 0023     		movs	r3, #0
 173 000c 3B61     		str	r3, [r7, #16]
 153:.\Generated_Source\PSoC5/cyfitter_cfg.c **** 	for (i = 0u; i < CY_CFG_BASE_ADDR_COUNT; i++)
 174              		.loc 1 153 0
 175 000e 0023     		movs	r3, #0
 176 0010 7B61     		str	r3, [r7, #20]
 177 0012 26E0     		b	.L7
 178              	.L10:
 179              	.LBB2:
 154:.\Generated_Source\PSoC5/cyfitter_cfg.c **** 	{
 155:.\Generated_Source\PSoC5/cyfitter_cfg.c **** 		uint32 baseAddr = addr_table[i];
 180              		.loc 1 155 0
 181 0014 7B69     		ldr	r3, [r7, #20]
 182 0016 9B00     		lsls	r3, r3, #2
 183 0018 7A68     		ldr	r2, [r7, #4]
 184 001a 1344     		add	r3, r3, r2
 185 001c 1B68     		ldr	r3, [r3]
 186 001e BB60     		str	r3, [r7, #8]
 156:.\Generated_Source\PSoC5/cyfitter_cfg.c **** 		uint8 count = (uint8)baseAddr;
ARM GAS  C:\Users\xavieran\AppData\Local\Temp\ccKklXac.s 			page 7


 187              		.loc 1 156 0
 188 0020 BB68     		ldr	r3, [r7, #8]
 189 0022 FB73     		strb	r3, [r7, #15]
 157:.\Generated_Source\PSoC5/cyfitter_cfg.c **** 		baseAddr &= 0xFFFFFF00u;
 190              		.loc 1 157 0
 191 0024 BB68     		ldr	r3, [r7, #8]
 192 0026 23F0FF03 		bic	r3, r3, #255
 193 002a BB60     		str	r3, [r7, #8]
 158:.\Generated_Source\PSoC5/cyfitter_cfg.c **** 		while (count != 0u)
 194              		.loc 1 158 0
 195 002c 13E0     		b	.L8
 196              	.L9:
 159:.\Generated_Source\PSoC5/cyfitter_cfg.c **** 		{
 160:.\Generated_Source\PSoC5/cyfitter_cfg.c **** 			CY_SET_XTND_REG8((void CYFAR *)(baseAddr + data_table[j].offset), data_table[j].value);
 197              		.loc 1 160 0
 198 002e 3B69     		ldr	r3, [r7, #16]
 199 0030 5B00     		lsls	r3, r3, #1
 200 0032 3A68     		ldr	r2, [r7]
 201 0034 1344     		add	r3, r3, r2
 202 0036 1B78     		ldrb	r3, [r3]	@ zero_extendqisi2
 203 0038 1A46     		mov	r2, r3
 204 003a BB68     		ldr	r3, [r7, #8]
 205 003c 1344     		add	r3, r3, r2
 206 003e 3A69     		ldr	r2, [r7, #16]
 207 0040 5200     		lsls	r2, r2, #1
 208 0042 3968     		ldr	r1, [r7]
 209 0044 0A44     		add	r2, r2, r1
 210 0046 5278     		ldrb	r2, [r2, #1]	@ zero_extendqisi2
 211 0048 1A70     		strb	r2, [r3]
 161:.\Generated_Source\PSoC5/cyfitter_cfg.c **** 			j++;
 212              		.loc 1 161 0
 213 004a 3B69     		ldr	r3, [r7, #16]
 214 004c 0133     		adds	r3, r3, #1
 215 004e 3B61     		str	r3, [r7, #16]
 162:.\Generated_Source\PSoC5/cyfitter_cfg.c **** 			count--;
 216              		.loc 1 162 0
 217 0050 FB7B     		ldrb	r3, [r7, #15]	@ zero_extendqisi2
 218 0052 013B     		subs	r3, r3, #1
 219 0054 FB73     		strb	r3, [r7, #15]
 220              	.L8:
 158:.\Generated_Source\PSoC5/cyfitter_cfg.c **** 		while (count != 0u)
 221              		.loc 1 158 0 discriminator 1
 222 0056 FB7B     		ldrb	r3, [r7, #15]	@ zero_extendqisi2
 223 0058 002B     		cmp	r3, #0
 224 005a E8D1     		bne	.L9
 225              	.LBE2:
 153:.\Generated_Source\PSoC5/cyfitter_cfg.c **** 	for (i = 0u; i < CY_CFG_BASE_ADDR_COUNT; i++)
 226              		.loc 1 153 0
 227 005c 7B69     		ldr	r3, [r7, #20]
 228 005e 0133     		adds	r3, r3, #1
 229 0060 7B61     		str	r3, [r7, #20]
 230              	.L7:
 153:.\Generated_Source\PSoC5/cyfitter_cfg.c **** 	for (i = 0u; i < CY_CFG_BASE_ADDR_COUNT; i++)
 231              		.loc 1 153 0 is_stmt 0 discriminator 1
 232 0062 7B69     		ldr	r3, [r7, #20]
 233 0064 2A2B     		cmp	r3, #42
 234 0066 D5D9     		bls	.L10
ARM GAS  C:\Users\xavieran\AppData\Local\Temp\ccKklXac.s 			page 8


 163:.\Generated_Source\PSoC5/cyfitter_cfg.c **** 		}
 164:.\Generated_Source\PSoC5/cyfitter_cfg.c **** 	}
 165:.\Generated_Source\PSoC5/cyfitter_cfg.c **** }
 235              		.loc 1 165 0 is_stmt 1
 236 0068 1C37     		adds	r7, r7, #28
 237 006a BD46     		mov	sp, r7
 238              		@ sp needed
 239 006c 5DF8047B 		ldr	r7, [sp], #4
 240 0070 7047     		bx	lr
 241              		.cfi_endproc
 242              	.LFE4:
 243              		.size	cfg_write_bytes32, .-cfg_write_bytes32
 244 0072 00BF     		.section	.text.ClockSetup,"ax",%progbits
 245              		.align	2
 246              		.thumb
 247              		.thumb_func
 248              		.type	ClockSetup, %function
 249              	ClockSetup:
 250              	.LFB5:
 166:.\Generated_Source\PSoC5/cyfitter_cfg.c **** 
 167:.\Generated_Source\PSoC5/cyfitter_cfg.c **** /*******************************************************************************
 168:.\Generated_Source\PSoC5/cyfitter_cfg.c **** * Function Name: ClockSetup
 169:.\Generated_Source\PSoC5/cyfitter_cfg.c **** ********************************************************************************
 170:.\Generated_Source\PSoC5/cyfitter_cfg.c **** *
 171:.\Generated_Source\PSoC5/cyfitter_cfg.c **** * Summary:
 172:.\Generated_Source\PSoC5/cyfitter_cfg.c **** *  Performs the initialization of all of the clocks in the device based on the
 173:.\Generated_Source\PSoC5/cyfitter_cfg.c **** *  settings in the Clock tab of the DWR.  This includes enabling the requested
 174:.\Generated_Source\PSoC5/cyfitter_cfg.c **** *  clocks and setting the necessary dividers to produce the desired frequency. 
 175:.\Generated_Source\PSoC5/cyfitter_cfg.c **** *
 176:.\Generated_Source\PSoC5/cyfitter_cfg.c **** * Parameters:
 177:.\Generated_Source\PSoC5/cyfitter_cfg.c **** *  void
 178:.\Generated_Source\PSoC5/cyfitter_cfg.c **** *
 179:.\Generated_Source\PSoC5/cyfitter_cfg.c **** * Return:
 180:.\Generated_Source\PSoC5/cyfitter_cfg.c **** *  void
 181:.\Generated_Source\PSoC5/cyfitter_cfg.c **** *
 182:.\Generated_Source\PSoC5/cyfitter_cfg.c **** *******************************************************************************/
 183:.\Generated_Source\PSoC5/cyfitter_cfg.c **** static void ClockSetup(void);
 184:.\Generated_Source\PSoC5/cyfitter_cfg.c **** static void ClockSetup(void)
 185:.\Generated_Source\PSoC5/cyfitter_cfg.c **** {
 251              		.loc 1 185 0
 252              		.cfi_startproc
 253              		@ args = 0, pretend = 0, frame = 8
 254              		@ frame_needed = 1, uses_anonymous_args = 0
 255 0000 80B5     		push	{r7, lr}
 256              		.cfi_def_cfa_offset 8
 257              		.cfi_offset 7, -8
 258              		.cfi_offset 14, -4
 259 0002 82B0     		sub	sp, sp, #8
 260              		.cfi_def_cfa_offset 16
 261 0004 00AF     		add	r7, sp, #0
 262              		.cfi_def_cfa_register 7
 186:.\Generated_Source\PSoC5/cyfitter_cfg.c **** 	uint32 timeout;
 187:.\Generated_Source\PSoC5/cyfitter_cfg.c **** 	uint8 pllLock;
 188:.\Generated_Source\PSoC5/cyfitter_cfg.c **** 
 189:.\Generated_Source\PSoC5/cyfitter_cfg.c **** 
 190:.\Generated_Source\PSoC5/cyfitter_cfg.c **** 	/* Configure Digital Clocks based on settings from Clock DWR */
 191:.\Generated_Source\PSoC5/cyfitter_cfg.c **** 	CY_SET_XTND_REG16((void CYFAR *)(CYREG_CLKDIST_DCFG0_CFG0), 0x0000u);
ARM GAS  C:\Users\xavieran\AppData\Local\Temp\ccKklXac.s 			page 9


 263              		.loc 1 191 0
 264 0006 454B     		ldr	r3, .L16
 265 0008 0022     		movs	r2, #0
 266 000a 1A80     		strh	r2, [r3]	@ movhi
 192:.\Generated_Source\PSoC5/cyfitter_cfg.c **** 	CY_SET_XTND_REG8((void CYFAR *)(CYREG_CLKDIST_DCFG0_CFG0 + 0x2u), 0x19u);
 267              		.loc 1 192 0
 268 000c 444B     		ldr	r3, .L16+4
 269 000e 1922     		movs	r2, #25
 270 0010 1A70     		strb	r2, [r3]
 193:.\Generated_Source\PSoC5/cyfitter_cfg.c **** 	CY_SET_XTND_REG16((void CYFAR *)(CYREG_CLKDIST_DCFG1_CFG0), 0x0001u);
 271              		.loc 1 193 0
 272 0012 444B     		ldr	r3, .L16+8
 273 0014 0122     		movs	r2, #1
 274 0016 1A80     		strh	r2, [r3]	@ movhi
 194:.\Generated_Source\PSoC5/cyfitter_cfg.c **** 	CY_SET_XTND_REG8((void CYFAR *)(CYREG_CLKDIST_DCFG1_CFG0 + 0x2u), 0x19u);
 275              		.loc 1 194 0
 276 0018 434B     		ldr	r3, .L16+12
 277 001a 1922     		movs	r2, #25
 278 001c 1A70     		strb	r2, [r3]
 195:.\Generated_Source\PSoC5/cyfitter_cfg.c **** 	CY_SET_XTND_REG16((void CYFAR *)(CYREG_CLKDIST_DCFG2_CFG0), 0x0009u);
 279              		.loc 1 195 0
 280 001e 434B     		ldr	r3, .L16+16
 281 0020 0922     		movs	r2, #9
 282 0022 1A80     		strh	r2, [r3]	@ movhi
 196:.\Generated_Source\PSoC5/cyfitter_cfg.c **** 	CY_SET_XTND_REG8((void CYFAR *)(CYREG_CLKDIST_DCFG2_CFG0 + 0x2u), 0x18u);
 283              		.loc 1 196 0
 284 0024 424B     		ldr	r3, .L16+20
 285 0026 1822     		movs	r2, #24
 286 0028 1A70     		strb	r2, [r3]
 197:.\Generated_Source\PSoC5/cyfitter_cfg.c **** 	CY_SET_XTND_REG16((void CYFAR *)(CYREG_CLKDIST_DCFG3_CFG0), 0x0041u);
 287              		.loc 1 197 0
 288 002a 424B     		ldr	r3, .L16+24
 289 002c 4122     		movs	r2, #65
 290 002e 1A80     		strh	r2, [r3]	@ movhi
 198:.\Generated_Source\PSoC5/cyfitter_cfg.c **** 	CY_SET_XTND_REG8((void CYFAR *)(CYREG_CLKDIST_DCFG3_CFG0 + 0x2u), 0x18u);
 291              		.loc 1 198 0
 292 0030 414B     		ldr	r3, .L16+28
 293 0032 1822     		movs	r2, #24
 294 0034 1A70     		strb	r2, [r3]
 199:.\Generated_Source\PSoC5/cyfitter_cfg.c **** 	CY_SET_XTND_REG16((void CYFAR *)(CYREG_CLKDIST_DCFG4_CFG0), 0x0293u);
 295              		.loc 1 199 0
 296 0036 414B     		ldr	r3, .L16+32
 297 0038 40F29322 		movw	r2, #659
 298 003c 1A80     		strh	r2, [r3]	@ movhi
 200:.\Generated_Source\PSoC5/cyfitter_cfg.c **** 	CY_SET_XTND_REG8((void CYFAR *)(CYREG_CLKDIST_DCFG4_CFG0 + 0x2u), 0x18u);
 299              		.loc 1 200 0
 300 003e 404B     		ldr	r3, .L16+36
 301 0040 1822     		movs	r2, #24
 302 0042 1A70     		strb	r2, [r3]
 201:.\Generated_Source\PSoC5/cyfitter_cfg.c **** 	CY_SET_XTND_REG16((void CYFAR *)(CYREG_CLKDIST_DCFG5_CFG0), 0x0671u);
 303              		.loc 1 201 0
 304 0044 3F4B     		ldr	r3, .L16+40
 305 0046 40F27162 		movw	r2, #1649
 306 004a 1A80     		strh	r2, [r3]	@ movhi
 202:.\Generated_Source\PSoC5/cyfitter_cfg.c **** 	CY_SET_XTND_REG8((void CYFAR *)(CYREG_CLKDIST_DCFG5_CFG0 + 0x2u), 0x18u);
 307              		.loc 1 202 0
 308 004c 3E4B     		ldr	r3, .L16+44
ARM GAS  C:\Users\xavieran\AppData\Local\Temp\ccKklXac.s 			page 10


 309 004e 1822     		movs	r2, #24
 310 0050 1A70     		strb	r2, [r3]
 203:.\Generated_Source\PSoC5/cyfitter_cfg.c **** 	CY_SET_XTND_REG16((void CYFAR *)(CYREG_CLKDIST_DCFG6_CFG0), 0x06C8u);
 311              		.loc 1 203 0
 312 0052 3E4B     		ldr	r3, .L16+48
 313 0054 4FF4D962 		mov	r2, #1736
 314 0058 1A80     		strh	r2, [r3]	@ movhi
 204:.\Generated_Source\PSoC5/cyfitter_cfg.c **** 	CY_SET_XTND_REG8((void CYFAR *)(CYREG_CLKDIST_DCFG6_CFG0 + 0x2u), 0x18u);
 315              		.loc 1 204 0
 316 005a 3D4B     		ldr	r3, .L16+52
 317 005c 1822     		movs	r2, #24
 318 005e 1A70     		strb	r2, [r3]
 205:.\Generated_Source\PSoC5/cyfitter_cfg.c **** 	CY_SET_XTND_REG16((void CYFAR *)(CYREG_CLKDIST_DCFG7_CFG0), 0x19C7u);
 319              		.loc 1 205 0
 320 0060 3C4B     		ldr	r3, .L16+56
 321 0062 41F6C712 		movw	r2, #6599
 322 0066 1A80     		strh	r2, [r3]	@ movhi
 206:.\Generated_Source\PSoC5/cyfitter_cfg.c **** 	CY_SET_XTND_REG8((void CYFAR *)(CYREG_CLKDIST_DCFG7_CFG0 + 0x2u), 0x18u);
 323              		.loc 1 206 0
 324 0068 3B4B     		ldr	r3, .L16+60
 325 006a 1822     		movs	r2, #24
 326 006c 1A70     		strb	r2, [r3]
 207:.\Generated_Source\PSoC5/cyfitter_cfg.c **** 
 208:.\Generated_Source\PSoC5/cyfitter_cfg.c **** 	/* Configure ILO based on settings from Clock DWR */
 209:.\Generated_Source\PSoC5/cyfitter_cfg.c **** 	CY_SET_XTND_REG8((void CYFAR *)(CYREG_SLOWCLK_ILO_CR0), 0x06u);
 327              		.loc 1 209 0
 328 006e 3B4B     		ldr	r3, .L16+64
 329 0070 0622     		movs	r2, #6
 330 0072 1A70     		strb	r2, [r3]
 210:.\Generated_Source\PSoC5/cyfitter_cfg.c **** 
 211:.\Generated_Source\PSoC5/cyfitter_cfg.c **** 	/* Configure IMO based on settings from Clock DWR */
 212:.\Generated_Source\PSoC5/cyfitter_cfg.c **** 	CY_SET_XTND_REG8((void CYFAR *)(CYREG_FASTCLK_IMO_CR), 0x52u);
 331              		.loc 1 212 0
 332 0074 3A4B     		ldr	r3, .L16+68
 333 0076 5222     		movs	r2, #82
 334 0078 1A70     		strb	r2, [r3]
 213:.\Generated_Source\PSoC5/cyfitter_cfg.c **** 	CY_SET_XTND_REG8((void CYFAR *)(CYREG_IMO_TR1), (CY_GET_XTND_REG8((void CYFAR *)CYREG_FLSHID_CUST_
 335              		.loc 1 213 0
 336 007a 3A4B     		ldr	r3, .L16+72
 337 007c 3A4A     		ldr	r2, .L16+76
 338 007e 1278     		ldrb	r2, [r2]
 339 0080 D2B2     		uxtb	r2, r2
 340 0082 1A70     		strb	r2, [r3]
 214:.\Generated_Source\PSoC5/cyfitter_cfg.c **** 
 215:.\Generated_Source\PSoC5/cyfitter_cfg.c **** 	/* Configure PLL based on settings from Clock DWR */
 216:.\Generated_Source\PSoC5/cyfitter_cfg.c **** 	CY_SET_XTND_REG16((void CYFAR *)(CYREG_FASTCLK_PLL_P), 0x0B21u);
 341              		.loc 1 216 0
 342 0084 394B     		ldr	r3, .L16+80
 343 0086 40F62132 		movw	r2, #2849
 344 008a 1A80     		strh	r2, [r3]	@ movhi
 217:.\Generated_Source\PSoC5/cyfitter_cfg.c **** 	CY_SET_XTND_REG16((void CYFAR *)(CYREG_FASTCLK_PLL_CFG0), 0x1251u);
 345              		.loc 1 217 0
 346 008c 384B     		ldr	r3, .L16+84
 347 008e 41F25122 		movw	r2, #4689
 348 0092 1A80     		strh	r2, [r3]	@ movhi
 218:.\Generated_Source\PSoC5/cyfitter_cfg.c **** 	/* Wait up to 250us for the PLL to lock */
 219:.\Generated_Source\PSoC5/cyfitter_cfg.c **** 	pllLock = 0u;
ARM GAS  C:\Users\xavieran\AppData\Local\Temp\ccKklXac.s 			page 11


 349              		.loc 1 219 0
 350 0094 0023     		movs	r3, #0
 351 0096 FB70     		strb	r3, [r7, #3]
 220:.\Generated_Source\PSoC5/cyfitter_cfg.c **** 	for (timeout = 250u / 10u; (timeout > 0u) && (pllLock != 0x03u); timeout--)
 352              		.loc 1 220 0
 353 0098 1923     		movs	r3, #25
 354 009a 7B60     		str	r3, [r7, #4]
 355 009c 14E0     		b	.L12
 356              	.L14:
 221:.\Generated_Source\PSoC5/cyfitter_cfg.c **** 	{ 
 222:.\Generated_Source\PSoC5/cyfitter_cfg.c **** 		pllLock = 0x03u & ((uint8)((uint8)pllLock << 1) | ((CY_GET_XTND_REG8((void CYFAR *)CYREG_FASTCLK_
 357              		.loc 1 222 0 discriminator 1
 358 009e FB78     		ldrb	r3, [r7, #3]
 359 00a0 5B00     		lsls	r3, r3, #1
 360 00a2 DAB2     		uxtb	r2, r3
 361 00a4 334B     		ldr	r3, .L16+88
 362 00a6 1B78     		ldrb	r3, [r3]
 363 00a8 DBB2     		uxtb	r3, r3
 364 00aa 03F00103 		and	r3, r3, #1
 365 00ae DBB2     		uxtb	r3, r3
 366 00b0 1343     		orrs	r3, r3, r2
 367 00b2 DBB2     		uxtb	r3, r3
 368 00b4 03F00303 		and	r3, r3, #3
 369 00b8 FB70     		strb	r3, [r7, #3]
 223:.\Generated_Source\PSoC5/cyfitter_cfg.c **** 		CyDelayCycles(10u * 48u); /* Delay 10us based on 48MHz clock */
 370              		.loc 1 223 0 discriminator 1
 371 00ba 4FF4F070 		mov	r0, #480
 372 00be FFF7FEFF 		bl	CyDelayCycles
 220:.\Generated_Source\PSoC5/cyfitter_cfg.c **** 	for (timeout = 250u / 10u; (timeout > 0u) && (pllLock != 0x03u); timeout--)
 373              		.loc 1 220 0 discriminator 1
 374 00c2 7B68     		ldr	r3, [r7, #4]
 375 00c4 013B     		subs	r3, r3, #1
 376 00c6 7B60     		str	r3, [r7, #4]
 377              	.L12:
 378 00c8 7B68     		ldr	r3, [r7, #4]
 379 00ca 002B     		cmp	r3, #0
 380 00cc 02D0     		beq	.L13
 220:.\Generated_Source\PSoC5/cyfitter_cfg.c **** 	for (timeout = 250u / 10u; (timeout > 0u) && (pllLock != 0x03u); timeout--)
 381              		.loc 1 220 0 is_stmt 0 discriminator 2
 382 00ce FB78     		ldrb	r3, [r7, #3]	@ zero_extendqisi2
 383 00d0 032B     		cmp	r3, #3
 384 00d2 E4D1     		bne	.L14
 385              	.L13:
 224:.\Generated_Source\PSoC5/cyfitter_cfg.c **** 	}
 225:.\Generated_Source\PSoC5/cyfitter_cfg.c **** 	/* If we ran out of time the PLL didn't lock so go to the error function */
 226:.\Generated_Source\PSoC5/cyfitter_cfg.c **** 	if (timeout == 0u)
 386              		.loc 1 226 0 is_stmt 1
 387 00d4 7B68     		ldr	r3, [r7, #4]
 388 00d6 002B     		cmp	r3, #0
 389 00d8 02D1     		bne	.L15
 227:.\Generated_Source\PSoC5/cyfitter_cfg.c **** 	{
 228:.\Generated_Source\PSoC5/cyfitter_cfg.c **** 		CyClockStartupError(CYCLOCKSTART_PLL_ERROR);
 390              		.loc 1 228 0
 391 00da 0320     		movs	r0, #3
 392 00dc FFF7FEFF 		bl	CyClockStartupError
 393              	.L15:
 229:.\Generated_Source\PSoC5/cyfitter_cfg.c **** 	}
ARM GAS  C:\Users\xavieran\AppData\Local\Temp\ccKklXac.s 			page 12


 230:.\Generated_Source\PSoC5/cyfitter_cfg.c **** 
 231:.\Generated_Source\PSoC5/cyfitter_cfg.c **** 	/* Configure Bus/Master Clock based on settings from Clock DWR */
 232:.\Generated_Source\PSoC5/cyfitter_cfg.c **** 	CY_SET_XTND_REG16((void CYFAR *)(CYREG_CLKDIST_MSTR0), 0x0100u);
 394              		.loc 1 232 0
 395 00e0 254B     		ldr	r3, .L16+92
 396 00e2 4FF48072 		mov	r2, #256
 397 00e6 1A80     		strh	r2, [r3]	@ movhi
 233:.\Generated_Source\PSoC5/cyfitter_cfg.c **** 	CY_SET_XTND_REG8((void CYFAR *)(CYREG_CLKDIST_MSTR0), 0x07u);
 398              		.loc 1 233 0
 399 00e8 234B     		ldr	r3, .L16+92
 400 00ea 0722     		movs	r2, #7
 401 00ec 1A70     		strb	r2, [r3]
 234:.\Generated_Source\PSoC5/cyfitter_cfg.c **** 	CY_SET_XTND_REG8((void CYFAR *)(CYREG_CLKDIST_BCFG0), 0x00u);
 402              		.loc 1 234 0
 403 00ee 234B     		ldr	r3, .L16+96
 404 00f0 0022     		movs	r2, #0
 405 00f2 1A70     		strb	r2, [r3]
 235:.\Generated_Source\PSoC5/cyfitter_cfg.c **** 	CY_SET_XTND_REG8((void CYFAR *)(CYREG_CLKDIST_BCFG2), 0x48u);
 406              		.loc 1 235 0
 407 00f4 224B     		ldr	r3, .L16+100
 408 00f6 4822     		movs	r2, #72
 409 00f8 1A70     		strb	r2, [r3]
 236:.\Generated_Source\PSoC5/cyfitter_cfg.c **** 	CY_SET_XTND_REG8((void CYFAR *)(CYREG_CLKDIST_MSTR0), 0x00u);
 410              		.loc 1 236 0
 411 00fa 1F4B     		ldr	r3, .L16+92
 412 00fc 0022     		movs	r2, #0
 413 00fe 1A70     		strb	r2, [r3]
 237:.\Generated_Source\PSoC5/cyfitter_cfg.c **** 
 238:.\Generated_Source\PSoC5/cyfitter_cfg.c **** 	/* Configure USB Clock based on settings from Clock DWR */
 239:.\Generated_Source\PSoC5/cyfitter_cfg.c **** 	CY_SET_XTND_REG8((void CYFAR *)(CYREG_CLKDIST_UCFG), 0x00u);
 414              		.loc 1 239 0
 415 0100 204B     		ldr	r3, .L16+104
 416 0102 0022     		movs	r2, #0
 417 0104 1A70     		strb	r2, [r3]
 240:.\Generated_Source\PSoC5/cyfitter_cfg.c **** 	CY_SET_XTND_REG8((void CYFAR *)(CYREG_CLKDIST_LD), 0x02u);
 418              		.loc 1 240 0
 419 0106 204B     		ldr	r3, .L16+108
 420 0108 0222     		movs	r2, #2
 421 010a 1A70     		strb	r2, [r3]
 241:.\Generated_Source\PSoC5/cyfitter_cfg.c **** 
 242:.\Generated_Source\PSoC5/cyfitter_cfg.c **** 	CY_SET_XTND_REG8((void CYFAR *)(CYREG_PM_ACT_CFG2), ((CY_GET_XTND_REG8((void CYFAR *)CYREG_PM_ACT_
 422              		.loc 1 242 0
 423 010c 1F4B     		ldr	r3, .L16+112
 424 010e 1B78     		ldrb	r3, [r3]
 425 0110 1E4B     		ldr	r3, .L16+112
 426 0112 FF22     		movs	r2, #255
 427 0114 1A70     		strb	r2, [r3]
 243:.\Generated_Source\PSoC5/cyfitter_cfg.c **** }
 428              		.loc 1 243 0
 429 0116 0837     		adds	r7, r7, #8
 430 0118 BD46     		mov	sp, r7
 431              		@ sp needed
 432 011a 80BD     		pop	{r7, pc}
 433              	.L17:
 434              		.align	2
 435              	.L16:
 436 011c 80400040 		.word	1073758336
ARM GAS  C:\Users\xavieran\AppData\Local\Temp\ccKklXac.s 			page 13


 437 0120 82400040 		.word	1073758338
 438 0124 84400040 		.word	1073758340
 439 0128 86400040 		.word	1073758342
 440 012c 88400040 		.word	1073758344
 441 0130 8A400040 		.word	1073758346
 442 0134 8C400040 		.word	1073758348
 443 0138 8E400040 		.word	1073758350
 444 013c 90400040 		.word	1073758352
 445 0140 92400040 		.word	1073758354
 446 0144 94400040 		.word	1073758356
 447 0148 96400040 		.word	1073758358
 448 014c 98400040 		.word	1073758360
 449 0150 9A400040 		.word	1073758362
 450 0154 9C400040 		.word	1073758364
 451 0158 9E400040 		.word	1073758366
 452 015c 00430040 		.word	1073758976
 453 0160 00420040 		.word	1073758720
 454 0164 A1460040 		.word	1073759905
 455 0168 0F010049 		.word	1224737039
 456 016c 22420040 		.word	1073758754
 457 0170 20420040 		.word	1073758752
 458 0174 25420040 		.word	1073758757
 459 0178 04400040 		.word	1073758212
 460 017c 06400040 		.word	1073758214
 461 0180 08400040 		.word	1073758216
 462 0184 09400040 		.word	1073758217
 463 0188 01400040 		.word	1073758209
 464 018c A2430040 		.word	1073759138
 465              		.cfi_endproc
 466              	.LFE5:
 467              		.size	ClockSetup, .-ClockSetup
 468              		.section	.text.AnalogSetDefault,"ax",%progbits
 469              		.align	2
 470              		.thumb
 471              		.thumb_func
 472              		.type	AnalogSetDefault, %function
 473              	AnalogSetDefault:
 474              	.LFB6:
 244:.\Generated_Source\PSoC5/cyfitter_cfg.c **** 
 245:.\Generated_Source\PSoC5/cyfitter_cfg.c **** 
 246:.\Generated_Source\PSoC5/cyfitter_cfg.c **** /* Analog API Functions */
 247:.\Generated_Source\PSoC5/cyfitter_cfg.c **** 
 248:.\Generated_Source\PSoC5/cyfitter_cfg.c **** 
 249:.\Generated_Source\PSoC5/cyfitter_cfg.c **** /*******************************************************************************
 250:.\Generated_Source\PSoC5/cyfitter_cfg.c **** * Function Name: AnalogSetDefault
 251:.\Generated_Source\PSoC5/cyfitter_cfg.c **** ********************************************************************************
 252:.\Generated_Source\PSoC5/cyfitter_cfg.c **** *
 253:.\Generated_Source\PSoC5/cyfitter_cfg.c **** * Summary:
 254:.\Generated_Source\PSoC5/cyfitter_cfg.c **** *  Sets up the analog portions of the chip to default values based on chip
 255:.\Generated_Source\PSoC5/cyfitter_cfg.c **** *  configuration options from the project.
 256:.\Generated_Source\PSoC5/cyfitter_cfg.c **** *
 257:.\Generated_Source\PSoC5/cyfitter_cfg.c **** * Parameters:
 258:.\Generated_Source\PSoC5/cyfitter_cfg.c **** *  void
 259:.\Generated_Source\PSoC5/cyfitter_cfg.c **** *
 260:.\Generated_Source\PSoC5/cyfitter_cfg.c **** * Return:
 261:.\Generated_Source\PSoC5/cyfitter_cfg.c **** *  void
 262:.\Generated_Source\PSoC5/cyfitter_cfg.c **** *
ARM GAS  C:\Users\xavieran\AppData\Local\Temp\ccKklXac.s 			page 14


 263:.\Generated_Source\PSoC5/cyfitter_cfg.c **** *******************************************************************************/
 264:.\Generated_Source\PSoC5/cyfitter_cfg.c **** static void AnalogSetDefault(void);
 265:.\Generated_Source\PSoC5/cyfitter_cfg.c **** static void AnalogSetDefault(void)
 266:.\Generated_Source\PSoC5/cyfitter_cfg.c **** {
 475              		.loc 1 266 0
 476              		.cfi_startproc
 477              		@ args = 0, pretend = 0, frame = 8
 478              		@ frame_needed = 1, uses_anonymous_args = 0
 479              		@ link register save eliminated.
 480 0000 80B4     		push	{r7}
 481              		.cfi_def_cfa_offset 4
 482              		.cfi_offset 7, -4
 483 0002 83B0     		sub	sp, sp, #12
 484              		.cfi_def_cfa_offset 16
 485 0004 00AF     		add	r7, sp, #0
 486              		.cfi_def_cfa_register 7
 267:.\Generated_Source\PSoC5/cyfitter_cfg.c **** 	uint8 bg_xover_inl_trim = CY_GET_XTND_REG8((void CYFAR *)(CYREG_FLSHID_MFG_CFG_BG_XOVER_INL_TRIM +
 487              		.loc 1 267 0
 488 0006 0B4B     		ldr	r3, .L19
 489 0008 1B78     		ldrb	r3, [r3]
 490 000a FB71     		strb	r3, [r7, #7]
 268:.\Generated_Source\PSoC5/cyfitter_cfg.c **** 	CY_SET_XTND_REG8((void CYFAR *)(CYREG_BG_DFT0), (bg_xover_inl_trim & 0x07u));
 491              		.loc 1 268 0
 492 000c 0A4B     		ldr	r3, .L19+4
 493 000e FA79     		ldrb	r2, [r7, #7]
 494 0010 02F00702 		and	r2, r2, #7
 495 0014 D2B2     		uxtb	r2, r2
 496 0016 1A70     		strb	r2, [r3]
 269:.\Generated_Source\PSoC5/cyfitter_cfg.c **** 	CY_SET_XTND_REG8((void CYFAR *)(CYREG_BG_DFT1), ((bg_xover_inl_trim >> 4) & 0x0Fu));
 497              		.loc 1 269 0
 498 0018 084B     		ldr	r3, .L19+8
 499 001a FA79     		ldrb	r2, [r7, #7]	@ zero_extendqisi2
 500 001c 1209     		lsrs	r2, r2, #4
 501 001e D2B2     		uxtb	r2, r2
 502 0020 1A70     		strb	r2, [r3]
 270:.\Generated_Source\PSoC5/cyfitter_cfg.c **** 	CY_SET_XTND_REG8((void CYFAR *)CYREG_PUMP_CR0, 0x44u);
 503              		.loc 1 270 0
 504 0022 074B     		ldr	r3, .L19+12
 505 0024 4422     		movs	r2, #68
 506 0026 1A70     		strb	r2, [r3]
 271:.\Generated_Source\PSoC5/cyfitter_cfg.c **** }
 507              		.loc 1 271 0
 508 0028 0C37     		adds	r7, r7, #12
 509 002a BD46     		mov	sp, r7
 510              		@ sp needed
 511 002c 5DF8047B 		ldr	r7, [sp], #4
 512 0030 7047     		bx	lr
 513              	.L20:
 514 0032 00BF     		.align	2
 515              	.L19:
 516 0034 CF010049 		.word	1224737231
 517 0038 6E580040 		.word	1073764462
 518 003c 6F580040 		.word	1073764463
 519 0040 76580040 		.word	1073764470
 520              		.cfi_endproc
 521              	.LFE6:
 522              		.size	AnalogSetDefault, .-AnalogSetDefault
ARM GAS  C:\Users\xavieran\AppData\Local\Temp\ccKklXac.s 			page 15


 523              		.section	.text.SetAnalogRoutingPumps,"ax",%progbits
 524              		.align	2
 525              		.global	SetAnalogRoutingPumps
 526              		.thumb
 527              		.thumb_func
 528              		.type	SetAnalogRoutingPumps, %function
 529              	SetAnalogRoutingPumps:
 530              	.LFB7:
 272:.\Generated_Source\PSoC5/cyfitter_cfg.c **** 
 273:.\Generated_Source\PSoC5/cyfitter_cfg.c **** 
 274:.\Generated_Source\PSoC5/cyfitter_cfg.c **** /*******************************************************************************
 275:.\Generated_Source\PSoC5/cyfitter_cfg.c **** * Function Name: SetAnalogRoutingPumps
 276:.\Generated_Source\PSoC5/cyfitter_cfg.c **** ********************************************************************************
 277:.\Generated_Source\PSoC5/cyfitter_cfg.c **** *
 278:.\Generated_Source\PSoC5/cyfitter_cfg.c **** * Summary:
 279:.\Generated_Source\PSoC5/cyfitter_cfg.c **** * Enables or disables the analog pumps feeding analog routing switches.
 280:.\Generated_Source\PSoC5/cyfitter_cfg.c **** * Intended to be called at startup, based on the Vdda system configuration;
 281:.\Generated_Source\PSoC5/cyfitter_cfg.c **** * may be called during operation when the user informs us that the Vdda voltage
 282:.\Generated_Source\PSoC5/cyfitter_cfg.c **** * crossed the pump threshold.
 283:.\Generated_Source\PSoC5/cyfitter_cfg.c **** *
 284:.\Generated_Source\PSoC5/cyfitter_cfg.c **** * Parameters:
 285:.\Generated_Source\PSoC5/cyfitter_cfg.c **** *  enabled - 1 to enable the pumps, 0 to disable the pumps
 286:.\Generated_Source\PSoC5/cyfitter_cfg.c **** *
 287:.\Generated_Source\PSoC5/cyfitter_cfg.c **** * Return:
 288:.\Generated_Source\PSoC5/cyfitter_cfg.c **** *  void
 289:.\Generated_Source\PSoC5/cyfitter_cfg.c **** *
 290:.\Generated_Source\PSoC5/cyfitter_cfg.c **** *******************************************************************************/
 291:.\Generated_Source\PSoC5/cyfitter_cfg.c **** void SetAnalogRoutingPumps(uint8 enabled)
 292:.\Generated_Source\PSoC5/cyfitter_cfg.c **** {
 531              		.loc 1 292 0
 532              		.cfi_startproc
 533              		@ args = 0, pretend = 0, frame = 16
 534              		@ frame_needed = 1, uses_anonymous_args = 0
 535              		@ link register save eliminated.
 536 0000 80B4     		push	{r7}
 537              		.cfi_def_cfa_offset 4
 538              		.cfi_offset 7, -4
 539 0002 85B0     		sub	sp, sp, #20
 540              		.cfi_def_cfa_offset 24
 541 0004 00AF     		add	r7, sp, #0
 542              		.cfi_def_cfa_register 7
 543 0006 0346     		mov	r3, r0
 544 0008 FB71     		strb	r3, [r7, #7]
 293:.\Generated_Source\PSoC5/cyfitter_cfg.c **** 	uint8 regValue = CY_GET_XTND_REG8((void CYFAR *)CYREG_PUMP_CR0);
 545              		.loc 1 293 0
 546 000a 064B     		ldr	r3, .L24
 547 000c 1B78     		ldrb	r3, [r3]
 548 000e FB73     		strb	r3, [r7, #15]
 294:.\Generated_Source\PSoC5/cyfitter_cfg.c **** 	if (enabled != 0u)
 549              		.loc 1 294 0
 550 0010 FB79     		ldrb	r3, [r7, #7]	@ zero_extendqisi2
 551 0012 002B     		cmp	r3, #0
 295:.\Generated_Source\PSoC5/cyfitter_cfg.c **** 	{
 296:.\Generated_Source\PSoC5/cyfitter_cfg.c **** 		regValue |= 0x00u;
 297:.\Generated_Source\PSoC5/cyfitter_cfg.c **** 	}
 298:.\Generated_Source\PSoC5/cyfitter_cfg.c **** 	else
 299:.\Generated_Source\PSoC5/cyfitter_cfg.c **** 	{
ARM GAS  C:\Users\xavieran\AppData\Local\Temp\ccKklXac.s 			page 16


 300:.\Generated_Source\PSoC5/cyfitter_cfg.c **** 		regValue &= (uint8)~0x00u;
 301:.\Generated_Source\PSoC5/cyfitter_cfg.c **** 	}
 302:.\Generated_Source\PSoC5/cyfitter_cfg.c **** 	CY_SET_XTND_REG8((void CYFAR *)CYREG_PUMP_CR0, regValue);
 552              		.loc 1 302 0
 553 0014 034B     		ldr	r3, .L24
 554 0016 FA7B     		ldrb	r2, [r7, #15]
 555 0018 1A70     		strb	r2, [r3]
 303:.\Generated_Source\PSoC5/cyfitter_cfg.c **** }
 556              		.loc 1 303 0
 557 001a 1437     		adds	r7, r7, #20
 558 001c BD46     		mov	sp, r7
 559              		@ sp needed
 560 001e 5DF8047B 		ldr	r7, [sp], #4
 561 0022 7047     		bx	lr
 562              	.L25:
 563              		.align	2
 564              	.L24:
 565 0024 76580040 		.word	1073764470
 566              		.cfi_endproc
 567              	.LFE7:
 568              		.size	SetAnalogRoutingPumps, .-SetAnalogRoutingPumps
 569              		.section	.text.cyfitter_cfg,"ax",%progbits
 570              		.align	2
 571              		.global	cyfitter_cfg
 572              		.thumb
 573              		.thumb_func
 574              		.type	cyfitter_cfg, %function
 575              	cyfitter_cfg:
 576              	.LFB8:
 304:.\Generated_Source\PSoC5/cyfitter_cfg.c **** 
 305:.\Generated_Source\PSoC5/cyfitter_cfg.c **** #define CY_AMUX_UNUSED CYREG_BOOST_SR
 306:.\Generated_Source\PSoC5/cyfitter_cfg.c **** 
 307:.\Generated_Source\PSoC5/cyfitter_cfg.c **** 
 308:.\Generated_Source\PSoC5/cyfitter_cfg.c **** /*******************************************************************************
 309:.\Generated_Source\PSoC5/cyfitter_cfg.c **** * Function Name: cyfitter_cfg
 310:.\Generated_Source\PSoC5/cyfitter_cfg.c **** ********************************************************************************
 311:.\Generated_Source\PSoC5/cyfitter_cfg.c **** * Summary:
 312:.\Generated_Source\PSoC5/cyfitter_cfg.c **** *  This function is called by the start-up code for the selected device. It
 313:.\Generated_Source\PSoC5/cyfitter_cfg.c **** *  performs all of the necessary device configuration based on the design
 314:.\Generated_Source\PSoC5/cyfitter_cfg.c **** *  settings.  This includes settings from the Design Wide Resources (DWR) such
 315:.\Generated_Source\PSoC5/cyfitter_cfg.c **** *  as Clocks and Pins as well as any component configuration that is necessary.
 316:.\Generated_Source\PSoC5/cyfitter_cfg.c **** *
 317:.\Generated_Source\PSoC5/cyfitter_cfg.c **** * Parameters:  
 318:.\Generated_Source\PSoC5/cyfitter_cfg.c **** *   void
 319:.\Generated_Source\PSoC5/cyfitter_cfg.c **** *
 320:.\Generated_Source\PSoC5/cyfitter_cfg.c **** * Return:
 321:.\Generated_Source\PSoC5/cyfitter_cfg.c **** *   void
 322:.\Generated_Source\PSoC5/cyfitter_cfg.c **** *
 323:.\Generated_Source\PSoC5/cyfitter_cfg.c **** *******************************************************************************/
 324:.\Generated_Source\PSoC5/cyfitter_cfg.c **** 
 325:.\Generated_Source\PSoC5/cyfitter_cfg.c **** void cyfitter_cfg(void)
 326:.\Generated_Source\PSoC5/cyfitter_cfg.c **** {
 577              		.loc 1 326 0
 578              		.cfi_startproc
 579              		@ args = 0, pretend = 0, frame = 24
 580              		@ frame_needed = 1, uses_anonymous_args = 0
 581 0000 80B5     		push	{r7, lr}
ARM GAS  C:\Users\xavieran\AppData\Local\Temp\ccKklXac.s 			page 17


 582              		.cfi_def_cfa_offset 8
 583              		.cfi_offset 7, -8
 584              		.cfi_offset 14, -4
 585 0002 86B0     		sub	sp, sp, #24
 586              		.cfi_def_cfa_offset 32
 587 0004 00AF     		add	r7, sp, #0
 588              		.cfi_def_cfa_register 7
 327:.\Generated_Source\PSoC5/cyfitter_cfg.c **** 	/* IOPINS0_0 Address: CYREG_PRT0_DM0 Size (bytes): 8 */
 328:.\Generated_Source\PSoC5/cyfitter_cfg.c **** 	static const uint8 CYCODE BS_IOPINS0_0_VAL[] = {
 329:.\Generated_Source\PSoC5/cyfitter_cfg.c **** 		0x03u, 0xF4u, 0xF4u, 0x00u, 0xF0u, 0x00u, 0x00u, 0x00u};
 330:.\Generated_Source\PSoC5/cyfitter_cfg.c **** 
 331:.\Generated_Source\PSoC5/cyfitter_cfg.c **** 	/* IOPINS0_7 Address: CYREG_PRT12_DM0 Size (bytes): 8 */
 332:.\Generated_Source\PSoC5/cyfitter_cfg.c **** 	static const uint8 CYCODE BS_IOPINS0_7_VAL[] = {
 333:.\Generated_Source\PSoC5/cyfitter_cfg.c **** 		0xC2u, 0x2Du, 0xADu, 0x00u, 0x2Du, 0x00u, 0x00u, 0x00u};
 334:.\Generated_Source\PSoC5/cyfitter_cfg.c **** 
 335:.\Generated_Source\PSoC5/cyfitter_cfg.c **** 	/* IOPINS0_8 Address: CYREG_PRT15_DR Size (bytes): 10 */
 336:.\Generated_Source\PSoC5/cyfitter_cfg.c **** 	static const uint8 CYCODE BS_IOPINS0_8_VAL[] = {
 337:.\Generated_Source\PSoC5/cyfitter_cfg.c **** 		0x00u, 0x00u, 0x20u, 0x18u, 0x18u, 0x00u, 0x18u, 0x00u, 0xC0u, 0x00u};
 338:.\Generated_Source\PSoC5/cyfitter_cfg.c **** 
 339:.\Generated_Source\PSoC5/cyfitter_cfg.c **** 	/* IOPINS0_1 Address: CYREG_PRT1_DR Size (bytes): 10 */
 340:.\Generated_Source\PSoC5/cyfitter_cfg.c **** 	static const uint8 CYCODE BS_IOPINS0_1_VAL[] = {
 341:.\Generated_Source\PSoC5/cyfitter_cfg.c **** 		0xC0u, 0x00u, 0x00u, 0x00u, 0xC0u, 0x00u, 0xC0u, 0x00u, 0x00u, 0x00u};
 342:.\Generated_Source\PSoC5/cyfitter_cfg.c **** 
 343:.\Generated_Source\PSoC5/cyfitter_cfg.c **** 	/* IOPINS0_2 Address: CYREG_PRT2_DR Size (bytes): 10 */
 344:.\Generated_Source\PSoC5/cyfitter_cfg.c **** 	static const uint8 CYCODE BS_IOPINS0_2_VAL[] = {
 345:.\Generated_Source\PSoC5/cyfitter_cfg.c **** 		0x30u, 0x00u, 0x05u, 0x00u, 0x30u, 0x00u, 0x30u, 0x00u, 0x00u, 0x00u};
 346:.\Generated_Source\PSoC5/cyfitter_cfg.c **** 
 347:.\Generated_Source\PSoC5/cyfitter_cfg.c **** 	/* IOPINS0_3 Address: CYREG_PRT3_DR Size (bytes): 10 */
 348:.\Generated_Source\PSoC5/cyfitter_cfg.c **** 	static const uint8 CYCODE BS_IOPINS0_3_VAL[] = {
 349:.\Generated_Source\PSoC5/cyfitter_cfg.c **** 		0x08u, 0x00u, 0x04u, 0x08u, 0x08u, 0x00u, 0x08u, 0x00u, 0x00u, 0x00u};
 350:.\Generated_Source\PSoC5/cyfitter_cfg.c **** 
 351:.\Generated_Source\PSoC5/cyfitter_cfg.c **** 	/* IOPINS0_4 Address: CYREG_PRT4_DM0 Size (bytes): 8 */
 352:.\Generated_Source\PSoC5/cyfitter_cfg.c **** 	static const uint8 CYCODE BS_IOPINS0_4_VAL[] = {
 353:.\Generated_Source\PSoC5/cyfitter_cfg.c **** 		0xF0u, 0x03u, 0x03u, 0x00u, 0x03u, 0x00u, 0x00u, 0x01u};
 354:.\Generated_Source\PSoC5/cyfitter_cfg.c **** 
 355:.\Generated_Source\PSoC5/cyfitter_cfg.c **** 	/* IOPINS0_5 Address: CYREG_PRT5_DM0 Size (bytes): 8 */
 356:.\Generated_Source\PSoC5/cyfitter_cfg.c **** 	static const uint8 CYCODE BS_IOPINS0_5_VAL[] = {
 357:.\Generated_Source\PSoC5/cyfitter_cfg.c **** 		0xF0u, 0x83u, 0x73u, 0x00u, 0x82u, 0x00u, 0x00u, 0x00u};
 358:.\Generated_Source\PSoC5/cyfitter_cfg.c **** 
 359:.\Generated_Source\PSoC5/cyfitter_cfg.c **** 	/* IOPINS0_6 Address: CYREG_PRT6_DM0 Size (bytes): 8 */
 360:.\Generated_Source\PSoC5/cyfitter_cfg.c **** 	static const uint8 CYCODE BS_IOPINS0_6_VAL[] = {
 361:.\Generated_Source\PSoC5/cyfitter_cfg.c **** 		0x1Fu, 0xF0u, 0xE0u, 0x00u, 0x10u, 0x00u, 0x00u, 0x00u};
 362:.\Generated_Source\PSoC5/cyfitter_cfg.c **** 
 363:.\Generated_Source\PSoC5/cyfitter_cfg.c **** #ifdef CYGlobalIntDisable
 364:.\Generated_Source\PSoC5/cyfitter_cfg.c **** 	/* Disable interrupts by default. Let user enable if/when they want. */
 365:.\Generated_Source\PSoC5/cyfitter_cfg.c **** 	CYGlobalIntDisable
 589              		.loc 1 365 0
 590              	@ 365 ".\Generated_Source\PSoC5\cyfitter_cfg.c" 1
 591 0006 72B6     		CPSID   i
 592              	@ 0 "" 2
 366:.\Generated_Source\PSoC5/cyfitter_cfg.c **** #endif
 367:.\Generated_Source\PSoC5/cyfitter_cfg.c **** 
 368:.\Generated_Source\PSoC5/cyfitter_cfg.c **** 
 369:.\Generated_Source\PSoC5/cyfitter_cfg.c **** 	/* Set Flash Cycles based on max possible frequency in case a glitch occurs during ClockSetup(). *
 370:.\Generated_Source\PSoC5/cyfitter_cfg.c **** 	CY_SET_XTND_REG8((void CYFAR *)(CYREG_CACHE_CC_CTL), (((CYDEV_INSTRUCT_CACHE_ENABLED) != 0) ? 0x61
 593              		.loc 1 370 0
 594              		.thumb
ARM GAS  C:\Users\xavieran\AppData\Local\Temp\ccKklXac.s 			page 18


 595 0008 5E4B     		ldr	r3, .L31
 596 000a 6122     		movs	r2, #97
 597 000c 1A70     		strb	r2, [r3]
 371:.\Generated_Source\PSoC5/cyfitter_cfg.c **** 	/* Setup clocks based on selections from Clock DWR */
 372:.\Generated_Source\PSoC5/cyfitter_cfg.c **** 	ClockSetup();
 598              		.loc 1 372 0
 599 000e FFF7FEFF 		bl	ClockSetup
 373:.\Generated_Source\PSoC5/cyfitter_cfg.c **** 	/* Set Flash Cycles based on newly configured 66.00MHz Bus Clock. */
 374:.\Generated_Source\PSoC5/cyfitter_cfg.c **** 	CY_SET_XTND_REG8((void CYFAR *)(CYREG_CACHE_CC_CTL), (((CYDEV_INSTRUCT_CACHE_ENABLED) != 0) ? 0x01
 600              		.loc 1 374 0
 601 0012 5C4B     		ldr	r3, .L31
 602 0014 0122     		movs	r2, #1
 603 0016 1A70     		strb	r2, [r3]
 604              	.LBB3:
 375:.\Generated_Source\PSoC5/cyfitter_cfg.c **** 	{
 376:.\Generated_Source\PSoC5/cyfitter_cfg.c **** 		static const uint32 CYCODE cy_cfg_addr_table[] = {
 377:.\Generated_Source\PSoC5/cyfitter_cfg.c **** 			0x40004501u, /* Base address: 0x40004500 Count: 1 */
 378:.\Generated_Source\PSoC5/cyfitter_cfg.c **** 			0x40004F08u, /* Base address: 0x40004F00 Count: 8 */
 379:.\Generated_Source\PSoC5/cyfitter_cfg.c **** 			0x4000520Eu, /* Base address: 0x40005200 Count: 14 */
 380:.\Generated_Source\PSoC5/cyfitter_cfg.c **** 			0x40006407u, /* Base address: 0x40006400 Count: 7 */
 381:.\Generated_Source\PSoC5/cyfitter_cfg.c **** 			0x40006505u, /* Base address: 0x40006500 Count: 5 */
 382:.\Generated_Source\PSoC5/cyfitter_cfg.c **** 			0x4001004Eu, /* Base address: 0x40010000 Count: 78 */
 383:.\Generated_Source\PSoC5/cyfitter_cfg.c **** 			0x40010131u, /* Base address: 0x40010100 Count: 49 */
 384:.\Generated_Source\PSoC5/cyfitter_cfg.c **** 			0x40010252u, /* Base address: 0x40010200 Count: 82 */
 385:.\Generated_Source\PSoC5/cyfitter_cfg.c **** 			0x40010348u, /* Base address: 0x40010300 Count: 72 */
 386:.\Generated_Source\PSoC5/cyfitter_cfg.c **** 			0x40010454u, /* Base address: 0x40010400 Count: 84 */
 387:.\Generated_Source\PSoC5/cyfitter_cfg.c **** 			0x40010541u, /* Base address: 0x40010500 Count: 65 */
 388:.\Generated_Source\PSoC5/cyfitter_cfg.c **** 			0x4001065Bu, /* Base address: 0x40010600 Count: 91 */
 389:.\Generated_Source\PSoC5/cyfitter_cfg.c **** 			0x40010745u, /* Base address: 0x40010700 Count: 69 */
 390:.\Generated_Source\PSoC5/cyfitter_cfg.c **** 			0x40010842u, /* Base address: 0x40010800 Count: 66 */
 391:.\Generated_Source\PSoC5/cyfitter_cfg.c **** 			0x40010948u, /* Base address: 0x40010900 Count: 72 */
 392:.\Generated_Source\PSoC5/cyfitter_cfg.c **** 			0x40010A61u, /* Base address: 0x40010A00 Count: 97 */
 393:.\Generated_Source\PSoC5/cyfitter_cfg.c **** 			0x40010B49u, /* Base address: 0x40010B00 Count: 73 */
 394:.\Generated_Source\PSoC5/cyfitter_cfg.c **** 			0x40010C5Du, /* Base address: 0x40010C00 Count: 93 */
 395:.\Generated_Source\PSoC5/cyfitter_cfg.c **** 			0x40010D4Au, /* Base address: 0x40010D00 Count: 74 */
 396:.\Generated_Source\PSoC5/cyfitter_cfg.c **** 			0x40010E4Au, /* Base address: 0x40010E00 Count: 74 */
 397:.\Generated_Source\PSoC5/cyfitter_cfg.c **** 			0x40010F35u, /* Base address: 0x40010F00 Count: 53 */
 398:.\Generated_Source\PSoC5/cyfitter_cfg.c **** 			0x4001145Bu, /* Base address: 0x40011400 Count: 91 */
 399:.\Generated_Source\PSoC5/cyfitter_cfg.c **** 			0x4001154Du, /* Base address: 0x40011500 Count: 77 */
 400:.\Generated_Source\PSoC5/cyfitter_cfg.c **** 			0x40011653u, /* Base address: 0x40011600 Count: 83 */
 401:.\Generated_Source\PSoC5/cyfitter_cfg.c **** 			0x40011747u, /* Base address: 0x40011700 Count: 71 */
 402:.\Generated_Source\PSoC5/cyfitter_cfg.c **** 			0x40011857u, /* Base address: 0x40011800 Count: 87 */
 403:.\Generated_Source\PSoC5/cyfitter_cfg.c **** 			0x4001194Au, /* Base address: 0x40011900 Count: 74 */
 404:.\Generated_Source\PSoC5/cyfitter_cfg.c **** 			0x40011A59u, /* Base address: 0x40011A00 Count: 89 */
 405:.\Generated_Source\PSoC5/cyfitter_cfg.c **** 			0x40011B4Bu, /* Base address: 0x40011B00 Count: 75 */
 406:.\Generated_Source\PSoC5/cyfitter_cfg.c **** 			0x40014011u, /* Base address: 0x40014000 Count: 17 */
 407:.\Generated_Source\PSoC5/cyfitter_cfg.c **** 			0x40014127u, /* Base address: 0x40014100 Count: 39 */
 408:.\Generated_Source\PSoC5/cyfitter_cfg.c **** 			0x40014216u, /* Base address: 0x40014200 Count: 22 */
 409:.\Generated_Source\PSoC5/cyfitter_cfg.c **** 			0x40014317u, /* Base address: 0x40014300 Count: 23 */
 410:.\Generated_Source\PSoC5/cyfitter_cfg.c **** 			0x4001440Bu, /* Base address: 0x40014400 Count: 11 */
 411:.\Generated_Source\PSoC5/cyfitter_cfg.c **** 			0x40014510u, /* Base address: 0x40014500 Count: 16 */
 412:.\Generated_Source\PSoC5/cyfitter_cfg.c **** 			0x4001460Cu, /* Base address: 0x40014600 Count: 12 */
 413:.\Generated_Source\PSoC5/cyfitter_cfg.c **** 			0x4001470Bu, /* Base address: 0x40014700 Count: 11 */
 414:.\Generated_Source\PSoC5/cyfitter_cfg.c **** 			0x40014813u, /* Base address: 0x40014800 Count: 19 */
 415:.\Generated_Source\PSoC5/cyfitter_cfg.c **** 			0x40014919u, /* Base address: 0x40014900 Count: 25 */
 416:.\Generated_Source\PSoC5/cyfitter_cfg.c **** 			0x40014C1Cu, /* Base address: 0x40014C00 Count: 28 */
 417:.\Generated_Source\PSoC5/cyfitter_cfg.c **** 			0x40014D14u, /* Base address: 0x40014D00 Count: 20 */
ARM GAS  C:\Users\xavieran\AppData\Local\Temp\ccKklXac.s 			page 19


 418:.\Generated_Source\PSoC5/cyfitter_cfg.c **** 			0x40015006u, /* Base address: 0x40015000 Count: 6 */
 419:.\Generated_Source\PSoC5/cyfitter_cfg.c **** 			0x40015101u, /* Base address: 0x40015100 Count: 1 */
 420:.\Generated_Source\PSoC5/cyfitter_cfg.c **** 		};
 421:.\Generated_Source\PSoC5/cyfitter_cfg.c **** 
 422:.\Generated_Source\PSoC5/cyfitter_cfg.c **** 		static const cy_cfg_addrvalue_t CYCODE cy_cfg_data_table[] = {
 423:.\Generated_Source\PSoC5/cyfitter_cfg.c **** 			{0x7Eu, 0x02u},
 424:.\Generated_Source\PSoC5/cyfitter_cfg.c **** 			{0x01u, 0x10u},
 425:.\Generated_Source\PSoC5/cyfitter_cfg.c **** 			{0x0Au, 0x36u},
 426:.\Generated_Source\PSoC5/cyfitter_cfg.c **** 			{0x0Du, 0x50u},
 427:.\Generated_Source\PSoC5/cyfitter_cfg.c **** 			{0x16u, 0x1Bu},
 428:.\Generated_Source\PSoC5/cyfitter_cfg.c **** 			{0x19u, 0x50u},
 429:.\Generated_Source\PSoC5/cyfitter_cfg.c **** 			{0x22u, 0x27u},
 430:.\Generated_Source\PSoC5/cyfitter_cfg.c **** 			{0x25u, 0x50u},
 431:.\Generated_Source\PSoC5/cyfitter_cfg.c **** 			{0x2Eu, 0x27u},
 432:.\Generated_Source\PSoC5/cyfitter_cfg.c **** 			{0x00u, 0x30u},
 433:.\Generated_Source\PSoC5/cyfitter_cfg.c **** 			{0x01u, 0x90u},
 434:.\Generated_Source\PSoC5/cyfitter_cfg.c **** 			{0x08u, 0x40u},
 435:.\Generated_Source\PSoC5/cyfitter_cfg.c **** 			{0x11u, 0x10u},
 436:.\Generated_Source\PSoC5/cyfitter_cfg.c **** 			{0x18u, 0x08u},
 437:.\Generated_Source\PSoC5/cyfitter_cfg.c **** 			{0x21u, 0x02u},
 438:.\Generated_Source\PSoC5/cyfitter_cfg.c **** 			{0x28u, 0x02u},
 439:.\Generated_Source\PSoC5/cyfitter_cfg.c **** 			{0x29u, 0x80u},
 440:.\Generated_Source\PSoC5/cyfitter_cfg.c **** 			{0x31u, 0x10u},
 441:.\Generated_Source\PSoC5/cyfitter_cfg.c **** 			{0x60u, 0x25u},
 442:.\Generated_Source\PSoC5/cyfitter_cfg.c **** 			{0x61u, 0x24u},
 443:.\Generated_Source\PSoC5/cyfitter_cfg.c **** 			{0x78u, 0x08u},
 444:.\Generated_Source\PSoC5/cyfitter_cfg.c **** 			{0x79u, 0x10u},
 445:.\Generated_Source\PSoC5/cyfitter_cfg.c **** 			{0x7Cu, 0x40u},
 446:.\Generated_Source\PSoC5/cyfitter_cfg.c **** 			{0x2Fu, 0x04u},
 447:.\Generated_Source\PSoC5/cyfitter_cfg.c **** 			{0x80u, 0x0Fu},
 448:.\Generated_Source\PSoC5/cyfitter_cfg.c **** 			{0x82u, 0x0Fu},
 449:.\Generated_Source\PSoC5/cyfitter_cfg.c **** 			{0x83u, 0x0Du},
 450:.\Generated_Source\PSoC5/cyfitter_cfg.c **** 			{0x84u, 0x0Fu},
 451:.\Generated_Source\PSoC5/cyfitter_cfg.c **** 			{0x8Bu, 0x0Du},
 452:.\Generated_Source\PSoC5/cyfitter_cfg.c **** 			{0x8Cu, 0x0Du},
 453:.\Generated_Source\PSoC5/cyfitter_cfg.c **** 			{0x2Bu, 0x0Fu},
 454:.\Generated_Source\PSoC5/cyfitter_cfg.c **** 			{0x3Bu, 0x08u},
 455:.\Generated_Source\PSoC5/cyfitter_cfg.c **** 			{0x85u, 0x0Du},
 456:.\Generated_Source\PSoC5/cyfitter_cfg.c **** 			{0x87u, 0x0Du},
 457:.\Generated_Source\PSoC5/cyfitter_cfg.c **** 			{0x8Au, 0x0Du},
 458:.\Generated_Source\PSoC5/cyfitter_cfg.c **** 			{0x01u, 0x01u},
 459:.\Generated_Source\PSoC5/cyfitter_cfg.c **** 			{0x0Au, 0x04u},
 460:.\Generated_Source\PSoC5/cyfitter_cfg.c **** 			{0x12u, 0x04u},
 461:.\Generated_Source\PSoC5/cyfitter_cfg.c **** 			{0x1Au, 0x01u},
 462:.\Generated_Source\PSoC5/cyfitter_cfg.c **** 			{0x1Bu, 0x01u},
 463:.\Generated_Source\PSoC5/cyfitter_cfg.c **** 			{0x2Eu, 0x02u},
 464:.\Generated_Source\PSoC5/cyfitter_cfg.c **** 			{0x30u, 0x04u},
 465:.\Generated_Source\PSoC5/cyfitter_cfg.c **** 			{0x34u, 0x02u},
 466:.\Generated_Source\PSoC5/cyfitter_cfg.c **** 			{0x35u, 0x01u},
 467:.\Generated_Source\PSoC5/cyfitter_cfg.c **** 			{0x36u, 0x01u},
 468:.\Generated_Source\PSoC5/cyfitter_cfg.c **** 			{0x3Cu, 0x20u},
 469:.\Generated_Source\PSoC5/cyfitter_cfg.c **** 			{0x3Du, 0x20u},
 470:.\Generated_Source\PSoC5/cyfitter_cfg.c **** 			{0x3Eu, 0x01u},
 471:.\Generated_Source\PSoC5/cyfitter_cfg.c **** 			{0x40u, 0x24u},
 472:.\Generated_Source\PSoC5/cyfitter_cfg.c **** 			{0x41u, 0x03u},
 473:.\Generated_Source\PSoC5/cyfitter_cfg.c **** 			{0x49u, 0xFFu},
 474:.\Generated_Source\PSoC5/cyfitter_cfg.c **** 			{0x4Au, 0xFFu},
ARM GAS  C:\Users\xavieran\AppData\Local\Temp\ccKklXac.s 			page 20


 475:.\Generated_Source\PSoC5/cyfitter_cfg.c **** 			{0x4Bu, 0xFFu},
 476:.\Generated_Source\PSoC5/cyfitter_cfg.c **** 			{0x4Du, 0xA0u},
 477:.\Generated_Source\PSoC5/cyfitter_cfg.c **** 			{0x4Fu, 0x04u},
 478:.\Generated_Source\PSoC5/cyfitter_cfg.c **** 			{0x50u, 0x18u},
 479:.\Generated_Source\PSoC5/cyfitter_cfg.c **** 			{0x52u, 0x80u},
 480:.\Generated_Source\PSoC5/cyfitter_cfg.c **** 			{0x54u, 0x07u},
 481:.\Generated_Source\PSoC5/cyfitter_cfg.c **** 			{0x58u, 0x04u},
 482:.\Generated_Source\PSoC5/cyfitter_cfg.c **** 			{0x59u, 0x04u},
 483:.\Generated_Source\PSoC5/cyfitter_cfg.c **** 			{0x5Au, 0x04u},
 484:.\Generated_Source\PSoC5/cyfitter_cfg.c **** 			{0x5Bu, 0x04u},
 485:.\Generated_Source\PSoC5/cyfitter_cfg.c **** 			{0x5Cu, 0x44u},
 486:.\Generated_Source\PSoC5/cyfitter_cfg.c **** 			{0x5Du, 0x44u},
 487:.\Generated_Source\PSoC5/cyfitter_cfg.c **** 			{0x5Eu, 0x80u},
 488:.\Generated_Source\PSoC5/cyfitter_cfg.c **** 			{0x5Fu, 0x45u},
 489:.\Generated_Source\PSoC5/cyfitter_cfg.c **** 			{0x60u, 0x40u},
 490:.\Generated_Source\PSoC5/cyfitter_cfg.c **** 			{0x62u, 0xC0u},
 491:.\Generated_Source\PSoC5/cyfitter_cfg.c **** 			{0x64u, 0x40u},
 492:.\Generated_Source\PSoC5/cyfitter_cfg.c **** 			{0x65u, 0x40u},
 493:.\Generated_Source\PSoC5/cyfitter_cfg.c **** 			{0x66u, 0xC0u},
 494:.\Generated_Source\PSoC5/cyfitter_cfg.c **** 			{0x68u, 0xC0u},
 495:.\Generated_Source\PSoC5/cyfitter_cfg.c **** 			{0x6Au, 0xC0u},
 496:.\Generated_Source\PSoC5/cyfitter_cfg.c **** 			{0x6Cu, 0xC0u},
 497:.\Generated_Source\PSoC5/cyfitter_cfg.c **** 			{0x6Eu, 0xC0u},
 498:.\Generated_Source\PSoC5/cyfitter_cfg.c **** 			{0x86u, 0x02u},
 499:.\Generated_Source\PSoC5/cyfitter_cfg.c **** 			{0x87u, 0x01u},
 500:.\Generated_Source\PSoC5/cyfitter_cfg.c **** 			{0x8Bu, 0x01u},
 501:.\Generated_Source\PSoC5/cyfitter_cfg.c **** 			{0x96u, 0x01u},
 502:.\Generated_Source\PSoC5/cyfitter_cfg.c **** 			{0xAAu, 0x02u},
 503:.\Generated_Source\PSoC5/cyfitter_cfg.c **** 			{0xB4u, 0x02u},
 504:.\Generated_Source\PSoC5/cyfitter_cfg.c **** 			{0xB6u, 0x01u},
 505:.\Generated_Source\PSoC5/cyfitter_cfg.c **** 			{0xB7u, 0x01u},
 506:.\Generated_Source\PSoC5/cyfitter_cfg.c **** 			{0xBEu, 0x10u},
 507:.\Generated_Source\PSoC5/cyfitter_cfg.c **** 			{0xC0u, 0x24u},
 508:.\Generated_Source\PSoC5/cyfitter_cfg.c **** 			{0xC1u, 0x06u},
 509:.\Generated_Source\PSoC5/cyfitter_cfg.c **** 			{0xC5u, 0xD0u},
 510:.\Generated_Source\PSoC5/cyfitter_cfg.c **** 			{0xC6u, 0x50u},
 511:.\Generated_Source\PSoC5/cyfitter_cfg.c **** 			{0xC7u, 0x12u},
 512:.\Generated_Source\PSoC5/cyfitter_cfg.c **** 			{0xC8u, 0x3Au},
 513:.\Generated_Source\PSoC5/cyfitter_cfg.c **** 			{0xC9u, 0xFFu},
 514:.\Generated_Source\PSoC5/cyfitter_cfg.c **** 			{0xCAu, 0xFFu},
 515:.\Generated_Source\PSoC5/cyfitter_cfg.c **** 			{0xCBu, 0xFFu},
 516:.\Generated_Source\PSoC5/cyfitter_cfg.c **** 			{0xCDu, 0xAFu},
 517:.\Generated_Source\PSoC5/cyfitter_cfg.c **** 			{0xCEu, 0x0Fu},
 518:.\Generated_Source\PSoC5/cyfitter_cfg.c **** 			{0xCFu, 0x04u},
 519:.\Generated_Source\PSoC5/cyfitter_cfg.c **** 			{0xD0u, 0x18u},
 520:.\Generated_Source\PSoC5/cyfitter_cfg.c **** 			{0xD8u, 0x04u},
 521:.\Generated_Source\PSoC5/cyfitter_cfg.c **** 			{0xD9u, 0x04u},
 522:.\Generated_Source\PSoC5/cyfitter_cfg.c **** 			{0xDAu, 0x04u},
 523:.\Generated_Source\PSoC5/cyfitter_cfg.c **** 			{0xDBu, 0x04u},
 524:.\Generated_Source\PSoC5/cyfitter_cfg.c **** 			{0xDCu, 0x48u},
 525:.\Generated_Source\PSoC5/cyfitter_cfg.c **** 			{0xDDu, 0x04u},
 526:.\Generated_Source\PSoC5/cyfitter_cfg.c **** 			{0xDFu, 0x21u},
 527:.\Generated_Source\PSoC5/cyfitter_cfg.c **** 			{0xE0u, 0x40u},
 528:.\Generated_Source\PSoC5/cyfitter_cfg.c **** 			{0xE2u, 0xC0u},
 529:.\Generated_Source\PSoC5/cyfitter_cfg.c **** 			{0xE4u, 0x40u},
 530:.\Generated_Source\PSoC5/cyfitter_cfg.c **** 			{0xE5u, 0x40u},
 531:.\Generated_Source\PSoC5/cyfitter_cfg.c **** 			{0xE6u, 0xC0u},
ARM GAS  C:\Users\xavieran\AppData\Local\Temp\ccKklXac.s 			page 21


 532:.\Generated_Source\PSoC5/cyfitter_cfg.c **** 			{0xE8u, 0xC0u},
 533:.\Generated_Source\PSoC5/cyfitter_cfg.c **** 			{0xEAu, 0xC0u},
 534:.\Generated_Source\PSoC5/cyfitter_cfg.c **** 			{0xECu, 0xC0u},
 535:.\Generated_Source\PSoC5/cyfitter_cfg.c **** 			{0xEEu, 0xC0u},
 536:.\Generated_Source\PSoC5/cyfitter_cfg.c **** 			{0x01u, 0x20u},
 537:.\Generated_Source\PSoC5/cyfitter_cfg.c **** 			{0x04u, 0x04u},
 538:.\Generated_Source\PSoC5/cyfitter_cfg.c **** 			{0x08u, 0x10u},
 539:.\Generated_Source\PSoC5/cyfitter_cfg.c **** 			{0x09u, 0x12u},
 540:.\Generated_Source\PSoC5/cyfitter_cfg.c **** 			{0x0Du, 0x08u},
 541:.\Generated_Source\PSoC5/cyfitter_cfg.c **** 			{0x10u, 0x02u},
 542:.\Generated_Source\PSoC5/cyfitter_cfg.c **** 			{0x16u, 0x04u},
 543:.\Generated_Source\PSoC5/cyfitter_cfg.c **** 			{0x18u, 0x02u},
 544:.\Generated_Source\PSoC5/cyfitter_cfg.c **** 			{0x19u, 0x20u},
 545:.\Generated_Source\PSoC5/cyfitter_cfg.c **** 			{0x1Bu, 0x01u},
 546:.\Generated_Source\PSoC5/cyfitter_cfg.c **** 			{0x1Eu, 0x08u},
 547:.\Generated_Source\PSoC5/cyfitter_cfg.c **** 			{0x1Fu, 0x40u},
 548:.\Generated_Source\PSoC5/cyfitter_cfg.c **** 			{0x22u, 0x10u},
 549:.\Generated_Source\PSoC5/cyfitter_cfg.c **** 			{0x26u, 0x40u},
 550:.\Generated_Source\PSoC5/cyfitter_cfg.c **** 			{0x30u, 0x10u},
 551:.\Generated_Source\PSoC5/cyfitter_cfg.c **** 			{0x38u, 0x02u},
 552:.\Generated_Source\PSoC5/cyfitter_cfg.c **** 			{0x3Cu, 0x04u},
 553:.\Generated_Source\PSoC5/cyfitter_cfg.c **** 			{0x3Fu, 0x20u},
 554:.\Generated_Source\PSoC5/cyfitter_cfg.c **** 			{0x40u, 0x44u},
 555:.\Generated_Source\PSoC5/cyfitter_cfg.c **** 			{0x41u, 0x20u},
 556:.\Generated_Source\PSoC5/cyfitter_cfg.c **** 			{0x43u, 0x08u},
 557:.\Generated_Source\PSoC5/cyfitter_cfg.c **** 			{0x45u, 0x21u},
 558:.\Generated_Source\PSoC5/cyfitter_cfg.c **** 			{0x4Cu, 0x08u},
 559:.\Generated_Source\PSoC5/cyfitter_cfg.c **** 			{0x4Fu, 0x01u},
 560:.\Generated_Source\PSoC5/cyfitter_cfg.c **** 			{0x54u, 0x08u},
 561:.\Generated_Source\PSoC5/cyfitter_cfg.c **** 			{0x56u, 0x04u},
 562:.\Generated_Source\PSoC5/cyfitter_cfg.c **** 			{0x57u, 0x1Au},
 563:.\Generated_Source\PSoC5/cyfitter_cfg.c **** 			{0x58u, 0x08u},
 564:.\Generated_Source\PSoC5/cyfitter_cfg.c **** 			{0x59u, 0x82u},
 565:.\Generated_Source\PSoC5/cyfitter_cfg.c **** 			{0x5Au, 0x20u},
 566:.\Generated_Source\PSoC5/cyfitter_cfg.c **** 			{0x6Eu, 0x20u},
 567:.\Generated_Source\PSoC5/cyfitter_cfg.c **** 			{0x6Fu, 0x61u},
 568:.\Generated_Source\PSoC5/cyfitter_cfg.c **** 			{0x70u, 0x02u},
 569:.\Generated_Source\PSoC5/cyfitter_cfg.c **** 			{0x74u, 0xA0u},
 570:.\Generated_Source\PSoC5/cyfitter_cfg.c **** 			{0x79u, 0x14u},
 571:.\Generated_Source\PSoC5/cyfitter_cfg.c **** 			{0x7Du, 0x08u},
 572:.\Generated_Source\PSoC5/cyfitter_cfg.c **** 			{0x84u, 0x08u},
 573:.\Generated_Source\PSoC5/cyfitter_cfg.c **** 			{0x87u, 0x01u},
 574:.\Generated_Source\PSoC5/cyfitter_cfg.c **** 			{0xC0u, 0x22u},
 575:.\Generated_Source\PSoC5/cyfitter_cfg.c **** 			{0xC2u, 0x2Au},
 576:.\Generated_Source\PSoC5/cyfitter_cfg.c **** 			{0xC4u, 0x41u},
 577:.\Generated_Source\PSoC5/cyfitter_cfg.c **** 			{0xCCu, 0x04u},
 578:.\Generated_Source\PSoC5/cyfitter_cfg.c **** 			{0xCEu, 0x61u},
 579:.\Generated_Source\PSoC5/cyfitter_cfg.c **** 			{0xD0u, 0xA7u},
 580:.\Generated_Source\PSoC5/cyfitter_cfg.c **** 			{0xD2u, 0x20u},
 581:.\Generated_Source\PSoC5/cyfitter_cfg.c **** 			{0xD6u, 0x0Fu},
 582:.\Generated_Source\PSoC5/cyfitter_cfg.c **** 			{0xDEu, 0x46u},
 583:.\Generated_Source\PSoC5/cyfitter_cfg.c **** 			{0xE2u, 0x20u},
 584:.\Generated_Source\PSoC5/cyfitter_cfg.c **** 			{0xE4u, 0x30u},
 585:.\Generated_Source\PSoC5/cyfitter_cfg.c **** 			{0x07u, 0x01u},
 586:.\Generated_Source\PSoC5/cyfitter_cfg.c **** 			{0x1Au, 0x01u},
 587:.\Generated_Source\PSoC5/cyfitter_cfg.c **** 			{0x2Fu, 0x01u},
 588:.\Generated_Source\PSoC5/cyfitter_cfg.c **** 			{0x32u, 0x01u},
ARM GAS  C:\Users\xavieran\AppData\Local\Temp\ccKklXac.s 			page 22


 589:.\Generated_Source\PSoC5/cyfitter_cfg.c **** 			{0x35u, 0x01u},
 590:.\Generated_Source\PSoC5/cyfitter_cfg.c **** 			{0x40u, 0x45u},
 591:.\Generated_Source\PSoC5/cyfitter_cfg.c **** 			{0x41u, 0x03u},
 592:.\Generated_Source\PSoC5/cyfitter_cfg.c **** 			{0x49u, 0xFFu},
 593:.\Generated_Source\PSoC5/cyfitter_cfg.c **** 			{0x4Au, 0xFFu},
 594:.\Generated_Source\PSoC5/cyfitter_cfg.c **** 			{0x4Bu, 0xFFu},
 595:.\Generated_Source\PSoC5/cyfitter_cfg.c **** 			{0x4Fu, 0x01u},
 596:.\Generated_Source\PSoC5/cyfitter_cfg.c **** 			{0x50u, 0x18u},
 597:.\Generated_Source\PSoC5/cyfitter_cfg.c **** 			{0x54u, 0x07u},
 598:.\Generated_Source\PSoC5/cyfitter_cfg.c **** 			{0x58u, 0x04u},
 599:.\Generated_Source\PSoC5/cyfitter_cfg.c **** 			{0x59u, 0x04u},
 600:.\Generated_Source\PSoC5/cyfitter_cfg.c **** 			{0x5Au, 0x04u},
 601:.\Generated_Source\PSoC5/cyfitter_cfg.c **** 			{0x5Bu, 0x04u},
 602:.\Generated_Source\PSoC5/cyfitter_cfg.c **** 			{0x5Cu, 0x48u},
 603:.\Generated_Source\PSoC5/cyfitter_cfg.c **** 			{0x5Du, 0x44u},
 604:.\Generated_Source\PSoC5/cyfitter_cfg.c **** 			{0x5Eu, 0x80u},
 605:.\Generated_Source\PSoC5/cyfitter_cfg.c **** 			{0x5Fu, 0x25u},
 606:.\Generated_Source\PSoC5/cyfitter_cfg.c **** 			{0x60u, 0x40u},
 607:.\Generated_Source\PSoC5/cyfitter_cfg.c **** 			{0x62u, 0x40u},
 608:.\Generated_Source\PSoC5/cyfitter_cfg.c **** 			{0x64u, 0x40u},
 609:.\Generated_Source\PSoC5/cyfitter_cfg.c **** 			{0x65u, 0x40u},
 610:.\Generated_Source\PSoC5/cyfitter_cfg.c **** 			{0x66u, 0x80u},
 611:.\Generated_Source\PSoC5/cyfitter_cfg.c **** 			{0x68u, 0x80u},
 612:.\Generated_Source\PSoC5/cyfitter_cfg.c **** 			{0x6Au, 0x80u},
 613:.\Generated_Source\PSoC5/cyfitter_cfg.c **** 			{0x6Cu, 0x80u},
 614:.\Generated_Source\PSoC5/cyfitter_cfg.c **** 			{0x6Eu, 0x80u},
 615:.\Generated_Source\PSoC5/cyfitter_cfg.c **** 			{0x85u, 0x07u},
 616:.\Generated_Source\PSoC5/cyfitter_cfg.c **** 			{0x86u, 0x08u},
 617:.\Generated_Source\PSoC5/cyfitter_cfg.c **** 			{0x89u, 0x07u},
 618:.\Generated_Source\PSoC5/cyfitter_cfg.c **** 			{0x8Cu, 0x08u},
 619:.\Generated_Source\PSoC5/cyfitter_cfg.c **** 			{0x8Du, 0x04u},
 620:.\Generated_Source\PSoC5/cyfitter_cfg.c **** 			{0x92u, 0x01u},
 621:.\Generated_Source\PSoC5/cyfitter_cfg.c **** 			{0x95u, 0x01u},
 622:.\Generated_Source\PSoC5/cyfitter_cfg.c **** 			{0x96u, 0x02u},
 623:.\Generated_Source\PSoC5/cyfitter_cfg.c **** 			{0x98u, 0x10u},
 624:.\Generated_Source\PSoC5/cyfitter_cfg.c **** 			{0x99u, 0x07u},
 625:.\Generated_Source\PSoC5/cyfitter_cfg.c **** 			{0x9Cu, 0x04u},
 626:.\Generated_Source\PSoC5/cyfitter_cfg.c **** 			{0xA1u, 0x02u},
 627:.\Generated_Source\PSoC5/cyfitter_cfg.c **** 			{0xA2u, 0x01u},
 628:.\Generated_Source\PSoC5/cyfitter_cfg.c **** 			{0xA4u, 0x03u},
 629:.\Generated_Source\PSoC5/cyfitter_cfg.c **** 			{0xAAu, 0x01u},
 630:.\Generated_Source\PSoC5/cyfitter_cfg.c **** 			{0xAEu, 0x04u},
 631:.\Generated_Source\PSoC5/cyfitter_cfg.c **** 			{0xB0u, 0x04u},
 632:.\Generated_Source\PSoC5/cyfitter_cfg.c **** 			{0xB2u, 0x03u},
 633:.\Generated_Source\PSoC5/cyfitter_cfg.c **** 			{0xB3u, 0x07u},
 634:.\Generated_Source\PSoC5/cyfitter_cfg.c **** 			{0xB4u, 0x10u},
 635:.\Generated_Source\PSoC5/cyfitter_cfg.c **** 			{0xB6u, 0x08u},
 636:.\Generated_Source\PSoC5/cyfitter_cfg.c **** 			{0xBCu, 0x80u},
 637:.\Generated_Source\PSoC5/cyfitter_cfg.c **** 			{0xBEu, 0x01u},
 638:.\Generated_Source\PSoC5/cyfitter_cfg.c **** 			{0xC0u, 0x15u},
 639:.\Generated_Source\PSoC5/cyfitter_cfg.c **** 			{0xC1u, 0x03u},
 640:.\Generated_Source\PSoC5/cyfitter_cfg.c **** 			{0xC5u, 0xECu},
 641:.\Generated_Source\PSoC5/cyfitter_cfg.c **** 			{0xC7u, 0x20u},
 642:.\Generated_Source\PSoC5/cyfitter_cfg.c **** 			{0xC8u, 0x23u},
 643:.\Generated_Source\PSoC5/cyfitter_cfg.c **** 			{0xC9u, 0xFFu},
 644:.\Generated_Source\PSoC5/cyfitter_cfg.c **** 			{0xCAu, 0xFFu},
 645:.\Generated_Source\PSoC5/cyfitter_cfg.c **** 			{0xCBu, 0xFFu},
ARM GAS  C:\Users\xavieran\AppData\Local\Temp\ccKklXac.s 			page 23


 646:.\Generated_Source\PSoC5/cyfitter_cfg.c **** 			{0xCDu, 0x83u},
 647:.\Generated_Source\PSoC5/cyfitter_cfg.c **** 			{0xCEu, 0x03u},
 648:.\Generated_Source\PSoC5/cyfitter_cfg.c **** 			{0xCFu, 0x01u},
 649:.\Generated_Source\PSoC5/cyfitter_cfg.c **** 			{0xD0u, 0x18u},
 650:.\Generated_Source\PSoC5/cyfitter_cfg.c **** 			{0xD4u, 0x01u},
 651:.\Generated_Source\PSoC5/cyfitter_cfg.c **** 			{0xD8u, 0x04u},
 652:.\Generated_Source\PSoC5/cyfitter_cfg.c **** 			{0xD9u, 0x04u},
 653:.\Generated_Source\PSoC5/cyfitter_cfg.c **** 			{0xDAu, 0x04u},
 654:.\Generated_Source\PSoC5/cyfitter_cfg.c **** 			{0xDBu, 0x04u},
 655:.\Generated_Source\PSoC5/cyfitter_cfg.c **** 			{0xDCu, 0x44u},
 656:.\Generated_Source\PSoC5/cyfitter_cfg.c **** 			{0xDDu, 0x44u},
 657:.\Generated_Source\PSoC5/cyfitter_cfg.c **** 			{0xDFu, 0x45u},
 658:.\Generated_Source\PSoC5/cyfitter_cfg.c **** 			{0xE0u, 0x40u},
 659:.\Generated_Source\PSoC5/cyfitter_cfg.c **** 			{0xE2u, 0x40u},
 660:.\Generated_Source\PSoC5/cyfitter_cfg.c **** 			{0xE4u, 0x40u},
 661:.\Generated_Source\PSoC5/cyfitter_cfg.c **** 			{0xE5u, 0x40u},
 662:.\Generated_Source\PSoC5/cyfitter_cfg.c **** 			{0xE6u, 0x80u},
 663:.\Generated_Source\PSoC5/cyfitter_cfg.c **** 			{0xE8u, 0x80u},
 664:.\Generated_Source\PSoC5/cyfitter_cfg.c **** 			{0xEAu, 0x80u},
 665:.\Generated_Source\PSoC5/cyfitter_cfg.c **** 			{0xECu, 0x80u},
 666:.\Generated_Source\PSoC5/cyfitter_cfg.c **** 			{0xEEu, 0x80u},
 667:.\Generated_Source\PSoC5/cyfitter_cfg.c **** 			{0x00u, 0x88u},
 668:.\Generated_Source\PSoC5/cyfitter_cfg.c **** 			{0x0Au, 0x90u},
 669:.\Generated_Source\PSoC5/cyfitter_cfg.c **** 			{0x0Bu, 0x0Au},
 670:.\Generated_Source\PSoC5/cyfitter_cfg.c **** 			{0x0Cu, 0x20u},
 671:.\Generated_Source\PSoC5/cyfitter_cfg.c **** 			{0x10u, 0x12u},
 672:.\Generated_Source\PSoC5/cyfitter_cfg.c **** 			{0x12u, 0x48u},
 673:.\Generated_Source\PSoC5/cyfitter_cfg.c **** 			{0x18u, 0x28u},
 674:.\Generated_Source\PSoC5/cyfitter_cfg.c **** 			{0x19u, 0x80u},
 675:.\Generated_Source\PSoC5/cyfitter_cfg.c **** 			{0x1Au, 0x50u},
 676:.\Generated_Source\PSoC5/cyfitter_cfg.c **** 			{0x1Fu, 0x08u},
 677:.\Generated_Source\PSoC5/cyfitter_cfg.c **** 			{0x20u, 0x20u},
 678:.\Generated_Source\PSoC5/cyfitter_cfg.c **** 			{0x22u, 0x08u},
 679:.\Generated_Source\PSoC5/cyfitter_cfg.c **** 			{0x26u, 0x20u},
 680:.\Generated_Source\PSoC5/cyfitter_cfg.c **** 			{0x27u, 0x0Cu},
 681:.\Generated_Source\PSoC5/cyfitter_cfg.c **** 			{0x28u, 0x80u},
 682:.\Generated_Source\PSoC5/cyfitter_cfg.c **** 			{0x2Fu, 0x02u},
 683:.\Generated_Source\PSoC5/cyfitter_cfg.c **** 			{0x30u, 0x10u},
 684:.\Generated_Source\PSoC5/cyfitter_cfg.c **** 			{0x31u, 0x20u},
 685:.\Generated_Source\PSoC5/cyfitter_cfg.c **** 			{0x32u, 0x08u},
 686:.\Generated_Source\PSoC5/cyfitter_cfg.c **** 			{0x38u, 0x20u},
 687:.\Generated_Source\PSoC5/cyfitter_cfg.c **** 			{0x39u, 0x04u},
 688:.\Generated_Source\PSoC5/cyfitter_cfg.c **** 			{0x3Au, 0x40u},
 689:.\Generated_Source\PSoC5/cyfitter_cfg.c **** 			{0x3Bu, 0x88u},
 690:.\Generated_Source\PSoC5/cyfitter_cfg.c **** 			{0x3Cu, 0x04u},
 691:.\Generated_Source\PSoC5/cyfitter_cfg.c **** 			{0x43u, 0x44u},
 692:.\Generated_Source\PSoC5/cyfitter_cfg.c **** 			{0x45u, 0x01u},
 693:.\Generated_Source\PSoC5/cyfitter_cfg.c **** 			{0x47u, 0x08u},
 694:.\Generated_Source\PSoC5/cyfitter_cfg.c **** 			{0x48u, 0x02u},
 695:.\Generated_Source\PSoC5/cyfitter_cfg.c **** 			{0x49u, 0x05u},
 696:.\Generated_Source\PSoC5/cyfitter_cfg.c **** 			{0x4Eu, 0x02u},
 697:.\Generated_Source\PSoC5/cyfitter_cfg.c **** 			{0x50u, 0x02u},
 698:.\Generated_Source\PSoC5/cyfitter_cfg.c **** 			{0x52u, 0x02u},
 699:.\Generated_Source\PSoC5/cyfitter_cfg.c **** 			{0x59u, 0x05u},
 700:.\Generated_Source\PSoC5/cyfitter_cfg.c **** 			{0x5Au, 0x40u},
 701:.\Generated_Source\PSoC5/cyfitter_cfg.c **** 			{0x5Eu, 0xA8u},
 702:.\Generated_Source\PSoC5/cyfitter_cfg.c **** 			{0x5Fu, 0x01u},
ARM GAS  C:\Users\xavieran\AppData\Local\Temp\ccKklXac.s 			page 24


 703:.\Generated_Source\PSoC5/cyfitter_cfg.c **** 			{0x79u, 0x10u},
 704:.\Generated_Source\PSoC5/cyfitter_cfg.c **** 			{0x7Au, 0x20u},
 705:.\Generated_Source\PSoC5/cyfitter_cfg.c **** 			{0x7Du, 0x08u},
 706:.\Generated_Source\PSoC5/cyfitter_cfg.c **** 			{0x7Fu, 0x01u},
 707:.\Generated_Source\PSoC5/cyfitter_cfg.c **** 			{0x83u, 0x20u},
 708:.\Generated_Source\PSoC5/cyfitter_cfg.c **** 			{0x87u, 0x40u},
 709:.\Generated_Source\PSoC5/cyfitter_cfg.c **** 			{0x8Au, 0x80u},
 710:.\Generated_Source\PSoC5/cyfitter_cfg.c **** 			{0x93u, 0x01u},
 711:.\Generated_Source\PSoC5/cyfitter_cfg.c **** 			{0x94u, 0x44u},
 712:.\Generated_Source\PSoC5/cyfitter_cfg.c **** 			{0x95u, 0x14u},
 713:.\Generated_Source\PSoC5/cyfitter_cfg.c **** 			{0x99u, 0x20u},
 714:.\Generated_Source\PSoC5/cyfitter_cfg.c **** 			{0x9Du, 0x82u},
 715:.\Generated_Source\PSoC5/cyfitter_cfg.c **** 			{0xA2u, 0x04u},
 716:.\Generated_Source\PSoC5/cyfitter_cfg.c **** 			{0xA3u, 0x32u},
 717:.\Generated_Source\PSoC5/cyfitter_cfg.c **** 			{0xA5u, 0x17u},
 718:.\Generated_Source\PSoC5/cyfitter_cfg.c **** 			{0xAEu, 0x50u},
 719:.\Generated_Source\PSoC5/cyfitter_cfg.c **** 			{0xAFu, 0x41u},
 720:.\Generated_Source\PSoC5/cyfitter_cfg.c **** 			{0xB1u, 0x08u},
 721:.\Generated_Source\PSoC5/cyfitter_cfg.c **** 			{0xB4u, 0xA0u},
 722:.\Generated_Source\PSoC5/cyfitter_cfg.c **** 			{0xB7u, 0x40u},
 723:.\Generated_Source\PSoC5/cyfitter_cfg.c **** 			{0xC0u, 0x05u},
 724:.\Generated_Source\PSoC5/cyfitter_cfg.c **** 			{0xC2u, 0x4Fu},
 725:.\Generated_Source\PSoC5/cyfitter_cfg.c **** 			{0xC4u, 0x0Fu},
 726:.\Generated_Source\PSoC5/cyfitter_cfg.c **** 			{0xCAu, 0x11u},
 727:.\Generated_Source\PSoC5/cyfitter_cfg.c **** 			{0xCCu, 0x06u},
 728:.\Generated_Source\PSoC5/cyfitter_cfg.c **** 			{0xCEu, 0x4Eu},
 729:.\Generated_Source\PSoC5/cyfitter_cfg.c **** 			{0xD0u, 0xCAu},
 730:.\Generated_Source\PSoC5/cyfitter_cfg.c **** 			{0xD2u, 0x18u},
 731:.\Generated_Source\PSoC5/cyfitter_cfg.c **** 			{0xD6u, 0xFBu},
 732:.\Generated_Source\PSoC5/cyfitter_cfg.c **** 			{0xDEu, 0x56u},
 733:.\Generated_Source\PSoC5/cyfitter_cfg.c **** 			{0xE2u, 0x08u},
 734:.\Generated_Source\PSoC5/cyfitter_cfg.c **** 			{0xE6u, 0x02u},
 735:.\Generated_Source\PSoC5/cyfitter_cfg.c **** 			{0xE8u, 0x04u},
 736:.\Generated_Source\PSoC5/cyfitter_cfg.c **** 			{0xEAu, 0x10u},
 737:.\Generated_Source\PSoC5/cyfitter_cfg.c **** 			{0xECu, 0x01u},
 738:.\Generated_Source\PSoC5/cyfitter_cfg.c **** 			{0xEEu, 0x50u},
 739:.\Generated_Source\PSoC5/cyfitter_cfg.c **** 			{0x06u, 0x02u},
 740:.\Generated_Source\PSoC5/cyfitter_cfg.c **** 			{0x0Bu, 0x01u},
 741:.\Generated_Source\PSoC5/cyfitter_cfg.c **** 			{0x10u, 0x02u},
 742:.\Generated_Source\PSoC5/cyfitter_cfg.c **** 			{0x18u, 0x01u},
 743:.\Generated_Source\PSoC5/cyfitter_cfg.c **** 			{0x24u, 0x01u},
 744:.\Generated_Source\PSoC5/cyfitter_cfg.c **** 			{0x27u, 0x02u},
 745:.\Generated_Source\PSoC5/cyfitter_cfg.c **** 			{0x2Bu, 0x01u},
 746:.\Generated_Source\PSoC5/cyfitter_cfg.c **** 			{0x31u, 0x02u},
 747:.\Generated_Source\PSoC5/cyfitter_cfg.c **** 			{0x34u, 0x02u},
 748:.\Generated_Source\PSoC5/cyfitter_cfg.c **** 			{0x35u, 0x01u},
 749:.\Generated_Source\PSoC5/cyfitter_cfg.c **** 			{0x36u, 0x01u},
 750:.\Generated_Source\PSoC5/cyfitter_cfg.c **** 			{0x40u, 0x61u},
 751:.\Generated_Source\PSoC5/cyfitter_cfg.c **** 			{0x41u, 0x05u},
 752:.\Generated_Source\PSoC5/cyfitter_cfg.c **** 			{0x49u, 0xFFu},
 753:.\Generated_Source\PSoC5/cyfitter_cfg.c **** 			{0x4Au, 0xFFu},
 754:.\Generated_Source\PSoC5/cyfitter_cfg.c **** 			{0x4Bu, 0xFFu},
 755:.\Generated_Source\PSoC5/cyfitter_cfg.c **** 			{0x4Du, 0xA0u},
 756:.\Generated_Source\PSoC5/cyfitter_cfg.c **** 			{0x4Fu, 0x04u},
 757:.\Generated_Source\PSoC5/cyfitter_cfg.c **** 			{0x50u, 0x18u},
 758:.\Generated_Source\PSoC5/cyfitter_cfg.c **** 			{0x54u, 0x07u},
 759:.\Generated_Source\PSoC5/cyfitter_cfg.c **** 			{0x58u, 0x04u},
ARM GAS  C:\Users\xavieran\AppData\Local\Temp\ccKklXac.s 			page 25


 760:.\Generated_Source\PSoC5/cyfitter_cfg.c **** 			{0x59u, 0x04u},
 761:.\Generated_Source\PSoC5/cyfitter_cfg.c **** 			{0x5Au, 0x04u},
 762:.\Generated_Source\PSoC5/cyfitter_cfg.c **** 			{0x5Bu, 0x04u},
 763:.\Generated_Source\PSoC5/cyfitter_cfg.c **** 			{0x5Cu, 0x43u},
 764:.\Generated_Source\PSoC5/cyfitter_cfg.c **** 			{0x5Du, 0x34u},
 765:.\Generated_Source\PSoC5/cyfitter_cfg.c **** 			{0x5Fu, 0x01u},
 766:.\Generated_Source\PSoC5/cyfitter_cfg.c **** 			{0x60u, 0x40u},
 767:.\Generated_Source\PSoC5/cyfitter_cfg.c **** 			{0x62u, 0xC0u},
 768:.\Generated_Source\PSoC5/cyfitter_cfg.c **** 			{0x64u, 0x40u},
 769:.\Generated_Source\PSoC5/cyfitter_cfg.c **** 			{0x65u, 0x40u},
 770:.\Generated_Source\PSoC5/cyfitter_cfg.c **** 			{0x66u, 0xC0u},
 771:.\Generated_Source\PSoC5/cyfitter_cfg.c **** 			{0x68u, 0xC0u},
 772:.\Generated_Source\PSoC5/cyfitter_cfg.c **** 			{0x6Au, 0xC0u},
 773:.\Generated_Source\PSoC5/cyfitter_cfg.c **** 			{0x6Cu, 0xC0u},
 774:.\Generated_Source\PSoC5/cyfitter_cfg.c **** 			{0x6Eu, 0xC0u},
 775:.\Generated_Source\PSoC5/cyfitter_cfg.c **** 			{0x83u, 0x02u},
 776:.\Generated_Source\PSoC5/cyfitter_cfg.c **** 			{0x8Au, 0x01u},
 777:.\Generated_Source\PSoC5/cyfitter_cfg.c **** 			{0x96u, 0x06u},
 778:.\Generated_Source\PSoC5/cyfitter_cfg.c **** 			{0x97u, 0x04u},
 779:.\Generated_Source\PSoC5/cyfitter_cfg.c **** 			{0x9Cu, 0x04u},
 780:.\Generated_Source\PSoC5/cyfitter_cfg.c **** 			{0xA7u, 0x04u},
 781:.\Generated_Source\PSoC5/cyfitter_cfg.c **** 			{0xA9u, 0x08u},
 782:.\Generated_Source\PSoC5/cyfitter_cfg.c **** 			{0xAAu, 0x01u},
 783:.\Generated_Source\PSoC5/cyfitter_cfg.c **** 			{0xADu, 0x01u},
 784:.\Generated_Source\PSoC5/cyfitter_cfg.c **** 			{0xB1u, 0x01u},
 785:.\Generated_Source\PSoC5/cyfitter_cfg.c **** 			{0xB2u, 0x04u},
 786:.\Generated_Source\PSoC5/cyfitter_cfg.c **** 			{0xB3u, 0x04u},
 787:.\Generated_Source\PSoC5/cyfitter_cfg.c **** 			{0xB4u, 0x01u},
 788:.\Generated_Source\PSoC5/cyfitter_cfg.c **** 			{0xB5u, 0x02u},
 789:.\Generated_Source\PSoC5/cyfitter_cfg.c **** 			{0xB6u, 0x02u},
 790:.\Generated_Source\PSoC5/cyfitter_cfg.c **** 			{0xB7u, 0x08u},
 791:.\Generated_Source\PSoC5/cyfitter_cfg.c **** 			{0xBCu, 0x08u},
 792:.\Generated_Source\PSoC5/cyfitter_cfg.c **** 			{0xBFu, 0x41u},
 793:.\Generated_Source\PSoC5/cyfitter_cfg.c **** 			{0xC0u, 0x61u},
 794:.\Generated_Source\PSoC5/cyfitter_cfg.c **** 			{0xC1u, 0x04u},
 795:.\Generated_Source\PSoC5/cyfitter_cfg.c **** 			{0xC5u, 0xD0u},
 796:.\Generated_Source\PSoC5/cyfitter_cfg.c **** 			{0xC6u, 0x50u},
 797:.\Generated_Source\PSoC5/cyfitter_cfg.c **** 			{0xC7u, 0x21u},
 798:.\Generated_Source\PSoC5/cyfitter_cfg.c **** 			{0xC8u, 0x3Au},
 799:.\Generated_Source\PSoC5/cyfitter_cfg.c **** 			{0xC9u, 0xFFu},
 800:.\Generated_Source\PSoC5/cyfitter_cfg.c **** 			{0xCAu, 0xFFu},
 801:.\Generated_Source\PSoC5/cyfitter_cfg.c **** 			{0xCBu, 0xFFu},
 802:.\Generated_Source\PSoC5/cyfitter_cfg.c **** 			{0xCDu, 0xAFu},
 803:.\Generated_Source\PSoC5/cyfitter_cfg.c **** 			{0xCEu, 0x0Fu},
 804:.\Generated_Source\PSoC5/cyfitter_cfg.c **** 			{0xCFu, 0x04u},
 805:.\Generated_Source\PSoC5/cyfitter_cfg.c **** 			{0xD0u, 0x18u},
 806:.\Generated_Source\PSoC5/cyfitter_cfg.c **** 			{0xD2u, 0x80u},
 807:.\Generated_Source\PSoC5/cyfitter_cfg.c **** 			{0xD8u, 0x04u},
 808:.\Generated_Source\PSoC5/cyfitter_cfg.c **** 			{0xD9u, 0x04u},
 809:.\Generated_Source\PSoC5/cyfitter_cfg.c **** 			{0xDAu, 0x04u},
 810:.\Generated_Source\PSoC5/cyfitter_cfg.c **** 			{0xDBu, 0x04u},
 811:.\Generated_Source\PSoC5/cyfitter_cfg.c **** 			{0xDCu, 0x34u},
 812:.\Generated_Source\PSoC5/cyfitter_cfg.c **** 			{0xDDu, 0x34u},
 813:.\Generated_Source\PSoC5/cyfitter_cfg.c **** 			{0xDFu, 0x41u},
 814:.\Generated_Source\PSoC5/cyfitter_cfg.c **** 			{0xE0u, 0x40u},
 815:.\Generated_Source\PSoC5/cyfitter_cfg.c **** 			{0xE2u, 0xC0u},
 816:.\Generated_Source\PSoC5/cyfitter_cfg.c **** 			{0xE4u, 0x40u},
ARM GAS  C:\Users\xavieran\AppData\Local\Temp\ccKklXac.s 			page 26


 817:.\Generated_Source\PSoC5/cyfitter_cfg.c **** 			{0xE5u, 0x40u},
 818:.\Generated_Source\PSoC5/cyfitter_cfg.c **** 			{0xE6u, 0xC0u},
 819:.\Generated_Source\PSoC5/cyfitter_cfg.c **** 			{0xE8u, 0xC0u},
 820:.\Generated_Source\PSoC5/cyfitter_cfg.c **** 			{0xEAu, 0xC0u},
 821:.\Generated_Source\PSoC5/cyfitter_cfg.c **** 			{0xECu, 0xC0u},
 822:.\Generated_Source\PSoC5/cyfitter_cfg.c **** 			{0xEEu, 0xC0u},
 823:.\Generated_Source\PSoC5/cyfitter_cfg.c **** 			{0x01u, 0x08u},
 824:.\Generated_Source\PSoC5/cyfitter_cfg.c **** 			{0x05u, 0x20u},
 825:.\Generated_Source\PSoC5/cyfitter_cfg.c **** 			{0x0Au, 0x44u},
 826:.\Generated_Source\PSoC5/cyfitter_cfg.c **** 			{0x0Eu, 0x01u},
 827:.\Generated_Source\PSoC5/cyfitter_cfg.c **** 			{0x0Fu, 0x20u},
 828:.\Generated_Source\PSoC5/cyfitter_cfg.c **** 			{0x12u, 0x10u},
 829:.\Generated_Source\PSoC5/cyfitter_cfg.c **** 			{0x16u, 0x04u},
 830:.\Generated_Source\PSoC5/cyfitter_cfg.c **** 			{0x19u, 0x90u},
 831:.\Generated_Source\PSoC5/cyfitter_cfg.c **** 			{0x1Du, 0x20u},
 832:.\Generated_Source\PSoC5/cyfitter_cfg.c **** 			{0x1Eu, 0x29u},
 833:.\Generated_Source\PSoC5/cyfitter_cfg.c **** 			{0x20u, 0x80u},
 834:.\Generated_Source\PSoC5/cyfitter_cfg.c **** 			{0x23u, 0x04u},
 835:.\Generated_Source\PSoC5/cyfitter_cfg.c **** 			{0x24u, 0x40u},
 836:.\Generated_Source\PSoC5/cyfitter_cfg.c **** 			{0x25u, 0x81u},
 837:.\Generated_Source\PSoC5/cyfitter_cfg.c **** 			{0x27u, 0x68u},
 838:.\Generated_Source\PSoC5/cyfitter_cfg.c **** 			{0x29u, 0x20u},
 839:.\Generated_Source\PSoC5/cyfitter_cfg.c **** 			{0x2Au, 0x04u},
 840:.\Generated_Source\PSoC5/cyfitter_cfg.c **** 			{0x2Du, 0x08u},
 841:.\Generated_Source\PSoC5/cyfitter_cfg.c **** 			{0x2Fu, 0x05u},
 842:.\Generated_Source\PSoC5/cyfitter_cfg.c **** 			{0x37u, 0x08u},
 843:.\Generated_Source\PSoC5/cyfitter_cfg.c **** 			{0x3Au, 0x20u},
 844:.\Generated_Source\PSoC5/cyfitter_cfg.c **** 			{0x3Cu, 0x02u},
 845:.\Generated_Source\PSoC5/cyfitter_cfg.c **** 			{0x41u, 0x80u},
 846:.\Generated_Source\PSoC5/cyfitter_cfg.c **** 			{0x45u, 0x82u},
 847:.\Generated_Source\PSoC5/cyfitter_cfg.c **** 			{0x48u, 0x02u},
 848:.\Generated_Source\PSoC5/cyfitter_cfg.c **** 			{0x49u, 0x20u},
 849:.\Generated_Source\PSoC5/cyfitter_cfg.c **** 			{0x4Du, 0x22u},
 850:.\Generated_Source\PSoC5/cyfitter_cfg.c **** 			{0x54u, 0x06u},
 851:.\Generated_Source\PSoC5/cyfitter_cfg.c **** 			{0x55u, 0x12u},
 852:.\Generated_Source\PSoC5/cyfitter_cfg.c **** 			{0x56u, 0x24u},
 853:.\Generated_Source\PSoC5/cyfitter_cfg.c **** 			{0x59u, 0x95u},
 854:.\Generated_Source\PSoC5/cyfitter_cfg.c **** 			{0x74u, 0x01u},
 855:.\Generated_Source\PSoC5/cyfitter_cfg.c **** 			{0x7Cu, 0x80u},
 856:.\Generated_Source\PSoC5/cyfitter_cfg.c **** 			{0x83u, 0x08u},
 857:.\Generated_Source\PSoC5/cyfitter_cfg.c **** 			{0x87u, 0x04u},
 858:.\Generated_Source\PSoC5/cyfitter_cfg.c **** 			{0x8Du, 0x40u},
 859:.\Generated_Source\PSoC5/cyfitter_cfg.c **** 			{0x94u, 0x44u},
 860:.\Generated_Source\PSoC5/cyfitter_cfg.c **** 			{0x95u, 0x10u},
 861:.\Generated_Source\PSoC5/cyfitter_cfg.c **** 			{0x97u, 0x0Au},
 862:.\Generated_Source\PSoC5/cyfitter_cfg.c **** 			{0x99u, 0x20u},
 863:.\Generated_Source\PSoC5/cyfitter_cfg.c **** 			{0x9Du, 0x02u},
 864:.\Generated_Source\PSoC5/cyfitter_cfg.c **** 			{0x9Fu, 0x60u},
 865:.\Generated_Source\PSoC5/cyfitter_cfg.c **** 			{0xA3u, 0x12u},
 866:.\Generated_Source\PSoC5/cyfitter_cfg.c **** 			{0xA4u, 0x64u},
 867:.\Generated_Source\PSoC5/cyfitter_cfg.c **** 			{0xA5u, 0x33u},
 868:.\Generated_Source\PSoC5/cyfitter_cfg.c **** 			{0xA6u, 0xD0u},
 869:.\Generated_Source\PSoC5/cyfitter_cfg.c **** 			{0xABu, 0x20u},
 870:.\Generated_Source\PSoC5/cyfitter_cfg.c **** 			{0xAFu, 0x08u},
 871:.\Generated_Source\PSoC5/cyfitter_cfg.c **** 			{0xB0u, 0x10u},
 872:.\Generated_Source\PSoC5/cyfitter_cfg.c **** 			{0xB4u, 0x84u},
 873:.\Generated_Source\PSoC5/cyfitter_cfg.c **** 			{0xB5u, 0x04u},
ARM GAS  C:\Users\xavieran\AppData\Local\Temp\ccKklXac.s 			page 27


 874:.\Generated_Source\PSoC5/cyfitter_cfg.c **** 			{0xB6u, 0x40u},
 875:.\Generated_Source\PSoC5/cyfitter_cfg.c **** 			{0xC0u, 0x44u},
 876:.\Generated_Source\PSoC5/cyfitter_cfg.c **** 			{0xC2u, 0xAAu},
 877:.\Generated_Source\PSoC5/cyfitter_cfg.c **** 			{0xC4u, 0x44u},
 878:.\Generated_Source\PSoC5/cyfitter_cfg.c **** 			{0xCAu, 0x76u},
 879:.\Generated_Source\PSoC5/cyfitter_cfg.c **** 			{0xCCu, 0x40u},
 880:.\Generated_Source\PSoC5/cyfitter_cfg.c **** 			{0xCEu, 0x84u},
 881:.\Generated_Source\PSoC5/cyfitter_cfg.c **** 			{0xD0u, 0x98u},
 882:.\Generated_Source\PSoC5/cyfitter_cfg.c **** 			{0xD2u, 0x2Cu},
 883:.\Generated_Source\PSoC5/cyfitter_cfg.c **** 			{0xD6u, 0x0Fu},
 884:.\Generated_Source\PSoC5/cyfitter_cfg.c **** 			{0xDEu, 0x10u},
 885:.\Generated_Source\PSoC5/cyfitter_cfg.c **** 			{0xE2u, 0x08u},
 886:.\Generated_Source\PSoC5/cyfitter_cfg.c **** 			{0xE6u, 0x01u},
 887:.\Generated_Source\PSoC5/cyfitter_cfg.c **** 			{0xECu, 0x40u},
 888:.\Generated_Source\PSoC5/cyfitter_cfg.c **** 			{0x02u, 0x01u},
 889:.\Generated_Source\PSoC5/cyfitter_cfg.c **** 			{0x0Cu, 0x01u},
 890:.\Generated_Source\PSoC5/cyfitter_cfg.c **** 			{0x0Fu, 0x01u},
 891:.\Generated_Source\PSoC5/cyfitter_cfg.c **** 			{0x2Fu, 0x02u},
 892:.\Generated_Source\PSoC5/cyfitter_cfg.c **** 			{0x30u, 0x01u},
 893:.\Generated_Source\PSoC5/cyfitter_cfg.c **** 			{0x35u, 0x01u},
 894:.\Generated_Source\PSoC5/cyfitter_cfg.c **** 			{0x37u, 0x02u},
 895:.\Generated_Source\PSoC5/cyfitter_cfg.c **** 			{0x3Cu, 0x02u},
 896:.\Generated_Source\PSoC5/cyfitter_cfg.c **** 			{0x3Du, 0x20u},
 897:.\Generated_Source\PSoC5/cyfitter_cfg.c **** 			{0x40u, 0x30u},
 898:.\Generated_Source\PSoC5/cyfitter_cfg.c **** 			{0x41u, 0x01u},
 899:.\Generated_Source\PSoC5/cyfitter_cfg.c **** 			{0x49u, 0xFFu},
 900:.\Generated_Source\PSoC5/cyfitter_cfg.c **** 			{0x4Au, 0xFFu},
 901:.\Generated_Source\PSoC5/cyfitter_cfg.c **** 			{0x4Bu, 0xFFu},
 902:.\Generated_Source\PSoC5/cyfitter_cfg.c **** 			{0x4Du, 0xA0u},
 903:.\Generated_Source\PSoC5/cyfitter_cfg.c **** 			{0x4Fu, 0x04u},
 904:.\Generated_Source\PSoC5/cyfitter_cfg.c **** 			{0x50u, 0x18u},
 905:.\Generated_Source\PSoC5/cyfitter_cfg.c **** 			{0x56u, 0x08u},
 906:.\Generated_Source\PSoC5/cyfitter_cfg.c **** 			{0x58u, 0x04u},
 907:.\Generated_Source\PSoC5/cyfitter_cfg.c **** 			{0x59u, 0x04u},
 908:.\Generated_Source\PSoC5/cyfitter_cfg.c **** 			{0x5Au, 0x04u},
 909:.\Generated_Source\PSoC5/cyfitter_cfg.c **** 			{0x5Bu, 0x04u},
 910:.\Generated_Source\PSoC5/cyfitter_cfg.c **** 			{0x5Cu, 0x44u},
 911:.\Generated_Source\PSoC5/cyfitter_cfg.c **** 			{0x5Du, 0x93u},
 912:.\Generated_Source\PSoC5/cyfitter_cfg.c **** 			{0x5Fu, 0x41u},
 913:.\Generated_Source\PSoC5/cyfitter_cfg.c **** 			{0x60u, 0x40u},
 914:.\Generated_Source\PSoC5/cyfitter_cfg.c **** 			{0x62u, 0xC0u},
 915:.\Generated_Source\PSoC5/cyfitter_cfg.c **** 			{0x64u, 0x40u},
 916:.\Generated_Source\PSoC5/cyfitter_cfg.c **** 			{0x65u, 0x40u},
 917:.\Generated_Source\PSoC5/cyfitter_cfg.c **** 			{0x66u, 0xC0u},
 918:.\Generated_Source\PSoC5/cyfitter_cfg.c **** 			{0x68u, 0xC0u},
 919:.\Generated_Source\PSoC5/cyfitter_cfg.c **** 			{0x6Au, 0xC0u},
 920:.\Generated_Source\PSoC5/cyfitter_cfg.c **** 			{0x6Cu, 0xC0u},
 921:.\Generated_Source\PSoC5/cyfitter_cfg.c **** 			{0x6Eu, 0xC0u},
 922:.\Generated_Source\PSoC5/cyfitter_cfg.c **** 			{0x81u, 0x01u},
 923:.\Generated_Source\PSoC5/cyfitter_cfg.c **** 			{0x85u, 0x08u},
 924:.\Generated_Source\PSoC5/cyfitter_cfg.c **** 			{0x86u, 0x01u},
 925:.\Generated_Source\PSoC5/cyfitter_cfg.c **** 			{0x87u, 0x07u},
 926:.\Generated_Source\PSoC5/cyfitter_cfg.c **** 			{0x89u, 0x7Fu},
 927:.\Generated_Source\PSoC5/cyfitter_cfg.c **** 			{0x8Du, 0x01u},
 928:.\Generated_Source\PSoC5/cyfitter_cfg.c **** 			{0x91u, 0x40u},
 929:.\Generated_Source\PSoC5/cyfitter_cfg.c **** 			{0x93u, 0x07u},
 930:.\Generated_Source\PSoC5/cyfitter_cfg.c **** 			{0x94u, 0x04u},
ARM GAS  C:\Users\xavieran\AppData\Local\Temp\ccKklXac.s 			page 28


 931:.\Generated_Source\PSoC5/cyfitter_cfg.c **** 			{0x95u, 0x3Au},
 932:.\Generated_Source\PSoC5/cyfitter_cfg.c **** 			{0x97u, 0x04u},
 933:.\Generated_Source\PSoC5/cyfitter_cfg.c **** 			{0x99u, 0x22u},
 934:.\Generated_Source\PSoC5/cyfitter_cfg.c **** 			{0x9Bu, 0x05u},
 935:.\Generated_Source\PSoC5/cyfitter_cfg.c **** 			{0x9Du, 0x05u},
 936:.\Generated_Source\PSoC5/cyfitter_cfg.c **** 			{0x9Eu, 0x02u},
 937:.\Generated_Source\PSoC5/cyfitter_cfg.c **** 			{0x9Fu, 0x78u},
 938:.\Generated_Source\PSoC5/cyfitter_cfg.c **** 			{0xA1u, 0x10u},
 939:.\Generated_Source\PSoC5/cyfitter_cfg.c **** 			{0xA3u, 0x07u},
 940:.\Generated_Source\PSoC5/cyfitter_cfg.c **** 			{0xA5u, 0x03u},
 941:.\Generated_Source\PSoC5/cyfitter_cfg.c **** 			{0xA6u, 0x02u},
 942:.\Generated_Source\PSoC5/cyfitter_cfg.c **** 			{0xA9u, 0x03u},
 943:.\Generated_Source\PSoC5/cyfitter_cfg.c **** 			{0xADu, 0x01u},
 944:.\Generated_Source\PSoC5/cyfitter_cfg.c **** 			{0xB0u, 0x01u},
 945:.\Generated_Source\PSoC5/cyfitter_cfg.c **** 			{0xB1u, 0x7Fu},
 946:.\Generated_Source\PSoC5/cyfitter_cfg.c **** 			{0xB2u, 0x02u},
 947:.\Generated_Source\PSoC5/cyfitter_cfg.c **** 			{0xB4u, 0x04u},
 948:.\Generated_Source\PSoC5/cyfitter_cfg.c **** 			{0xBEu, 0x04u},
 949:.\Generated_Source\PSoC5/cyfitter_cfg.c **** 			{0xBFu, 0x01u},
 950:.\Generated_Source\PSoC5/cyfitter_cfg.c **** 			{0xC0u, 0x30u},
 951:.\Generated_Source\PSoC5/cyfitter_cfg.c **** 			{0xC1u, 0x01u},
 952:.\Generated_Source\PSoC5/cyfitter_cfg.c **** 			{0xC5u, 0xD5u},
 953:.\Generated_Source\PSoC5/cyfitter_cfg.c **** 			{0xC6u, 0x12u},
 954:.\Generated_Source\PSoC5/cyfitter_cfg.c **** 			{0xC8u, 0x0Fu},
 955:.\Generated_Source\PSoC5/cyfitter_cfg.c **** 			{0xC9u, 0xFFu},
 956:.\Generated_Source\PSoC5/cyfitter_cfg.c **** 			{0xCAu, 0xFFu},
 957:.\Generated_Source\PSoC5/cyfitter_cfg.c **** 			{0xCBu, 0xFFu},
 958:.\Generated_Source\PSoC5/cyfitter_cfg.c **** 			{0xCDu, 0xAFu},
 959:.\Generated_Source\PSoC5/cyfitter_cfg.c **** 			{0xCEu, 0x0Fu},
 960:.\Generated_Source\PSoC5/cyfitter_cfg.c **** 			{0xCFu, 0x04u},
 961:.\Generated_Source\PSoC5/cyfitter_cfg.c **** 			{0xD0u, 0x18u},
 962:.\Generated_Source\PSoC5/cyfitter_cfg.c **** 			{0xD2u, 0x80u},
 963:.\Generated_Source\PSoC5/cyfitter_cfg.c **** 			{0xD8u, 0x04u},
 964:.\Generated_Source\PSoC5/cyfitter_cfg.c **** 			{0xD9u, 0x04u},
 965:.\Generated_Source\PSoC5/cyfitter_cfg.c **** 			{0xDAu, 0x04u},
 966:.\Generated_Source\PSoC5/cyfitter_cfg.c **** 			{0xDBu, 0x04u},
 967:.\Generated_Source\PSoC5/cyfitter_cfg.c **** 			{0xDCu, 0x03u},
 968:.\Generated_Source\PSoC5/cyfitter_cfg.c **** 			{0xDDu, 0x43u},
 969:.\Generated_Source\PSoC5/cyfitter_cfg.c **** 			{0xDFu, 0x01u},
 970:.\Generated_Source\PSoC5/cyfitter_cfg.c **** 			{0xE0u, 0x40u},
 971:.\Generated_Source\PSoC5/cyfitter_cfg.c **** 			{0xE2u, 0xC0u},
 972:.\Generated_Source\PSoC5/cyfitter_cfg.c **** 			{0xE4u, 0x40u},
 973:.\Generated_Source\PSoC5/cyfitter_cfg.c **** 			{0xE5u, 0x40u},
 974:.\Generated_Source\PSoC5/cyfitter_cfg.c **** 			{0xE6u, 0xC0u},
 975:.\Generated_Source\PSoC5/cyfitter_cfg.c **** 			{0xE8u, 0xC0u},
 976:.\Generated_Source\PSoC5/cyfitter_cfg.c **** 			{0xEAu, 0xC0u},
 977:.\Generated_Source\PSoC5/cyfitter_cfg.c **** 			{0xECu, 0xC0u},
 978:.\Generated_Source\PSoC5/cyfitter_cfg.c **** 			{0xEEu, 0xC0u},
 979:.\Generated_Source\PSoC5/cyfitter_cfg.c **** 			{0x01u, 0x08u},
 980:.\Generated_Source\PSoC5/cyfitter_cfg.c **** 			{0x06u, 0x80u},
 981:.\Generated_Source\PSoC5/cyfitter_cfg.c **** 			{0x07u, 0x02u},
 982:.\Generated_Source\PSoC5/cyfitter_cfg.c **** 			{0x09u, 0x80u},
 983:.\Generated_Source\PSoC5/cyfitter_cfg.c **** 			{0x0Bu, 0x20u},
 984:.\Generated_Source\PSoC5/cyfitter_cfg.c **** 			{0x13u, 0x08u},
 985:.\Generated_Source\PSoC5/cyfitter_cfg.c **** 			{0x19u, 0x04u},
 986:.\Generated_Source\PSoC5/cyfitter_cfg.c **** 			{0x1Au, 0x44u},
 987:.\Generated_Source\PSoC5/cyfitter_cfg.c **** 			{0x1Eu, 0x80u},
ARM GAS  C:\Users\xavieran\AppData\Local\Temp\ccKklXac.s 			page 29


 988:.\Generated_Source\PSoC5/cyfitter_cfg.c **** 			{0x21u, 0x01u},
 989:.\Generated_Source\PSoC5/cyfitter_cfg.c **** 			{0x24u, 0x04u},
 990:.\Generated_Source\PSoC5/cyfitter_cfg.c **** 			{0x27u, 0x02u},
 991:.\Generated_Source\PSoC5/cyfitter_cfg.c **** 			{0x2Au, 0x46u},
 992:.\Generated_Source\PSoC5/cyfitter_cfg.c **** 			{0x2Bu, 0x08u},
 993:.\Generated_Source\PSoC5/cyfitter_cfg.c **** 			{0x2Eu, 0x80u},
 994:.\Generated_Source\PSoC5/cyfitter_cfg.c **** 			{0x2Fu, 0x02u},
 995:.\Generated_Source\PSoC5/cyfitter_cfg.c **** 			{0x30u, 0x16u},
 996:.\Generated_Source\PSoC5/cyfitter_cfg.c **** 			{0x31u, 0x10u},
 997:.\Generated_Source\PSoC5/cyfitter_cfg.c **** 			{0x32u, 0x80u},
 998:.\Generated_Source\PSoC5/cyfitter_cfg.c **** 			{0x38u, 0x20u},
 999:.\Generated_Source\PSoC5/cyfitter_cfg.c **** 			{0x39u, 0x04u},
1000:.\Generated_Source\PSoC5/cyfitter_cfg.c **** 			{0x3Au, 0x01u},
1001:.\Generated_Source\PSoC5/cyfitter_cfg.c **** 			{0x3Bu, 0x80u},
1002:.\Generated_Source\PSoC5/cyfitter_cfg.c **** 			{0x3Fu, 0x40u},
1003:.\Generated_Source\PSoC5/cyfitter_cfg.c **** 			{0x41u, 0x88u},
1004:.\Generated_Source\PSoC5/cyfitter_cfg.c **** 			{0x45u, 0x88u},
1005:.\Generated_Source\PSoC5/cyfitter_cfg.c **** 			{0x47u, 0x08u},
1006:.\Generated_Source\PSoC5/cyfitter_cfg.c **** 			{0x49u, 0x09u},
1007:.\Generated_Source\PSoC5/cyfitter_cfg.c **** 			{0x51u, 0x80u},
1008:.\Generated_Source\PSoC5/cyfitter_cfg.c **** 			{0x52u, 0x10u},
1009:.\Generated_Source\PSoC5/cyfitter_cfg.c **** 			{0x53u, 0x10u},
1010:.\Generated_Source\PSoC5/cyfitter_cfg.c **** 			{0x5Cu, 0x80u},
1011:.\Generated_Source\PSoC5/cyfitter_cfg.c **** 			{0x5Du, 0x10u},
1012:.\Generated_Source\PSoC5/cyfitter_cfg.c **** 			{0x67u, 0x0Au},
1013:.\Generated_Source\PSoC5/cyfitter_cfg.c **** 			{0x73u, 0x40u},
1014:.\Generated_Source\PSoC5/cyfitter_cfg.c **** 			{0x7Cu, 0x80u},
1015:.\Generated_Source\PSoC5/cyfitter_cfg.c **** 			{0x82u, 0x05u},
1016:.\Generated_Source\PSoC5/cyfitter_cfg.c **** 			{0x87u, 0x40u},
1017:.\Generated_Source\PSoC5/cyfitter_cfg.c **** 			{0x89u, 0x14u},
1018:.\Generated_Source\PSoC5/cyfitter_cfg.c **** 			{0x8Au, 0x40u},
1019:.\Generated_Source\PSoC5/cyfitter_cfg.c **** 			{0x90u, 0x20u},
1020:.\Generated_Source\PSoC5/cyfitter_cfg.c **** 			{0x91u, 0x40u},
1021:.\Generated_Source\PSoC5/cyfitter_cfg.c **** 			{0x94u, 0x04u},
1022:.\Generated_Source\PSoC5/cyfitter_cfg.c **** 			{0x95u, 0x10u},
1023:.\Generated_Source\PSoC5/cyfitter_cfg.c **** 			{0x96u, 0x44u},
1024:.\Generated_Source\PSoC5/cyfitter_cfg.c **** 			{0x97u, 0x0Au},
1025:.\Generated_Source\PSoC5/cyfitter_cfg.c **** 			{0x98u, 0x80u},
1026:.\Generated_Source\PSoC5/cyfitter_cfg.c **** 			{0x9Bu, 0x08u},
1027:.\Generated_Source\PSoC5/cyfitter_cfg.c **** 			{0x9Du, 0x0Du},
1028:.\Generated_Source\PSoC5/cyfitter_cfg.c **** 			{0x9Eu, 0x10u},
1029:.\Generated_Source\PSoC5/cyfitter_cfg.c **** 			{0xA3u, 0x0Au},
1030:.\Generated_Source\PSoC5/cyfitter_cfg.c **** 			{0xA4u, 0x20u},
1031:.\Generated_Source\PSoC5/cyfitter_cfg.c **** 			{0xA6u, 0xC0u},
1032:.\Generated_Source\PSoC5/cyfitter_cfg.c **** 			{0xA8u, 0x90u},
1033:.\Generated_Source\PSoC5/cyfitter_cfg.c **** 			{0xB6u, 0x04u},
1034:.\Generated_Source\PSoC5/cyfitter_cfg.c **** 			{0xC0u, 0x94u},
1035:.\Generated_Source\PSoC5/cyfitter_cfg.c **** 			{0xC2u, 0x05u},
1036:.\Generated_Source\PSoC5/cyfitter_cfg.c **** 			{0xC4u, 0x04u},
1037:.\Generated_Source\PSoC5/cyfitter_cfg.c **** 			{0xCAu, 0x1Fu},
1038:.\Generated_Source\PSoC5/cyfitter_cfg.c **** 			{0xCCu, 0x0Fu},
1039:.\Generated_Source\PSoC5/cyfitter_cfg.c **** 			{0xCEu, 0x1Fu},
1040:.\Generated_Source\PSoC5/cyfitter_cfg.c **** 			{0xD0u, 0x5Au},
1041:.\Generated_Source\PSoC5/cyfitter_cfg.c **** 			{0xD6u, 0x30u},
1042:.\Generated_Source\PSoC5/cyfitter_cfg.c **** 			{0xD8u, 0x30u},
1043:.\Generated_Source\PSoC5/cyfitter_cfg.c **** 			{0xDEu, 0x10u},
1044:.\Generated_Source\PSoC5/cyfitter_cfg.c **** 			{0xE0u, 0x80u},
ARM GAS  C:\Users\xavieran\AppData\Local\Temp\ccKklXac.s 			page 30


1045:.\Generated_Source\PSoC5/cyfitter_cfg.c **** 			{0xE2u, 0x0Du},
1046:.\Generated_Source\PSoC5/cyfitter_cfg.c **** 			{0xE6u, 0x08u},
1047:.\Generated_Source\PSoC5/cyfitter_cfg.c **** 			{0xEAu, 0x0Cu},
1048:.\Generated_Source\PSoC5/cyfitter_cfg.c **** 			{0x00u, 0x1Fu},
1049:.\Generated_Source\PSoC5/cyfitter_cfg.c **** 			{0x04u, 0x02u},
1050:.\Generated_Source\PSoC5/cyfitter_cfg.c **** 			{0x06u, 0x09u},
1051:.\Generated_Source\PSoC5/cyfitter_cfg.c **** 			{0x08u, 0x03u},
1052:.\Generated_Source\PSoC5/cyfitter_cfg.c **** 			{0x0Cu, 0x0Fu},
1053:.\Generated_Source\PSoC5/cyfitter_cfg.c **** 			{0x10u, 0x10u},
1054:.\Generated_Source\PSoC5/cyfitter_cfg.c **** 			{0x11u, 0x01u},
1055:.\Generated_Source\PSoC5/cyfitter_cfg.c **** 			{0x12u, 0x0Bu},
1056:.\Generated_Source\PSoC5/cyfitter_cfg.c **** 			{0x14u, 0x01u},
1057:.\Generated_Source\PSoC5/cyfitter_cfg.c **** 			{0x19u, 0x01u},
1058:.\Generated_Source\PSoC5/cyfitter_cfg.c **** 			{0x1Au, 0x14u},
1059:.\Generated_Source\PSoC5/cyfitter_cfg.c **** 			{0x1Du, 0x01u},
1060:.\Generated_Source\PSoC5/cyfitter_cfg.c **** 			{0x1Eu, 0x0Bu},
1061:.\Generated_Source\PSoC5/cyfitter_cfg.c **** 			{0x20u, 0x08u},
1062:.\Generated_Source\PSoC5/cyfitter_cfg.c **** 			{0x22u, 0x02u},
1063:.\Generated_Source\PSoC5/cyfitter_cfg.c **** 			{0x24u, 0x01u},
1064:.\Generated_Source\PSoC5/cyfitter_cfg.c **** 			{0x2Au, 0x01u},
1065:.\Generated_Source\PSoC5/cyfitter_cfg.c **** 			{0x2Cu, 0x03u},
1066:.\Generated_Source\PSoC5/cyfitter_cfg.c **** 			{0x33u, 0x01u},
1067:.\Generated_Source\PSoC5/cyfitter_cfg.c **** 			{0x36u, 0x1Fu},
1068:.\Generated_Source\PSoC5/cyfitter_cfg.c **** 			{0x39u, 0x08u},
1069:.\Generated_Source\PSoC5/cyfitter_cfg.c **** 			{0x58u, 0x04u},
1070:.\Generated_Source\PSoC5/cyfitter_cfg.c **** 			{0x59u, 0x04u},
1071:.\Generated_Source\PSoC5/cyfitter_cfg.c **** 			{0x5Cu, 0x22u},
1072:.\Generated_Source\PSoC5/cyfitter_cfg.c **** 			{0x5Fu, 0x01u},
1073:.\Generated_Source\PSoC5/cyfitter_cfg.c **** 			{0x81u, 0x1Au},
1074:.\Generated_Source\PSoC5/cyfitter_cfg.c **** 			{0x82u, 0x10u},
1075:.\Generated_Source\PSoC5/cyfitter_cfg.c **** 			{0x83u, 0x60u},
1076:.\Generated_Source\PSoC5/cyfitter_cfg.c **** 			{0x84u, 0x05u},
1077:.\Generated_Source\PSoC5/cyfitter_cfg.c **** 			{0x85u, 0x4Du},
1078:.\Generated_Source\PSoC5/cyfitter_cfg.c **** 			{0x86u, 0x0Au},
1079:.\Generated_Source\PSoC5/cyfitter_cfg.c **** 			{0x87u, 0x92u},
1080:.\Generated_Source\PSoC5/cyfitter_cfg.c **** 			{0x8Bu, 0x02u},
1081:.\Generated_Source\PSoC5/cyfitter_cfg.c **** 			{0x8Cu, 0x06u},
1082:.\Generated_Source\PSoC5/cyfitter_cfg.c **** 			{0x8Du, 0x02u},
1083:.\Generated_Source\PSoC5/cyfitter_cfg.c **** 			{0x90u, 0x01u},
1084:.\Generated_Source\PSoC5/cyfitter_cfg.c **** 			{0x92u, 0x04u},
1085:.\Generated_Source\PSoC5/cyfitter_cfg.c **** 			{0x93u, 0x01u},
1086:.\Generated_Source\PSoC5/cyfitter_cfg.c **** 			{0x97u, 0xB5u},
1087:.\Generated_Source\PSoC5/cyfitter_cfg.c **** 			{0x99u, 0xA9u},
1088:.\Generated_Source\PSoC5/cyfitter_cfg.c **** 			{0x9Au, 0x02u},
1089:.\Generated_Source\PSoC5/cyfitter_cfg.c **** 			{0x9Bu, 0x54u},
1090:.\Generated_Source\PSoC5/cyfitter_cfg.c **** 			{0x9Cu, 0x01u},
1091:.\Generated_Source\PSoC5/cyfitter_cfg.c **** 			{0x9Du, 0xCCu},
1092:.\Generated_Source\PSoC5/cyfitter_cfg.c **** 			{0x9Eu, 0x02u},
1093:.\Generated_Source\PSoC5/cyfitter_cfg.c **** 			{0x9Fu, 0x13u},
1094:.\Generated_Source\PSoC5/cyfitter_cfg.c **** 			{0xA1u, 0xFFu},
1095:.\Generated_Source\PSoC5/cyfitter_cfg.c **** 			{0xA4u, 0x01u},
1096:.\Generated_Source\PSoC5/cyfitter_cfg.c **** 			{0xA5u, 0xA5u},
1097:.\Generated_Source\PSoC5/cyfitter_cfg.c **** 			{0xA6u, 0x02u},
1098:.\Generated_Source\PSoC5/cyfitter_cfg.c **** 			{0xA7u, 0x4Au},
1099:.\Generated_Source\PSoC5/cyfitter_cfg.c **** 			{0xA8u, 0x08u},
1100:.\Generated_Source\PSoC5/cyfitter_cfg.c **** 			{0xA9u, 0x04u},
1101:.\Generated_Source\PSoC5/cyfitter_cfg.c **** 			{0xAAu, 0x05u},
ARM GAS  C:\Users\xavieran\AppData\Local\Temp\ccKklXac.s 			page 31


1102:.\Generated_Source\PSoC5/cyfitter_cfg.c **** 			{0xACu, 0x0Fu},
1103:.\Generated_Source\PSoC5/cyfitter_cfg.c **** 			{0xAFu, 0x04u},
1104:.\Generated_Source\PSoC5/cyfitter_cfg.c **** 			{0xB2u, 0x1Fu},
1105:.\Generated_Source\PSoC5/cyfitter_cfg.c **** 			{0xB7u, 0xFFu},
1106:.\Generated_Source\PSoC5/cyfitter_cfg.c **** 			{0xBFu, 0x40u},
1107:.\Generated_Source\PSoC5/cyfitter_cfg.c **** 			{0xD2u, 0xF6u},
1108:.\Generated_Source\PSoC5/cyfitter_cfg.c **** 			{0xD8u, 0x04u},
1109:.\Generated_Source\PSoC5/cyfitter_cfg.c **** 			{0xD9u, 0x04u},
1110:.\Generated_Source\PSoC5/cyfitter_cfg.c **** 			{0xDBu, 0x04u},
1111:.\Generated_Source\PSoC5/cyfitter_cfg.c **** 			{0xDCu, 0x02u},
1112:.\Generated_Source\PSoC5/cyfitter_cfg.c **** 			{0xDDu, 0x20u},
1113:.\Generated_Source\PSoC5/cyfitter_cfg.c **** 			{0xDFu, 0x01u},
1114:.\Generated_Source\PSoC5/cyfitter_cfg.c **** 			{0x00u, 0x02u},
1115:.\Generated_Source\PSoC5/cyfitter_cfg.c **** 			{0x01u, 0x48u},
1116:.\Generated_Source\PSoC5/cyfitter_cfg.c **** 			{0x05u, 0x09u},
1117:.\Generated_Source\PSoC5/cyfitter_cfg.c **** 			{0x06u, 0x0Au},
1118:.\Generated_Source\PSoC5/cyfitter_cfg.c **** 			{0x08u, 0x40u},
1119:.\Generated_Source\PSoC5/cyfitter_cfg.c **** 			{0x0Bu, 0x88u},
1120:.\Generated_Source\PSoC5/cyfitter_cfg.c **** 			{0x0Cu, 0x60u},
1121:.\Generated_Source\PSoC5/cyfitter_cfg.c **** 			{0x0Eu, 0x40u},
1122:.\Generated_Source\PSoC5/cyfitter_cfg.c **** 			{0x0Fu, 0x10u},
1123:.\Generated_Source\PSoC5/cyfitter_cfg.c **** 			{0x11u, 0x04u},
1124:.\Generated_Source\PSoC5/cyfitter_cfg.c **** 			{0x12u, 0x09u},
1125:.\Generated_Source\PSoC5/cyfitter_cfg.c **** 			{0x15u, 0x82u},
1126:.\Generated_Source\PSoC5/cyfitter_cfg.c **** 			{0x17u, 0x18u},
1127:.\Generated_Source\PSoC5/cyfitter_cfg.c **** 			{0x19u, 0x08u},
1128:.\Generated_Source\PSoC5/cyfitter_cfg.c **** 			{0x1Bu, 0x08u},
1129:.\Generated_Source\PSoC5/cyfitter_cfg.c **** 			{0x1Eu, 0x02u},
1130:.\Generated_Source\PSoC5/cyfitter_cfg.c **** 			{0x1Fu, 0x40u},
1131:.\Generated_Source\PSoC5/cyfitter_cfg.c **** 			{0x20u, 0x02u},
1132:.\Generated_Source\PSoC5/cyfitter_cfg.c **** 			{0x24u, 0x20u},
1133:.\Generated_Source\PSoC5/cyfitter_cfg.c **** 			{0x26u, 0x08u},
1134:.\Generated_Source\PSoC5/cyfitter_cfg.c **** 			{0x29u, 0x59u},
1135:.\Generated_Source\PSoC5/cyfitter_cfg.c **** 			{0x2Au, 0x01u},
1136:.\Generated_Source\PSoC5/cyfitter_cfg.c **** 			{0x2Du, 0x20u},
1137:.\Generated_Source\PSoC5/cyfitter_cfg.c **** 			{0x2Fu, 0x04u},
1138:.\Generated_Source\PSoC5/cyfitter_cfg.c **** 			{0x30u, 0x62u},
1139:.\Generated_Source\PSoC5/cyfitter_cfg.c **** 			{0x32u, 0x28u},
1140:.\Generated_Source\PSoC5/cyfitter_cfg.c **** 			{0x35u, 0x01u},
1141:.\Generated_Source\PSoC5/cyfitter_cfg.c **** 			{0x36u, 0x90u},
1142:.\Generated_Source\PSoC5/cyfitter_cfg.c **** 			{0x39u, 0x80u},
1143:.\Generated_Source\PSoC5/cyfitter_cfg.c **** 			{0x3Au, 0x02u},
1144:.\Generated_Source\PSoC5/cyfitter_cfg.c **** 			{0x3Bu, 0x18u},
1145:.\Generated_Source\PSoC5/cyfitter_cfg.c **** 			{0x68u, 0x04u},
1146:.\Generated_Source\PSoC5/cyfitter_cfg.c **** 			{0x6Bu, 0x10u},
1147:.\Generated_Source\PSoC5/cyfitter_cfg.c **** 			{0x70u, 0x42u},
1148:.\Generated_Source\PSoC5/cyfitter_cfg.c **** 			{0x71u, 0x50u},
1149:.\Generated_Source\PSoC5/cyfitter_cfg.c **** 			{0x73u, 0x18u},
1150:.\Generated_Source\PSoC5/cyfitter_cfg.c **** 			{0x78u, 0x20u},
1151:.\Generated_Source\PSoC5/cyfitter_cfg.c **** 			{0x7Au, 0x08u},
1152:.\Generated_Source\PSoC5/cyfitter_cfg.c **** 			{0x81u, 0x40u},
1153:.\Generated_Source\PSoC5/cyfitter_cfg.c **** 			{0x82u, 0x02u},
1154:.\Generated_Source\PSoC5/cyfitter_cfg.c **** 			{0x83u, 0x10u},
1155:.\Generated_Source\PSoC5/cyfitter_cfg.c **** 			{0x87u, 0x10u},
1156:.\Generated_Source\PSoC5/cyfitter_cfg.c **** 			{0x89u, 0x20u},
1157:.\Generated_Source\PSoC5/cyfitter_cfg.c **** 			{0x8Bu, 0x08u},
1158:.\Generated_Source\PSoC5/cyfitter_cfg.c **** 			{0x91u, 0x07u},
ARM GAS  C:\Users\xavieran\AppData\Local\Temp\ccKklXac.s 			page 32


1159:.\Generated_Source\PSoC5/cyfitter_cfg.c **** 			{0x92u, 0x04u},
1160:.\Generated_Source\PSoC5/cyfitter_cfg.c **** 			{0x94u, 0xA0u},
1161:.\Generated_Source\PSoC5/cyfitter_cfg.c **** 			{0x97u, 0x90u},
1162:.\Generated_Source\PSoC5/cyfitter_cfg.c **** 			{0x99u, 0x21u},
1163:.\Generated_Source\PSoC5/cyfitter_cfg.c **** 			{0x9Au, 0x08u},
1164:.\Generated_Source\PSoC5/cyfitter_cfg.c **** 			{0x9Cu, 0x60u},
1165:.\Generated_Source\PSoC5/cyfitter_cfg.c **** 			{0x9Du, 0x10u},
1166:.\Generated_Source\PSoC5/cyfitter_cfg.c **** 			{0xA0u, 0x40u},
1167:.\Generated_Source\PSoC5/cyfitter_cfg.c **** 			{0xA4u, 0x04u},
1168:.\Generated_Source\PSoC5/cyfitter_cfg.c **** 			{0xA5u, 0x20u},
1169:.\Generated_Source\PSoC5/cyfitter_cfg.c **** 			{0xA6u, 0x92u},
1170:.\Generated_Source\PSoC5/cyfitter_cfg.c **** 			{0xA7u, 0x08u},
1171:.\Generated_Source\PSoC5/cyfitter_cfg.c **** 			{0xA9u, 0x01u},
1172:.\Generated_Source\PSoC5/cyfitter_cfg.c **** 			{0xB1u, 0x21u},
1173:.\Generated_Source\PSoC5/cyfitter_cfg.c **** 			{0xB2u, 0x20u},
1174:.\Generated_Source\PSoC5/cyfitter_cfg.c **** 			{0xB3u, 0x40u},
1175:.\Generated_Source\PSoC5/cyfitter_cfg.c **** 			{0xB6u, 0x12u},
1176:.\Generated_Source\PSoC5/cyfitter_cfg.c **** 			{0xC0u, 0xFDu},
1177:.\Generated_Source\PSoC5/cyfitter_cfg.c **** 			{0xC2u, 0xFBu},
1178:.\Generated_Source\PSoC5/cyfitter_cfg.c **** 			{0xC4u, 0xF7u},
1179:.\Generated_Source\PSoC5/cyfitter_cfg.c **** 			{0xCAu, 0x0Fu},
1180:.\Generated_Source\PSoC5/cyfitter_cfg.c **** 			{0xCCu, 0xBFu},
1181:.\Generated_Source\PSoC5/cyfitter_cfg.c **** 			{0xCEu, 0x0Fu},
1182:.\Generated_Source\PSoC5/cyfitter_cfg.c **** 			{0xE2u, 0x20u},
1183:.\Generated_Source\PSoC5/cyfitter_cfg.c **** 			{0xE6u, 0x88u},
1184:.\Generated_Source\PSoC5/cyfitter_cfg.c **** 			{0xE8u, 0x40u},
1185:.\Generated_Source\PSoC5/cyfitter_cfg.c **** 			{0xEAu, 0x08u},
1186:.\Generated_Source\PSoC5/cyfitter_cfg.c **** 			{0x01u, 0x40u},
1187:.\Generated_Source\PSoC5/cyfitter_cfg.c **** 			{0x03u, 0x1Du},
1188:.\Generated_Source\PSoC5/cyfitter_cfg.c **** 			{0x04u, 0x01u},
1189:.\Generated_Source\PSoC5/cyfitter_cfg.c **** 			{0x05u, 0x0Du},
1190:.\Generated_Source\PSoC5/cyfitter_cfg.c **** 			{0x09u, 0x01u},
1191:.\Generated_Source\PSoC5/cyfitter_cfg.c **** 			{0x0Fu, 0x02u},
1192:.\Generated_Source\PSoC5/cyfitter_cfg.c **** 			{0x13u, 0x08u},
1193:.\Generated_Source\PSoC5/cyfitter_cfg.c **** 			{0x15u, 0x04u},
1194:.\Generated_Source\PSoC5/cyfitter_cfg.c **** 			{0x17u, 0xE0u},
1195:.\Generated_Source\PSoC5/cyfitter_cfg.c **** 			{0x19u, 0x01u},
1196:.\Generated_Source\PSoC5/cyfitter_cfg.c **** 			{0x1Du, 0xE2u},
1197:.\Generated_Source\PSoC5/cyfitter_cfg.c **** 			{0x21u, 0x92u},
1198:.\Generated_Source\PSoC5/cyfitter_cfg.c **** 			{0x23u, 0x60u},
1199:.\Generated_Source\PSoC5/cyfitter_cfg.c **** 			{0x27u, 0xFFu},
1200:.\Generated_Source\PSoC5/cyfitter_cfg.c **** 			{0x29u, 0x5Du},
1201:.\Generated_Source\PSoC5/cyfitter_cfg.c **** 			{0x2Bu, 0xA2u},
1202:.\Generated_Source\PSoC5/cyfitter_cfg.c **** 			{0x2Du, 0x3Du},
1203:.\Generated_Source\PSoC5/cyfitter_cfg.c **** 			{0x2Fu, 0xC2u},
1204:.\Generated_Source\PSoC5/cyfitter_cfg.c **** 			{0x30u, 0x01u},
1205:.\Generated_Source\PSoC5/cyfitter_cfg.c **** 			{0x31u, 0xFFu},
1206:.\Generated_Source\PSoC5/cyfitter_cfg.c **** 			{0x3Fu, 0x01u},
1207:.\Generated_Source\PSoC5/cyfitter_cfg.c **** 			{0x40u, 0x64u},
1208:.\Generated_Source\PSoC5/cyfitter_cfg.c **** 			{0x41u, 0x01u},
1209:.\Generated_Source\PSoC5/cyfitter_cfg.c **** 			{0x49u, 0xFFu},
1210:.\Generated_Source\PSoC5/cyfitter_cfg.c **** 			{0x4Au, 0xFFu},
1211:.\Generated_Source\PSoC5/cyfitter_cfg.c **** 			{0x4Bu, 0xFFu},
1212:.\Generated_Source\PSoC5/cyfitter_cfg.c **** 			{0x4Fu, 0x01u},
1213:.\Generated_Source\PSoC5/cyfitter_cfg.c **** 			{0x50u, 0x18u},
1214:.\Generated_Source\PSoC5/cyfitter_cfg.c **** 			{0x58u, 0x04u},
1215:.\Generated_Source\PSoC5/cyfitter_cfg.c **** 			{0x59u, 0x04u},
ARM GAS  C:\Users\xavieran\AppData\Local\Temp\ccKklXac.s 			page 33


1216:.\Generated_Source\PSoC5/cyfitter_cfg.c **** 			{0x5Au, 0x04u},
1217:.\Generated_Source\PSoC5/cyfitter_cfg.c **** 			{0x5Cu, 0x02u},
1218:.\Generated_Source\PSoC5/cyfitter_cfg.c **** 			{0x5Du, 0x04u},
1219:.\Generated_Source\PSoC5/cyfitter_cfg.c **** 			{0x5Fu, 0x01u},
1220:.\Generated_Source\PSoC5/cyfitter_cfg.c **** 			{0x60u, 0x40u},
1221:.\Generated_Source\PSoC5/cyfitter_cfg.c **** 			{0x62u, 0x40u},
1222:.\Generated_Source\PSoC5/cyfitter_cfg.c **** 			{0x64u, 0x40u},
1223:.\Generated_Source\PSoC5/cyfitter_cfg.c **** 			{0x65u, 0x40u},
1224:.\Generated_Source\PSoC5/cyfitter_cfg.c **** 			{0x66u, 0x80u},
1225:.\Generated_Source\PSoC5/cyfitter_cfg.c **** 			{0x68u, 0x80u},
1226:.\Generated_Source\PSoC5/cyfitter_cfg.c **** 			{0x6Au, 0x80u},
1227:.\Generated_Source\PSoC5/cyfitter_cfg.c **** 			{0x6Cu, 0x80u},
1228:.\Generated_Source\PSoC5/cyfitter_cfg.c **** 			{0x6Eu, 0x80u},
1229:.\Generated_Source\PSoC5/cyfitter_cfg.c **** 			{0x80u, 0x1Fu},
1230:.\Generated_Source\PSoC5/cyfitter_cfg.c **** 			{0x84u, 0x01u},
1231:.\Generated_Source\PSoC5/cyfitter_cfg.c **** 			{0x86u, 0x1Eu},
1232:.\Generated_Source\PSoC5/cyfitter_cfg.c **** 			{0x88u, 0x0Au},
1233:.\Generated_Source\PSoC5/cyfitter_cfg.c **** 			{0x8Au, 0x10u},
1234:.\Generated_Source\PSoC5/cyfitter_cfg.c **** 			{0x8Cu, 0x02u},
1235:.\Generated_Source\PSoC5/cyfitter_cfg.c **** 			{0x90u, 0x01u},
1236:.\Generated_Source\PSoC5/cyfitter_cfg.c **** 			{0x91u, 0x01u},
1237:.\Generated_Source\PSoC5/cyfitter_cfg.c **** 			{0x96u, 0x20u},
1238:.\Generated_Source\PSoC5/cyfitter_cfg.c **** 			{0x98u, 0x04u},
1239:.\Generated_Source\PSoC5/cyfitter_cfg.c **** 			{0x99u, 0x01u},
1240:.\Generated_Source\PSoC5/cyfitter_cfg.c **** 			{0x9Cu, 0x12u},
1241:.\Generated_Source\PSoC5/cyfitter_cfg.c **** 			{0x9Eu, 0x08u},
1242:.\Generated_Source\PSoC5/cyfitter_cfg.c **** 			{0xA0u, 0x06u},
1243:.\Generated_Source\PSoC5/cyfitter_cfg.c **** 			{0xA4u, 0x02u},
1244:.\Generated_Source\PSoC5/cyfitter_cfg.c **** 			{0xA6u, 0x18u},
1245:.\Generated_Source\PSoC5/cyfitter_cfg.c **** 			{0xA8u, 0x18u},
1246:.\Generated_Source\PSoC5/cyfitter_cfg.c **** 			{0xAAu, 0x06u},
1247:.\Generated_Source\PSoC5/cyfitter_cfg.c **** 			{0xACu, 0x1Cu},
1248:.\Generated_Source\PSoC5/cyfitter_cfg.c **** 			{0xAEu, 0x02u},
1249:.\Generated_Source\PSoC5/cyfitter_cfg.c **** 			{0xB0u, 0x1Fu},
1250:.\Generated_Source\PSoC5/cyfitter_cfg.c **** 			{0xB3u, 0x01u},
1251:.\Generated_Source\PSoC5/cyfitter_cfg.c **** 			{0xB4u, 0x20u},
1252:.\Generated_Source\PSoC5/cyfitter_cfg.c **** 			{0xB8u, 0x02u},
1253:.\Generated_Source\PSoC5/cyfitter_cfg.c **** 			{0xB9u, 0x08u},
1254:.\Generated_Source\PSoC5/cyfitter_cfg.c **** 			{0xC0u, 0x64u},
1255:.\Generated_Source\PSoC5/cyfitter_cfg.c **** 			{0xC1u, 0x01u},
1256:.\Generated_Source\PSoC5/cyfitter_cfg.c **** 			{0xC5u, 0xECu},
1257:.\Generated_Source\PSoC5/cyfitter_cfg.c **** 			{0xC7u, 0x20u},
1258:.\Generated_Source\PSoC5/cyfitter_cfg.c **** 			{0xC8u, 0x23u},
1259:.\Generated_Source\PSoC5/cyfitter_cfg.c **** 			{0xC9u, 0xFFu},
1260:.\Generated_Source\PSoC5/cyfitter_cfg.c **** 			{0xCAu, 0xFFu},
1261:.\Generated_Source\PSoC5/cyfitter_cfg.c **** 			{0xCBu, 0xFFu},
1262:.\Generated_Source\PSoC5/cyfitter_cfg.c **** 			{0xCDu, 0x83u},
1263:.\Generated_Source\PSoC5/cyfitter_cfg.c **** 			{0xCEu, 0x03u},
1264:.\Generated_Source\PSoC5/cyfitter_cfg.c **** 			{0xCFu, 0x01u},
1265:.\Generated_Source\PSoC5/cyfitter_cfg.c **** 			{0xD0u, 0x18u},
1266:.\Generated_Source\PSoC5/cyfitter_cfg.c **** 			{0xD4u, 0x01u},
1267:.\Generated_Source\PSoC5/cyfitter_cfg.c **** 			{0xD8u, 0x04u},
1268:.\Generated_Source\PSoC5/cyfitter_cfg.c **** 			{0xD9u, 0x04u},
1269:.\Generated_Source\PSoC5/cyfitter_cfg.c **** 			{0xDAu, 0x04u},
1270:.\Generated_Source\PSoC5/cyfitter_cfg.c **** 			{0xDBu, 0x04u},
1271:.\Generated_Source\PSoC5/cyfitter_cfg.c **** 			{0xDCu, 0x22u},
1272:.\Generated_Source\PSoC5/cyfitter_cfg.c **** 			{0xDDu, 0x44u},
ARM GAS  C:\Users\xavieran\AppData\Local\Temp\ccKklXac.s 			page 34


1273:.\Generated_Source\PSoC5/cyfitter_cfg.c **** 			{0xDFu, 0x05u},
1274:.\Generated_Source\PSoC5/cyfitter_cfg.c **** 			{0xE0u, 0x40u},
1275:.\Generated_Source\PSoC5/cyfitter_cfg.c **** 			{0xE2u, 0x40u},
1276:.\Generated_Source\PSoC5/cyfitter_cfg.c **** 			{0xE4u, 0x40u},
1277:.\Generated_Source\PSoC5/cyfitter_cfg.c **** 			{0xE5u, 0x40u},
1278:.\Generated_Source\PSoC5/cyfitter_cfg.c **** 			{0xE6u, 0x80u},
1279:.\Generated_Source\PSoC5/cyfitter_cfg.c **** 			{0xE8u, 0x80u},
1280:.\Generated_Source\PSoC5/cyfitter_cfg.c **** 			{0xEAu, 0x80u},
1281:.\Generated_Source\PSoC5/cyfitter_cfg.c **** 			{0xECu, 0x80u},
1282:.\Generated_Source\PSoC5/cyfitter_cfg.c **** 			{0xEEu, 0x80u},
1283:.\Generated_Source\PSoC5/cyfitter_cfg.c **** 			{0x00u, 0x08u},
1284:.\Generated_Source\PSoC5/cyfitter_cfg.c **** 			{0x04u, 0x80u},
1285:.\Generated_Source\PSoC5/cyfitter_cfg.c **** 			{0x05u, 0x21u},
1286:.\Generated_Source\PSoC5/cyfitter_cfg.c **** 			{0x07u, 0x10u},
1287:.\Generated_Source\PSoC5/cyfitter_cfg.c **** 			{0x0Cu, 0x60u},
1288:.\Generated_Source\PSoC5/cyfitter_cfg.c **** 			{0x0Eu, 0x50u},
1289:.\Generated_Source\PSoC5/cyfitter_cfg.c **** 			{0x14u, 0x0Au},
1290:.\Generated_Source\PSoC5/cyfitter_cfg.c **** 			{0x17u, 0x05u},
1291:.\Generated_Source\PSoC5/cyfitter_cfg.c **** 			{0x19u, 0x01u},
1292:.\Generated_Source\PSoC5/cyfitter_cfg.c **** 			{0x1Au, 0x80u},
1293:.\Generated_Source\PSoC5/cyfitter_cfg.c **** 			{0x1Eu, 0x48u},
1294:.\Generated_Source\PSoC5/cyfitter_cfg.c **** 			{0x22u, 0x01u},
1295:.\Generated_Source\PSoC5/cyfitter_cfg.c **** 			{0x27u, 0x10u},
1296:.\Generated_Source\PSoC5/cyfitter_cfg.c **** 			{0x28u, 0x6Au},
1297:.\Generated_Source\PSoC5/cyfitter_cfg.c **** 			{0x29u, 0x40u},
1298:.\Generated_Source\PSoC5/cyfitter_cfg.c **** 			{0x2Au, 0x20u},
1299:.\Generated_Source\PSoC5/cyfitter_cfg.c **** 			{0x31u, 0x10u},
1300:.\Generated_Source\PSoC5/cyfitter_cfg.c **** 			{0x32u, 0x42u},
1301:.\Generated_Source\PSoC5/cyfitter_cfg.c **** 			{0x33u, 0x0Du},
1302:.\Generated_Source\PSoC5/cyfitter_cfg.c **** 			{0x34u, 0x20u},
1303:.\Generated_Source\PSoC5/cyfitter_cfg.c **** 			{0x35u, 0x01u},
1304:.\Generated_Source\PSoC5/cyfitter_cfg.c **** 			{0x38u, 0x80u},
1305:.\Generated_Source\PSoC5/cyfitter_cfg.c **** 			{0x39u, 0x06u},
1306:.\Generated_Source\PSoC5/cyfitter_cfg.c **** 			{0x3Au, 0x08u},
1307:.\Generated_Source\PSoC5/cyfitter_cfg.c **** 			{0x3Bu, 0x10u},
1308:.\Generated_Source\PSoC5/cyfitter_cfg.c **** 			{0x42u, 0x02u},
1309:.\Generated_Source\PSoC5/cyfitter_cfg.c **** 			{0x43u, 0x02u},
1310:.\Generated_Source\PSoC5/cyfitter_cfg.c **** 			{0x45u, 0x01u},
1311:.\Generated_Source\PSoC5/cyfitter_cfg.c **** 			{0x46u, 0x02u},
1312:.\Generated_Source\PSoC5/cyfitter_cfg.c **** 			{0x4Au, 0x08u},
1313:.\Generated_Source\PSoC5/cyfitter_cfg.c **** 			{0x4Du, 0x02u},
1314:.\Generated_Source\PSoC5/cyfitter_cfg.c **** 			{0x4Eu, 0x08u},
1315:.\Generated_Source\PSoC5/cyfitter_cfg.c **** 			{0x4Fu, 0x04u},
1316:.\Generated_Source\PSoC5/cyfitter_cfg.c **** 			{0x55u, 0x01u},
1317:.\Generated_Source\PSoC5/cyfitter_cfg.c **** 			{0x57u, 0x02u},
1318:.\Generated_Source\PSoC5/cyfitter_cfg.c **** 			{0x5Du, 0x42u},
1319:.\Generated_Source\PSoC5/cyfitter_cfg.c **** 			{0x5Fu, 0x04u},
1320:.\Generated_Source\PSoC5/cyfitter_cfg.c **** 			{0x7Eu, 0x10u},
1321:.\Generated_Source\PSoC5/cyfitter_cfg.c **** 			{0x82u, 0x08u},
1322:.\Generated_Source\PSoC5/cyfitter_cfg.c **** 			{0x8Eu, 0x44u},
1323:.\Generated_Source\PSoC5/cyfitter_cfg.c **** 			{0x91u, 0x41u},
1324:.\Generated_Source\PSoC5/cyfitter_cfg.c **** 			{0x92u, 0x14u},
1325:.\Generated_Source\PSoC5/cyfitter_cfg.c **** 			{0x94u, 0x20u},
1326:.\Generated_Source\PSoC5/cyfitter_cfg.c **** 			{0x96u, 0x02u},
1327:.\Generated_Source\PSoC5/cyfitter_cfg.c **** 			{0x97u, 0x80u},
1328:.\Generated_Source\PSoC5/cyfitter_cfg.c **** 			{0x99u, 0x60u},
1329:.\Generated_Source\PSoC5/cyfitter_cfg.c **** 			{0x9Au, 0x08u},
ARM GAS  C:\Users\xavieran\AppData\Local\Temp\ccKklXac.s 			page 35


1330:.\Generated_Source\PSoC5/cyfitter_cfg.c **** 			{0x9Cu, 0x60u},
1331:.\Generated_Source\PSoC5/cyfitter_cfg.c **** 			{0x9Du, 0x01u},
1332:.\Generated_Source\PSoC5/cyfitter_cfg.c **** 			{0xA0u, 0x60u},
1333:.\Generated_Source\PSoC5/cyfitter_cfg.c **** 			{0xA2u, 0x08u},
1334:.\Generated_Source\PSoC5/cyfitter_cfg.c **** 			{0xA5u, 0x20u},
1335:.\Generated_Source\PSoC5/cyfitter_cfg.c **** 			{0xA6u, 0x90u},
1336:.\Generated_Source\PSoC5/cyfitter_cfg.c **** 			{0xA7u, 0x0Au},
1337:.\Generated_Source\PSoC5/cyfitter_cfg.c **** 			{0xA8u, 0x80u},
1338:.\Generated_Source\PSoC5/cyfitter_cfg.c **** 			{0xABu, 0x40u},
1339:.\Generated_Source\PSoC5/cyfitter_cfg.c **** 			{0xB2u, 0x08u},
1340:.\Generated_Source\PSoC5/cyfitter_cfg.c **** 			{0xB6u, 0x41u},
1341:.\Generated_Source\PSoC5/cyfitter_cfg.c **** 			{0xC0u, 0xF4u},
1342:.\Generated_Source\PSoC5/cyfitter_cfg.c **** 			{0xC2u, 0xF0u},
1343:.\Generated_Source\PSoC5/cyfitter_cfg.c **** 			{0xC4u, 0xF0u},
1344:.\Generated_Source\PSoC5/cyfitter_cfg.c **** 			{0xCAu, 0x0Fu},
1345:.\Generated_Source\PSoC5/cyfitter_cfg.c **** 			{0xCCu, 0xAFu},
1346:.\Generated_Source\PSoC5/cyfitter_cfg.c **** 			{0xCEu, 0x0Fu},
1347:.\Generated_Source\PSoC5/cyfitter_cfg.c **** 			{0xD0u, 0x99u},
1348:.\Generated_Source\PSoC5/cyfitter_cfg.c **** 			{0xD2u, 0x24u},
1349:.\Generated_Source\PSoC5/cyfitter_cfg.c **** 			{0xD6u, 0xD0u},
1350:.\Generated_Source\PSoC5/cyfitter_cfg.c **** 			{0xDEu, 0x40u},
1351:.\Generated_Source\PSoC5/cyfitter_cfg.c **** 			{0xE2u, 0x48u},
1352:.\Generated_Source\PSoC5/cyfitter_cfg.c **** 			{0xE8u, 0x10u},
1353:.\Generated_Source\PSoC5/cyfitter_cfg.c **** 			{0xEAu, 0x04u},
1354:.\Generated_Source\PSoC5/cyfitter_cfg.c **** 			{0xECu, 0x80u},
1355:.\Generated_Source\PSoC5/cyfitter_cfg.c **** 			{0xEEu, 0x01u},
1356:.\Generated_Source\PSoC5/cyfitter_cfg.c **** 			{0x06u, 0x02u},
1357:.\Generated_Source\PSoC5/cyfitter_cfg.c **** 			{0x07u, 0x02u},
1358:.\Generated_Source\PSoC5/cyfitter_cfg.c **** 			{0x0Bu, 0x02u},
1359:.\Generated_Source\PSoC5/cyfitter_cfg.c **** 			{0x12u, 0x04u},
1360:.\Generated_Source\PSoC5/cyfitter_cfg.c **** 			{0x13u, 0x01u},
1361:.\Generated_Source\PSoC5/cyfitter_cfg.c **** 			{0x16u, 0x02u},
1362:.\Generated_Source\PSoC5/cyfitter_cfg.c **** 			{0x1Au, 0x01u},
1363:.\Generated_Source\PSoC5/cyfitter_cfg.c **** 			{0x24u, 0x01u},
1364:.\Generated_Source\PSoC5/cyfitter_cfg.c **** 			{0x2Fu, 0x01u},
1365:.\Generated_Source\PSoC5/cyfitter_cfg.c **** 			{0x30u, 0x01u},
1366:.\Generated_Source\PSoC5/cyfitter_cfg.c **** 			{0x32u, 0x04u},
1367:.\Generated_Source\PSoC5/cyfitter_cfg.c **** 			{0x34u, 0x02u},
1368:.\Generated_Source\PSoC5/cyfitter_cfg.c **** 			{0x35u, 0x02u},
1369:.\Generated_Source\PSoC5/cyfitter_cfg.c **** 			{0x37u, 0x01u},
1370:.\Generated_Source\PSoC5/cyfitter_cfg.c **** 			{0x3Eu, 0x10u},
1371:.\Generated_Source\PSoC5/cyfitter_cfg.c **** 			{0x3Fu, 0x40u},
1372:.\Generated_Source\PSoC5/cyfitter_cfg.c **** 			{0x40u, 0x30u},
1373:.\Generated_Source\PSoC5/cyfitter_cfg.c **** 			{0x41u, 0x06u},
1374:.\Generated_Source\PSoC5/cyfitter_cfg.c **** 			{0x49u, 0xFFu},
1375:.\Generated_Source\PSoC5/cyfitter_cfg.c **** 			{0x4Au, 0xFFu},
1376:.\Generated_Source\PSoC5/cyfitter_cfg.c **** 			{0x4Bu, 0xFFu},
1377:.\Generated_Source\PSoC5/cyfitter_cfg.c **** 			{0x4Du, 0xA0u},
1378:.\Generated_Source\PSoC5/cyfitter_cfg.c **** 			{0x4Fu, 0x04u},
1379:.\Generated_Source\PSoC5/cyfitter_cfg.c **** 			{0x50u, 0x18u},
1380:.\Generated_Source\PSoC5/cyfitter_cfg.c **** 			{0x52u, 0x80u},
1381:.\Generated_Source\PSoC5/cyfitter_cfg.c **** 			{0x54u, 0x05u},
1382:.\Generated_Source\PSoC5/cyfitter_cfg.c **** 			{0x58u, 0x04u},
1383:.\Generated_Source\PSoC5/cyfitter_cfg.c **** 			{0x59u, 0x04u},
1384:.\Generated_Source\PSoC5/cyfitter_cfg.c **** 			{0x5Au, 0x04u},
1385:.\Generated_Source\PSoC5/cyfitter_cfg.c **** 			{0x5Bu, 0x04u},
1386:.\Generated_Source\PSoC5/cyfitter_cfg.c **** 			{0x5Cu, 0x55u},
ARM GAS  C:\Users\xavieran\AppData\Local\Temp\ccKklXac.s 			page 36


1387:.\Generated_Source\PSoC5/cyfitter_cfg.c **** 			{0x5Du, 0x55u},
1388:.\Generated_Source\PSoC5/cyfitter_cfg.c **** 			{0x5Fu, 0x01u},
1389:.\Generated_Source\PSoC5/cyfitter_cfg.c **** 			{0x60u, 0x40u},
1390:.\Generated_Source\PSoC5/cyfitter_cfg.c **** 			{0x62u, 0xC0u},
1391:.\Generated_Source\PSoC5/cyfitter_cfg.c **** 			{0x64u, 0x40u},
1392:.\Generated_Source\PSoC5/cyfitter_cfg.c **** 			{0x65u, 0x40u},
1393:.\Generated_Source\PSoC5/cyfitter_cfg.c **** 			{0x66u, 0xC0u},
1394:.\Generated_Source\PSoC5/cyfitter_cfg.c **** 			{0x68u, 0xC0u},
1395:.\Generated_Source\PSoC5/cyfitter_cfg.c **** 			{0x6Au, 0xC0u},
1396:.\Generated_Source\PSoC5/cyfitter_cfg.c **** 			{0x6Cu, 0xC0u},
1397:.\Generated_Source\PSoC5/cyfitter_cfg.c **** 			{0x6Eu, 0xC0u},
1398:.\Generated_Source\PSoC5/cyfitter_cfg.c **** 			{0x81u, 0x01u},
1399:.\Generated_Source\PSoC5/cyfitter_cfg.c **** 			{0x83u, 0x06u},
1400:.\Generated_Source\PSoC5/cyfitter_cfg.c **** 			{0x8Au, 0x03u},
1401:.\Generated_Source\PSoC5/cyfitter_cfg.c **** 			{0x8Bu, 0x03u},
1402:.\Generated_Source\PSoC5/cyfitter_cfg.c **** 			{0x8Fu, 0x03u},
1403:.\Generated_Source\PSoC5/cyfitter_cfg.c **** 			{0x91u, 0x01u},
1404:.\Generated_Source\PSoC5/cyfitter_cfg.c **** 			{0x92u, 0x01u},
1405:.\Generated_Source\PSoC5/cyfitter_cfg.c **** 			{0x93u, 0x04u},
1406:.\Generated_Source\PSoC5/cyfitter_cfg.c **** 			{0x97u, 0x03u},
1407:.\Generated_Source\PSoC5/cyfitter_cfg.c **** 			{0x99u, 0x02u},
1408:.\Generated_Source\PSoC5/cyfitter_cfg.c **** 			{0x9Au, 0x01u},
1409:.\Generated_Source\PSoC5/cyfitter_cfg.c **** 			{0x9Bu, 0x01u},
1410:.\Generated_Source\PSoC5/cyfitter_cfg.c **** 			{0x9Eu, 0x04u},
1411:.\Generated_Source\PSoC5/cyfitter_cfg.c **** 			{0x9Fu, 0x03u},
1412:.\Generated_Source\PSoC5/cyfitter_cfg.c **** 			{0xA1u, 0x03u},
1413:.\Generated_Source\PSoC5/cyfitter_cfg.c **** 			{0xA2u, 0x01u},
1414:.\Generated_Source\PSoC5/cyfitter_cfg.c **** 			{0xA9u, 0x03u},
1415:.\Generated_Source\PSoC5/cyfitter_cfg.c **** 			{0xAEu, 0x02u},
1416:.\Generated_Source\PSoC5/cyfitter_cfg.c **** 			{0xB1u, 0x07u},
1417:.\Generated_Source\PSoC5/cyfitter_cfg.c **** 			{0xB4u, 0x07u},
1418:.\Generated_Source\PSoC5/cyfitter_cfg.c **** 			{0xBAu, 0x20u},
1419:.\Generated_Source\PSoC5/cyfitter_cfg.c **** 			{0xBBu, 0x02u},
1420:.\Generated_Source\PSoC5/cyfitter_cfg.c **** 			{0xC0u, 0x30u},
1421:.\Generated_Source\PSoC5/cyfitter_cfg.c **** 			{0xC1u, 0x06u},
1422:.\Generated_Source\PSoC5/cyfitter_cfg.c **** 			{0xC5u, 0xD1u},
1423:.\Generated_Source\PSoC5/cyfitter_cfg.c **** 			{0xC7u, 0x02u},
1424:.\Generated_Source\PSoC5/cyfitter_cfg.c **** 			{0xC8u, 0x13u},
1425:.\Generated_Source\PSoC5/cyfitter_cfg.c **** 			{0xC9u, 0xFFu},
1426:.\Generated_Source\PSoC5/cyfitter_cfg.c **** 			{0xCAu, 0xFFu},
1427:.\Generated_Source\PSoC5/cyfitter_cfg.c **** 			{0xCBu, 0xFFu},
1428:.\Generated_Source\PSoC5/cyfitter_cfg.c **** 			{0xCDu, 0xAFu},
1429:.\Generated_Source\PSoC5/cyfitter_cfg.c **** 			{0xCEu, 0x0Fu},
1430:.\Generated_Source\PSoC5/cyfitter_cfg.c **** 			{0xCFu, 0x04u},
1431:.\Generated_Source\PSoC5/cyfitter_cfg.c **** 			{0xD0u, 0x18u},
1432:.\Generated_Source\PSoC5/cyfitter_cfg.c **** 			{0xD6u, 0x08u},
1433:.\Generated_Source\PSoC5/cyfitter_cfg.c **** 			{0xD8u, 0x04u},
1434:.\Generated_Source\PSoC5/cyfitter_cfg.c **** 			{0xD9u, 0x04u},
1435:.\Generated_Source\PSoC5/cyfitter_cfg.c **** 			{0xDAu, 0x04u},
1436:.\Generated_Source\PSoC5/cyfitter_cfg.c **** 			{0xDBu, 0x04u},
1437:.\Generated_Source\PSoC5/cyfitter_cfg.c **** 			{0xDCu, 0x22u},
1438:.\Generated_Source\PSoC5/cyfitter_cfg.c **** 			{0xDDu, 0x95u},
1439:.\Generated_Source\PSoC5/cyfitter_cfg.c **** 			{0xDFu, 0x01u},
1440:.\Generated_Source\PSoC5/cyfitter_cfg.c **** 			{0xE0u, 0x40u},
1441:.\Generated_Source\PSoC5/cyfitter_cfg.c **** 			{0xE2u, 0xC0u},
1442:.\Generated_Source\PSoC5/cyfitter_cfg.c **** 			{0xE4u, 0x40u},
1443:.\Generated_Source\PSoC5/cyfitter_cfg.c **** 			{0xE5u, 0x40u},
ARM GAS  C:\Users\xavieran\AppData\Local\Temp\ccKklXac.s 			page 37


1444:.\Generated_Source\PSoC5/cyfitter_cfg.c **** 			{0xE6u, 0xC0u},
1445:.\Generated_Source\PSoC5/cyfitter_cfg.c **** 			{0xE8u, 0xC0u},
1446:.\Generated_Source\PSoC5/cyfitter_cfg.c **** 			{0xEAu, 0xC0u},
1447:.\Generated_Source\PSoC5/cyfitter_cfg.c **** 			{0xECu, 0xC0u},
1448:.\Generated_Source\PSoC5/cyfitter_cfg.c **** 			{0xEEu, 0xC0u},
1449:.\Generated_Source\PSoC5/cyfitter_cfg.c **** 			{0x01u, 0x20u},
1450:.\Generated_Source\PSoC5/cyfitter_cfg.c **** 			{0x04u, 0x08u},
1451:.\Generated_Source\PSoC5/cyfitter_cfg.c **** 			{0x08u, 0x20u},
1452:.\Generated_Source\PSoC5/cyfitter_cfg.c **** 			{0x0Au, 0x02u},
1453:.\Generated_Source\PSoC5/cyfitter_cfg.c **** 			{0x0Bu, 0x80u},
1454:.\Generated_Source\PSoC5/cyfitter_cfg.c **** 			{0x0Cu, 0x02u},
1455:.\Generated_Source\PSoC5/cyfitter_cfg.c **** 			{0x0Du, 0x08u},
1456:.\Generated_Source\PSoC5/cyfitter_cfg.c **** 			{0x0Fu, 0x04u},
1457:.\Generated_Source\PSoC5/cyfitter_cfg.c **** 			{0x10u, 0x81u},
1458:.\Generated_Source\PSoC5/cyfitter_cfg.c **** 			{0x17u, 0x08u},
1459:.\Generated_Source\PSoC5/cyfitter_cfg.c **** 			{0x19u, 0x30u},
1460:.\Generated_Source\PSoC5/cyfitter_cfg.c **** 			{0x1Cu, 0x54u},
1461:.\Generated_Source\PSoC5/cyfitter_cfg.c **** 			{0x1Du, 0x08u},
1462:.\Generated_Source\PSoC5/cyfitter_cfg.c **** 			{0x21u, 0x01u},
1463:.\Generated_Source\PSoC5/cyfitter_cfg.c **** 			{0x25u, 0x40u},
1464:.\Generated_Source\PSoC5/cyfitter_cfg.c **** 			{0x26u, 0x20u},
1465:.\Generated_Source\PSoC5/cyfitter_cfg.c **** 			{0x28u, 0x40u},
1466:.\Generated_Source\PSoC5/cyfitter_cfg.c **** 			{0x29u, 0x10u},
1467:.\Generated_Source\PSoC5/cyfitter_cfg.c **** 			{0x2Fu, 0x02u},
1468:.\Generated_Source\PSoC5/cyfitter_cfg.c **** 			{0x30u, 0x81u},
1469:.\Generated_Source\PSoC5/cyfitter_cfg.c **** 			{0x31u, 0x61u},
1470:.\Generated_Source\PSoC5/cyfitter_cfg.c **** 			{0x33u, 0x08u},
1471:.\Generated_Source\PSoC5/cyfitter_cfg.c **** 			{0x36u, 0x01u},
1472:.\Generated_Source\PSoC5/cyfitter_cfg.c **** 			{0x38u, 0x20u},
1473:.\Generated_Source\PSoC5/cyfitter_cfg.c **** 			{0x39u, 0x03u},
1474:.\Generated_Source\PSoC5/cyfitter_cfg.c **** 			{0x3Bu, 0x80u},
1475:.\Generated_Source\PSoC5/cyfitter_cfg.c **** 			{0x3Cu, 0x10u},
1476:.\Generated_Source\PSoC5/cyfitter_cfg.c **** 			{0x3Du, 0xC0u},
1477:.\Generated_Source\PSoC5/cyfitter_cfg.c **** 			{0x3Fu, 0x04u},
1478:.\Generated_Source\PSoC5/cyfitter_cfg.c **** 			{0x41u, 0x08u},
1479:.\Generated_Source\PSoC5/cyfitter_cfg.c **** 			{0x45u, 0x08u},
1480:.\Generated_Source\PSoC5/cyfitter_cfg.c **** 			{0x48u, 0x18u},
1481:.\Generated_Source\PSoC5/cyfitter_cfg.c **** 			{0x49u, 0x02u},
1482:.\Generated_Source\PSoC5/cyfitter_cfg.c **** 			{0x4Bu, 0x04u},
1483:.\Generated_Source\PSoC5/cyfitter_cfg.c **** 			{0x4Cu, 0x04u},
1484:.\Generated_Source\PSoC5/cyfitter_cfg.c **** 			{0x50u, 0x0Cu},
1485:.\Generated_Source\PSoC5/cyfitter_cfg.c **** 			{0x5Au, 0x40u},
1486:.\Generated_Source\PSoC5/cyfitter_cfg.c **** 			{0x5Bu, 0x10u},
1487:.\Generated_Source\PSoC5/cyfitter_cfg.c **** 			{0x5Cu, 0x44u},
1488:.\Generated_Source\PSoC5/cyfitter_cfg.c **** 			{0x5Du, 0x02u},
1489:.\Generated_Source\PSoC5/cyfitter_cfg.c **** 			{0x74u, 0x02u},
1490:.\Generated_Source\PSoC5/cyfitter_cfg.c **** 			{0x83u, 0x10u},
1491:.\Generated_Source\PSoC5/cyfitter_cfg.c **** 			{0x86u, 0x20u},
1492:.\Generated_Source\PSoC5/cyfitter_cfg.c **** 			{0x87u, 0x02u},
1493:.\Generated_Source\PSoC5/cyfitter_cfg.c **** 			{0x89u, 0x40u},
1494:.\Generated_Source\PSoC5/cyfitter_cfg.c **** 			{0x8Au, 0x02u},
1495:.\Generated_Source\PSoC5/cyfitter_cfg.c **** 			{0x92u, 0x14u},
1496:.\Generated_Source\PSoC5/cyfitter_cfg.c **** 			{0x94u, 0x20u},
1497:.\Generated_Source\PSoC5/cyfitter_cfg.c **** 			{0x97u, 0x80u},
1498:.\Generated_Source\PSoC5/cyfitter_cfg.c **** 			{0x9Au, 0x08u},
1499:.\Generated_Source\PSoC5/cyfitter_cfg.c **** 			{0x9Bu, 0x08u},
1500:.\Generated_Source\PSoC5/cyfitter_cfg.c **** 			{0x9Cu, 0xC0u},
ARM GAS  C:\Users\xavieran\AppData\Local\Temp\ccKklXac.s 			page 38


1501:.\Generated_Source\PSoC5/cyfitter_cfg.c **** 			{0x9Du, 0x11u},
1502:.\Generated_Source\PSoC5/cyfitter_cfg.c **** 			{0x9Eu, 0x02u},
1503:.\Generated_Source\PSoC5/cyfitter_cfg.c **** 			{0xA0u, 0x60u},
1504:.\Generated_Source\PSoC5/cyfitter_cfg.c **** 			{0xA4u, 0x10u},
1505:.\Generated_Source\PSoC5/cyfitter_cfg.c **** 			{0xA5u, 0x20u},
1506:.\Generated_Source\PSoC5/cyfitter_cfg.c **** 			{0xA6u, 0x90u},
1507:.\Generated_Source\PSoC5/cyfitter_cfg.c **** 			{0xA7u, 0x48u},
1508:.\Generated_Source\PSoC5/cyfitter_cfg.c **** 			{0xABu, 0x50u},
1509:.\Generated_Source\PSoC5/cyfitter_cfg.c **** 			{0xB4u, 0x20u},
1510:.\Generated_Source\PSoC5/cyfitter_cfg.c **** 			{0xB7u, 0x01u},
1511:.\Generated_Source\PSoC5/cyfitter_cfg.c **** 			{0xC0u, 0x22u},
1512:.\Generated_Source\PSoC5/cyfitter_cfg.c **** 			{0xC2u, 0x7Bu},
1513:.\Generated_Source\PSoC5/cyfitter_cfg.c **** 			{0xC4u, 0x29u},
1514:.\Generated_Source\PSoC5/cyfitter_cfg.c **** 			{0xCAu, 0x15u},
1515:.\Generated_Source\PSoC5/cyfitter_cfg.c **** 			{0xCCu, 0x8Fu},
1516:.\Generated_Source\PSoC5/cyfitter_cfg.c **** 			{0xCEu, 0x6Du},
1517:.\Generated_Source\PSoC5/cyfitter_cfg.c **** 			{0xD0u, 0x42u},
1518:.\Generated_Source\PSoC5/cyfitter_cfg.c **** 			{0xD2u, 0x24u},
1519:.\Generated_Source\PSoC5/cyfitter_cfg.c **** 			{0xD6u, 0xDCu},
1520:.\Generated_Source\PSoC5/cyfitter_cfg.c **** 			{0xE0u, 0x80u},
1521:.\Generated_Source\PSoC5/cyfitter_cfg.c **** 			{0xE2u, 0x04u},
1522:.\Generated_Source\PSoC5/cyfitter_cfg.c **** 			{0xEEu, 0x20u},
1523:.\Generated_Source\PSoC5/cyfitter_cfg.c **** 			{0x01u, 0x02u},
1524:.\Generated_Source\PSoC5/cyfitter_cfg.c **** 			{0x09u, 0x04u},
1525:.\Generated_Source\PSoC5/cyfitter_cfg.c **** 			{0x0Du, 0x02u},
1526:.\Generated_Source\PSoC5/cyfitter_cfg.c **** 			{0x19u, 0x02u},
1527:.\Generated_Source\PSoC5/cyfitter_cfg.c **** 			{0x1Au, 0x01u},
1528:.\Generated_Source\PSoC5/cyfitter_cfg.c **** 			{0x21u, 0x02u},
1529:.\Generated_Source\PSoC5/cyfitter_cfg.c **** 			{0x27u, 0x01u},
1530:.\Generated_Source\PSoC5/cyfitter_cfg.c **** 			{0x29u, 0x02u},
1531:.\Generated_Source\PSoC5/cyfitter_cfg.c **** 			{0x31u, 0x07u},
1532:.\Generated_Source\PSoC5/cyfitter_cfg.c **** 			{0x32u, 0x01u},
1533:.\Generated_Source\PSoC5/cyfitter_cfg.c **** 			{0x39u, 0x02u},
1534:.\Generated_Source\PSoC5/cyfitter_cfg.c **** 			{0x3Fu, 0x01u},
1535:.\Generated_Source\PSoC5/cyfitter_cfg.c **** 			{0x42u, 0x04u},
1536:.\Generated_Source\PSoC5/cyfitter_cfg.c **** 			{0x46u, 0xE0u},
1537:.\Generated_Source\PSoC5/cyfitter_cfg.c **** 			{0x48u, 0x08u},
1538:.\Generated_Source\PSoC5/cyfitter_cfg.c **** 			{0x49u, 0xFFu},
1539:.\Generated_Source\PSoC5/cyfitter_cfg.c **** 			{0x4Au, 0xFFu},
1540:.\Generated_Source\PSoC5/cyfitter_cfg.c **** 			{0x4Bu, 0xFFu},
1541:.\Generated_Source\PSoC5/cyfitter_cfg.c **** 			{0x4Fu, 0x83u},
1542:.\Generated_Source\PSoC5/cyfitter_cfg.c **** 			{0x58u, 0x04u},
1543:.\Generated_Source\PSoC5/cyfitter_cfg.c **** 			{0x59u, 0x04u},
1544:.\Generated_Source\PSoC5/cyfitter_cfg.c **** 			{0x5Au, 0x04u},
1545:.\Generated_Source\PSoC5/cyfitter_cfg.c **** 			{0x5Bu, 0x04u},
1546:.\Generated_Source\PSoC5/cyfitter_cfg.c **** 			{0x5Cu, 0x02u},
1547:.\Generated_Source\PSoC5/cyfitter_cfg.c **** 			{0x5Du, 0x08u},
1548:.\Generated_Source\PSoC5/cyfitter_cfg.c **** 			{0x5Fu, 0x01u},
1549:.\Generated_Source\PSoC5/cyfitter_cfg.c **** 			{0x80u, 0x01u},
1550:.\Generated_Source\PSoC5/cyfitter_cfg.c **** 			{0x82u, 0x08u},
1551:.\Generated_Source\PSoC5/cyfitter_cfg.c **** 			{0x88u, 0x03u},
1552:.\Generated_Source\PSoC5/cyfitter_cfg.c **** 			{0x8Au, 0x04u},
1553:.\Generated_Source\PSoC5/cyfitter_cfg.c **** 			{0x8Bu, 0x01u},
1554:.\Generated_Source\PSoC5/cyfitter_cfg.c **** 			{0x8Du, 0x04u},
1555:.\Generated_Source\PSoC5/cyfitter_cfg.c **** 			{0x8Fu, 0x08u},
1556:.\Generated_Source\PSoC5/cyfitter_cfg.c **** 			{0x98u, 0x01u},
1557:.\Generated_Source\PSoC5/cyfitter_cfg.c **** 			{0x99u, 0x02u},
ARM GAS  C:\Users\xavieran\AppData\Local\Temp\ccKklXac.s 			page 39


1558:.\Generated_Source\PSoC5/cyfitter_cfg.c **** 			{0x9Au, 0x0Eu},
1559:.\Generated_Source\PSoC5/cyfitter_cfg.c **** 			{0x9Cu, 0x06u},
1560:.\Generated_Source\PSoC5/cyfitter_cfg.c **** 			{0x9Du, 0x02u},
1561:.\Generated_Source\PSoC5/cyfitter_cfg.c **** 			{0x9Eu, 0x01u},
1562:.\Generated_Source\PSoC5/cyfitter_cfg.c **** 			{0xA0u, 0x07u},
1563:.\Generated_Source\PSoC5/cyfitter_cfg.c **** 			{0xA1u, 0x04u},
1564:.\Generated_Source\PSoC5/cyfitter_cfg.c **** 			{0xA3u, 0x08u},
1565:.\Generated_Source\PSoC5/cyfitter_cfg.c **** 			{0xA4u, 0x02u},
1566:.\Generated_Source\PSoC5/cyfitter_cfg.c **** 			{0xA6u, 0x05u},
1567:.\Generated_Source\PSoC5/cyfitter_cfg.c **** 			{0xACu, 0x07u},
1568:.\Generated_Source\PSoC5/cyfitter_cfg.c **** 			{0xB3u, 0x0Eu},
1569:.\Generated_Source\PSoC5/cyfitter_cfg.c **** 			{0xB4u, 0x0Fu},
1570:.\Generated_Source\PSoC5/cyfitter_cfg.c **** 			{0xB5u, 0x01u},
1571:.\Generated_Source\PSoC5/cyfitter_cfg.c **** 			{0xB9u, 0x08u},
1572:.\Generated_Source\PSoC5/cyfitter_cfg.c **** 			{0xBAu, 0x20u},
1573:.\Generated_Source\PSoC5/cyfitter_cfg.c **** 			{0xBFu, 0x04u},
1574:.\Generated_Source\PSoC5/cyfitter_cfg.c **** 			{0xC0u, 0x52u},
1575:.\Generated_Source\PSoC5/cyfitter_cfg.c **** 			{0xC4u, 0x03u},
1576:.\Generated_Source\PSoC5/cyfitter_cfg.c **** 			{0xC6u, 0xB0u},
1577:.\Generated_Source\PSoC5/cyfitter_cfg.c **** 			{0xC7u, 0x0Du},
1578:.\Generated_Source\PSoC5/cyfitter_cfg.c **** 			{0xC8u, 0x18u},
1579:.\Generated_Source\PSoC5/cyfitter_cfg.c **** 			{0xC9u, 0xFFu},
1580:.\Generated_Source\PSoC5/cyfitter_cfg.c **** 			{0xCAu, 0x7Fu},
1581:.\Generated_Source\PSoC5/cyfitter_cfg.c **** 			{0xCBu, 0xFFu},
1582:.\Generated_Source\PSoC5/cyfitter_cfg.c **** 			{0xCCu, 0x42u},
1583:.\Generated_Source\PSoC5/cyfitter_cfg.c **** 			{0xCDu, 0xA0u},
1584:.\Generated_Source\PSoC5/cyfitter_cfg.c **** 			{0xCEu, 0x70u},
1585:.\Generated_Source\PSoC5/cyfitter_cfg.c **** 			{0xD0u, 0x0Cu},
1586:.\Generated_Source\PSoC5/cyfitter_cfg.c **** 			{0xD8u, 0x04u},
1587:.\Generated_Source\PSoC5/cyfitter_cfg.c **** 			{0xD9u, 0x04u},
1588:.\Generated_Source\PSoC5/cyfitter_cfg.c **** 			{0xDAu, 0x04u},
1589:.\Generated_Source\PSoC5/cyfitter_cfg.c **** 			{0xDCu, 0x52u},
1590:.\Generated_Source\PSoC5/cyfitter_cfg.c **** 			{0xDDu, 0x02u},
1591:.\Generated_Source\PSoC5/cyfitter_cfg.c **** 			{0xDFu, 0x01u},
1592:.\Generated_Source\PSoC5/cyfitter_cfg.c **** 			{0xE1u, 0x09u},
1593:.\Generated_Source\PSoC5/cyfitter_cfg.c **** 			{0xE2u, 0x40u},
1594:.\Generated_Source\PSoC5/cyfitter_cfg.c **** 			{0xE3u, 0x09u},
1595:.\Generated_Source\PSoC5/cyfitter_cfg.c **** 			{0xE4u, 0x30u},
1596:.\Generated_Source\PSoC5/cyfitter_cfg.c **** 			{0xE5u, 0x09u},
1597:.\Generated_Source\PSoC5/cyfitter_cfg.c **** 			{0x05u, 0x11u},
1598:.\Generated_Source\PSoC5/cyfitter_cfg.c **** 			{0x09u, 0x20u},
1599:.\Generated_Source\PSoC5/cyfitter_cfg.c **** 			{0x0Cu, 0x40u},
1600:.\Generated_Source\PSoC5/cyfitter_cfg.c **** 			{0x0Eu, 0x08u},
1601:.\Generated_Source\PSoC5/cyfitter_cfg.c **** 			{0x16u, 0x92u},
1602:.\Generated_Source\PSoC5/cyfitter_cfg.c **** 			{0x1Au, 0x10u},
1603:.\Generated_Source\PSoC5/cyfitter_cfg.c **** 			{0x1Eu, 0x0Cu},
1604:.\Generated_Source\PSoC5/cyfitter_cfg.c **** 			{0x20u, 0x80u},
1605:.\Generated_Source\PSoC5/cyfitter_cfg.c **** 			{0x23u, 0x40u},
1606:.\Generated_Source\PSoC5/cyfitter_cfg.c **** 			{0x27u, 0x28u},
1607:.\Generated_Source\PSoC5/cyfitter_cfg.c **** 			{0x28u, 0x40u},
1608:.\Generated_Source\PSoC5/cyfitter_cfg.c **** 			{0x2Au, 0x18u},
1609:.\Generated_Source\PSoC5/cyfitter_cfg.c **** 			{0x2Bu, 0x08u},
1610:.\Generated_Source\PSoC5/cyfitter_cfg.c **** 			{0x2Eu, 0x02u},
1611:.\Generated_Source\PSoC5/cyfitter_cfg.c **** 			{0x31u, 0x10u},
1612:.\Generated_Source\PSoC5/cyfitter_cfg.c **** 			{0x36u, 0x90u},
1613:.\Generated_Source\PSoC5/cyfitter_cfg.c **** 			{0x38u, 0x20u},
1614:.\Generated_Source\PSoC5/cyfitter_cfg.c **** 			{0x3Au, 0x82u},
ARM GAS  C:\Users\xavieran\AppData\Local\Temp\ccKklXac.s 			page 40


1615:.\Generated_Source\PSoC5/cyfitter_cfg.c **** 			{0x3Bu, 0x80u},
1616:.\Generated_Source\PSoC5/cyfitter_cfg.c **** 			{0x3Cu, 0x20u},
1617:.\Generated_Source\PSoC5/cyfitter_cfg.c **** 			{0x3Eu, 0x80u},
1618:.\Generated_Source\PSoC5/cyfitter_cfg.c **** 			{0x40u, 0x80u},
1619:.\Generated_Source\PSoC5/cyfitter_cfg.c **** 			{0x41u, 0x08u},
1620:.\Generated_Source\PSoC5/cyfitter_cfg.c **** 			{0x42u, 0x10u},
1621:.\Generated_Source\PSoC5/cyfitter_cfg.c **** 			{0x45u, 0x08u},
1622:.\Generated_Source\PSoC5/cyfitter_cfg.c **** 			{0x47u, 0x20u},
1623:.\Generated_Source\PSoC5/cyfitter_cfg.c **** 			{0x4Fu, 0x40u},
1624:.\Generated_Source\PSoC5/cyfitter_cfg.c **** 			{0x52u, 0x20u},
1625:.\Generated_Source\PSoC5/cyfitter_cfg.c **** 			{0x54u, 0x20u},
1626:.\Generated_Source\PSoC5/cyfitter_cfg.c **** 			{0x56u, 0x08u},
1627:.\Generated_Source\PSoC5/cyfitter_cfg.c **** 			{0x58u, 0x01u},
1628:.\Generated_Source\PSoC5/cyfitter_cfg.c **** 			{0x5Bu, 0x54u},
1629:.\Generated_Source\PSoC5/cyfitter_cfg.c **** 			{0x60u, 0x28u},
1630:.\Generated_Source\PSoC5/cyfitter_cfg.c **** 			{0x63u, 0x81u},
1631:.\Generated_Source\PSoC5/cyfitter_cfg.c **** 			{0x7Au, 0x01u},
1632:.\Generated_Source\PSoC5/cyfitter_cfg.c **** 			{0x88u, 0x01u},
1633:.\Generated_Source\PSoC5/cyfitter_cfg.c **** 			{0x8Au, 0x20u},
1634:.\Generated_Source\PSoC5/cyfitter_cfg.c **** 			{0x8Cu, 0x08u},
1635:.\Generated_Source\PSoC5/cyfitter_cfg.c **** 			{0x8Eu, 0x01u},
1636:.\Generated_Source\PSoC5/cyfitter_cfg.c **** 			{0x8Fu, 0x04u},
1637:.\Generated_Source\PSoC5/cyfitter_cfg.c **** 			{0xC0u, 0x50u},
1638:.\Generated_Source\PSoC5/cyfitter_cfg.c **** 			{0xC2u, 0xC2u},
1639:.\Generated_Source\PSoC5/cyfitter_cfg.c **** 			{0xC4u, 0xB0u},
1640:.\Generated_Source\PSoC5/cyfitter_cfg.c **** 			{0xCAu, 0x87u},
1641:.\Generated_Source\PSoC5/cyfitter_cfg.c **** 			{0xCCu, 0x34u},
1642:.\Generated_Source\PSoC5/cyfitter_cfg.c **** 			{0xCEu, 0x3Du},
1643:.\Generated_Source\PSoC5/cyfitter_cfg.c **** 			{0xD0u, 0x61u},
1644:.\Generated_Source\PSoC5/cyfitter_cfg.c **** 			{0xD2u, 0x10u},
1645:.\Generated_Source\PSoC5/cyfitter_cfg.c **** 			{0xD6u, 0x0Fu},
1646:.\Generated_Source\PSoC5/cyfitter_cfg.c **** 			{0xD8u, 0x0Fu},
1647:.\Generated_Source\PSoC5/cyfitter_cfg.c **** 			{0xDEu, 0x08u},
1648:.\Generated_Source\PSoC5/cyfitter_cfg.c **** 			{0xE2u, 0x20u},
1649:.\Generated_Source\PSoC5/cyfitter_cfg.c **** 			{0xE4u, 0x30u},
1650:.\Generated_Source\PSoC5/cyfitter_cfg.c **** 			{0x00u, 0x02u},
1651:.\Generated_Source\PSoC5/cyfitter_cfg.c **** 			{0x02u, 0x04u},
1652:.\Generated_Source\PSoC5/cyfitter_cfg.c **** 			{0x04u, 0x02u},
1653:.\Generated_Source\PSoC5/cyfitter_cfg.c **** 			{0x05u, 0x40u},
1654:.\Generated_Source\PSoC5/cyfitter_cfg.c **** 			{0x06u, 0x0Cu},
1655:.\Generated_Source\PSoC5/cyfitter_cfg.c **** 			{0x07u, 0x13u},
1656:.\Generated_Source\PSoC5/cyfitter_cfg.c **** 			{0x08u, 0x02u},
1657:.\Generated_Source\PSoC5/cyfitter_cfg.c **** 			{0x09u, 0xFFu},
1658:.\Generated_Source\PSoC5/cyfitter_cfg.c **** 			{0x0Au, 0x08u},
1659:.\Generated_Source\PSoC5/cyfitter_cfg.c **** 			{0x0Eu, 0x06u},
1660:.\Generated_Source\PSoC5/cyfitter_cfg.c **** 			{0x10u, 0x04u},
1661:.\Generated_Source\PSoC5/cyfitter_cfg.c **** 			{0x11u, 0x80u},
1662:.\Generated_Source\PSoC5/cyfitter_cfg.c **** 			{0x12u, 0x02u},
1663:.\Generated_Source\PSoC5/cyfitter_cfg.c **** 			{0x13u, 0x56u},
1664:.\Generated_Source\PSoC5/cyfitter_cfg.c **** 			{0x17u, 0x01u},
1665:.\Generated_Source\PSoC5/cyfitter_cfg.c **** 			{0x19u, 0x2Au},
1666:.\Generated_Source\PSoC5/cyfitter_cfg.c **** 			{0x1Bu, 0x54u},
1667:.\Generated_Source\PSoC5/cyfitter_cfg.c **** 			{0x1Cu, 0x01u},
1668:.\Generated_Source\PSoC5/cyfitter_cfg.c **** 			{0x1Du, 0x0Eu},
1669:.\Generated_Source\PSoC5/cyfitter_cfg.c **** 			{0x1Fu, 0x30u},
1670:.\Generated_Source\PSoC5/cyfitter_cfg.c **** 			{0x21u, 0x46u},
1671:.\Generated_Source\PSoC5/cyfitter_cfg.c **** 			{0x23u, 0xA9u},
ARM GAS  C:\Users\xavieran\AppData\Local\Temp\ccKklXac.s 			page 41


1672:.\Generated_Source\PSoC5/cyfitter_cfg.c **** 			{0x25u, 0x33u},
1673:.\Generated_Source\PSoC5/cyfitter_cfg.c **** 			{0x26u, 0x06u},
1674:.\Generated_Source\PSoC5/cyfitter_cfg.c **** 			{0x27u, 0x0Cu},
1675:.\Generated_Source\PSoC5/cyfitter_cfg.c **** 			{0x2Eu, 0x06u},
1676:.\Generated_Source\PSoC5/cyfitter_cfg.c **** 			{0x30u, 0x01u},
1677:.\Generated_Source\PSoC5/cyfitter_cfg.c **** 			{0x34u, 0x0Eu},
1678:.\Generated_Source\PSoC5/cyfitter_cfg.c **** 			{0x37u, 0xFFu},
1679:.\Generated_Source\PSoC5/cyfitter_cfg.c **** 			{0x39u, 0x08u},
1680:.\Generated_Source\PSoC5/cyfitter_cfg.c **** 			{0x3Au, 0x20u},
1681:.\Generated_Source\PSoC5/cyfitter_cfg.c **** 			{0x3Eu, 0x01u},
1682:.\Generated_Source\PSoC5/cyfitter_cfg.c **** 			{0x3Fu, 0x04u},
1683:.\Generated_Source\PSoC5/cyfitter_cfg.c **** 			{0x40u, 0x64u},
1684:.\Generated_Source\PSoC5/cyfitter_cfg.c **** 			{0x41u, 0x02u},
1685:.\Generated_Source\PSoC5/cyfitter_cfg.c **** 			{0x49u, 0xFFu},
1686:.\Generated_Source\PSoC5/cyfitter_cfg.c **** 			{0x4Au, 0xFFu},
1687:.\Generated_Source\PSoC5/cyfitter_cfg.c **** 			{0x4Bu, 0xFFu},
1688:.\Generated_Source\PSoC5/cyfitter_cfg.c **** 			{0x4Fu, 0x01u},
1689:.\Generated_Source\PSoC5/cyfitter_cfg.c **** 			{0x50u, 0x18u},
1690:.\Generated_Source\PSoC5/cyfitter_cfg.c **** 			{0x56u, 0x08u},
1691:.\Generated_Source\PSoC5/cyfitter_cfg.c **** 			{0x58u, 0x04u},
1692:.\Generated_Source\PSoC5/cyfitter_cfg.c **** 			{0x59u, 0x04u},
1693:.\Generated_Source\PSoC5/cyfitter_cfg.c **** 			{0x5Au, 0x04u},
1694:.\Generated_Source\PSoC5/cyfitter_cfg.c **** 			{0x5Bu, 0x04u},
1695:.\Generated_Source\PSoC5/cyfitter_cfg.c **** 			{0x5Cu, 0x22u},
1696:.\Generated_Source\PSoC5/cyfitter_cfg.c **** 			{0x5Du, 0x93u},
1697:.\Generated_Source\PSoC5/cyfitter_cfg.c **** 			{0x5Fu, 0x01u},
1698:.\Generated_Source\PSoC5/cyfitter_cfg.c **** 			{0x60u, 0x40u},
1699:.\Generated_Source\PSoC5/cyfitter_cfg.c **** 			{0x62u, 0x40u},
1700:.\Generated_Source\PSoC5/cyfitter_cfg.c **** 			{0x64u, 0x40u},
1701:.\Generated_Source\PSoC5/cyfitter_cfg.c **** 			{0x65u, 0x40u},
1702:.\Generated_Source\PSoC5/cyfitter_cfg.c **** 			{0x66u, 0x80u},
1703:.\Generated_Source\PSoC5/cyfitter_cfg.c **** 			{0x68u, 0x80u},
1704:.\Generated_Source\PSoC5/cyfitter_cfg.c **** 			{0x6Au, 0x80u},
1705:.\Generated_Source\PSoC5/cyfitter_cfg.c **** 			{0x6Cu, 0x80u},
1706:.\Generated_Source\PSoC5/cyfitter_cfg.c **** 			{0x6Eu, 0x80u},
1707:.\Generated_Source\PSoC5/cyfitter_cfg.c **** 			{0x87u, 0x02u},
1708:.\Generated_Source\PSoC5/cyfitter_cfg.c **** 			{0x8Fu, 0x02u},
1709:.\Generated_Source\PSoC5/cyfitter_cfg.c **** 			{0x9Bu, 0x01u},
1710:.\Generated_Source\PSoC5/cyfitter_cfg.c **** 			{0xB1u, 0x02u},
1711:.\Generated_Source\PSoC5/cyfitter_cfg.c **** 			{0xB7u, 0x01u},
1712:.\Generated_Source\PSoC5/cyfitter_cfg.c **** 			{0xBFu, 0x01u},
1713:.\Generated_Source\PSoC5/cyfitter_cfg.c **** 			{0xC0u, 0x35u},
1714:.\Generated_Source\PSoC5/cyfitter_cfg.c **** 			{0xC1u, 0x02u},
1715:.\Generated_Source\PSoC5/cyfitter_cfg.c **** 			{0xC5u, 0xECu},
1716:.\Generated_Source\PSoC5/cyfitter_cfg.c **** 			{0xC6u, 0x02u},
1717:.\Generated_Source\PSoC5/cyfitter_cfg.c **** 			{0xC8u, 0x07u},
1718:.\Generated_Source\PSoC5/cyfitter_cfg.c **** 			{0xC9u, 0xFFu},
1719:.\Generated_Source\PSoC5/cyfitter_cfg.c **** 			{0xCAu, 0xFFu},
1720:.\Generated_Source\PSoC5/cyfitter_cfg.c **** 			{0xCBu, 0xFFu},
1721:.\Generated_Source\PSoC5/cyfitter_cfg.c **** 			{0xCDu, 0x83u},
1722:.\Generated_Source\PSoC5/cyfitter_cfg.c **** 			{0xCEu, 0x03u},
1723:.\Generated_Source\PSoC5/cyfitter_cfg.c **** 			{0xCFu, 0x01u},
1724:.\Generated_Source\PSoC5/cyfitter_cfg.c **** 			{0xD0u, 0x18u},
1725:.\Generated_Source\PSoC5/cyfitter_cfg.c **** 			{0xD4u, 0x01u},
1726:.\Generated_Source\PSoC5/cyfitter_cfg.c **** 			{0xD9u, 0x04u},
1727:.\Generated_Source\PSoC5/cyfitter_cfg.c **** 			{0xDAu, 0x04u},
1728:.\Generated_Source\PSoC5/cyfitter_cfg.c **** 			{0xDBu, 0x04u},
ARM GAS  C:\Users\xavieran\AppData\Local\Temp\ccKklXac.s 			page 42


1729:.\Generated_Source\PSoC5/cyfitter_cfg.c **** 			{0xDCu, 0x20u},
1730:.\Generated_Source\PSoC5/cyfitter_cfg.c **** 			{0xDDu, 0x33u},
1731:.\Generated_Source\PSoC5/cyfitter_cfg.c **** 			{0xDFu, 0x05u},
1732:.\Generated_Source\PSoC5/cyfitter_cfg.c **** 			{0xE0u, 0x40u},
1733:.\Generated_Source\PSoC5/cyfitter_cfg.c **** 			{0xE2u, 0x40u},
1734:.\Generated_Source\PSoC5/cyfitter_cfg.c **** 			{0xE4u, 0x40u},
1735:.\Generated_Source\PSoC5/cyfitter_cfg.c **** 			{0xE5u, 0x40u},
1736:.\Generated_Source\PSoC5/cyfitter_cfg.c **** 			{0xE6u, 0x80u},
1737:.\Generated_Source\PSoC5/cyfitter_cfg.c **** 			{0xE8u, 0x80u},
1738:.\Generated_Source\PSoC5/cyfitter_cfg.c **** 			{0xEAu, 0x80u},
1739:.\Generated_Source\PSoC5/cyfitter_cfg.c **** 			{0xECu, 0x80u},
1740:.\Generated_Source\PSoC5/cyfitter_cfg.c **** 			{0xEEu, 0x80u},
1741:.\Generated_Source\PSoC5/cyfitter_cfg.c **** 			{0x00u, 0x04u},
1742:.\Generated_Source\PSoC5/cyfitter_cfg.c **** 			{0x01u, 0x90u},
1743:.\Generated_Source\PSoC5/cyfitter_cfg.c **** 			{0x02u, 0x40u},
1744:.\Generated_Source\PSoC5/cyfitter_cfg.c **** 			{0x09u, 0x81u},
1745:.\Generated_Source\PSoC5/cyfitter_cfg.c **** 			{0x11u, 0x80u},
1746:.\Generated_Source\PSoC5/cyfitter_cfg.c **** 			{0x12u, 0x20u},
1747:.\Generated_Source\PSoC5/cyfitter_cfg.c **** 			{0x18u, 0x04u},
1748:.\Generated_Source\PSoC5/cyfitter_cfg.c **** 			{0x1Bu, 0x01u},
1749:.\Generated_Source\PSoC5/cyfitter_cfg.c **** 			{0x20u, 0x02u},
1750:.\Generated_Source\PSoC5/cyfitter_cfg.c **** 			{0x23u, 0x10u},
1751:.\Generated_Source\PSoC5/cyfitter_cfg.c **** 			{0x25u, 0x40u},
1752:.\Generated_Source\PSoC5/cyfitter_cfg.c **** 			{0x27u, 0x81u},
1753:.\Generated_Source\PSoC5/cyfitter_cfg.c **** 			{0x2Au, 0x0Au},
1754:.\Generated_Source\PSoC5/cyfitter_cfg.c **** 			{0x30u, 0x12u},
1755:.\Generated_Source\PSoC5/cyfitter_cfg.c **** 			{0x32u, 0x80u},
1756:.\Generated_Source\PSoC5/cyfitter_cfg.c **** 			{0x33u, 0x08u},
1757:.\Generated_Source\PSoC5/cyfitter_cfg.c **** 			{0x36u, 0x20u},
1758:.\Generated_Source\PSoC5/cyfitter_cfg.c **** 			{0x38u, 0x20u},
1759:.\Generated_Source\PSoC5/cyfitter_cfg.c **** 			{0x39u, 0x14u},
1760:.\Generated_Source\PSoC5/cyfitter_cfg.c **** 			{0x3Fu, 0x88u},
1761:.\Generated_Source\PSoC5/cyfitter_cfg.c **** 			{0x42u, 0x84u},
1762:.\Generated_Source\PSoC5/cyfitter_cfg.c **** 			{0x43u, 0x30u},
1763:.\Generated_Source\PSoC5/cyfitter_cfg.c **** 			{0x46u, 0x10u},
1764:.\Generated_Source\PSoC5/cyfitter_cfg.c **** 			{0x47u, 0x10u},
1765:.\Generated_Source\PSoC5/cyfitter_cfg.c **** 			{0x49u, 0x10u},
1766:.\Generated_Source\PSoC5/cyfitter_cfg.c **** 			{0x4Fu, 0x85u},
1767:.\Generated_Source\PSoC5/cyfitter_cfg.c **** 			{0x56u, 0x80u},
1768:.\Generated_Source\PSoC5/cyfitter_cfg.c **** 			{0x57u, 0x40u},
1769:.\Generated_Source\PSoC5/cyfitter_cfg.c **** 			{0x58u, 0x40u},
1770:.\Generated_Source\PSoC5/cyfitter_cfg.c **** 			{0x5Bu, 0x20u},
1771:.\Generated_Source\PSoC5/cyfitter_cfg.c **** 			{0x5Fu, 0x85u},
1772:.\Generated_Source\PSoC5/cyfitter_cfg.c **** 			{0x61u, 0x90u},
1773:.\Generated_Source\PSoC5/cyfitter_cfg.c **** 			{0x62u, 0x10u},
1774:.\Generated_Source\PSoC5/cyfitter_cfg.c **** 			{0x63u, 0x08u},
1775:.\Generated_Source\PSoC5/cyfitter_cfg.c **** 			{0x7Fu, 0x20u},
1776:.\Generated_Source\PSoC5/cyfitter_cfg.c **** 			{0x81u, 0x80u},
1777:.\Generated_Source\PSoC5/cyfitter_cfg.c **** 			{0x82u, 0x08u},
1778:.\Generated_Source\PSoC5/cyfitter_cfg.c **** 			{0x84u, 0x01u},
1779:.\Generated_Source\PSoC5/cyfitter_cfg.c **** 			{0x86u, 0x02u},
1780:.\Generated_Source\PSoC5/cyfitter_cfg.c **** 			{0x87u, 0x20u},
1781:.\Generated_Source\PSoC5/cyfitter_cfg.c **** 			{0x88u, 0x60u},
1782:.\Generated_Source\PSoC5/cyfitter_cfg.c **** 			{0x8Bu, 0x50u},
1783:.\Generated_Source\PSoC5/cyfitter_cfg.c **** 			{0x8Fu, 0x20u},
1784:.\Generated_Source\PSoC5/cyfitter_cfg.c **** 			{0x90u, 0x20u},
1785:.\Generated_Source\PSoC5/cyfitter_cfg.c **** 			{0x91u, 0x04u},
ARM GAS  C:\Users\xavieran\AppData\Local\Temp\ccKklXac.s 			page 43


1786:.\Generated_Source\PSoC5/cyfitter_cfg.c **** 			{0x92u, 0x04u},
1787:.\Generated_Source\PSoC5/cyfitter_cfg.c **** 			{0x97u, 0x40u},
1788:.\Generated_Source\PSoC5/cyfitter_cfg.c **** 			{0x98u, 0x10u},
1789:.\Generated_Source\PSoC5/cyfitter_cfg.c **** 			{0x9Au, 0x40u},
1790:.\Generated_Source\PSoC5/cyfitter_cfg.c **** 			{0x9Du, 0x80u},
1791:.\Generated_Source\PSoC5/cyfitter_cfg.c **** 			{0x9Eu, 0x02u},
1792:.\Generated_Source\PSoC5/cyfitter_cfg.c **** 			{0x9Fu, 0x01u},
1793:.\Generated_Source\PSoC5/cyfitter_cfg.c **** 			{0xA0u, 0x02u},
1794:.\Generated_Source\PSoC5/cyfitter_cfg.c **** 			{0xA1u, 0x01u},
1795:.\Generated_Source\PSoC5/cyfitter_cfg.c **** 			{0xA2u, 0xA0u},
1796:.\Generated_Source\PSoC5/cyfitter_cfg.c **** 			{0xA3u, 0x08u},
1797:.\Generated_Source\PSoC5/cyfitter_cfg.c **** 			{0xA4u, 0x21u},
1798:.\Generated_Source\PSoC5/cyfitter_cfg.c **** 			{0xA7u, 0x01u},
1799:.\Generated_Source\PSoC5/cyfitter_cfg.c **** 			{0xB2u, 0x84u},
1800:.\Generated_Source\PSoC5/cyfitter_cfg.c **** 			{0xB6u, 0x80u},
1801:.\Generated_Source\PSoC5/cyfitter_cfg.c **** 			{0xC0u, 0x0Fu},
1802:.\Generated_Source\PSoC5/cyfitter_cfg.c **** 			{0xC2u, 0x09u},
1803:.\Generated_Source\PSoC5/cyfitter_cfg.c **** 			{0xC4u, 0x05u},
1804:.\Generated_Source\PSoC5/cyfitter_cfg.c **** 			{0xCAu, 0x03u},
1805:.\Generated_Source\PSoC5/cyfitter_cfg.c **** 			{0xCCu, 0x2Fu},
1806:.\Generated_Source\PSoC5/cyfitter_cfg.c **** 			{0xCEu, 0x56u},
1807:.\Generated_Source\PSoC5/cyfitter_cfg.c **** 			{0xD0u, 0x65u},
1808:.\Generated_Source\PSoC5/cyfitter_cfg.c **** 			{0xD2u, 0x14u},
1809:.\Generated_Source\PSoC5/cyfitter_cfg.c **** 			{0xD6u, 0xDCu},
1810:.\Generated_Source\PSoC5/cyfitter_cfg.c **** 			{0xD8u, 0x0Cu},
1811:.\Generated_Source\PSoC5/cyfitter_cfg.c **** 			{0xDEu, 0x40u},
1812:.\Generated_Source\PSoC5/cyfitter_cfg.c **** 			{0xE0u, 0x20u},
1813:.\Generated_Source\PSoC5/cyfitter_cfg.c **** 			{0xE2u, 0x44u},
1814:.\Generated_Source\PSoC5/cyfitter_cfg.c **** 			{0xE4u, 0x0Cu},
1815:.\Generated_Source\PSoC5/cyfitter_cfg.c **** 			{0xE6u, 0x81u},
1816:.\Generated_Source\PSoC5/cyfitter_cfg.c **** 			{0xE8u, 0x04u},
1817:.\Generated_Source\PSoC5/cyfitter_cfg.c **** 			{0xEAu, 0x01u},
1818:.\Generated_Source\PSoC5/cyfitter_cfg.c **** 			{0x0Fu, 0x01u},
1819:.\Generated_Source\PSoC5/cyfitter_cfg.c **** 			{0x1Fu, 0x02u},
1820:.\Generated_Source\PSoC5/cyfitter_cfg.c **** 			{0x31u, 0x01u},
1821:.\Generated_Source\PSoC5/cyfitter_cfg.c **** 			{0x35u, 0x02u},
1822:.\Generated_Source\PSoC5/cyfitter_cfg.c **** 			{0x40u, 0x46u},
1823:.\Generated_Source\PSoC5/cyfitter_cfg.c **** 			{0x49u, 0xFFu},
1824:.\Generated_Source\PSoC5/cyfitter_cfg.c **** 			{0x4Au, 0xFFu},
1825:.\Generated_Source\PSoC5/cyfitter_cfg.c **** 			{0x4Bu, 0xFFu},
1826:.\Generated_Source\PSoC5/cyfitter_cfg.c **** 			{0x4Fu, 0x01u},
1827:.\Generated_Source\PSoC5/cyfitter_cfg.c **** 			{0x50u, 0x18u},
1828:.\Generated_Source\PSoC5/cyfitter_cfg.c **** 			{0x56u, 0x08u},
1829:.\Generated_Source\PSoC5/cyfitter_cfg.c **** 			{0x59u, 0x04u},
1830:.\Generated_Source\PSoC5/cyfitter_cfg.c **** 			{0x5Au, 0x04u},
1831:.\Generated_Source\PSoC5/cyfitter_cfg.c **** 			{0x5Bu, 0x04u},
1832:.\Generated_Source\PSoC5/cyfitter_cfg.c **** 			{0x5Cu, 0x20u},
1833:.\Generated_Source\PSoC5/cyfitter_cfg.c **** 			{0x5Du, 0x94u},
1834:.\Generated_Source\PSoC5/cyfitter_cfg.c **** 			{0x5Fu, 0x01u},
1835:.\Generated_Source\PSoC5/cyfitter_cfg.c **** 			{0x60u, 0x40u},
1836:.\Generated_Source\PSoC5/cyfitter_cfg.c **** 			{0x62u, 0x40u},
1837:.\Generated_Source\PSoC5/cyfitter_cfg.c **** 			{0x64u, 0x40u},
1838:.\Generated_Source\PSoC5/cyfitter_cfg.c **** 			{0x65u, 0x40u},
1839:.\Generated_Source\PSoC5/cyfitter_cfg.c **** 			{0x66u, 0x80u},
1840:.\Generated_Source\PSoC5/cyfitter_cfg.c **** 			{0x68u, 0x80u},
1841:.\Generated_Source\PSoC5/cyfitter_cfg.c **** 			{0x6Au, 0x80u},
1842:.\Generated_Source\PSoC5/cyfitter_cfg.c **** 			{0x6Cu, 0x80u},
ARM GAS  C:\Users\xavieran\AppData\Local\Temp\ccKklXac.s 			page 44


1843:.\Generated_Source\PSoC5/cyfitter_cfg.c **** 			{0x6Eu, 0x80u},
1844:.\Generated_Source\PSoC5/cyfitter_cfg.c **** 			{0x80u, 0x01u},
1845:.\Generated_Source\PSoC5/cyfitter_cfg.c **** 			{0x83u, 0x04u},
1846:.\Generated_Source\PSoC5/cyfitter_cfg.c **** 			{0x84u, 0x04u},
1847:.\Generated_Source\PSoC5/cyfitter_cfg.c **** 			{0x85u, 0x02u},
1848:.\Generated_Source\PSoC5/cyfitter_cfg.c **** 			{0x88u, 0x01u},
1849:.\Generated_Source\PSoC5/cyfitter_cfg.c **** 			{0x89u, 0x02u},
1850:.\Generated_Source\PSoC5/cyfitter_cfg.c **** 			{0x8Fu, 0x01u},
1851:.\Generated_Source\PSoC5/cyfitter_cfg.c **** 			{0x92u, 0x02u},
1852:.\Generated_Source\PSoC5/cyfitter_cfg.c **** 			{0x93u, 0x01u},
1853:.\Generated_Source\PSoC5/cyfitter_cfg.c **** 			{0x94u, 0x01u},
1854:.\Generated_Source\PSoC5/cyfitter_cfg.c **** 			{0x97u, 0x02u},
1855:.\Generated_Source\PSoC5/cyfitter_cfg.c **** 			{0x98u, 0x01u},
1856:.\Generated_Source\PSoC5/cyfitter_cfg.c **** 			{0x9Bu, 0x01u},
1857:.\Generated_Source\PSoC5/cyfitter_cfg.c **** 			{0x9Du, 0x01u},
1858:.\Generated_Source\PSoC5/cyfitter_cfg.c **** 			{0xA0u, 0x01u},
1859:.\Generated_Source\PSoC5/cyfitter_cfg.c **** 			{0xA1u, 0x02u},
1860:.\Generated_Source\PSoC5/cyfitter_cfg.c **** 			{0xA5u, 0x02u},
1861:.\Generated_Source\PSoC5/cyfitter_cfg.c **** 			{0xA6u, 0x04u},
1862:.\Generated_Source\PSoC5/cyfitter_cfg.c **** 			{0xA9u, 0x02u},
1863:.\Generated_Source\PSoC5/cyfitter_cfg.c **** 			{0xAAu, 0x02u},
1864:.\Generated_Source\PSoC5/cyfitter_cfg.c **** 			{0xAFu, 0x01u},
1865:.\Generated_Source\PSoC5/cyfitter_cfg.c **** 			{0xB0u, 0x02u},
1866:.\Generated_Source\PSoC5/cyfitter_cfg.c **** 			{0xB1u, 0x01u},
1867:.\Generated_Source\PSoC5/cyfitter_cfg.c **** 			{0xB2u, 0x01u},
1868:.\Generated_Source\PSoC5/cyfitter_cfg.c **** 			{0xB4u, 0x04u},
1869:.\Generated_Source\PSoC5/cyfitter_cfg.c **** 			{0xB7u, 0x06u},
1870:.\Generated_Source\PSoC5/cyfitter_cfg.c **** 			{0xB8u, 0x08u},
1871:.\Generated_Source\PSoC5/cyfitter_cfg.c **** 			{0xBEu, 0x05u},
1872:.\Generated_Source\PSoC5/cyfitter_cfg.c **** 			{0xBFu, 0x01u},
1873:.\Generated_Source\PSoC5/cyfitter_cfg.c **** 			{0xC0u, 0x16u},
1874:.\Generated_Source\PSoC5/cyfitter_cfg.c **** 			{0xC5u, 0xECu},
1875:.\Generated_Source\PSoC5/cyfitter_cfg.c **** 			{0xC7u, 0x02u},
1876:.\Generated_Source\PSoC5/cyfitter_cfg.c **** 			{0xC8u, 0x13u},
1877:.\Generated_Source\PSoC5/cyfitter_cfg.c **** 			{0xC9u, 0xFFu},
1878:.\Generated_Source\PSoC5/cyfitter_cfg.c **** 			{0xCAu, 0xFFu},
1879:.\Generated_Source\PSoC5/cyfitter_cfg.c **** 			{0xCBu, 0xFFu},
1880:.\Generated_Source\PSoC5/cyfitter_cfg.c **** 			{0xCDu, 0x83u},
1881:.\Generated_Source\PSoC5/cyfitter_cfg.c **** 			{0xCEu, 0x03u},
1882:.\Generated_Source\PSoC5/cyfitter_cfg.c **** 			{0xCFu, 0x01u},
1883:.\Generated_Source\PSoC5/cyfitter_cfg.c **** 			{0xD0u, 0x18u},
1884:.\Generated_Source\PSoC5/cyfitter_cfg.c **** 			{0xD4u, 0x01u},
1885:.\Generated_Source\PSoC5/cyfitter_cfg.c **** 			{0xD8u, 0x04u},
1886:.\Generated_Source\PSoC5/cyfitter_cfg.c **** 			{0xD9u, 0x04u},
1887:.\Generated_Source\PSoC5/cyfitter_cfg.c **** 			{0xDAu, 0x04u},
1888:.\Generated_Source\PSoC5/cyfitter_cfg.c **** 			{0xDBu, 0x04u},
1889:.\Generated_Source\PSoC5/cyfitter_cfg.c **** 			{0xDCu, 0x23u},
1890:.\Generated_Source\PSoC5/cyfitter_cfg.c **** 			{0xDDu, 0x44u},
1891:.\Generated_Source\PSoC5/cyfitter_cfg.c **** 			{0xDFu, 0x01u},
1892:.\Generated_Source\PSoC5/cyfitter_cfg.c **** 			{0xE0u, 0x40u},
1893:.\Generated_Source\PSoC5/cyfitter_cfg.c **** 			{0xE2u, 0x40u},
1894:.\Generated_Source\PSoC5/cyfitter_cfg.c **** 			{0xE4u, 0x40u},
1895:.\Generated_Source\PSoC5/cyfitter_cfg.c **** 			{0xE5u, 0x40u},
1896:.\Generated_Source\PSoC5/cyfitter_cfg.c **** 			{0xE6u, 0x80u},
1897:.\Generated_Source\PSoC5/cyfitter_cfg.c **** 			{0xE8u, 0x80u},
1898:.\Generated_Source\PSoC5/cyfitter_cfg.c **** 			{0xEAu, 0x80u},
1899:.\Generated_Source\PSoC5/cyfitter_cfg.c **** 			{0xECu, 0x80u},
ARM GAS  C:\Users\xavieran\AppData\Local\Temp\ccKklXac.s 			page 45


1900:.\Generated_Source\PSoC5/cyfitter_cfg.c **** 			{0xEEu, 0x80u},
1901:.\Generated_Source\PSoC5/cyfitter_cfg.c **** 			{0x00u, 0x02u},
1902:.\Generated_Source\PSoC5/cyfitter_cfg.c **** 			{0x01u, 0x20u},
1903:.\Generated_Source\PSoC5/cyfitter_cfg.c **** 			{0x02u, 0x10u},
1904:.\Generated_Source\PSoC5/cyfitter_cfg.c **** 			{0x08u, 0x06u},
1905:.\Generated_Source\PSoC5/cyfitter_cfg.c **** 			{0x0Bu, 0x08u},
1906:.\Generated_Source\PSoC5/cyfitter_cfg.c **** 			{0x10u, 0x08u},
1907:.\Generated_Source\PSoC5/cyfitter_cfg.c **** 			{0x12u, 0x80u},
1908:.\Generated_Source\PSoC5/cyfitter_cfg.c **** 			{0x13u, 0x08u},
1909:.\Generated_Source\PSoC5/cyfitter_cfg.c **** 			{0x1Au, 0x54u},
1910:.\Generated_Source\PSoC5/cyfitter_cfg.c **** 			{0x20u, 0x80u},
1911:.\Generated_Source\PSoC5/cyfitter_cfg.c **** 			{0x22u, 0x80u},
1912:.\Generated_Source\PSoC5/cyfitter_cfg.c **** 			{0x25u, 0x01u},
1913:.\Generated_Source\PSoC5/cyfitter_cfg.c **** 			{0x26u, 0x20u},
1914:.\Generated_Source\PSoC5/cyfitter_cfg.c **** 			{0x27u, 0x40u},
1915:.\Generated_Source\PSoC5/cyfitter_cfg.c **** 			{0x29u, 0xB0u},
1916:.\Generated_Source\PSoC5/cyfitter_cfg.c **** 			{0x2Au, 0x02u},
1917:.\Generated_Source\PSoC5/cyfitter_cfg.c **** 			{0x2Bu, 0x20u},
1918:.\Generated_Source\PSoC5/cyfitter_cfg.c **** 			{0x32u, 0x24u},
1919:.\Generated_Source\PSoC5/cyfitter_cfg.c **** 			{0x33u, 0x41u},
1920:.\Generated_Source\PSoC5/cyfitter_cfg.c **** 			{0x35u, 0x80u},
1921:.\Generated_Source\PSoC5/cyfitter_cfg.c **** 			{0x38u, 0x20u},
1922:.\Generated_Source\PSoC5/cyfitter_cfg.c **** 			{0x39u, 0x46u},
1923:.\Generated_Source\PSoC5/cyfitter_cfg.c **** 			{0x3Au, 0x40u},
1924:.\Generated_Source\PSoC5/cyfitter_cfg.c **** 			{0x3Bu, 0x08u},
1925:.\Generated_Source\PSoC5/cyfitter_cfg.c **** 			{0x3Du, 0x40u},
1926:.\Generated_Source\PSoC5/cyfitter_cfg.c **** 			{0x40u, 0x02u},
1927:.\Generated_Source\PSoC5/cyfitter_cfg.c **** 			{0x46u, 0x80u},
1928:.\Generated_Source\PSoC5/cyfitter_cfg.c **** 			{0x48u, 0x08u},
1929:.\Generated_Source\PSoC5/cyfitter_cfg.c **** 			{0x49u, 0x05u},
1930:.\Generated_Source\PSoC5/cyfitter_cfg.c **** 			{0x4Cu, 0x08u},
1931:.\Generated_Source\PSoC5/cyfitter_cfg.c **** 			{0x50u, 0x08u},
1932:.\Generated_Source\PSoC5/cyfitter_cfg.c **** 			{0x59u, 0x05u},
1933:.\Generated_Source\PSoC5/cyfitter_cfg.c **** 			{0x5Au, 0x40u},
1934:.\Generated_Source\PSoC5/cyfitter_cfg.c **** 			{0x5Fu, 0x40u},
1935:.\Generated_Source\PSoC5/cyfitter_cfg.c **** 			{0x64u, 0x02u},
1936:.\Generated_Source\PSoC5/cyfitter_cfg.c **** 			{0x66u, 0x80u},
1937:.\Generated_Source\PSoC5/cyfitter_cfg.c **** 			{0x82u, 0x10u},
1938:.\Generated_Source\PSoC5/cyfitter_cfg.c **** 			{0x86u, 0x20u},
1939:.\Generated_Source\PSoC5/cyfitter_cfg.c **** 			{0x87u, 0x01u},
1940:.\Generated_Source\PSoC5/cyfitter_cfg.c **** 			{0x88u, 0x40u},
1941:.\Generated_Source\PSoC5/cyfitter_cfg.c **** 			{0x90u, 0x20u},
1942:.\Generated_Source\PSoC5/cyfitter_cfg.c **** 			{0x91u, 0x46u},
1943:.\Generated_Source\PSoC5/cyfitter_cfg.c **** 			{0x98u, 0x14u},
1944:.\Generated_Source\PSoC5/cyfitter_cfg.c **** 			{0x99u, 0x10u},
1945:.\Generated_Source\PSoC5/cyfitter_cfg.c **** 			{0x9Au, 0x10u},
1946:.\Generated_Source\PSoC5/cyfitter_cfg.c **** 			{0x9Bu, 0x08u},
1947:.\Generated_Source\PSoC5/cyfitter_cfg.c **** 			{0x9Eu, 0x02u},
1948:.\Generated_Source\PSoC5/cyfitter_cfg.c **** 			{0xA0u, 0x02u},
1949:.\Generated_Source\PSoC5/cyfitter_cfg.c **** 			{0xA3u, 0x28u},
1950:.\Generated_Source\PSoC5/cyfitter_cfg.c **** 			{0xA4u, 0x20u},
1951:.\Generated_Source\PSoC5/cyfitter_cfg.c **** 			{0xA6u, 0x80u},
1952:.\Generated_Source\PSoC5/cyfitter_cfg.c **** 			{0xA9u, 0x10u},
1953:.\Generated_Source\PSoC5/cyfitter_cfg.c **** 			{0xACu, 0x04u},
1954:.\Generated_Source\PSoC5/cyfitter_cfg.c **** 			{0xAFu, 0x20u},
1955:.\Generated_Source\PSoC5/cyfitter_cfg.c **** 			{0xB4u, 0x02u},
1956:.\Generated_Source\PSoC5/cyfitter_cfg.c **** 			{0xC0u, 0x0Eu},
ARM GAS  C:\Users\xavieran\AppData\Local\Temp\ccKklXac.s 			page 46


1957:.\Generated_Source\PSoC5/cyfitter_cfg.c **** 			{0xC2u, 0x0Eu},
1958:.\Generated_Source\PSoC5/cyfitter_cfg.c **** 			{0xC4u, 0x0Eu},
1959:.\Generated_Source\PSoC5/cyfitter_cfg.c **** 			{0xCAu, 0x0Fu},
1960:.\Generated_Source\PSoC5/cyfitter_cfg.c **** 			{0xCCu, 0x1Fu},
1961:.\Generated_Source\PSoC5/cyfitter_cfg.c **** 			{0xCEu, 0x1Fu},
1962:.\Generated_Source\PSoC5/cyfitter_cfg.c **** 			{0xD0u, 0x88u},
1963:.\Generated_Source\PSoC5/cyfitter_cfg.c **** 			{0xD2u, 0x24u},
1964:.\Generated_Source\PSoC5/cyfitter_cfg.c **** 			{0xD6u, 0x1Bu},
1965:.\Generated_Source\PSoC5/cyfitter_cfg.c **** 			{0xD8u, 0x10u},
1966:.\Generated_Source\PSoC5/cyfitter_cfg.c **** 			{0xE0u, 0x41u},
1967:.\Generated_Source\PSoC5/cyfitter_cfg.c **** 			{0xE2u, 0x08u},
1968:.\Generated_Source\PSoC5/cyfitter_cfg.c **** 			{0xE4u, 0x02u},
1969:.\Generated_Source\PSoC5/cyfitter_cfg.c **** 			{0xEAu, 0x08u},
1970:.\Generated_Source\PSoC5/cyfitter_cfg.c **** 			{0xECu, 0x10u},
1971:.\Generated_Source\PSoC5/cyfitter_cfg.c **** 			{0xEEu, 0x0Cu},
1972:.\Generated_Source\PSoC5/cyfitter_cfg.c **** 			{0x00u, 0x05u},
1973:.\Generated_Source\PSoC5/cyfitter_cfg.c **** 			{0x03u, 0x0Fu},
1974:.\Generated_Source\PSoC5/cyfitter_cfg.c **** 			{0x04u, 0x04u},
1975:.\Generated_Source\PSoC5/cyfitter_cfg.c **** 			{0x06u, 0x01u},
1976:.\Generated_Source\PSoC5/cyfitter_cfg.c **** 			{0x07u, 0x0Fu},
1977:.\Generated_Source\PSoC5/cyfitter_cfg.c **** 			{0x08u, 0x05u},
1978:.\Generated_Source\PSoC5/cyfitter_cfg.c **** 			{0x0Cu, 0x01u},
1979:.\Generated_Source\PSoC5/cyfitter_cfg.c **** 			{0x0Du, 0x0Fu},
1980:.\Generated_Source\PSoC5/cyfitter_cfg.c **** 			{0x0Eu, 0x02u},
1981:.\Generated_Source\PSoC5/cyfitter_cfg.c **** 			{0x13u, 0x02u},
1982:.\Generated_Source\PSoC5/cyfitter_cfg.c **** 			{0x15u, 0x0Fu},
1983:.\Generated_Source\PSoC5/cyfitter_cfg.c **** 			{0x18u, 0x01u},
1984:.\Generated_Source\PSoC5/cyfitter_cfg.c **** 			{0x1Au, 0x0Eu},
1985:.\Generated_Source\PSoC5/cyfitter_cfg.c **** 			{0x1Fu, 0x08u},
1986:.\Generated_Source\PSoC5/cyfitter_cfg.c **** 			{0x20u, 0x04u},
1987:.\Generated_Source\PSoC5/cyfitter_cfg.c **** 			{0x22u, 0x01u},
1988:.\Generated_Source\PSoC5/cyfitter_cfg.c **** 			{0x27u, 0x08u},
1989:.\Generated_Source\PSoC5/cyfitter_cfg.c **** 			{0x28u, 0x05u},
1990:.\Generated_Source\PSoC5/cyfitter_cfg.c **** 			{0x2Bu, 0x04u},
1991:.\Generated_Source\PSoC5/cyfitter_cfg.c **** 			{0x2Cu, 0x01u},
1992:.\Generated_Source\PSoC5/cyfitter_cfg.c **** 			{0x2Eu, 0x08u},
1993:.\Generated_Source\PSoC5/cyfitter_cfg.c **** 			{0x2Fu, 0x01u},
1994:.\Generated_Source\PSoC5/cyfitter_cfg.c **** 			{0x34u, 0x0Fu},
1995:.\Generated_Source\PSoC5/cyfitter_cfg.c **** 			{0x35u, 0x0Fu},
1996:.\Generated_Source\PSoC5/cyfitter_cfg.c **** 			{0x3Au, 0x20u},
1997:.\Generated_Source\PSoC5/cyfitter_cfg.c **** 			{0x3Fu, 0x10u},
1998:.\Generated_Source\PSoC5/cyfitter_cfg.c **** 			{0x40u, 0x52u},
1999:.\Generated_Source\PSoC5/cyfitter_cfg.c **** 			{0x49u, 0xFFu},
2000:.\Generated_Source\PSoC5/cyfitter_cfg.c **** 			{0x4Au, 0xFFu},
2001:.\Generated_Source\PSoC5/cyfitter_cfg.c **** 			{0x4Bu, 0xFFu},
2002:.\Generated_Source\PSoC5/cyfitter_cfg.c **** 			{0x4Fu, 0x01u},
2003:.\Generated_Source\PSoC5/cyfitter_cfg.c **** 			{0x50u, 0x18u},
2004:.\Generated_Source\PSoC5/cyfitter_cfg.c **** 			{0x54u, 0x20u},
2005:.\Generated_Source\PSoC5/cyfitter_cfg.c **** 			{0x56u, 0x04u},
2006:.\Generated_Source\PSoC5/cyfitter_cfg.c **** 			{0x58u, 0x04u},
2007:.\Generated_Source\PSoC5/cyfitter_cfg.c **** 			{0x59u, 0x04u},
2008:.\Generated_Source\PSoC5/cyfitter_cfg.c **** 			{0x5Au, 0x04u},
2009:.\Generated_Source\PSoC5/cyfitter_cfg.c **** 			{0x5Bu, 0x04u},
2010:.\Generated_Source\PSoC5/cyfitter_cfg.c **** 			{0x5Cu, 0x02u},
2011:.\Generated_Source\PSoC5/cyfitter_cfg.c **** 			{0x5Du, 0x27u},
2012:.\Generated_Source\PSoC5/cyfitter_cfg.c **** 			{0x5Fu, 0x01u},
2013:.\Generated_Source\PSoC5/cyfitter_cfg.c **** 			{0x60u, 0x40u},
ARM GAS  C:\Users\xavieran\AppData\Local\Temp\ccKklXac.s 			page 47


2014:.\Generated_Source\PSoC5/cyfitter_cfg.c **** 			{0x62u, 0x40u},
2015:.\Generated_Source\PSoC5/cyfitter_cfg.c **** 			{0x64u, 0x40u},
2016:.\Generated_Source\PSoC5/cyfitter_cfg.c **** 			{0x65u, 0x40u},
2017:.\Generated_Source\PSoC5/cyfitter_cfg.c **** 			{0x66u, 0x80u},
2018:.\Generated_Source\PSoC5/cyfitter_cfg.c **** 			{0x68u, 0x80u},
2019:.\Generated_Source\PSoC5/cyfitter_cfg.c **** 			{0x6Au, 0x80u},
2020:.\Generated_Source\PSoC5/cyfitter_cfg.c **** 			{0x6Cu, 0x80u},
2021:.\Generated_Source\PSoC5/cyfitter_cfg.c **** 			{0x6Eu, 0x80u},
2022:.\Generated_Source\PSoC5/cyfitter_cfg.c **** 			{0x8Au, 0x02u},
2023:.\Generated_Source\PSoC5/cyfitter_cfg.c **** 			{0x8Cu, 0x03u},
2024:.\Generated_Source\PSoC5/cyfitter_cfg.c **** 			{0x92u, 0x01u},
2025:.\Generated_Source\PSoC5/cyfitter_cfg.c **** 			{0x93u, 0x01u},
2026:.\Generated_Source\PSoC5/cyfitter_cfg.c **** 			{0x94u, 0x02u},
2027:.\Generated_Source\PSoC5/cyfitter_cfg.c **** 			{0xA1u, 0x01u},
2028:.\Generated_Source\PSoC5/cyfitter_cfg.c **** 			{0xA2u, 0x02u},
2029:.\Generated_Source\PSoC5/cyfitter_cfg.c **** 			{0xA4u, 0x02u},
2030:.\Generated_Source\PSoC5/cyfitter_cfg.c **** 			{0xACu, 0x03u},
2031:.\Generated_Source\PSoC5/cyfitter_cfg.c **** 			{0xADu, 0x01u},
2032:.\Generated_Source\PSoC5/cyfitter_cfg.c **** 			{0xB0u, 0x03u},
2033:.\Generated_Source\PSoC5/cyfitter_cfg.c **** 			{0xB1u, 0x01u},
2034:.\Generated_Source\PSoC5/cyfitter_cfg.c **** 			{0xC0u, 0x52u},
2035:.\Generated_Source\PSoC5/cyfitter_cfg.c **** 			{0xC9u, 0xFFu},
2036:.\Generated_Source\PSoC5/cyfitter_cfg.c **** 			{0xCAu, 0xFFu},
2037:.\Generated_Source\PSoC5/cyfitter_cfg.c **** 			{0xCBu, 0xFFu},
2038:.\Generated_Source\PSoC5/cyfitter_cfg.c **** 			{0xCDu, 0x83u},
2039:.\Generated_Source\PSoC5/cyfitter_cfg.c **** 			{0xCEu, 0x03u},
2040:.\Generated_Source\PSoC5/cyfitter_cfg.c **** 			{0xCFu, 0x01u},
2041:.\Generated_Source\PSoC5/cyfitter_cfg.c **** 			{0xD0u, 0x18u},
2042:.\Generated_Source\PSoC5/cyfitter_cfg.c **** 			{0xD6u, 0x08u},
2043:.\Generated_Source\PSoC5/cyfitter_cfg.c **** 			{0xD8u, 0x04u},
2044:.\Generated_Source\PSoC5/cyfitter_cfg.c **** 			{0xD9u, 0x04u},
2045:.\Generated_Source\PSoC5/cyfitter_cfg.c **** 			{0xDAu, 0x04u},
2046:.\Generated_Source\PSoC5/cyfitter_cfg.c **** 			{0xDBu, 0x04u},
2047:.\Generated_Source\PSoC5/cyfitter_cfg.c **** 			{0xDCu, 0x22u},
2048:.\Generated_Source\PSoC5/cyfitter_cfg.c **** 			{0xDDu, 0x97u},
2049:.\Generated_Source\PSoC5/cyfitter_cfg.c **** 			{0xDFu, 0x01u},
2050:.\Generated_Source\PSoC5/cyfitter_cfg.c **** 			{0xE0u, 0x40u},
2051:.\Generated_Source\PSoC5/cyfitter_cfg.c **** 			{0xE2u, 0x40u},
2052:.\Generated_Source\PSoC5/cyfitter_cfg.c **** 			{0xE4u, 0x40u},
2053:.\Generated_Source\PSoC5/cyfitter_cfg.c **** 			{0xE5u, 0x40u},
2054:.\Generated_Source\PSoC5/cyfitter_cfg.c **** 			{0xE6u, 0x80u},
2055:.\Generated_Source\PSoC5/cyfitter_cfg.c **** 			{0xE8u, 0x80u},
2056:.\Generated_Source\PSoC5/cyfitter_cfg.c **** 			{0xEAu, 0x80u},
2057:.\Generated_Source\PSoC5/cyfitter_cfg.c **** 			{0xECu, 0x80u},
2058:.\Generated_Source\PSoC5/cyfitter_cfg.c **** 			{0xEEu, 0x80u},
2059:.\Generated_Source\PSoC5/cyfitter_cfg.c **** 			{0x00u, 0x80u},
2060:.\Generated_Source\PSoC5/cyfitter_cfg.c **** 			{0x01u, 0x20u},
2061:.\Generated_Source\PSoC5/cyfitter_cfg.c **** 			{0x03u, 0x03u},
2062:.\Generated_Source\PSoC5/cyfitter_cfg.c **** 			{0x05u, 0x29u},
2063:.\Generated_Source\PSoC5/cyfitter_cfg.c **** 			{0x07u, 0x01u},
2064:.\Generated_Source\PSoC5/cyfitter_cfg.c **** 			{0x08u, 0x04u},
2065:.\Generated_Source\PSoC5/cyfitter_cfg.c **** 			{0x0Au, 0xA0u},
2066:.\Generated_Source\PSoC5/cyfitter_cfg.c **** 			{0x0Eu, 0x08u},
2067:.\Generated_Source\PSoC5/cyfitter_cfg.c **** 			{0x10u, 0x40u},
2068:.\Generated_Source\PSoC5/cyfitter_cfg.c **** 			{0x12u, 0x21u},
2069:.\Generated_Source\PSoC5/cyfitter_cfg.c **** 			{0x14u, 0x44u},
2070:.\Generated_Source\PSoC5/cyfitter_cfg.c **** 			{0x16u, 0x01u},
ARM GAS  C:\Users\xavieran\AppData\Local\Temp\ccKklXac.s 			page 48


2071:.\Generated_Source\PSoC5/cyfitter_cfg.c **** 			{0x18u, 0x40u},
2072:.\Generated_Source\PSoC5/cyfitter_cfg.c **** 			{0x1Au, 0x80u},
2073:.\Generated_Source\PSoC5/cyfitter_cfg.c **** 			{0x1Eu, 0x08u},
2074:.\Generated_Source\PSoC5/cyfitter_cfg.c **** 			{0x22u, 0x02u},
2075:.\Generated_Source\PSoC5/cyfitter_cfg.c **** 			{0x26u, 0x10u},
2076:.\Generated_Source\PSoC5/cyfitter_cfg.c **** 			{0x2Au, 0x01u},
2077:.\Generated_Source\PSoC5/cyfitter_cfg.c **** 			{0x2Bu, 0x02u},
2078:.\Generated_Source\PSoC5/cyfitter_cfg.c **** 			{0x2Du, 0x68u},
2079:.\Generated_Source\PSoC5/cyfitter_cfg.c **** 			{0x32u, 0x02u},
2080:.\Generated_Source\PSoC5/cyfitter_cfg.c **** 			{0x34u, 0x40u},
2081:.\Generated_Source\PSoC5/cyfitter_cfg.c **** 			{0x35u, 0x01u},
2082:.\Generated_Source\PSoC5/cyfitter_cfg.c **** 			{0x36u, 0x09u},
2083:.\Generated_Source\PSoC5/cyfitter_cfg.c **** 			{0x37u, 0x08u},
2084:.\Generated_Source\PSoC5/cyfitter_cfg.c **** 			{0x3Cu, 0x0Au},
2085:.\Generated_Source\PSoC5/cyfitter_cfg.c **** 			{0x3Eu, 0x40u},
2086:.\Generated_Source\PSoC5/cyfitter_cfg.c **** 			{0x40u, 0x08u},
2087:.\Generated_Source\PSoC5/cyfitter_cfg.c **** 			{0x44u, 0x08u},
2088:.\Generated_Source\PSoC5/cyfitter_cfg.c **** 			{0x46u, 0x04u},
2089:.\Generated_Source\PSoC5/cyfitter_cfg.c **** 			{0x49u, 0x80u},
2090:.\Generated_Source\PSoC5/cyfitter_cfg.c **** 			{0x4Cu, 0x01u},
2091:.\Generated_Source\PSoC5/cyfitter_cfg.c **** 			{0x4Du, 0x80u},
2092:.\Generated_Source\PSoC5/cyfitter_cfg.c **** 			{0x58u, 0xA0u},
2093:.\Generated_Source\PSoC5/cyfitter_cfg.c **** 			{0x5Cu, 0x40u},
2094:.\Generated_Source\PSoC5/cyfitter_cfg.c **** 			{0x5Du, 0x02u},
2095:.\Generated_Source\PSoC5/cyfitter_cfg.c **** 			{0x5Eu, 0x04u},
2096:.\Generated_Source\PSoC5/cyfitter_cfg.c **** 			{0x5Fu, 0x10u},
2097:.\Generated_Source\PSoC5/cyfitter_cfg.c **** 			{0x61u, 0xA0u},
2098:.\Generated_Source\PSoC5/cyfitter_cfg.c **** 			{0x66u, 0x80u},
2099:.\Generated_Source\PSoC5/cyfitter_cfg.c **** 			{0x67u, 0x84u},
2100:.\Generated_Source\PSoC5/cyfitter_cfg.c **** 			{0x82u, 0x80u},
2101:.\Generated_Source\PSoC5/cyfitter_cfg.c **** 			{0x84u, 0x05u},
2102:.\Generated_Source\PSoC5/cyfitter_cfg.c **** 			{0x87u, 0x40u},
2103:.\Generated_Source\PSoC5/cyfitter_cfg.c **** 			{0x8Bu, 0x04u},
2104:.\Generated_Source\PSoC5/cyfitter_cfg.c **** 			{0x91u, 0x01u},
2105:.\Generated_Source\PSoC5/cyfitter_cfg.c **** 			{0x92u, 0x04u},
2106:.\Generated_Source\PSoC5/cyfitter_cfg.c **** 			{0x95u, 0x40u},
2107:.\Generated_Source\PSoC5/cyfitter_cfg.c **** 			{0x99u, 0x28u},
2108:.\Generated_Source\PSoC5/cyfitter_cfg.c **** 			{0x9Au, 0x09u},
2109:.\Generated_Source\PSoC5/cyfitter_cfg.c **** 			{0x9Cu, 0x40u},
2110:.\Generated_Source\PSoC5/cyfitter_cfg.c **** 			{0x9Eu, 0x02u},
2111:.\Generated_Source\PSoC5/cyfitter_cfg.c **** 			{0xA0u, 0x40u},
2112:.\Generated_Source\PSoC5/cyfitter_cfg.c **** 			{0xA2u, 0x29u},
2113:.\Generated_Source\PSoC5/cyfitter_cfg.c **** 			{0xA5u, 0x20u},
2114:.\Generated_Source\PSoC5/cyfitter_cfg.c **** 			{0xA6u, 0x92u},
2115:.\Generated_Source\PSoC5/cyfitter_cfg.c **** 			{0xA9u, 0x08u},
2116:.\Generated_Source\PSoC5/cyfitter_cfg.c **** 			{0xADu, 0x40u},
2117:.\Generated_Source\PSoC5/cyfitter_cfg.c **** 			{0xAFu, 0x40u},
2118:.\Generated_Source\PSoC5/cyfitter_cfg.c **** 			{0xB6u, 0x69u},
2119:.\Generated_Source\PSoC5/cyfitter_cfg.c **** 			{0xC0u, 0xF3u},
2120:.\Generated_Source\PSoC5/cyfitter_cfg.c **** 			{0xC2u, 0x4Cu},
2121:.\Generated_Source\PSoC5/cyfitter_cfg.c **** 			{0xC4u, 0xDDu},
2122:.\Generated_Source\PSoC5/cyfitter_cfg.c **** 			{0xCAu, 0x79u},
2123:.\Generated_Source\PSoC5/cyfitter_cfg.c **** 			{0xCCu, 0xD1u},
2124:.\Generated_Source\PSoC5/cyfitter_cfg.c **** 			{0xCEu, 0xD0u},
2125:.\Generated_Source\PSoC5/cyfitter_cfg.c **** 			{0xD0u, 0x24u},
2126:.\Generated_Source\PSoC5/cyfitter_cfg.c **** 			{0xD2u, 0x18u},
2127:.\Generated_Source\PSoC5/cyfitter_cfg.c **** 			{0xD6u, 0xFCu},
ARM GAS  C:\Users\xavieran\AppData\Local\Temp\ccKklXac.s 			page 49


2128:.\Generated_Source\PSoC5/cyfitter_cfg.c **** 			{0xD8u, 0xBCu},
2129:.\Generated_Source\PSoC5/cyfitter_cfg.c **** 			{0xE0u, 0x40u},
2130:.\Generated_Source\PSoC5/cyfitter_cfg.c **** 			{0xE4u, 0x28u},
2131:.\Generated_Source\PSoC5/cyfitter_cfg.c **** 			{0xECu, 0x10u},
2132:.\Generated_Source\PSoC5/cyfitter_cfg.c **** 			{0xEEu, 0x40u},
2133:.\Generated_Source\PSoC5/cyfitter_cfg.c **** 			{0x12u, 0x01u},
2134:.\Generated_Source\PSoC5/cyfitter_cfg.c **** 			{0x2Au, 0x01u},
2135:.\Generated_Source\PSoC5/cyfitter_cfg.c **** 			{0x30u, 0x01u},
2136:.\Generated_Source\PSoC5/cyfitter_cfg.c **** 			{0x3Eu, 0x01u},
2137:.\Generated_Source\PSoC5/cyfitter_cfg.c **** 			{0x40u, 0x43u},
2138:.\Generated_Source\PSoC5/cyfitter_cfg.c **** 			{0x45u, 0xECu},
2139:.\Generated_Source\PSoC5/cyfitter_cfg.c **** 			{0x47u, 0x02u},
2140:.\Generated_Source\PSoC5/cyfitter_cfg.c **** 			{0x48u, 0x13u},
2141:.\Generated_Source\PSoC5/cyfitter_cfg.c **** 			{0x49u, 0xFFu},
2142:.\Generated_Source\PSoC5/cyfitter_cfg.c **** 			{0x4Au, 0xFFu},
2143:.\Generated_Source\PSoC5/cyfitter_cfg.c **** 			{0x4Bu, 0xFFu},
2144:.\Generated_Source\PSoC5/cyfitter_cfg.c **** 			{0x4Du, 0x83u},
2145:.\Generated_Source\PSoC5/cyfitter_cfg.c **** 			{0x4Eu, 0x03u},
2146:.\Generated_Source\PSoC5/cyfitter_cfg.c **** 			{0x4Fu, 0x01u},
2147:.\Generated_Source\PSoC5/cyfitter_cfg.c **** 			{0x50u, 0x18u},
2148:.\Generated_Source\PSoC5/cyfitter_cfg.c **** 			{0x52u, 0x80u},
2149:.\Generated_Source\PSoC5/cyfitter_cfg.c **** 			{0x54u, 0x01u},
2150:.\Generated_Source\PSoC5/cyfitter_cfg.c **** 			{0x58u, 0x04u},
2151:.\Generated_Source\PSoC5/cyfitter_cfg.c **** 			{0x5Au, 0x04u},
2152:.\Generated_Source\PSoC5/cyfitter_cfg.c **** 			{0x5Bu, 0x04u},
2153:.\Generated_Source\PSoC5/cyfitter_cfg.c **** 			{0x5Du, 0x77u},
2154:.\Generated_Source\PSoC5/cyfitter_cfg.c **** 			{0x5Fu, 0x01u},
2155:.\Generated_Source\PSoC5/cyfitter_cfg.c **** 			{0x60u, 0x40u},
2156:.\Generated_Source\PSoC5/cyfitter_cfg.c **** 			{0x62u, 0x40u},
2157:.\Generated_Source\PSoC5/cyfitter_cfg.c **** 			{0x64u, 0x40u},
2158:.\Generated_Source\PSoC5/cyfitter_cfg.c **** 			{0x65u, 0x40u},
2159:.\Generated_Source\PSoC5/cyfitter_cfg.c **** 			{0x66u, 0x80u},
2160:.\Generated_Source\PSoC5/cyfitter_cfg.c **** 			{0x68u, 0x80u},
2161:.\Generated_Source\PSoC5/cyfitter_cfg.c **** 			{0x6Au, 0x80u},
2162:.\Generated_Source\PSoC5/cyfitter_cfg.c **** 			{0x6Cu, 0x80u},
2163:.\Generated_Source\PSoC5/cyfitter_cfg.c **** 			{0x6Eu, 0x80u},
2164:.\Generated_Source\PSoC5/cyfitter_cfg.c **** 			{0x80u, 0x20u},
2165:.\Generated_Source\PSoC5/cyfitter_cfg.c **** 			{0x82u, 0x04u},
2166:.\Generated_Source\PSoC5/cyfitter_cfg.c **** 			{0x86u, 0x10u},
2167:.\Generated_Source\PSoC5/cyfitter_cfg.c **** 			{0x87u, 0x02u},
2168:.\Generated_Source\PSoC5/cyfitter_cfg.c **** 			{0x89u, 0x02u},
2169:.\Generated_Source\PSoC5/cyfitter_cfg.c **** 			{0x8Au, 0x28u},
2170:.\Generated_Source\PSoC5/cyfitter_cfg.c **** 			{0x8Cu, 0x7Eu},
2171:.\Generated_Source\PSoC5/cyfitter_cfg.c **** 			{0x8Du, 0x02u},
2172:.\Generated_Source\PSoC5/cyfitter_cfg.c **** 			{0x91u, 0x01u},
2173:.\Generated_Source\PSoC5/cyfitter_cfg.c **** 			{0x95u, 0x02u},
2174:.\Generated_Source\PSoC5/cyfitter_cfg.c **** 			{0x96u, 0x40u},
2175:.\Generated_Source\PSoC5/cyfitter_cfg.c **** 			{0x98u, 0x1Eu},
2176:.\Generated_Source\PSoC5/cyfitter_cfg.c **** 			{0x99u, 0x01u},
2177:.\Generated_Source\PSoC5/cyfitter_cfg.c **** 			{0x9Du, 0x04u},
2178:.\Generated_Source\PSoC5/cyfitter_cfg.c **** 			{0x9Eu, 0x01u},
2179:.\Generated_Source\PSoC5/cyfitter_cfg.c **** 			{0xA1u, 0x08u},
2180:.\Generated_Source\PSoC5/cyfitter_cfg.c **** 			{0xA2u, 0x30u},
2181:.\Generated_Source\PSoC5/cyfitter_cfg.c **** 			{0xA3u, 0x10u},
2182:.\Generated_Source\PSoC5/cyfitter_cfg.c **** 			{0xA4u, 0x08u},
2183:.\Generated_Source\PSoC5/cyfitter_cfg.c **** 			{0xA5u, 0x02u},
2184:.\Generated_Source\PSoC5/cyfitter_cfg.c **** 			{0xA6u, 0x10u},
ARM GAS  C:\Users\xavieran\AppData\Local\Temp\ccKklXac.s 			page 50


2185:.\Generated_Source\PSoC5/cyfitter_cfg.c **** 			{0xA9u, 0x02u},
2186:.\Generated_Source\PSoC5/cyfitter_cfg.c **** 			{0xACu, 0x20u},
2187:.\Generated_Source\PSoC5/cyfitter_cfg.c **** 			{0xADu, 0x08u},
2188:.\Generated_Source\PSoC5/cyfitter_cfg.c **** 			{0xAEu, 0x02u},
2189:.\Generated_Source\PSoC5/cyfitter_cfg.c **** 			{0xAFu, 0x10u},
2190:.\Generated_Source\PSoC5/cyfitter_cfg.c **** 			{0xB0u, 0x01u},
2191:.\Generated_Source\PSoC5/cyfitter_cfg.c **** 			{0xB3u, 0x01u},
2192:.\Generated_Source\PSoC5/cyfitter_cfg.c **** 			{0xB5u, 0x06u},
2193:.\Generated_Source\PSoC5/cyfitter_cfg.c **** 			{0xB6u, 0x7Eu},
2194:.\Generated_Source\PSoC5/cyfitter_cfg.c **** 			{0xB7u, 0x18u},
2195:.\Generated_Source\PSoC5/cyfitter_cfg.c **** 			{0xB8u, 0x80u},
2196:.\Generated_Source\PSoC5/cyfitter_cfg.c **** 			{0xB9u, 0x28u},
2197:.\Generated_Source\PSoC5/cyfitter_cfg.c **** 			{0xBFu, 0x14u},
2198:.\Generated_Source\PSoC5/cyfitter_cfg.c **** 			{0xC0u, 0x23u},
2199:.\Generated_Source\PSoC5/cyfitter_cfg.c **** 			{0xC5u, 0x25u},
2200:.\Generated_Source\PSoC5/cyfitter_cfg.c **** 			{0xC8u, 0x03u},
2201:.\Generated_Source\PSoC5/cyfitter_cfg.c **** 			{0xC9u, 0xFFu},
2202:.\Generated_Source\PSoC5/cyfitter_cfg.c **** 			{0xCAu, 0xFFu},
2203:.\Generated_Source\PSoC5/cyfitter_cfg.c **** 			{0xCBu, 0xFFu},
2204:.\Generated_Source\PSoC5/cyfitter_cfg.c **** 			{0xCCu, 0x42u},
2205:.\Generated_Source\PSoC5/cyfitter_cfg.c **** 			{0xCDu, 0xA0u},
2206:.\Generated_Source\PSoC5/cyfitter_cfg.c **** 			{0xCEu, 0x70u},
2207:.\Generated_Source\PSoC5/cyfitter_cfg.c **** 			{0xD0u, 0x08u},
2208:.\Generated_Source\PSoC5/cyfitter_cfg.c **** 			{0xD1u, 0x10u},
2209:.\Generated_Source\PSoC5/cyfitter_cfg.c **** 			{0xD8u, 0x04u},
2210:.\Generated_Source\PSoC5/cyfitter_cfg.c **** 			{0xD9u, 0x04u},
2211:.\Generated_Source\PSoC5/cyfitter_cfg.c **** 			{0xDAu, 0x04u},
2212:.\Generated_Source\PSoC5/cyfitter_cfg.c **** 			{0xDCu, 0x22u},
2213:.\Generated_Source\PSoC5/cyfitter_cfg.c **** 			{0xDDu, 0x02u},
2214:.\Generated_Source\PSoC5/cyfitter_cfg.c **** 			{0xDFu, 0x01u},
2215:.\Generated_Source\PSoC5/cyfitter_cfg.c **** 			{0xE1u, 0x48u},
2216:.\Generated_Source\PSoC5/cyfitter_cfg.c **** 			{0xE2u, 0x40u},
2217:.\Generated_Source\PSoC5/cyfitter_cfg.c **** 			{0xE3u, 0x48u},
2218:.\Generated_Source\PSoC5/cyfitter_cfg.c **** 			{0xE4u, 0x80u},
2219:.\Generated_Source\PSoC5/cyfitter_cfg.c **** 			{0xE5u, 0x48u},
2220:.\Generated_Source\PSoC5/cyfitter_cfg.c **** 			{0xE6u, 0x80u},
2221:.\Generated_Source\PSoC5/cyfitter_cfg.c **** 			{0xE7u, 0x48u},
2222:.\Generated_Source\PSoC5/cyfitter_cfg.c **** 			{0x05u, 0x28u},
2223:.\Generated_Source\PSoC5/cyfitter_cfg.c **** 			{0x06u, 0x01u},
2224:.\Generated_Source\PSoC5/cyfitter_cfg.c **** 			{0x07u, 0x40u},
2225:.\Generated_Source\PSoC5/cyfitter_cfg.c **** 			{0x09u, 0x82u},
2226:.\Generated_Source\PSoC5/cyfitter_cfg.c **** 			{0x0Bu, 0x02u},
2227:.\Generated_Source\PSoC5/cyfitter_cfg.c **** 			{0x0Du, 0x80u},
2228:.\Generated_Source\PSoC5/cyfitter_cfg.c **** 			{0x0Eu, 0x20u},
2229:.\Generated_Source\PSoC5/cyfitter_cfg.c **** 			{0x0Fu, 0x08u},
2230:.\Generated_Source\PSoC5/cyfitter_cfg.c **** 			{0x12u, 0x04u},
2231:.\Generated_Source\PSoC5/cyfitter_cfg.c **** 			{0x14u, 0x40u},
2232:.\Generated_Source\PSoC5/cyfitter_cfg.c **** 			{0x15u, 0x40u},
2233:.\Generated_Source\PSoC5/cyfitter_cfg.c **** 			{0x17u, 0x08u},
2234:.\Generated_Source\PSoC5/cyfitter_cfg.c **** 			{0x1Au, 0x80u},
2235:.\Generated_Source\PSoC5/cyfitter_cfg.c **** 			{0x1Cu, 0x02u},
2236:.\Generated_Source\PSoC5/cyfitter_cfg.c **** 			{0x1Eu, 0x40u},
2237:.\Generated_Source\PSoC5/cyfitter_cfg.c **** 			{0x1Fu, 0x40u},
2238:.\Generated_Source\PSoC5/cyfitter_cfg.c **** 			{0x26u, 0x40u},
2239:.\Generated_Source\PSoC5/cyfitter_cfg.c **** 			{0x27u, 0x24u},
2240:.\Generated_Source\PSoC5/cyfitter_cfg.c **** 			{0x2Du, 0x28u},
2241:.\Generated_Source\PSoC5/cyfitter_cfg.c **** 			{0x2Fu, 0x41u},
ARM GAS  C:\Users\xavieran\AppData\Local\Temp\ccKklXac.s 			page 51


2242:.\Generated_Source\PSoC5/cyfitter_cfg.c **** 			{0x34u, 0x08u},
2243:.\Generated_Source\PSoC5/cyfitter_cfg.c **** 			{0x35u, 0x02u},
2244:.\Generated_Source\PSoC5/cyfitter_cfg.c **** 			{0x36u, 0x50u},
2245:.\Generated_Source\PSoC5/cyfitter_cfg.c **** 			{0x3Cu, 0x10u},
2246:.\Generated_Source\PSoC5/cyfitter_cfg.c **** 			{0x3Du, 0x40u},
2247:.\Generated_Source\PSoC5/cyfitter_cfg.c **** 			{0x3Eu, 0x08u},
2248:.\Generated_Source\PSoC5/cyfitter_cfg.c **** 			{0x41u, 0x02u},
2249:.\Generated_Source\PSoC5/cyfitter_cfg.c **** 			{0x43u, 0x08u},
2250:.\Generated_Source\PSoC5/cyfitter_cfg.c **** 			{0x47u, 0x24u},
2251:.\Generated_Source\PSoC5/cyfitter_cfg.c **** 			{0x49u, 0x05u},
2252:.\Generated_Source\PSoC5/cyfitter_cfg.c **** 			{0x4Du, 0x02u},
2253:.\Generated_Source\PSoC5/cyfitter_cfg.c **** 			{0x4Eu, 0x80u},
2254:.\Generated_Source\PSoC5/cyfitter_cfg.c **** 			{0x4Fu, 0x08u},
2255:.\Generated_Source\PSoC5/cyfitter_cfg.c **** 			{0x52u, 0x04u},
2256:.\Generated_Source\PSoC5/cyfitter_cfg.c **** 			{0x53u, 0x08u},
2257:.\Generated_Source\PSoC5/cyfitter_cfg.c **** 			{0x59u, 0x05u},
2258:.\Generated_Source\PSoC5/cyfitter_cfg.c **** 			{0x5Au, 0x80u},
2259:.\Generated_Source\PSoC5/cyfitter_cfg.c **** 			{0x70u, 0x01u},
2260:.\Generated_Source\PSoC5/cyfitter_cfg.c **** 			{0x71u, 0x02u},
2261:.\Generated_Source\PSoC5/cyfitter_cfg.c **** 			{0x80u, 0x10u},
2262:.\Generated_Source\PSoC5/cyfitter_cfg.c **** 			{0x82u, 0x41u},
2263:.\Generated_Source\PSoC5/cyfitter_cfg.c **** 			{0x83u, 0x40u},
2264:.\Generated_Source\PSoC5/cyfitter_cfg.c **** 			{0x84u, 0x48u},
2265:.\Generated_Source\PSoC5/cyfitter_cfg.c **** 			{0x91u, 0x40u},
2266:.\Generated_Source\PSoC5/cyfitter_cfg.c **** 			{0x94u, 0x02u},
2267:.\Generated_Source\PSoC5/cyfitter_cfg.c **** 			{0x96u, 0x40u},
2268:.\Generated_Source\PSoC5/cyfitter_cfg.c **** 			{0x99u, 0x28u},
2269:.\Generated_Source\PSoC5/cyfitter_cfg.c **** 			{0x9Au, 0x09u},
2270:.\Generated_Source\PSoC5/cyfitter_cfg.c **** 			{0x9Bu, 0x08u},
2271:.\Generated_Source\PSoC5/cyfitter_cfg.c **** 			{0x9Cu, 0x40u},
2272:.\Generated_Source\PSoC5/cyfitter_cfg.c **** 			{0x9Eu, 0x04u},
2273:.\Generated_Source\PSoC5/cyfitter_cfg.c **** 			{0xA1u, 0x80u},
2274:.\Generated_Source\PSoC5/cyfitter_cfg.c **** 			{0xA2u, 0x11u},
2275:.\Generated_Source\PSoC5/cyfitter_cfg.c **** 			{0xA4u, 0x01u},
2276:.\Generated_Source\PSoC5/cyfitter_cfg.c **** 			{0xA6u, 0x80u},
2277:.\Generated_Source\PSoC5/cyfitter_cfg.c **** 			{0xA9u, 0x02u},
2278:.\Generated_Source\PSoC5/cyfitter_cfg.c **** 			{0xAAu, 0x04u},
2279:.\Generated_Source\PSoC5/cyfitter_cfg.c **** 			{0xADu, 0x01u},
2280:.\Generated_Source\PSoC5/cyfitter_cfg.c **** 			{0xAFu, 0x10u},
2281:.\Generated_Source\PSoC5/cyfitter_cfg.c **** 			{0xB0u, 0xA0u},
2282:.\Generated_Source\PSoC5/cyfitter_cfg.c **** 			{0xB5u, 0x40u},
2283:.\Generated_Source\PSoC5/cyfitter_cfg.c **** 			{0xB6u, 0x12u},
2284:.\Generated_Source\PSoC5/cyfitter_cfg.c **** 			{0xC0u, 0xF0u},
2285:.\Generated_Source\PSoC5/cyfitter_cfg.c **** 			{0xC2u, 0xE8u},
2286:.\Generated_Source\PSoC5/cyfitter_cfg.c **** 			{0xC4u, 0xB2u},
2287:.\Generated_Source\PSoC5/cyfitter_cfg.c **** 			{0xCAu, 0xF0u},
2288:.\Generated_Source\PSoC5/cyfitter_cfg.c **** 			{0xCCu, 0xF0u},
2289:.\Generated_Source\PSoC5/cyfitter_cfg.c **** 			{0xCEu, 0x70u},
2290:.\Generated_Source\PSoC5/cyfitter_cfg.c **** 			{0xD0u, 0x63u},
2291:.\Generated_Source\PSoC5/cyfitter_cfg.c **** 			{0xD6u, 0x0Bu},
2292:.\Generated_Source\PSoC5/cyfitter_cfg.c **** 			{0xE2u, 0x80u},
2293:.\Generated_Source\PSoC5/cyfitter_cfg.c **** 			{0xE4u, 0x04u},
2294:.\Generated_Source\PSoC5/cyfitter_cfg.c **** 			{0xE6u, 0x20u},
2295:.\Generated_Source\PSoC5/cyfitter_cfg.c **** 			{0xE8u, 0x44u},
2296:.\Generated_Source\PSoC5/cyfitter_cfg.c **** 			{0xEAu, 0x01u},
2297:.\Generated_Source\PSoC5/cyfitter_cfg.c **** 			{0x0Au, 0x10u},
2298:.\Generated_Source\PSoC5/cyfitter_cfg.c **** 			{0x0Bu, 0x04u},
ARM GAS  C:\Users\xavieran\AppData\Local\Temp\ccKklXac.s 			page 52


2299:.\Generated_Source\PSoC5/cyfitter_cfg.c **** 			{0x0Eu, 0x42u},
2300:.\Generated_Source\PSoC5/cyfitter_cfg.c **** 			{0x30u, 0x08u},
2301:.\Generated_Source\PSoC5/cyfitter_cfg.c **** 			{0x31u, 0x40u},
2302:.\Generated_Source\PSoC5/cyfitter_cfg.c **** 			{0x34u, 0x02u},
2303:.\Generated_Source\PSoC5/cyfitter_cfg.c **** 			{0x37u, 0x80u},
2304:.\Generated_Source\PSoC5/cyfitter_cfg.c **** 			{0x3Bu, 0x80u},
2305:.\Generated_Source\PSoC5/cyfitter_cfg.c **** 			{0x3Fu, 0x40u},
2306:.\Generated_Source\PSoC5/cyfitter_cfg.c **** 			{0x52u, 0x10u},
2307:.\Generated_Source\PSoC5/cyfitter_cfg.c **** 			{0x58u, 0x40u},
2308:.\Generated_Source\PSoC5/cyfitter_cfg.c **** 			{0x8Bu, 0x44u},
2309:.\Generated_Source\PSoC5/cyfitter_cfg.c **** 			{0x8Eu, 0x10u},
2310:.\Generated_Source\PSoC5/cyfitter_cfg.c **** 			{0xC2u, 0xF0u},
2311:.\Generated_Source\PSoC5/cyfitter_cfg.c **** 			{0xCCu, 0xF0u},
2312:.\Generated_Source\PSoC5/cyfitter_cfg.c **** 			{0xCEu, 0x30u},
2313:.\Generated_Source\PSoC5/cyfitter_cfg.c **** 			{0xD4u, 0xA0u},
2314:.\Generated_Source\PSoC5/cyfitter_cfg.c **** 			{0x00u, 0x02u},
2315:.\Generated_Source\PSoC5/cyfitter_cfg.c **** 			{0x05u, 0x04u},
2316:.\Generated_Source\PSoC5/cyfitter_cfg.c **** 			{0x31u, 0x20u},
2317:.\Generated_Source\PSoC5/cyfitter_cfg.c **** 			{0x32u, 0x04u},
2318:.\Generated_Source\PSoC5/cyfitter_cfg.c **** 			{0x35u, 0x80u},
2319:.\Generated_Source\PSoC5/cyfitter_cfg.c **** 			{0x37u, 0x02u},
2320:.\Generated_Source\PSoC5/cyfitter_cfg.c **** 			{0x3Bu, 0x10u},
2321:.\Generated_Source\PSoC5/cyfitter_cfg.c **** 			{0x59u, 0x08u},
2322:.\Generated_Source\PSoC5/cyfitter_cfg.c **** 			{0x63u, 0x20u},
2323:.\Generated_Source\PSoC5/cyfitter_cfg.c **** 			{0x64u, 0x10u},
2324:.\Generated_Source\PSoC5/cyfitter_cfg.c **** 			{0x67u, 0x02u},
2325:.\Generated_Source\PSoC5/cyfitter_cfg.c **** 			{0x83u, 0x80u},
2326:.\Generated_Source\PSoC5/cyfitter_cfg.c **** 			{0x84u, 0x10u},
2327:.\Generated_Source\PSoC5/cyfitter_cfg.c **** 			{0x93u, 0x10u},
2328:.\Generated_Source\PSoC5/cyfitter_cfg.c **** 			{0x97u, 0x80u},
2329:.\Generated_Source\PSoC5/cyfitter_cfg.c **** 			{0x9Au, 0x80u},
2330:.\Generated_Source\PSoC5/cyfitter_cfg.c **** 			{0x9Du, 0x40u},
2331:.\Generated_Source\PSoC5/cyfitter_cfg.c **** 			{0x9Fu, 0x80u},
2332:.\Generated_Source\PSoC5/cyfitter_cfg.c **** 			{0xA1u, 0x04u},
2333:.\Generated_Source\PSoC5/cyfitter_cfg.c **** 			{0xA3u, 0x10u},
2334:.\Generated_Source\PSoC5/cyfitter_cfg.c **** 			{0xA4u, 0x08u},
2335:.\Generated_Source\PSoC5/cyfitter_cfg.c **** 			{0xAAu, 0x41u},
2336:.\Generated_Source\PSoC5/cyfitter_cfg.c **** 			{0xACu, 0x42u},
2337:.\Generated_Source\PSoC5/cyfitter_cfg.c **** 			{0xAEu, 0x10u},
2338:.\Generated_Source\PSoC5/cyfitter_cfg.c **** 			{0xAFu, 0x10u},
2339:.\Generated_Source\PSoC5/cyfitter_cfg.c **** 			{0xB5u, 0x04u},
2340:.\Generated_Source\PSoC5/cyfitter_cfg.c **** 			{0xB6u, 0x80u},
2341:.\Generated_Source\PSoC5/cyfitter_cfg.c **** 			{0xB7u, 0x10u},
2342:.\Generated_Source\PSoC5/cyfitter_cfg.c **** 			{0xC0u, 0x30u},
2343:.\Generated_Source\PSoC5/cyfitter_cfg.c **** 			{0xCCu, 0xF0u},
2344:.\Generated_Source\PSoC5/cyfitter_cfg.c **** 			{0xCEu, 0x10u},
2345:.\Generated_Source\PSoC5/cyfitter_cfg.c **** 			{0xD6u, 0xC0u},
2346:.\Generated_Source\PSoC5/cyfitter_cfg.c **** 			{0xD8u, 0xC0u},
2347:.\Generated_Source\PSoC5/cyfitter_cfg.c **** 			{0xE2u, 0x80u},
2348:.\Generated_Source\PSoC5/cyfitter_cfg.c **** 			{0xE6u, 0x40u},
2349:.\Generated_Source\PSoC5/cyfitter_cfg.c **** 			{0xE8u, 0x20u},
2350:.\Generated_Source\PSoC5/cyfitter_cfg.c **** 			{0xEAu, 0x50u},
2351:.\Generated_Source\PSoC5/cyfitter_cfg.c **** 			{0xECu, 0x80u},
2352:.\Generated_Source\PSoC5/cyfitter_cfg.c **** 			{0xEEu, 0x50u},
2353:.\Generated_Source\PSoC5/cyfitter_cfg.c **** 			{0x10u, 0x80u},
2354:.\Generated_Source\PSoC5/cyfitter_cfg.c **** 			{0x3Eu, 0x10u},
2355:.\Generated_Source\PSoC5/cyfitter_cfg.c **** 			{0x55u, 0x04u},
ARM GAS  C:\Users\xavieran\AppData\Local\Temp\ccKklXac.s 			page 53


2356:.\Generated_Source\PSoC5/cyfitter_cfg.c **** 			{0x84u, 0x08u},
2357:.\Generated_Source\PSoC5/cyfitter_cfg.c **** 			{0x85u, 0x80u},
2358:.\Generated_Source\PSoC5/cyfitter_cfg.c **** 			{0x96u, 0x08u},
2359:.\Generated_Source\PSoC5/cyfitter_cfg.c **** 			{0x97u, 0x82u},
2360:.\Generated_Source\PSoC5/cyfitter_cfg.c **** 			{0x99u, 0x04u},
2361:.\Generated_Source\PSoC5/cyfitter_cfg.c **** 			{0x9Au, 0x80u},
2362:.\Generated_Source\PSoC5/cyfitter_cfg.c **** 			{0x9Du, 0xC0u},
2363:.\Generated_Source\PSoC5/cyfitter_cfg.c **** 			{0xA0u, 0x01u},
2364:.\Generated_Source\PSoC5/cyfitter_cfg.c **** 			{0xA1u, 0x04u},
2365:.\Generated_Source\PSoC5/cyfitter_cfg.c **** 			{0xA4u, 0x88u},
2366:.\Generated_Source\PSoC5/cyfitter_cfg.c **** 			{0xA5u, 0x20u},
2367:.\Generated_Source\PSoC5/cyfitter_cfg.c **** 			{0xA9u, 0x08u},
2368:.\Generated_Source\PSoC5/cyfitter_cfg.c **** 			{0xAFu, 0x02u},
2369:.\Generated_Source\PSoC5/cyfitter_cfg.c **** 			{0xB4u, 0x80u},
2370:.\Generated_Source\PSoC5/cyfitter_cfg.c **** 			{0xC4u, 0x10u},
2371:.\Generated_Source\PSoC5/cyfitter_cfg.c **** 			{0xCEu, 0x20u},
2372:.\Generated_Source\PSoC5/cyfitter_cfg.c **** 			{0xD4u, 0x40u},
2373:.\Generated_Source\PSoC5/cyfitter_cfg.c **** 			{0xE2u, 0x50u},
2374:.\Generated_Source\PSoC5/cyfitter_cfg.c **** 			{0xEEu, 0x60u},
2375:.\Generated_Source\PSoC5/cyfitter_cfg.c **** 			{0x18u, 0x01u},
2376:.\Generated_Source\PSoC5/cyfitter_cfg.c **** 			{0x1Au, 0x40u},
2377:.\Generated_Source\PSoC5/cyfitter_cfg.c **** 			{0x1Du, 0x10u},
2378:.\Generated_Source\PSoC5/cyfitter_cfg.c **** 			{0x1Fu, 0x01u},
2379:.\Generated_Source\PSoC5/cyfitter_cfg.c **** 			{0x66u, 0x20u},
2380:.\Generated_Source\PSoC5/cyfitter_cfg.c **** 			{0x72u, 0x20u},
2381:.\Generated_Source\PSoC5/cyfitter_cfg.c **** 			{0x76u, 0x20u},
2382:.\Generated_Source\PSoC5/cyfitter_cfg.c **** 			{0x86u, 0x04u},
2383:.\Generated_Source\PSoC5/cyfitter_cfg.c **** 			{0x88u, 0x01u},
2384:.\Generated_Source\PSoC5/cyfitter_cfg.c **** 			{0x96u, 0x18u},
2385:.\Generated_Source\PSoC5/cyfitter_cfg.c **** 			{0x97u, 0x82u},
2386:.\Generated_Source\PSoC5/cyfitter_cfg.c **** 			{0x9Au, 0x80u},
2387:.\Generated_Source\PSoC5/cyfitter_cfg.c **** 			{0x9Du, 0x40u},
2388:.\Generated_Source\PSoC5/cyfitter_cfg.c **** 			{0xA0u, 0x01u},
2389:.\Generated_Source\PSoC5/cyfitter_cfg.c **** 			{0xA9u, 0x04u},
2390:.\Generated_Source\PSoC5/cyfitter_cfg.c **** 			{0xADu, 0x20u},
2391:.\Generated_Source\PSoC5/cyfitter_cfg.c **** 			{0xC6u, 0xF0u},
2392:.\Generated_Source\PSoC5/cyfitter_cfg.c **** 			{0xD8u, 0x80u},
2393:.\Generated_Source\PSoC5/cyfitter_cfg.c **** 			{0xDCu, 0x80u},
2394:.\Generated_Source\PSoC5/cyfitter_cfg.c **** 			{0xDEu, 0x20u},
2395:.\Generated_Source\PSoC5/cyfitter_cfg.c **** 			{0xE6u, 0x10u},
2396:.\Generated_Source\PSoC5/cyfitter_cfg.c **** 			{0xEAu, 0x10u},
2397:.\Generated_Source\PSoC5/cyfitter_cfg.c **** 			{0xECu, 0x80u},
2398:.\Generated_Source\PSoC5/cyfitter_cfg.c **** 			{0x00u, 0x01u},
2399:.\Generated_Source\PSoC5/cyfitter_cfg.c **** 			{0x01u, 0x40u},
2400:.\Generated_Source\PSoC5/cyfitter_cfg.c **** 			{0x04u, 0x48u},
2401:.\Generated_Source\PSoC5/cyfitter_cfg.c **** 			{0x08u, 0x01u},
2402:.\Generated_Source\PSoC5/cyfitter_cfg.c **** 			{0x62u, 0x01u},
2403:.\Generated_Source\PSoC5/cyfitter_cfg.c **** 			{0x8Cu, 0x04u},
2404:.\Generated_Source\PSoC5/cyfitter_cfg.c **** 			{0x8Du, 0x40u},
2405:.\Generated_Source\PSoC5/cyfitter_cfg.c **** 			{0xC0u, 0x0Fu},
2406:.\Generated_Source\PSoC5/cyfitter_cfg.c **** 			{0xC2u, 0x08u},
2407:.\Generated_Source\PSoC5/cyfitter_cfg.c **** 			{0xD8u, 0x02u},
2408:.\Generated_Source\PSoC5/cyfitter_cfg.c **** 			{0xE2u, 0x0Au},
2409:.\Generated_Source\PSoC5/cyfitter_cfg.c **** 			{0x03u, 0x40u},
2410:.\Generated_Source\PSoC5/cyfitter_cfg.c **** 			{0x08u, 0x01u},
2411:.\Generated_Source\PSoC5/cyfitter_cfg.c **** 			{0x09u, 0x04u},
2412:.\Generated_Source\PSoC5/cyfitter_cfg.c **** 			{0x0Fu, 0xA0u},
ARM GAS  C:\Users\xavieran\AppData\Local\Temp\ccKklXac.s 			page 54


2413:.\Generated_Source\PSoC5/cyfitter_cfg.c **** 			{0x5Bu, 0x02u},
2414:.\Generated_Source\PSoC5/cyfitter_cfg.c **** 			{0x62u, 0x10u},
2415:.\Generated_Source\PSoC5/cyfitter_cfg.c **** 			{0x83u, 0x40u},
2416:.\Generated_Source\PSoC5/cyfitter_cfg.c **** 			{0x9Eu, 0x01u},
2417:.\Generated_Source\PSoC5/cyfitter_cfg.c **** 			{0xB0u, 0x01u},
2418:.\Generated_Source\PSoC5/cyfitter_cfg.c **** 			{0xB4u, 0x41u},
2419:.\Generated_Source\PSoC5/cyfitter_cfg.c **** 			{0xC0u, 0x08u},
2420:.\Generated_Source\PSoC5/cyfitter_cfg.c **** 			{0xC2u, 0x0Cu},
2421:.\Generated_Source\PSoC5/cyfitter_cfg.c **** 			{0xD6u, 0x02u},
2422:.\Generated_Source\PSoC5/cyfitter_cfg.c **** 			{0xD8u, 0x02u},
2423:.\Generated_Source\PSoC5/cyfitter_cfg.c **** 			{0xEAu, 0x02u},
2424:.\Generated_Source\PSoC5/cyfitter_cfg.c **** 			{0xEEu, 0x0Cu},
2425:.\Generated_Source\PSoC5/cyfitter_cfg.c **** 			{0x07u, 0x10u},
2426:.\Generated_Source\PSoC5/cyfitter_cfg.c **** 			{0x87u, 0x10u},
2427:.\Generated_Source\PSoC5/cyfitter_cfg.c **** 			{0x8Fu, 0x08u},
2428:.\Generated_Source\PSoC5/cyfitter_cfg.c **** 			{0x98u, 0x01u},
2429:.\Generated_Source\PSoC5/cyfitter_cfg.c **** 			{0x9Eu, 0x11u},
2430:.\Generated_Source\PSoC5/cyfitter_cfg.c **** 			{0x9Fu, 0x12u},
2431:.\Generated_Source\PSoC5/cyfitter_cfg.c **** 			{0xA3u, 0x10u},
2432:.\Generated_Source\PSoC5/cyfitter_cfg.c **** 			{0xABu, 0x50u},
2433:.\Generated_Source\PSoC5/cyfitter_cfg.c **** 			{0xB5u, 0x04u},
2434:.\Generated_Source\PSoC5/cyfitter_cfg.c **** 			{0xC0u, 0x04u},
2435:.\Generated_Source\PSoC5/cyfitter_cfg.c **** 			{0xE4u, 0x02u},
2436:.\Generated_Source\PSoC5/cyfitter_cfg.c **** 			{0xEEu, 0x02u},
2437:.\Generated_Source\PSoC5/cyfitter_cfg.c **** 			{0x0Bu, 0x88u},
2438:.\Generated_Source\PSoC5/cyfitter_cfg.c **** 			{0x0Fu, 0x10u},
2439:.\Generated_Source\PSoC5/cyfitter_cfg.c **** 			{0x87u, 0x04u},
2440:.\Generated_Source\PSoC5/cyfitter_cfg.c **** 			{0x97u, 0x90u},
2441:.\Generated_Source\PSoC5/cyfitter_cfg.c **** 			{0x98u, 0x01u},
2442:.\Generated_Source\PSoC5/cyfitter_cfg.c **** 			{0x9Bu, 0x08u},
2443:.\Generated_Source\PSoC5/cyfitter_cfg.c **** 			{0x9Eu, 0x11u},
2444:.\Generated_Source\PSoC5/cyfitter_cfg.c **** 			{0x9Fu, 0x02u},
2445:.\Generated_Source\PSoC5/cyfitter_cfg.c **** 			{0xA3u, 0x10u},
2446:.\Generated_Source\PSoC5/cyfitter_cfg.c **** 			{0xAFu, 0x40u},
2447:.\Generated_Source\PSoC5/cyfitter_cfg.c **** 			{0xC2u, 0x0Eu},
2448:.\Generated_Source\PSoC5/cyfitter_cfg.c **** 			{0x26u, 0x80u},
2449:.\Generated_Source\PSoC5/cyfitter_cfg.c **** 			{0x56u, 0x80u},
2450:.\Generated_Source\PSoC5/cyfitter_cfg.c **** 			{0x66u, 0x20u},
2451:.\Generated_Source\PSoC5/cyfitter_cfg.c **** 			{0x85u, 0x40u},
2452:.\Generated_Source\PSoC5/cyfitter_cfg.c **** 			{0x87u, 0x40u},
2453:.\Generated_Source\PSoC5/cyfitter_cfg.c **** 			{0x8Eu, 0x80u},
2454:.\Generated_Source\PSoC5/cyfitter_cfg.c **** 			{0x92u, 0x40u},
2455:.\Generated_Source\PSoC5/cyfitter_cfg.c **** 			{0x96u, 0x10u},
2456:.\Generated_Source\PSoC5/cyfitter_cfg.c **** 			{0x97u, 0x80u},
2457:.\Generated_Source\PSoC5/cyfitter_cfg.c **** 			{0x99u, 0x10u},
2458:.\Generated_Source\PSoC5/cyfitter_cfg.c **** 			{0x9Au, 0x80u},
2459:.\Generated_Source\PSoC5/cyfitter_cfg.c **** 			{0x9Du, 0x40u},
2460:.\Generated_Source\PSoC5/cyfitter_cfg.c **** 			{0x9Eu, 0x20u},
2461:.\Generated_Source\PSoC5/cyfitter_cfg.c **** 			{0xB4u, 0x01u},
2462:.\Generated_Source\PSoC5/cyfitter_cfg.c **** 			{0xC8u, 0x20u},
2463:.\Generated_Source\PSoC5/cyfitter_cfg.c **** 			{0xD4u, 0x40u},
2464:.\Generated_Source\PSoC5/cyfitter_cfg.c **** 			{0xD8u, 0x80u},
2465:.\Generated_Source\PSoC5/cyfitter_cfg.c **** 			{0xE2u, 0x10u},
2466:.\Generated_Source\PSoC5/cyfitter_cfg.c **** 			{0xE6u, 0x10u},
2467:.\Generated_Source\PSoC5/cyfitter_cfg.c **** 			{0x02u, 0x02u},
2468:.\Generated_Source\PSoC5/cyfitter_cfg.c **** 			{0x17u, 0x02u},
2469:.\Generated_Source\PSoC5/cyfitter_cfg.c **** 			{0x23u, 0x10u},
ARM GAS  C:\Users\xavieran\AppData\Local\Temp\ccKklXac.s 			page 55


2470:.\Generated_Source\PSoC5/cyfitter_cfg.c **** 			{0x25u, 0x40u},
2471:.\Generated_Source\PSoC5/cyfitter_cfg.c **** 			{0x57u, 0x80u},
2472:.\Generated_Source\PSoC5/cyfitter_cfg.c **** 			{0x73u, 0x10u},
2473:.\Generated_Source\PSoC5/cyfitter_cfg.c **** 			{0x7Du, 0x80u},
2474:.\Generated_Source\PSoC5/cyfitter_cfg.c **** 			{0x81u, 0x10u},
2475:.\Generated_Source\PSoC5/cyfitter_cfg.c **** 			{0x86u, 0x02u},
2476:.\Generated_Source\PSoC5/cyfitter_cfg.c **** 			{0x8Au, 0x20u},
2477:.\Generated_Source\PSoC5/cyfitter_cfg.c **** 			{0x8Bu, 0x02u},
2478:.\Generated_Source\PSoC5/cyfitter_cfg.c **** 			{0x8Fu, 0x80u},
2479:.\Generated_Source\PSoC5/cyfitter_cfg.c **** 			{0x99u, 0x10u},
2480:.\Generated_Source\PSoC5/cyfitter_cfg.c **** 			{0x9Eu, 0x20u},
2481:.\Generated_Source\PSoC5/cyfitter_cfg.c **** 			{0xAAu, 0x50u},
2482:.\Generated_Source\PSoC5/cyfitter_cfg.c **** 			{0xC0u, 0x40u},
2483:.\Generated_Source\PSoC5/cyfitter_cfg.c **** 			{0xC4u, 0x20u},
2484:.\Generated_Source\PSoC5/cyfitter_cfg.c **** 			{0xC8u, 0x60u},
2485:.\Generated_Source\PSoC5/cyfitter_cfg.c **** 			{0xD4u, 0x40u},
2486:.\Generated_Source\PSoC5/cyfitter_cfg.c **** 			{0xDCu, 0x80u},
2487:.\Generated_Source\PSoC5/cyfitter_cfg.c **** 			{0xDEu, 0x20u},
2488:.\Generated_Source\PSoC5/cyfitter_cfg.c **** 			{0xE0u, 0x40u},
2489:.\Generated_Source\PSoC5/cyfitter_cfg.c **** 			{0xE4u, 0x20u},
2490:.\Generated_Source\PSoC5/cyfitter_cfg.c **** 			{0xE8u, 0x20u},
2491:.\Generated_Source\PSoC5/cyfitter_cfg.c **** 			{0xEAu, 0x80u},
2492:.\Generated_Source\PSoC5/cyfitter_cfg.c **** 			{0x08u, 0x40u},
2493:.\Generated_Source\PSoC5/cyfitter_cfg.c **** 			{0x0Cu, 0x10u},
2494:.\Generated_Source\PSoC5/cyfitter_cfg.c **** 			{0x12u, 0x10u},
2495:.\Generated_Source\PSoC5/cyfitter_cfg.c **** 			{0x13u, 0x20u},
2496:.\Generated_Source\PSoC5/cyfitter_cfg.c **** 			{0x17u, 0x02u},
2497:.\Generated_Source\PSoC5/cyfitter_cfg.c **** 			{0x3Cu, 0x10u},
2498:.\Generated_Source\PSoC5/cyfitter_cfg.c **** 			{0x3Fu, 0x20u},
2499:.\Generated_Source\PSoC5/cyfitter_cfg.c **** 			{0x5Fu, 0x08u},
2500:.\Generated_Source\PSoC5/cyfitter_cfg.c **** 			{0x63u, 0x02u},
2501:.\Generated_Source\PSoC5/cyfitter_cfg.c **** 			{0x78u, 0x01u},
2502:.\Generated_Source\PSoC5/cyfitter_cfg.c **** 			{0x79u, 0x40u},
2503:.\Generated_Source\PSoC5/cyfitter_cfg.c **** 			{0x7Cu, 0x10u},
2504:.\Generated_Source\PSoC5/cyfitter_cfg.c **** 			{0x87u, 0x01u},
2505:.\Generated_Source\PSoC5/cyfitter_cfg.c **** 			{0x8Du, 0x40u},
2506:.\Generated_Source\PSoC5/cyfitter_cfg.c **** 			{0x98u, 0x01u},
2507:.\Generated_Source\PSoC5/cyfitter_cfg.c **** 			{0x9Bu, 0x08u},
2508:.\Generated_Source\PSoC5/cyfitter_cfg.c **** 			{0x9Eu, 0x11u},
2509:.\Generated_Source\PSoC5/cyfitter_cfg.c **** 			{0x9Fu, 0x02u},
2510:.\Generated_Source\PSoC5/cyfitter_cfg.c **** 			{0xA0u, 0x08u},
2511:.\Generated_Source\PSoC5/cyfitter_cfg.c **** 			{0xA3u, 0x10u},
2512:.\Generated_Source\PSoC5/cyfitter_cfg.c **** 			{0xB4u, 0x08u},
2513:.\Generated_Source\PSoC5/cyfitter_cfg.c **** 			{0xC2u, 0x03u},
2514:.\Generated_Source\PSoC5/cyfitter_cfg.c **** 			{0xC4u, 0x0Eu},
2515:.\Generated_Source\PSoC5/cyfitter_cfg.c **** 			{0xD6u, 0x03u},
2516:.\Generated_Source\PSoC5/cyfitter_cfg.c **** 			{0xDCu, 0x01u},
2517:.\Generated_Source\PSoC5/cyfitter_cfg.c **** 			{0xDEu, 0x03u},
2518:.\Generated_Source\PSoC5/cyfitter_cfg.c **** 			{0xE0u, 0x02u},
2519:.\Generated_Source\PSoC5/cyfitter_cfg.c **** 			{0xECu, 0x08u},
2520:.\Generated_Source\PSoC5/cyfitter_cfg.c **** 			{0x0Cu, 0x20u},
2521:.\Generated_Source\PSoC5/cyfitter_cfg.c **** 			{0x10u, 0x40u},
2522:.\Generated_Source\PSoC5/cyfitter_cfg.c **** 			{0x57u, 0x80u},
2523:.\Generated_Source\PSoC5/cyfitter_cfg.c **** 			{0x62u, 0x01u},
2524:.\Generated_Source\PSoC5/cyfitter_cfg.c **** 			{0x74u, 0x08u},
2525:.\Generated_Source\PSoC5/cyfitter_cfg.c **** 			{0x83u, 0x80u},
2526:.\Generated_Source\PSoC5/cyfitter_cfg.c **** 			{0x88u, 0x60u},
ARM GAS  C:\Users\xavieran\AppData\Local\Temp\ccKklXac.s 			page 56


2527:.\Generated_Source\PSoC5/cyfitter_cfg.c **** 			{0x9Au, 0x01u},
2528:.\Generated_Source\PSoC5/cyfitter_cfg.c **** 			{0xA0u, 0x08u},
2529:.\Generated_Source\PSoC5/cyfitter_cfg.c **** 			{0xAAu, 0x01u},
2530:.\Generated_Source\PSoC5/cyfitter_cfg.c **** 			{0xABu, 0x20u},
2531:.\Generated_Source\PSoC5/cyfitter_cfg.c **** 			{0xB0u, 0x50u},
2532:.\Generated_Source\PSoC5/cyfitter_cfg.c **** 			{0xC2u, 0x01u},
2533:.\Generated_Source\PSoC5/cyfitter_cfg.c **** 			{0xC4u, 0x08u},
2534:.\Generated_Source\PSoC5/cyfitter_cfg.c **** 			{0xD4u, 0x02u},
2535:.\Generated_Source\PSoC5/cyfitter_cfg.c **** 			{0xD8u, 0x02u},
2536:.\Generated_Source\PSoC5/cyfitter_cfg.c **** 			{0xDEu, 0x04u},
2537:.\Generated_Source\PSoC5/cyfitter_cfg.c **** 			{0xE2u, 0x01u},
2538:.\Generated_Source\PSoC5/cyfitter_cfg.c **** 			{0xE6u, 0x04u},
2539:.\Generated_Source\PSoC5/cyfitter_cfg.c **** 			{0xEAu, 0x05u},
2540:.\Generated_Source\PSoC5/cyfitter_cfg.c **** 			{0x10u, 0x9Cu},
2541:.\Generated_Source\PSoC5/cyfitter_cfg.c **** 			{0x11u, 0x01u},
2542:.\Generated_Source\PSoC5/cyfitter_cfg.c **** 			{0x1Au, 0x1Cu},
2543:.\Generated_Source\PSoC5/cyfitter_cfg.c **** 			{0x1Bu, 0x01u},
2544:.\Generated_Source\PSoC5/cyfitter_cfg.c **** 			{0x1Cu, 0x84u},
2545:.\Generated_Source\PSoC5/cyfitter_cfg.c **** 			{0x1Du, 0x01u},
2546:.\Generated_Source\PSoC5/cyfitter_cfg.c **** 			{0x10u, 0x01u},
2547:.\Generated_Source\PSoC5/cyfitter_cfg.c **** 		};
2548:.\Generated_Source\PSoC5/cyfitter_cfg.c **** 
2549:.\Generated_Source\PSoC5/cyfitter_cfg.c **** 
2550:.\Generated_Source\PSoC5/cyfitter_cfg.c **** 
2551:.\Generated_Source\PSoC5/cyfitter_cfg.c **** 		CYPACKED typedef struct {
2552:.\Generated_Source\PSoC5/cyfitter_cfg.c **** 			void CYFAR *address;
2553:.\Generated_Source\PSoC5/cyfitter_cfg.c **** 			uint16 size;
2554:.\Generated_Source\PSoC5/cyfitter_cfg.c **** 		} CYPACKED_ATTR cfg_memset_t;
2555:.\Generated_Source\PSoC5/cyfitter_cfg.c **** 
2556:.\Generated_Source\PSoC5/cyfitter_cfg.c **** 
2557:.\Generated_Source\PSoC5/cyfitter_cfg.c **** 		CYPACKED typedef struct {
2558:.\Generated_Source\PSoC5/cyfitter_cfg.c **** 			void CYFAR *dest;
2559:.\Generated_Source\PSoC5/cyfitter_cfg.c **** 			const void CYCODE *src;
2560:.\Generated_Source\PSoC5/cyfitter_cfg.c **** 			uint16 size;
2561:.\Generated_Source\PSoC5/cyfitter_cfg.c **** 		} CYPACKED_ATTR cfg_memcpy_t;
2562:.\Generated_Source\PSoC5/cyfitter_cfg.c **** 
2563:.\Generated_Source\PSoC5/cyfitter_cfg.c **** 		static const cfg_memset_t CYCODE cfg_memset_list [] = {
2564:.\Generated_Source\PSoC5/cyfitter_cfg.c **** 			/* address, size */
2565:.\Generated_Source\PSoC5/cyfitter_cfg.c **** 			{(void CYFAR *)(CYREG_I2C_XCFG), 25u},
2566:.\Generated_Source\PSoC5/cyfitter_cfg.c **** 			{(void CYFAR *)(CYREG_TMR0_CFG0), 48u},
2567:.\Generated_Source\PSoC5/cyfitter_cfg.c **** 			{(void CYFAR *)(CYDEV_UCFG_B0_P0_U0_BASE), 4096u},
2568:.\Generated_Source\PSoC5/cyfitter_cfg.c **** 			{(void CYFAR *)(CYDEV_UCFG_B1_P2_U0_BASE), 2048u},
2569:.\Generated_Source\PSoC5/cyfitter_cfg.c **** 			{(void CYFAR *)(CYDEV_UCFG_DSI0_BASE), 2560u},
2570:.\Generated_Source\PSoC5/cyfitter_cfg.c **** 			{(void CYFAR *)(CYDEV_UCFG_DSI12_BASE), 512u},
2571:.\Generated_Source\PSoC5/cyfitter_cfg.c **** 			{(void CYFAR *)(CYREG_BCTL1_MDCLK_EN), 16u},
2572:.\Generated_Source\PSoC5/cyfitter_cfg.c **** 		};
2573:.\Generated_Source\PSoC5/cyfitter_cfg.c **** 
2574:.\Generated_Source\PSoC5/cyfitter_cfg.c **** 		/* IDMUX_IRQ Address: CYREG_IDMUX_IRQ_CTL0 Size (bytes): 8 */
2575:.\Generated_Source\PSoC5/cyfitter_cfg.c **** 		static const uint8 CYCODE BS_IDMUX_IRQ_VAL[] = {
2576:.\Generated_Source\PSoC5/cyfitter_cfg.c **** 			0xFFu, 0xABu, 0x0Fu, 0xC0u, 0x00u, 0x00u, 0x00u, 0x00u};
2577:.\Generated_Source\PSoC5/cyfitter_cfg.c **** 
2578:.\Generated_Source\PSoC5/cyfitter_cfg.c **** 		/* UCFG_BCTL0 Address: CYREG_BCTL0_MDCLK_EN Size (bytes): 16 */
2579:.\Generated_Source\PSoC5/cyfitter_cfg.c **** 		static const uint8 CYCODE BS_UCFG_BCTL0_VAL[] = {
2580:.\Generated_Source\PSoC5/cyfitter_cfg.c **** 			0x3Cu, 0x01u, 0x00u, 0x00u, 0x00u, 0x00u, 0x00u, 0x00u, 0x10u, 0x00u, 0x18u, 0x01u, 0x14u, 0x00u
2581:.\Generated_Source\PSoC5/cyfitter_cfg.c **** 
2582:.\Generated_Source\PSoC5/cyfitter_cfg.c **** 		static const cfg_memcpy_t CYCODE cfg_memcpy_list [] = {
2583:.\Generated_Source\PSoC5/cyfitter_cfg.c **** 			/* dest, src, size */
ARM GAS  C:\Users\xavieran\AppData\Local\Temp\ccKklXac.s 			page 57


2584:.\Generated_Source\PSoC5/cyfitter_cfg.c **** 			{(void CYFAR *)(CYREG_IDMUX_IRQ_CTL0), BS_IDMUX_IRQ_VAL, 8u},
2585:.\Generated_Source\PSoC5/cyfitter_cfg.c **** 			{(void CYFAR *)(CYREG_BCTL0_MDCLK_EN), BS_UCFG_BCTL0_VAL, 16u},
2586:.\Generated_Source\PSoC5/cyfitter_cfg.c **** 		};
2587:.\Generated_Source\PSoC5/cyfitter_cfg.c **** 
2588:.\Generated_Source\PSoC5/cyfitter_cfg.c **** 		uint8 CYDATA i;
2589:.\Generated_Source\PSoC5/cyfitter_cfg.c **** 
2590:.\Generated_Source\PSoC5/cyfitter_cfg.c **** 		/* Zero out critical memory blocks before beginning configuration */
2591:.\Generated_Source\PSoC5/cyfitter_cfg.c **** 		for (i = 0u; i < (sizeof(cfg_memset_list)/sizeof(cfg_memset_list[0])); i++)
 605              		.loc 1 2591 0
 606 0018 0023     		movs	r3, #0
 607 001a FB75     		strb	r3, [r7, #23]
 608 001c 13E0     		b	.L27
 609              	.L28:
 610              	.LBB4:
2592:.\Generated_Source\PSoC5/cyfitter_cfg.c **** 		{
2593:.\Generated_Source\PSoC5/cyfitter_cfg.c **** 			const cfg_memset_t CYCODE * CYDATA ms = &cfg_memset_list[i];
 611              		.loc 1 2593 0 discriminator 2
 612 001e FA7D     		ldrb	r2, [r7, #23]	@ zero_extendqisi2
 613 0020 1346     		mov	r3, r2
 614 0022 5B00     		lsls	r3, r3, #1
 615 0024 1344     		add	r3, r3, r2
 616 0026 5B00     		lsls	r3, r3, #1
 617 0028 574A     		ldr	r2, .L31+4
 618 002a 1344     		add	r3, r3, r2
 619 002c 3B61     		str	r3, [r7, #16]
2594:.\Generated_Source\PSoC5/cyfitter_cfg.c **** 			CYMEMZERO(ms->address, (size_t)(uint32)(ms->size));
 620              		.loc 1 2594 0 discriminator 2
 621 002e 3B69     		ldr	r3, [r7, #16]
 622 0030 1A68     		ldr	r2, [r3]	@ unaligned
 623 0032 3B69     		ldr	r3, [r7, #16]
 624 0034 9B88     		ldrh	r3, [r3, #4]	@ unaligned
 625 0036 9BB2     		uxth	r3, r3
 626 0038 1046     		mov	r0, r2
 627 003a 1946     		mov	r1, r3
 628 003c FFF7FEFF 		bl	CYMEMZERO
 629              	.LBE4:
2591:.\Generated_Source\PSoC5/cyfitter_cfg.c **** 		for (i = 0u; i < (sizeof(cfg_memset_list)/sizeof(cfg_memset_list[0])); i++)
 630              		.loc 1 2591 0 discriminator 2
 631 0040 FB7D     		ldrb	r3, [r7, #23]	@ zero_extendqisi2
 632 0042 0133     		adds	r3, r3, #1
 633 0044 FB75     		strb	r3, [r7, #23]
 634              	.L27:
2591:.\Generated_Source\PSoC5/cyfitter_cfg.c **** 		for (i = 0u; i < (sizeof(cfg_memset_list)/sizeof(cfg_memset_list[0])); i++)
 635              		.loc 1 2591 0 is_stmt 0 discriminator 1
 636 0046 FB7D     		ldrb	r3, [r7, #23]	@ zero_extendqisi2
 637 0048 062B     		cmp	r3, #6
 638 004a E8D9     		bls	.L28
2595:.\Generated_Source\PSoC5/cyfitter_cfg.c **** 		}
2596:.\Generated_Source\PSoC5/cyfitter_cfg.c **** 
2597:.\Generated_Source\PSoC5/cyfitter_cfg.c **** 		/* Copy device configuration data into registers */
2598:.\Generated_Source\PSoC5/cyfitter_cfg.c **** 		for (i = 0u; i < (sizeof(cfg_memcpy_list)/sizeof(cfg_memcpy_list[0])); i++)
 639              		.loc 1 2598 0 is_stmt 1
 640 004c 0023     		movs	r3, #0
 641 004e FB75     		strb	r3, [r7, #23]
 642 0050 1CE0     		b	.L29
 643              	.L30:
 644              	.LBB5:
ARM GAS  C:\Users\xavieran\AppData\Local\Temp\ccKklXac.s 			page 58


2599:.\Generated_Source\PSoC5/cyfitter_cfg.c **** 		{
2600:.\Generated_Source\PSoC5/cyfitter_cfg.c **** 			const cfg_memcpy_t CYCODE * CYDATA mc = &cfg_memcpy_list[i];
 645              		.loc 1 2600 0 discriminator 2
 646 0052 FA7D     		ldrb	r2, [r7, #23]	@ zero_extendqisi2
 647 0054 1346     		mov	r3, r2
 648 0056 9B00     		lsls	r3, r3, #2
 649 0058 1344     		add	r3, r3, r2
 650 005a 5B00     		lsls	r3, r3, #1
 651 005c 4B4A     		ldr	r2, .L31+8
 652 005e 1344     		add	r3, r3, r2
 653 0060 FB60     		str	r3, [r7, #12]
2601:.\Generated_Source\PSoC5/cyfitter_cfg.c **** 			void * CYDATA destPtr = mc->dest;
 654              		.loc 1 2601 0 discriminator 2
 655 0062 FB68     		ldr	r3, [r7, #12]
 656 0064 1B68     		ldr	r3, [r3]	@ unaligned
 657 0066 BB60     		str	r3, [r7, #8]
2602:.\Generated_Source\PSoC5/cyfitter_cfg.c **** 			const void CYCODE * CYDATA srcPtr = mc->src;
 658              		.loc 1 2602 0 discriminator 2
 659 0068 FB68     		ldr	r3, [r7, #12]
 660 006a 5B68     		ldr	r3, [r3, #4]	@ unaligned
 661 006c 7B60     		str	r3, [r7, #4]
2603:.\Generated_Source\PSoC5/cyfitter_cfg.c **** 			uint16 CYDATA numBytes = mc->size;
 662              		.loc 1 2603 0 discriminator 2
 663 006e FB68     		ldr	r3, [r7, #12]
 664 0070 1A7A     		ldrb	r2, [r3, #8]	@ zero_extendqisi2
 665 0072 5B7A     		ldrb	r3, [r3, #9]	@ zero_extendqisi2
 666 0074 1B02     		lsls	r3, r3, #8
 667 0076 1343     		orrs	r3, r3, r2
 668 0078 7B80     		strh	r3, [r7, #2]	@ movhi
2604:.\Generated_Source\PSoC5/cyfitter_cfg.c **** 			CYCONFIGCPYCODE(destPtr, srcPtr, numBytes);
 669              		.loc 1 2604 0 discriminator 2
 670 007a 7B88     		ldrh	r3, [r7, #2]
 671 007c B868     		ldr	r0, [r7, #8]
 672 007e 7968     		ldr	r1, [r7, #4]
 673 0080 1A46     		mov	r2, r3
 674 0082 FFF7FEFF 		bl	CYCONFIGCPYCODE
 675              	.LBE5:
2598:.\Generated_Source\PSoC5/cyfitter_cfg.c **** 		for (i = 0u; i < (sizeof(cfg_memcpy_list)/sizeof(cfg_memcpy_list[0])); i++)
 676              		.loc 1 2598 0 discriminator 2
 677 0086 FB7D     		ldrb	r3, [r7, #23]	@ zero_extendqisi2
 678 0088 0133     		adds	r3, r3, #1
 679 008a FB75     		strb	r3, [r7, #23]
 680              	.L29:
2598:.\Generated_Source\PSoC5/cyfitter_cfg.c **** 		for (i = 0u; i < (sizeof(cfg_memcpy_list)/sizeof(cfg_memcpy_list[0])); i++)
 681              		.loc 1 2598 0 is_stmt 0 discriminator 1
 682 008c FB7D     		ldrb	r3, [r7, #23]	@ zero_extendqisi2
 683 008e 012B     		cmp	r3, #1
 684 0090 DFD9     		bls	.L30
2605:.\Generated_Source\PSoC5/cyfitter_cfg.c **** 		}
2606:.\Generated_Source\PSoC5/cyfitter_cfg.c **** 
2607:.\Generated_Source\PSoC5/cyfitter_cfg.c **** 		cfg_write_bytes32(cy_cfg_addr_table, cy_cfg_data_table);
 685              		.loc 1 2607 0 is_stmt 1
 686 0092 3F48     		ldr	r0, .L31+12
 687 0094 3F49     		ldr	r1, .L31+16
 688 0096 FFF7FEFF 		bl	cfg_write_bytes32
2608:.\Generated_Source\PSoC5/cyfitter_cfg.c **** 
2609:.\Generated_Source\PSoC5/cyfitter_cfg.c **** 		/* Perform normal device configuration. Order is not critical for these items. */
ARM GAS  C:\Users\xavieran\AppData\Local\Temp\ccKklXac.s 			page 59


2610:.\Generated_Source\PSoC5/cyfitter_cfg.c **** 		CYMEMZERO((void CYFAR *)(CYREG_PHUB_CFGMEM0_CFG0), 4u);
 689              		.loc 1 2610 0
 690 009a 3F48     		ldr	r0, .L31+20
 691 009c 0421     		movs	r1, #4
 692 009e FFF7FEFF 		bl	CYMEMZERO
2611:.\Generated_Source\PSoC5/cyfitter_cfg.c **** 
2612:.\Generated_Source\PSoC5/cyfitter_cfg.c **** 		/* Enable digital routing */
2613:.\Generated_Source\PSoC5/cyfitter_cfg.c **** 		CY_SET_XTND_REG8((void CYFAR *)CYREG_BCTL0_BANK_CTL, CY_GET_XTND_REG8((void CYFAR *)CYREG_BCTL0_B
 693              		.loc 1 2613 0
 694 00a2 3E4B     		ldr	r3, .L31+24
 695 00a4 3D4A     		ldr	r2, .L31+24
 696 00a6 1278     		ldrb	r2, [r2]
 697 00a8 D2B2     		uxtb	r2, r2
 698 00aa 42F00202 		orr	r2, r2, #2
 699 00ae D2B2     		uxtb	r2, r2
 700 00b0 1A70     		strb	r2, [r3]
2614:.\Generated_Source\PSoC5/cyfitter_cfg.c **** 		CY_SET_XTND_REG8((void CYFAR *)CYREG_BCTL1_BANK_CTL, CY_GET_XTND_REG8((void CYFAR *)CYREG_BCTL1_B
 701              		.loc 1 2614 0
 702 00b2 3B4B     		ldr	r3, .L31+28
 703 00b4 3A4A     		ldr	r2, .L31+28
 704 00b6 1278     		ldrb	r2, [r2]
 705 00b8 D2B2     		uxtb	r2, r2
 706 00ba 42F00202 		orr	r2, r2, #2
 707 00be D2B2     		uxtb	r2, r2
 708 00c0 1A70     		strb	r2, [r3]
2615:.\Generated_Source\PSoC5/cyfitter_cfg.c **** 
2616:.\Generated_Source\PSoC5/cyfitter_cfg.c **** 		/* Enable UDB array */
2617:.\Generated_Source\PSoC5/cyfitter_cfg.c **** 		CY_SET_XTND_REG8((void CYFAR *)CYREG_PM_ACT_CFG0, CY_GET_XTND_REG8((void CYFAR *)CYREG_PM_ACT_CFG
 709              		.loc 1 2617 0
 710 00c2 384B     		ldr	r3, .L31+32
 711 00c4 374A     		ldr	r2, .L31+32
 712 00c6 1278     		ldrb	r2, [r2]
 713 00c8 D2B2     		uxtb	r2, r2
 714 00ca 42F04002 		orr	r2, r2, #64
 715 00ce D2B2     		uxtb	r2, r2
 716 00d0 1A70     		strb	r2, [r3]
2618:.\Generated_Source\PSoC5/cyfitter_cfg.c **** 		CY_SET_XTND_REG8((void CYFAR *)CYREG_PM_AVAIL_CR2, CY_GET_XTND_REG8((void CYFAR *)CYREG_PM_AVAIL_
 717              		.loc 1 2618 0
 718 00d2 354B     		ldr	r3, .L31+36
 719 00d4 344A     		ldr	r2, .L31+36
 720 00d6 1278     		ldrb	r2, [r2]
 721 00d8 D2B2     		uxtb	r2, r2
 722 00da 42F01002 		orr	r2, r2, #16
 723 00de D2B2     		uxtb	r2, r2
 724 00e0 1A70     		strb	r2, [r3]
 725              	.LBE3:
2619:.\Generated_Source\PSoC5/cyfitter_cfg.c **** 	}
2620:.\Generated_Source\PSoC5/cyfitter_cfg.c **** 
2621:.\Generated_Source\PSoC5/cyfitter_cfg.c **** 
2622:.\Generated_Source\PSoC5/cyfitter_cfg.c **** 	/* Perform second pass device configuration. These items must be configured in specific order afte
2623:.\Generated_Source\PSoC5/cyfitter_cfg.c **** 	CYCONFIGCPYCODE((void CYFAR *)(CYREG_PRT0_DM0), (const void CYCODE *)(BS_IOPINS0_0_VAL), 8u);
 726              		.loc 1 2623 0
 727 00e2 3248     		ldr	r0, .L31+40
 728 00e4 3249     		ldr	r1, .L31+44
 729 00e6 0822     		movs	r2, #8
 730 00e8 FFF7FEFF 		bl	CYCONFIGCPYCODE
2624:.\Generated_Source\PSoC5/cyfitter_cfg.c **** 	CYCONFIGCPYCODE((void CYFAR *)(CYREG_PRT12_DM0), (const void CYCODE *)(BS_IOPINS0_7_VAL), 8u);
ARM GAS  C:\Users\xavieran\AppData\Local\Temp\ccKklXac.s 			page 60


 731              		.loc 1 2624 0
 732 00ec 3148     		ldr	r0, .L31+48
 733 00ee 3249     		ldr	r1, .L31+52
 734 00f0 0822     		movs	r2, #8
 735 00f2 FFF7FEFF 		bl	CYCONFIGCPYCODE
2625:.\Generated_Source\PSoC5/cyfitter_cfg.c **** 	CYCONFIGCPYCODE((void CYFAR *)(CYREG_PRT15_DR), (const void CYCODE *)(BS_IOPINS0_8_VAL), 10u);
 736              		.loc 1 2625 0
 737 00f6 3148     		ldr	r0, .L31+56
 738 00f8 3149     		ldr	r1, .L31+60
 739 00fa 0A22     		movs	r2, #10
 740 00fc FFF7FEFF 		bl	CYCONFIGCPYCODE
2626:.\Generated_Source\PSoC5/cyfitter_cfg.c **** 	CYCONFIGCPYCODE((void CYFAR *)(CYREG_PRT1_DR), (const void CYCODE *)(BS_IOPINS0_1_VAL), 10u);
 741              		.loc 1 2626 0
 742 0100 3048     		ldr	r0, .L31+64
 743 0102 3149     		ldr	r1, .L31+68
 744 0104 0A22     		movs	r2, #10
 745 0106 FFF7FEFF 		bl	CYCONFIGCPYCODE
2627:.\Generated_Source\PSoC5/cyfitter_cfg.c **** 	CYCONFIGCPYCODE((void CYFAR *)(CYREG_PRT2_DR), (const void CYCODE *)(BS_IOPINS0_2_VAL), 10u);
 746              		.loc 1 2627 0
 747 010a 3048     		ldr	r0, .L31+72
 748 010c 3049     		ldr	r1, .L31+76
 749 010e 0A22     		movs	r2, #10
 750 0110 FFF7FEFF 		bl	CYCONFIGCPYCODE
2628:.\Generated_Source\PSoC5/cyfitter_cfg.c **** 	CYCONFIGCPYCODE((void CYFAR *)(CYREG_PRT3_DR), (const void CYCODE *)(BS_IOPINS0_3_VAL), 10u);
 751              		.loc 1 2628 0
 752 0114 2F48     		ldr	r0, .L31+80
 753 0116 3049     		ldr	r1, .L31+84
 754 0118 0A22     		movs	r2, #10
 755 011a FFF7FEFF 		bl	CYCONFIGCPYCODE
2629:.\Generated_Source\PSoC5/cyfitter_cfg.c **** 	CYCONFIGCPYCODE((void CYFAR *)(CYREG_PRT4_DM0), (const void CYCODE *)(BS_IOPINS0_4_VAL), 8u);
 756              		.loc 1 2629 0
 757 011e 2F48     		ldr	r0, .L31+88
 758 0120 2F49     		ldr	r1, .L31+92
 759 0122 0822     		movs	r2, #8
 760 0124 FFF7FEFF 		bl	CYCONFIGCPYCODE
2630:.\Generated_Source\PSoC5/cyfitter_cfg.c **** 	CYCONFIGCPYCODE((void CYFAR *)(CYREG_PRT5_DM0), (const void CYCODE *)(BS_IOPINS0_5_VAL), 8u);
 761              		.loc 1 2630 0
 762 0128 2E48     		ldr	r0, .L31+96
 763 012a 2F49     		ldr	r1, .L31+100
 764 012c 0822     		movs	r2, #8
 765 012e FFF7FEFF 		bl	CYCONFIGCPYCODE
2631:.\Generated_Source\PSoC5/cyfitter_cfg.c **** 	CYCONFIGCPYCODE((void CYFAR *)(CYREG_PRT6_DM0), (const void CYCODE *)(BS_IOPINS0_6_VAL), 8u);
 766              		.loc 1 2631 0
 767 0132 2E48     		ldr	r0, .L31+104
 768 0134 2E49     		ldr	r1, .L31+108
 769 0136 0822     		movs	r2, #8
 770 0138 FFF7FEFF 		bl	CYCONFIGCPYCODE
2632:.\Generated_Source\PSoC5/cyfitter_cfg.c **** 	CY_SET_XTND_REG8((void CYFAR *)(CYREG_B0_P0_U0_CFG24), 0x44u);
 771              		.loc 1 2632 0
 772 013c 2D4B     		ldr	r3, .L31+112
 773 013e 4422     		movs	r2, #68
 774 0140 1A70     		strb	r2, [r3]
2633:.\Generated_Source\PSoC5/cyfitter_cfg.c **** 	CY_SET_XTND_REG8((void CYFAR *)(CYREG_B0_P0_U0_CFG27), 0x84u);
 775              		.loc 1 2633 0
 776 0142 2D4B     		ldr	r3, .L31+116
 777 0144 8422     		movs	r2, #132
 778 0146 1A70     		strb	r2, [r3]
ARM GAS  C:\Users\xavieran\AppData\Local\Temp\ccKklXac.s 			page 61


2634:.\Generated_Source\PSoC5/cyfitter_cfg.c **** 	CY_SET_XTND_REG8((void CYFAR *)(CYREG_B0_P1_U1_CFG24), 0x44u);
 779              		.loc 1 2634 0
 780 0148 2C4B     		ldr	r3, .L31+120
 781 014a 4422     		movs	r2, #68
 782 014c 1A70     		strb	r2, [r3]
2635:.\Generated_Source\PSoC5/cyfitter_cfg.c **** 	CY_SET_XTND_REG8((void CYFAR *)(CYREG_B0_P1_U1_CFG27), 0x84u);
 783              		.loc 1 2635 0
 784 014e 2C4B     		ldr	r3, .L31+124
 785 0150 8422     		movs	r2, #132
 786 0152 1A70     		strb	r2, [r3]
2636:.\Generated_Source\PSoC5/cyfitter_cfg.c **** 	CY_SET_XTND_REG8((void CYFAR *)(CYREG_B0_P5_U1_CFG27), 0x84u);
 787              		.loc 1 2636 0
 788 0154 2B4B     		ldr	r3, .L31+128
 789 0156 8422     		movs	r2, #132
 790 0158 1A70     		strb	r2, [r3]
2637:.\Generated_Source\PSoC5/cyfitter_cfg.c **** 	CY_SET_XTND_REG8((void CYFAR *)(CYREG_B1_P2_U1_CFG27), 0x84u);
 791              		.loc 1 2637 0
 792 015a 2B4B     		ldr	r3, .L31+132
 793 015c 8422     		movs	r2, #132
 794 015e 1A70     		strb	r2, [r3]
2638:.\Generated_Source\PSoC5/cyfitter_cfg.c **** 	/* Switch Boost to the precision bandgap reference from its internal reference */
2639:.\Generated_Source\PSoC5/cyfitter_cfg.c **** 	CY_SET_REG8((void CYXDATA *)CYREG_BOOST_CR2, (CY_GET_REG8((void CYXDATA *)CYREG_BOOST_CR2) | 0x08u
 795              		.loc 1 2639 0
 796 0160 2A4B     		ldr	r3, .L31+136
 797 0162 2A4A     		ldr	r2, .L31+136
 798 0164 1278     		ldrb	r2, [r2]
 799 0166 D2B2     		uxtb	r2, r2
 800 0168 42F00802 		orr	r2, r2, #8
 801 016c D2B2     		uxtb	r2, r2
 802 016e 1A70     		strb	r2, [r3]
2640:.\Generated_Source\PSoC5/cyfitter_cfg.c **** 
2641:.\Generated_Source\PSoC5/cyfitter_cfg.c **** 	/* Perform basic analog initialization to defaults */
2642:.\Generated_Source\PSoC5/cyfitter_cfg.c **** 	AnalogSetDefault();
 803              		.loc 1 2642 0
 804 0170 FFF7FEFF 		bl	AnalogSetDefault
2643:.\Generated_Source\PSoC5/cyfitter_cfg.c **** 
2644:.\Generated_Source\PSoC5/cyfitter_cfg.c **** 	/* Configure alternate active mode */
2645:.\Generated_Source\PSoC5/cyfitter_cfg.c **** 	CYCONFIGCPY((void CYFAR *)CYDEV_PM_STBY_BASE, (const void CYFAR *)CYDEV_PM_ACT_BASE, 14u);
 805              		.loc 1 2645 0
 806 0174 2648     		ldr	r0, .L31+140
 807 0176 0B49     		ldr	r1, .L31+32
 808 0178 0E22     		movs	r2, #14
 809 017a FFF7FEFF 		bl	CYCONFIGCPY
2646:.\Generated_Source\PSoC5/cyfitter_cfg.c **** }
 810              		.loc 1 2646 0
 811 017e 1837     		adds	r7, r7, #24
 812 0180 BD46     		mov	sp, r7
 813              		@ sp needed
 814 0182 80BD     		pop	{r7, pc}
 815              	.L32:
 816              		.align	2
 817              	.L31:
 818 0184 00480040 		.word	1073760256
 819 0188 00000000 		.word	cfg_memset_list.4899
 820 018c 2C000000 		.word	cfg_memcpy_list.4902
 821 0190 40000000 		.word	cy_cfg_addr_table.4888
 822 0194 EC000000 		.word	cy_cfg_data_table.4889
ARM GAS  C:\Users\xavieran\AppData\Local\Temp\ccKklXac.s 			page 62


 823 0198 00760040 		.word	1073772032
 824 019c 03500140 		.word	1073827843
 825 01a0 13500140 		.word	1073827859
 826 01a4 A0430040 		.word	1073759136
 827 01a8 C2430040 		.word	1073759170
 828 01ac 02510040 		.word	1073762562
 829 01b0 84110000 		.word	BS_IOPINS0_0_VAL.4879
 830 01b4 C2510040 		.word	1073762754
 831 01b8 8C110000 		.word	BS_IOPINS0_7_VAL.4880
 832 01bc F0510040 		.word	1073762800
 833 01c0 94110000 		.word	BS_IOPINS0_8_VAL.4881
 834 01c4 10510040 		.word	1073762576
 835 01c8 A0110000 		.word	BS_IOPINS0_1_VAL.4882
 836 01cc 20510040 		.word	1073762592
 837 01d0 AC110000 		.word	BS_IOPINS0_2_VAL.4883
 838 01d4 30510040 		.word	1073762608
 839 01d8 B8110000 		.word	BS_IOPINS0_3_VAL.4884
 840 01dc 42510040 		.word	1073762626
 841 01e0 C4110000 		.word	BS_IOPINS0_4_VAL.4885
 842 01e4 52510040 		.word	1073762642
 843 01e8 CC110000 		.word	BS_IOPINS0_5_VAL.4886
 844 01ec 62510040 		.word	1073762658
 845 01f0 D4110000 		.word	BS_IOPINS0_6_VAL.4887
 846 01f4 58000140 		.word	1073807448
 847 01f8 5B000140 		.word	1073807451
 848 01fc D8020140 		.word	1073808088
 849 0200 DB020140 		.word	1073808091
 850 0204 DB0A0140 		.word	1073810139
 851 0208 DB140140 		.word	1073812699
 852 020c 22430040 		.word	1073759010
 853 0210 B0430040 		.word	1073759152
 854              		.cfi_endproc
 855              	.LFE8:
 856              		.size	cyfitter_cfg, .-cyfitter_cfg
 857              		.section	.rodata
 858              		.align	2
 859              		.type	cfg_memset_list.4899, %object
 860              		.size	cfg_memset_list.4899, 42
 861              	cfg_memset_list.4899:
 862 0000 C8490040 		.word	1073760712
 863 0004 1900     		.short	25
 864 0006 004F0040 		.4byte	1073762048
 865 000a 3000     		.short	48
 866 000c 00000140 		.word	1073807360
 867 0010 0010     		.short	4096
 868 0012 00140140 		.4byte	1073812480
 869 0016 0008     		.short	2048
 870 0018 00400140 		.word	1073823744
 871 001c 000A     		.short	2560
 872 001e 004C0140 		.4byte	1073826816
 873 0022 0002     		.short	512
 874 0024 10500140 		.word	1073827856
 875 0028 1000     		.short	16
 876 002a 0000     		.align	2
 877              		.type	cfg_memcpy_list.4902, %object
 878              		.size	cfg_memcpy_list.4902, 20
 879              	cfg_memcpy_list.4902:
ARM GAS  C:\Users\xavieran\AppData\Local\Temp\ccKklXac.s 			page 63


 880 002c 00510140 		.word	1073828096
 881 0030 EC110000 		.word	BS_IDMUX_IRQ_VAL.4900
 882 0034 0800     		.short	8
 883 0036 00500140 		.4byte	1073827840
 884 003a DC110000 		.4byte	BS_UCFG_BCTL0_VAL.4901
 885 003e 1000     		.short	16
 886              		.align	2
 887              		.type	cy_cfg_addr_table.4888, %object
 888              		.size	cy_cfg_addr_table.4888, 172
 889              	cy_cfg_addr_table.4888:
 890 0040 01450040 		.word	1073759489
 891 0044 084F0040 		.word	1073762056
 892 0048 0E520040 		.word	1073762830
 893 004c 07640040 		.word	1073767431
 894 0050 05650040 		.word	1073767685
 895 0054 4E000140 		.word	1073807438
 896 0058 31010140 		.word	1073807665
 897 005c 52020140 		.word	1073807954
 898 0060 48030140 		.word	1073808200
 899 0064 54040140 		.word	1073808468
 900 0068 41050140 		.word	1073808705
 901 006c 5B060140 		.word	1073808987
 902 0070 45070140 		.word	1073809221
 903 0074 42080140 		.word	1073809474
 904 0078 48090140 		.word	1073809736
 905 007c 610A0140 		.word	1073810017
 906 0080 490B0140 		.word	1073810249
 907 0084 5D0C0140 		.word	1073810525
 908 0088 4A0D0140 		.word	1073810762
 909 008c 4A0E0140 		.word	1073811018
 910 0090 350F0140 		.word	1073811253
 911 0094 5B140140 		.word	1073812571
 912 0098 4D150140 		.word	1073812813
 913 009c 53160140 		.word	1073813075
 914 00a0 47170140 		.word	1073813319
 915 00a4 57180140 		.word	1073813591
 916 00a8 4A190140 		.word	1073813834
 917 00ac 591A0140 		.word	1073814105
 918 00b0 4B1B0140 		.word	1073814347
 919 00b4 11400140 		.word	1073823761
 920 00b8 27410140 		.word	1073824039
 921 00bc 16420140 		.word	1073824278
 922 00c0 17430140 		.word	1073824535
 923 00c4 0B440140 		.word	1073824779
 924 00c8 10450140 		.word	1073825040
 925 00cc 0C460140 		.word	1073825292
 926 00d0 0B470140 		.word	1073825547
 927 00d4 13480140 		.word	1073825811
 928 00d8 19490140 		.word	1073826073
 929 00dc 1C4C0140 		.word	1073826844
 930 00e0 144D0140 		.word	1073827092
 931 00e4 06500140 		.word	1073827846
 932 00e8 01510140 		.word	1073828097
 933              		.align	2
 934              		.type	cy_cfg_data_table.4889, %object
 935              		.size	cy_cfg_data_table.4889, 4248
 936              	cy_cfg_data_table.4889:
ARM GAS  C:\Users\xavieran\AppData\Local\Temp\ccKklXac.s 			page 64


 937 00ec 7E       		.byte	126
 938 00ed 02       		.byte	2
 939 00ee 01       		.byte	1
 940 00ef 10       		.byte	16
 941 00f0 0A       		.byte	10
 942 00f1 36       		.byte	54
 943 00f2 0D       		.byte	13
 944 00f3 50       		.byte	80
 945 00f4 16       		.byte	22
 946 00f5 1B       		.byte	27
 947 00f6 19       		.byte	25
 948 00f7 50       		.byte	80
 949 00f8 22       		.byte	34
 950 00f9 27       		.byte	39
 951 00fa 25       		.byte	37
 952 00fb 50       		.byte	80
 953 00fc 2E       		.byte	46
 954 00fd 27       		.byte	39
 955 00fe 00       		.byte	0
 956 00ff 30       		.byte	48
 957 0100 01       		.byte	1
 958 0101 90       		.byte	-112
 959 0102 08       		.byte	8
 960 0103 40       		.byte	64
 961 0104 11       		.byte	17
 962 0105 10       		.byte	16
 963 0106 18       		.byte	24
 964 0107 08       		.byte	8
 965 0108 21       		.byte	33
 966 0109 02       		.byte	2
 967 010a 28       		.byte	40
 968 010b 02       		.byte	2
 969 010c 29       		.byte	41
 970 010d 80       		.byte	-128
 971 010e 31       		.byte	49
 972 010f 10       		.byte	16
 973 0110 60       		.byte	96
 974 0111 25       		.byte	37
 975 0112 61       		.byte	97
 976 0113 24       		.byte	36
 977 0114 78       		.byte	120
 978 0115 08       		.byte	8
 979 0116 79       		.byte	121
 980 0117 10       		.byte	16
 981 0118 7C       		.byte	124
 982 0119 40       		.byte	64
 983 011a 2F       		.byte	47
 984 011b 04       		.byte	4
 985 011c 80       		.byte	-128
 986 011d 0F       		.byte	15
 987 011e 82       		.byte	-126
 988 011f 0F       		.byte	15
 989 0120 83       		.byte	-125
 990 0121 0D       		.byte	13
 991 0122 84       		.byte	-124
 992 0123 0F       		.byte	15
 993 0124 8B       		.byte	-117
ARM GAS  C:\Users\xavieran\AppData\Local\Temp\ccKklXac.s 			page 65


 994 0125 0D       		.byte	13
 995 0126 8C       		.byte	-116
 996 0127 0D       		.byte	13
 997 0128 2B       		.byte	43
 998 0129 0F       		.byte	15
 999 012a 3B       		.byte	59
 1000 012b 08       		.byte	8
 1001 012c 85       		.byte	-123
 1002 012d 0D       		.byte	13
 1003 012e 87       		.byte	-121
 1004 012f 0D       		.byte	13
 1005 0130 8A       		.byte	-118
 1006 0131 0D       		.byte	13
 1007 0132 01       		.byte	1
 1008 0133 01       		.byte	1
 1009 0134 0A       		.byte	10
 1010 0135 04       		.byte	4
 1011 0136 12       		.byte	18
 1012 0137 04       		.byte	4
 1013 0138 1A       		.byte	26
 1014 0139 01       		.byte	1
 1015 013a 1B       		.byte	27
 1016 013b 01       		.byte	1
 1017 013c 2E       		.byte	46
 1018 013d 02       		.byte	2
 1019 013e 30       		.byte	48
 1020 013f 04       		.byte	4
 1021 0140 34       		.byte	52
 1022 0141 02       		.byte	2
 1023 0142 35       		.byte	53
 1024 0143 01       		.byte	1
 1025 0144 36       		.byte	54
 1026 0145 01       		.byte	1
 1027 0146 3C       		.byte	60
 1028 0147 20       		.byte	32
 1029 0148 3D       		.byte	61
 1030 0149 20       		.byte	32
 1031 014a 3E       		.byte	62
 1032 014b 01       		.byte	1
 1033 014c 40       		.byte	64
 1034 014d 24       		.byte	36
 1035 014e 41       		.byte	65
 1036 014f 03       		.byte	3
 1037 0150 49       		.byte	73
 1038 0151 FF       		.byte	-1
 1039 0152 4A       		.byte	74
 1040 0153 FF       		.byte	-1
 1041 0154 4B       		.byte	75
 1042 0155 FF       		.byte	-1
 1043 0156 4D       		.byte	77
 1044 0157 A0       		.byte	-96
 1045 0158 4F       		.byte	79
 1046 0159 04       		.byte	4
 1047 015a 50       		.byte	80
 1048 015b 18       		.byte	24
 1049 015c 52       		.byte	82
 1050 015d 80       		.byte	-128
ARM GAS  C:\Users\xavieran\AppData\Local\Temp\ccKklXac.s 			page 66


 1051 015e 54       		.byte	84
 1052 015f 07       		.byte	7
 1053 0160 58       		.byte	88
 1054 0161 04       		.byte	4
 1055 0162 59       		.byte	89
 1056 0163 04       		.byte	4
 1057 0164 5A       		.byte	90
 1058 0165 04       		.byte	4
 1059 0166 5B       		.byte	91
 1060 0167 04       		.byte	4
 1061 0168 5C       		.byte	92
 1062 0169 44       		.byte	68
 1063 016a 5D       		.byte	93
 1064 016b 44       		.byte	68
 1065 016c 5E       		.byte	94
 1066 016d 80       		.byte	-128
 1067 016e 5F       		.byte	95
 1068 016f 45       		.byte	69
 1069 0170 60       		.byte	96
 1070 0171 40       		.byte	64
 1071 0172 62       		.byte	98
 1072 0173 C0       		.byte	-64
 1073 0174 64       		.byte	100
 1074 0175 40       		.byte	64
 1075 0176 65       		.byte	101
 1076 0177 40       		.byte	64
 1077 0178 66       		.byte	102
 1078 0179 C0       		.byte	-64
 1079 017a 68       		.byte	104
 1080 017b C0       		.byte	-64
 1081 017c 6A       		.byte	106
 1082 017d C0       		.byte	-64
 1083 017e 6C       		.byte	108
 1084 017f C0       		.byte	-64
 1085 0180 6E       		.byte	110
 1086 0181 C0       		.byte	-64
 1087 0182 86       		.byte	-122
 1088 0183 02       		.byte	2
 1089 0184 87       		.byte	-121
 1090 0185 01       		.byte	1
 1091 0186 8B       		.byte	-117
 1092 0187 01       		.byte	1
 1093 0188 96       		.byte	-106
 1094 0189 01       		.byte	1
 1095 018a AA       		.byte	-86
 1096 018b 02       		.byte	2
 1097 018c B4       		.byte	-76
 1098 018d 02       		.byte	2
 1099 018e B6       		.byte	-74
 1100 018f 01       		.byte	1
 1101 0190 B7       		.byte	-73
 1102 0191 01       		.byte	1
 1103 0192 BE       		.byte	-66
 1104 0193 10       		.byte	16
 1105 0194 C0       		.byte	-64
 1106 0195 24       		.byte	36
 1107 0196 C1       		.byte	-63
ARM GAS  C:\Users\xavieran\AppData\Local\Temp\ccKklXac.s 			page 67


 1108 0197 06       		.byte	6
 1109 0198 C5       		.byte	-59
 1110 0199 D0       		.byte	-48
 1111 019a C6       		.byte	-58
 1112 019b 50       		.byte	80
 1113 019c C7       		.byte	-57
 1114 019d 12       		.byte	18
 1115 019e C8       		.byte	-56
 1116 019f 3A       		.byte	58
 1117 01a0 C9       		.byte	-55
 1118 01a1 FF       		.byte	-1
 1119 01a2 CA       		.byte	-54
 1120 01a3 FF       		.byte	-1
 1121 01a4 CB       		.byte	-53
 1122 01a5 FF       		.byte	-1
 1123 01a6 CD       		.byte	-51
 1124 01a7 AF       		.byte	-81
 1125 01a8 CE       		.byte	-50
 1126 01a9 0F       		.byte	15
 1127 01aa CF       		.byte	-49
 1128 01ab 04       		.byte	4
 1129 01ac D0       		.byte	-48
 1130 01ad 18       		.byte	24
 1131 01ae D8       		.byte	-40
 1132 01af 04       		.byte	4
 1133 01b0 D9       		.byte	-39
 1134 01b1 04       		.byte	4
 1135 01b2 DA       		.byte	-38
 1136 01b3 04       		.byte	4
 1137 01b4 DB       		.byte	-37
 1138 01b5 04       		.byte	4
 1139 01b6 DC       		.byte	-36
 1140 01b7 48       		.byte	72
 1141 01b8 DD       		.byte	-35
 1142 01b9 04       		.byte	4
 1143 01ba DF       		.byte	-33
 1144 01bb 21       		.byte	33
 1145 01bc E0       		.byte	-32
 1146 01bd 40       		.byte	64
 1147 01be E2       		.byte	-30
 1148 01bf C0       		.byte	-64
 1149 01c0 E4       		.byte	-28
 1150 01c1 40       		.byte	64
 1151 01c2 E5       		.byte	-27
 1152 01c3 40       		.byte	64
 1153 01c4 E6       		.byte	-26
 1154 01c5 C0       		.byte	-64
 1155 01c6 E8       		.byte	-24
 1156 01c7 C0       		.byte	-64
 1157 01c8 EA       		.byte	-22
 1158 01c9 C0       		.byte	-64
 1159 01ca EC       		.byte	-20
 1160 01cb C0       		.byte	-64
 1161 01cc EE       		.byte	-18
 1162 01cd C0       		.byte	-64
 1163 01ce 01       		.byte	1
 1164 01cf 20       		.byte	32
ARM GAS  C:\Users\xavieran\AppData\Local\Temp\ccKklXac.s 			page 68


 1165 01d0 04       		.byte	4
 1166 01d1 04       		.byte	4
 1167 01d2 08       		.byte	8
 1168 01d3 10       		.byte	16
 1169 01d4 09       		.byte	9
 1170 01d5 12       		.byte	18
 1171 01d6 0D       		.byte	13
 1172 01d7 08       		.byte	8
 1173 01d8 10       		.byte	16
 1174 01d9 02       		.byte	2
 1175 01da 16       		.byte	22
 1176 01db 04       		.byte	4
 1177 01dc 18       		.byte	24
 1178 01dd 02       		.byte	2
 1179 01de 19       		.byte	25
 1180 01df 20       		.byte	32
 1181 01e0 1B       		.byte	27
 1182 01e1 01       		.byte	1
 1183 01e2 1E       		.byte	30
 1184 01e3 08       		.byte	8
 1185 01e4 1F       		.byte	31
 1186 01e5 40       		.byte	64
 1187 01e6 22       		.byte	34
 1188 01e7 10       		.byte	16
 1189 01e8 26       		.byte	38
 1190 01e9 40       		.byte	64
 1191 01ea 30       		.byte	48
 1192 01eb 10       		.byte	16
 1193 01ec 38       		.byte	56
 1194 01ed 02       		.byte	2
 1195 01ee 3C       		.byte	60
 1196 01ef 04       		.byte	4
 1197 01f0 3F       		.byte	63
 1198 01f1 20       		.byte	32
 1199 01f2 40       		.byte	64
 1200 01f3 44       		.byte	68
 1201 01f4 41       		.byte	65
 1202 01f5 20       		.byte	32
 1203 01f6 43       		.byte	67
 1204 01f7 08       		.byte	8
 1205 01f8 45       		.byte	69
 1206 01f9 21       		.byte	33
 1207 01fa 4C       		.byte	76
 1208 01fb 08       		.byte	8
 1209 01fc 4F       		.byte	79
 1210 01fd 01       		.byte	1
 1211 01fe 54       		.byte	84
 1212 01ff 08       		.byte	8
 1213 0200 56       		.byte	86
 1214 0201 04       		.byte	4
 1215 0202 57       		.byte	87
 1216 0203 1A       		.byte	26
 1217 0204 58       		.byte	88
 1218 0205 08       		.byte	8
 1219 0206 59       		.byte	89
 1220 0207 82       		.byte	-126
 1221 0208 5A       		.byte	90
ARM GAS  C:\Users\xavieran\AppData\Local\Temp\ccKklXac.s 			page 69


 1222 0209 20       		.byte	32
 1223 020a 6E       		.byte	110
 1224 020b 20       		.byte	32
 1225 020c 6F       		.byte	111
 1226 020d 61       		.byte	97
 1227 020e 70       		.byte	112
 1228 020f 02       		.byte	2
 1229 0210 74       		.byte	116
 1230 0211 A0       		.byte	-96
 1231 0212 79       		.byte	121
 1232 0213 14       		.byte	20
 1233 0214 7D       		.byte	125
 1234 0215 08       		.byte	8
 1235 0216 84       		.byte	-124
 1236 0217 08       		.byte	8
 1237 0218 87       		.byte	-121
 1238 0219 01       		.byte	1
 1239 021a C0       		.byte	-64
 1240 021b 22       		.byte	34
 1241 021c C2       		.byte	-62
 1242 021d 2A       		.byte	42
 1243 021e C4       		.byte	-60
 1244 021f 41       		.byte	65
 1245 0220 CC       		.byte	-52
 1246 0221 04       		.byte	4
 1247 0222 CE       		.byte	-50
 1248 0223 61       		.byte	97
 1249 0224 D0       		.byte	-48
 1250 0225 A7       		.byte	-89
 1251 0226 D2       		.byte	-46
 1252 0227 20       		.byte	32
 1253 0228 D6       		.byte	-42
 1254 0229 0F       		.byte	15
 1255 022a DE       		.byte	-34
 1256 022b 46       		.byte	70
 1257 022c E2       		.byte	-30
 1258 022d 20       		.byte	32
 1259 022e E4       		.byte	-28
 1260 022f 30       		.byte	48
 1261 0230 07       		.byte	7
 1262 0231 01       		.byte	1
 1263 0232 1A       		.byte	26
 1264 0233 01       		.byte	1
 1265 0234 2F       		.byte	47
 1266 0235 01       		.byte	1
 1267 0236 32       		.byte	50
 1268 0237 01       		.byte	1
 1269 0238 35       		.byte	53
 1270 0239 01       		.byte	1
 1271 023a 40       		.byte	64
 1272 023b 45       		.byte	69
 1273 023c 41       		.byte	65
 1274 023d 03       		.byte	3
 1275 023e 49       		.byte	73
 1276 023f FF       		.byte	-1
 1277 0240 4A       		.byte	74
 1278 0241 FF       		.byte	-1
ARM GAS  C:\Users\xavieran\AppData\Local\Temp\ccKklXac.s 			page 70


 1279 0242 4B       		.byte	75
 1280 0243 FF       		.byte	-1
 1281 0244 4F       		.byte	79
 1282 0245 01       		.byte	1
 1283 0246 50       		.byte	80
 1284 0247 18       		.byte	24
 1285 0248 54       		.byte	84
 1286 0249 07       		.byte	7
 1287 024a 58       		.byte	88
 1288 024b 04       		.byte	4
 1289 024c 59       		.byte	89
 1290 024d 04       		.byte	4
 1291 024e 5A       		.byte	90
 1292 024f 04       		.byte	4
 1293 0250 5B       		.byte	91
 1294 0251 04       		.byte	4
 1295 0252 5C       		.byte	92
 1296 0253 48       		.byte	72
 1297 0254 5D       		.byte	93
 1298 0255 44       		.byte	68
 1299 0256 5E       		.byte	94
 1300 0257 80       		.byte	-128
 1301 0258 5F       		.byte	95
 1302 0259 25       		.byte	37
 1303 025a 60       		.byte	96
 1304 025b 40       		.byte	64
 1305 025c 62       		.byte	98
 1306 025d 40       		.byte	64
 1307 025e 64       		.byte	100
 1308 025f 40       		.byte	64
 1309 0260 65       		.byte	101
 1310 0261 40       		.byte	64
 1311 0262 66       		.byte	102
 1312 0263 80       		.byte	-128
 1313 0264 68       		.byte	104
 1314 0265 80       		.byte	-128
 1315 0266 6A       		.byte	106
 1316 0267 80       		.byte	-128
 1317 0268 6C       		.byte	108
 1318 0269 80       		.byte	-128
 1319 026a 6E       		.byte	110
 1320 026b 80       		.byte	-128
 1321 026c 85       		.byte	-123
 1322 026d 07       		.byte	7
 1323 026e 86       		.byte	-122
 1324 026f 08       		.byte	8
 1325 0270 89       		.byte	-119
 1326 0271 07       		.byte	7
 1327 0272 8C       		.byte	-116
 1328 0273 08       		.byte	8
 1329 0274 8D       		.byte	-115
 1330 0275 04       		.byte	4
 1331 0276 92       		.byte	-110
 1332 0277 01       		.byte	1
 1333 0278 95       		.byte	-107
 1334 0279 01       		.byte	1
 1335 027a 96       		.byte	-106
ARM GAS  C:\Users\xavieran\AppData\Local\Temp\ccKklXac.s 			page 71


 1336 027b 02       		.byte	2
 1337 027c 98       		.byte	-104
 1338 027d 10       		.byte	16
 1339 027e 99       		.byte	-103
 1340 027f 07       		.byte	7
 1341 0280 9C       		.byte	-100
 1342 0281 04       		.byte	4
 1343 0282 A1       		.byte	-95
 1344 0283 02       		.byte	2
 1345 0284 A2       		.byte	-94
 1346 0285 01       		.byte	1
 1347 0286 A4       		.byte	-92
 1348 0287 03       		.byte	3
 1349 0288 AA       		.byte	-86
 1350 0289 01       		.byte	1
 1351 028a AE       		.byte	-82
 1352 028b 04       		.byte	4
 1353 028c B0       		.byte	-80
 1354 028d 04       		.byte	4
 1355 028e B2       		.byte	-78
 1356 028f 03       		.byte	3
 1357 0290 B3       		.byte	-77
 1358 0291 07       		.byte	7
 1359 0292 B4       		.byte	-76
 1360 0293 10       		.byte	16
 1361 0294 B6       		.byte	-74
 1362 0295 08       		.byte	8
 1363 0296 BC       		.byte	-68
 1364 0297 80       		.byte	-128
 1365 0298 BE       		.byte	-66
 1366 0299 01       		.byte	1
 1367 029a C0       		.byte	-64
 1368 029b 15       		.byte	21
 1369 029c C1       		.byte	-63
 1370 029d 03       		.byte	3
 1371 029e C5       		.byte	-59
 1372 029f EC       		.byte	-20
 1373 02a0 C7       		.byte	-57
 1374 02a1 20       		.byte	32
 1375 02a2 C8       		.byte	-56
 1376 02a3 23       		.byte	35
 1377 02a4 C9       		.byte	-55
 1378 02a5 FF       		.byte	-1
 1379 02a6 CA       		.byte	-54
 1380 02a7 FF       		.byte	-1
 1381 02a8 CB       		.byte	-53
 1382 02a9 FF       		.byte	-1
 1383 02aa CD       		.byte	-51
 1384 02ab 83       		.byte	-125
 1385 02ac CE       		.byte	-50
 1386 02ad 03       		.byte	3
 1387 02ae CF       		.byte	-49
 1388 02af 01       		.byte	1
 1389 02b0 D0       		.byte	-48
 1390 02b1 18       		.byte	24
 1391 02b2 D4       		.byte	-44
 1392 02b3 01       		.byte	1
ARM GAS  C:\Users\xavieran\AppData\Local\Temp\ccKklXac.s 			page 72


 1393 02b4 D8       		.byte	-40
 1394 02b5 04       		.byte	4
 1395 02b6 D9       		.byte	-39
 1396 02b7 04       		.byte	4
 1397 02b8 DA       		.byte	-38
 1398 02b9 04       		.byte	4
 1399 02ba DB       		.byte	-37
 1400 02bb 04       		.byte	4
 1401 02bc DC       		.byte	-36
 1402 02bd 44       		.byte	68
 1403 02be DD       		.byte	-35
 1404 02bf 44       		.byte	68
 1405 02c0 DF       		.byte	-33
 1406 02c1 45       		.byte	69
 1407 02c2 E0       		.byte	-32
 1408 02c3 40       		.byte	64
 1409 02c4 E2       		.byte	-30
 1410 02c5 40       		.byte	64
 1411 02c6 E4       		.byte	-28
 1412 02c7 40       		.byte	64
 1413 02c8 E5       		.byte	-27
 1414 02c9 40       		.byte	64
 1415 02ca E6       		.byte	-26
 1416 02cb 80       		.byte	-128
 1417 02cc E8       		.byte	-24
 1418 02cd 80       		.byte	-128
 1419 02ce EA       		.byte	-22
 1420 02cf 80       		.byte	-128
 1421 02d0 EC       		.byte	-20
 1422 02d1 80       		.byte	-128
 1423 02d2 EE       		.byte	-18
 1424 02d3 80       		.byte	-128
 1425 02d4 00       		.byte	0
 1426 02d5 88       		.byte	-120
 1427 02d6 0A       		.byte	10
 1428 02d7 90       		.byte	-112
 1429 02d8 0B       		.byte	11
 1430 02d9 0A       		.byte	10
 1431 02da 0C       		.byte	12
 1432 02db 20       		.byte	32
 1433 02dc 10       		.byte	16
 1434 02dd 12       		.byte	18
 1435 02de 12       		.byte	18
 1436 02df 48       		.byte	72
 1437 02e0 18       		.byte	24
 1438 02e1 28       		.byte	40
 1439 02e2 19       		.byte	25
 1440 02e3 80       		.byte	-128
 1441 02e4 1A       		.byte	26
 1442 02e5 50       		.byte	80
 1443 02e6 1F       		.byte	31
 1444 02e7 08       		.byte	8
 1445 02e8 20       		.byte	32
 1446 02e9 20       		.byte	32
 1447 02ea 22       		.byte	34
 1448 02eb 08       		.byte	8
 1449 02ec 26       		.byte	38
ARM GAS  C:\Users\xavieran\AppData\Local\Temp\ccKklXac.s 			page 73


 1450 02ed 20       		.byte	32
 1451 02ee 27       		.byte	39
 1452 02ef 0C       		.byte	12
 1453 02f0 28       		.byte	40
 1454 02f1 80       		.byte	-128
 1455 02f2 2F       		.byte	47
 1456 02f3 02       		.byte	2
 1457 02f4 30       		.byte	48
 1458 02f5 10       		.byte	16
 1459 02f6 31       		.byte	49
 1460 02f7 20       		.byte	32
 1461 02f8 32       		.byte	50
 1462 02f9 08       		.byte	8
 1463 02fa 38       		.byte	56
 1464 02fb 20       		.byte	32
 1465 02fc 39       		.byte	57
 1466 02fd 04       		.byte	4
 1467 02fe 3A       		.byte	58
 1468 02ff 40       		.byte	64
 1469 0300 3B       		.byte	59
 1470 0301 88       		.byte	-120
 1471 0302 3C       		.byte	60
 1472 0303 04       		.byte	4
 1473 0304 43       		.byte	67
 1474 0305 44       		.byte	68
 1475 0306 45       		.byte	69
 1476 0307 01       		.byte	1
 1477 0308 47       		.byte	71
 1478 0309 08       		.byte	8
 1479 030a 48       		.byte	72
 1480 030b 02       		.byte	2
 1481 030c 49       		.byte	73
 1482 030d 05       		.byte	5
 1483 030e 4E       		.byte	78
 1484 030f 02       		.byte	2
 1485 0310 50       		.byte	80
 1486 0311 02       		.byte	2
 1487 0312 52       		.byte	82
 1488 0313 02       		.byte	2
 1489 0314 59       		.byte	89
 1490 0315 05       		.byte	5
 1491 0316 5A       		.byte	90
 1492 0317 40       		.byte	64
 1493 0318 5E       		.byte	94
 1494 0319 A8       		.byte	-88
 1495 031a 5F       		.byte	95
 1496 031b 01       		.byte	1
 1497 031c 79       		.byte	121
 1498 031d 10       		.byte	16
 1499 031e 7A       		.byte	122
 1500 031f 20       		.byte	32
 1501 0320 7D       		.byte	125
 1502 0321 08       		.byte	8
 1503 0322 7F       		.byte	127
 1504 0323 01       		.byte	1
 1505 0324 83       		.byte	-125
 1506 0325 20       		.byte	32
ARM GAS  C:\Users\xavieran\AppData\Local\Temp\ccKklXac.s 			page 74


 1507 0326 87       		.byte	-121
 1508 0327 40       		.byte	64
 1509 0328 8A       		.byte	-118
 1510 0329 80       		.byte	-128
 1511 032a 93       		.byte	-109
 1512 032b 01       		.byte	1
 1513 032c 94       		.byte	-108
 1514 032d 44       		.byte	68
 1515 032e 95       		.byte	-107
 1516 032f 14       		.byte	20
 1517 0330 99       		.byte	-103
 1518 0331 20       		.byte	32
 1519 0332 9D       		.byte	-99
 1520 0333 82       		.byte	-126
 1521 0334 A2       		.byte	-94
 1522 0335 04       		.byte	4
 1523 0336 A3       		.byte	-93
 1524 0337 32       		.byte	50
 1525 0338 A5       		.byte	-91
 1526 0339 17       		.byte	23
 1527 033a AE       		.byte	-82
 1528 033b 50       		.byte	80
 1529 033c AF       		.byte	-81
 1530 033d 41       		.byte	65
 1531 033e B1       		.byte	-79
 1532 033f 08       		.byte	8
 1533 0340 B4       		.byte	-76
 1534 0341 A0       		.byte	-96
 1535 0342 B7       		.byte	-73
 1536 0343 40       		.byte	64
 1537 0344 C0       		.byte	-64
 1538 0345 05       		.byte	5
 1539 0346 C2       		.byte	-62
 1540 0347 4F       		.byte	79
 1541 0348 C4       		.byte	-60
 1542 0349 0F       		.byte	15
 1543 034a CA       		.byte	-54
 1544 034b 11       		.byte	17
 1545 034c CC       		.byte	-52
 1546 034d 06       		.byte	6
 1547 034e CE       		.byte	-50
 1548 034f 4E       		.byte	78
 1549 0350 D0       		.byte	-48
 1550 0351 CA       		.byte	-54
 1551 0352 D2       		.byte	-46
 1552 0353 18       		.byte	24
 1553 0354 D6       		.byte	-42
 1554 0355 FB       		.byte	-5
 1555 0356 DE       		.byte	-34
 1556 0357 56       		.byte	86
 1557 0358 E2       		.byte	-30
 1558 0359 08       		.byte	8
 1559 035a E6       		.byte	-26
 1560 035b 02       		.byte	2
 1561 035c E8       		.byte	-24
 1562 035d 04       		.byte	4
 1563 035e EA       		.byte	-22
ARM GAS  C:\Users\xavieran\AppData\Local\Temp\ccKklXac.s 			page 75


 1564 035f 10       		.byte	16
 1565 0360 EC       		.byte	-20
 1566 0361 01       		.byte	1
 1567 0362 EE       		.byte	-18
 1568 0363 50       		.byte	80
 1569 0364 06       		.byte	6
 1570 0365 02       		.byte	2
 1571 0366 0B       		.byte	11
 1572 0367 01       		.byte	1
 1573 0368 10       		.byte	16
 1574 0369 02       		.byte	2
 1575 036a 18       		.byte	24
 1576 036b 01       		.byte	1
 1577 036c 24       		.byte	36
 1578 036d 01       		.byte	1
 1579 036e 27       		.byte	39
 1580 036f 02       		.byte	2
 1581 0370 2B       		.byte	43
 1582 0371 01       		.byte	1
 1583 0372 31       		.byte	49
 1584 0373 02       		.byte	2
 1585 0374 34       		.byte	52
 1586 0375 02       		.byte	2
 1587 0376 35       		.byte	53
 1588 0377 01       		.byte	1
 1589 0378 36       		.byte	54
 1590 0379 01       		.byte	1
 1591 037a 40       		.byte	64
 1592 037b 61       		.byte	97
 1593 037c 41       		.byte	65
 1594 037d 05       		.byte	5
 1595 037e 49       		.byte	73
 1596 037f FF       		.byte	-1
 1597 0380 4A       		.byte	74
 1598 0381 FF       		.byte	-1
 1599 0382 4B       		.byte	75
 1600 0383 FF       		.byte	-1
 1601 0384 4D       		.byte	77
 1602 0385 A0       		.byte	-96
 1603 0386 4F       		.byte	79
 1604 0387 04       		.byte	4
 1605 0388 50       		.byte	80
 1606 0389 18       		.byte	24
 1607 038a 54       		.byte	84
 1608 038b 07       		.byte	7
 1609 038c 58       		.byte	88
 1610 038d 04       		.byte	4
 1611 038e 59       		.byte	89
 1612 038f 04       		.byte	4
 1613 0390 5A       		.byte	90
 1614 0391 04       		.byte	4
 1615 0392 5B       		.byte	91
 1616 0393 04       		.byte	4
 1617 0394 5C       		.byte	92
 1618 0395 43       		.byte	67
 1619 0396 5D       		.byte	93
 1620 0397 34       		.byte	52
ARM GAS  C:\Users\xavieran\AppData\Local\Temp\ccKklXac.s 			page 76


 1621 0398 5F       		.byte	95
 1622 0399 01       		.byte	1
 1623 039a 60       		.byte	96
 1624 039b 40       		.byte	64
 1625 039c 62       		.byte	98
 1626 039d C0       		.byte	-64
 1627 039e 64       		.byte	100
 1628 039f 40       		.byte	64
 1629 03a0 65       		.byte	101
 1630 03a1 40       		.byte	64
 1631 03a2 66       		.byte	102
 1632 03a3 C0       		.byte	-64
 1633 03a4 68       		.byte	104
 1634 03a5 C0       		.byte	-64
 1635 03a6 6A       		.byte	106
 1636 03a7 C0       		.byte	-64
 1637 03a8 6C       		.byte	108
 1638 03a9 C0       		.byte	-64
 1639 03aa 6E       		.byte	110
 1640 03ab C0       		.byte	-64
 1641 03ac 83       		.byte	-125
 1642 03ad 02       		.byte	2
 1643 03ae 8A       		.byte	-118
 1644 03af 01       		.byte	1
 1645 03b0 96       		.byte	-106
 1646 03b1 06       		.byte	6
 1647 03b2 97       		.byte	-105
 1648 03b3 04       		.byte	4
 1649 03b4 9C       		.byte	-100
 1650 03b5 04       		.byte	4
 1651 03b6 A7       		.byte	-89
 1652 03b7 04       		.byte	4
 1653 03b8 A9       		.byte	-87
 1654 03b9 08       		.byte	8
 1655 03ba AA       		.byte	-86
 1656 03bb 01       		.byte	1
 1657 03bc AD       		.byte	-83
 1658 03bd 01       		.byte	1
 1659 03be B1       		.byte	-79
 1660 03bf 01       		.byte	1
 1661 03c0 B2       		.byte	-78
 1662 03c1 04       		.byte	4
 1663 03c2 B3       		.byte	-77
 1664 03c3 04       		.byte	4
 1665 03c4 B4       		.byte	-76
 1666 03c5 01       		.byte	1
 1667 03c6 B5       		.byte	-75
 1668 03c7 02       		.byte	2
 1669 03c8 B6       		.byte	-74
 1670 03c9 02       		.byte	2
 1671 03ca B7       		.byte	-73
 1672 03cb 08       		.byte	8
 1673 03cc BC       		.byte	-68
 1674 03cd 08       		.byte	8
 1675 03ce BF       		.byte	-65
 1676 03cf 41       		.byte	65
 1677 03d0 C0       		.byte	-64
ARM GAS  C:\Users\xavieran\AppData\Local\Temp\ccKklXac.s 			page 77


 1678 03d1 61       		.byte	97
 1679 03d2 C1       		.byte	-63
 1680 03d3 04       		.byte	4
 1681 03d4 C5       		.byte	-59
 1682 03d5 D0       		.byte	-48
 1683 03d6 C6       		.byte	-58
 1684 03d7 50       		.byte	80
 1685 03d8 C7       		.byte	-57
 1686 03d9 21       		.byte	33
 1687 03da C8       		.byte	-56
 1688 03db 3A       		.byte	58
 1689 03dc C9       		.byte	-55
 1690 03dd FF       		.byte	-1
 1691 03de CA       		.byte	-54
 1692 03df FF       		.byte	-1
 1693 03e0 CB       		.byte	-53
 1694 03e1 FF       		.byte	-1
 1695 03e2 CD       		.byte	-51
 1696 03e3 AF       		.byte	-81
 1697 03e4 CE       		.byte	-50
 1698 03e5 0F       		.byte	15
 1699 03e6 CF       		.byte	-49
 1700 03e7 04       		.byte	4
 1701 03e8 D0       		.byte	-48
 1702 03e9 18       		.byte	24
 1703 03ea D2       		.byte	-46
 1704 03eb 80       		.byte	-128
 1705 03ec D8       		.byte	-40
 1706 03ed 04       		.byte	4
 1707 03ee D9       		.byte	-39
 1708 03ef 04       		.byte	4
 1709 03f0 DA       		.byte	-38
 1710 03f1 04       		.byte	4
 1711 03f2 DB       		.byte	-37
 1712 03f3 04       		.byte	4
 1713 03f4 DC       		.byte	-36
 1714 03f5 34       		.byte	52
 1715 03f6 DD       		.byte	-35
 1716 03f7 34       		.byte	52
 1717 03f8 DF       		.byte	-33
 1718 03f9 41       		.byte	65
 1719 03fa E0       		.byte	-32
 1720 03fb 40       		.byte	64
 1721 03fc E2       		.byte	-30
 1722 03fd C0       		.byte	-64
 1723 03fe E4       		.byte	-28
 1724 03ff 40       		.byte	64
 1725 0400 E5       		.byte	-27
 1726 0401 40       		.byte	64
 1727 0402 E6       		.byte	-26
 1728 0403 C0       		.byte	-64
 1729 0404 E8       		.byte	-24
 1730 0405 C0       		.byte	-64
 1731 0406 EA       		.byte	-22
 1732 0407 C0       		.byte	-64
 1733 0408 EC       		.byte	-20
 1734 0409 C0       		.byte	-64
ARM GAS  C:\Users\xavieran\AppData\Local\Temp\ccKklXac.s 			page 78


 1735 040a EE       		.byte	-18
 1736 040b C0       		.byte	-64
 1737 040c 01       		.byte	1
 1738 040d 08       		.byte	8
 1739 040e 05       		.byte	5
 1740 040f 20       		.byte	32
 1741 0410 0A       		.byte	10
 1742 0411 44       		.byte	68
 1743 0412 0E       		.byte	14
 1744 0413 01       		.byte	1
 1745 0414 0F       		.byte	15
 1746 0415 20       		.byte	32
 1747 0416 12       		.byte	18
 1748 0417 10       		.byte	16
 1749 0418 16       		.byte	22
 1750 0419 04       		.byte	4
 1751 041a 19       		.byte	25
 1752 041b 90       		.byte	-112
 1753 041c 1D       		.byte	29
 1754 041d 20       		.byte	32
 1755 041e 1E       		.byte	30
 1756 041f 29       		.byte	41
 1757 0420 20       		.byte	32
 1758 0421 80       		.byte	-128
 1759 0422 23       		.byte	35
 1760 0423 04       		.byte	4
 1761 0424 24       		.byte	36
 1762 0425 40       		.byte	64
 1763 0426 25       		.byte	37
 1764 0427 81       		.byte	-127
 1765 0428 27       		.byte	39
 1766 0429 68       		.byte	104
 1767 042a 29       		.byte	41
 1768 042b 20       		.byte	32
 1769 042c 2A       		.byte	42
 1770 042d 04       		.byte	4
 1771 042e 2D       		.byte	45
 1772 042f 08       		.byte	8
 1773 0430 2F       		.byte	47
 1774 0431 05       		.byte	5
 1775 0432 37       		.byte	55
 1776 0433 08       		.byte	8
 1777 0434 3A       		.byte	58
 1778 0435 20       		.byte	32
 1779 0436 3C       		.byte	60
 1780 0437 02       		.byte	2
 1781 0438 41       		.byte	65
 1782 0439 80       		.byte	-128
 1783 043a 45       		.byte	69
 1784 043b 82       		.byte	-126
 1785 043c 48       		.byte	72
 1786 043d 02       		.byte	2
 1787 043e 49       		.byte	73
 1788 043f 20       		.byte	32
 1789 0440 4D       		.byte	77
 1790 0441 22       		.byte	34
 1791 0442 54       		.byte	84
ARM GAS  C:\Users\xavieran\AppData\Local\Temp\ccKklXac.s 			page 79


 1792 0443 06       		.byte	6
 1793 0444 55       		.byte	85
 1794 0445 12       		.byte	18
 1795 0446 56       		.byte	86
 1796 0447 24       		.byte	36
 1797 0448 59       		.byte	89
 1798 0449 95       		.byte	-107
 1799 044a 74       		.byte	116
 1800 044b 01       		.byte	1
 1801 044c 7C       		.byte	124
 1802 044d 80       		.byte	-128
 1803 044e 83       		.byte	-125
 1804 044f 08       		.byte	8
 1805 0450 87       		.byte	-121
 1806 0451 04       		.byte	4
 1807 0452 8D       		.byte	-115
 1808 0453 40       		.byte	64
 1809 0454 94       		.byte	-108
 1810 0455 44       		.byte	68
 1811 0456 95       		.byte	-107
 1812 0457 10       		.byte	16
 1813 0458 97       		.byte	-105
 1814 0459 0A       		.byte	10
 1815 045a 99       		.byte	-103
 1816 045b 20       		.byte	32
 1817 045c 9D       		.byte	-99
 1818 045d 02       		.byte	2
 1819 045e 9F       		.byte	-97
 1820 045f 60       		.byte	96
 1821 0460 A3       		.byte	-93
 1822 0461 12       		.byte	18
 1823 0462 A4       		.byte	-92
 1824 0463 64       		.byte	100
 1825 0464 A5       		.byte	-91
 1826 0465 33       		.byte	51
 1827 0466 A6       		.byte	-90
 1828 0467 D0       		.byte	-48
 1829 0468 AB       		.byte	-85
 1830 0469 20       		.byte	32
 1831 046a AF       		.byte	-81
 1832 046b 08       		.byte	8
 1833 046c B0       		.byte	-80
 1834 046d 10       		.byte	16
 1835 046e B4       		.byte	-76
 1836 046f 84       		.byte	-124
 1837 0470 B5       		.byte	-75
 1838 0471 04       		.byte	4
 1839 0472 B6       		.byte	-74
 1840 0473 40       		.byte	64
 1841 0474 C0       		.byte	-64
 1842 0475 44       		.byte	68
 1843 0476 C2       		.byte	-62
 1844 0477 AA       		.byte	-86
 1845 0478 C4       		.byte	-60
 1846 0479 44       		.byte	68
 1847 047a CA       		.byte	-54
 1848 047b 76       		.byte	118
ARM GAS  C:\Users\xavieran\AppData\Local\Temp\ccKklXac.s 			page 80


 1849 047c CC       		.byte	-52
 1850 047d 40       		.byte	64
 1851 047e CE       		.byte	-50
 1852 047f 84       		.byte	-124
 1853 0480 D0       		.byte	-48
 1854 0481 98       		.byte	-104
 1855 0482 D2       		.byte	-46
 1856 0483 2C       		.byte	44
 1857 0484 D6       		.byte	-42
 1858 0485 0F       		.byte	15
 1859 0486 DE       		.byte	-34
 1860 0487 10       		.byte	16
 1861 0488 E2       		.byte	-30
 1862 0489 08       		.byte	8
 1863 048a E6       		.byte	-26
 1864 048b 01       		.byte	1
 1865 048c EC       		.byte	-20
 1866 048d 40       		.byte	64
 1867 048e 02       		.byte	2
 1868 048f 01       		.byte	1
 1869 0490 0C       		.byte	12
 1870 0491 01       		.byte	1
 1871 0492 0F       		.byte	15
 1872 0493 01       		.byte	1
 1873 0494 2F       		.byte	47
 1874 0495 02       		.byte	2
 1875 0496 30       		.byte	48
 1876 0497 01       		.byte	1
 1877 0498 35       		.byte	53
 1878 0499 01       		.byte	1
 1879 049a 37       		.byte	55
 1880 049b 02       		.byte	2
 1881 049c 3C       		.byte	60
 1882 049d 02       		.byte	2
 1883 049e 3D       		.byte	61
 1884 049f 20       		.byte	32
 1885 04a0 40       		.byte	64
 1886 04a1 30       		.byte	48
 1887 04a2 41       		.byte	65
 1888 04a3 01       		.byte	1
 1889 04a4 49       		.byte	73
 1890 04a5 FF       		.byte	-1
 1891 04a6 4A       		.byte	74
 1892 04a7 FF       		.byte	-1
 1893 04a8 4B       		.byte	75
 1894 04a9 FF       		.byte	-1
 1895 04aa 4D       		.byte	77
 1896 04ab A0       		.byte	-96
 1897 04ac 4F       		.byte	79
 1898 04ad 04       		.byte	4
 1899 04ae 50       		.byte	80
 1900 04af 18       		.byte	24
 1901 04b0 56       		.byte	86
 1902 04b1 08       		.byte	8
 1903 04b2 58       		.byte	88
 1904 04b3 04       		.byte	4
 1905 04b4 59       		.byte	89
ARM GAS  C:\Users\xavieran\AppData\Local\Temp\ccKklXac.s 			page 81


 1906 04b5 04       		.byte	4
 1907 04b6 5A       		.byte	90
 1908 04b7 04       		.byte	4
 1909 04b8 5B       		.byte	91
 1910 04b9 04       		.byte	4
 1911 04ba 5C       		.byte	92
 1912 04bb 44       		.byte	68
 1913 04bc 5D       		.byte	93
 1914 04bd 93       		.byte	-109
 1915 04be 5F       		.byte	95
 1916 04bf 41       		.byte	65
 1917 04c0 60       		.byte	96
 1918 04c1 40       		.byte	64
 1919 04c2 62       		.byte	98
 1920 04c3 C0       		.byte	-64
 1921 04c4 64       		.byte	100
 1922 04c5 40       		.byte	64
 1923 04c6 65       		.byte	101
 1924 04c7 40       		.byte	64
 1925 04c8 66       		.byte	102
 1926 04c9 C0       		.byte	-64
 1927 04ca 68       		.byte	104
 1928 04cb C0       		.byte	-64
 1929 04cc 6A       		.byte	106
 1930 04cd C0       		.byte	-64
 1931 04ce 6C       		.byte	108
 1932 04cf C0       		.byte	-64
 1933 04d0 6E       		.byte	110
 1934 04d1 C0       		.byte	-64
 1935 04d2 81       		.byte	-127
 1936 04d3 01       		.byte	1
 1937 04d4 85       		.byte	-123
 1938 04d5 08       		.byte	8
 1939 04d6 86       		.byte	-122
 1940 04d7 01       		.byte	1
 1941 04d8 87       		.byte	-121
 1942 04d9 07       		.byte	7
 1943 04da 89       		.byte	-119
 1944 04db 7F       		.byte	127
 1945 04dc 8D       		.byte	-115
 1946 04dd 01       		.byte	1
 1947 04de 91       		.byte	-111
 1948 04df 40       		.byte	64
 1949 04e0 93       		.byte	-109
 1950 04e1 07       		.byte	7
 1951 04e2 94       		.byte	-108
 1952 04e3 04       		.byte	4
 1953 04e4 95       		.byte	-107
 1954 04e5 3A       		.byte	58
 1955 04e6 97       		.byte	-105
 1956 04e7 04       		.byte	4
 1957 04e8 99       		.byte	-103
 1958 04e9 22       		.byte	34
 1959 04ea 9B       		.byte	-101
 1960 04eb 05       		.byte	5
 1961 04ec 9D       		.byte	-99
 1962 04ed 05       		.byte	5
ARM GAS  C:\Users\xavieran\AppData\Local\Temp\ccKklXac.s 			page 82


 1963 04ee 9E       		.byte	-98
 1964 04ef 02       		.byte	2
 1965 04f0 9F       		.byte	-97
 1966 04f1 78       		.byte	120
 1967 04f2 A1       		.byte	-95
 1968 04f3 10       		.byte	16
 1969 04f4 A3       		.byte	-93
 1970 04f5 07       		.byte	7
 1971 04f6 A5       		.byte	-91
 1972 04f7 03       		.byte	3
 1973 04f8 A6       		.byte	-90
 1974 04f9 02       		.byte	2
 1975 04fa A9       		.byte	-87
 1976 04fb 03       		.byte	3
 1977 04fc AD       		.byte	-83
 1978 04fd 01       		.byte	1
 1979 04fe B0       		.byte	-80
 1980 04ff 01       		.byte	1
 1981 0500 B1       		.byte	-79
 1982 0501 7F       		.byte	127
 1983 0502 B2       		.byte	-78
 1984 0503 02       		.byte	2
 1985 0504 B4       		.byte	-76
 1986 0505 04       		.byte	4
 1987 0506 BE       		.byte	-66
 1988 0507 04       		.byte	4
 1989 0508 BF       		.byte	-65
 1990 0509 01       		.byte	1
 1991 050a C0       		.byte	-64
 1992 050b 30       		.byte	48
 1993 050c C1       		.byte	-63
 1994 050d 01       		.byte	1
 1995 050e C5       		.byte	-59
 1996 050f D5       		.byte	-43
 1997 0510 C6       		.byte	-58
 1998 0511 12       		.byte	18
 1999 0512 C8       		.byte	-56
 2000 0513 0F       		.byte	15
 2001 0514 C9       		.byte	-55
 2002 0515 FF       		.byte	-1
 2003 0516 CA       		.byte	-54
 2004 0517 FF       		.byte	-1
 2005 0518 CB       		.byte	-53
 2006 0519 FF       		.byte	-1
 2007 051a CD       		.byte	-51
 2008 051b AF       		.byte	-81
 2009 051c CE       		.byte	-50
 2010 051d 0F       		.byte	15
 2011 051e CF       		.byte	-49
 2012 051f 04       		.byte	4
 2013 0520 D0       		.byte	-48
 2014 0521 18       		.byte	24
 2015 0522 D2       		.byte	-46
 2016 0523 80       		.byte	-128
 2017 0524 D8       		.byte	-40
 2018 0525 04       		.byte	4
 2019 0526 D9       		.byte	-39
ARM GAS  C:\Users\xavieran\AppData\Local\Temp\ccKklXac.s 			page 83


 2020 0527 04       		.byte	4
 2021 0528 DA       		.byte	-38
 2022 0529 04       		.byte	4
 2023 052a DB       		.byte	-37
 2024 052b 04       		.byte	4
 2025 052c DC       		.byte	-36
 2026 052d 03       		.byte	3
 2027 052e DD       		.byte	-35
 2028 052f 43       		.byte	67
 2029 0530 DF       		.byte	-33
 2030 0531 01       		.byte	1
 2031 0532 E0       		.byte	-32
 2032 0533 40       		.byte	64
 2033 0534 E2       		.byte	-30
 2034 0535 C0       		.byte	-64
 2035 0536 E4       		.byte	-28
 2036 0537 40       		.byte	64
 2037 0538 E5       		.byte	-27
 2038 0539 40       		.byte	64
 2039 053a E6       		.byte	-26
 2040 053b C0       		.byte	-64
 2041 053c E8       		.byte	-24
 2042 053d C0       		.byte	-64
 2043 053e EA       		.byte	-22
 2044 053f C0       		.byte	-64
 2045 0540 EC       		.byte	-20
 2046 0541 C0       		.byte	-64
 2047 0542 EE       		.byte	-18
 2048 0543 C0       		.byte	-64
 2049 0544 01       		.byte	1
 2050 0545 08       		.byte	8
 2051 0546 06       		.byte	6
 2052 0547 80       		.byte	-128
 2053 0548 07       		.byte	7
 2054 0549 02       		.byte	2
 2055 054a 09       		.byte	9
 2056 054b 80       		.byte	-128
 2057 054c 0B       		.byte	11
 2058 054d 20       		.byte	32
 2059 054e 13       		.byte	19
 2060 054f 08       		.byte	8
 2061 0550 19       		.byte	25
 2062 0551 04       		.byte	4
 2063 0552 1A       		.byte	26
 2064 0553 44       		.byte	68
 2065 0554 1E       		.byte	30
 2066 0555 80       		.byte	-128
 2067 0556 21       		.byte	33
 2068 0557 01       		.byte	1
 2069 0558 24       		.byte	36
 2070 0559 04       		.byte	4
 2071 055a 27       		.byte	39
 2072 055b 02       		.byte	2
 2073 055c 2A       		.byte	42
 2074 055d 46       		.byte	70
 2075 055e 2B       		.byte	43
 2076 055f 08       		.byte	8
ARM GAS  C:\Users\xavieran\AppData\Local\Temp\ccKklXac.s 			page 84


 2077 0560 2E       		.byte	46
 2078 0561 80       		.byte	-128
 2079 0562 2F       		.byte	47
 2080 0563 02       		.byte	2
 2081 0564 30       		.byte	48
 2082 0565 16       		.byte	22
 2083 0566 31       		.byte	49
 2084 0567 10       		.byte	16
 2085 0568 32       		.byte	50
 2086 0569 80       		.byte	-128
 2087 056a 38       		.byte	56
 2088 056b 20       		.byte	32
 2089 056c 39       		.byte	57
 2090 056d 04       		.byte	4
 2091 056e 3A       		.byte	58
 2092 056f 01       		.byte	1
 2093 0570 3B       		.byte	59
 2094 0571 80       		.byte	-128
 2095 0572 3F       		.byte	63
 2096 0573 40       		.byte	64
 2097 0574 41       		.byte	65
 2098 0575 88       		.byte	-120
 2099 0576 45       		.byte	69
 2100 0577 88       		.byte	-120
 2101 0578 47       		.byte	71
 2102 0579 08       		.byte	8
 2103 057a 49       		.byte	73
 2104 057b 09       		.byte	9
 2105 057c 51       		.byte	81
 2106 057d 80       		.byte	-128
 2107 057e 52       		.byte	82
 2108 057f 10       		.byte	16
 2109 0580 53       		.byte	83
 2110 0581 10       		.byte	16
 2111 0582 5C       		.byte	92
 2112 0583 80       		.byte	-128
 2113 0584 5D       		.byte	93
 2114 0585 10       		.byte	16
 2115 0586 67       		.byte	103
 2116 0587 0A       		.byte	10
 2117 0588 73       		.byte	115
 2118 0589 40       		.byte	64
 2119 058a 7C       		.byte	124
 2120 058b 80       		.byte	-128
 2121 058c 82       		.byte	-126
 2122 058d 05       		.byte	5
 2123 058e 87       		.byte	-121
 2124 058f 40       		.byte	64
 2125 0590 89       		.byte	-119
 2126 0591 14       		.byte	20
 2127 0592 8A       		.byte	-118
 2128 0593 40       		.byte	64
 2129 0594 90       		.byte	-112
 2130 0595 20       		.byte	32
 2131 0596 91       		.byte	-111
 2132 0597 40       		.byte	64
 2133 0598 94       		.byte	-108
ARM GAS  C:\Users\xavieran\AppData\Local\Temp\ccKklXac.s 			page 85


 2134 0599 04       		.byte	4
 2135 059a 95       		.byte	-107
 2136 059b 10       		.byte	16
 2137 059c 96       		.byte	-106
 2138 059d 44       		.byte	68
 2139 059e 97       		.byte	-105
 2140 059f 0A       		.byte	10
 2141 05a0 98       		.byte	-104
 2142 05a1 80       		.byte	-128
 2143 05a2 9B       		.byte	-101
 2144 05a3 08       		.byte	8
 2145 05a4 9D       		.byte	-99
 2146 05a5 0D       		.byte	13
 2147 05a6 9E       		.byte	-98
 2148 05a7 10       		.byte	16
 2149 05a8 A3       		.byte	-93
 2150 05a9 0A       		.byte	10
 2151 05aa A4       		.byte	-92
 2152 05ab 20       		.byte	32
 2153 05ac A6       		.byte	-90
 2154 05ad C0       		.byte	-64
 2155 05ae A8       		.byte	-88
 2156 05af 90       		.byte	-112
 2157 05b0 B6       		.byte	-74
 2158 05b1 04       		.byte	4
 2159 05b2 C0       		.byte	-64
 2160 05b3 94       		.byte	-108
 2161 05b4 C2       		.byte	-62
 2162 05b5 05       		.byte	5
 2163 05b6 C4       		.byte	-60
 2164 05b7 04       		.byte	4
 2165 05b8 CA       		.byte	-54
 2166 05b9 1F       		.byte	31
 2167 05ba CC       		.byte	-52
 2168 05bb 0F       		.byte	15
 2169 05bc CE       		.byte	-50
 2170 05bd 1F       		.byte	31
 2171 05be D0       		.byte	-48
 2172 05bf 5A       		.byte	90
 2173 05c0 D6       		.byte	-42
 2174 05c1 30       		.byte	48
 2175 05c2 D8       		.byte	-40
 2176 05c3 30       		.byte	48
 2177 05c4 DE       		.byte	-34
 2178 05c5 10       		.byte	16
 2179 05c6 E0       		.byte	-32
 2180 05c7 80       		.byte	-128
 2181 05c8 E2       		.byte	-30
 2182 05c9 0D       		.byte	13
 2183 05ca E6       		.byte	-26
 2184 05cb 08       		.byte	8
 2185 05cc EA       		.byte	-22
 2186 05cd 0C       		.byte	12
 2187 05ce 00       		.byte	0
 2188 05cf 1F       		.byte	31
 2189 05d0 04       		.byte	4
 2190 05d1 02       		.byte	2
ARM GAS  C:\Users\xavieran\AppData\Local\Temp\ccKklXac.s 			page 86


 2191 05d2 06       		.byte	6
 2192 05d3 09       		.byte	9
 2193 05d4 08       		.byte	8
 2194 05d5 03       		.byte	3
 2195 05d6 0C       		.byte	12
 2196 05d7 0F       		.byte	15
 2197 05d8 10       		.byte	16
 2198 05d9 10       		.byte	16
 2199 05da 11       		.byte	17
 2200 05db 01       		.byte	1
 2201 05dc 12       		.byte	18
 2202 05dd 0B       		.byte	11
 2203 05de 14       		.byte	20
 2204 05df 01       		.byte	1
 2205 05e0 19       		.byte	25
 2206 05e1 01       		.byte	1
 2207 05e2 1A       		.byte	26
 2208 05e3 14       		.byte	20
 2209 05e4 1D       		.byte	29
 2210 05e5 01       		.byte	1
 2211 05e6 1E       		.byte	30
 2212 05e7 0B       		.byte	11
 2213 05e8 20       		.byte	32
 2214 05e9 08       		.byte	8
 2215 05ea 22       		.byte	34
 2216 05eb 02       		.byte	2
 2217 05ec 24       		.byte	36
 2218 05ed 01       		.byte	1
 2219 05ee 2A       		.byte	42
 2220 05ef 01       		.byte	1
 2221 05f0 2C       		.byte	44
 2222 05f1 03       		.byte	3
 2223 05f2 33       		.byte	51
 2224 05f3 01       		.byte	1
 2225 05f4 36       		.byte	54
 2226 05f5 1F       		.byte	31
 2227 05f6 39       		.byte	57
 2228 05f7 08       		.byte	8
 2229 05f8 58       		.byte	88
 2230 05f9 04       		.byte	4
 2231 05fa 59       		.byte	89
 2232 05fb 04       		.byte	4
 2233 05fc 5C       		.byte	92
 2234 05fd 22       		.byte	34
 2235 05fe 5F       		.byte	95
 2236 05ff 01       		.byte	1
 2237 0600 81       		.byte	-127
 2238 0601 1A       		.byte	26
 2239 0602 82       		.byte	-126
 2240 0603 10       		.byte	16
 2241 0604 83       		.byte	-125
 2242 0605 60       		.byte	96
 2243 0606 84       		.byte	-124
 2244 0607 05       		.byte	5
 2245 0608 85       		.byte	-123
 2246 0609 4D       		.byte	77
 2247 060a 86       		.byte	-122
ARM GAS  C:\Users\xavieran\AppData\Local\Temp\ccKklXac.s 			page 87


 2248 060b 0A       		.byte	10
 2249 060c 87       		.byte	-121
 2250 060d 92       		.byte	-110
 2251 060e 8B       		.byte	-117
 2252 060f 02       		.byte	2
 2253 0610 8C       		.byte	-116
 2254 0611 06       		.byte	6
 2255 0612 8D       		.byte	-115
 2256 0613 02       		.byte	2
 2257 0614 90       		.byte	-112
 2258 0615 01       		.byte	1
 2259 0616 92       		.byte	-110
 2260 0617 04       		.byte	4
 2261 0618 93       		.byte	-109
 2262 0619 01       		.byte	1
 2263 061a 97       		.byte	-105
 2264 061b B5       		.byte	-75
 2265 061c 99       		.byte	-103
 2266 061d A9       		.byte	-87
 2267 061e 9A       		.byte	-102
 2268 061f 02       		.byte	2
 2269 0620 9B       		.byte	-101
 2270 0621 54       		.byte	84
 2271 0622 9C       		.byte	-100
 2272 0623 01       		.byte	1
 2273 0624 9D       		.byte	-99
 2274 0625 CC       		.byte	-52
 2275 0626 9E       		.byte	-98
 2276 0627 02       		.byte	2
 2277 0628 9F       		.byte	-97
 2278 0629 13       		.byte	19
 2279 062a A1       		.byte	-95
 2280 062b FF       		.byte	-1
 2281 062c A4       		.byte	-92
 2282 062d 01       		.byte	1
 2283 062e A5       		.byte	-91
 2284 062f A5       		.byte	-91
 2285 0630 A6       		.byte	-90
 2286 0631 02       		.byte	2
 2287 0632 A7       		.byte	-89
 2288 0633 4A       		.byte	74
 2289 0634 A8       		.byte	-88
 2290 0635 08       		.byte	8
 2291 0636 A9       		.byte	-87
 2292 0637 04       		.byte	4
 2293 0638 AA       		.byte	-86
 2294 0639 05       		.byte	5
 2295 063a AC       		.byte	-84
 2296 063b 0F       		.byte	15
 2297 063c AF       		.byte	-81
 2298 063d 04       		.byte	4
 2299 063e B2       		.byte	-78
 2300 063f 1F       		.byte	31
 2301 0640 B7       		.byte	-73
 2302 0641 FF       		.byte	-1
 2303 0642 BF       		.byte	-65
 2304 0643 40       		.byte	64
ARM GAS  C:\Users\xavieran\AppData\Local\Temp\ccKklXac.s 			page 88


 2305 0644 D2       		.byte	-46
 2306 0645 F6       		.byte	-10
 2307 0646 D8       		.byte	-40
 2308 0647 04       		.byte	4
 2309 0648 D9       		.byte	-39
 2310 0649 04       		.byte	4
 2311 064a DB       		.byte	-37
 2312 064b 04       		.byte	4
 2313 064c DC       		.byte	-36
 2314 064d 02       		.byte	2
 2315 064e DD       		.byte	-35
 2316 064f 20       		.byte	32
 2317 0650 DF       		.byte	-33
 2318 0651 01       		.byte	1
 2319 0652 00       		.byte	0
 2320 0653 02       		.byte	2
 2321 0654 01       		.byte	1
 2322 0655 48       		.byte	72
 2323 0656 05       		.byte	5
 2324 0657 09       		.byte	9
 2325 0658 06       		.byte	6
 2326 0659 0A       		.byte	10
 2327 065a 08       		.byte	8
 2328 065b 40       		.byte	64
 2329 065c 0B       		.byte	11
 2330 065d 88       		.byte	-120
 2331 065e 0C       		.byte	12
 2332 065f 60       		.byte	96
 2333 0660 0E       		.byte	14
 2334 0661 40       		.byte	64
 2335 0662 0F       		.byte	15
 2336 0663 10       		.byte	16
 2337 0664 11       		.byte	17
 2338 0665 04       		.byte	4
 2339 0666 12       		.byte	18
 2340 0667 09       		.byte	9
 2341 0668 15       		.byte	21
 2342 0669 82       		.byte	-126
 2343 066a 17       		.byte	23
 2344 066b 18       		.byte	24
 2345 066c 19       		.byte	25
 2346 066d 08       		.byte	8
 2347 066e 1B       		.byte	27
 2348 066f 08       		.byte	8
 2349 0670 1E       		.byte	30
 2350 0671 02       		.byte	2
 2351 0672 1F       		.byte	31
 2352 0673 40       		.byte	64
 2353 0674 20       		.byte	32
 2354 0675 02       		.byte	2
 2355 0676 24       		.byte	36
 2356 0677 20       		.byte	32
 2357 0678 26       		.byte	38
 2358 0679 08       		.byte	8
 2359 067a 29       		.byte	41
 2360 067b 59       		.byte	89
 2361 067c 2A       		.byte	42
ARM GAS  C:\Users\xavieran\AppData\Local\Temp\ccKklXac.s 			page 89


 2362 067d 01       		.byte	1
 2363 067e 2D       		.byte	45
 2364 067f 20       		.byte	32
 2365 0680 2F       		.byte	47
 2366 0681 04       		.byte	4
 2367 0682 30       		.byte	48
 2368 0683 62       		.byte	98
 2369 0684 32       		.byte	50
 2370 0685 28       		.byte	40
 2371 0686 35       		.byte	53
 2372 0687 01       		.byte	1
 2373 0688 36       		.byte	54
 2374 0689 90       		.byte	-112
 2375 068a 39       		.byte	57
 2376 068b 80       		.byte	-128
 2377 068c 3A       		.byte	58
 2378 068d 02       		.byte	2
 2379 068e 3B       		.byte	59
 2380 068f 18       		.byte	24
 2381 0690 68       		.byte	104
 2382 0691 04       		.byte	4
 2383 0692 6B       		.byte	107
 2384 0693 10       		.byte	16
 2385 0694 70       		.byte	112
 2386 0695 42       		.byte	66
 2387 0696 71       		.byte	113
 2388 0697 50       		.byte	80
 2389 0698 73       		.byte	115
 2390 0699 18       		.byte	24
 2391 069a 78       		.byte	120
 2392 069b 20       		.byte	32
 2393 069c 7A       		.byte	122
 2394 069d 08       		.byte	8
 2395 069e 81       		.byte	-127
 2396 069f 40       		.byte	64
 2397 06a0 82       		.byte	-126
 2398 06a1 02       		.byte	2
 2399 06a2 83       		.byte	-125
 2400 06a3 10       		.byte	16
 2401 06a4 87       		.byte	-121
 2402 06a5 10       		.byte	16
 2403 06a6 89       		.byte	-119
 2404 06a7 20       		.byte	32
 2405 06a8 8B       		.byte	-117
 2406 06a9 08       		.byte	8
 2407 06aa 91       		.byte	-111
 2408 06ab 07       		.byte	7
 2409 06ac 92       		.byte	-110
 2410 06ad 04       		.byte	4
 2411 06ae 94       		.byte	-108
 2412 06af A0       		.byte	-96
 2413 06b0 97       		.byte	-105
 2414 06b1 90       		.byte	-112
 2415 06b2 99       		.byte	-103
 2416 06b3 21       		.byte	33
 2417 06b4 9A       		.byte	-102
 2418 06b5 08       		.byte	8
ARM GAS  C:\Users\xavieran\AppData\Local\Temp\ccKklXac.s 			page 90


 2419 06b6 9C       		.byte	-100
 2420 06b7 60       		.byte	96
 2421 06b8 9D       		.byte	-99
 2422 06b9 10       		.byte	16
 2423 06ba A0       		.byte	-96
 2424 06bb 40       		.byte	64
 2425 06bc A4       		.byte	-92
 2426 06bd 04       		.byte	4
 2427 06be A5       		.byte	-91
 2428 06bf 20       		.byte	32
 2429 06c0 A6       		.byte	-90
 2430 06c1 92       		.byte	-110
 2431 06c2 A7       		.byte	-89
 2432 06c3 08       		.byte	8
 2433 06c4 A9       		.byte	-87
 2434 06c5 01       		.byte	1
 2435 06c6 B1       		.byte	-79
 2436 06c7 21       		.byte	33
 2437 06c8 B2       		.byte	-78
 2438 06c9 20       		.byte	32
 2439 06ca B3       		.byte	-77
 2440 06cb 40       		.byte	64
 2441 06cc B6       		.byte	-74
 2442 06cd 12       		.byte	18
 2443 06ce C0       		.byte	-64
 2444 06cf FD       		.byte	-3
 2445 06d0 C2       		.byte	-62
 2446 06d1 FB       		.byte	-5
 2447 06d2 C4       		.byte	-60
 2448 06d3 F7       		.byte	-9
 2449 06d4 CA       		.byte	-54
 2450 06d5 0F       		.byte	15
 2451 06d6 CC       		.byte	-52
 2452 06d7 BF       		.byte	-65
 2453 06d8 CE       		.byte	-50
 2454 06d9 0F       		.byte	15
 2455 06da E2       		.byte	-30
 2456 06db 20       		.byte	32
 2457 06dc E6       		.byte	-26
 2458 06dd 88       		.byte	-120
 2459 06de E8       		.byte	-24
 2460 06df 40       		.byte	64
 2461 06e0 EA       		.byte	-22
 2462 06e1 08       		.byte	8
 2463 06e2 01       		.byte	1
 2464 06e3 40       		.byte	64
 2465 06e4 03       		.byte	3
 2466 06e5 1D       		.byte	29
 2467 06e6 04       		.byte	4
 2468 06e7 01       		.byte	1
 2469 06e8 05       		.byte	5
 2470 06e9 0D       		.byte	13
 2471 06ea 09       		.byte	9
 2472 06eb 01       		.byte	1
 2473 06ec 0F       		.byte	15
 2474 06ed 02       		.byte	2
 2475 06ee 13       		.byte	19
ARM GAS  C:\Users\xavieran\AppData\Local\Temp\ccKklXac.s 			page 91


 2476 06ef 08       		.byte	8
 2477 06f0 15       		.byte	21
 2478 06f1 04       		.byte	4
 2479 06f2 17       		.byte	23
 2480 06f3 E0       		.byte	-32
 2481 06f4 19       		.byte	25
 2482 06f5 01       		.byte	1
 2483 06f6 1D       		.byte	29
 2484 06f7 E2       		.byte	-30
 2485 06f8 21       		.byte	33
 2486 06f9 92       		.byte	-110
 2487 06fa 23       		.byte	35
 2488 06fb 60       		.byte	96
 2489 06fc 27       		.byte	39
 2490 06fd FF       		.byte	-1
 2491 06fe 29       		.byte	41
 2492 06ff 5D       		.byte	93
 2493 0700 2B       		.byte	43
 2494 0701 A2       		.byte	-94
 2495 0702 2D       		.byte	45
 2496 0703 3D       		.byte	61
 2497 0704 2F       		.byte	47
 2498 0705 C2       		.byte	-62
 2499 0706 30       		.byte	48
 2500 0707 01       		.byte	1
 2501 0708 31       		.byte	49
 2502 0709 FF       		.byte	-1
 2503 070a 3F       		.byte	63
 2504 070b 01       		.byte	1
 2505 070c 40       		.byte	64
 2506 070d 64       		.byte	100
 2507 070e 41       		.byte	65
 2508 070f 01       		.byte	1
 2509 0710 49       		.byte	73
 2510 0711 FF       		.byte	-1
 2511 0712 4A       		.byte	74
 2512 0713 FF       		.byte	-1
 2513 0714 4B       		.byte	75
 2514 0715 FF       		.byte	-1
 2515 0716 4F       		.byte	79
 2516 0717 01       		.byte	1
 2517 0718 50       		.byte	80
 2518 0719 18       		.byte	24
 2519 071a 58       		.byte	88
 2520 071b 04       		.byte	4
 2521 071c 59       		.byte	89
 2522 071d 04       		.byte	4
 2523 071e 5A       		.byte	90
 2524 071f 04       		.byte	4
 2525 0720 5C       		.byte	92
 2526 0721 02       		.byte	2
 2527 0722 5D       		.byte	93
 2528 0723 04       		.byte	4
 2529 0724 5F       		.byte	95
 2530 0725 01       		.byte	1
 2531 0726 60       		.byte	96
 2532 0727 40       		.byte	64
ARM GAS  C:\Users\xavieran\AppData\Local\Temp\ccKklXac.s 			page 92


 2533 0728 62       		.byte	98
 2534 0729 40       		.byte	64
 2535 072a 64       		.byte	100
 2536 072b 40       		.byte	64
 2537 072c 65       		.byte	101
 2538 072d 40       		.byte	64
 2539 072e 66       		.byte	102
 2540 072f 80       		.byte	-128
 2541 0730 68       		.byte	104
 2542 0731 80       		.byte	-128
 2543 0732 6A       		.byte	106
 2544 0733 80       		.byte	-128
 2545 0734 6C       		.byte	108
 2546 0735 80       		.byte	-128
 2547 0736 6E       		.byte	110
 2548 0737 80       		.byte	-128
 2549 0738 80       		.byte	-128
 2550 0739 1F       		.byte	31
 2551 073a 84       		.byte	-124
 2552 073b 01       		.byte	1
 2553 073c 86       		.byte	-122
 2554 073d 1E       		.byte	30
 2555 073e 88       		.byte	-120
 2556 073f 0A       		.byte	10
 2557 0740 8A       		.byte	-118
 2558 0741 10       		.byte	16
 2559 0742 8C       		.byte	-116
 2560 0743 02       		.byte	2
 2561 0744 90       		.byte	-112
 2562 0745 01       		.byte	1
 2563 0746 91       		.byte	-111
 2564 0747 01       		.byte	1
 2565 0748 96       		.byte	-106
 2566 0749 20       		.byte	32
 2567 074a 98       		.byte	-104
 2568 074b 04       		.byte	4
 2569 074c 99       		.byte	-103
 2570 074d 01       		.byte	1
 2571 074e 9C       		.byte	-100
 2572 074f 12       		.byte	18
 2573 0750 9E       		.byte	-98
 2574 0751 08       		.byte	8
 2575 0752 A0       		.byte	-96
 2576 0753 06       		.byte	6
 2577 0754 A4       		.byte	-92
 2578 0755 02       		.byte	2
 2579 0756 A6       		.byte	-90
 2580 0757 18       		.byte	24
 2581 0758 A8       		.byte	-88
 2582 0759 18       		.byte	24
 2583 075a AA       		.byte	-86
 2584 075b 06       		.byte	6
 2585 075c AC       		.byte	-84
 2586 075d 1C       		.byte	28
 2587 075e AE       		.byte	-82
 2588 075f 02       		.byte	2
 2589 0760 B0       		.byte	-80
ARM GAS  C:\Users\xavieran\AppData\Local\Temp\ccKklXac.s 			page 93


 2590 0761 1F       		.byte	31
 2591 0762 B3       		.byte	-77
 2592 0763 01       		.byte	1
 2593 0764 B4       		.byte	-76
 2594 0765 20       		.byte	32
 2595 0766 B8       		.byte	-72
 2596 0767 02       		.byte	2
 2597 0768 B9       		.byte	-71
 2598 0769 08       		.byte	8
 2599 076a C0       		.byte	-64
 2600 076b 64       		.byte	100
 2601 076c C1       		.byte	-63
 2602 076d 01       		.byte	1
 2603 076e C5       		.byte	-59
 2604 076f EC       		.byte	-20
 2605 0770 C7       		.byte	-57
 2606 0771 20       		.byte	32
 2607 0772 C8       		.byte	-56
 2608 0773 23       		.byte	35
 2609 0774 C9       		.byte	-55
 2610 0775 FF       		.byte	-1
 2611 0776 CA       		.byte	-54
 2612 0777 FF       		.byte	-1
 2613 0778 CB       		.byte	-53
 2614 0779 FF       		.byte	-1
 2615 077a CD       		.byte	-51
 2616 077b 83       		.byte	-125
 2617 077c CE       		.byte	-50
 2618 077d 03       		.byte	3
 2619 077e CF       		.byte	-49
 2620 077f 01       		.byte	1
 2621 0780 D0       		.byte	-48
 2622 0781 18       		.byte	24
 2623 0782 D4       		.byte	-44
 2624 0783 01       		.byte	1
 2625 0784 D8       		.byte	-40
 2626 0785 04       		.byte	4
 2627 0786 D9       		.byte	-39
 2628 0787 04       		.byte	4
 2629 0788 DA       		.byte	-38
 2630 0789 04       		.byte	4
 2631 078a DB       		.byte	-37
 2632 078b 04       		.byte	4
 2633 078c DC       		.byte	-36
 2634 078d 22       		.byte	34
 2635 078e DD       		.byte	-35
 2636 078f 44       		.byte	68
 2637 0790 DF       		.byte	-33
 2638 0791 05       		.byte	5
 2639 0792 E0       		.byte	-32
 2640 0793 40       		.byte	64
 2641 0794 E2       		.byte	-30
 2642 0795 40       		.byte	64
 2643 0796 E4       		.byte	-28
 2644 0797 40       		.byte	64
 2645 0798 E5       		.byte	-27
 2646 0799 40       		.byte	64
ARM GAS  C:\Users\xavieran\AppData\Local\Temp\ccKklXac.s 			page 94


 2647 079a E6       		.byte	-26
 2648 079b 80       		.byte	-128
 2649 079c E8       		.byte	-24
 2650 079d 80       		.byte	-128
 2651 079e EA       		.byte	-22
 2652 079f 80       		.byte	-128
 2653 07a0 EC       		.byte	-20
 2654 07a1 80       		.byte	-128
 2655 07a2 EE       		.byte	-18
 2656 07a3 80       		.byte	-128
 2657 07a4 00       		.byte	0
 2658 07a5 08       		.byte	8
 2659 07a6 04       		.byte	4
 2660 07a7 80       		.byte	-128
 2661 07a8 05       		.byte	5
 2662 07a9 21       		.byte	33
 2663 07aa 07       		.byte	7
 2664 07ab 10       		.byte	16
 2665 07ac 0C       		.byte	12
 2666 07ad 60       		.byte	96
 2667 07ae 0E       		.byte	14
 2668 07af 50       		.byte	80
 2669 07b0 14       		.byte	20
 2670 07b1 0A       		.byte	10
 2671 07b2 17       		.byte	23
 2672 07b3 05       		.byte	5
 2673 07b4 19       		.byte	25
 2674 07b5 01       		.byte	1
 2675 07b6 1A       		.byte	26
 2676 07b7 80       		.byte	-128
 2677 07b8 1E       		.byte	30
 2678 07b9 48       		.byte	72
 2679 07ba 22       		.byte	34
 2680 07bb 01       		.byte	1
 2681 07bc 27       		.byte	39
 2682 07bd 10       		.byte	16
 2683 07be 28       		.byte	40
 2684 07bf 6A       		.byte	106
 2685 07c0 29       		.byte	41
 2686 07c1 40       		.byte	64
 2687 07c2 2A       		.byte	42
 2688 07c3 20       		.byte	32
 2689 07c4 31       		.byte	49
 2690 07c5 10       		.byte	16
 2691 07c6 32       		.byte	50
 2692 07c7 42       		.byte	66
 2693 07c8 33       		.byte	51
 2694 07c9 0D       		.byte	13
 2695 07ca 34       		.byte	52
 2696 07cb 20       		.byte	32
 2697 07cc 35       		.byte	53
 2698 07cd 01       		.byte	1
 2699 07ce 38       		.byte	56
 2700 07cf 80       		.byte	-128
 2701 07d0 39       		.byte	57
 2702 07d1 06       		.byte	6
 2703 07d2 3A       		.byte	58
ARM GAS  C:\Users\xavieran\AppData\Local\Temp\ccKklXac.s 			page 95


 2704 07d3 08       		.byte	8
 2705 07d4 3B       		.byte	59
 2706 07d5 10       		.byte	16
 2707 07d6 42       		.byte	66
 2708 07d7 02       		.byte	2
 2709 07d8 43       		.byte	67
 2710 07d9 02       		.byte	2
 2711 07da 45       		.byte	69
 2712 07db 01       		.byte	1
 2713 07dc 46       		.byte	70
 2714 07dd 02       		.byte	2
 2715 07de 4A       		.byte	74
 2716 07df 08       		.byte	8
 2717 07e0 4D       		.byte	77
 2718 07e1 02       		.byte	2
 2719 07e2 4E       		.byte	78
 2720 07e3 08       		.byte	8
 2721 07e4 4F       		.byte	79
 2722 07e5 04       		.byte	4
 2723 07e6 55       		.byte	85
 2724 07e7 01       		.byte	1
 2725 07e8 57       		.byte	87
 2726 07e9 02       		.byte	2
 2727 07ea 5D       		.byte	93
 2728 07eb 42       		.byte	66
 2729 07ec 5F       		.byte	95
 2730 07ed 04       		.byte	4
 2731 07ee 7E       		.byte	126
 2732 07ef 10       		.byte	16
 2733 07f0 82       		.byte	-126
 2734 07f1 08       		.byte	8
 2735 07f2 8E       		.byte	-114
 2736 07f3 44       		.byte	68
 2737 07f4 91       		.byte	-111
 2738 07f5 41       		.byte	65
 2739 07f6 92       		.byte	-110
 2740 07f7 14       		.byte	20
 2741 07f8 94       		.byte	-108
 2742 07f9 20       		.byte	32
 2743 07fa 96       		.byte	-106
 2744 07fb 02       		.byte	2
 2745 07fc 97       		.byte	-105
 2746 07fd 80       		.byte	-128
 2747 07fe 99       		.byte	-103
 2748 07ff 60       		.byte	96
 2749 0800 9A       		.byte	-102
 2750 0801 08       		.byte	8
 2751 0802 9C       		.byte	-100
 2752 0803 60       		.byte	96
 2753 0804 9D       		.byte	-99
 2754 0805 01       		.byte	1
 2755 0806 A0       		.byte	-96
 2756 0807 60       		.byte	96
 2757 0808 A2       		.byte	-94
 2758 0809 08       		.byte	8
 2759 080a A5       		.byte	-91
 2760 080b 20       		.byte	32
ARM GAS  C:\Users\xavieran\AppData\Local\Temp\ccKklXac.s 			page 96


 2761 080c A6       		.byte	-90
 2762 080d 90       		.byte	-112
 2763 080e A7       		.byte	-89
 2764 080f 0A       		.byte	10
 2765 0810 A8       		.byte	-88
 2766 0811 80       		.byte	-128
 2767 0812 AB       		.byte	-85
 2768 0813 40       		.byte	64
 2769 0814 B2       		.byte	-78
 2770 0815 08       		.byte	8
 2771 0816 B6       		.byte	-74
 2772 0817 41       		.byte	65
 2773 0818 C0       		.byte	-64
 2774 0819 F4       		.byte	-12
 2775 081a C2       		.byte	-62
 2776 081b F0       		.byte	-16
 2777 081c C4       		.byte	-60
 2778 081d F0       		.byte	-16
 2779 081e CA       		.byte	-54
 2780 081f 0F       		.byte	15
 2781 0820 CC       		.byte	-52
 2782 0821 AF       		.byte	-81
 2783 0822 CE       		.byte	-50
 2784 0823 0F       		.byte	15
 2785 0824 D0       		.byte	-48
 2786 0825 99       		.byte	-103
 2787 0826 D2       		.byte	-46
 2788 0827 24       		.byte	36
 2789 0828 D6       		.byte	-42
 2790 0829 D0       		.byte	-48
 2791 082a DE       		.byte	-34
 2792 082b 40       		.byte	64
 2793 082c E2       		.byte	-30
 2794 082d 48       		.byte	72
 2795 082e E8       		.byte	-24
 2796 082f 10       		.byte	16
 2797 0830 EA       		.byte	-22
 2798 0831 04       		.byte	4
 2799 0832 EC       		.byte	-20
 2800 0833 80       		.byte	-128
 2801 0834 EE       		.byte	-18
 2802 0835 01       		.byte	1
 2803 0836 06       		.byte	6
 2804 0837 02       		.byte	2
 2805 0838 07       		.byte	7
 2806 0839 02       		.byte	2
 2807 083a 0B       		.byte	11
 2808 083b 02       		.byte	2
 2809 083c 12       		.byte	18
 2810 083d 04       		.byte	4
 2811 083e 13       		.byte	19
 2812 083f 01       		.byte	1
 2813 0840 16       		.byte	22
 2814 0841 02       		.byte	2
 2815 0842 1A       		.byte	26
 2816 0843 01       		.byte	1
 2817 0844 24       		.byte	36
ARM GAS  C:\Users\xavieran\AppData\Local\Temp\ccKklXac.s 			page 97


 2818 0845 01       		.byte	1
 2819 0846 2F       		.byte	47
 2820 0847 01       		.byte	1
 2821 0848 30       		.byte	48
 2822 0849 01       		.byte	1
 2823 084a 32       		.byte	50
 2824 084b 04       		.byte	4
 2825 084c 34       		.byte	52
 2826 084d 02       		.byte	2
 2827 084e 35       		.byte	53
 2828 084f 02       		.byte	2
 2829 0850 37       		.byte	55
 2830 0851 01       		.byte	1
 2831 0852 3E       		.byte	62
 2832 0853 10       		.byte	16
 2833 0854 3F       		.byte	63
 2834 0855 40       		.byte	64
 2835 0856 40       		.byte	64
 2836 0857 30       		.byte	48
 2837 0858 41       		.byte	65
 2838 0859 06       		.byte	6
 2839 085a 49       		.byte	73
 2840 085b FF       		.byte	-1
 2841 085c 4A       		.byte	74
 2842 085d FF       		.byte	-1
 2843 085e 4B       		.byte	75
 2844 085f FF       		.byte	-1
 2845 0860 4D       		.byte	77
 2846 0861 A0       		.byte	-96
 2847 0862 4F       		.byte	79
 2848 0863 04       		.byte	4
 2849 0864 50       		.byte	80
 2850 0865 18       		.byte	24
 2851 0866 52       		.byte	82
 2852 0867 80       		.byte	-128
 2853 0868 54       		.byte	84
 2854 0869 05       		.byte	5
 2855 086a 58       		.byte	88
 2856 086b 04       		.byte	4
 2857 086c 59       		.byte	89
 2858 086d 04       		.byte	4
 2859 086e 5A       		.byte	90
 2860 086f 04       		.byte	4
 2861 0870 5B       		.byte	91
 2862 0871 04       		.byte	4
 2863 0872 5C       		.byte	92
 2864 0873 55       		.byte	85
 2865 0874 5D       		.byte	93
 2866 0875 55       		.byte	85
 2867 0876 5F       		.byte	95
 2868 0877 01       		.byte	1
 2869 0878 60       		.byte	96
 2870 0879 40       		.byte	64
 2871 087a 62       		.byte	98
 2872 087b C0       		.byte	-64
 2873 087c 64       		.byte	100
 2874 087d 40       		.byte	64
ARM GAS  C:\Users\xavieran\AppData\Local\Temp\ccKklXac.s 			page 98


 2875 087e 65       		.byte	101
 2876 087f 40       		.byte	64
 2877 0880 66       		.byte	102
 2878 0881 C0       		.byte	-64
 2879 0882 68       		.byte	104
 2880 0883 C0       		.byte	-64
 2881 0884 6A       		.byte	106
 2882 0885 C0       		.byte	-64
 2883 0886 6C       		.byte	108
 2884 0887 C0       		.byte	-64
 2885 0888 6E       		.byte	110
 2886 0889 C0       		.byte	-64
 2887 088a 81       		.byte	-127
 2888 088b 01       		.byte	1
 2889 088c 83       		.byte	-125
 2890 088d 06       		.byte	6
 2891 088e 8A       		.byte	-118
 2892 088f 03       		.byte	3
 2893 0890 8B       		.byte	-117
 2894 0891 03       		.byte	3
 2895 0892 8F       		.byte	-113
 2896 0893 03       		.byte	3
 2897 0894 91       		.byte	-111
 2898 0895 01       		.byte	1
 2899 0896 92       		.byte	-110
 2900 0897 01       		.byte	1
 2901 0898 93       		.byte	-109
 2902 0899 04       		.byte	4
 2903 089a 97       		.byte	-105
 2904 089b 03       		.byte	3
 2905 089c 99       		.byte	-103
 2906 089d 02       		.byte	2
 2907 089e 9A       		.byte	-102
 2908 089f 01       		.byte	1
 2909 08a0 9B       		.byte	-101
 2910 08a1 01       		.byte	1
 2911 08a2 9E       		.byte	-98
 2912 08a3 04       		.byte	4
 2913 08a4 9F       		.byte	-97
 2914 08a5 03       		.byte	3
 2915 08a6 A1       		.byte	-95
 2916 08a7 03       		.byte	3
 2917 08a8 A2       		.byte	-94
 2918 08a9 01       		.byte	1
 2919 08aa A9       		.byte	-87
 2920 08ab 03       		.byte	3
 2921 08ac AE       		.byte	-82
 2922 08ad 02       		.byte	2
 2923 08ae B1       		.byte	-79
 2924 08af 07       		.byte	7
 2925 08b0 B4       		.byte	-76
 2926 08b1 07       		.byte	7
 2927 08b2 BA       		.byte	-70
 2928 08b3 20       		.byte	32
 2929 08b4 BB       		.byte	-69
 2930 08b5 02       		.byte	2
 2931 08b6 C0       		.byte	-64
ARM GAS  C:\Users\xavieran\AppData\Local\Temp\ccKklXac.s 			page 99


 2932 08b7 30       		.byte	48
 2933 08b8 C1       		.byte	-63
 2934 08b9 06       		.byte	6
 2935 08ba C5       		.byte	-59
 2936 08bb D1       		.byte	-47
 2937 08bc C7       		.byte	-57
 2938 08bd 02       		.byte	2
 2939 08be C8       		.byte	-56
 2940 08bf 13       		.byte	19
 2941 08c0 C9       		.byte	-55
 2942 08c1 FF       		.byte	-1
 2943 08c2 CA       		.byte	-54
 2944 08c3 FF       		.byte	-1
 2945 08c4 CB       		.byte	-53
 2946 08c5 FF       		.byte	-1
 2947 08c6 CD       		.byte	-51
 2948 08c7 AF       		.byte	-81
 2949 08c8 CE       		.byte	-50
 2950 08c9 0F       		.byte	15
 2951 08ca CF       		.byte	-49
 2952 08cb 04       		.byte	4
 2953 08cc D0       		.byte	-48
 2954 08cd 18       		.byte	24
 2955 08ce D6       		.byte	-42
 2956 08cf 08       		.byte	8
 2957 08d0 D8       		.byte	-40
 2958 08d1 04       		.byte	4
 2959 08d2 D9       		.byte	-39
 2960 08d3 04       		.byte	4
 2961 08d4 DA       		.byte	-38
 2962 08d5 04       		.byte	4
 2963 08d6 DB       		.byte	-37
 2964 08d7 04       		.byte	4
 2965 08d8 DC       		.byte	-36
 2966 08d9 22       		.byte	34
 2967 08da DD       		.byte	-35
 2968 08db 95       		.byte	-107
 2969 08dc DF       		.byte	-33
 2970 08dd 01       		.byte	1
 2971 08de E0       		.byte	-32
 2972 08df 40       		.byte	64
 2973 08e0 E2       		.byte	-30
 2974 08e1 C0       		.byte	-64
 2975 08e2 E4       		.byte	-28
 2976 08e3 40       		.byte	64
 2977 08e4 E5       		.byte	-27
 2978 08e5 40       		.byte	64
 2979 08e6 E6       		.byte	-26
 2980 08e7 C0       		.byte	-64
 2981 08e8 E8       		.byte	-24
 2982 08e9 C0       		.byte	-64
 2983 08ea EA       		.byte	-22
 2984 08eb C0       		.byte	-64
 2985 08ec EC       		.byte	-20
 2986 08ed C0       		.byte	-64
 2987 08ee EE       		.byte	-18
 2988 08ef C0       		.byte	-64
ARM GAS  C:\Users\xavieran\AppData\Local\Temp\ccKklXac.s 			page 100


 2989 08f0 01       		.byte	1
 2990 08f1 20       		.byte	32
 2991 08f2 04       		.byte	4
 2992 08f3 08       		.byte	8
 2993 08f4 08       		.byte	8
 2994 08f5 20       		.byte	32
 2995 08f6 0A       		.byte	10
 2996 08f7 02       		.byte	2
 2997 08f8 0B       		.byte	11
 2998 08f9 80       		.byte	-128
 2999 08fa 0C       		.byte	12
 3000 08fb 02       		.byte	2
 3001 08fc 0D       		.byte	13
 3002 08fd 08       		.byte	8
 3003 08fe 0F       		.byte	15
 3004 08ff 04       		.byte	4
 3005 0900 10       		.byte	16
 3006 0901 81       		.byte	-127
 3007 0902 17       		.byte	23
 3008 0903 08       		.byte	8
 3009 0904 19       		.byte	25
 3010 0905 30       		.byte	48
 3011 0906 1C       		.byte	28
 3012 0907 54       		.byte	84
 3013 0908 1D       		.byte	29
 3014 0909 08       		.byte	8
 3015 090a 21       		.byte	33
 3016 090b 01       		.byte	1
 3017 090c 25       		.byte	37
 3018 090d 40       		.byte	64
 3019 090e 26       		.byte	38
 3020 090f 20       		.byte	32
 3021 0910 28       		.byte	40
 3022 0911 40       		.byte	64
 3023 0912 29       		.byte	41
 3024 0913 10       		.byte	16
 3025 0914 2F       		.byte	47
 3026 0915 02       		.byte	2
 3027 0916 30       		.byte	48
 3028 0917 81       		.byte	-127
 3029 0918 31       		.byte	49
 3030 0919 61       		.byte	97
 3031 091a 33       		.byte	51
 3032 091b 08       		.byte	8
 3033 091c 36       		.byte	54
 3034 091d 01       		.byte	1
 3035 091e 38       		.byte	56
 3036 091f 20       		.byte	32
 3037 0920 39       		.byte	57
 3038 0921 03       		.byte	3
 3039 0922 3B       		.byte	59
 3040 0923 80       		.byte	-128
 3041 0924 3C       		.byte	60
 3042 0925 10       		.byte	16
 3043 0926 3D       		.byte	61
 3044 0927 C0       		.byte	-64
 3045 0928 3F       		.byte	63
ARM GAS  C:\Users\xavieran\AppData\Local\Temp\ccKklXac.s 			page 101


 3046 0929 04       		.byte	4
 3047 092a 41       		.byte	65
 3048 092b 08       		.byte	8
 3049 092c 45       		.byte	69
 3050 092d 08       		.byte	8
 3051 092e 48       		.byte	72
 3052 092f 18       		.byte	24
 3053 0930 49       		.byte	73
 3054 0931 02       		.byte	2
 3055 0932 4B       		.byte	75
 3056 0933 04       		.byte	4
 3057 0934 4C       		.byte	76
 3058 0935 04       		.byte	4
 3059 0936 50       		.byte	80
 3060 0937 0C       		.byte	12
 3061 0938 5A       		.byte	90
 3062 0939 40       		.byte	64
 3063 093a 5B       		.byte	91
 3064 093b 10       		.byte	16
 3065 093c 5C       		.byte	92
 3066 093d 44       		.byte	68
 3067 093e 5D       		.byte	93
 3068 093f 02       		.byte	2
 3069 0940 74       		.byte	116
 3070 0941 02       		.byte	2
 3071 0942 83       		.byte	-125
 3072 0943 10       		.byte	16
 3073 0944 86       		.byte	-122
 3074 0945 20       		.byte	32
 3075 0946 87       		.byte	-121
 3076 0947 02       		.byte	2
 3077 0948 89       		.byte	-119
 3078 0949 40       		.byte	64
 3079 094a 8A       		.byte	-118
 3080 094b 02       		.byte	2
 3081 094c 92       		.byte	-110
 3082 094d 14       		.byte	20
 3083 094e 94       		.byte	-108
 3084 094f 20       		.byte	32
 3085 0950 97       		.byte	-105
 3086 0951 80       		.byte	-128
 3087 0952 9A       		.byte	-102
 3088 0953 08       		.byte	8
 3089 0954 9B       		.byte	-101
 3090 0955 08       		.byte	8
 3091 0956 9C       		.byte	-100
 3092 0957 C0       		.byte	-64
 3093 0958 9D       		.byte	-99
 3094 0959 11       		.byte	17
 3095 095a 9E       		.byte	-98
 3096 095b 02       		.byte	2
 3097 095c A0       		.byte	-96
 3098 095d 60       		.byte	96
 3099 095e A4       		.byte	-92
 3100 095f 10       		.byte	16
 3101 0960 A5       		.byte	-91
 3102 0961 20       		.byte	32
ARM GAS  C:\Users\xavieran\AppData\Local\Temp\ccKklXac.s 			page 102


 3103 0962 A6       		.byte	-90
 3104 0963 90       		.byte	-112
 3105 0964 A7       		.byte	-89
 3106 0965 48       		.byte	72
 3107 0966 AB       		.byte	-85
 3108 0967 50       		.byte	80
 3109 0968 B4       		.byte	-76
 3110 0969 20       		.byte	32
 3111 096a B7       		.byte	-73
 3112 096b 01       		.byte	1
 3113 096c C0       		.byte	-64
 3114 096d 22       		.byte	34
 3115 096e C2       		.byte	-62
 3116 096f 7B       		.byte	123
 3117 0970 C4       		.byte	-60
 3118 0971 29       		.byte	41
 3119 0972 CA       		.byte	-54
 3120 0973 15       		.byte	21
 3121 0974 CC       		.byte	-52
 3122 0975 8F       		.byte	-113
 3123 0976 CE       		.byte	-50
 3124 0977 6D       		.byte	109
 3125 0978 D0       		.byte	-48
 3126 0979 42       		.byte	66
 3127 097a D2       		.byte	-46
 3128 097b 24       		.byte	36
 3129 097c D6       		.byte	-42
 3130 097d DC       		.byte	-36
 3131 097e E0       		.byte	-32
 3132 097f 80       		.byte	-128
 3133 0980 E2       		.byte	-30
 3134 0981 04       		.byte	4
 3135 0982 EE       		.byte	-18
 3136 0983 20       		.byte	32
 3137 0984 01       		.byte	1
 3138 0985 02       		.byte	2
 3139 0986 09       		.byte	9
 3140 0987 04       		.byte	4
 3141 0988 0D       		.byte	13
 3142 0989 02       		.byte	2
 3143 098a 19       		.byte	25
 3144 098b 02       		.byte	2
 3145 098c 1A       		.byte	26
 3146 098d 01       		.byte	1
 3147 098e 21       		.byte	33
 3148 098f 02       		.byte	2
 3149 0990 27       		.byte	39
 3150 0991 01       		.byte	1
 3151 0992 29       		.byte	41
 3152 0993 02       		.byte	2
 3153 0994 31       		.byte	49
 3154 0995 07       		.byte	7
 3155 0996 32       		.byte	50
 3156 0997 01       		.byte	1
 3157 0998 39       		.byte	57
 3158 0999 02       		.byte	2
 3159 099a 3F       		.byte	63
ARM GAS  C:\Users\xavieran\AppData\Local\Temp\ccKklXac.s 			page 103


 3160 099b 01       		.byte	1
 3161 099c 42       		.byte	66
 3162 099d 04       		.byte	4
 3163 099e 46       		.byte	70
 3164 099f E0       		.byte	-32
 3165 09a0 48       		.byte	72
 3166 09a1 08       		.byte	8
 3167 09a2 49       		.byte	73
 3168 09a3 FF       		.byte	-1
 3169 09a4 4A       		.byte	74
 3170 09a5 FF       		.byte	-1
 3171 09a6 4B       		.byte	75
 3172 09a7 FF       		.byte	-1
 3173 09a8 4F       		.byte	79
 3174 09a9 83       		.byte	-125
 3175 09aa 58       		.byte	88
 3176 09ab 04       		.byte	4
 3177 09ac 59       		.byte	89
 3178 09ad 04       		.byte	4
 3179 09ae 5A       		.byte	90
 3180 09af 04       		.byte	4
 3181 09b0 5B       		.byte	91
 3182 09b1 04       		.byte	4
 3183 09b2 5C       		.byte	92
 3184 09b3 02       		.byte	2
 3185 09b4 5D       		.byte	93
 3186 09b5 08       		.byte	8
 3187 09b6 5F       		.byte	95
 3188 09b7 01       		.byte	1
 3189 09b8 80       		.byte	-128
 3190 09b9 01       		.byte	1
 3191 09ba 82       		.byte	-126
 3192 09bb 08       		.byte	8
 3193 09bc 88       		.byte	-120
 3194 09bd 03       		.byte	3
 3195 09be 8A       		.byte	-118
 3196 09bf 04       		.byte	4
 3197 09c0 8B       		.byte	-117
 3198 09c1 01       		.byte	1
 3199 09c2 8D       		.byte	-115
 3200 09c3 04       		.byte	4
 3201 09c4 8F       		.byte	-113
 3202 09c5 08       		.byte	8
 3203 09c6 98       		.byte	-104
 3204 09c7 01       		.byte	1
 3205 09c8 99       		.byte	-103
 3206 09c9 02       		.byte	2
 3207 09ca 9A       		.byte	-102
 3208 09cb 0E       		.byte	14
 3209 09cc 9C       		.byte	-100
 3210 09cd 06       		.byte	6
 3211 09ce 9D       		.byte	-99
 3212 09cf 02       		.byte	2
 3213 09d0 9E       		.byte	-98
 3214 09d1 01       		.byte	1
 3215 09d2 A0       		.byte	-96
 3216 09d3 07       		.byte	7
ARM GAS  C:\Users\xavieran\AppData\Local\Temp\ccKklXac.s 			page 104


 3217 09d4 A1       		.byte	-95
 3218 09d5 04       		.byte	4
 3219 09d6 A3       		.byte	-93
 3220 09d7 08       		.byte	8
 3221 09d8 A4       		.byte	-92
 3222 09d9 02       		.byte	2
 3223 09da A6       		.byte	-90
 3224 09db 05       		.byte	5
 3225 09dc AC       		.byte	-84
 3226 09dd 07       		.byte	7
 3227 09de B3       		.byte	-77
 3228 09df 0E       		.byte	14
 3229 09e0 B4       		.byte	-76
 3230 09e1 0F       		.byte	15
 3231 09e2 B5       		.byte	-75
 3232 09e3 01       		.byte	1
 3233 09e4 B9       		.byte	-71
 3234 09e5 08       		.byte	8
 3235 09e6 BA       		.byte	-70
 3236 09e7 20       		.byte	32
 3237 09e8 BF       		.byte	-65
 3238 09e9 04       		.byte	4
 3239 09ea C0       		.byte	-64
 3240 09eb 52       		.byte	82
 3241 09ec C4       		.byte	-60
 3242 09ed 03       		.byte	3
 3243 09ee C6       		.byte	-58
 3244 09ef B0       		.byte	-80
 3245 09f0 C7       		.byte	-57
 3246 09f1 0D       		.byte	13
 3247 09f2 C8       		.byte	-56
 3248 09f3 18       		.byte	24
 3249 09f4 C9       		.byte	-55
 3250 09f5 FF       		.byte	-1
 3251 09f6 CA       		.byte	-54
 3252 09f7 7F       		.byte	127
 3253 09f8 CB       		.byte	-53
 3254 09f9 FF       		.byte	-1
 3255 09fa CC       		.byte	-52
 3256 09fb 42       		.byte	66
 3257 09fc CD       		.byte	-51
 3258 09fd A0       		.byte	-96
 3259 09fe CE       		.byte	-50
 3260 09ff 70       		.byte	112
 3261 0a00 D0       		.byte	-48
 3262 0a01 0C       		.byte	12
 3263 0a02 D8       		.byte	-40
 3264 0a03 04       		.byte	4
 3265 0a04 D9       		.byte	-39
 3266 0a05 04       		.byte	4
 3267 0a06 DA       		.byte	-38
 3268 0a07 04       		.byte	4
 3269 0a08 DC       		.byte	-36
 3270 0a09 52       		.byte	82
 3271 0a0a DD       		.byte	-35
 3272 0a0b 02       		.byte	2
 3273 0a0c DF       		.byte	-33
ARM GAS  C:\Users\xavieran\AppData\Local\Temp\ccKklXac.s 			page 105


 3274 0a0d 01       		.byte	1
 3275 0a0e E1       		.byte	-31
 3276 0a0f 09       		.byte	9
 3277 0a10 E2       		.byte	-30
 3278 0a11 40       		.byte	64
 3279 0a12 E3       		.byte	-29
 3280 0a13 09       		.byte	9
 3281 0a14 E4       		.byte	-28
 3282 0a15 30       		.byte	48
 3283 0a16 E5       		.byte	-27
 3284 0a17 09       		.byte	9
 3285 0a18 05       		.byte	5
 3286 0a19 11       		.byte	17
 3287 0a1a 09       		.byte	9
 3288 0a1b 20       		.byte	32
 3289 0a1c 0C       		.byte	12
 3290 0a1d 40       		.byte	64
 3291 0a1e 0E       		.byte	14
 3292 0a1f 08       		.byte	8
 3293 0a20 16       		.byte	22
 3294 0a21 92       		.byte	-110
 3295 0a22 1A       		.byte	26
 3296 0a23 10       		.byte	16
 3297 0a24 1E       		.byte	30
 3298 0a25 0C       		.byte	12
 3299 0a26 20       		.byte	32
 3300 0a27 80       		.byte	-128
 3301 0a28 23       		.byte	35
 3302 0a29 40       		.byte	64
 3303 0a2a 27       		.byte	39
 3304 0a2b 28       		.byte	40
 3305 0a2c 28       		.byte	40
 3306 0a2d 40       		.byte	64
 3307 0a2e 2A       		.byte	42
 3308 0a2f 18       		.byte	24
 3309 0a30 2B       		.byte	43
 3310 0a31 08       		.byte	8
 3311 0a32 2E       		.byte	46
 3312 0a33 02       		.byte	2
 3313 0a34 31       		.byte	49
 3314 0a35 10       		.byte	16
 3315 0a36 36       		.byte	54
 3316 0a37 90       		.byte	-112
 3317 0a38 38       		.byte	56
 3318 0a39 20       		.byte	32
 3319 0a3a 3A       		.byte	58
 3320 0a3b 82       		.byte	-126
 3321 0a3c 3B       		.byte	59
 3322 0a3d 80       		.byte	-128
 3323 0a3e 3C       		.byte	60
 3324 0a3f 20       		.byte	32
 3325 0a40 3E       		.byte	62
 3326 0a41 80       		.byte	-128
 3327 0a42 40       		.byte	64
 3328 0a43 80       		.byte	-128
 3329 0a44 41       		.byte	65
 3330 0a45 08       		.byte	8
ARM GAS  C:\Users\xavieran\AppData\Local\Temp\ccKklXac.s 			page 106


 3331 0a46 42       		.byte	66
 3332 0a47 10       		.byte	16
 3333 0a48 45       		.byte	69
 3334 0a49 08       		.byte	8
 3335 0a4a 47       		.byte	71
 3336 0a4b 20       		.byte	32
 3337 0a4c 4F       		.byte	79
 3338 0a4d 40       		.byte	64
 3339 0a4e 52       		.byte	82
 3340 0a4f 20       		.byte	32
 3341 0a50 54       		.byte	84
 3342 0a51 20       		.byte	32
 3343 0a52 56       		.byte	86
 3344 0a53 08       		.byte	8
 3345 0a54 58       		.byte	88
 3346 0a55 01       		.byte	1
 3347 0a56 5B       		.byte	91
 3348 0a57 54       		.byte	84
 3349 0a58 60       		.byte	96
 3350 0a59 28       		.byte	40
 3351 0a5a 63       		.byte	99
 3352 0a5b 81       		.byte	-127
 3353 0a5c 7A       		.byte	122
 3354 0a5d 01       		.byte	1
 3355 0a5e 88       		.byte	-120
 3356 0a5f 01       		.byte	1
 3357 0a60 8A       		.byte	-118
 3358 0a61 20       		.byte	32
 3359 0a62 8C       		.byte	-116
 3360 0a63 08       		.byte	8
 3361 0a64 8E       		.byte	-114
 3362 0a65 01       		.byte	1
 3363 0a66 8F       		.byte	-113
 3364 0a67 04       		.byte	4
 3365 0a68 C0       		.byte	-64
 3366 0a69 50       		.byte	80
 3367 0a6a C2       		.byte	-62
 3368 0a6b C2       		.byte	-62
 3369 0a6c C4       		.byte	-60
 3370 0a6d B0       		.byte	-80
 3371 0a6e CA       		.byte	-54
 3372 0a6f 87       		.byte	-121
 3373 0a70 CC       		.byte	-52
 3374 0a71 34       		.byte	52
 3375 0a72 CE       		.byte	-50
 3376 0a73 3D       		.byte	61
 3377 0a74 D0       		.byte	-48
 3378 0a75 61       		.byte	97
 3379 0a76 D2       		.byte	-46
 3380 0a77 10       		.byte	16
 3381 0a78 D6       		.byte	-42
 3382 0a79 0F       		.byte	15
 3383 0a7a D8       		.byte	-40
 3384 0a7b 0F       		.byte	15
 3385 0a7c DE       		.byte	-34
 3386 0a7d 08       		.byte	8
 3387 0a7e E2       		.byte	-30
ARM GAS  C:\Users\xavieran\AppData\Local\Temp\ccKklXac.s 			page 107


 3388 0a7f 20       		.byte	32
 3389 0a80 E4       		.byte	-28
 3390 0a81 30       		.byte	48
 3391 0a82 00       		.byte	0
 3392 0a83 02       		.byte	2
 3393 0a84 02       		.byte	2
 3394 0a85 04       		.byte	4
 3395 0a86 04       		.byte	4
 3396 0a87 02       		.byte	2
 3397 0a88 05       		.byte	5
 3398 0a89 40       		.byte	64
 3399 0a8a 06       		.byte	6
 3400 0a8b 0C       		.byte	12
 3401 0a8c 07       		.byte	7
 3402 0a8d 13       		.byte	19
 3403 0a8e 08       		.byte	8
 3404 0a8f 02       		.byte	2
 3405 0a90 09       		.byte	9
 3406 0a91 FF       		.byte	-1
 3407 0a92 0A       		.byte	10
 3408 0a93 08       		.byte	8
 3409 0a94 0E       		.byte	14
 3410 0a95 06       		.byte	6
 3411 0a96 10       		.byte	16
 3412 0a97 04       		.byte	4
 3413 0a98 11       		.byte	17
 3414 0a99 80       		.byte	-128
 3415 0a9a 12       		.byte	18
 3416 0a9b 02       		.byte	2
 3417 0a9c 13       		.byte	19
 3418 0a9d 56       		.byte	86
 3419 0a9e 17       		.byte	23
 3420 0a9f 01       		.byte	1
 3421 0aa0 19       		.byte	25
 3422 0aa1 2A       		.byte	42
 3423 0aa2 1B       		.byte	27
 3424 0aa3 54       		.byte	84
 3425 0aa4 1C       		.byte	28
 3426 0aa5 01       		.byte	1
 3427 0aa6 1D       		.byte	29
 3428 0aa7 0E       		.byte	14
 3429 0aa8 1F       		.byte	31
 3430 0aa9 30       		.byte	48
 3431 0aaa 21       		.byte	33
 3432 0aab 46       		.byte	70
 3433 0aac 23       		.byte	35
 3434 0aad A9       		.byte	-87
 3435 0aae 25       		.byte	37
 3436 0aaf 33       		.byte	51
 3437 0ab0 26       		.byte	38
 3438 0ab1 06       		.byte	6
 3439 0ab2 27       		.byte	39
 3440 0ab3 0C       		.byte	12
 3441 0ab4 2E       		.byte	46
 3442 0ab5 06       		.byte	6
 3443 0ab6 30       		.byte	48
 3444 0ab7 01       		.byte	1
ARM GAS  C:\Users\xavieran\AppData\Local\Temp\ccKklXac.s 			page 108


 3445 0ab8 34       		.byte	52
 3446 0ab9 0E       		.byte	14
 3447 0aba 37       		.byte	55
 3448 0abb FF       		.byte	-1
 3449 0abc 39       		.byte	57
 3450 0abd 08       		.byte	8
 3451 0abe 3A       		.byte	58
 3452 0abf 20       		.byte	32
 3453 0ac0 3E       		.byte	62
 3454 0ac1 01       		.byte	1
 3455 0ac2 3F       		.byte	63
 3456 0ac3 04       		.byte	4
 3457 0ac4 40       		.byte	64
 3458 0ac5 64       		.byte	100
 3459 0ac6 41       		.byte	65
 3460 0ac7 02       		.byte	2
 3461 0ac8 49       		.byte	73
 3462 0ac9 FF       		.byte	-1
 3463 0aca 4A       		.byte	74
 3464 0acb FF       		.byte	-1
 3465 0acc 4B       		.byte	75
 3466 0acd FF       		.byte	-1
 3467 0ace 4F       		.byte	79
 3468 0acf 01       		.byte	1
 3469 0ad0 50       		.byte	80
 3470 0ad1 18       		.byte	24
 3471 0ad2 56       		.byte	86
 3472 0ad3 08       		.byte	8
 3473 0ad4 58       		.byte	88
 3474 0ad5 04       		.byte	4
 3475 0ad6 59       		.byte	89
 3476 0ad7 04       		.byte	4
 3477 0ad8 5A       		.byte	90
 3478 0ad9 04       		.byte	4
 3479 0ada 5B       		.byte	91
 3480 0adb 04       		.byte	4
 3481 0adc 5C       		.byte	92
 3482 0add 22       		.byte	34
 3483 0ade 5D       		.byte	93
 3484 0adf 93       		.byte	-109
 3485 0ae0 5F       		.byte	95
 3486 0ae1 01       		.byte	1
 3487 0ae2 60       		.byte	96
 3488 0ae3 40       		.byte	64
 3489 0ae4 62       		.byte	98
 3490 0ae5 40       		.byte	64
 3491 0ae6 64       		.byte	100
 3492 0ae7 40       		.byte	64
 3493 0ae8 65       		.byte	101
 3494 0ae9 40       		.byte	64
 3495 0aea 66       		.byte	102
 3496 0aeb 80       		.byte	-128
 3497 0aec 68       		.byte	104
 3498 0aed 80       		.byte	-128
 3499 0aee 6A       		.byte	106
 3500 0aef 80       		.byte	-128
 3501 0af0 6C       		.byte	108
ARM GAS  C:\Users\xavieran\AppData\Local\Temp\ccKklXac.s 			page 109


 3502 0af1 80       		.byte	-128
 3503 0af2 6E       		.byte	110
 3504 0af3 80       		.byte	-128
 3505 0af4 87       		.byte	-121
 3506 0af5 02       		.byte	2
 3507 0af6 8F       		.byte	-113
 3508 0af7 02       		.byte	2
 3509 0af8 9B       		.byte	-101
 3510 0af9 01       		.byte	1
 3511 0afa B1       		.byte	-79
 3512 0afb 02       		.byte	2
 3513 0afc B7       		.byte	-73
 3514 0afd 01       		.byte	1
 3515 0afe BF       		.byte	-65
 3516 0aff 01       		.byte	1
 3517 0b00 C0       		.byte	-64
 3518 0b01 35       		.byte	53
 3519 0b02 C1       		.byte	-63
 3520 0b03 02       		.byte	2
 3521 0b04 C5       		.byte	-59
 3522 0b05 EC       		.byte	-20
 3523 0b06 C6       		.byte	-58
 3524 0b07 02       		.byte	2
 3525 0b08 C8       		.byte	-56
 3526 0b09 07       		.byte	7
 3527 0b0a C9       		.byte	-55
 3528 0b0b FF       		.byte	-1
 3529 0b0c CA       		.byte	-54
 3530 0b0d FF       		.byte	-1
 3531 0b0e CB       		.byte	-53
 3532 0b0f FF       		.byte	-1
 3533 0b10 CD       		.byte	-51
 3534 0b11 83       		.byte	-125
 3535 0b12 CE       		.byte	-50
 3536 0b13 03       		.byte	3
 3537 0b14 CF       		.byte	-49
 3538 0b15 01       		.byte	1
 3539 0b16 D0       		.byte	-48
 3540 0b17 18       		.byte	24
 3541 0b18 D4       		.byte	-44
 3542 0b19 01       		.byte	1
 3543 0b1a D9       		.byte	-39
 3544 0b1b 04       		.byte	4
 3545 0b1c DA       		.byte	-38
 3546 0b1d 04       		.byte	4
 3547 0b1e DB       		.byte	-37
 3548 0b1f 04       		.byte	4
 3549 0b20 DC       		.byte	-36
 3550 0b21 20       		.byte	32
 3551 0b22 DD       		.byte	-35
 3552 0b23 33       		.byte	51
 3553 0b24 DF       		.byte	-33
 3554 0b25 05       		.byte	5
 3555 0b26 E0       		.byte	-32
 3556 0b27 40       		.byte	64
 3557 0b28 E2       		.byte	-30
 3558 0b29 40       		.byte	64
ARM GAS  C:\Users\xavieran\AppData\Local\Temp\ccKklXac.s 			page 110


 3559 0b2a E4       		.byte	-28
 3560 0b2b 40       		.byte	64
 3561 0b2c E5       		.byte	-27
 3562 0b2d 40       		.byte	64
 3563 0b2e E6       		.byte	-26
 3564 0b2f 80       		.byte	-128
 3565 0b30 E8       		.byte	-24
 3566 0b31 80       		.byte	-128
 3567 0b32 EA       		.byte	-22
 3568 0b33 80       		.byte	-128
 3569 0b34 EC       		.byte	-20
 3570 0b35 80       		.byte	-128
 3571 0b36 EE       		.byte	-18
 3572 0b37 80       		.byte	-128
 3573 0b38 00       		.byte	0
 3574 0b39 04       		.byte	4
 3575 0b3a 01       		.byte	1
 3576 0b3b 90       		.byte	-112
 3577 0b3c 02       		.byte	2
 3578 0b3d 40       		.byte	64
 3579 0b3e 09       		.byte	9
 3580 0b3f 81       		.byte	-127
 3581 0b40 11       		.byte	17
 3582 0b41 80       		.byte	-128
 3583 0b42 12       		.byte	18
 3584 0b43 20       		.byte	32
 3585 0b44 18       		.byte	24
 3586 0b45 04       		.byte	4
 3587 0b46 1B       		.byte	27
 3588 0b47 01       		.byte	1
 3589 0b48 20       		.byte	32
 3590 0b49 02       		.byte	2
 3591 0b4a 23       		.byte	35
 3592 0b4b 10       		.byte	16
 3593 0b4c 25       		.byte	37
 3594 0b4d 40       		.byte	64
 3595 0b4e 27       		.byte	39
 3596 0b4f 81       		.byte	-127
 3597 0b50 2A       		.byte	42
 3598 0b51 0A       		.byte	10
 3599 0b52 30       		.byte	48
 3600 0b53 12       		.byte	18
 3601 0b54 32       		.byte	50
 3602 0b55 80       		.byte	-128
 3603 0b56 33       		.byte	51
 3604 0b57 08       		.byte	8
 3605 0b58 36       		.byte	54
 3606 0b59 20       		.byte	32
 3607 0b5a 38       		.byte	56
 3608 0b5b 20       		.byte	32
 3609 0b5c 39       		.byte	57
 3610 0b5d 14       		.byte	20
 3611 0b5e 3F       		.byte	63
 3612 0b5f 88       		.byte	-120
 3613 0b60 42       		.byte	66
 3614 0b61 84       		.byte	-124
 3615 0b62 43       		.byte	67
ARM GAS  C:\Users\xavieran\AppData\Local\Temp\ccKklXac.s 			page 111


 3616 0b63 30       		.byte	48
 3617 0b64 46       		.byte	70
 3618 0b65 10       		.byte	16
 3619 0b66 47       		.byte	71
 3620 0b67 10       		.byte	16
 3621 0b68 49       		.byte	73
 3622 0b69 10       		.byte	16
 3623 0b6a 4F       		.byte	79
 3624 0b6b 85       		.byte	-123
 3625 0b6c 56       		.byte	86
 3626 0b6d 80       		.byte	-128
 3627 0b6e 57       		.byte	87
 3628 0b6f 40       		.byte	64
 3629 0b70 58       		.byte	88
 3630 0b71 40       		.byte	64
 3631 0b72 5B       		.byte	91
 3632 0b73 20       		.byte	32
 3633 0b74 5F       		.byte	95
 3634 0b75 85       		.byte	-123
 3635 0b76 61       		.byte	97
 3636 0b77 90       		.byte	-112
 3637 0b78 62       		.byte	98
 3638 0b79 10       		.byte	16
 3639 0b7a 63       		.byte	99
 3640 0b7b 08       		.byte	8
 3641 0b7c 7F       		.byte	127
 3642 0b7d 20       		.byte	32
 3643 0b7e 81       		.byte	-127
 3644 0b7f 80       		.byte	-128
 3645 0b80 82       		.byte	-126
 3646 0b81 08       		.byte	8
 3647 0b82 84       		.byte	-124
 3648 0b83 01       		.byte	1
 3649 0b84 86       		.byte	-122
 3650 0b85 02       		.byte	2
 3651 0b86 87       		.byte	-121
 3652 0b87 20       		.byte	32
 3653 0b88 88       		.byte	-120
 3654 0b89 60       		.byte	96
 3655 0b8a 8B       		.byte	-117
 3656 0b8b 50       		.byte	80
 3657 0b8c 8F       		.byte	-113
 3658 0b8d 20       		.byte	32
 3659 0b8e 90       		.byte	-112
 3660 0b8f 20       		.byte	32
 3661 0b90 91       		.byte	-111
 3662 0b91 04       		.byte	4
 3663 0b92 92       		.byte	-110
 3664 0b93 04       		.byte	4
 3665 0b94 97       		.byte	-105
 3666 0b95 40       		.byte	64
 3667 0b96 98       		.byte	-104
 3668 0b97 10       		.byte	16
 3669 0b98 9A       		.byte	-102
 3670 0b99 40       		.byte	64
 3671 0b9a 9D       		.byte	-99
 3672 0b9b 80       		.byte	-128
ARM GAS  C:\Users\xavieran\AppData\Local\Temp\ccKklXac.s 			page 112


 3673 0b9c 9E       		.byte	-98
 3674 0b9d 02       		.byte	2
 3675 0b9e 9F       		.byte	-97
 3676 0b9f 01       		.byte	1
 3677 0ba0 A0       		.byte	-96
 3678 0ba1 02       		.byte	2
 3679 0ba2 A1       		.byte	-95
 3680 0ba3 01       		.byte	1
 3681 0ba4 A2       		.byte	-94
 3682 0ba5 A0       		.byte	-96
 3683 0ba6 A3       		.byte	-93
 3684 0ba7 08       		.byte	8
 3685 0ba8 A4       		.byte	-92
 3686 0ba9 21       		.byte	33
 3687 0baa A7       		.byte	-89
 3688 0bab 01       		.byte	1
 3689 0bac B2       		.byte	-78
 3690 0bad 84       		.byte	-124
 3691 0bae B6       		.byte	-74
 3692 0baf 80       		.byte	-128
 3693 0bb0 C0       		.byte	-64
 3694 0bb1 0F       		.byte	15
 3695 0bb2 C2       		.byte	-62
 3696 0bb3 09       		.byte	9
 3697 0bb4 C4       		.byte	-60
 3698 0bb5 05       		.byte	5
 3699 0bb6 CA       		.byte	-54
 3700 0bb7 03       		.byte	3
 3701 0bb8 CC       		.byte	-52
 3702 0bb9 2F       		.byte	47
 3703 0bba CE       		.byte	-50
 3704 0bbb 56       		.byte	86
 3705 0bbc D0       		.byte	-48
 3706 0bbd 65       		.byte	101
 3707 0bbe D2       		.byte	-46
 3708 0bbf 14       		.byte	20
 3709 0bc0 D6       		.byte	-42
 3710 0bc1 DC       		.byte	-36
 3711 0bc2 D8       		.byte	-40
 3712 0bc3 0C       		.byte	12
 3713 0bc4 DE       		.byte	-34
 3714 0bc5 40       		.byte	64
 3715 0bc6 E0       		.byte	-32
 3716 0bc7 20       		.byte	32
 3717 0bc8 E2       		.byte	-30
 3718 0bc9 44       		.byte	68
 3719 0bca E4       		.byte	-28
 3720 0bcb 0C       		.byte	12
 3721 0bcc E6       		.byte	-26
 3722 0bcd 81       		.byte	-127
 3723 0bce E8       		.byte	-24
 3724 0bcf 04       		.byte	4
 3725 0bd0 EA       		.byte	-22
 3726 0bd1 01       		.byte	1
 3727 0bd2 0F       		.byte	15
 3728 0bd3 01       		.byte	1
 3729 0bd4 1F       		.byte	31
ARM GAS  C:\Users\xavieran\AppData\Local\Temp\ccKklXac.s 			page 113


 3730 0bd5 02       		.byte	2
 3731 0bd6 31       		.byte	49
 3732 0bd7 01       		.byte	1
 3733 0bd8 35       		.byte	53
 3734 0bd9 02       		.byte	2
 3735 0bda 40       		.byte	64
 3736 0bdb 46       		.byte	70
 3737 0bdc 49       		.byte	73
 3738 0bdd FF       		.byte	-1
 3739 0bde 4A       		.byte	74
 3740 0bdf FF       		.byte	-1
 3741 0be0 4B       		.byte	75
 3742 0be1 FF       		.byte	-1
 3743 0be2 4F       		.byte	79
 3744 0be3 01       		.byte	1
 3745 0be4 50       		.byte	80
 3746 0be5 18       		.byte	24
 3747 0be6 56       		.byte	86
 3748 0be7 08       		.byte	8
 3749 0be8 59       		.byte	89
 3750 0be9 04       		.byte	4
 3751 0bea 5A       		.byte	90
 3752 0beb 04       		.byte	4
 3753 0bec 5B       		.byte	91
 3754 0bed 04       		.byte	4
 3755 0bee 5C       		.byte	92
 3756 0bef 20       		.byte	32
 3757 0bf0 5D       		.byte	93
 3758 0bf1 94       		.byte	-108
 3759 0bf2 5F       		.byte	95
 3760 0bf3 01       		.byte	1
 3761 0bf4 60       		.byte	96
 3762 0bf5 40       		.byte	64
 3763 0bf6 62       		.byte	98
 3764 0bf7 40       		.byte	64
 3765 0bf8 64       		.byte	100
 3766 0bf9 40       		.byte	64
 3767 0bfa 65       		.byte	101
 3768 0bfb 40       		.byte	64
 3769 0bfc 66       		.byte	102
 3770 0bfd 80       		.byte	-128
 3771 0bfe 68       		.byte	104
 3772 0bff 80       		.byte	-128
 3773 0c00 6A       		.byte	106
 3774 0c01 80       		.byte	-128
 3775 0c02 6C       		.byte	108
 3776 0c03 80       		.byte	-128
 3777 0c04 6E       		.byte	110
 3778 0c05 80       		.byte	-128
 3779 0c06 80       		.byte	-128
 3780 0c07 01       		.byte	1
 3781 0c08 83       		.byte	-125
 3782 0c09 04       		.byte	4
 3783 0c0a 84       		.byte	-124
 3784 0c0b 04       		.byte	4
 3785 0c0c 85       		.byte	-123
 3786 0c0d 02       		.byte	2
ARM GAS  C:\Users\xavieran\AppData\Local\Temp\ccKklXac.s 			page 114


 3787 0c0e 88       		.byte	-120
 3788 0c0f 01       		.byte	1
 3789 0c10 89       		.byte	-119
 3790 0c11 02       		.byte	2
 3791 0c12 8F       		.byte	-113
 3792 0c13 01       		.byte	1
 3793 0c14 92       		.byte	-110
 3794 0c15 02       		.byte	2
 3795 0c16 93       		.byte	-109
 3796 0c17 01       		.byte	1
 3797 0c18 94       		.byte	-108
 3798 0c19 01       		.byte	1
 3799 0c1a 97       		.byte	-105
 3800 0c1b 02       		.byte	2
 3801 0c1c 98       		.byte	-104
 3802 0c1d 01       		.byte	1
 3803 0c1e 9B       		.byte	-101
 3804 0c1f 01       		.byte	1
 3805 0c20 9D       		.byte	-99
 3806 0c21 01       		.byte	1
 3807 0c22 A0       		.byte	-96
 3808 0c23 01       		.byte	1
 3809 0c24 A1       		.byte	-95
 3810 0c25 02       		.byte	2
 3811 0c26 A5       		.byte	-91
 3812 0c27 02       		.byte	2
 3813 0c28 A6       		.byte	-90
 3814 0c29 04       		.byte	4
 3815 0c2a A9       		.byte	-87
 3816 0c2b 02       		.byte	2
 3817 0c2c AA       		.byte	-86
 3818 0c2d 02       		.byte	2
 3819 0c2e AF       		.byte	-81
 3820 0c2f 01       		.byte	1
 3821 0c30 B0       		.byte	-80
 3822 0c31 02       		.byte	2
 3823 0c32 B1       		.byte	-79
 3824 0c33 01       		.byte	1
 3825 0c34 B2       		.byte	-78
 3826 0c35 01       		.byte	1
 3827 0c36 B4       		.byte	-76
 3828 0c37 04       		.byte	4
 3829 0c38 B7       		.byte	-73
 3830 0c39 06       		.byte	6
 3831 0c3a B8       		.byte	-72
 3832 0c3b 08       		.byte	8
 3833 0c3c BE       		.byte	-66
 3834 0c3d 05       		.byte	5
 3835 0c3e BF       		.byte	-65
 3836 0c3f 01       		.byte	1
 3837 0c40 C0       		.byte	-64
 3838 0c41 16       		.byte	22
 3839 0c42 C5       		.byte	-59
 3840 0c43 EC       		.byte	-20
 3841 0c44 C7       		.byte	-57
 3842 0c45 02       		.byte	2
 3843 0c46 C8       		.byte	-56
ARM GAS  C:\Users\xavieran\AppData\Local\Temp\ccKklXac.s 			page 115


 3844 0c47 13       		.byte	19
 3845 0c48 C9       		.byte	-55
 3846 0c49 FF       		.byte	-1
 3847 0c4a CA       		.byte	-54
 3848 0c4b FF       		.byte	-1
 3849 0c4c CB       		.byte	-53
 3850 0c4d FF       		.byte	-1
 3851 0c4e CD       		.byte	-51
 3852 0c4f 83       		.byte	-125
 3853 0c50 CE       		.byte	-50
 3854 0c51 03       		.byte	3
 3855 0c52 CF       		.byte	-49
 3856 0c53 01       		.byte	1
 3857 0c54 D0       		.byte	-48
 3858 0c55 18       		.byte	24
 3859 0c56 D4       		.byte	-44
 3860 0c57 01       		.byte	1
 3861 0c58 D8       		.byte	-40
 3862 0c59 04       		.byte	4
 3863 0c5a D9       		.byte	-39
 3864 0c5b 04       		.byte	4
 3865 0c5c DA       		.byte	-38
 3866 0c5d 04       		.byte	4
 3867 0c5e DB       		.byte	-37
 3868 0c5f 04       		.byte	4
 3869 0c60 DC       		.byte	-36
 3870 0c61 23       		.byte	35
 3871 0c62 DD       		.byte	-35
 3872 0c63 44       		.byte	68
 3873 0c64 DF       		.byte	-33
 3874 0c65 01       		.byte	1
 3875 0c66 E0       		.byte	-32
 3876 0c67 40       		.byte	64
 3877 0c68 E2       		.byte	-30
 3878 0c69 40       		.byte	64
 3879 0c6a E4       		.byte	-28
 3880 0c6b 40       		.byte	64
 3881 0c6c E5       		.byte	-27
 3882 0c6d 40       		.byte	64
 3883 0c6e E6       		.byte	-26
 3884 0c6f 80       		.byte	-128
 3885 0c70 E8       		.byte	-24
 3886 0c71 80       		.byte	-128
 3887 0c72 EA       		.byte	-22
 3888 0c73 80       		.byte	-128
 3889 0c74 EC       		.byte	-20
 3890 0c75 80       		.byte	-128
 3891 0c76 EE       		.byte	-18
 3892 0c77 80       		.byte	-128
 3893 0c78 00       		.byte	0
 3894 0c79 02       		.byte	2
 3895 0c7a 01       		.byte	1
 3896 0c7b 20       		.byte	32
 3897 0c7c 02       		.byte	2
 3898 0c7d 10       		.byte	16
 3899 0c7e 08       		.byte	8
 3900 0c7f 06       		.byte	6
ARM GAS  C:\Users\xavieran\AppData\Local\Temp\ccKklXac.s 			page 116


 3901 0c80 0B       		.byte	11
 3902 0c81 08       		.byte	8
 3903 0c82 10       		.byte	16
 3904 0c83 08       		.byte	8
 3905 0c84 12       		.byte	18
 3906 0c85 80       		.byte	-128
 3907 0c86 13       		.byte	19
 3908 0c87 08       		.byte	8
 3909 0c88 1A       		.byte	26
 3910 0c89 54       		.byte	84
 3911 0c8a 20       		.byte	32
 3912 0c8b 80       		.byte	-128
 3913 0c8c 22       		.byte	34
 3914 0c8d 80       		.byte	-128
 3915 0c8e 25       		.byte	37
 3916 0c8f 01       		.byte	1
 3917 0c90 26       		.byte	38
 3918 0c91 20       		.byte	32
 3919 0c92 27       		.byte	39
 3920 0c93 40       		.byte	64
 3921 0c94 29       		.byte	41
 3922 0c95 B0       		.byte	-80
 3923 0c96 2A       		.byte	42
 3924 0c97 02       		.byte	2
 3925 0c98 2B       		.byte	43
 3926 0c99 20       		.byte	32
 3927 0c9a 32       		.byte	50
 3928 0c9b 24       		.byte	36
 3929 0c9c 33       		.byte	51
 3930 0c9d 41       		.byte	65
 3931 0c9e 35       		.byte	53
 3932 0c9f 80       		.byte	-128
 3933 0ca0 38       		.byte	56
 3934 0ca1 20       		.byte	32
 3935 0ca2 39       		.byte	57
 3936 0ca3 46       		.byte	70
 3937 0ca4 3A       		.byte	58
 3938 0ca5 40       		.byte	64
 3939 0ca6 3B       		.byte	59
 3940 0ca7 08       		.byte	8
 3941 0ca8 3D       		.byte	61
 3942 0ca9 40       		.byte	64
 3943 0caa 40       		.byte	64
 3944 0cab 02       		.byte	2
 3945 0cac 46       		.byte	70
 3946 0cad 80       		.byte	-128
 3947 0cae 48       		.byte	72
 3948 0caf 08       		.byte	8
 3949 0cb0 49       		.byte	73
 3950 0cb1 05       		.byte	5
 3951 0cb2 4C       		.byte	76
 3952 0cb3 08       		.byte	8
 3953 0cb4 50       		.byte	80
 3954 0cb5 08       		.byte	8
 3955 0cb6 59       		.byte	89
 3956 0cb7 05       		.byte	5
 3957 0cb8 5A       		.byte	90
ARM GAS  C:\Users\xavieran\AppData\Local\Temp\ccKklXac.s 			page 117


 3958 0cb9 40       		.byte	64
 3959 0cba 5F       		.byte	95
 3960 0cbb 40       		.byte	64
 3961 0cbc 64       		.byte	100
 3962 0cbd 02       		.byte	2
 3963 0cbe 66       		.byte	102
 3964 0cbf 80       		.byte	-128
 3965 0cc0 82       		.byte	-126
 3966 0cc1 10       		.byte	16
 3967 0cc2 86       		.byte	-122
 3968 0cc3 20       		.byte	32
 3969 0cc4 87       		.byte	-121
 3970 0cc5 01       		.byte	1
 3971 0cc6 88       		.byte	-120
 3972 0cc7 40       		.byte	64
 3973 0cc8 90       		.byte	-112
 3974 0cc9 20       		.byte	32
 3975 0cca 91       		.byte	-111
 3976 0ccb 46       		.byte	70
 3977 0ccc 98       		.byte	-104
 3978 0ccd 14       		.byte	20
 3979 0cce 99       		.byte	-103
 3980 0ccf 10       		.byte	16
 3981 0cd0 9A       		.byte	-102
 3982 0cd1 10       		.byte	16
 3983 0cd2 9B       		.byte	-101
 3984 0cd3 08       		.byte	8
 3985 0cd4 9E       		.byte	-98
 3986 0cd5 02       		.byte	2
 3987 0cd6 A0       		.byte	-96
 3988 0cd7 02       		.byte	2
 3989 0cd8 A3       		.byte	-93
 3990 0cd9 28       		.byte	40
 3991 0cda A4       		.byte	-92
 3992 0cdb 20       		.byte	32
 3993 0cdc A6       		.byte	-90
 3994 0cdd 80       		.byte	-128
 3995 0cde A9       		.byte	-87
 3996 0cdf 10       		.byte	16
 3997 0ce0 AC       		.byte	-84
 3998 0ce1 04       		.byte	4
 3999 0ce2 AF       		.byte	-81
 4000 0ce3 20       		.byte	32
 4001 0ce4 B4       		.byte	-76
 4002 0ce5 02       		.byte	2
 4003 0ce6 C0       		.byte	-64
 4004 0ce7 0E       		.byte	14
 4005 0ce8 C2       		.byte	-62
 4006 0ce9 0E       		.byte	14
 4007 0cea C4       		.byte	-60
 4008 0ceb 0E       		.byte	14
 4009 0cec CA       		.byte	-54
 4010 0ced 0F       		.byte	15
 4011 0cee CC       		.byte	-52
 4012 0cef 1F       		.byte	31
 4013 0cf0 CE       		.byte	-50
 4014 0cf1 1F       		.byte	31
ARM GAS  C:\Users\xavieran\AppData\Local\Temp\ccKklXac.s 			page 118


 4015 0cf2 D0       		.byte	-48
 4016 0cf3 88       		.byte	-120
 4017 0cf4 D2       		.byte	-46
 4018 0cf5 24       		.byte	36
 4019 0cf6 D6       		.byte	-42
 4020 0cf7 1B       		.byte	27
 4021 0cf8 D8       		.byte	-40
 4022 0cf9 10       		.byte	16
 4023 0cfa E0       		.byte	-32
 4024 0cfb 41       		.byte	65
 4025 0cfc E2       		.byte	-30
 4026 0cfd 08       		.byte	8
 4027 0cfe E4       		.byte	-28
 4028 0cff 02       		.byte	2
 4029 0d00 EA       		.byte	-22
 4030 0d01 08       		.byte	8
 4031 0d02 EC       		.byte	-20
 4032 0d03 10       		.byte	16
 4033 0d04 EE       		.byte	-18
 4034 0d05 0C       		.byte	12
 4035 0d06 00       		.byte	0
 4036 0d07 05       		.byte	5
 4037 0d08 03       		.byte	3
 4038 0d09 0F       		.byte	15
 4039 0d0a 04       		.byte	4
 4040 0d0b 04       		.byte	4
 4041 0d0c 06       		.byte	6
 4042 0d0d 01       		.byte	1
 4043 0d0e 07       		.byte	7
 4044 0d0f 0F       		.byte	15
 4045 0d10 08       		.byte	8
 4046 0d11 05       		.byte	5
 4047 0d12 0C       		.byte	12
 4048 0d13 01       		.byte	1
 4049 0d14 0D       		.byte	13
 4050 0d15 0F       		.byte	15
 4051 0d16 0E       		.byte	14
 4052 0d17 02       		.byte	2
 4053 0d18 13       		.byte	19
 4054 0d19 02       		.byte	2
 4055 0d1a 15       		.byte	21
 4056 0d1b 0F       		.byte	15
 4057 0d1c 18       		.byte	24
 4058 0d1d 01       		.byte	1
 4059 0d1e 1A       		.byte	26
 4060 0d1f 0E       		.byte	14
 4061 0d20 1F       		.byte	31
 4062 0d21 08       		.byte	8
 4063 0d22 20       		.byte	32
 4064 0d23 04       		.byte	4
 4065 0d24 22       		.byte	34
 4066 0d25 01       		.byte	1
 4067 0d26 27       		.byte	39
 4068 0d27 08       		.byte	8
 4069 0d28 28       		.byte	40
 4070 0d29 05       		.byte	5
 4071 0d2a 2B       		.byte	43
ARM GAS  C:\Users\xavieran\AppData\Local\Temp\ccKklXac.s 			page 119


 4072 0d2b 04       		.byte	4
 4073 0d2c 2C       		.byte	44
 4074 0d2d 01       		.byte	1
 4075 0d2e 2E       		.byte	46
 4076 0d2f 08       		.byte	8
 4077 0d30 2F       		.byte	47
 4078 0d31 01       		.byte	1
 4079 0d32 34       		.byte	52
 4080 0d33 0F       		.byte	15
 4081 0d34 35       		.byte	53
 4082 0d35 0F       		.byte	15
 4083 0d36 3A       		.byte	58
 4084 0d37 20       		.byte	32
 4085 0d38 3F       		.byte	63
 4086 0d39 10       		.byte	16
 4087 0d3a 40       		.byte	64
 4088 0d3b 52       		.byte	82
 4089 0d3c 49       		.byte	73
 4090 0d3d FF       		.byte	-1
 4091 0d3e 4A       		.byte	74
 4092 0d3f FF       		.byte	-1
 4093 0d40 4B       		.byte	75
 4094 0d41 FF       		.byte	-1
 4095 0d42 4F       		.byte	79
 4096 0d43 01       		.byte	1
 4097 0d44 50       		.byte	80
 4098 0d45 18       		.byte	24
 4099 0d46 54       		.byte	84
 4100 0d47 20       		.byte	32
 4101 0d48 56       		.byte	86
 4102 0d49 04       		.byte	4
 4103 0d4a 58       		.byte	88
 4104 0d4b 04       		.byte	4
 4105 0d4c 59       		.byte	89
 4106 0d4d 04       		.byte	4
 4107 0d4e 5A       		.byte	90
 4108 0d4f 04       		.byte	4
 4109 0d50 5B       		.byte	91
 4110 0d51 04       		.byte	4
 4111 0d52 5C       		.byte	92
 4112 0d53 02       		.byte	2
 4113 0d54 5D       		.byte	93
 4114 0d55 27       		.byte	39
 4115 0d56 5F       		.byte	95
 4116 0d57 01       		.byte	1
 4117 0d58 60       		.byte	96
 4118 0d59 40       		.byte	64
 4119 0d5a 62       		.byte	98
 4120 0d5b 40       		.byte	64
 4121 0d5c 64       		.byte	100
 4122 0d5d 40       		.byte	64
 4123 0d5e 65       		.byte	101
 4124 0d5f 40       		.byte	64
 4125 0d60 66       		.byte	102
 4126 0d61 80       		.byte	-128
 4127 0d62 68       		.byte	104
 4128 0d63 80       		.byte	-128
ARM GAS  C:\Users\xavieran\AppData\Local\Temp\ccKklXac.s 			page 120


 4129 0d64 6A       		.byte	106
 4130 0d65 80       		.byte	-128
 4131 0d66 6C       		.byte	108
 4132 0d67 80       		.byte	-128
 4133 0d68 6E       		.byte	110
 4134 0d69 80       		.byte	-128
 4135 0d6a 8A       		.byte	-118
 4136 0d6b 02       		.byte	2
 4137 0d6c 8C       		.byte	-116
 4138 0d6d 03       		.byte	3
 4139 0d6e 92       		.byte	-110
 4140 0d6f 01       		.byte	1
 4141 0d70 93       		.byte	-109
 4142 0d71 01       		.byte	1
 4143 0d72 94       		.byte	-108
 4144 0d73 02       		.byte	2
 4145 0d74 A1       		.byte	-95
 4146 0d75 01       		.byte	1
 4147 0d76 A2       		.byte	-94
 4148 0d77 02       		.byte	2
 4149 0d78 A4       		.byte	-92
 4150 0d79 02       		.byte	2
 4151 0d7a AC       		.byte	-84
 4152 0d7b 03       		.byte	3
 4153 0d7c AD       		.byte	-83
 4154 0d7d 01       		.byte	1
 4155 0d7e B0       		.byte	-80
 4156 0d7f 03       		.byte	3
 4157 0d80 B1       		.byte	-79
 4158 0d81 01       		.byte	1
 4159 0d82 C0       		.byte	-64
 4160 0d83 52       		.byte	82
 4161 0d84 C9       		.byte	-55
 4162 0d85 FF       		.byte	-1
 4163 0d86 CA       		.byte	-54
 4164 0d87 FF       		.byte	-1
 4165 0d88 CB       		.byte	-53
 4166 0d89 FF       		.byte	-1
 4167 0d8a CD       		.byte	-51
 4168 0d8b 83       		.byte	-125
 4169 0d8c CE       		.byte	-50
 4170 0d8d 03       		.byte	3
 4171 0d8e CF       		.byte	-49
 4172 0d8f 01       		.byte	1
 4173 0d90 D0       		.byte	-48
 4174 0d91 18       		.byte	24
 4175 0d92 D6       		.byte	-42
 4176 0d93 08       		.byte	8
 4177 0d94 D8       		.byte	-40
 4178 0d95 04       		.byte	4
 4179 0d96 D9       		.byte	-39
 4180 0d97 04       		.byte	4
 4181 0d98 DA       		.byte	-38
 4182 0d99 04       		.byte	4
 4183 0d9a DB       		.byte	-37
 4184 0d9b 04       		.byte	4
 4185 0d9c DC       		.byte	-36
ARM GAS  C:\Users\xavieran\AppData\Local\Temp\ccKklXac.s 			page 121


 4186 0d9d 22       		.byte	34
 4187 0d9e DD       		.byte	-35
 4188 0d9f 97       		.byte	-105
 4189 0da0 DF       		.byte	-33
 4190 0da1 01       		.byte	1
 4191 0da2 E0       		.byte	-32
 4192 0da3 40       		.byte	64
 4193 0da4 E2       		.byte	-30
 4194 0da5 40       		.byte	64
 4195 0da6 E4       		.byte	-28
 4196 0da7 40       		.byte	64
 4197 0da8 E5       		.byte	-27
 4198 0da9 40       		.byte	64
 4199 0daa E6       		.byte	-26
 4200 0dab 80       		.byte	-128
 4201 0dac E8       		.byte	-24
 4202 0dad 80       		.byte	-128
 4203 0dae EA       		.byte	-22
 4204 0daf 80       		.byte	-128
 4205 0db0 EC       		.byte	-20
 4206 0db1 80       		.byte	-128
 4207 0db2 EE       		.byte	-18
 4208 0db3 80       		.byte	-128
 4209 0db4 00       		.byte	0
 4210 0db5 80       		.byte	-128
 4211 0db6 01       		.byte	1
 4212 0db7 20       		.byte	32
 4213 0db8 03       		.byte	3
 4214 0db9 03       		.byte	3
 4215 0dba 05       		.byte	5
 4216 0dbb 29       		.byte	41
 4217 0dbc 07       		.byte	7
 4218 0dbd 01       		.byte	1
 4219 0dbe 08       		.byte	8
 4220 0dbf 04       		.byte	4
 4221 0dc0 0A       		.byte	10
 4222 0dc1 A0       		.byte	-96
 4223 0dc2 0E       		.byte	14
 4224 0dc3 08       		.byte	8
 4225 0dc4 10       		.byte	16
 4226 0dc5 40       		.byte	64
 4227 0dc6 12       		.byte	18
 4228 0dc7 21       		.byte	33
 4229 0dc8 14       		.byte	20
 4230 0dc9 44       		.byte	68
 4231 0dca 16       		.byte	22
 4232 0dcb 01       		.byte	1
 4233 0dcc 18       		.byte	24
 4234 0dcd 40       		.byte	64
 4235 0dce 1A       		.byte	26
 4236 0dcf 80       		.byte	-128
 4237 0dd0 1E       		.byte	30
 4238 0dd1 08       		.byte	8
 4239 0dd2 22       		.byte	34
 4240 0dd3 02       		.byte	2
 4241 0dd4 26       		.byte	38
 4242 0dd5 10       		.byte	16
ARM GAS  C:\Users\xavieran\AppData\Local\Temp\ccKklXac.s 			page 122


 4243 0dd6 2A       		.byte	42
 4244 0dd7 01       		.byte	1
 4245 0dd8 2B       		.byte	43
 4246 0dd9 02       		.byte	2
 4247 0dda 2D       		.byte	45
 4248 0ddb 68       		.byte	104
 4249 0ddc 32       		.byte	50
 4250 0ddd 02       		.byte	2
 4251 0dde 34       		.byte	52
 4252 0ddf 40       		.byte	64
 4253 0de0 35       		.byte	53
 4254 0de1 01       		.byte	1
 4255 0de2 36       		.byte	54
 4256 0de3 09       		.byte	9
 4257 0de4 37       		.byte	55
 4258 0de5 08       		.byte	8
 4259 0de6 3C       		.byte	60
 4260 0de7 0A       		.byte	10
 4261 0de8 3E       		.byte	62
 4262 0de9 40       		.byte	64
 4263 0dea 40       		.byte	64
 4264 0deb 08       		.byte	8
 4265 0dec 44       		.byte	68
 4266 0ded 08       		.byte	8
 4267 0dee 46       		.byte	70
 4268 0def 04       		.byte	4
 4269 0df0 49       		.byte	73
 4270 0df1 80       		.byte	-128
 4271 0df2 4C       		.byte	76
 4272 0df3 01       		.byte	1
 4273 0df4 4D       		.byte	77
 4274 0df5 80       		.byte	-128
 4275 0df6 58       		.byte	88
 4276 0df7 A0       		.byte	-96
 4277 0df8 5C       		.byte	92
 4278 0df9 40       		.byte	64
 4279 0dfa 5D       		.byte	93
 4280 0dfb 02       		.byte	2
 4281 0dfc 5E       		.byte	94
 4282 0dfd 04       		.byte	4
 4283 0dfe 5F       		.byte	95
 4284 0dff 10       		.byte	16
 4285 0e00 61       		.byte	97
 4286 0e01 A0       		.byte	-96
 4287 0e02 66       		.byte	102
 4288 0e03 80       		.byte	-128
 4289 0e04 67       		.byte	103
 4290 0e05 84       		.byte	-124
 4291 0e06 82       		.byte	-126
 4292 0e07 80       		.byte	-128
 4293 0e08 84       		.byte	-124
 4294 0e09 05       		.byte	5
 4295 0e0a 87       		.byte	-121
 4296 0e0b 40       		.byte	64
 4297 0e0c 8B       		.byte	-117
 4298 0e0d 04       		.byte	4
 4299 0e0e 91       		.byte	-111
ARM GAS  C:\Users\xavieran\AppData\Local\Temp\ccKklXac.s 			page 123


 4300 0e0f 01       		.byte	1
 4301 0e10 92       		.byte	-110
 4302 0e11 04       		.byte	4
 4303 0e12 95       		.byte	-107
 4304 0e13 40       		.byte	64
 4305 0e14 99       		.byte	-103
 4306 0e15 28       		.byte	40
 4307 0e16 9A       		.byte	-102
 4308 0e17 09       		.byte	9
 4309 0e18 9C       		.byte	-100
 4310 0e19 40       		.byte	64
 4311 0e1a 9E       		.byte	-98
 4312 0e1b 02       		.byte	2
 4313 0e1c A0       		.byte	-96
 4314 0e1d 40       		.byte	64
 4315 0e1e A2       		.byte	-94
 4316 0e1f 29       		.byte	41
 4317 0e20 A5       		.byte	-91
 4318 0e21 20       		.byte	32
 4319 0e22 A6       		.byte	-90
 4320 0e23 92       		.byte	-110
 4321 0e24 A9       		.byte	-87
 4322 0e25 08       		.byte	8
 4323 0e26 AD       		.byte	-83
 4324 0e27 40       		.byte	64
 4325 0e28 AF       		.byte	-81
 4326 0e29 40       		.byte	64
 4327 0e2a B6       		.byte	-74
 4328 0e2b 69       		.byte	105
 4329 0e2c C0       		.byte	-64
 4330 0e2d F3       		.byte	-13
 4331 0e2e C2       		.byte	-62
 4332 0e2f 4C       		.byte	76
 4333 0e30 C4       		.byte	-60
 4334 0e31 DD       		.byte	-35
 4335 0e32 CA       		.byte	-54
 4336 0e33 79       		.byte	121
 4337 0e34 CC       		.byte	-52
 4338 0e35 D1       		.byte	-47
 4339 0e36 CE       		.byte	-50
 4340 0e37 D0       		.byte	-48
 4341 0e38 D0       		.byte	-48
 4342 0e39 24       		.byte	36
 4343 0e3a D2       		.byte	-46
 4344 0e3b 18       		.byte	24
 4345 0e3c D6       		.byte	-42
 4346 0e3d FC       		.byte	-4
 4347 0e3e D8       		.byte	-40
 4348 0e3f BC       		.byte	-68
 4349 0e40 E0       		.byte	-32
 4350 0e41 40       		.byte	64
 4351 0e42 E4       		.byte	-28
 4352 0e43 28       		.byte	40
 4353 0e44 EC       		.byte	-20
 4354 0e45 10       		.byte	16
 4355 0e46 EE       		.byte	-18
 4356 0e47 40       		.byte	64
ARM GAS  C:\Users\xavieran\AppData\Local\Temp\ccKklXac.s 			page 124


 4357 0e48 12       		.byte	18
 4358 0e49 01       		.byte	1
 4359 0e4a 2A       		.byte	42
 4360 0e4b 01       		.byte	1
 4361 0e4c 30       		.byte	48
 4362 0e4d 01       		.byte	1
 4363 0e4e 3E       		.byte	62
 4364 0e4f 01       		.byte	1
 4365 0e50 40       		.byte	64
 4366 0e51 43       		.byte	67
 4367 0e52 45       		.byte	69
 4368 0e53 EC       		.byte	-20
 4369 0e54 47       		.byte	71
 4370 0e55 02       		.byte	2
 4371 0e56 48       		.byte	72
 4372 0e57 13       		.byte	19
 4373 0e58 49       		.byte	73
 4374 0e59 FF       		.byte	-1
 4375 0e5a 4A       		.byte	74
 4376 0e5b FF       		.byte	-1
 4377 0e5c 4B       		.byte	75
 4378 0e5d FF       		.byte	-1
 4379 0e5e 4D       		.byte	77
 4380 0e5f 83       		.byte	-125
 4381 0e60 4E       		.byte	78
 4382 0e61 03       		.byte	3
 4383 0e62 4F       		.byte	79
 4384 0e63 01       		.byte	1
 4385 0e64 50       		.byte	80
 4386 0e65 18       		.byte	24
 4387 0e66 52       		.byte	82
 4388 0e67 80       		.byte	-128
 4389 0e68 54       		.byte	84
 4390 0e69 01       		.byte	1
 4391 0e6a 58       		.byte	88
 4392 0e6b 04       		.byte	4
 4393 0e6c 5A       		.byte	90
 4394 0e6d 04       		.byte	4
 4395 0e6e 5B       		.byte	91
 4396 0e6f 04       		.byte	4
 4397 0e70 5D       		.byte	93
 4398 0e71 77       		.byte	119
 4399 0e72 5F       		.byte	95
 4400 0e73 01       		.byte	1
 4401 0e74 60       		.byte	96
 4402 0e75 40       		.byte	64
 4403 0e76 62       		.byte	98
 4404 0e77 40       		.byte	64
 4405 0e78 64       		.byte	100
 4406 0e79 40       		.byte	64
 4407 0e7a 65       		.byte	101
 4408 0e7b 40       		.byte	64
 4409 0e7c 66       		.byte	102
 4410 0e7d 80       		.byte	-128
 4411 0e7e 68       		.byte	104
 4412 0e7f 80       		.byte	-128
 4413 0e80 6A       		.byte	106
ARM GAS  C:\Users\xavieran\AppData\Local\Temp\ccKklXac.s 			page 125


 4414 0e81 80       		.byte	-128
 4415 0e82 6C       		.byte	108
 4416 0e83 80       		.byte	-128
 4417 0e84 6E       		.byte	110
 4418 0e85 80       		.byte	-128
 4419 0e86 80       		.byte	-128
 4420 0e87 20       		.byte	32
 4421 0e88 82       		.byte	-126
 4422 0e89 04       		.byte	4
 4423 0e8a 86       		.byte	-122
 4424 0e8b 10       		.byte	16
 4425 0e8c 87       		.byte	-121
 4426 0e8d 02       		.byte	2
 4427 0e8e 89       		.byte	-119
 4428 0e8f 02       		.byte	2
 4429 0e90 8A       		.byte	-118
 4430 0e91 28       		.byte	40
 4431 0e92 8C       		.byte	-116
 4432 0e93 7E       		.byte	126
 4433 0e94 8D       		.byte	-115
 4434 0e95 02       		.byte	2
 4435 0e96 91       		.byte	-111
 4436 0e97 01       		.byte	1
 4437 0e98 95       		.byte	-107
 4438 0e99 02       		.byte	2
 4439 0e9a 96       		.byte	-106
 4440 0e9b 40       		.byte	64
 4441 0e9c 98       		.byte	-104
 4442 0e9d 1E       		.byte	30
 4443 0e9e 99       		.byte	-103
 4444 0e9f 01       		.byte	1
 4445 0ea0 9D       		.byte	-99
 4446 0ea1 04       		.byte	4
 4447 0ea2 9E       		.byte	-98
 4448 0ea3 01       		.byte	1
 4449 0ea4 A1       		.byte	-95
 4450 0ea5 08       		.byte	8
 4451 0ea6 A2       		.byte	-94
 4452 0ea7 30       		.byte	48
 4453 0ea8 A3       		.byte	-93
 4454 0ea9 10       		.byte	16
 4455 0eaa A4       		.byte	-92
 4456 0eab 08       		.byte	8
 4457 0eac A5       		.byte	-91
 4458 0ead 02       		.byte	2
 4459 0eae A6       		.byte	-90
 4460 0eaf 10       		.byte	16
 4461 0eb0 A9       		.byte	-87
 4462 0eb1 02       		.byte	2
 4463 0eb2 AC       		.byte	-84
 4464 0eb3 20       		.byte	32
 4465 0eb4 AD       		.byte	-83
 4466 0eb5 08       		.byte	8
 4467 0eb6 AE       		.byte	-82
 4468 0eb7 02       		.byte	2
 4469 0eb8 AF       		.byte	-81
 4470 0eb9 10       		.byte	16
ARM GAS  C:\Users\xavieran\AppData\Local\Temp\ccKklXac.s 			page 126


 4471 0eba B0       		.byte	-80
 4472 0ebb 01       		.byte	1
 4473 0ebc B3       		.byte	-77
 4474 0ebd 01       		.byte	1
 4475 0ebe B5       		.byte	-75
 4476 0ebf 06       		.byte	6
 4477 0ec0 B6       		.byte	-74
 4478 0ec1 7E       		.byte	126
 4479 0ec2 B7       		.byte	-73
 4480 0ec3 18       		.byte	24
 4481 0ec4 B8       		.byte	-72
 4482 0ec5 80       		.byte	-128
 4483 0ec6 B9       		.byte	-71
 4484 0ec7 28       		.byte	40
 4485 0ec8 BF       		.byte	-65
 4486 0ec9 14       		.byte	20
 4487 0eca C0       		.byte	-64
 4488 0ecb 23       		.byte	35
 4489 0ecc C5       		.byte	-59
 4490 0ecd 25       		.byte	37
 4491 0ece C8       		.byte	-56
 4492 0ecf 03       		.byte	3
 4493 0ed0 C9       		.byte	-55
 4494 0ed1 FF       		.byte	-1
 4495 0ed2 CA       		.byte	-54
 4496 0ed3 FF       		.byte	-1
 4497 0ed4 CB       		.byte	-53
 4498 0ed5 FF       		.byte	-1
 4499 0ed6 CC       		.byte	-52
 4500 0ed7 42       		.byte	66
 4501 0ed8 CD       		.byte	-51
 4502 0ed9 A0       		.byte	-96
 4503 0eda CE       		.byte	-50
 4504 0edb 70       		.byte	112
 4505 0edc D0       		.byte	-48
 4506 0edd 08       		.byte	8
 4507 0ede D1       		.byte	-47
 4508 0edf 10       		.byte	16
 4509 0ee0 D8       		.byte	-40
 4510 0ee1 04       		.byte	4
 4511 0ee2 D9       		.byte	-39
 4512 0ee3 04       		.byte	4
 4513 0ee4 DA       		.byte	-38
 4514 0ee5 04       		.byte	4
 4515 0ee6 DC       		.byte	-36
 4516 0ee7 22       		.byte	34
 4517 0ee8 DD       		.byte	-35
 4518 0ee9 02       		.byte	2
 4519 0eea DF       		.byte	-33
 4520 0eeb 01       		.byte	1
 4521 0eec E1       		.byte	-31
 4522 0eed 48       		.byte	72
 4523 0eee E2       		.byte	-30
 4524 0eef 40       		.byte	64
 4525 0ef0 E3       		.byte	-29
 4526 0ef1 48       		.byte	72
 4527 0ef2 E4       		.byte	-28
ARM GAS  C:\Users\xavieran\AppData\Local\Temp\ccKklXac.s 			page 127


 4528 0ef3 80       		.byte	-128
 4529 0ef4 E5       		.byte	-27
 4530 0ef5 48       		.byte	72
 4531 0ef6 E6       		.byte	-26
 4532 0ef7 80       		.byte	-128
 4533 0ef8 E7       		.byte	-25
 4534 0ef9 48       		.byte	72
 4535 0efa 05       		.byte	5
 4536 0efb 28       		.byte	40
 4537 0efc 06       		.byte	6
 4538 0efd 01       		.byte	1
 4539 0efe 07       		.byte	7
 4540 0eff 40       		.byte	64
 4541 0f00 09       		.byte	9
 4542 0f01 82       		.byte	-126
 4543 0f02 0B       		.byte	11
 4544 0f03 02       		.byte	2
 4545 0f04 0D       		.byte	13
 4546 0f05 80       		.byte	-128
 4547 0f06 0E       		.byte	14
 4548 0f07 20       		.byte	32
 4549 0f08 0F       		.byte	15
 4550 0f09 08       		.byte	8
 4551 0f0a 12       		.byte	18
 4552 0f0b 04       		.byte	4
 4553 0f0c 14       		.byte	20
 4554 0f0d 40       		.byte	64
 4555 0f0e 15       		.byte	21
 4556 0f0f 40       		.byte	64
 4557 0f10 17       		.byte	23
 4558 0f11 08       		.byte	8
 4559 0f12 1A       		.byte	26
 4560 0f13 80       		.byte	-128
 4561 0f14 1C       		.byte	28
 4562 0f15 02       		.byte	2
 4563 0f16 1E       		.byte	30
 4564 0f17 40       		.byte	64
 4565 0f18 1F       		.byte	31
 4566 0f19 40       		.byte	64
 4567 0f1a 26       		.byte	38
 4568 0f1b 40       		.byte	64
 4569 0f1c 27       		.byte	39
 4570 0f1d 24       		.byte	36
 4571 0f1e 2D       		.byte	45
 4572 0f1f 28       		.byte	40
 4573 0f20 2F       		.byte	47
 4574 0f21 41       		.byte	65
 4575 0f22 34       		.byte	52
 4576 0f23 08       		.byte	8
 4577 0f24 35       		.byte	53
 4578 0f25 02       		.byte	2
 4579 0f26 36       		.byte	54
 4580 0f27 50       		.byte	80
 4581 0f28 3C       		.byte	60
 4582 0f29 10       		.byte	16
 4583 0f2a 3D       		.byte	61
 4584 0f2b 40       		.byte	64
ARM GAS  C:\Users\xavieran\AppData\Local\Temp\ccKklXac.s 			page 128


 4585 0f2c 3E       		.byte	62
 4586 0f2d 08       		.byte	8
 4587 0f2e 41       		.byte	65
 4588 0f2f 02       		.byte	2
 4589 0f30 43       		.byte	67
 4590 0f31 08       		.byte	8
 4591 0f32 47       		.byte	71
 4592 0f33 24       		.byte	36
 4593 0f34 49       		.byte	73
 4594 0f35 05       		.byte	5
 4595 0f36 4D       		.byte	77
 4596 0f37 02       		.byte	2
 4597 0f38 4E       		.byte	78
 4598 0f39 80       		.byte	-128
 4599 0f3a 4F       		.byte	79
 4600 0f3b 08       		.byte	8
 4601 0f3c 52       		.byte	82
 4602 0f3d 04       		.byte	4
 4603 0f3e 53       		.byte	83
 4604 0f3f 08       		.byte	8
 4605 0f40 59       		.byte	89
 4606 0f41 05       		.byte	5
 4607 0f42 5A       		.byte	90
 4608 0f43 80       		.byte	-128
 4609 0f44 70       		.byte	112
 4610 0f45 01       		.byte	1
 4611 0f46 71       		.byte	113
 4612 0f47 02       		.byte	2
 4613 0f48 80       		.byte	-128
 4614 0f49 10       		.byte	16
 4615 0f4a 82       		.byte	-126
 4616 0f4b 41       		.byte	65
 4617 0f4c 83       		.byte	-125
 4618 0f4d 40       		.byte	64
 4619 0f4e 84       		.byte	-124
 4620 0f4f 48       		.byte	72
 4621 0f50 91       		.byte	-111
 4622 0f51 40       		.byte	64
 4623 0f52 94       		.byte	-108
 4624 0f53 02       		.byte	2
 4625 0f54 96       		.byte	-106
 4626 0f55 40       		.byte	64
 4627 0f56 99       		.byte	-103
 4628 0f57 28       		.byte	40
 4629 0f58 9A       		.byte	-102
 4630 0f59 09       		.byte	9
 4631 0f5a 9B       		.byte	-101
 4632 0f5b 08       		.byte	8
 4633 0f5c 9C       		.byte	-100
 4634 0f5d 40       		.byte	64
 4635 0f5e 9E       		.byte	-98
 4636 0f5f 04       		.byte	4
 4637 0f60 A1       		.byte	-95
 4638 0f61 80       		.byte	-128
 4639 0f62 A2       		.byte	-94
 4640 0f63 11       		.byte	17
 4641 0f64 A4       		.byte	-92
ARM GAS  C:\Users\xavieran\AppData\Local\Temp\ccKklXac.s 			page 129


 4642 0f65 01       		.byte	1
 4643 0f66 A6       		.byte	-90
 4644 0f67 80       		.byte	-128
 4645 0f68 A9       		.byte	-87
 4646 0f69 02       		.byte	2
 4647 0f6a AA       		.byte	-86
 4648 0f6b 04       		.byte	4
 4649 0f6c AD       		.byte	-83
 4650 0f6d 01       		.byte	1
 4651 0f6e AF       		.byte	-81
 4652 0f6f 10       		.byte	16
 4653 0f70 B0       		.byte	-80
 4654 0f71 A0       		.byte	-96
 4655 0f72 B5       		.byte	-75
 4656 0f73 40       		.byte	64
 4657 0f74 B6       		.byte	-74
 4658 0f75 12       		.byte	18
 4659 0f76 C0       		.byte	-64
 4660 0f77 F0       		.byte	-16
 4661 0f78 C2       		.byte	-62
 4662 0f79 E8       		.byte	-24
 4663 0f7a C4       		.byte	-60
 4664 0f7b B2       		.byte	-78
 4665 0f7c CA       		.byte	-54
 4666 0f7d F0       		.byte	-16
 4667 0f7e CC       		.byte	-52
 4668 0f7f F0       		.byte	-16
 4669 0f80 CE       		.byte	-50
 4670 0f81 70       		.byte	112
 4671 0f82 D0       		.byte	-48
 4672 0f83 63       		.byte	99
 4673 0f84 D6       		.byte	-42
 4674 0f85 0B       		.byte	11
 4675 0f86 E2       		.byte	-30
 4676 0f87 80       		.byte	-128
 4677 0f88 E4       		.byte	-28
 4678 0f89 04       		.byte	4
 4679 0f8a E6       		.byte	-26
 4680 0f8b 20       		.byte	32
 4681 0f8c E8       		.byte	-24
 4682 0f8d 44       		.byte	68
 4683 0f8e EA       		.byte	-22
 4684 0f8f 01       		.byte	1
 4685 0f90 0A       		.byte	10
 4686 0f91 10       		.byte	16
 4687 0f92 0B       		.byte	11
 4688 0f93 04       		.byte	4
 4689 0f94 0E       		.byte	14
 4690 0f95 42       		.byte	66
 4691 0f96 30       		.byte	48
 4692 0f97 08       		.byte	8
 4693 0f98 31       		.byte	49
 4694 0f99 40       		.byte	64
 4695 0f9a 34       		.byte	52
 4696 0f9b 02       		.byte	2
 4697 0f9c 37       		.byte	55
 4698 0f9d 80       		.byte	-128
ARM GAS  C:\Users\xavieran\AppData\Local\Temp\ccKklXac.s 			page 130


 4699 0f9e 3B       		.byte	59
 4700 0f9f 80       		.byte	-128
 4701 0fa0 3F       		.byte	63
 4702 0fa1 40       		.byte	64
 4703 0fa2 52       		.byte	82
 4704 0fa3 10       		.byte	16
 4705 0fa4 58       		.byte	88
 4706 0fa5 40       		.byte	64
 4707 0fa6 8B       		.byte	-117
 4708 0fa7 44       		.byte	68
 4709 0fa8 8E       		.byte	-114
 4710 0fa9 10       		.byte	16
 4711 0faa C2       		.byte	-62
 4712 0fab F0       		.byte	-16
 4713 0fac CC       		.byte	-52
 4714 0fad F0       		.byte	-16
 4715 0fae CE       		.byte	-50
 4716 0faf 30       		.byte	48
 4717 0fb0 D4       		.byte	-44
 4718 0fb1 A0       		.byte	-96
 4719 0fb2 00       		.byte	0
 4720 0fb3 02       		.byte	2
 4721 0fb4 05       		.byte	5
 4722 0fb5 04       		.byte	4
 4723 0fb6 31       		.byte	49
 4724 0fb7 20       		.byte	32
 4725 0fb8 32       		.byte	50
 4726 0fb9 04       		.byte	4
 4727 0fba 35       		.byte	53
 4728 0fbb 80       		.byte	-128
 4729 0fbc 37       		.byte	55
 4730 0fbd 02       		.byte	2
 4731 0fbe 3B       		.byte	59
 4732 0fbf 10       		.byte	16
 4733 0fc0 59       		.byte	89
 4734 0fc1 08       		.byte	8
 4735 0fc2 63       		.byte	99
 4736 0fc3 20       		.byte	32
 4737 0fc4 64       		.byte	100
 4738 0fc5 10       		.byte	16
 4739 0fc6 67       		.byte	103
 4740 0fc7 02       		.byte	2
 4741 0fc8 83       		.byte	-125
 4742 0fc9 80       		.byte	-128
 4743 0fca 84       		.byte	-124
 4744 0fcb 10       		.byte	16
 4745 0fcc 93       		.byte	-109
 4746 0fcd 10       		.byte	16
 4747 0fce 97       		.byte	-105
 4748 0fcf 80       		.byte	-128
 4749 0fd0 9A       		.byte	-102
 4750 0fd1 80       		.byte	-128
 4751 0fd2 9D       		.byte	-99
 4752 0fd3 40       		.byte	64
 4753 0fd4 9F       		.byte	-97
 4754 0fd5 80       		.byte	-128
 4755 0fd6 A1       		.byte	-95
ARM GAS  C:\Users\xavieran\AppData\Local\Temp\ccKklXac.s 			page 131


 4756 0fd7 04       		.byte	4
 4757 0fd8 A3       		.byte	-93
 4758 0fd9 10       		.byte	16
 4759 0fda A4       		.byte	-92
 4760 0fdb 08       		.byte	8
 4761 0fdc AA       		.byte	-86
 4762 0fdd 41       		.byte	65
 4763 0fde AC       		.byte	-84
 4764 0fdf 42       		.byte	66
 4765 0fe0 AE       		.byte	-82
 4766 0fe1 10       		.byte	16
 4767 0fe2 AF       		.byte	-81
 4768 0fe3 10       		.byte	16
 4769 0fe4 B5       		.byte	-75
 4770 0fe5 04       		.byte	4
 4771 0fe6 B6       		.byte	-74
 4772 0fe7 80       		.byte	-128
 4773 0fe8 B7       		.byte	-73
 4774 0fe9 10       		.byte	16
 4775 0fea C0       		.byte	-64
 4776 0feb 30       		.byte	48
 4777 0fec CC       		.byte	-52
 4778 0fed F0       		.byte	-16
 4779 0fee CE       		.byte	-50
 4780 0fef 10       		.byte	16
 4781 0ff0 D6       		.byte	-42
 4782 0ff1 C0       		.byte	-64
 4783 0ff2 D8       		.byte	-40
 4784 0ff3 C0       		.byte	-64
 4785 0ff4 E2       		.byte	-30
 4786 0ff5 80       		.byte	-128
 4787 0ff6 E6       		.byte	-26
 4788 0ff7 40       		.byte	64
 4789 0ff8 E8       		.byte	-24
 4790 0ff9 20       		.byte	32
 4791 0ffa EA       		.byte	-22
 4792 0ffb 50       		.byte	80
 4793 0ffc EC       		.byte	-20
 4794 0ffd 80       		.byte	-128
 4795 0ffe EE       		.byte	-18
 4796 0fff 50       		.byte	80
 4797 1000 10       		.byte	16
 4798 1001 80       		.byte	-128
 4799 1002 3E       		.byte	62
 4800 1003 10       		.byte	16
 4801 1004 55       		.byte	85
 4802 1005 04       		.byte	4
 4803 1006 84       		.byte	-124
 4804 1007 08       		.byte	8
 4805 1008 85       		.byte	-123
 4806 1009 80       		.byte	-128
 4807 100a 96       		.byte	-106
 4808 100b 08       		.byte	8
 4809 100c 97       		.byte	-105
 4810 100d 82       		.byte	-126
 4811 100e 99       		.byte	-103
 4812 100f 04       		.byte	4
ARM GAS  C:\Users\xavieran\AppData\Local\Temp\ccKklXac.s 			page 132


 4813 1010 9A       		.byte	-102
 4814 1011 80       		.byte	-128
 4815 1012 9D       		.byte	-99
 4816 1013 C0       		.byte	-64
 4817 1014 A0       		.byte	-96
 4818 1015 01       		.byte	1
 4819 1016 A1       		.byte	-95
 4820 1017 04       		.byte	4
 4821 1018 A4       		.byte	-92
 4822 1019 88       		.byte	-120
 4823 101a A5       		.byte	-91
 4824 101b 20       		.byte	32
 4825 101c A9       		.byte	-87
 4826 101d 08       		.byte	8
 4827 101e AF       		.byte	-81
 4828 101f 02       		.byte	2
 4829 1020 B4       		.byte	-76
 4830 1021 80       		.byte	-128
 4831 1022 C4       		.byte	-60
 4832 1023 10       		.byte	16
 4833 1024 CE       		.byte	-50
 4834 1025 20       		.byte	32
 4835 1026 D4       		.byte	-44
 4836 1027 40       		.byte	64
 4837 1028 E2       		.byte	-30
 4838 1029 50       		.byte	80
 4839 102a EE       		.byte	-18
 4840 102b 60       		.byte	96
 4841 102c 18       		.byte	24
 4842 102d 01       		.byte	1
 4843 102e 1A       		.byte	26
 4844 102f 40       		.byte	64
 4845 1030 1D       		.byte	29
 4846 1031 10       		.byte	16
 4847 1032 1F       		.byte	31
 4848 1033 01       		.byte	1
 4849 1034 66       		.byte	102
 4850 1035 20       		.byte	32
 4851 1036 72       		.byte	114
 4852 1037 20       		.byte	32
 4853 1038 76       		.byte	118
 4854 1039 20       		.byte	32
 4855 103a 86       		.byte	-122
 4856 103b 04       		.byte	4
 4857 103c 88       		.byte	-120
 4858 103d 01       		.byte	1
 4859 103e 96       		.byte	-106
 4860 103f 18       		.byte	24
 4861 1040 97       		.byte	-105
 4862 1041 82       		.byte	-126
 4863 1042 9A       		.byte	-102
 4864 1043 80       		.byte	-128
 4865 1044 9D       		.byte	-99
 4866 1045 40       		.byte	64
 4867 1046 A0       		.byte	-96
 4868 1047 01       		.byte	1
 4869 1048 A9       		.byte	-87
ARM GAS  C:\Users\xavieran\AppData\Local\Temp\ccKklXac.s 			page 133


 4870 1049 04       		.byte	4
 4871 104a AD       		.byte	-83
 4872 104b 20       		.byte	32
 4873 104c C6       		.byte	-58
 4874 104d F0       		.byte	-16
 4875 104e D8       		.byte	-40
 4876 104f 80       		.byte	-128
 4877 1050 DC       		.byte	-36
 4878 1051 80       		.byte	-128
 4879 1052 DE       		.byte	-34
 4880 1053 20       		.byte	32
 4881 1054 E6       		.byte	-26
 4882 1055 10       		.byte	16
 4883 1056 EA       		.byte	-22
 4884 1057 10       		.byte	16
 4885 1058 EC       		.byte	-20
 4886 1059 80       		.byte	-128
 4887 105a 00       		.byte	0
 4888 105b 01       		.byte	1
 4889 105c 01       		.byte	1
 4890 105d 40       		.byte	64
 4891 105e 04       		.byte	4
 4892 105f 48       		.byte	72
 4893 1060 08       		.byte	8
 4894 1061 01       		.byte	1
 4895 1062 62       		.byte	98
 4896 1063 01       		.byte	1
 4897 1064 8C       		.byte	-116
 4898 1065 04       		.byte	4
 4899 1066 8D       		.byte	-115
 4900 1067 40       		.byte	64
 4901 1068 C0       		.byte	-64
 4902 1069 0F       		.byte	15
 4903 106a C2       		.byte	-62
 4904 106b 08       		.byte	8
 4905 106c D8       		.byte	-40
 4906 106d 02       		.byte	2
 4907 106e E2       		.byte	-30
 4908 106f 0A       		.byte	10
 4909 1070 03       		.byte	3
 4910 1071 40       		.byte	64
 4911 1072 08       		.byte	8
 4912 1073 01       		.byte	1
 4913 1074 09       		.byte	9
 4914 1075 04       		.byte	4
 4915 1076 0F       		.byte	15
 4916 1077 A0       		.byte	-96
 4917 1078 5B       		.byte	91
 4918 1079 02       		.byte	2
 4919 107a 62       		.byte	98
 4920 107b 10       		.byte	16
 4921 107c 83       		.byte	-125
 4922 107d 40       		.byte	64
 4923 107e 9E       		.byte	-98
 4924 107f 01       		.byte	1
 4925 1080 B0       		.byte	-80
 4926 1081 01       		.byte	1
ARM GAS  C:\Users\xavieran\AppData\Local\Temp\ccKklXac.s 			page 134


 4927 1082 B4       		.byte	-76
 4928 1083 41       		.byte	65
 4929 1084 C0       		.byte	-64
 4930 1085 08       		.byte	8
 4931 1086 C2       		.byte	-62
 4932 1087 0C       		.byte	12
 4933 1088 D6       		.byte	-42
 4934 1089 02       		.byte	2
 4935 108a D8       		.byte	-40
 4936 108b 02       		.byte	2
 4937 108c EA       		.byte	-22
 4938 108d 02       		.byte	2
 4939 108e EE       		.byte	-18
 4940 108f 0C       		.byte	12
 4941 1090 07       		.byte	7
 4942 1091 10       		.byte	16
 4943 1092 87       		.byte	-121
 4944 1093 10       		.byte	16
 4945 1094 8F       		.byte	-113
 4946 1095 08       		.byte	8
 4947 1096 98       		.byte	-104
 4948 1097 01       		.byte	1
 4949 1098 9E       		.byte	-98
 4950 1099 11       		.byte	17
 4951 109a 9F       		.byte	-97
 4952 109b 12       		.byte	18
 4953 109c A3       		.byte	-93
 4954 109d 10       		.byte	16
 4955 109e AB       		.byte	-85
 4956 109f 50       		.byte	80
 4957 10a0 B5       		.byte	-75
 4958 10a1 04       		.byte	4
 4959 10a2 C0       		.byte	-64
 4960 10a3 04       		.byte	4
 4961 10a4 E4       		.byte	-28
 4962 10a5 02       		.byte	2
 4963 10a6 EE       		.byte	-18
 4964 10a7 02       		.byte	2
 4965 10a8 0B       		.byte	11
 4966 10a9 88       		.byte	-120
 4967 10aa 0F       		.byte	15
 4968 10ab 10       		.byte	16
 4969 10ac 87       		.byte	-121
 4970 10ad 04       		.byte	4
 4971 10ae 97       		.byte	-105
 4972 10af 90       		.byte	-112
 4973 10b0 98       		.byte	-104
 4974 10b1 01       		.byte	1
 4975 10b2 9B       		.byte	-101
 4976 10b3 08       		.byte	8
 4977 10b4 9E       		.byte	-98
 4978 10b5 11       		.byte	17
 4979 10b6 9F       		.byte	-97
 4980 10b7 02       		.byte	2
 4981 10b8 A3       		.byte	-93
 4982 10b9 10       		.byte	16
 4983 10ba AF       		.byte	-81
ARM GAS  C:\Users\xavieran\AppData\Local\Temp\ccKklXac.s 			page 135


 4984 10bb 40       		.byte	64
 4985 10bc C2       		.byte	-62
 4986 10bd 0E       		.byte	14
 4987 10be 26       		.byte	38
 4988 10bf 80       		.byte	-128
 4989 10c0 56       		.byte	86
 4990 10c1 80       		.byte	-128
 4991 10c2 66       		.byte	102
 4992 10c3 20       		.byte	32
 4993 10c4 85       		.byte	-123
 4994 10c5 40       		.byte	64
 4995 10c6 87       		.byte	-121
 4996 10c7 40       		.byte	64
 4997 10c8 8E       		.byte	-114
 4998 10c9 80       		.byte	-128
 4999 10ca 92       		.byte	-110
 5000 10cb 40       		.byte	64
 5001 10cc 96       		.byte	-106
 5002 10cd 10       		.byte	16
 5003 10ce 97       		.byte	-105
 5004 10cf 80       		.byte	-128
 5005 10d0 99       		.byte	-103
 5006 10d1 10       		.byte	16
 5007 10d2 9A       		.byte	-102
 5008 10d3 80       		.byte	-128
 5009 10d4 9D       		.byte	-99
 5010 10d5 40       		.byte	64
 5011 10d6 9E       		.byte	-98
 5012 10d7 20       		.byte	32
 5013 10d8 B4       		.byte	-76
 5014 10d9 01       		.byte	1
 5015 10da C8       		.byte	-56
 5016 10db 20       		.byte	32
 5017 10dc D4       		.byte	-44
 5018 10dd 40       		.byte	64
 5019 10de D8       		.byte	-40
 5020 10df 80       		.byte	-128
 5021 10e0 E2       		.byte	-30
 5022 10e1 10       		.byte	16
 5023 10e2 E6       		.byte	-26
 5024 10e3 10       		.byte	16
 5025 10e4 02       		.byte	2
 5026 10e5 02       		.byte	2
 5027 10e6 17       		.byte	23
 5028 10e7 02       		.byte	2
 5029 10e8 23       		.byte	35
 5030 10e9 10       		.byte	16
 5031 10ea 25       		.byte	37
 5032 10eb 40       		.byte	64
 5033 10ec 57       		.byte	87
 5034 10ed 80       		.byte	-128
 5035 10ee 73       		.byte	115
 5036 10ef 10       		.byte	16
 5037 10f0 7D       		.byte	125
 5038 10f1 80       		.byte	-128
 5039 10f2 81       		.byte	-127
 5040 10f3 10       		.byte	16
ARM GAS  C:\Users\xavieran\AppData\Local\Temp\ccKklXac.s 			page 136


 5041 10f4 86       		.byte	-122
 5042 10f5 02       		.byte	2
 5043 10f6 8A       		.byte	-118
 5044 10f7 20       		.byte	32
 5045 10f8 8B       		.byte	-117
 5046 10f9 02       		.byte	2
 5047 10fa 8F       		.byte	-113
 5048 10fb 80       		.byte	-128
 5049 10fc 99       		.byte	-103
 5050 10fd 10       		.byte	16
 5051 10fe 9E       		.byte	-98
 5052 10ff 20       		.byte	32
 5053 1100 AA       		.byte	-86
 5054 1101 50       		.byte	80
 5055 1102 C0       		.byte	-64
 5056 1103 40       		.byte	64
 5057 1104 C4       		.byte	-60
 5058 1105 20       		.byte	32
 5059 1106 C8       		.byte	-56
 5060 1107 60       		.byte	96
 5061 1108 D4       		.byte	-44
 5062 1109 40       		.byte	64
 5063 110a DC       		.byte	-36
 5064 110b 80       		.byte	-128
 5065 110c DE       		.byte	-34
 5066 110d 20       		.byte	32
 5067 110e E0       		.byte	-32
 5068 110f 40       		.byte	64
 5069 1110 E4       		.byte	-28
 5070 1111 20       		.byte	32
 5071 1112 E8       		.byte	-24
 5072 1113 20       		.byte	32
 5073 1114 EA       		.byte	-22
 5074 1115 80       		.byte	-128
 5075 1116 08       		.byte	8
 5076 1117 40       		.byte	64
 5077 1118 0C       		.byte	12
 5078 1119 10       		.byte	16
 5079 111a 12       		.byte	18
 5080 111b 10       		.byte	16
 5081 111c 13       		.byte	19
 5082 111d 20       		.byte	32
 5083 111e 17       		.byte	23
 5084 111f 02       		.byte	2
 5085 1120 3C       		.byte	60
 5086 1121 10       		.byte	16
 5087 1122 3F       		.byte	63
 5088 1123 20       		.byte	32
 5089 1124 5F       		.byte	95
 5090 1125 08       		.byte	8
 5091 1126 63       		.byte	99
 5092 1127 02       		.byte	2
 5093 1128 78       		.byte	120
 5094 1129 01       		.byte	1
 5095 112a 79       		.byte	121
 5096 112b 40       		.byte	64
 5097 112c 7C       		.byte	124
ARM GAS  C:\Users\xavieran\AppData\Local\Temp\ccKklXac.s 			page 137


 5098 112d 10       		.byte	16
 5099 112e 87       		.byte	-121
 5100 112f 01       		.byte	1
 5101 1130 8D       		.byte	-115
 5102 1131 40       		.byte	64
 5103 1132 98       		.byte	-104
 5104 1133 01       		.byte	1
 5105 1134 9B       		.byte	-101
 5106 1135 08       		.byte	8
 5107 1136 9E       		.byte	-98
 5108 1137 11       		.byte	17
 5109 1138 9F       		.byte	-97
 5110 1139 02       		.byte	2
 5111 113a A0       		.byte	-96
 5112 113b 08       		.byte	8
 5113 113c A3       		.byte	-93
 5114 113d 10       		.byte	16
 5115 113e B4       		.byte	-76
 5116 113f 08       		.byte	8
 5117 1140 C2       		.byte	-62
 5118 1141 03       		.byte	3
 5119 1142 C4       		.byte	-60
 5120 1143 0E       		.byte	14
 5121 1144 D6       		.byte	-42
 5122 1145 03       		.byte	3
 5123 1146 DC       		.byte	-36
 5124 1147 01       		.byte	1
 5125 1148 DE       		.byte	-34
 5126 1149 03       		.byte	3
 5127 114a E0       		.byte	-32
 5128 114b 02       		.byte	2
 5129 114c EC       		.byte	-20
 5130 114d 08       		.byte	8
 5131 114e 0C       		.byte	12
 5132 114f 20       		.byte	32
 5133 1150 10       		.byte	16
 5134 1151 40       		.byte	64
 5135 1152 57       		.byte	87
 5136 1153 80       		.byte	-128
 5137 1154 62       		.byte	98
 5138 1155 01       		.byte	1
 5139 1156 74       		.byte	116
 5140 1157 08       		.byte	8
 5141 1158 83       		.byte	-125
 5142 1159 80       		.byte	-128
 5143 115a 88       		.byte	-120
 5144 115b 60       		.byte	96
 5145 115c 9A       		.byte	-102
 5146 115d 01       		.byte	1
 5147 115e A0       		.byte	-96
 5148 115f 08       		.byte	8
 5149 1160 AA       		.byte	-86
 5150 1161 01       		.byte	1
 5151 1162 AB       		.byte	-85
 5152 1163 20       		.byte	32
 5153 1164 B0       		.byte	-80
 5154 1165 50       		.byte	80
ARM GAS  C:\Users\xavieran\AppData\Local\Temp\ccKklXac.s 			page 138


 5155 1166 C2       		.byte	-62
 5156 1167 01       		.byte	1
 5157 1168 C4       		.byte	-60
 5158 1169 08       		.byte	8
 5159 116a D4       		.byte	-44
 5160 116b 02       		.byte	2
 5161 116c D8       		.byte	-40
 5162 116d 02       		.byte	2
 5163 116e DE       		.byte	-34
 5164 116f 04       		.byte	4
 5165 1170 E2       		.byte	-30
 5166 1171 01       		.byte	1
 5167 1172 E6       		.byte	-26
 5168 1173 04       		.byte	4
 5169 1174 EA       		.byte	-22
 5170 1175 05       		.byte	5
 5171 1176 10       		.byte	16
 5172 1177 9C       		.byte	-100
 5173 1178 11       		.byte	17
 5174 1179 01       		.byte	1
 5175 117a 1A       		.byte	26
 5176 117b 1C       		.byte	28
 5177 117c 1B       		.byte	27
 5178 117d 01       		.byte	1
 5179 117e 1C       		.byte	28
 5180 117f 84       		.byte	-124
 5181 1180 1D       		.byte	29
 5182 1181 01       		.byte	1
 5183 1182 10       		.byte	16
 5184 1183 01       		.byte	1
 5185              		.align	2
 5186              		.type	BS_IOPINS0_0_VAL.4879, %object
 5187              		.size	BS_IOPINS0_0_VAL.4879, 8
 5188              	BS_IOPINS0_0_VAL.4879:
 5189 1184 03       		.byte	3
 5190 1185 F4       		.byte	-12
 5191 1186 F4       		.byte	-12
 5192 1187 00       		.byte	0
 5193 1188 F0       		.byte	-16
 5194 1189 00       		.byte	0
 5195 118a 00       		.byte	0
 5196 118b 00       		.byte	0
 5197              		.align	2
 5198              		.type	BS_IOPINS0_7_VAL.4880, %object
 5199              		.size	BS_IOPINS0_7_VAL.4880, 8
 5200              	BS_IOPINS0_7_VAL.4880:
 5201 118c C2       		.byte	-62
 5202 118d 2D       		.byte	45
 5203 118e AD       		.byte	-83
 5204 118f 00       		.byte	0
 5205 1190 2D       		.byte	45
 5206 1191 00       		.byte	0
 5207 1192 00       		.byte	0
 5208 1193 00       		.byte	0
 5209              		.align	2
 5210              		.type	BS_IOPINS0_8_VAL.4881, %object
 5211              		.size	BS_IOPINS0_8_VAL.4881, 10
ARM GAS  C:\Users\xavieran\AppData\Local\Temp\ccKklXac.s 			page 139


 5212              	BS_IOPINS0_8_VAL.4881:
 5213 1194 00       		.byte	0
 5214 1195 00       		.byte	0
 5215 1196 20       		.byte	32
 5216 1197 18       		.byte	24
 5217 1198 18       		.byte	24
 5218 1199 00       		.byte	0
 5219 119a 18       		.byte	24
 5220 119b 00       		.byte	0
 5221 119c C0       		.byte	-64
 5222 119d 00       		.byte	0
 5223 119e 0000     		.align	2
 5224              		.type	BS_IOPINS0_1_VAL.4882, %object
 5225              		.size	BS_IOPINS0_1_VAL.4882, 10
 5226              	BS_IOPINS0_1_VAL.4882:
 5227 11a0 C0       		.byte	-64
 5228 11a1 00       		.byte	0
 5229 11a2 00       		.byte	0
 5230 11a3 00       		.byte	0
 5231 11a4 C0       		.byte	-64
 5232 11a5 00       		.byte	0
 5233 11a6 C0       		.byte	-64
 5234 11a7 00       		.byte	0
 5235 11a8 00       		.byte	0
 5236 11a9 00       		.byte	0
 5237 11aa 0000     		.align	2
 5238              		.type	BS_IOPINS0_2_VAL.4883, %object
 5239              		.size	BS_IOPINS0_2_VAL.4883, 10
 5240              	BS_IOPINS0_2_VAL.4883:
 5241 11ac 30       		.byte	48
 5242 11ad 00       		.byte	0
 5243 11ae 05       		.byte	5
 5244 11af 00       		.byte	0
 5245 11b0 30       		.byte	48
 5246 11b1 00       		.byte	0
 5247 11b2 30       		.byte	48
 5248 11b3 00       		.byte	0
 5249 11b4 00       		.byte	0
 5250 11b5 00       		.byte	0
 5251 11b6 0000     		.align	2
 5252              		.type	BS_IOPINS0_3_VAL.4884, %object
 5253              		.size	BS_IOPINS0_3_VAL.4884, 10
 5254              	BS_IOPINS0_3_VAL.4884:
 5255 11b8 08       		.byte	8
 5256 11b9 00       		.byte	0
 5257 11ba 04       		.byte	4
 5258 11bb 08       		.byte	8
 5259 11bc 08       		.byte	8
 5260 11bd 00       		.byte	0
 5261 11be 08       		.byte	8
 5262 11bf 00       		.byte	0
 5263 11c0 00       		.byte	0
 5264 11c1 00       		.byte	0
 5265 11c2 0000     		.align	2
 5266              		.type	BS_IOPINS0_4_VAL.4885, %object
 5267              		.size	BS_IOPINS0_4_VAL.4885, 8
 5268              	BS_IOPINS0_4_VAL.4885:
ARM GAS  C:\Users\xavieran\AppData\Local\Temp\ccKklXac.s 			page 140


 5269 11c4 F0       		.byte	-16
 5270 11c5 03       		.byte	3
 5271 11c6 03       		.byte	3
 5272 11c7 00       		.byte	0
 5273 11c8 03       		.byte	3
 5274 11c9 00       		.byte	0
 5275 11ca 00       		.byte	0
 5276 11cb 01       		.byte	1
 5277              		.align	2
 5278              		.type	BS_IOPINS0_5_VAL.4886, %object
 5279              		.size	BS_IOPINS0_5_VAL.4886, 8
 5280              	BS_IOPINS0_5_VAL.4886:
 5281 11cc F0       		.byte	-16
 5282 11cd 83       		.byte	-125
 5283 11ce 73       		.byte	115
 5284 11cf 00       		.byte	0
 5285 11d0 82       		.byte	-126
 5286 11d1 00       		.byte	0
 5287 11d2 00       		.byte	0
 5288 11d3 00       		.byte	0
 5289              		.align	2
 5290              		.type	BS_IOPINS0_6_VAL.4887, %object
 5291              		.size	BS_IOPINS0_6_VAL.4887, 8
 5292              	BS_IOPINS0_6_VAL.4887:
 5293 11d4 1F       		.byte	31
 5294 11d5 F0       		.byte	-16
 5295 11d6 E0       		.byte	-32
 5296 11d7 00       		.byte	0
 5297 11d8 10       		.byte	16
 5298 11d9 00       		.byte	0
 5299 11da 00       		.byte	0
 5300 11db 00       		.byte	0
 5301              		.align	2
 5302              		.type	BS_UCFG_BCTL0_VAL.4901, %object
 5303              		.size	BS_UCFG_BCTL0_VAL.4901, 16
 5304              	BS_UCFG_BCTL0_VAL.4901:
 5305 11dc 3C       		.byte	60
 5306 11dd 01       		.byte	1
 5307 11de 00       		.byte	0
 5308 11df 00       		.byte	0
 5309 11e0 00       		.byte	0
 5310 11e1 00       		.byte	0
 5311 11e2 00       		.byte	0
 5312 11e3 00       		.byte	0
 5313 11e4 10       		.byte	16
 5314 11e5 00       		.byte	0
 5315 11e6 18       		.byte	24
 5316 11e7 01       		.byte	1
 5317 11e8 14       		.byte	20
 5318 11e9 00       		.byte	0
 5319 11ea 24       		.byte	36
 5320 11eb 01       		.byte	1
 5321              		.align	2
 5322              		.type	BS_IDMUX_IRQ_VAL.4900, %object
 5323              		.size	BS_IDMUX_IRQ_VAL.4900, 8
 5324              	BS_IDMUX_IRQ_VAL.4900:
 5325 11ec FF       		.byte	-1
ARM GAS  C:\Users\xavieran\AppData\Local\Temp\ccKklXac.s 			page 141


 5326 11ed AB       		.byte	-85
 5327 11ee 0F       		.byte	15
 5328 11ef C0       		.byte	-64
 5329 11f0 00       		.byte	0
 5330 11f1 00       		.byte	0
 5331 11f2 00       		.byte	0
 5332 11f3 00       		.byte	0
 5333              		.text
 5334              	.Letext0:
 5335              		.file 2 "c:\\program files (x86)\\cypress\\psoc creator\\3.2\\psoc creator\\import\\gnu\\arm\\4.8.
 5336              		.file 3 ".\\Generated_Source\\PSoC5\\cytypes.h"
 5337              		.section	.debug_info,"",%progbits
 5338              	.Ldebug_info0:
 5339 0000 C4050000 		.4byte	0x5c4
 5340 0004 0400     		.2byte	0x4
 5341 0006 00000000 		.4byte	.Ldebug_abbrev0
 5342 000a 04       		.byte	0x4
 5343 000b 01       		.uleb128 0x1
 5344 000c FC010000 		.4byte	.LASF64
 5345 0010 01       		.byte	0x1
 5346 0011 47010000 		.4byte	.LASF65
 5347 0015 D6020000 		.4byte	.LASF66
 5348 0019 00000000 		.4byte	.Ldebug_ranges0+0
 5349 001d 00000000 		.4byte	0
 5350 0021 00000000 		.4byte	.Ldebug_line0
 5351 0025 02       		.uleb128 0x2
 5352 0026 04       		.byte	0x4
 5353 0027 05       		.byte	0x5
 5354 0028 696E7400 		.ascii	"int\000"
 5355 002c 03       		.uleb128 0x3
 5356 002d 10000000 		.4byte	.LASF11
 5357 0031 02       		.byte	0x2
 5358 0032 D4       		.byte	0xd4
 5359 0033 37000000 		.4byte	0x37
 5360 0037 04       		.uleb128 0x4
 5361 0038 04       		.byte	0x4
 5362 0039 07       		.byte	0x7
 5363 003a 31010000 		.4byte	.LASF0
 5364 003e 04       		.uleb128 0x4
 5365 003f 01       		.byte	0x1
 5366 0040 06       		.byte	0x6
 5367 0041 9A000000 		.4byte	.LASF1
 5368 0045 04       		.uleb128 0x4
 5369 0046 01       		.byte	0x1
 5370 0047 08       		.byte	0x8
 5371 0048 BE020000 		.4byte	.LASF2
 5372 004c 04       		.uleb128 0x4
 5373 004d 02       		.byte	0x2
 5374 004e 05       		.byte	0x5
 5375 004f CC020000 		.4byte	.LASF3
 5376 0053 04       		.uleb128 0x4
 5377 0054 02       		.byte	0x2
 5378 0055 07       		.byte	0x7
 5379 0056 AD010000 		.4byte	.LASF4
 5380 005a 04       		.uleb128 0x4
 5381 005b 04       		.byte	0x4
 5382 005c 05       		.byte	0x5
ARM GAS  C:\Users\xavieran\AppData\Local\Temp\ccKklXac.s 			page 142


 5383 005d E8000000 		.4byte	.LASF5
 5384 0061 04       		.uleb128 0x4
 5385 0062 04       		.byte	0x4
 5386 0063 07       		.byte	0x7
 5387 0064 6F010000 		.4byte	.LASF6
 5388 0068 04       		.uleb128 0x4
 5389 0069 08       		.byte	0x8
 5390 006a 05       		.byte	0x5
 5391 006b 8C000000 		.4byte	.LASF7
 5392 006f 04       		.uleb128 0x4
 5393 0070 08       		.byte	0x8
 5394 0071 07       		.byte	0x7
 5395 0072 47000000 		.4byte	.LASF8
 5396 0076 04       		.uleb128 0x4
 5397 0077 04       		.byte	0x4
 5398 0078 07       		.byte	0x7
 5399 0079 E1010000 		.4byte	.LASF9
 5400 007d 05       		.uleb128 0x5
 5401 007e 04       		.byte	0x4
 5402 007f 04       		.uleb128 0x4
 5403 0080 01       		.byte	0x1
 5404 0081 08       		.byte	0x8
 5405 0082 62030000 		.4byte	.LASF10
 5406 0086 03       		.uleb128 0x3
 5407 0087 F7000000 		.4byte	.LASF12
 5408 008b 03       		.byte	0x3
 5409 008c B3       		.byte	0xb3
 5410 008d 45000000 		.4byte	0x45
 5411 0091 03       		.uleb128 0x3
 5412 0092 00000000 		.4byte	.LASF13
 5413 0096 03       		.byte	0x3
 5414 0097 B4       		.byte	0xb4
 5415 0098 53000000 		.4byte	0x53
 5416 009c 03       		.uleb128 0x3
 5417 009d 04010000 		.4byte	.LASF14
 5418 00a1 03       		.byte	0x3
 5419 00a2 B5       		.byte	0xb5
 5420 00a3 61000000 		.4byte	0x61
 5421 00a7 04       		.uleb128 0x4
 5422 00a8 04       		.byte	0x4
 5423 00a9 04       		.byte	0x4
 5424 00aa AB020000 		.4byte	.LASF15
 5425 00ae 04       		.uleb128 0x4
 5426 00af 08       		.byte	0x8
 5427 00b0 04       		.byte	0x4
 5428 00b1 FD000000 		.4byte	.LASF16
 5429 00b5 06       		.uleb128 0x6
 5430 00b6 B9020000 		.4byte	.LASF17
 5431 00ba 03       		.byte	0x3
 5432 00bb 5D01     		.2byte	0x15d
 5433 00bd C1000000 		.4byte	0xc1
 5434 00c1 07       		.uleb128 0x7
 5435 00c2 86000000 		.4byte	0x86
 5436 00c6 06       		.uleb128 0x6
 5437 00c7 F1000000 		.4byte	.LASF18
 5438 00cb 03       		.byte	0x3
 5439 00cc 5E01     		.2byte	0x15e
ARM GAS  C:\Users\xavieran\AppData\Local\Temp\ccKklXac.s 			page 143


 5440 00ce D2000000 		.4byte	0xd2
 5441 00d2 07       		.uleb128 0x7
 5442 00d3 91000000 		.4byte	0x91
 5443 00d7 08       		.uleb128 0x8
 5444 00d8 02       		.byte	0x2
 5445 00d9 01       		.byte	0x1
 5446 00da 7E       		.byte	0x7e
 5447 00db F8000000 		.4byte	0xf8
 5448 00df 09       		.uleb128 0x9
 5449 00e0 96030000 		.4byte	.LASF19
 5450 00e4 01       		.byte	0x1
 5451 00e5 80       		.byte	0x80
 5452 00e6 86000000 		.4byte	0x86
 5453 00ea 00       		.byte	0
 5454 00eb 09       		.uleb128 0x9
 5455 00ec 2B010000 		.4byte	.LASF20
 5456 00f0 01       		.byte	0x1
 5457 00f1 81       		.byte	0x81
 5458 00f2 86000000 		.4byte	0x86
 5459 00f6 01       		.byte	0x1
 5460 00f7 00       		.byte	0
 5461 00f8 03       		.uleb128 0x3
 5462 00f9 4F030000 		.4byte	.LASF21
 5463 00fd 01       		.byte	0x1
 5464 00fe 82       		.byte	0x82
 5465 00ff D7000000 		.4byte	0xd7
 5466 0103 0A       		.uleb128 0xa
 5467 0104 B8000000 		.4byte	.LASF22
 5468 0108 01       		.byte	0x1
 5469 0109 3C       		.byte	0x3c
 5470 010a 00000000 		.4byte	.LFB0
 5471 010e 1A000000 		.4byte	.LFE0-.LFB0
 5472 0112 01       		.uleb128 0x1
 5473 0113 9C       		.byte	0x9c
 5474 0114 31010000 		.4byte	0x131
 5475 0118 0B       		.uleb128 0xb
 5476 0119 7300     		.ascii	"s\000"
 5477 011b 01       		.byte	0x1
 5478 011c 3C       		.byte	0x3c
 5479 011d 7D000000 		.4byte	0x7d
 5480 0121 02       		.uleb128 0x2
 5481 0122 91       		.byte	0x91
 5482 0123 74       		.sleb128 -12
 5483 0124 0B       		.uleb128 0xb
 5484 0125 6E00     		.ascii	"n\000"
 5485 0127 01       		.byte	0x1
 5486 0128 3C       		.byte	0x3c
 5487 0129 2C000000 		.4byte	0x2c
 5488 012d 02       		.uleb128 0x2
 5489 012e 91       		.byte	0x91
 5490 012f 70       		.sleb128 -16
 5491 0130 00       		.byte	0
 5492 0131 0A       		.uleb128 0xa
 5493 0132 B6030000 		.4byte	.LASF23
 5494 0136 01       		.byte	0x1
 5495 0137 43       		.byte	0x43
 5496 0138 00000000 		.4byte	.LFB1
ARM GAS  C:\Users\xavieran\AppData\Local\Temp\ccKklXac.s 			page 144


 5497 013c 1C000000 		.4byte	.LFE1-.LFB1
 5498 0140 01       		.uleb128 0x1
 5499 0141 9C       		.byte	0x9c
 5500 0142 6F010000 		.4byte	0x16f
 5501 0146 0C       		.uleb128 0xc
 5502 0147 A6020000 		.4byte	.LASF24
 5503 014b 01       		.byte	0x1
 5504 014c 43       		.byte	0x43
 5505 014d 7D000000 		.4byte	0x7d
 5506 0151 02       		.uleb128 0x2
 5507 0152 91       		.byte	0x91
 5508 0153 74       		.sleb128 -12
 5509 0154 0B       		.uleb128 0xb
 5510 0155 73726300 		.ascii	"src\000"
 5511 0159 01       		.byte	0x1
 5512 015a 43       		.byte	0x43
 5513 015b 6F010000 		.4byte	0x16f
 5514 015f 02       		.uleb128 0x2
 5515 0160 91       		.byte	0x91
 5516 0161 70       		.sleb128 -16
 5517 0162 0B       		.uleb128 0xb
 5518 0163 6E00     		.ascii	"n\000"
 5519 0165 01       		.byte	0x1
 5520 0166 43       		.byte	0x43
 5521 0167 2C000000 		.4byte	0x2c
 5522 016b 02       		.uleb128 0x2
 5523 016c 91       		.byte	0x91
 5524 016d 6C       		.sleb128 -20
 5525 016e 00       		.byte	0
 5526 016f 0D       		.uleb128 0xd
 5527 0170 04       		.byte	0x4
 5528 0171 75010000 		.4byte	0x175
 5529 0175 0E       		.uleb128 0xe
 5530 0176 0A       		.uleb128 0xa
 5531 0177 D1010000 		.4byte	.LASF25
 5532 017b 01       		.byte	0x1
 5533 017c 4A       		.byte	0x4a
 5534 017d 00000000 		.4byte	.LFB2
 5535 0181 1C000000 		.4byte	.LFE2-.LFB2
 5536 0185 01       		.uleb128 0x1
 5537 0186 9C       		.byte	0x9c
 5538 0187 B4010000 		.4byte	0x1b4
 5539 018b 0C       		.uleb128 0xc
 5540 018c A6020000 		.4byte	.LASF24
 5541 0190 01       		.byte	0x1
 5542 0191 4A       		.byte	0x4a
 5543 0192 7D000000 		.4byte	0x7d
 5544 0196 02       		.uleb128 0x2
 5545 0197 91       		.byte	0x91
 5546 0198 74       		.sleb128 -12
 5547 0199 0B       		.uleb128 0xb
 5548 019a 73726300 		.ascii	"src\000"
 5549 019e 01       		.byte	0x1
 5550 019f 4A       		.byte	0x4a
 5551 01a0 6F010000 		.4byte	0x16f
 5552 01a4 02       		.uleb128 0x2
 5553 01a5 91       		.byte	0x91
ARM GAS  C:\Users\xavieran\AppData\Local\Temp\ccKklXac.s 			page 145


 5554 01a6 70       		.sleb128 -16
 5555 01a7 0B       		.uleb128 0xb
 5556 01a8 6E00     		.ascii	"n\000"
 5557 01aa 01       		.byte	0x1
 5558 01ab 4A       		.byte	0x4a
 5559 01ac 2C000000 		.4byte	0x2c
 5560 01b0 02       		.uleb128 0x2
 5561 01b1 91       		.byte	0x91
 5562 01b2 6C       		.sleb128 -20
 5563 01b3 00       		.byte	0
 5564 01b4 0F       		.uleb128 0xf
 5565 01b5 17000000 		.4byte	.LASF26
 5566 01b9 01       		.byte	0x1
 5567 01ba 6A       		.byte	0x6a
 5568 01bb 00000000 		.4byte	.LFB3
 5569 01bf 0C000000 		.4byte	.LFE3-.LFB3
 5570 01c3 01       		.uleb128 0x1
 5571 01c4 9C       		.byte	0x9c
 5572 01c5 D8010000 		.4byte	0x1d8
 5573 01c9 0C       		.uleb128 0xc
 5574 01ca CD000000 		.4byte	.LASF27
 5575 01ce 01       		.byte	0x1
 5576 01cf 6A       		.byte	0x6a
 5577 01d0 86000000 		.4byte	0x86
 5578 01d4 02       		.uleb128 0x2
 5579 01d5 91       		.byte	0x91
 5580 01d6 77       		.sleb128 -9
 5581 01d7 00       		.byte	0
 5582 01d8 0F       		.uleb128 0xf
 5583 01d9 96010000 		.4byte	.LASF28
 5584 01dd 01       		.byte	0x1
 5585 01de 95       		.byte	0x95
 5586 01df 00000000 		.4byte	.LFB4
 5587 01e3 72000000 		.4byte	.LFE4-.LFB4
 5588 01e7 01       		.uleb128 0x1
 5589 01e8 9C       		.byte	0x9c
 5590 01e9 48020000 		.4byte	0x248
 5591 01ed 0C       		.uleb128 0xc
 5592 01ee 5E000000 		.4byte	.LASF29
 5593 01f2 01       		.byte	0x1
 5594 01f3 95       		.byte	0x95
 5595 01f4 48020000 		.4byte	0x248
 5596 01f8 02       		.uleb128 0x2
 5597 01f9 91       		.byte	0x91
 5598 01fa 64       		.sleb128 -28
 5599 01fb 0C       		.uleb128 0xc
 5600 01fc 3C000000 		.4byte	.LASF30
 5601 0200 01       		.byte	0x1
 5602 0201 95       		.byte	0x95
 5603 0202 53020000 		.4byte	0x253
 5604 0206 02       		.uleb128 0x2
 5605 0207 91       		.byte	0x91
 5606 0208 60       		.sleb128 -32
 5607 0209 10       		.uleb128 0x10
 5608 020a 6900     		.ascii	"i\000"
 5609 020c 01       		.byte	0x1
 5610 020d 98       		.byte	0x98
ARM GAS  C:\Users\xavieran\AppData\Local\Temp\ccKklXac.s 			page 146


 5611 020e 9C000000 		.4byte	0x9c
 5612 0212 02       		.uleb128 0x2
 5613 0213 91       		.byte	0x91
 5614 0214 74       		.sleb128 -12
 5615 0215 10       		.uleb128 0x10
 5616 0216 6A00     		.ascii	"j\000"
 5617 0218 01       		.byte	0x1
 5618 0219 98       		.byte	0x98
 5619 021a 9C000000 		.4byte	0x9c
 5620 021e 02       		.uleb128 0x2
 5621 021f 91       		.byte	0x91
 5622 0220 70       		.sleb128 -16
 5623 0221 11       		.uleb128 0x11
 5624 0222 14000000 		.4byte	.LBB2
 5625 0226 48000000 		.4byte	.LBE2-.LBB2
 5626 022a 12       		.uleb128 0x12
 5627 022b 07000000 		.4byte	.LASF31
 5628 022f 01       		.byte	0x1
 5629 0230 9B       		.byte	0x9b
 5630 0231 9C000000 		.4byte	0x9c
 5631 0235 02       		.uleb128 0x2
 5632 0236 91       		.byte	0x91
 5633 0237 68       		.sleb128 -24
 5634 0238 12       		.uleb128 0x12
 5635 0239 0B010000 		.4byte	.LASF32
 5636 023d 01       		.byte	0x1
 5637 023e 9C       		.byte	0x9c
 5638 023f 86000000 		.4byte	0x86
 5639 0243 02       		.uleb128 0x2
 5640 0244 91       		.byte	0x91
 5641 0245 6F       		.sleb128 -17
 5642 0246 00       		.byte	0
 5643 0247 00       		.byte	0
 5644 0248 0D       		.uleb128 0xd
 5645 0249 04       		.byte	0x4
 5646 024a 4E020000 		.4byte	0x24e
 5647 024e 13       		.uleb128 0x13
 5648 024f 9C000000 		.4byte	0x9c
 5649 0253 0D       		.uleb128 0xd
 5650 0254 04       		.byte	0x4
 5651 0255 59020000 		.4byte	0x259
 5652 0259 13       		.uleb128 0x13
 5653 025a F8000000 		.4byte	0xf8
 5654 025e 0A       		.uleb128 0xa
 5655 025f C2000000 		.4byte	.LASF33
 5656 0263 01       		.byte	0x1
 5657 0264 B8       		.byte	0xb8
 5658 0265 00000000 		.4byte	.LFB5
 5659 0269 90010000 		.4byte	.LFE5-.LFB5
 5660 026d 01       		.uleb128 0x1
 5661 026e 9C       		.byte	0x9c
 5662 026f 90020000 		.4byte	0x290
 5663 0273 12       		.uleb128 0x12
 5664 0274 81010000 		.4byte	.LASF34
 5665 0278 01       		.byte	0x1
 5666 0279 BA       		.byte	0xba
 5667 027a 9C000000 		.4byte	0x9c
ARM GAS  C:\Users\xavieran\AppData\Local\Temp\ccKklXac.s 			page 147


 5668 027e 02       		.uleb128 0x2
 5669 027f 91       		.byte	0x91
 5670 0280 74       		.sleb128 -12
 5671 0281 12       		.uleb128 0x12
 5672 0282 36030000 		.4byte	.LASF35
 5673 0286 01       		.byte	0x1
 5674 0287 BB       		.byte	0xbb
 5675 0288 86000000 		.4byte	0x86
 5676 028c 02       		.uleb128 0x2
 5677 028d 91       		.byte	0x91
 5678 028e 73       		.sleb128 -13
 5679 028f 00       		.byte	0
 5680 0290 14       		.uleb128 0x14
 5681 0291 7B000000 		.4byte	.LASF36
 5682 0295 01       		.byte	0x1
 5683 0296 0901     		.2byte	0x109
 5684 0298 00000000 		.4byte	.LFB6
 5685 029c 44000000 		.4byte	.LFE6-.LFB6
 5686 02a0 01       		.uleb128 0x1
 5687 02a1 9C       		.byte	0x9c
 5688 02a2 B6020000 		.4byte	0x2b6
 5689 02a6 15       		.uleb128 0x15
 5690 02a7 EA010000 		.4byte	.LASF37
 5691 02ab 01       		.byte	0x1
 5692 02ac 0B01     		.2byte	0x10b
 5693 02ae 86000000 		.4byte	0x86
 5694 02b2 02       		.uleb128 0x2
 5695 02b3 91       		.byte	0x91
 5696 02b4 77       		.sleb128 -9
 5697 02b5 00       		.byte	0
 5698 02b6 16       		.uleb128 0x16
 5699 02b7 80030000 		.4byte	.LASF40
 5700 02bb 01       		.byte	0x1
 5701 02bc 2301     		.2byte	0x123
 5702 02be 00000000 		.4byte	.LFB7
 5703 02c2 28000000 		.4byte	.LFE7-.LFB7
 5704 02c6 01       		.uleb128 0x1
 5705 02c7 9C       		.byte	0x9c
 5706 02c8 EB020000 		.4byte	0x2eb
 5707 02cc 17       		.uleb128 0x17
 5708 02cd AE030000 		.4byte	.LASF38
 5709 02d1 01       		.byte	0x1
 5710 02d2 2301     		.2byte	0x123
 5711 02d4 86000000 		.4byte	0x86
 5712 02d8 02       		.uleb128 0x2
 5713 02d9 91       		.byte	0x91
 5714 02da 6F       		.sleb128 -17
 5715 02db 15       		.uleb128 0x15
 5716 02dc 11010000 		.4byte	.LASF39
 5717 02e0 01       		.byte	0x1
 5718 02e1 2501     		.2byte	0x125
 5719 02e3 86000000 		.4byte	0x86
 5720 02e7 02       		.uleb128 0x2
 5721 02e8 91       		.byte	0x91
 5722 02e9 77       		.sleb128 -9
 5723 02ea 00       		.byte	0
 5724 02eb 18       		.uleb128 0x18
ARM GAS  C:\Users\xavieran\AppData\Local\Temp\ccKklXac.s 			page 148


 5725 02ec FC030000 		.4byte	.LASF41
 5726 02f0 01       		.byte	0x1
 5727 02f1 4501     		.2byte	0x145
 5728 02f3 00000000 		.4byte	.LFB8
 5729 02f7 14020000 		.4byte	.LFE8-.LFB8
 5730 02fb 01       		.uleb128 0x1
 5731 02fc 9C       		.byte	0x9c
 5732 02fd 35050000 		.4byte	0x535
 5733 0301 15       		.uleb128 0x15
 5734 0302 25030000 		.4byte	.LASF42
 5735 0306 01       		.byte	0x1
 5736 0307 4801     		.2byte	0x148
 5737 0309 45050000 		.4byte	0x545
 5738 030d 05       		.uleb128 0x5
 5739 030e 03       		.byte	0x3
 5740 030f 84110000 		.4byte	BS_IOPINS0_0_VAL.4879
 5741 0313 15       		.uleb128 0x15
 5742 0314 2B000000 		.4byte	.LASF43
 5743 0318 01       		.byte	0x1
 5744 0319 4C01     		.2byte	0x14c
 5745 031b 4A050000 		.4byte	0x54a
 5746 031f 05       		.uleb128 0x5
 5747 0320 03       		.byte	0x3
 5748 0321 8C110000 		.4byte	BS_IOPINS0_7_VAL.4880
 5749 0325 15       		.uleb128 0x15
 5750 0326 3E030000 		.4byte	.LASF44
 5751 032a 01       		.byte	0x1
 5752 032b 5001     		.2byte	0x150
 5753 032d 5F050000 		.4byte	0x55f
 5754 0331 05       		.uleb128 0x5
 5755 0332 03       		.byte	0x3
 5756 0333 94110000 		.4byte	BS_IOPINS0_8_VAL.4881
 5757 0337 15       		.uleb128 0x15
 5758 0338 1A010000 		.4byte	.LASF45
 5759 033c 01       		.byte	0x1
 5760 033d 5401     		.2byte	0x154
 5761 033f 64050000 		.4byte	0x564
 5762 0343 05       		.uleb128 0x5
 5763 0344 03       		.byte	0x3
 5764 0345 A0110000 		.4byte	BS_IOPINS0_1_VAL.4882
 5765 0349 15       		.uleb128 0x15
 5766 034a CA030000 		.4byte	.LASF46
 5767 034e 01       		.byte	0x1
 5768 034f 5801     		.2byte	0x158
 5769 0351 69050000 		.4byte	0x569
 5770 0355 05       		.uleb128 0x5
 5771 0356 03       		.byte	0x3
 5772 0357 AC110000 		.4byte	BS_IOPINS0_2_VAL.4883
 5773 035b 15       		.uleb128 0x15
 5774 035c 95020000 		.4byte	.LASF47
 5775 0360 01       		.byte	0x1
 5776 0361 5C01     		.2byte	0x15c
 5777 0363 6E050000 		.4byte	0x56e
 5778 0367 05       		.uleb128 0x5
 5779 0368 03       		.byte	0x3
 5780 0369 B8110000 		.4byte	BS_IOPINS0_3_VAL.4884
 5781 036d 15       		.uleb128 0x15
ARM GAS  C:\Users\xavieran\AppData\Local\Temp\ccKklXac.s 			page 149


 5782 036e D7000000 		.4byte	.LASF48
 5783 0372 01       		.byte	0x1
 5784 0373 6001     		.2byte	0x160
 5785 0375 73050000 		.4byte	0x573
 5786 0379 05       		.uleb128 0x5
 5787 037a 03       		.byte	0x3
 5788 037b C4110000 		.4byte	BS_IOPINS0_4_VAL.4885
 5789 037f 15       		.uleb128 0x15
 5790 0380 9D030000 		.4byte	.LASF49
 5791 0384 01       		.byte	0x1
 5792 0385 6401     		.2byte	0x164
 5793 0387 78050000 		.4byte	0x578
 5794 038b 05       		.uleb128 0x5
 5795 038c 03       		.byte	0x3
 5796 038d CC110000 		.4byte	BS_IOPINS0_5_VAL.4886
 5797 0391 15       		.uleb128 0x15
 5798 0392 C0010000 		.4byte	.LASF50
 5799 0396 01       		.byte	0x1
 5800 0397 6801     		.2byte	0x168
 5801 0399 7D050000 		.4byte	0x57d
 5802 039d 05       		.uleb128 0x5
 5803 039e 03       		.byte	0x3
 5804 039f D4110000 		.4byte	BS_IOPINS0_6_VAL.4887
 5805 03a3 11       		.uleb128 0x11
 5806 03a4 18000000 		.4byte	.LBB3
 5807 03a8 CA000000 		.4byte	.LBE3-.LBB3
 5808 03ac 15       		.uleb128 0x15
 5809 03ad A6000000 		.4byte	.LASF51
 5810 03b1 01       		.byte	0x1
 5811 03b2 7801     		.2byte	0x178
 5812 03b4 92050000 		.4byte	0x592
 5813 03b8 05       		.uleb128 0x5
 5814 03b9 03       		.byte	0x3
 5815 03ba 40000000 		.4byte	cy_cfg_addr_table.4888
 5816 03be 15       		.uleb128 0x15
 5817 03bf 69000000 		.4byte	.LASF52
 5818 03c3 01       		.byte	0x1
 5819 03c4 A601     		.2byte	0x1a6
 5820 03c6 A8050000 		.4byte	0x5a8
 5821 03ca 05       		.uleb128 0x5
 5822 03cb 03       		.byte	0x3
 5823 03cc EC000000 		.4byte	cy_cfg_data_table.4889
 5824 03d0 19       		.uleb128 0x19
 5825 03d1 06       		.byte	0x6
 5826 03d2 01       		.byte	0x1
 5827 03d3 F709     		.2byte	0x9f7
 5828 03d5 F4030000 		.4byte	0x3f4
 5829 03d9 1A       		.uleb128 0x1a
 5830 03da C2030000 		.4byte	.LASF53
 5831 03de 01       		.byte	0x1
 5832 03df F809     		.2byte	0x9f8
 5833 03e1 7D000000 		.4byte	0x7d
 5834 03e5 00       		.byte	0
 5835 03e6 1A       		.uleb128 0x1a
 5836 03e7 A8010000 		.4byte	.LASF54
 5837 03eb 01       		.byte	0x1
 5838 03ec F909     		.2byte	0x9f9
ARM GAS  C:\Users\xavieran\AppData\Local\Temp\ccKklXac.s 			page 150


 5839 03ee 91000000 		.4byte	0x91
 5840 03f2 04       		.byte	0x4
 5841 03f3 00       		.byte	0
 5842 03f4 06       		.uleb128 0x6
 5843 03f5 78020000 		.4byte	.LASF55
 5844 03f9 01       		.byte	0x1
 5845 03fa FA09     		.2byte	0x9fa
 5846 03fc D0030000 		.4byte	0x3d0
 5847 0400 19       		.uleb128 0x19
 5848 0401 0A       		.byte	0xa
 5849 0402 01       		.byte	0x1
 5850 0403 FD09     		.2byte	0x9fd
 5851 0405 31040000 		.4byte	0x431
 5852 0409 1A       		.uleb128 0x1a
 5853 040a A6020000 		.4byte	.LASF24
 5854 040e 01       		.byte	0x1
 5855 040f FE09     		.2byte	0x9fe
 5856 0411 7D000000 		.4byte	0x7d
 5857 0415 00       		.byte	0
 5858 0416 1B       		.uleb128 0x1b
 5859 0417 73726300 		.ascii	"src\000"
 5860 041b 01       		.byte	0x1
 5861 041c FF09     		.2byte	0x9ff
 5862 041e 6F010000 		.4byte	0x16f
 5863 0422 04       		.byte	0x4
 5864 0423 1A       		.uleb128 0x1a
 5865 0424 A8010000 		.4byte	.LASF54
 5866 0428 01       		.byte	0x1
 5867 0429 000A     		.2byte	0xa00
 5868 042b 91000000 		.4byte	0x91
 5869 042f 08       		.byte	0x8
 5870 0430 00       		.byte	0
 5871 0431 06       		.uleb128 0x6
 5872 0432 89010000 		.4byte	.LASF56
 5873 0436 01       		.byte	0x1
 5874 0437 010A     		.2byte	0xa01
 5875 0439 00040000 		.4byte	0x400
 5876 043d 1C       		.uleb128 0x1c
 5877 043e F4030000 		.4byte	0x3f4
 5878 0442 4D040000 		.4byte	0x44d
 5879 0446 1D       		.uleb128 0x1d
 5880 0447 76000000 		.4byte	0x76
 5881 044b 06       		.byte	0x6
 5882 044c 00       		.byte	0
 5883 044d 15       		.uleb128 0x15
 5884 044e 85020000 		.4byte	.LASF57
 5885 0452 01       		.byte	0x1
 5886 0453 030A     		.2byte	0xa03
 5887 0455 5F040000 		.4byte	0x45f
 5888 0459 05       		.uleb128 0x5
 5889 045a 03       		.byte	0x3
 5890 045b 00000000 		.4byte	cfg_memset_list.4899
 5891 045f 13       		.uleb128 0x13
 5892 0460 3D040000 		.4byte	0x43d
 5893 0464 15       		.uleb128 0x15
 5894 0465 DB030000 		.4byte	.LASF58
 5895 0469 01       		.byte	0x1
ARM GAS  C:\Users\xavieran\AppData\Local\Temp\ccKklXac.s 			page 151


 5896 046a 0F0A     		.2byte	0xa0f
 5897 046c AD050000 		.4byte	0x5ad
 5898 0470 05       		.uleb128 0x5
 5899 0471 03       		.byte	0x3
 5900 0472 EC110000 		.4byte	BS_IDMUX_IRQ_VAL.4900
 5901 0476 15       		.uleb128 0x15
 5902 0477 6E030000 		.4byte	.LASF59
 5903 047b 01       		.byte	0x1
 5904 047c 130A     		.2byte	0xa13
 5905 047e C2050000 		.4byte	0x5c2
 5906 0482 05       		.uleb128 0x5
 5907 0483 03       		.byte	0x3
 5908 0484 DC110000 		.4byte	BS_UCFG_BCTL0_VAL.4901
 5909 0488 1C       		.uleb128 0x1c
 5910 0489 31040000 		.4byte	0x431
 5911 048d 98040000 		.4byte	0x498
 5912 0491 1D       		.uleb128 0x1d
 5913 0492 76000000 		.4byte	0x76
 5914 0496 01       		.byte	0x1
 5915 0497 00       		.byte	0
 5916 0498 15       		.uleb128 0x15
 5917 0499 EC030000 		.4byte	.LASF60
 5918 049d 01       		.byte	0x1
 5919 049e 160A     		.2byte	0xa16
 5920 04a0 AA040000 		.4byte	0x4aa
 5921 04a4 05       		.uleb128 0x5
 5922 04a5 03       		.byte	0x3
 5923 04a6 2C000000 		.4byte	cfg_memcpy_list.4902
 5924 04aa 13       		.uleb128 0x13
 5925 04ab 88040000 		.4byte	0x488
 5926 04af 1E       		.uleb128 0x1e
 5927 04b0 6900     		.ascii	"i\000"
 5928 04b2 01       		.byte	0x1
 5929 04b3 1C0A     		.2byte	0xa1c
 5930 04b5 86000000 		.4byte	0x86
 5931 04b9 02       		.uleb128 0x2
 5932 04ba 91       		.byte	0x91
 5933 04bb 77       		.sleb128 -9
 5934 04bc 1F       		.uleb128 0x1f
 5935 04bd 1E000000 		.4byte	.LBB4
 5936 04c1 22000000 		.4byte	.LBE4-.LBB4
 5937 04c5 E3040000 		.4byte	0x4e3
 5938 04c9 1E       		.uleb128 0x1e
 5939 04ca 6D7300   		.ascii	"ms\000"
 5940 04cd 01       		.byte	0x1
 5941 04ce 210A     		.2byte	0xa21
 5942 04d0 D7040000 		.4byte	0x4d7
 5943 04d4 02       		.uleb128 0x2
 5944 04d5 91       		.byte	0x91
 5945 04d6 70       		.sleb128 -16
 5946 04d7 0D       		.uleb128 0xd
 5947 04d8 04       		.byte	0x4
 5948 04d9 DD040000 		.4byte	0x4dd
 5949 04dd 13       		.uleb128 0x13
 5950 04de F4030000 		.4byte	0x3f4
 5951 04e2 00       		.byte	0
 5952 04e3 11       		.uleb128 0x11
ARM GAS  C:\Users\xavieran\AppData\Local\Temp\ccKklXac.s 			page 152


 5953 04e4 52000000 		.4byte	.LBB5
 5954 04e8 34000000 		.4byte	.LBE5-.LBB5
 5955 04ec 1E       		.uleb128 0x1e
 5956 04ed 6D6300   		.ascii	"mc\000"
 5957 04f0 01       		.byte	0x1
 5958 04f1 280A     		.2byte	0xa28
 5959 04f3 FA040000 		.4byte	0x4fa
 5960 04f7 02       		.uleb128 0x2
 5961 04f8 91       		.byte	0x91
 5962 04f9 6C       		.sleb128 -20
 5963 04fa 0D       		.uleb128 0xd
 5964 04fb 04       		.byte	0x4
 5965 04fc 00050000 		.4byte	0x500
 5966 0500 13       		.uleb128 0x13
 5967 0501 31040000 		.4byte	0x431
 5968 0505 15       		.uleb128 0x15
 5969 0506 B1020000 		.4byte	.LASF61
 5970 050a 01       		.byte	0x1
 5971 050b 290A     		.2byte	0xa29
 5972 050d 7D000000 		.4byte	0x7d
 5973 0511 02       		.uleb128 0x2
 5974 0512 91       		.byte	0x91
 5975 0513 68       		.sleb128 -24
 5976 0514 15       		.uleb128 0x15
 5977 0515 67030000 		.4byte	.LASF62
 5978 0519 01       		.byte	0x1
 5979 051a 2A0A     		.2byte	0xa2a
 5980 051c 6F010000 		.4byte	0x16f
 5981 0520 02       		.uleb128 0x2
 5982 0521 91       		.byte	0x91
 5983 0522 64       		.sleb128 -28
 5984 0523 15       		.uleb128 0x15
 5985 0524 3E010000 		.4byte	.LASF63
 5986 0528 01       		.byte	0x1
 5987 0529 2B0A     		.2byte	0xa2b
 5988 052b 91000000 		.4byte	0x91
 5989 052f 02       		.uleb128 0x2
 5990 0530 91       		.byte	0x91
 5991 0531 62       		.sleb128 -30
 5992 0532 00       		.byte	0
 5993 0533 00       		.byte	0
 5994 0534 00       		.byte	0
 5995 0535 1C       		.uleb128 0x1c
 5996 0536 86000000 		.4byte	0x86
 5997 053a 45050000 		.4byte	0x545
 5998 053e 1D       		.uleb128 0x1d
 5999 053f 76000000 		.4byte	0x76
 6000 0543 07       		.byte	0x7
 6001 0544 00       		.byte	0
 6002 0545 13       		.uleb128 0x13
 6003 0546 35050000 		.4byte	0x535
 6004 054a 13       		.uleb128 0x13
 6005 054b 35050000 		.4byte	0x535
 6006 054f 1C       		.uleb128 0x1c
 6007 0550 86000000 		.4byte	0x86
 6008 0554 5F050000 		.4byte	0x55f
 6009 0558 1D       		.uleb128 0x1d
ARM GAS  C:\Users\xavieran\AppData\Local\Temp\ccKklXac.s 			page 153


 6010 0559 76000000 		.4byte	0x76
 6011 055d 09       		.byte	0x9
 6012 055e 00       		.byte	0
 6013 055f 13       		.uleb128 0x13
 6014 0560 4F050000 		.4byte	0x54f
 6015 0564 13       		.uleb128 0x13
 6016 0565 4F050000 		.4byte	0x54f
 6017 0569 13       		.uleb128 0x13
 6018 056a 4F050000 		.4byte	0x54f
 6019 056e 13       		.uleb128 0x13
 6020 056f 4F050000 		.4byte	0x54f
 6021 0573 13       		.uleb128 0x13
 6022 0574 35050000 		.4byte	0x535
 6023 0578 13       		.uleb128 0x13
 6024 0579 35050000 		.4byte	0x535
 6025 057d 13       		.uleb128 0x13
 6026 057e 35050000 		.4byte	0x535
 6027 0582 1C       		.uleb128 0x1c
 6028 0583 9C000000 		.4byte	0x9c
 6029 0587 92050000 		.4byte	0x592
 6030 058b 1D       		.uleb128 0x1d
 6031 058c 76000000 		.4byte	0x76
 6032 0590 2A       		.byte	0x2a
 6033 0591 00       		.byte	0
 6034 0592 13       		.uleb128 0x13
 6035 0593 82050000 		.4byte	0x582
 6036 0597 1C       		.uleb128 0x1c
 6037 0598 F8000000 		.4byte	0xf8
 6038 059c A8050000 		.4byte	0x5a8
 6039 05a0 20       		.uleb128 0x20
 6040 05a1 76000000 		.4byte	0x76
 6041 05a5 4B08     		.2byte	0x84b
 6042 05a7 00       		.byte	0
 6043 05a8 13       		.uleb128 0x13
 6044 05a9 97050000 		.4byte	0x597
 6045 05ad 13       		.uleb128 0x13
 6046 05ae 35050000 		.4byte	0x535
 6047 05b2 1C       		.uleb128 0x1c
 6048 05b3 86000000 		.4byte	0x86
 6049 05b7 C2050000 		.4byte	0x5c2
 6050 05bb 1D       		.uleb128 0x1d
 6051 05bc 76000000 		.4byte	0x76
 6052 05c0 0F       		.byte	0xf
 6053 05c1 00       		.byte	0
 6054 05c2 13       		.uleb128 0x13
 6055 05c3 B2050000 		.4byte	0x5b2
 6056 05c7 00       		.byte	0
 6057              		.section	.debug_abbrev,"",%progbits
 6058              	.Ldebug_abbrev0:
 6059 0000 01       		.uleb128 0x1
 6060 0001 11       		.uleb128 0x11
 6061 0002 01       		.byte	0x1
 6062 0003 25       		.uleb128 0x25
 6063 0004 0E       		.uleb128 0xe
 6064 0005 13       		.uleb128 0x13
 6065 0006 0B       		.uleb128 0xb
 6066 0007 03       		.uleb128 0x3
ARM GAS  C:\Users\xavieran\AppData\Local\Temp\ccKklXac.s 			page 154


 6067 0008 0E       		.uleb128 0xe
 6068 0009 1B       		.uleb128 0x1b
 6069 000a 0E       		.uleb128 0xe
 6070 000b 55       		.uleb128 0x55
 6071 000c 17       		.uleb128 0x17
 6072 000d 11       		.uleb128 0x11
 6073 000e 01       		.uleb128 0x1
 6074 000f 10       		.uleb128 0x10
 6075 0010 17       		.uleb128 0x17
 6076 0011 00       		.byte	0
 6077 0012 00       		.byte	0
 6078 0013 02       		.uleb128 0x2
 6079 0014 24       		.uleb128 0x24
 6080 0015 00       		.byte	0
 6081 0016 0B       		.uleb128 0xb
 6082 0017 0B       		.uleb128 0xb
 6083 0018 3E       		.uleb128 0x3e
 6084 0019 0B       		.uleb128 0xb
 6085 001a 03       		.uleb128 0x3
 6086 001b 08       		.uleb128 0x8
 6087 001c 00       		.byte	0
 6088 001d 00       		.byte	0
 6089 001e 03       		.uleb128 0x3
 6090 001f 16       		.uleb128 0x16
 6091 0020 00       		.byte	0
 6092 0021 03       		.uleb128 0x3
 6093 0022 0E       		.uleb128 0xe
 6094 0023 3A       		.uleb128 0x3a
 6095 0024 0B       		.uleb128 0xb
 6096 0025 3B       		.uleb128 0x3b
 6097 0026 0B       		.uleb128 0xb
 6098 0027 49       		.uleb128 0x49
 6099 0028 13       		.uleb128 0x13
 6100 0029 00       		.byte	0
 6101 002a 00       		.byte	0
 6102 002b 04       		.uleb128 0x4
 6103 002c 24       		.uleb128 0x24
 6104 002d 00       		.byte	0
 6105 002e 0B       		.uleb128 0xb
 6106 002f 0B       		.uleb128 0xb
 6107 0030 3E       		.uleb128 0x3e
 6108 0031 0B       		.uleb128 0xb
 6109 0032 03       		.uleb128 0x3
 6110 0033 0E       		.uleb128 0xe
 6111 0034 00       		.byte	0
 6112 0035 00       		.byte	0
 6113 0036 05       		.uleb128 0x5
 6114 0037 0F       		.uleb128 0xf
 6115 0038 00       		.byte	0
 6116 0039 0B       		.uleb128 0xb
 6117 003a 0B       		.uleb128 0xb
 6118 003b 00       		.byte	0
 6119 003c 00       		.byte	0
 6120 003d 06       		.uleb128 0x6
 6121 003e 16       		.uleb128 0x16
 6122 003f 00       		.byte	0
 6123 0040 03       		.uleb128 0x3
ARM GAS  C:\Users\xavieran\AppData\Local\Temp\ccKklXac.s 			page 155


 6124 0041 0E       		.uleb128 0xe
 6125 0042 3A       		.uleb128 0x3a
 6126 0043 0B       		.uleb128 0xb
 6127 0044 3B       		.uleb128 0x3b
 6128 0045 05       		.uleb128 0x5
 6129 0046 49       		.uleb128 0x49
 6130 0047 13       		.uleb128 0x13
 6131 0048 00       		.byte	0
 6132 0049 00       		.byte	0
 6133 004a 07       		.uleb128 0x7
 6134 004b 35       		.uleb128 0x35
 6135 004c 00       		.byte	0
 6136 004d 49       		.uleb128 0x49
 6137 004e 13       		.uleb128 0x13
 6138 004f 00       		.byte	0
 6139 0050 00       		.byte	0
 6140 0051 08       		.uleb128 0x8
 6141 0052 13       		.uleb128 0x13
 6142 0053 01       		.byte	0x1
 6143 0054 0B       		.uleb128 0xb
 6144 0055 0B       		.uleb128 0xb
 6145 0056 3A       		.uleb128 0x3a
 6146 0057 0B       		.uleb128 0xb
 6147 0058 3B       		.uleb128 0x3b
 6148 0059 0B       		.uleb128 0xb
 6149 005a 01       		.uleb128 0x1
 6150 005b 13       		.uleb128 0x13
 6151 005c 00       		.byte	0
 6152 005d 00       		.byte	0
 6153 005e 09       		.uleb128 0x9
 6154 005f 0D       		.uleb128 0xd
 6155 0060 00       		.byte	0
 6156 0061 03       		.uleb128 0x3
 6157 0062 0E       		.uleb128 0xe
 6158 0063 3A       		.uleb128 0x3a
 6159 0064 0B       		.uleb128 0xb
 6160 0065 3B       		.uleb128 0x3b
 6161 0066 0B       		.uleb128 0xb
 6162 0067 49       		.uleb128 0x49
 6163 0068 13       		.uleb128 0x13
 6164 0069 38       		.uleb128 0x38
 6165 006a 0B       		.uleb128 0xb
 6166 006b 00       		.byte	0
 6167 006c 00       		.byte	0
 6168 006d 0A       		.uleb128 0xa
 6169 006e 2E       		.uleb128 0x2e
 6170 006f 01       		.byte	0x1
 6171 0070 03       		.uleb128 0x3
 6172 0071 0E       		.uleb128 0xe
 6173 0072 3A       		.uleb128 0x3a
 6174 0073 0B       		.uleb128 0xb
 6175 0074 3B       		.uleb128 0x3b
 6176 0075 0B       		.uleb128 0xb
 6177 0076 27       		.uleb128 0x27
 6178 0077 19       		.uleb128 0x19
 6179 0078 11       		.uleb128 0x11
 6180 0079 01       		.uleb128 0x1
ARM GAS  C:\Users\xavieran\AppData\Local\Temp\ccKklXac.s 			page 156


 6181 007a 12       		.uleb128 0x12
 6182 007b 06       		.uleb128 0x6
 6183 007c 40       		.uleb128 0x40
 6184 007d 18       		.uleb128 0x18
 6185 007e 9642     		.uleb128 0x2116
 6186 0080 19       		.uleb128 0x19
 6187 0081 01       		.uleb128 0x1
 6188 0082 13       		.uleb128 0x13
 6189 0083 00       		.byte	0
 6190 0084 00       		.byte	0
 6191 0085 0B       		.uleb128 0xb
 6192 0086 05       		.uleb128 0x5
 6193 0087 00       		.byte	0
 6194 0088 03       		.uleb128 0x3
 6195 0089 08       		.uleb128 0x8
 6196 008a 3A       		.uleb128 0x3a
 6197 008b 0B       		.uleb128 0xb
 6198 008c 3B       		.uleb128 0x3b
 6199 008d 0B       		.uleb128 0xb
 6200 008e 49       		.uleb128 0x49
 6201 008f 13       		.uleb128 0x13
 6202 0090 02       		.uleb128 0x2
 6203 0091 18       		.uleb128 0x18
 6204 0092 00       		.byte	0
 6205 0093 00       		.byte	0
 6206 0094 0C       		.uleb128 0xc
 6207 0095 05       		.uleb128 0x5
 6208 0096 00       		.byte	0
 6209 0097 03       		.uleb128 0x3
 6210 0098 0E       		.uleb128 0xe
 6211 0099 3A       		.uleb128 0x3a
 6212 009a 0B       		.uleb128 0xb
 6213 009b 3B       		.uleb128 0x3b
 6214 009c 0B       		.uleb128 0xb
 6215 009d 49       		.uleb128 0x49
 6216 009e 13       		.uleb128 0x13
 6217 009f 02       		.uleb128 0x2
 6218 00a0 18       		.uleb128 0x18
 6219 00a1 00       		.byte	0
 6220 00a2 00       		.byte	0
 6221 00a3 0D       		.uleb128 0xd
 6222 00a4 0F       		.uleb128 0xf
 6223 00a5 00       		.byte	0
 6224 00a6 0B       		.uleb128 0xb
 6225 00a7 0B       		.uleb128 0xb
 6226 00a8 49       		.uleb128 0x49
 6227 00a9 13       		.uleb128 0x13
 6228 00aa 00       		.byte	0
 6229 00ab 00       		.byte	0
 6230 00ac 0E       		.uleb128 0xe
 6231 00ad 26       		.uleb128 0x26
 6232 00ae 00       		.byte	0
 6233 00af 00       		.byte	0
 6234 00b0 00       		.byte	0
 6235 00b1 0F       		.uleb128 0xf
 6236 00b2 2E       		.uleb128 0x2e
 6237 00b3 01       		.byte	0x1
ARM GAS  C:\Users\xavieran\AppData\Local\Temp\ccKklXac.s 			page 157


 6238 00b4 03       		.uleb128 0x3
 6239 00b5 0E       		.uleb128 0xe
 6240 00b6 3A       		.uleb128 0x3a
 6241 00b7 0B       		.uleb128 0xb
 6242 00b8 3B       		.uleb128 0x3b
 6243 00b9 0B       		.uleb128 0xb
 6244 00ba 27       		.uleb128 0x27
 6245 00bb 19       		.uleb128 0x19
 6246 00bc 11       		.uleb128 0x11
 6247 00bd 01       		.uleb128 0x1
 6248 00be 12       		.uleb128 0x12
 6249 00bf 06       		.uleb128 0x6
 6250 00c0 40       		.uleb128 0x40
 6251 00c1 18       		.uleb128 0x18
 6252 00c2 9742     		.uleb128 0x2117
 6253 00c4 19       		.uleb128 0x19
 6254 00c5 01       		.uleb128 0x1
 6255 00c6 13       		.uleb128 0x13
 6256 00c7 00       		.byte	0
 6257 00c8 00       		.byte	0
 6258 00c9 10       		.uleb128 0x10
 6259 00ca 34       		.uleb128 0x34
 6260 00cb 00       		.byte	0
 6261 00cc 03       		.uleb128 0x3
 6262 00cd 08       		.uleb128 0x8
 6263 00ce 3A       		.uleb128 0x3a
 6264 00cf 0B       		.uleb128 0xb
 6265 00d0 3B       		.uleb128 0x3b
 6266 00d1 0B       		.uleb128 0xb
 6267 00d2 49       		.uleb128 0x49
 6268 00d3 13       		.uleb128 0x13
 6269 00d4 02       		.uleb128 0x2
 6270 00d5 18       		.uleb128 0x18
 6271 00d6 00       		.byte	0
 6272 00d7 00       		.byte	0
 6273 00d8 11       		.uleb128 0x11
 6274 00d9 0B       		.uleb128 0xb
 6275 00da 01       		.byte	0x1
 6276 00db 11       		.uleb128 0x11
 6277 00dc 01       		.uleb128 0x1
 6278 00dd 12       		.uleb128 0x12
 6279 00de 06       		.uleb128 0x6
 6280 00df 00       		.byte	0
 6281 00e0 00       		.byte	0
 6282 00e1 12       		.uleb128 0x12
 6283 00e2 34       		.uleb128 0x34
 6284 00e3 00       		.byte	0
 6285 00e4 03       		.uleb128 0x3
 6286 00e5 0E       		.uleb128 0xe
 6287 00e6 3A       		.uleb128 0x3a
 6288 00e7 0B       		.uleb128 0xb
 6289 00e8 3B       		.uleb128 0x3b
 6290 00e9 0B       		.uleb128 0xb
 6291 00ea 49       		.uleb128 0x49
 6292 00eb 13       		.uleb128 0x13
 6293 00ec 02       		.uleb128 0x2
 6294 00ed 18       		.uleb128 0x18
ARM GAS  C:\Users\xavieran\AppData\Local\Temp\ccKklXac.s 			page 158


 6295 00ee 00       		.byte	0
 6296 00ef 00       		.byte	0
 6297 00f0 13       		.uleb128 0x13
 6298 00f1 26       		.uleb128 0x26
 6299 00f2 00       		.byte	0
 6300 00f3 49       		.uleb128 0x49
 6301 00f4 13       		.uleb128 0x13
 6302 00f5 00       		.byte	0
 6303 00f6 00       		.byte	0
 6304 00f7 14       		.uleb128 0x14
 6305 00f8 2E       		.uleb128 0x2e
 6306 00f9 01       		.byte	0x1
 6307 00fa 03       		.uleb128 0x3
 6308 00fb 0E       		.uleb128 0xe
 6309 00fc 3A       		.uleb128 0x3a
 6310 00fd 0B       		.uleb128 0xb
 6311 00fe 3B       		.uleb128 0x3b
 6312 00ff 05       		.uleb128 0x5
 6313 0100 27       		.uleb128 0x27
 6314 0101 19       		.uleb128 0x19
 6315 0102 11       		.uleb128 0x11
 6316 0103 01       		.uleb128 0x1
 6317 0104 12       		.uleb128 0x12
 6318 0105 06       		.uleb128 0x6
 6319 0106 40       		.uleb128 0x40
 6320 0107 18       		.uleb128 0x18
 6321 0108 9742     		.uleb128 0x2117
 6322 010a 19       		.uleb128 0x19
 6323 010b 01       		.uleb128 0x1
 6324 010c 13       		.uleb128 0x13
 6325 010d 00       		.byte	0
 6326 010e 00       		.byte	0
 6327 010f 15       		.uleb128 0x15
 6328 0110 34       		.uleb128 0x34
 6329 0111 00       		.byte	0
 6330 0112 03       		.uleb128 0x3
 6331 0113 0E       		.uleb128 0xe
 6332 0114 3A       		.uleb128 0x3a
 6333 0115 0B       		.uleb128 0xb
 6334 0116 3B       		.uleb128 0x3b
 6335 0117 05       		.uleb128 0x5
 6336 0118 49       		.uleb128 0x49
 6337 0119 13       		.uleb128 0x13
 6338 011a 02       		.uleb128 0x2
 6339 011b 18       		.uleb128 0x18
 6340 011c 00       		.byte	0
 6341 011d 00       		.byte	0
 6342 011e 16       		.uleb128 0x16
 6343 011f 2E       		.uleb128 0x2e
 6344 0120 01       		.byte	0x1
 6345 0121 3F       		.uleb128 0x3f
 6346 0122 19       		.uleb128 0x19
 6347 0123 03       		.uleb128 0x3
 6348 0124 0E       		.uleb128 0xe
 6349 0125 3A       		.uleb128 0x3a
 6350 0126 0B       		.uleb128 0xb
 6351 0127 3B       		.uleb128 0x3b
ARM GAS  C:\Users\xavieran\AppData\Local\Temp\ccKklXac.s 			page 159


 6352 0128 05       		.uleb128 0x5
 6353 0129 27       		.uleb128 0x27
 6354 012a 19       		.uleb128 0x19
 6355 012b 11       		.uleb128 0x11
 6356 012c 01       		.uleb128 0x1
 6357 012d 12       		.uleb128 0x12
 6358 012e 06       		.uleb128 0x6
 6359 012f 40       		.uleb128 0x40
 6360 0130 18       		.uleb128 0x18
 6361 0131 9742     		.uleb128 0x2117
 6362 0133 19       		.uleb128 0x19
 6363 0134 01       		.uleb128 0x1
 6364 0135 13       		.uleb128 0x13
 6365 0136 00       		.byte	0
 6366 0137 00       		.byte	0
 6367 0138 17       		.uleb128 0x17
 6368 0139 05       		.uleb128 0x5
 6369 013a 00       		.byte	0
 6370 013b 03       		.uleb128 0x3
 6371 013c 0E       		.uleb128 0xe
 6372 013d 3A       		.uleb128 0x3a
 6373 013e 0B       		.uleb128 0xb
 6374 013f 3B       		.uleb128 0x3b
 6375 0140 05       		.uleb128 0x5
 6376 0141 49       		.uleb128 0x49
 6377 0142 13       		.uleb128 0x13
 6378 0143 02       		.uleb128 0x2
 6379 0144 18       		.uleb128 0x18
 6380 0145 00       		.byte	0
 6381 0146 00       		.byte	0
 6382 0147 18       		.uleb128 0x18
 6383 0148 2E       		.uleb128 0x2e
 6384 0149 01       		.byte	0x1
 6385 014a 3F       		.uleb128 0x3f
 6386 014b 19       		.uleb128 0x19
 6387 014c 03       		.uleb128 0x3
 6388 014d 0E       		.uleb128 0xe
 6389 014e 3A       		.uleb128 0x3a
 6390 014f 0B       		.uleb128 0xb
 6391 0150 3B       		.uleb128 0x3b
 6392 0151 05       		.uleb128 0x5
 6393 0152 27       		.uleb128 0x27
 6394 0153 19       		.uleb128 0x19
 6395 0154 11       		.uleb128 0x11
 6396 0155 01       		.uleb128 0x1
 6397 0156 12       		.uleb128 0x12
 6398 0157 06       		.uleb128 0x6
 6399 0158 40       		.uleb128 0x40
 6400 0159 18       		.uleb128 0x18
 6401 015a 9642     		.uleb128 0x2116
 6402 015c 19       		.uleb128 0x19
 6403 015d 01       		.uleb128 0x1
 6404 015e 13       		.uleb128 0x13
 6405 015f 00       		.byte	0
 6406 0160 00       		.byte	0
 6407 0161 19       		.uleb128 0x19
 6408 0162 13       		.uleb128 0x13
ARM GAS  C:\Users\xavieran\AppData\Local\Temp\ccKklXac.s 			page 160


 6409 0163 01       		.byte	0x1
 6410 0164 0B       		.uleb128 0xb
 6411 0165 0B       		.uleb128 0xb
 6412 0166 3A       		.uleb128 0x3a
 6413 0167 0B       		.uleb128 0xb
 6414 0168 3B       		.uleb128 0x3b
 6415 0169 05       		.uleb128 0x5
 6416 016a 01       		.uleb128 0x1
 6417 016b 13       		.uleb128 0x13
 6418 016c 00       		.byte	0
 6419 016d 00       		.byte	0
 6420 016e 1A       		.uleb128 0x1a
 6421 016f 0D       		.uleb128 0xd
 6422 0170 00       		.byte	0
 6423 0171 03       		.uleb128 0x3
 6424 0172 0E       		.uleb128 0xe
 6425 0173 3A       		.uleb128 0x3a
 6426 0174 0B       		.uleb128 0xb
 6427 0175 3B       		.uleb128 0x3b
 6428 0176 05       		.uleb128 0x5
 6429 0177 49       		.uleb128 0x49
 6430 0178 13       		.uleb128 0x13
 6431 0179 38       		.uleb128 0x38
 6432 017a 0B       		.uleb128 0xb
 6433 017b 00       		.byte	0
 6434 017c 00       		.byte	0
 6435 017d 1B       		.uleb128 0x1b
 6436 017e 0D       		.uleb128 0xd
 6437 017f 00       		.byte	0
 6438 0180 03       		.uleb128 0x3
 6439 0181 08       		.uleb128 0x8
 6440 0182 3A       		.uleb128 0x3a
 6441 0183 0B       		.uleb128 0xb
 6442 0184 3B       		.uleb128 0x3b
 6443 0185 05       		.uleb128 0x5
 6444 0186 49       		.uleb128 0x49
 6445 0187 13       		.uleb128 0x13
 6446 0188 38       		.uleb128 0x38
 6447 0189 0B       		.uleb128 0xb
 6448 018a 00       		.byte	0
 6449 018b 00       		.byte	0
 6450 018c 1C       		.uleb128 0x1c
 6451 018d 01       		.uleb128 0x1
 6452 018e 01       		.byte	0x1
 6453 018f 49       		.uleb128 0x49
 6454 0190 13       		.uleb128 0x13
 6455 0191 01       		.uleb128 0x1
 6456 0192 13       		.uleb128 0x13
 6457 0193 00       		.byte	0
 6458 0194 00       		.byte	0
 6459 0195 1D       		.uleb128 0x1d
 6460 0196 21       		.uleb128 0x21
 6461 0197 00       		.byte	0
 6462 0198 49       		.uleb128 0x49
 6463 0199 13       		.uleb128 0x13
 6464 019a 2F       		.uleb128 0x2f
 6465 019b 0B       		.uleb128 0xb
ARM GAS  C:\Users\xavieran\AppData\Local\Temp\ccKklXac.s 			page 161


 6466 019c 00       		.byte	0
 6467 019d 00       		.byte	0
 6468 019e 1E       		.uleb128 0x1e
 6469 019f 34       		.uleb128 0x34
 6470 01a0 00       		.byte	0
 6471 01a1 03       		.uleb128 0x3
 6472 01a2 08       		.uleb128 0x8
 6473 01a3 3A       		.uleb128 0x3a
 6474 01a4 0B       		.uleb128 0xb
 6475 01a5 3B       		.uleb128 0x3b
 6476 01a6 05       		.uleb128 0x5
 6477 01a7 49       		.uleb128 0x49
 6478 01a8 13       		.uleb128 0x13
 6479 01a9 02       		.uleb128 0x2
 6480 01aa 18       		.uleb128 0x18
 6481 01ab 00       		.byte	0
 6482 01ac 00       		.byte	0
 6483 01ad 1F       		.uleb128 0x1f
 6484 01ae 0B       		.uleb128 0xb
 6485 01af 01       		.byte	0x1
 6486 01b0 11       		.uleb128 0x11
 6487 01b1 01       		.uleb128 0x1
 6488 01b2 12       		.uleb128 0x12
 6489 01b3 06       		.uleb128 0x6
 6490 01b4 01       		.uleb128 0x1
 6491 01b5 13       		.uleb128 0x13
 6492 01b6 00       		.byte	0
 6493 01b7 00       		.byte	0
 6494 01b8 20       		.uleb128 0x20
 6495 01b9 21       		.uleb128 0x21
 6496 01ba 00       		.byte	0
 6497 01bb 49       		.uleb128 0x49
 6498 01bc 13       		.uleb128 0x13
 6499 01bd 2F       		.uleb128 0x2f
 6500 01be 05       		.uleb128 0x5
 6501 01bf 00       		.byte	0
 6502 01c0 00       		.byte	0
 6503 01c1 00       		.byte	0
 6504              		.section	.debug_aranges,"",%progbits
 6505 0000 5C000000 		.4byte	0x5c
 6506 0004 0200     		.2byte	0x2
 6507 0006 00000000 		.4byte	.Ldebug_info0
 6508 000a 04       		.byte	0x4
 6509 000b 00       		.byte	0
 6510 000c 0000     		.2byte	0
 6511 000e 0000     		.2byte	0
 6512 0010 00000000 		.4byte	.LFB0
 6513 0014 1A000000 		.4byte	.LFE0-.LFB0
 6514 0018 00000000 		.4byte	.LFB1
 6515 001c 1C000000 		.4byte	.LFE1-.LFB1
 6516 0020 00000000 		.4byte	.LFB2
 6517 0024 1C000000 		.4byte	.LFE2-.LFB2
 6518 0028 00000000 		.4byte	.LFB3
 6519 002c 0C000000 		.4byte	.LFE3-.LFB3
 6520 0030 00000000 		.4byte	.LFB4
 6521 0034 72000000 		.4byte	.LFE4-.LFB4
 6522 0038 00000000 		.4byte	.LFB5
ARM GAS  C:\Users\xavieran\AppData\Local\Temp\ccKklXac.s 			page 162


 6523 003c 90010000 		.4byte	.LFE5-.LFB5
 6524 0040 00000000 		.4byte	.LFB6
 6525 0044 44000000 		.4byte	.LFE6-.LFB6
 6526 0048 00000000 		.4byte	.LFB7
 6527 004c 28000000 		.4byte	.LFE7-.LFB7
 6528 0050 00000000 		.4byte	.LFB8
 6529 0054 14020000 		.4byte	.LFE8-.LFB8
 6530 0058 00000000 		.4byte	0
 6531 005c 00000000 		.4byte	0
 6532              		.section	.debug_ranges,"",%progbits
 6533              	.Ldebug_ranges0:
 6534 0000 00000000 		.4byte	.LFB0
 6535 0004 1A000000 		.4byte	.LFE0
 6536 0008 00000000 		.4byte	.LFB1
 6537 000c 1C000000 		.4byte	.LFE1
 6538 0010 00000000 		.4byte	.LFB2
 6539 0014 1C000000 		.4byte	.LFE2
 6540 0018 00000000 		.4byte	.LFB3
 6541 001c 0C000000 		.4byte	.LFE3
 6542 0020 00000000 		.4byte	.LFB4
 6543 0024 72000000 		.4byte	.LFE4
 6544 0028 00000000 		.4byte	.LFB5
 6545 002c 90010000 		.4byte	.LFE5
 6546 0030 00000000 		.4byte	.LFB6
 6547 0034 44000000 		.4byte	.LFE6
 6548 0038 00000000 		.4byte	.LFB7
 6549 003c 28000000 		.4byte	.LFE7
 6550 0040 00000000 		.4byte	.LFB8
 6551 0044 14020000 		.4byte	.LFE8
 6552 0048 00000000 		.4byte	0
 6553 004c 00000000 		.4byte	0
 6554              		.section	.debug_line,"",%progbits
 6555              	.Ldebug_line0:
 6556 0000 2C020000 		.section	.debug_str,"MS",%progbits,1
 6556      0200CD00 
 6556      00000201 
 6556      FB0E0D00 
 6556      01010101 
 6557              	.LASF13:
 6558 0000 75696E74 		.ascii	"uint16\000"
 6558      313600
 6559              	.LASF31:
 6560 0007 62617365 		.ascii	"baseAddr\000"
 6560      41646472 
 6560      00
 6561              	.LASF11:
 6562 0010 73697A65 		.ascii	"size_t\000"
 6562      5F7400
 6563              	.LASF26:
 6564 0017 4379436C 		.ascii	"CyClockStartupError\000"
 6564      6F636B53 
 6564      74617274 
 6564      75704572 
 6564      726F7200 
 6565              	.LASF43:
 6566 002b 42535F49 		.ascii	"BS_IOPINS0_7_VAL\000"
 6566      4F50494E 
ARM GAS  C:\Users\xavieran\AppData\Local\Temp\ccKklXac.s 			page 163


 6566      53305F37 
 6566      5F56414C 
 6566      00
 6567              	.LASF30:
 6568 003c 64617461 		.ascii	"data_table\000"
 6568      5F746162 
 6568      6C6500
 6569              	.LASF8:
 6570 0047 6C6F6E67 		.ascii	"long long unsigned int\000"
 6570      206C6F6E 
 6570      6720756E 
 6570      7369676E 
 6570      65642069 
 6571              	.LASF29:
 6572 005e 61646472 		.ascii	"addr_table\000"
 6572      5F746162 
 6572      6C6500
 6573              	.LASF52:
 6574 0069 63795F63 		.ascii	"cy_cfg_data_table\000"
 6574      66675F64 
 6574      6174615F 
 6574      7461626C 
 6574      6500
 6575              	.LASF36:
 6576 007b 416E616C 		.ascii	"AnalogSetDefault\000"
 6576      6F675365 
 6576      74446566 
 6576      61756C74 
 6576      00
 6577              	.LASF7:
 6578 008c 6C6F6E67 		.ascii	"long long int\000"
 6578      206C6F6E 
 6578      6720696E 
 6578      7400
 6579              	.LASF1:
 6580 009a 7369676E 		.ascii	"signed char\000"
 6580      65642063 
 6580      68617200 
 6581              	.LASF51:
 6582 00a6 63795F63 		.ascii	"cy_cfg_addr_table\000"
 6582      66675F61 
 6582      6464725F 
 6582      7461626C 
 6582      6500
 6583              	.LASF22:
 6584 00b8 43594D45 		.ascii	"CYMEMZERO\000"
 6584      4D5A4552 
 6584      4F00
 6585              	.LASF33:
 6586 00c2 436C6F63 		.ascii	"ClockSetup\000"
 6586      6B536574 
 6586      757000
 6587              	.LASF27:
 6588 00cd 6572726F 		.ascii	"errorCode\000"
 6588      72436F64 
 6588      6500
 6589              	.LASF48:
ARM GAS  C:\Users\xavieran\AppData\Local\Temp\ccKklXac.s 			page 164


 6590 00d7 42535F49 		.ascii	"BS_IOPINS0_4_VAL\000"
 6590      4F50494E 
 6590      53305F34 
 6590      5F56414C 
 6590      00
 6591              	.LASF5:
 6592 00e8 6C6F6E67 		.ascii	"long int\000"
 6592      20696E74 
 6592      00
 6593              	.LASF18:
 6594 00f1 72656731 		.ascii	"reg16\000"
 6594      3600
 6595              	.LASF12:
 6596 00f7 75696E74 		.ascii	"uint8\000"
 6596      3800
 6597              	.LASF16:
 6598 00fd 646F7562 		.ascii	"double\000"
 6598      6C6500
 6599              	.LASF14:
 6600 0104 75696E74 		.ascii	"uint32\000"
 6600      333200
 6601              	.LASF32:
 6602 010b 636F756E 		.ascii	"count\000"
 6602      7400
 6603              	.LASF39:
 6604 0111 72656756 		.ascii	"regValue\000"
 6604      616C7565 
 6604      00
 6605              	.LASF45:
 6606 011a 42535F49 		.ascii	"BS_IOPINS0_1_VAL\000"
 6606      4F50494E 
 6606      53305F31 
 6606      5F56414C 
 6606      00
 6607              	.LASF20:
 6608 012b 76616C75 		.ascii	"value\000"
 6608      6500
 6609              	.LASF0:
 6610 0131 756E7369 		.ascii	"unsigned int\000"
 6610      676E6564 
 6610      20696E74 
 6610      00
 6611              	.LASF63:
 6612 013e 6E756D42 		.ascii	"numBytes\000"
 6612      79746573 
 6612      00
 6613              	.LASF65:
 6614 0147 2E5C4765 		.ascii	".\\Generated_Source\\PSoC5\\cyfitter_cfg.c\000"
 6614      6E657261 
 6614      7465645F 
 6614      536F7572 
 6614      63655C50 
 6615              	.LASF6:
 6616 016f 6C6F6E67 		.ascii	"long unsigned int\000"
 6616      20756E73 
 6616      69676E65 
 6616      6420696E 
ARM GAS  C:\Users\xavieran\AppData\Local\Temp\ccKklXac.s 			page 165


 6616      7400
 6617              	.LASF34:
 6618 0181 74696D65 		.ascii	"timeout\000"
 6618      6F757400 
 6619              	.LASF56:
 6620 0189 6366675F 		.ascii	"cfg_memcpy_t\000"
 6620      6D656D63 
 6620      70795F74 
 6620      00
 6621              	.LASF28:
 6622 0196 6366675F 		.ascii	"cfg_write_bytes32\000"
 6622      77726974 
 6622      655F6279 
 6622      74657333 
 6622      3200
 6623              	.LASF54:
 6624 01a8 73697A65 		.ascii	"size\000"
 6624      00
 6625              	.LASF4:
 6626 01ad 73686F72 		.ascii	"short unsigned int\000"
 6626      7420756E 
 6626      7369676E 
 6626      65642069 
 6626      6E7400
 6627              	.LASF50:
 6628 01c0 42535F49 		.ascii	"BS_IOPINS0_6_VAL\000"
 6628      4F50494E 
 6628      53305F36 
 6628      5F56414C 
 6628      00
 6629              	.LASF25:
 6630 01d1 4359434F 		.ascii	"CYCONFIGCPYCODE\000"
 6630      4E464947 
 6630      43505943 
 6630      4F444500 
 6631              	.LASF9:
 6632 01e1 73697A65 		.ascii	"sizetype\000"
 6632      74797065 
 6632      00
 6633              	.LASF37:
 6634 01ea 62675F78 		.ascii	"bg_xover_inl_trim\000"
 6634      6F766572 
 6634      5F696E6C 
 6634      5F747269 
 6634      6D00
 6635              	.LASF64:
 6636 01fc 474E5520 		.ascii	"GNU C 4.8.4 20140526 (release) [ARM/embedded-4_8-br"
 6636      4320342E 
 6636      382E3420 
 6636      32303134 
 6636      30353236 
 6637 022f 616E6368 		.ascii	"anch revision 211358] -mcpu=cortex-m3 -mthumb -g -O"
 6637      20726576 
 6637      6973696F 
 6637      6E203231 
 6637      31333538 
 6638 0262 30202D66 		.ascii	"0 -ffunction-sections\000"
ARM GAS  C:\Users\xavieran\AppData\Local\Temp\ccKklXac.s 			page 166


 6638      66756E63 
 6638      74696F6E 
 6638      2D736563 
 6638      74696F6E 
 6639              	.LASF55:
 6640 0278 6366675F 		.ascii	"cfg_memset_t\000"
 6640      6D656D73 
 6640      65745F74 
 6640      00
 6641              	.LASF57:
 6642 0285 6366675F 		.ascii	"cfg_memset_list\000"
 6642      6D656D73 
 6642      65745F6C 
 6642      69737400 
 6643              	.LASF47:
 6644 0295 42535F49 		.ascii	"BS_IOPINS0_3_VAL\000"
 6644      4F50494E 
 6644      53305F33 
 6644      5F56414C 
 6644      00
 6645              	.LASF24:
 6646 02a6 64657374 		.ascii	"dest\000"
 6646      00
 6647              	.LASF15:
 6648 02ab 666C6F61 		.ascii	"float\000"
 6648      7400
 6649              	.LASF61:
 6650 02b1 64657374 		.ascii	"destPtr\000"
 6650      50747200 
 6651              	.LASF17:
 6652 02b9 72656738 		.ascii	"reg8\000"
 6652      00
 6653              	.LASF2:
 6654 02be 756E7369 		.ascii	"unsigned char\000"
 6654      676E6564 
 6654      20636861 
 6654      7200
 6655              	.LASF3:
 6656 02cc 73686F72 		.ascii	"short int\000"
 6656      7420696E 
 6656      7400
 6657              	.LASF66:
 6658 02d6 433A5C55 		.ascii	"C:\\Users\\xavieran\\Desktop\\ECE3091\\PSOCProjects"
 6658      73657273 
 6658      5C786176 
 6658      69657261 
 6658      6E5C4465 
 6659 0304 5C454E47 		.ascii	"\\ENG3091_MandM\\camera_test.cydsn\000"
 6659      33303931 
 6659      5F4D616E 
 6659      644D5C63 
 6659      616D6572 
 6660              	.LASF42:
 6661 0325 42535F49 		.ascii	"BS_IOPINS0_0_VAL\000"
 6661      4F50494E 
 6661      53305F30 
 6661      5F56414C 
ARM GAS  C:\Users\xavieran\AppData\Local\Temp\ccKklXac.s 			page 167


 6661      00
 6662              	.LASF35:
 6663 0336 706C6C4C 		.ascii	"pllLock\000"
 6663      6F636B00 
 6664              	.LASF44:
 6665 033e 42535F49 		.ascii	"BS_IOPINS0_8_VAL\000"
 6665      4F50494E 
 6665      53305F38 
 6665      5F56414C 
 6665      00
 6666              	.LASF21:
 6667 034f 63795F63 		.ascii	"cy_cfg_addrvalue_t\000"
 6667      66675F61 
 6667      64647276 
 6667      616C7565 
 6667      5F7400
 6668              	.LASF10:
 6669 0362 63686172 		.ascii	"char\000"
 6669      00
 6670              	.LASF62:
 6671 0367 73726350 		.ascii	"srcPtr\000"
 6671      747200
 6672              	.LASF59:
 6673 036e 42535F55 		.ascii	"BS_UCFG_BCTL0_VAL\000"
 6673      4346475F 
 6673      4243544C 
 6673      305F5641 
 6673      4C00
 6674              	.LASF40:
 6675 0380 53657441 		.ascii	"SetAnalogRoutingPumps\000"
 6675      6E616C6F 
 6675      67526F75 
 6675      74696E67 
 6675      50756D70 
 6676              	.LASF19:
 6677 0396 6F666673 		.ascii	"offset\000"
 6677      657400
 6678              	.LASF49:
 6679 039d 42535F49 		.ascii	"BS_IOPINS0_5_VAL\000"
 6679      4F50494E 
 6679      53305F35 
 6679      5F56414C 
 6679      00
 6680              	.LASF38:
 6681 03ae 656E6162 		.ascii	"enabled\000"
 6681      6C656400 
 6682              	.LASF23:
 6683 03b6 4359434F 		.ascii	"CYCONFIGCPY\000"
 6683      4E464947 
 6683      43505900 
 6684              	.LASF53:
 6685 03c2 61646472 		.ascii	"address\000"
 6685      65737300 
 6686              	.LASF46:
 6687 03ca 42535F49 		.ascii	"BS_IOPINS0_2_VAL\000"
 6687      4F50494E 
 6687      53305F32 
ARM GAS  C:\Users\xavieran\AppData\Local\Temp\ccKklXac.s 			page 168


 6687      5F56414C 
 6687      00
 6688              	.LASF58:
 6689 03db 42535F49 		.ascii	"BS_IDMUX_IRQ_VAL\000"
 6689      444D5558 
 6689      5F495251 
 6689      5F56414C 
 6689      00
 6690              	.LASF60:
 6691 03ec 6366675F 		.ascii	"cfg_memcpy_list\000"
 6691      6D656D63 
 6691      70795F6C 
 6691      69737400 
 6692              	.LASF41:
 6693 03fc 63796669 		.ascii	"cyfitter_cfg\000"
 6693      74746572 
 6693      5F636667 
 6693      00
 6694              		.ident	"GCC: (GNU Tools for ARM Embedded Processors) 4.8.4 20140526 (release) [ARM/embedded-4_8-br
