ARM GAS  C:\Users\xavieran\AppData\Local\Temp\ccykvWSD.s 			page 1


   1              		.syntax unified
   2              		.cpu cortex-m3
   3              		.fpu softvfp
   4              		.eabi_attribute 20, 1
   5              		.eabi_attribute 21, 1
   6              		.eabi_attribute 23, 3
   7              		.eabi_attribute 24, 1
   8              		.eabi_attribute 25, 1
   9              		.eabi_attribute 26, 1
  10              		.eabi_attribute 30, 6
  11              		.eabi_attribute 34, 1
  12              		.eabi_attribute 18, 4
  13              		.thumb
  14              		.file	"cyfitter_cfg.c"
  15              		.text
  16              	.Ltext0:
  17              		.cfi_sections	.debug_frame
  18              		.section	.text.CYMEMZERO,"ax",%progbits
  19              		.align	2
  20              		.thumb
  21              		.thumb_func
  22              		.type	CYMEMZERO, %function
  23              	CYMEMZERO:
  24              	.LFB0:
  25              		.file 1 ".\\Generated_Source\\PSoC5\\cyfitter_cfg.c"
   1:.\Generated_Source\PSoC5/cyfitter_cfg.c **** /*******************************************************************************
   2:.\Generated_Source\PSoC5/cyfitter_cfg.c **** * FILENAME: cyfitter_cfg.c
   3:.\Generated_Source\PSoC5/cyfitter_cfg.c **** * 
   4:.\Generated_Source\PSoC5/cyfitter_cfg.c **** * PSoC Creator  3.2 SP1
   5:.\Generated_Source\PSoC5/cyfitter_cfg.c **** *
   6:.\Generated_Source\PSoC5/cyfitter_cfg.c **** * DESCRIPTION:
   7:.\Generated_Source\PSoC5/cyfitter_cfg.c **** * This file contains device initialization code.
   8:.\Generated_Source\PSoC5/cyfitter_cfg.c **** * Except for the user defined sections in CyClockStartupError(), this file should not be modified.
   9:.\Generated_Source\PSoC5/cyfitter_cfg.c **** * This file is automatically generated by PSoC Creator.
  10:.\Generated_Source\PSoC5/cyfitter_cfg.c **** *
  11:.\Generated_Source\PSoC5/cyfitter_cfg.c **** ********************************************************************************
  12:.\Generated_Source\PSoC5/cyfitter_cfg.c **** * Copyright (c) 2007-2015 Cypress Semiconductor.  All rights reserved.
  13:.\Generated_Source\PSoC5/cyfitter_cfg.c **** * You may use this file only in accordance with the license, terms, conditions, 
  14:.\Generated_Source\PSoC5/cyfitter_cfg.c **** * disclaimers, and limitations in the end user license agreement accompanying 
  15:.\Generated_Source\PSoC5/cyfitter_cfg.c **** * the software package with which this file was provided.
  16:.\Generated_Source\PSoC5/cyfitter_cfg.c **** ********************************************************************************/
  17:.\Generated_Source\PSoC5/cyfitter_cfg.c **** 
  18:.\Generated_Source\PSoC5/cyfitter_cfg.c **** #include <string.h>
  19:.\Generated_Source\PSoC5/cyfitter_cfg.c **** #include "cytypes.h"
  20:.\Generated_Source\PSoC5/cyfitter_cfg.c **** #include "cydevice_trm.h"
  21:.\Generated_Source\PSoC5/cyfitter_cfg.c **** #include "cyfitter.h"
  22:.\Generated_Source\PSoC5/cyfitter_cfg.c **** #include "CyLib.h"
  23:.\Generated_Source\PSoC5/cyfitter_cfg.c **** #include "cyfitter_cfg.h"
  24:.\Generated_Source\PSoC5/cyfitter_cfg.c **** 
  25:.\Generated_Source\PSoC5/cyfitter_cfg.c **** #define CY_NEED_CYCLOCKSTARTUPERROR 1
  26:.\Generated_Source\PSoC5/cyfitter_cfg.c **** 
  27:.\Generated_Source\PSoC5/cyfitter_cfg.c **** 
  28:.\Generated_Source\PSoC5/cyfitter_cfg.c **** #if defined(__GNUC__) || defined(__ARMCC_VERSION)
  29:.\Generated_Source\PSoC5/cyfitter_cfg.c ****     #define CYPACKED 
  30:.\Generated_Source\PSoC5/cyfitter_cfg.c ****     #define CYPACKED_ATTR __attribute__ ((packed))
  31:.\Generated_Source\PSoC5/cyfitter_cfg.c ****     #define CYALIGNED __attribute__ ((aligned))
  32:.\Generated_Source\PSoC5/cyfitter_cfg.c ****     #define CY_CFG_UNUSED __attribute__ ((unused))
ARM GAS  C:\Users\xavieran\AppData\Local\Temp\ccykvWSD.s 			page 2


  33:.\Generated_Source\PSoC5/cyfitter_cfg.c ****     #define CY_CFG_SECTION __attribute__ ((section(".psocinit")))
  34:.\Generated_Source\PSoC5/cyfitter_cfg.c ****     
  35:.\Generated_Source\PSoC5/cyfitter_cfg.c ****     #if defined(__ARMCC_VERSION)
  36:.\Generated_Source\PSoC5/cyfitter_cfg.c ****         #define CY_CFG_MEMORY_BARRIER() __memory_changed()
  37:.\Generated_Source\PSoC5/cyfitter_cfg.c ****     #else
  38:.\Generated_Source\PSoC5/cyfitter_cfg.c ****         #define CY_CFG_MEMORY_BARRIER() __sync_synchronize()
  39:.\Generated_Source\PSoC5/cyfitter_cfg.c ****     #endif
  40:.\Generated_Source\PSoC5/cyfitter_cfg.c ****     
  41:.\Generated_Source\PSoC5/cyfitter_cfg.c **** #elif defined(__ICCARM__)
  42:.\Generated_Source\PSoC5/cyfitter_cfg.c ****     #include <intrinsics.h>
  43:.\Generated_Source\PSoC5/cyfitter_cfg.c **** 
  44:.\Generated_Source\PSoC5/cyfitter_cfg.c ****     #define CYPACKED __packed
  45:.\Generated_Source\PSoC5/cyfitter_cfg.c ****     #define CYPACKED_ATTR 
  46:.\Generated_Source\PSoC5/cyfitter_cfg.c ****     #define CYALIGNED _Pragma("data_alignment=4")
  47:.\Generated_Source\PSoC5/cyfitter_cfg.c ****     #define CY_CFG_UNUSED _Pragma("diag_suppress=Pe177")
  48:.\Generated_Source\PSoC5/cyfitter_cfg.c ****     #define CY_CFG_SECTION _Pragma("location=\".psocinit\"")
  49:.\Generated_Source\PSoC5/cyfitter_cfg.c ****     
  50:.\Generated_Source\PSoC5/cyfitter_cfg.c ****     #define CY_CFG_MEMORY_BARRIER() __DMB()
  51:.\Generated_Source\PSoC5/cyfitter_cfg.c ****     
  52:.\Generated_Source\PSoC5/cyfitter_cfg.c **** #else
  53:.\Generated_Source\PSoC5/cyfitter_cfg.c ****     #error Unsupported toolchain
  54:.\Generated_Source\PSoC5/cyfitter_cfg.c **** #endif
  55:.\Generated_Source\PSoC5/cyfitter_cfg.c **** 
  56:.\Generated_Source\PSoC5/cyfitter_cfg.c **** 
  57:.\Generated_Source\PSoC5/cyfitter_cfg.c **** CY_CFG_UNUSED
  58:.\Generated_Source\PSoC5/cyfitter_cfg.c **** static void CYMEMZERO(void *s, size_t n);
  59:.\Generated_Source\PSoC5/cyfitter_cfg.c **** CY_CFG_UNUSED
  60:.\Generated_Source\PSoC5/cyfitter_cfg.c **** static void CYMEMZERO(void *s, size_t n)
  61:.\Generated_Source\PSoC5/cyfitter_cfg.c **** {
  26              		.loc 1 61 0
  27              		.cfi_startproc
  28              		@ args = 0, pretend = 0, frame = 8
  29              		@ frame_needed = 1, uses_anonymous_args = 0
  30 0000 80B5     		push	{r7, lr}
  31              		.cfi_def_cfa_offset 8
  32              		.cfi_offset 7, -8
  33              		.cfi_offset 14, -4
  34 0002 82B0     		sub	sp, sp, #8
  35              		.cfi_def_cfa_offset 16
  36 0004 00AF     		add	r7, sp, #0
  37              		.cfi_def_cfa_register 7
  38 0006 7860     		str	r0, [r7, #4]
  39 0008 3960     		str	r1, [r7]
  62:.\Generated_Source\PSoC5/cyfitter_cfg.c **** 	(void)memset(s, 0, n);
  40              		.loc 1 62 0
  41 000a 7868     		ldr	r0, [r7, #4]
  42 000c 0021     		movs	r1, #0
  43 000e 3A68     		ldr	r2, [r7]
  44 0010 FFF7FEFF 		bl	memset
  63:.\Generated_Source\PSoC5/cyfitter_cfg.c **** }
  45              		.loc 1 63 0
  46 0014 0837     		adds	r7, r7, #8
  47 0016 BD46     		mov	sp, r7
  48              		@ sp needed
  49 0018 80BD     		pop	{r7, pc}
  50              		.cfi_endproc
  51              	.LFE0:
ARM GAS  C:\Users\xavieran\AppData\Local\Temp\ccykvWSD.s 			page 3


  52              		.size	CYMEMZERO, .-CYMEMZERO
  53 001a 00BF     		.section	.text.CYCONFIGCPY,"ax",%progbits
  54              		.align	2
  55              		.thumb
  56              		.thumb_func
  57              		.type	CYCONFIGCPY, %function
  58              	CYCONFIGCPY:
  59              	.LFB1:
  64:.\Generated_Source\PSoC5/cyfitter_cfg.c **** CY_CFG_UNUSED
  65:.\Generated_Source\PSoC5/cyfitter_cfg.c **** static void CYCONFIGCPY(void *dest, const void *src, size_t n);
  66:.\Generated_Source\PSoC5/cyfitter_cfg.c **** CY_CFG_UNUSED
  67:.\Generated_Source\PSoC5/cyfitter_cfg.c **** static void CYCONFIGCPY(void *dest, const void *src, size_t n)
  68:.\Generated_Source\PSoC5/cyfitter_cfg.c **** {
  60              		.loc 1 68 0
  61              		.cfi_startproc
  62              		@ args = 0, pretend = 0, frame = 16
  63              		@ frame_needed = 1, uses_anonymous_args = 0
  64 0000 80B5     		push	{r7, lr}
  65              		.cfi_def_cfa_offset 8
  66              		.cfi_offset 7, -8
  67              		.cfi_offset 14, -4
  68 0002 84B0     		sub	sp, sp, #16
  69              		.cfi_def_cfa_offset 24
  70 0004 00AF     		add	r7, sp, #0
  71              		.cfi_def_cfa_register 7
  72 0006 F860     		str	r0, [r7, #12]
  73 0008 B960     		str	r1, [r7, #8]
  74 000a 7A60     		str	r2, [r7, #4]
  69:.\Generated_Source\PSoC5/cyfitter_cfg.c **** 	(void)memcpy(dest, src, n);
  75              		.loc 1 69 0
  76 000c F868     		ldr	r0, [r7, #12]
  77 000e B968     		ldr	r1, [r7, #8]
  78 0010 7A68     		ldr	r2, [r7, #4]
  79 0012 FFF7FEFF 		bl	memcpy
  70:.\Generated_Source\PSoC5/cyfitter_cfg.c **** }
  80              		.loc 1 70 0
  81 0016 1037     		adds	r7, r7, #16
  82 0018 BD46     		mov	sp, r7
  83              		@ sp needed
  84 001a 80BD     		pop	{r7, pc}
  85              		.cfi_endproc
  86              	.LFE1:
  87              		.size	CYCONFIGCPY, .-CYCONFIGCPY
  88              		.section	.text.CYCONFIGCPYCODE,"ax",%progbits
  89              		.align	2
  90              		.thumb
  91              		.thumb_func
  92              		.type	CYCONFIGCPYCODE, %function
  93              	CYCONFIGCPYCODE:
  94              	.LFB2:
  71:.\Generated_Source\PSoC5/cyfitter_cfg.c **** CY_CFG_UNUSED
  72:.\Generated_Source\PSoC5/cyfitter_cfg.c **** static void CYCONFIGCPYCODE(void *dest, const void *src, size_t n);
  73:.\Generated_Source\PSoC5/cyfitter_cfg.c **** CY_CFG_UNUSED
  74:.\Generated_Source\PSoC5/cyfitter_cfg.c **** static void CYCONFIGCPYCODE(void *dest, const void *src, size_t n)
  75:.\Generated_Source\PSoC5/cyfitter_cfg.c **** {
  95              		.loc 1 75 0
  96              		.cfi_startproc
ARM GAS  C:\Users\xavieran\AppData\Local\Temp\ccykvWSD.s 			page 4


  97              		@ args = 0, pretend = 0, frame = 16
  98              		@ frame_needed = 1, uses_anonymous_args = 0
  99 0000 80B5     		push	{r7, lr}
 100              		.cfi_def_cfa_offset 8
 101              		.cfi_offset 7, -8
 102              		.cfi_offset 14, -4
 103 0002 84B0     		sub	sp, sp, #16
 104              		.cfi_def_cfa_offset 24
 105 0004 00AF     		add	r7, sp, #0
 106              		.cfi_def_cfa_register 7
 107 0006 F860     		str	r0, [r7, #12]
 108 0008 B960     		str	r1, [r7, #8]
 109 000a 7A60     		str	r2, [r7, #4]
  76:.\Generated_Source\PSoC5/cyfitter_cfg.c **** 	(void)memcpy(dest, src, n);
 110              		.loc 1 76 0
 111 000c F868     		ldr	r0, [r7, #12]
 112 000e B968     		ldr	r1, [r7, #8]
 113 0010 7A68     		ldr	r2, [r7, #4]
 114 0012 FFF7FEFF 		bl	memcpy
  77:.\Generated_Source\PSoC5/cyfitter_cfg.c **** }
 115              		.loc 1 77 0
 116 0016 1037     		adds	r7, r7, #16
 117 0018 BD46     		mov	sp, r7
 118              		@ sp needed
 119 001a 80BD     		pop	{r7, pc}
 120              		.cfi_endproc
 121              	.LFE2:
 122              		.size	CYCONFIGCPYCODE, .-CYCONFIGCPYCODE
 123              		.section	.text.CyClockStartupError,"ax",%progbits
 124              		.align	2
 125              		.thumb
 126              		.thumb_func
 127              		.type	CyClockStartupError, %function
 128              	CyClockStartupError:
 129              	.LFB3:
  78:.\Generated_Source\PSoC5/cyfitter_cfg.c **** 
  79:.\Generated_Source\PSoC5/cyfitter_cfg.c **** 
  80:.\Generated_Source\PSoC5/cyfitter_cfg.c **** 
  81:.\Generated_Source\PSoC5/cyfitter_cfg.c **** /* Clock startup error codes                                                   */
  82:.\Generated_Source\PSoC5/cyfitter_cfg.c **** #define CYCLOCKSTART_NO_ERROR    0u
  83:.\Generated_Source\PSoC5/cyfitter_cfg.c **** #define CYCLOCKSTART_XTAL_ERROR  1u
  84:.\Generated_Source\PSoC5/cyfitter_cfg.c **** #define CYCLOCKSTART_32KHZ_ERROR 2u
  85:.\Generated_Source\PSoC5/cyfitter_cfg.c **** #define CYCLOCKSTART_PLL_ERROR   3u
  86:.\Generated_Source\PSoC5/cyfitter_cfg.c **** 
  87:.\Generated_Source\PSoC5/cyfitter_cfg.c **** #ifdef CY_NEED_CYCLOCKSTARTUPERROR
  88:.\Generated_Source\PSoC5/cyfitter_cfg.c **** /*******************************************************************************
  89:.\Generated_Source\PSoC5/cyfitter_cfg.c **** * Function Name: CyClockStartupError
  90:.\Generated_Source\PSoC5/cyfitter_cfg.c **** ********************************************************************************
  91:.\Generated_Source\PSoC5/cyfitter_cfg.c **** * Summary:
  92:.\Generated_Source\PSoC5/cyfitter_cfg.c **** *  If an error is encountered during clock configuration (crystal startup error,
  93:.\Generated_Source\PSoC5/cyfitter_cfg.c **** *  PLL lock error, etc.), the system will end up here.  Unless reimplemented by
  94:.\Generated_Source\PSoC5/cyfitter_cfg.c **** *  the customer, this function will stop in an infinite loop.
  95:.\Generated_Source\PSoC5/cyfitter_cfg.c **** *
  96:.\Generated_Source\PSoC5/cyfitter_cfg.c **** * Parameters:
  97:.\Generated_Source\PSoC5/cyfitter_cfg.c **** *   void
  98:.\Generated_Source\PSoC5/cyfitter_cfg.c **** *
  99:.\Generated_Source\PSoC5/cyfitter_cfg.c **** * Return:
ARM GAS  C:\Users\xavieran\AppData\Local\Temp\ccykvWSD.s 			page 5


 100:.\Generated_Source\PSoC5/cyfitter_cfg.c **** *   void
 101:.\Generated_Source\PSoC5/cyfitter_cfg.c **** *
 102:.\Generated_Source\PSoC5/cyfitter_cfg.c **** *******************************************************************************/
 103:.\Generated_Source\PSoC5/cyfitter_cfg.c **** CY_CFG_UNUSED
 104:.\Generated_Source\PSoC5/cyfitter_cfg.c **** static void CyClockStartupError(uint8 errorCode);
 105:.\Generated_Source\PSoC5/cyfitter_cfg.c **** CY_CFG_UNUSED
 106:.\Generated_Source\PSoC5/cyfitter_cfg.c **** static void CyClockStartupError(uint8 errorCode)
 107:.\Generated_Source\PSoC5/cyfitter_cfg.c **** {
 130              		.loc 1 107 0
 131              		.cfi_startproc
 132              		@ args = 0, pretend = 0, frame = 8
 133              		@ frame_needed = 1, uses_anonymous_args = 0
 134              		@ link register save eliminated.
 135 0000 80B4     		push	{r7}
 136              		.cfi_def_cfa_offset 4
 137              		.cfi_offset 7, -4
 138 0002 83B0     		sub	sp, sp, #12
 139              		.cfi_def_cfa_offset 16
 140 0004 00AF     		add	r7, sp, #0
 141              		.cfi_def_cfa_register 7
 142 0006 0346     		mov	r3, r0
 143 0008 FB71     		strb	r3, [r7, #7]
 144              	.L5:
 108:.\Generated_Source\PSoC5/cyfitter_cfg.c ****     /* To remove the compiler warning if errorCode not used.                */
 109:.\Generated_Source\PSoC5/cyfitter_cfg.c ****     errorCode = errorCode;
 110:.\Generated_Source\PSoC5/cyfitter_cfg.c **** 
 111:.\Generated_Source\PSoC5/cyfitter_cfg.c ****     /* `#START CyClockStartupError` */
 112:.\Generated_Source\PSoC5/cyfitter_cfg.c **** 
 113:.\Generated_Source\PSoC5/cyfitter_cfg.c ****     /* If we have a clock startup error (bad MHz crystal, PLL lock, etc.),  */
 114:.\Generated_Source\PSoC5/cyfitter_cfg.c ****     /* we will end up here to allow the customer to implement something to  */
 115:.\Generated_Source\PSoC5/cyfitter_cfg.c ****     /* deal with the clock condition.                                       */
 116:.\Generated_Source\PSoC5/cyfitter_cfg.c **** 
 117:.\Generated_Source\PSoC5/cyfitter_cfg.c ****     /* `#END` */
 118:.\Generated_Source\PSoC5/cyfitter_cfg.c **** 
 119:.\Generated_Source\PSoC5/cyfitter_cfg.c ****     /* If nothing else, stop here since the clocks have not started         */
 120:.\Generated_Source\PSoC5/cyfitter_cfg.c ****     /* correctly.                                                           */
 121:.\Generated_Source\PSoC5/cyfitter_cfg.c ****     while(1) {}
 145              		.loc 1 121 0 discriminator 1
 146 000a FEE7     		b	.L5
 147              		.cfi_endproc
 148              	.LFE3:
 149              		.size	CyClockStartupError, .-CyClockStartupError
 150              		.section	.text.cfg_write_bytes32,"ax",%progbits
 151              		.align	2
 152              		.thumb
 153              		.thumb_func
 154              		.type	cfg_write_bytes32, %function
 155              	cfg_write_bytes32:
 156              	.LFB4:
 122:.\Generated_Source\PSoC5/cyfitter_cfg.c **** }
 123:.\Generated_Source\PSoC5/cyfitter_cfg.c **** #endif
 124:.\Generated_Source\PSoC5/cyfitter_cfg.c **** 
 125:.\Generated_Source\PSoC5/cyfitter_cfg.c **** #define CY_CFG_BASE_ADDR_COUNT 43u
 126:.\Generated_Source\PSoC5/cyfitter_cfg.c **** CYPACKED typedef struct
 127:.\Generated_Source\PSoC5/cyfitter_cfg.c **** {
 128:.\Generated_Source\PSoC5/cyfitter_cfg.c **** 	uint8 offset;
 129:.\Generated_Source\PSoC5/cyfitter_cfg.c **** 	uint8 value;
ARM GAS  C:\Users\xavieran\AppData\Local\Temp\ccykvWSD.s 			page 6


 130:.\Generated_Source\PSoC5/cyfitter_cfg.c **** } CYPACKED_ATTR cy_cfg_addrvalue_t;
 131:.\Generated_Source\PSoC5/cyfitter_cfg.c **** 
 132:.\Generated_Source\PSoC5/cyfitter_cfg.c **** 
 133:.\Generated_Source\PSoC5/cyfitter_cfg.c **** 
 134:.\Generated_Source\PSoC5/cyfitter_cfg.c **** /*******************************************************************************
 135:.\Generated_Source\PSoC5/cyfitter_cfg.c **** * Function Name: cfg_write_bytes32
 136:.\Generated_Source\PSoC5/cyfitter_cfg.c **** ********************************************************************************
 137:.\Generated_Source\PSoC5/cyfitter_cfg.c **** * Summary:
 138:.\Generated_Source\PSoC5/cyfitter_cfg.c **** *  This function is used for setting up the chip configuration areas that
 139:.\Generated_Source\PSoC5/cyfitter_cfg.c **** *  contain relatively sparse data.
 140:.\Generated_Source\PSoC5/cyfitter_cfg.c **** *
 141:.\Generated_Source\PSoC5/cyfitter_cfg.c **** * Parameters:
 142:.\Generated_Source\PSoC5/cyfitter_cfg.c **** *   void
 143:.\Generated_Source\PSoC5/cyfitter_cfg.c **** *
 144:.\Generated_Source\PSoC5/cyfitter_cfg.c **** * Return:
 145:.\Generated_Source\PSoC5/cyfitter_cfg.c **** *   void
 146:.\Generated_Source\PSoC5/cyfitter_cfg.c **** *
 147:.\Generated_Source\PSoC5/cyfitter_cfg.c **** *******************************************************************************/
 148:.\Generated_Source\PSoC5/cyfitter_cfg.c **** static void cfg_write_bytes32(const uint32 addr_table[], const cy_cfg_addrvalue_t data_table[]);
 149:.\Generated_Source\PSoC5/cyfitter_cfg.c **** static void cfg_write_bytes32(const uint32 addr_table[], const cy_cfg_addrvalue_t data_table[])
 150:.\Generated_Source\PSoC5/cyfitter_cfg.c **** {
 157              		.loc 1 150 0
 158              		.cfi_startproc
 159              		@ args = 0, pretend = 0, frame = 24
 160              		@ frame_needed = 1, uses_anonymous_args = 0
 161              		@ link register save eliminated.
 162 0000 80B4     		push	{r7}
 163              		.cfi_def_cfa_offset 4
 164              		.cfi_offset 7, -4
 165 0002 87B0     		sub	sp, sp, #28
 166              		.cfi_def_cfa_offset 32
 167 0004 00AF     		add	r7, sp, #0
 168              		.cfi_def_cfa_register 7
 169 0006 7860     		str	r0, [r7, #4]
 170 0008 3960     		str	r1, [r7]
 151:.\Generated_Source\PSoC5/cyfitter_cfg.c **** 	/* For 32-bit little-endian architectures */
 152:.\Generated_Source\PSoC5/cyfitter_cfg.c **** 	uint32 i, j = 0u;
 171              		.loc 1 152 0
 172 000a 0023     		movs	r3, #0
 173 000c 3B61     		str	r3, [r7, #16]
 153:.\Generated_Source\PSoC5/cyfitter_cfg.c **** 	for (i = 0u; i < CY_CFG_BASE_ADDR_COUNT; i++)
 174              		.loc 1 153 0
 175 000e 0023     		movs	r3, #0
 176 0010 7B61     		str	r3, [r7, #20]
 177 0012 26E0     		b	.L7
 178              	.L10:
 179              	.LBB2:
 154:.\Generated_Source\PSoC5/cyfitter_cfg.c **** 	{
 155:.\Generated_Source\PSoC5/cyfitter_cfg.c **** 		uint32 baseAddr = addr_table[i];
 180              		.loc 1 155 0
 181 0014 7B69     		ldr	r3, [r7, #20]
 182 0016 9B00     		lsls	r3, r3, #2
 183 0018 7A68     		ldr	r2, [r7, #4]
 184 001a 1344     		add	r3, r3, r2
 185 001c 1B68     		ldr	r3, [r3]
 186 001e BB60     		str	r3, [r7, #8]
 156:.\Generated_Source\PSoC5/cyfitter_cfg.c **** 		uint8 count = (uint8)baseAddr;
ARM GAS  C:\Users\xavieran\AppData\Local\Temp\ccykvWSD.s 			page 7


 187              		.loc 1 156 0
 188 0020 BB68     		ldr	r3, [r7, #8]
 189 0022 FB73     		strb	r3, [r7, #15]
 157:.\Generated_Source\PSoC5/cyfitter_cfg.c **** 		baseAddr &= 0xFFFFFF00u;
 190              		.loc 1 157 0
 191 0024 BB68     		ldr	r3, [r7, #8]
 192 0026 23F0FF03 		bic	r3, r3, #255
 193 002a BB60     		str	r3, [r7, #8]
 158:.\Generated_Source\PSoC5/cyfitter_cfg.c **** 		while (count != 0u)
 194              		.loc 1 158 0
 195 002c 13E0     		b	.L8
 196              	.L9:
 159:.\Generated_Source\PSoC5/cyfitter_cfg.c **** 		{
 160:.\Generated_Source\PSoC5/cyfitter_cfg.c **** 			CY_SET_XTND_REG8((void CYFAR *)(baseAddr + data_table[j].offset), data_table[j].value);
 197              		.loc 1 160 0
 198 002e 3B69     		ldr	r3, [r7, #16]
 199 0030 5B00     		lsls	r3, r3, #1
 200 0032 3A68     		ldr	r2, [r7]
 201 0034 1344     		add	r3, r3, r2
 202 0036 1B78     		ldrb	r3, [r3]	@ zero_extendqisi2
 203 0038 1A46     		mov	r2, r3
 204 003a BB68     		ldr	r3, [r7, #8]
 205 003c 1344     		add	r3, r3, r2
 206 003e 3A69     		ldr	r2, [r7, #16]
 207 0040 5200     		lsls	r2, r2, #1
 208 0042 3968     		ldr	r1, [r7]
 209 0044 0A44     		add	r2, r2, r1
 210 0046 5278     		ldrb	r2, [r2, #1]	@ zero_extendqisi2
 211 0048 1A70     		strb	r2, [r3]
 161:.\Generated_Source\PSoC5/cyfitter_cfg.c **** 			j++;
 212              		.loc 1 161 0
 213 004a 3B69     		ldr	r3, [r7, #16]
 214 004c 0133     		adds	r3, r3, #1
 215 004e 3B61     		str	r3, [r7, #16]
 162:.\Generated_Source\PSoC5/cyfitter_cfg.c **** 			count--;
 216              		.loc 1 162 0
 217 0050 FB7B     		ldrb	r3, [r7, #15]	@ zero_extendqisi2
 218 0052 013B     		subs	r3, r3, #1
 219 0054 FB73     		strb	r3, [r7, #15]
 220              	.L8:
 158:.\Generated_Source\PSoC5/cyfitter_cfg.c **** 		while (count != 0u)
 221              		.loc 1 158 0 discriminator 1
 222 0056 FB7B     		ldrb	r3, [r7, #15]	@ zero_extendqisi2
 223 0058 002B     		cmp	r3, #0
 224 005a E8D1     		bne	.L9
 225              	.LBE2:
 153:.\Generated_Source\PSoC5/cyfitter_cfg.c **** 	for (i = 0u; i < CY_CFG_BASE_ADDR_COUNT; i++)
 226              		.loc 1 153 0
 227 005c 7B69     		ldr	r3, [r7, #20]
 228 005e 0133     		adds	r3, r3, #1
 229 0060 7B61     		str	r3, [r7, #20]
 230              	.L7:
 153:.\Generated_Source\PSoC5/cyfitter_cfg.c **** 	for (i = 0u; i < CY_CFG_BASE_ADDR_COUNT; i++)
 231              		.loc 1 153 0 is_stmt 0 discriminator 1
 232 0062 7B69     		ldr	r3, [r7, #20]
 233 0064 2A2B     		cmp	r3, #42
 234 0066 D5D9     		bls	.L10
ARM GAS  C:\Users\xavieran\AppData\Local\Temp\ccykvWSD.s 			page 8


 163:.\Generated_Source\PSoC5/cyfitter_cfg.c **** 		}
 164:.\Generated_Source\PSoC5/cyfitter_cfg.c **** 	}
 165:.\Generated_Source\PSoC5/cyfitter_cfg.c **** }
 235              		.loc 1 165 0 is_stmt 1
 236 0068 1C37     		adds	r7, r7, #28
 237 006a BD46     		mov	sp, r7
 238              		@ sp needed
 239 006c 5DF8047B 		ldr	r7, [sp], #4
 240 0070 7047     		bx	lr
 241              		.cfi_endproc
 242              	.LFE4:
 243              		.size	cfg_write_bytes32, .-cfg_write_bytes32
 244 0072 00BF     		.section	.text.ClockSetup,"ax",%progbits
 245              		.align	2
 246              		.thumb
 247              		.thumb_func
 248              		.type	ClockSetup, %function
 249              	ClockSetup:
 250              	.LFB5:
 166:.\Generated_Source\PSoC5/cyfitter_cfg.c **** 
 167:.\Generated_Source\PSoC5/cyfitter_cfg.c **** /*******************************************************************************
 168:.\Generated_Source\PSoC5/cyfitter_cfg.c **** * Function Name: ClockSetup
 169:.\Generated_Source\PSoC5/cyfitter_cfg.c **** ********************************************************************************
 170:.\Generated_Source\PSoC5/cyfitter_cfg.c **** *
 171:.\Generated_Source\PSoC5/cyfitter_cfg.c **** * Summary:
 172:.\Generated_Source\PSoC5/cyfitter_cfg.c **** *  Performs the initialization of all of the clocks in the device based on the
 173:.\Generated_Source\PSoC5/cyfitter_cfg.c **** *  settings in the Clock tab of the DWR.  This includes enabling the requested
 174:.\Generated_Source\PSoC5/cyfitter_cfg.c **** *  clocks and setting the necessary dividers to produce the desired frequency. 
 175:.\Generated_Source\PSoC5/cyfitter_cfg.c **** *
 176:.\Generated_Source\PSoC5/cyfitter_cfg.c **** * Parameters:
 177:.\Generated_Source\PSoC5/cyfitter_cfg.c **** *  void
 178:.\Generated_Source\PSoC5/cyfitter_cfg.c **** *
 179:.\Generated_Source\PSoC5/cyfitter_cfg.c **** * Return:
 180:.\Generated_Source\PSoC5/cyfitter_cfg.c **** *  void
 181:.\Generated_Source\PSoC5/cyfitter_cfg.c **** *
 182:.\Generated_Source\PSoC5/cyfitter_cfg.c **** *******************************************************************************/
 183:.\Generated_Source\PSoC5/cyfitter_cfg.c **** static void ClockSetup(void);
 184:.\Generated_Source\PSoC5/cyfitter_cfg.c **** static void ClockSetup(void)
 185:.\Generated_Source\PSoC5/cyfitter_cfg.c **** {
 251              		.loc 1 185 0
 252              		.cfi_startproc
 253              		@ args = 0, pretend = 0, frame = 8
 254              		@ frame_needed = 1, uses_anonymous_args = 0
 255 0000 80B5     		push	{r7, lr}
 256              		.cfi_def_cfa_offset 8
 257              		.cfi_offset 7, -8
 258              		.cfi_offset 14, -4
 259 0002 82B0     		sub	sp, sp, #8
 260              		.cfi_def_cfa_offset 16
 261 0004 00AF     		add	r7, sp, #0
 262              		.cfi_def_cfa_register 7
 186:.\Generated_Source\PSoC5/cyfitter_cfg.c **** 	uint32 timeout;
 187:.\Generated_Source\PSoC5/cyfitter_cfg.c **** 	uint8 pllLock;
 188:.\Generated_Source\PSoC5/cyfitter_cfg.c **** 
 189:.\Generated_Source\PSoC5/cyfitter_cfg.c **** 
 190:.\Generated_Source\PSoC5/cyfitter_cfg.c **** 	/* Configure Digital Clocks based on settings from Clock DWR */
 191:.\Generated_Source\PSoC5/cyfitter_cfg.c **** 	CY_SET_XTND_REG16((void CYFAR *)(CYREG_CLKDIST_DCFG0_CFG0), 0x0000u);
ARM GAS  C:\Users\xavieran\AppData\Local\Temp\ccykvWSD.s 			page 9


 263              		.loc 1 191 0
 264 0006 434B     		ldr	r3, .L16
 265 0008 0022     		movs	r2, #0
 266 000a 1A80     		strh	r2, [r3]	@ movhi
 192:.\Generated_Source\PSoC5/cyfitter_cfg.c **** 	CY_SET_XTND_REG8((void CYFAR *)(CYREG_CLKDIST_DCFG0_CFG0 + 0x2u), 0x19u);
 267              		.loc 1 192 0
 268 000c 424B     		ldr	r3, .L16+4
 269 000e 1922     		movs	r2, #25
 270 0010 1A70     		strb	r2, [r3]
 193:.\Generated_Source\PSoC5/cyfitter_cfg.c **** 	CY_SET_XTND_REG16((void CYFAR *)(CYREG_CLKDIST_DCFG1_CFG0), 0x0001u);
 271              		.loc 1 193 0
 272 0012 424B     		ldr	r3, .L16+8
 273 0014 0122     		movs	r2, #1
 274 0016 1A80     		strh	r2, [r3]	@ movhi
 194:.\Generated_Source\PSoC5/cyfitter_cfg.c **** 	CY_SET_XTND_REG8((void CYFAR *)(CYREG_CLKDIST_DCFG1_CFG0 + 0x2u), 0x19u);
 275              		.loc 1 194 0
 276 0018 414B     		ldr	r3, .L16+12
 277 001a 1922     		movs	r2, #25
 278 001c 1A70     		strb	r2, [r3]
 195:.\Generated_Source\PSoC5/cyfitter_cfg.c **** 	CY_SET_XTND_REG16((void CYFAR *)(CYREG_CLKDIST_DCFG2_CFG0), 0x0009u);
 279              		.loc 1 195 0
 280 001e 414B     		ldr	r3, .L16+16
 281 0020 0922     		movs	r2, #9
 282 0022 1A80     		strh	r2, [r3]	@ movhi
 196:.\Generated_Source\PSoC5/cyfitter_cfg.c **** 	CY_SET_XTND_REG8((void CYFAR *)(CYREG_CLKDIST_DCFG2_CFG0 + 0x2u), 0x18u);
 283              		.loc 1 196 0
 284 0024 404B     		ldr	r3, .L16+20
 285 0026 1822     		movs	r2, #24
 286 0028 1A70     		strb	r2, [r3]
 197:.\Generated_Source\PSoC5/cyfitter_cfg.c **** 	CY_SET_XTND_REG16((void CYFAR *)(CYREG_CLKDIST_DCFG3_CFG0), 0x0041u);
 287              		.loc 1 197 0
 288 002a 404B     		ldr	r3, .L16+24
 289 002c 4122     		movs	r2, #65
 290 002e 1A80     		strh	r2, [r3]	@ movhi
 198:.\Generated_Source\PSoC5/cyfitter_cfg.c **** 	CY_SET_XTND_REG8((void CYFAR *)(CYREG_CLKDIST_DCFG3_CFG0 + 0x2u), 0x18u);
 291              		.loc 1 198 0
 292 0030 3F4B     		ldr	r3, .L16+28
 293 0032 1822     		movs	r2, #24
 294 0034 1A70     		strb	r2, [r3]
 199:.\Generated_Source\PSoC5/cyfitter_cfg.c **** 	CY_SET_XTND_REG16((void CYFAR *)(CYREG_CLKDIST_DCFG4_CFG0), 0x0671u);
 295              		.loc 1 199 0
 296 0036 3F4B     		ldr	r3, .L16+32
 297 0038 40F27162 		movw	r2, #1649
 298 003c 1A80     		strh	r2, [r3]	@ movhi
 200:.\Generated_Source\PSoC5/cyfitter_cfg.c **** 	CY_SET_XTND_REG8((void CYFAR *)(CYREG_CLKDIST_DCFG4_CFG0 + 0x2u), 0x18u);
 299              		.loc 1 200 0
 300 003e 3E4B     		ldr	r3, .L16+36
 301 0040 1822     		movs	r2, #24
 302 0042 1A70     		strb	r2, [r3]
 201:.\Generated_Source\PSoC5/cyfitter_cfg.c **** 	CY_SET_XTND_REG16((void CYFAR *)(CYREG_CLKDIST_DCFG5_CFG0), 0x06C8u);
 303              		.loc 1 201 0
 304 0044 3D4B     		ldr	r3, .L16+40
 305 0046 4FF4D962 		mov	r2, #1736
 306 004a 1A80     		strh	r2, [r3]	@ movhi
 202:.\Generated_Source\PSoC5/cyfitter_cfg.c **** 	CY_SET_XTND_REG8((void CYFAR *)(CYREG_CLKDIST_DCFG5_CFG0 + 0x2u), 0x18u);
 307              		.loc 1 202 0
 308 004c 3C4B     		ldr	r3, .L16+44
ARM GAS  C:\Users\xavieran\AppData\Local\Temp\ccykvWSD.s 			page 10


 309 004e 1822     		movs	r2, #24
 310 0050 1A70     		strb	r2, [r3]
 203:.\Generated_Source\PSoC5/cyfitter_cfg.c **** 	CY_SET_XTND_REG16((void CYFAR *)(CYREG_CLKDIST_DCFG6_CFG0), 0x19C7u);
 311              		.loc 1 203 0
 312 0052 3C4B     		ldr	r3, .L16+48
 313 0054 41F6C712 		movw	r2, #6599
 314 0058 1A80     		strh	r2, [r3]	@ movhi
 204:.\Generated_Source\PSoC5/cyfitter_cfg.c **** 	CY_SET_XTND_REG8((void CYFAR *)(CYREG_CLKDIST_DCFG6_CFG0 + 0x2u), 0x18u);
 315              		.loc 1 204 0
 316 005a 3B4B     		ldr	r3, .L16+52
 317 005c 1822     		movs	r2, #24
 318 005e 1A70     		strb	r2, [r3]
 205:.\Generated_Source\PSoC5/cyfitter_cfg.c **** 
 206:.\Generated_Source\PSoC5/cyfitter_cfg.c **** 	/* Configure ILO based on settings from Clock DWR */
 207:.\Generated_Source\PSoC5/cyfitter_cfg.c **** 	CY_SET_XTND_REG8((void CYFAR *)(CYREG_SLOWCLK_ILO_CR0), 0x06u);
 319              		.loc 1 207 0
 320 0060 3A4B     		ldr	r3, .L16+56
 321 0062 0622     		movs	r2, #6
 322 0064 1A70     		strb	r2, [r3]
 208:.\Generated_Source\PSoC5/cyfitter_cfg.c **** 
 209:.\Generated_Source\PSoC5/cyfitter_cfg.c **** 	/* Configure IMO based on settings from Clock DWR */
 210:.\Generated_Source\PSoC5/cyfitter_cfg.c **** 	CY_SET_XTND_REG8((void CYFAR *)(CYREG_FASTCLK_IMO_CR), 0x52u);
 323              		.loc 1 210 0
 324 0066 3A4B     		ldr	r3, .L16+60
 325 0068 5222     		movs	r2, #82
 326 006a 1A70     		strb	r2, [r3]
 211:.\Generated_Source\PSoC5/cyfitter_cfg.c **** 	CY_SET_XTND_REG8((void CYFAR *)(CYREG_IMO_TR1), (CY_GET_XTND_REG8((void CYFAR *)CYREG_FLSHID_CUST_
 327              		.loc 1 211 0
 328 006c 394B     		ldr	r3, .L16+64
 329 006e 3A4A     		ldr	r2, .L16+68
 330 0070 1278     		ldrb	r2, [r2]
 331 0072 D2B2     		uxtb	r2, r2
 332 0074 1A70     		strb	r2, [r3]
 212:.\Generated_Source\PSoC5/cyfitter_cfg.c **** 
 213:.\Generated_Source\PSoC5/cyfitter_cfg.c **** 	/* Configure PLL based on settings from Clock DWR */
 214:.\Generated_Source\PSoC5/cyfitter_cfg.c **** 	CY_SET_XTND_REG16((void CYFAR *)(CYREG_FASTCLK_PLL_P), 0x0B21u);
 333              		.loc 1 214 0
 334 0076 394B     		ldr	r3, .L16+72
 335 0078 40F62132 		movw	r2, #2849
 336 007c 1A80     		strh	r2, [r3]	@ movhi
 215:.\Generated_Source\PSoC5/cyfitter_cfg.c **** 	CY_SET_XTND_REG16((void CYFAR *)(CYREG_FASTCLK_PLL_CFG0), 0x1251u);
 337              		.loc 1 215 0
 338 007e 384B     		ldr	r3, .L16+76
 339 0080 41F25122 		movw	r2, #4689
 340 0084 1A80     		strh	r2, [r3]	@ movhi
 216:.\Generated_Source\PSoC5/cyfitter_cfg.c **** 	/* Wait up to 250us for the PLL to lock */
 217:.\Generated_Source\PSoC5/cyfitter_cfg.c **** 	pllLock = 0u;
 341              		.loc 1 217 0
 342 0086 0023     		movs	r3, #0
 343 0088 FB70     		strb	r3, [r7, #3]
 218:.\Generated_Source\PSoC5/cyfitter_cfg.c **** 	for (timeout = 250u / 10u; (timeout > 0u) && (pllLock != 0x03u); timeout--)
 344              		.loc 1 218 0
 345 008a 1923     		movs	r3, #25
 346 008c 7B60     		str	r3, [r7, #4]
 347 008e 14E0     		b	.L12
 348              	.L14:
 219:.\Generated_Source\PSoC5/cyfitter_cfg.c **** 	{ 
ARM GAS  C:\Users\xavieran\AppData\Local\Temp\ccykvWSD.s 			page 11


 220:.\Generated_Source\PSoC5/cyfitter_cfg.c **** 		pllLock = 0x03u & ((uint8)((uint8)pllLock << 1) | ((CY_GET_XTND_REG8((void CYFAR *)CYREG_FASTCLK_
 349              		.loc 1 220 0 discriminator 1
 350 0090 FB78     		ldrb	r3, [r7, #3]
 351 0092 5B00     		lsls	r3, r3, #1
 352 0094 DAB2     		uxtb	r2, r3
 353 0096 334B     		ldr	r3, .L16+80
 354 0098 1B78     		ldrb	r3, [r3]
 355 009a DBB2     		uxtb	r3, r3
 356 009c 03F00103 		and	r3, r3, #1
 357 00a0 DBB2     		uxtb	r3, r3
 358 00a2 1343     		orrs	r3, r3, r2
 359 00a4 DBB2     		uxtb	r3, r3
 360 00a6 03F00303 		and	r3, r3, #3
 361 00aa FB70     		strb	r3, [r7, #3]
 221:.\Generated_Source\PSoC5/cyfitter_cfg.c **** 		CyDelayCycles(10u * 48u); /* Delay 10us based on 48MHz clock */
 362              		.loc 1 221 0 discriminator 1
 363 00ac 4FF4F070 		mov	r0, #480
 364 00b0 FFF7FEFF 		bl	CyDelayCycles
 218:.\Generated_Source\PSoC5/cyfitter_cfg.c **** 	for (timeout = 250u / 10u; (timeout > 0u) && (pllLock != 0x03u); timeout--)
 365              		.loc 1 218 0 discriminator 1
 366 00b4 7B68     		ldr	r3, [r7, #4]
 367 00b6 013B     		subs	r3, r3, #1
 368 00b8 7B60     		str	r3, [r7, #4]
 369              	.L12:
 370 00ba 7B68     		ldr	r3, [r7, #4]
 371 00bc 002B     		cmp	r3, #0
 372 00be 02D0     		beq	.L13
 218:.\Generated_Source\PSoC5/cyfitter_cfg.c **** 	for (timeout = 250u / 10u; (timeout > 0u) && (pllLock != 0x03u); timeout--)
 373              		.loc 1 218 0 is_stmt 0 discriminator 2
 374 00c0 FB78     		ldrb	r3, [r7, #3]	@ zero_extendqisi2
 375 00c2 032B     		cmp	r3, #3
 376 00c4 E4D1     		bne	.L14
 377              	.L13:
 222:.\Generated_Source\PSoC5/cyfitter_cfg.c **** 	}
 223:.\Generated_Source\PSoC5/cyfitter_cfg.c **** 	/* If we ran out of time the PLL didn't lock so go to the error function */
 224:.\Generated_Source\PSoC5/cyfitter_cfg.c **** 	if (timeout == 0u)
 378              		.loc 1 224 0 is_stmt 1
 379 00c6 7B68     		ldr	r3, [r7, #4]
 380 00c8 002B     		cmp	r3, #0
 381 00ca 02D1     		bne	.L15
 225:.\Generated_Source\PSoC5/cyfitter_cfg.c **** 	{
 226:.\Generated_Source\PSoC5/cyfitter_cfg.c **** 		CyClockStartupError(CYCLOCKSTART_PLL_ERROR);
 382              		.loc 1 226 0
 383 00cc 0320     		movs	r0, #3
 384 00ce FFF7FEFF 		bl	CyClockStartupError
 385              	.L15:
 227:.\Generated_Source\PSoC5/cyfitter_cfg.c **** 	}
 228:.\Generated_Source\PSoC5/cyfitter_cfg.c **** 
 229:.\Generated_Source\PSoC5/cyfitter_cfg.c **** 	/* Configure Bus/Master Clock based on settings from Clock DWR */
 230:.\Generated_Source\PSoC5/cyfitter_cfg.c **** 	CY_SET_XTND_REG16((void CYFAR *)(CYREG_CLKDIST_MSTR0), 0x0100u);
 386              		.loc 1 230 0
 387 00d2 254B     		ldr	r3, .L16+84
 388 00d4 4FF48072 		mov	r2, #256
 389 00d8 1A80     		strh	r2, [r3]	@ movhi
 231:.\Generated_Source\PSoC5/cyfitter_cfg.c **** 	CY_SET_XTND_REG8((void CYFAR *)(CYREG_CLKDIST_MSTR0), 0x07u);
 390              		.loc 1 231 0
 391 00da 234B     		ldr	r3, .L16+84
ARM GAS  C:\Users\xavieran\AppData\Local\Temp\ccykvWSD.s 			page 12


 392 00dc 0722     		movs	r2, #7
 393 00de 1A70     		strb	r2, [r3]
 232:.\Generated_Source\PSoC5/cyfitter_cfg.c **** 	CY_SET_XTND_REG8((void CYFAR *)(CYREG_CLKDIST_BCFG0), 0x00u);
 394              		.loc 1 232 0
 395 00e0 224B     		ldr	r3, .L16+88
 396 00e2 0022     		movs	r2, #0
 397 00e4 1A70     		strb	r2, [r3]
 233:.\Generated_Source\PSoC5/cyfitter_cfg.c **** 	CY_SET_XTND_REG8((void CYFAR *)(CYREG_CLKDIST_BCFG2), 0x48u);
 398              		.loc 1 233 0
 399 00e6 224B     		ldr	r3, .L16+92
 400 00e8 4822     		movs	r2, #72
 401 00ea 1A70     		strb	r2, [r3]
 234:.\Generated_Source\PSoC5/cyfitter_cfg.c **** 	CY_SET_XTND_REG8((void CYFAR *)(CYREG_CLKDIST_MSTR0), 0x00u);
 402              		.loc 1 234 0
 403 00ec 1E4B     		ldr	r3, .L16+84
 404 00ee 0022     		movs	r2, #0
 405 00f0 1A70     		strb	r2, [r3]
 235:.\Generated_Source\PSoC5/cyfitter_cfg.c **** 
 236:.\Generated_Source\PSoC5/cyfitter_cfg.c **** 	/* Configure USB Clock based on settings from Clock DWR */
 237:.\Generated_Source\PSoC5/cyfitter_cfg.c **** 	CY_SET_XTND_REG8((void CYFAR *)(CYREG_CLKDIST_UCFG), 0x00u);
 406              		.loc 1 237 0
 407 00f2 204B     		ldr	r3, .L16+96
 408 00f4 0022     		movs	r2, #0
 409 00f6 1A70     		strb	r2, [r3]
 238:.\Generated_Source\PSoC5/cyfitter_cfg.c **** 	CY_SET_XTND_REG8((void CYFAR *)(CYREG_CLKDIST_LD), 0x02u);
 410              		.loc 1 238 0
 411 00f8 1F4B     		ldr	r3, .L16+100
 412 00fa 0222     		movs	r2, #2
 413 00fc 1A70     		strb	r2, [r3]
 239:.\Generated_Source\PSoC5/cyfitter_cfg.c **** 
 240:.\Generated_Source\PSoC5/cyfitter_cfg.c **** 	CY_SET_XTND_REG8((void CYFAR *)(CYREG_PM_ACT_CFG2), ((CY_GET_XTND_REG8((void CYFAR *)CYREG_PM_ACT_
 414              		.loc 1 240 0
 415 00fe 1F4B     		ldr	r3, .L16+104
 416 0100 1E4A     		ldr	r2, .L16+104
 417 0102 1278     		ldrb	r2, [r2]
 418 0104 D2B2     		uxtb	r2, r2
 419 0106 42F07F02 		orr	r2, r2, #127
 420 010a D2B2     		uxtb	r2, r2
 421 010c 1A70     		strb	r2, [r3]
 241:.\Generated_Source\PSoC5/cyfitter_cfg.c **** }
 422              		.loc 1 241 0
 423 010e 0837     		adds	r7, r7, #8
 424 0110 BD46     		mov	sp, r7
 425              		@ sp needed
 426 0112 80BD     		pop	{r7, pc}
 427              	.L17:
 428              		.align	2
 429              	.L16:
 430 0114 80400040 		.word	1073758336
 431 0118 82400040 		.word	1073758338
 432 011c 84400040 		.word	1073758340
 433 0120 86400040 		.word	1073758342
 434 0124 88400040 		.word	1073758344
 435 0128 8A400040 		.word	1073758346
 436 012c 8C400040 		.word	1073758348
 437 0130 8E400040 		.word	1073758350
 438 0134 90400040 		.word	1073758352
ARM GAS  C:\Users\xavieran\AppData\Local\Temp\ccykvWSD.s 			page 13


 439 0138 92400040 		.word	1073758354
 440 013c 94400040 		.word	1073758356
 441 0140 96400040 		.word	1073758358
 442 0144 98400040 		.word	1073758360
 443 0148 9A400040 		.word	1073758362
 444 014c 00430040 		.word	1073758976
 445 0150 00420040 		.word	1073758720
 446 0154 A1460040 		.word	1073759905
 447 0158 0F010049 		.word	1224737039
 448 015c 22420040 		.word	1073758754
 449 0160 20420040 		.word	1073758752
 450 0164 25420040 		.word	1073758757
 451 0168 04400040 		.word	1073758212
 452 016c 06400040 		.word	1073758214
 453 0170 08400040 		.word	1073758216
 454 0174 09400040 		.word	1073758217
 455 0178 01400040 		.word	1073758209
 456 017c A2430040 		.word	1073759138
 457              		.cfi_endproc
 458              	.LFE5:
 459              		.size	ClockSetup, .-ClockSetup
 460              		.section	.text.AnalogSetDefault,"ax",%progbits
 461              		.align	2
 462              		.thumb
 463              		.thumb_func
 464              		.type	AnalogSetDefault, %function
 465              	AnalogSetDefault:
 466              	.LFB6:
 242:.\Generated_Source\PSoC5/cyfitter_cfg.c **** 
 243:.\Generated_Source\PSoC5/cyfitter_cfg.c **** 
 244:.\Generated_Source\PSoC5/cyfitter_cfg.c **** /* Analog API Functions */
 245:.\Generated_Source\PSoC5/cyfitter_cfg.c **** 
 246:.\Generated_Source\PSoC5/cyfitter_cfg.c **** 
 247:.\Generated_Source\PSoC5/cyfitter_cfg.c **** /*******************************************************************************
 248:.\Generated_Source\PSoC5/cyfitter_cfg.c **** * Function Name: AnalogSetDefault
 249:.\Generated_Source\PSoC5/cyfitter_cfg.c **** ********************************************************************************
 250:.\Generated_Source\PSoC5/cyfitter_cfg.c **** *
 251:.\Generated_Source\PSoC5/cyfitter_cfg.c **** * Summary:
 252:.\Generated_Source\PSoC5/cyfitter_cfg.c **** *  Sets up the analog portions of the chip to default values based on chip
 253:.\Generated_Source\PSoC5/cyfitter_cfg.c **** *  configuration options from the project.
 254:.\Generated_Source\PSoC5/cyfitter_cfg.c **** *
 255:.\Generated_Source\PSoC5/cyfitter_cfg.c **** * Parameters:
 256:.\Generated_Source\PSoC5/cyfitter_cfg.c **** *  void
 257:.\Generated_Source\PSoC5/cyfitter_cfg.c **** *
 258:.\Generated_Source\PSoC5/cyfitter_cfg.c **** * Return:
 259:.\Generated_Source\PSoC5/cyfitter_cfg.c **** *  void
 260:.\Generated_Source\PSoC5/cyfitter_cfg.c **** *
 261:.\Generated_Source\PSoC5/cyfitter_cfg.c **** *******************************************************************************/
 262:.\Generated_Source\PSoC5/cyfitter_cfg.c **** static void AnalogSetDefault(void);
 263:.\Generated_Source\PSoC5/cyfitter_cfg.c **** static void AnalogSetDefault(void)
 264:.\Generated_Source\PSoC5/cyfitter_cfg.c **** {
 467              		.loc 1 264 0
 468              		.cfi_startproc
 469              		@ args = 0, pretend = 0, frame = 8
 470              		@ frame_needed = 1, uses_anonymous_args = 0
 471              		@ link register save eliminated.
 472 0000 80B4     		push	{r7}
ARM GAS  C:\Users\xavieran\AppData\Local\Temp\ccykvWSD.s 			page 14


 473              		.cfi_def_cfa_offset 4
 474              		.cfi_offset 7, -4
 475 0002 83B0     		sub	sp, sp, #12
 476              		.cfi_def_cfa_offset 16
 477 0004 00AF     		add	r7, sp, #0
 478              		.cfi_def_cfa_register 7
 265:.\Generated_Source\PSoC5/cyfitter_cfg.c **** 	uint8 bg_xover_inl_trim = CY_GET_XTND_REG8((void CYFAR *)(CYREG_FLSHID_MFG_CFG_BG_XOVER_INL_TRIM +
 479              		.loc 1 265 0
 480 0006 0B4B     		ldr	r3, .L19
 481 0008 1B78     		ldrb	r3, [r3]
 482 000a FB71     		strb	r3, [r7, #7]
 266:.\Generated_Source\PSoC5/cyfitter_cfg.c **** 	CY_SET_XTND_REG8((void CYFAR *)(CYREG_BG_DFT0), (bg_xover_inl_trim & 0x07u));
 483              		.loc 1 266 0
 484 000c 0A4B     		ldr	r3, .L19+4
 485 000e FA79     		ldrb	r2, [r7, #7]
 486 0010 02F00702 		and	r2, r2, #7
 487 0014 D2B2     		uxtb	r2, r2
 488 0016 1A70     		strb	r2, [r3]
 267:.\Generated_Source\PSoC5/cyfitter_cfg.c **** 	CY_SET_XTND_REG8((void CYFAR *)(CYREG_BG_DFT1), ((bg_xover_inl_trim >> 4) & 0x0Fu));
 489              		.loc 1 267 0
 490 0018 084B     		ldr	r3, .L19+8
 491 001a FA79     		ldrb	r2, [r7, #7]	@ zero_extendqisi2
 492 001c 1209     		lsrs	r2, r2, #4
 493 001e D2B2     		uxtb	r2, r2
 494 0020 1A70     		strb	r2, [r3]
 268:.\Generated_Source\PSoC5/cyfitter_cfg.c **** 	CY_SET_XTND_REG8((void CYFAR *)CYREG_PUMP_CR0, 0x44u);
 495              		.loc 1 268 0
 496 0022 074B     		ldr	r3, .L19+12
 497 0024 4422     		movs	r2, #68
 498 0026 1A70     		strb	r2, [r3]
 269:.\Generated_Source\PSoC5/cyfitter_cfg.c **** }
 499              		.loc 1 269 0
 500 0028 0C37     		adds	r7, r7, #12
 501 002a BD46     		mov	sp, r7
 502              		@ sp needed
 503 002c 5DF8047B 		ldr	r7, [sp], #4
 504 0030 7047     		bx	lr
 505              	.L20:
 506 0032 00BF     		.align	2
 507              	.L19:
 508 0034 CF010049 		.word	1224737231
 509 0038 6E580040 		.word	1073764462
 510 003c 6F580040 		.word	1073764463
 511 0040 76580040 		.word	1073764470
 512              		.cfi_endproc
 513              	.LFE6:
 514              		.size	AnalogSetDefault, .-AnalogSetDefault
 515              		.section	.text.SetAnalogRoutingPumps,"ax",%progbits
 516              		.align	2
 517              		.global	SetAnalogRoutingPumps
 518              		.thumb
 519              		.thumb_func
 520              		.type	SetAnalogRoutingPumps, %function
 521              	SetAnalogRoutingPumps:
 522              	.LFB7:
 270:.\Generated_Source\PSoC5/cyfitter_cfg.c **** 
 271:.\Generated_Source\PSoC5/cyfitter_cfg.c **** 
ARM GAS  C:\Users\xavieran\AppData\Local\Temp\ccykvWSD.s 			page 15


 272:.\Generated_Source\PSoC5/cyfitter_cfg.c **** /*******************************************************************************
 273:.\Generated_Source\PSoC5/cyfitter_cfg.c **** * Function Name: SetAnalogRoutingPumps
 274:.\Generated_Source\PSoC5/cyfitter_cfg.c **** ********************************************************************************
 275:.\Generated_Source\PSoC5/cyfitter_cfg.c **** *
 276:.\Generated_Source\PSoC5/cyfitter_cfg.c **** * Summary:
 277:.\Generated_Source\PSoC5/cyfitter_cfg.c **** * Enables or disables the analog pumps feeding analog routing switches.
 278:.\Generated_Source\PSoC5/cyfitter_cfg.c **** * Intended to be called at startup, based on the Vdda system configuration;
 279:.\Generated_Source\PSoC5/cyfitter_cfg.c **** * may be called during operation when the user informs us that the Vdda voltage
 280:.\Generated_Source\PSoC5/cyfitter_cfg.c **** * crossed the pump threshold.
 281:.\Generated_Source\PSoC5/cyfitter_cfg.c **** *
 282:.\Generated_Source\PSoC5/cyfitter_cfg.c **** * Parameters:
 283:.\Generated_Source\PSoC5/cyfitter_cfg.c **** *  enabled - 1 to enable the pumps, 0 to disable the pumps
 284:.\Generated_Source\PSoC5/cyfitter_cfg.c **** *
 285:.\Generated_Source\PSoC5/cyfitter_cfg.c **** * Return:
 286:.\Generated_Source\PSoC5/cyfitter_cfg.c **** *  void
 287:.\Generated_Source\PSoC5/cyfitter_cfg.c **** *
 288:.\Generated_Source\PSoC5/cyfitter_cfg.c **** *******************************************************************************/
 289:.\Generated_Source\PSoC5/cyfitter_cfg.c **** void SetAnalogRoutingPumps(uint8 enabled)
 290:.\Generated_Source\PSoC5/cyfitter_cfg.c **** {
 523              		.loc 1 290 0
 524              		.cfi_startproc
 525              		@ args = 0, pretend = 0, frame = 16
 526              		@ frame_needed = 1, uses_anonymous_args = 0
 527              		@ link register save eliminated.
 528 0000 80B4     		push	{r7}
 529              		.cfi_def_cfa_offset 4
 530              		.cfi_offset 7, -4
 531 0002 85B0     		sub	sp, sp, #20
 532              		.cfi_def_cfa_offset 24
 533 0004 00AF     		add	r7, sp, #0
 534              		.cfi_def_cfa_register 7
 535 0006 0346     		mov	r3, r0
 536 0008 FB71     		strb	r3, [r7, #7]
 291:.\Generated_Source\PSoC5/cyfitter_cfg.c **** 	uint8 regValue = CY_GET_XTND_REG8((void CYFAR *)CYREG_PUMP_CR0);
 537              		.loc 1 291 0
 538 000a 064B     		ldr	r3, .L24
 539 000c 1B78     		ldrb	r3, [r3]
 540 000e FB73     		strb	r3, [r7, #15]
 292:.\Generated_Source\PSoC5/cyfitter_cfg.c **** 	if (enabled != 0u)
 541              		.loc 1 292 0
 542 0010 FB79     		ldrb	r3, [r7, #7]	@ zero_extendqisi2
 543 0012 002B     		cmp	r3, #0
 293:.\Generated_Source\PSoC5/cyfitter_cfg.c **** 	{
 294:.\Generated_Source\PSoC5/cyfitter_cfg.c **** 		regValue |= 0x00u;
 295:.\Generated_Source\PSoC5/cyfitter_cfg.c **** 	}
 296:.\Generated_Source\PSoC5/cyfitter_cfg.c **** 	else
 297:.\Generated_Source\PSoC5/cyfitter_cfg.c **** 	{
 298:.\Generated_Source\PSoC5/cyfitter_cfg.c **** 		regValue &= (uint8)~0x00u;
 299:.\Generated_Source\PSoC5/cyfitter_cfg.c **** 	}
 300:.\Generated_Source\PSoC5/cyfitter_cfg.c **** 	CY_SET_XTND_REG8((void CYFAR *)CYREG_PUMP_CR0, regValue);
 544              		.loc 1 300 0
 545 0014 034B     		ldr	r3, .L24
 546 0016 FA7B     		ldrb	r2, [r7, #15]
 547 0018 1A70     		strb	r2, [r3]
 301:.\Generated_Source\PSoC5/cyfitter_cfg.c **** }
 548              		.loc 1 301 0
 549 001a 1437     		adds	r7, r7, #20
ARM GAS  C:\Users\xavieran\AppData\Local\Temp\ccykvWSD.s 			page 16


 550 001c BD46     		mov	sp, r7
 551              		@ sp needed
 552 001e 5DF8047B 		ldr	r7, [sp], #4
 553 0022 7047     		bx	lr
 554              	.L25:
 555              		.align	2
 556              	.L24:
 557 0024 76580040 		.word	1073764470
 558              		.cfi_endproc
 559              	.LFE7:
 560              		.size	SetAnalogRoutingPumps, .-SetAnalogRoutingPumps
 561              		.section	.text.cyfitter_cfg,"ax",%progbits
 562              		.align	2
 563              		.global	cyfitter_cfg
 564              		.thumb
 565              		.thumb_func
 566              		.type	cyfitter_cfg, %function
 567              	cyfitter_cfg:
 568              	.LFB8:
 302:.\Generated_Source\PSoC5/cyfitter_cfg.c **** 
 303:.\Generated_Source\PSoC5/cyfitter_cfg.c **** #define CY_AMUX_UNUSED CYREG_BOOST_SR
 304:.\Generated_Source\PSoC5/cyfitter_cfg.c **** 
 305:.\Generated_Source\PSoC5/cyfitter_cfg.c **** 
 306:.\Generated_Source\PSoC5/cyfitter_cfg.c **** /*******************************************************************************
 307:.\Generated_Source\PSoC5/cyfitter_cfg.c **** * Function Name: cyfitter_cfg
 308:.\Generated_Source\PSoC5/cyfitter_cfg.c **** ********************************************************************************
 309:.\Generated_Source\PSoC5/cyfitter_cfg.c **** * Summary:
 310:.\Generated_Source\PSoC5/cyfitter_cfg.c **** *  This function is called by the start-up code for the selected device. It
 311:.\Generated_Source\PSoC5/cyfitter_cfg.c **** *  performs all of the necessary device configuration based on the design
 312:.\Generated_Source\PSoC5/cyfitter_cfg.c **** *  settings.  This includes settings from the Design Wide Resources (DWR) such
 313:.\Generated_Source\PSoC5/cyfitter_cfg.c **** *  as Clocks and Pins as well as any component configuration that is necessary.
 314:.\Generated_Source\PSoC5/cyfitter_cfg.c **** *
 315:.\Generated_Source\PSoC5/cyfitter_cfg.c **** * Parameters:  
 316:.\Generated_Source\PSoC5/cyfitter_cfg.c **** *   void
 317:.\Generated_Source\PSoC5/cyfitter_cfg.c **** *
 318:.\Generated_Source\PSoC5/cyfitter_cfg.c **** * Return:
 319:.\Generated_Source\PSoC5/cyfitter_cfg.c **** *   void
 320:.\Generated_Source\PSoC5/cyfitter_cfg.c **** *
 321:.\Generated_Source\PSoC5/cyfitter_cfg.c **** *******************************************************************************/
 322:.\Generated_Source\PSoC5/cyfitter_cfg.c **** 
 323:.\Generated_Source\PSoC5/cyfitter_cfg.c **** void cyfitter_cfg(void)
 324:.\Generated_Source\PSoC5/cyfitter_cfg.c **** {
 569              		.loc 1 324 0
 570              		.cfi_startproc
 571              		@ args = 0, pretend = 0, frame = 24
 572              		@ frame_needed = 1, uses_anonymous_args = 0
 573 0000 80B5     		push	{r7, lr}
 574              		.cfi_def_cfa_offset 8
 575              		.cfi_offset 7, -8
 576              		.cfi_offset 14, -4
 577 0002 86B0     		sub	sp, sp, #24
 578              		.cfi_def_cfa_offset 32
 579 0004 00AF     		add	r7, sp, #0
 580              		.cfi_def_cfa_register 7
 325:.\Generated_Source\PSoC5/cyfitter_cfg.c **** 	/* IOPINS0_0 Address: CYREG_PRT0_DM0 Size (bytes): 8 */
 326:.\Generated_Source\PSoC5/cyfitter_cfg.c **** 	static const uint8 CYCODE BS_IOPINS0_0_VAL[] = {
 327:.\Generated_Source\PSoC5/cyfitter_cfg.c **** 		0x03u, 0xF4u, 0xF4u, 0x00u, 0xF0u, 0x00u, 0x00u, 0x00u};
ARM GAS  C:\Users\xavieran\AppData\Local\Temp\ccykvWSD.s 			page 17


 328:.\Generated_Source\PSoC5/cyfitter_cfg.c **** 
 329:.\Generated_Source\PSoC5/cyfitter_cfg.c **** 	/* IOPINS0_7 Address: CYREG_PRT12_DR Size (bytes): 10 */
 330:.\Generated_Source\PSoC5/cyfitter_cfg.c **** 	static const uint8 CYCODE BS_IOPINS0_7_VAL[] = {
 331:.\Generated_Source\PSoC5/cyfitter_cfg.c **** 		0x40u, 0x00u, 0x82u, 0x2Du, 0xEDu, 0x00u, 0x6Du, 0x00u, 0x00u, 0x00u};
 332:.\Generated_Source\PSoC5/cyfitter_cfg.c **** 
 333:.\Generated_Source\PSoC5/cyfitter_cfg.c **** 	/* IOPINS0_8 Address: CYREG_PRT15_DR Size (bytes): 10 */
 334:.\Generated_Source\PSoC5/cyfitter_cfg.c **** 	static const uint8 CYCODE BS_IOPINS0_8_VAL[] = {
 335:.\Generated_Source\PSoC5/cyfitter_cfg.c **** 		0x00u, 0x00u, 0x20u, 0x18u, 0x18u, 0x00u, 0x18u, 0x00u, 0xC0u, 0x00u};
 336:.\Generated_Source\PSoC5/cyfitter_cfg.c **** 
 337:.\Generated_Source\PSoC5/cyfitter_cfg.c **** 	/* IOPINS0_1 Address: CYREG_PRT1_DR Size (bytes): 10 */
 338:.\Generated_Source\PSoC5/cyfitter_cfg.c **** 	static const uint8 CYCODE BS_IOPINS0_1_VAL[] = {
 339:.\Generated_Source\PSoC5/cyfitter_cfg.c **** 		0x80u, 0x00u, 0x40u, 0x00u, 0x80u, 0x00u, 0x80u, 0x00u, 0x00u, 0x00u};
 340:.\Generated_Source\PSoC5/cyfitter_cfg.c **** 
 341:.\Generated_Source\PSoC5/cyfitter_cfg.c **** 	/* IOPINS0_2 Address: CYREG_PRT2_DR Size (bytes): 10 */
 342:.\Generated_Source\PSoC5/cyfitter_cfg.c **** 	static const uint8 CYCODE BS_IOPINS0_2_VAL[] = {
 343:.\Generated_Source\PSoC5/cyfitter_cfg.c **** 		0x30u, 0x00u, 0x05u, 0x00u, 0x30u, 0x00u, 0x30u, 0x00u, 0x00u, 0x00u};
 344:.\Generated_Source\PSoC5/cyfitter_cfg.c **** 
 345:.\Generated_Source\PSoC5/cyfitter_cfg.c **** 	/* IOPINS0_3 Address: CYREG_PRT3_DR Size (bytes): 10 */
 346:.\Generated_Source\PSoC5/cyfitter_cfg.c **** 	static const uint8 CYCODE BS_IOPINS0_3_VAL[] = {
 347:.\Generated_Source\PSoC5/cyfitter_cfg.c **** 		0xA8u, 0x00u, 0x54u, 0xA8u, 0xA8u, 0x00u, 0xA8u, 0x00u, 0x00u, 0x00u};
 348:.\Generated_Source\PSoC5/cyfitter_cfg.c **** 
 349:.\Generated_Source\PSoC5/cyfitter_cfg.c **** 	/* IOPINS0_4 Address: CYREG_PRT4_DM0 Size (bytes): 8 */
 350:.\Generated_Source\PSoC5/cyfitter_cfg.c **** 	static const uint8 CYCODE BS_IOPINS0_4_VAL[] = {
 351:.\Generated_Source\PSoC5/cyfitter_cfg.c **** 		0xF0u, 0x03u, 0x03u, 0x00u, 0x03u, 0x00u, 0x00u, 0x01u};
 352:.\Generated_Source\PSoC5/cyfitter_cfg.c **** 
 353:.\Generated_Source\PSoC5/cyfitter_cfg.c **** 	/* IOPINS0_5 Address: CYREG_PRT5_DM0 Size (bytes): 8 */
 354:.\Generated_Source\PSoC5/cyfitter_cfg.c **** 	static const uint8 CYCODE BS_IOPINS0_5_VAL[] = {
 355:.\Generated_Source\PSoC5/cyfitter_cfg.c **** 		0xF0u, 0x83u, 0x73u, 0x00u, 0x82u, 0x00u, 0x00u, 0x00u};
 356:.\Generated_Source\PSoC5/cyfitter_cfg.c **** 
 357:.\Generated_Source\PSoC5/cyfitter_cfg.c **** 	/* IOPINS0_6 Address: CYREG_PRT6_DM0 Size (bytes): 8 */
 358:.\Generated_Source\PSoC5/cyfitter_cfg.c **** 	static const uint8 CYCODE BS_IOPINS0_6_VAL[] = {
 359:.\Generated_Source\PSoC5/cyfitter_cfg.c **** 		0x1Fu, 0xF0u, 0xE0u, 0x00u, 0x10u, 0x00u, 0x00u, 0x00u};
 360:.\Generated_Source\PSoC5/cyfitter_cfg.c **** 
 361:.\Generated_Source\PSoC5/cyfitter_cfg.c **** #ifdef CYGlobalIntDisable
 362:.\Generated_Source\PSoC5/cyfitter_cfg.c **** 	/* Disable interrupts by default. Let user enable if/when they want. */
 363:.\Generated_Source\PSoC5/cyfitter_cfg.c **** 	CYGlobalIntDisable
 581              		.loc 1 363 0
 582              	@ 363 ".\Generated_Source\PSoC5\cyfitter_cfg.c" 1
 583 0006 72B6     		CPSID   i
 584              	@ 0 "" 2
 364:.\Generated_Source\PSoC5/cyfitter_cfg.c **** #endif
 365:.\Generated_Source\PSoC5/cyfitter_cfg.c **** 
 366:.\Generated_Source\PSoC5/cyfitter_cfg.c **** 
 367:.\Generated_Source\PSoC5/cyfitter_cfg.c **** 	/* Set Flash Cycles based on max possible frequency in case a glitch occurs during ClockSetup(). *
 368:.\Generated_Source\PSoC5/cyfitter_cfg.c **** 	CY_SET_XTND_REG8((void CYFAR *)(CYREG_CACHE_CC_CTL), (((CYDEV_INSTRUCT_CACHE_ENABLED) != 0) ? 0x61
 585              		.loc 1 368 0
 586              		.thumb
 587 0008 5D4B     		ldr	r3, .L31
 588 000a 6122     		movs	r2, #97
 589 000c 1A70     		strb	r2, [r3]
 369:.\Generated_Source\PSoC5/cyfitter_cfg.c **** 	/* Setup clocks based on selections from Clock DWR */
 370:.\Generated_Source\PSoC5/cyfitter_cfg.c **** 	ClockSetup();
 590              		.loc 1 370 0
 591 000e FFF7FEFF 		bl	ClockSetup
 371:.\Generated_Source\PSoC5/cyfitter_cfg.c **** 	/* Set Flash Cycles based on newly configured 66.00MHz Bus Clock. */
 372:.\Generated_Source\PSoC5/cyfitter_cfg.c **** 	CY_SET_XTND_REG8((void CYFAR *)(CYREG_CACHE_CC_CTL), (((CYDEV_INSTRUCT_CACHE_ENABLED) != 0) ? 0x01
 592              		.loc 1 372 0
ARM GAS  C:\Users\xavieran\AppData\Local\Temp\ccykvWSD.s 			page 18


 593 0012 5B4B     		ldr	r3, .L31
 594 0014 0122     		movs	r2, #1
 595 0016 1A70     		strb	r2, [r3]
 596              	.LBB3:
 373:.\Generated_Source\PSoC5/cyfitter_cfg.c **** 	{
 374:.\Generated_Source\PSoC5/cyfitter_cfg.c **** 		static const uint32 CYCODE cy_cfg_addr_table[] = {
 375:.\Generated_Source\PSoC5/cyfitter_cfg.c **** 			0x40004501u, /* Base address: 0x40004500 Count: 1 */
 376:.\Generated_Source\PSoC5/cyfitter_cfg.c **** 			0x40004F08u, /* Base address: 0x40004F00 Count: 8 */
 377:.\Generated_Source\PSoC5/cyfitter_cfg.c **** 			0x40005210u, /* Base address: 0x40005200 Count: 16 */
 378:.\Generated_Source\PSoC5/cyfitter_cfg.c **** 			0x40006408u, /* Base address: 0x40006400 Count: 8 */
 379:.\Generated_Source\PSoC5/cyfitter_cfg.c **** 			0x40006504u, /* Base address: 0x40006500 Count: 4 */
 380:.\Generated_Source\PSoC5/cyfitter_cfg.c **** 			0x40010044u, /* Base address: 0x40010000 Count: 68 */
 381:.\Generated_Source\PSoC5/cyfitter_cfg.c **** 			0x40010139u, /* Base address: 0x40010100 Count: 57 */
 382:.\Generated_Source\PSoC5/cyfitter_cfg.c **** 			0x40010253u, /* Base address: 0x40010200 Count: 83 */
 383:.\Generated_Source\PSoC5/cyfitter_cfg.c **** 			0x4001034Du, /* Base address: 0x40010300 Count: 77 */
 384:.\Generated_Source\PSoC5/cyfitter_cfg.c **** 			0x40010451u, /* Base address: 0x40010400 Count: 81 */
 385:.\Generated_Source\PSoC5/cyfitter_cfg.c **** 			0x4001054Cu, /* Base address: 0x40010500 Count: 76 */
 386:.\Generated_Source\PSoC5/cyfitter_cfg.c **** 			0x40010654u, /* Base address: 0x40010600 Count: 84 */
 387:.\Generated_Source\PSoC5/cyfitter_cfg.c **** 			0x4001074Cu, /* Base address: 0x40010700 Count: 76 */
 388:.\Generated_Source\PSoC5/cyfitter_cfg.c **** 			0x40010855u, /* Base address: 0x40010800 Count: 85 */
 389:.\Generated_Source\PSoC5/cyfitter_cfg.c **** 			0x40010943u, /* Base address: 0x40010900 Count: 67 */
 390:.\Generated_Source\PSoC5/cyfitter_cfg.c **** 			0x40010A69u, /* Base address: 0x40010A00 Count: 105 */
 391:.\Generated_Source\PSoC5/cyfitter_cfg.c **** 			0x40010B4Eu, /* Base address: 0x40010B00 Count: 78 */
 392:.\Generated_Source\PSoC5/cyfitter_cfg.c **** 			0x40010C26u, /* Base address: 0x40010C00 Count: 38 */
 393:.\Generated_Source\PSoC5/cyfitter_cfg.c **** 			0x40010D53u, /* Base address: 0x40010D00 Count: 83 */
 394:.\Generated_Source\PSoC5/cyfitter_cfg.c **** 			0x40010E53u, /* Base address: 0x40010E00 Count: 83 */
 395:.\Generated_Source\PSoC5/cyfitter_cfg.c **** 			0x40010F3Cu, /* Base address: 0x40010F00 Count: 60 */
 396:.\Generated_Source\PSoC5/cyfitter_cfg.c **** 			0x40011447u, /* Base address: 0x40011400 Count: 71 */
 397:.\Generated_Source\PSoC5/cyfitter_cfg.c **** 			0x40011542u, /* Base address: 0x40011500 Count: 66 */
 398:.\Generated_Source\PSoC5/cyfitter_cfg.c **** 			0x40011652u, /* Base address: 0x40011600 Count: 82 */
 399:.\Generated_Source\PSoC5/cyfitter_cfg.c **** 			0x4001174Bu, /* Base address: 0x40011700 Count: 75 */
 400:.\Generated_Source\PSoC5/cyfitter_cfg.c **** 			0x4001185Bu, /* Base address: 0x40011800 Count: 91 */
 401:.\Generated_Source\PSoC5/cyfitter_cfg.c **** 			0x4001194Cu, /* Base address: 0x40011900 Count: 76 */
 402:.\Generated_Source\PSoC5/cyfitter_cfg.c **** 			0x40011A5Au, /* Base address: 0x40011A00 Count: 90 */
 403:.\Generated_Source\PSoC5/cyfitter_cfg.c **** 			0x40011B41u, /* Base address: 0x40011B00 Count: 65 */
 404:.\Generated_Source\PSoC5/cyfitter_cfg.c **** 			0x40014014u, /* Base address: 0x40014000 Count: 20 */
 405:.\Generated_Source\PSoC5/cyfitter_cfg.c **** 			0x4001411Cu, /* Base address: 0x40014100 Count: 28 */
 406:.\Generated_Source\PSoC5/cyfitter_cfg.c **** 			0x4001421Cu, /* Base address: 0x40014200 Count: 28 */
 407:.\Generated_Source\PSoC5/cyfitter_cfg.c **** 			0x4001431Du, /* Base address: 0x40014300 Count: 29 */
 408:.\Generated_Source\PSoC5/cyfitter_cfg.c **** 			0x4001440Du, /* Base address: 0x40014400 Count: 13 */
 409:.\Generated_Source\PSoC5/cyfitter_cfg.c **** 			0x40014510u, /* Base address: 0x40014500 Count: 16 */
 410:.\Generated_Source\PSoC5/cyfitter_cfg.c **** 			0x4001460Cu, /* Base address: 0x40014600 Count: 12 */
 411:.\Generated_Source\PSoC5/cyfitter_cfg.c **** 			0x4001470Du, /* Base address: 0x40014700 Count: 13 */
 412:.\Generated_Source\PSoC5/cyfitter_cfg.c **** 			0x40014822u, /* Base address: 0x40014800 Count: 34 */
 413:.\Generated_Source\PSoC5/cyfitter_cfg.c **** 			0x40014929u, /* Base address: 0x40014900 Count: 41 */
 414:.\Generated_Source\PSoC5/cyfitter_cfg.c **** 			0x40014C19u, /* Base address: 0x40014C00 Count: 25 */
 415:.\Generated_Source\PSoC5/cyfitter_cfg.c **** 			0x40014D17u, /* Base address: 0x40014D00 Count: 23 */
 416:.\Generated_Source\PSoC5/cyfitter_cfg.c **** 			0x40015006u, /* Base address: 0x40015000 Count: 6 */
 417:.\Generated_Source\PSoC5/cyfitter_cfg.c **** 			0x40015101u, /* Base address: 0x40015100 Count: 1 */
 418:.\Generated_Source\PSoC5/cyfitter_cfg.c **** 		};
 419:.\Generated_Source\PSoC5/cyfitter_cfg.c **** 
 420:.\Generated_Source\PSoC5/cyfitter_cfg.c **** 		static const cy_cfg_addrvalue_t CYCODE cy_cfg_data_table[] = {
 421:.\Generated_Source\PSoC5/cyfitter_cfg.c **** 			{0x7Eu, 0x02u},
 422:.\Generated_Source\PSoC5/cyfitter_cfg.c **** 			{0x01u, 0x10u},
 423:.\Generated_Source\PSoC5/cyfitter_cfg.c **** 			{0x0Au, 0x4Bu},
 424:.\Generated_Source\PSoC5/cyfitter_cfg.c **** 			{0x0Du, 0x40u},
 425:.\Generated_Source\PSoC5/cyfitter_cfg.c **** 			{0x16u, 0x4Bu},
ARM GAS  C:\Users\xavieran\AppData\Local\Temp\ccykvWSD.s 			page 19


 426:.\Generated_Source\PSoC5/cyfitter_cfg.c **** 			{0x19u, 0x40u},
 427:.\Generated_Source\PSoC5/cyfitter_cfg.c **** 			{0x22u, 0x4Bu},
 428:.\Generated_Source\PSoC5/cyfitter_cfg.c **** 			{0x25u, 0x40u},
 429:.\Generated_Source\PSoC5/cyfitter_cfg.c **** 			{0x2Eu, 0x4Bu},
 430:.\Generated_Source\PSoC5/cyfitter_cfg.c **** 			{0x00u, 0x30u},
 431:.\Generated_Source\PSoC5/cyfitter_cfg.c **** 			{0x01u, 0x60u},
 432:.\Generated_Source\PSoC5/cyfitter_cfg.c **** 			{0x08u, 0x80u},
 433:.\Generated_Source\PSoC5/cyfitter_cfg.c **** 			{0x10u, 0x20u},
 434:.\Generated_Source\PSoC5/cyfitter_cfg.c **** 			{0x11u, 0x20u},
 435:.\Generated_Source\PSoC5/cyfitter_cfg.c **** 			{0x18u, 0xA0u},
 436:.\Generated_Source\PSoC5/cyfitter_cfg.c **** 			{0x19u, 0x88u},
 437:.\Generated_Source\PSoC5/cyfitter_cfg.c **** 			{0x20u, 0x03u},
 438:.\Generated_Source\PSoC5/cyfitter_cfg.c **** 			{0x21u, 0x02u},
 439:.\Generated_Source\PSoC5/cyfitter_cfg.c **** 			{0x28u, 0x80u},
 440:.\Generated_Source\PSoC5/cyfitter_cfg.c **** 			{0x29u, 0x02u},
 441:.\Generated_Source\PSoC5/cyfitter_cfg.c **** 			{0x30u, 0x10u},
 442:.\Generated_Source\PSoC5/cyfitter_cfg.c **** 			{0x60u, 0x2Cu},
 443:.\Generated_Source\PSoC5/cyfitter_cfg.c **** 			{0x61u, 0x64u},
 444:.\Generated_Source\PSoC5/cyfitter_cfg.c **** 			{0x79u, 0x18u},
 445:.\Generated_Source\PSoC5/cyfitter_cfg.c **** 			{0x7Cu, 0x40u},
 446:.\Generated_Source\PSoC5/cyfitter_cfg.c **** 			{0x2Du, 0x0Fu},
 447:.\Generated_Source\PSoC5/cyfitter_cfg.c **** 			{0x2Fu, 0x04u},
 448:.\Generated_Source\PSoC5/cyfitter_cfg.c **** 			{0x3Du, 0x08u},
 449:.\Generated_Source\PSoC5/cyfitter_cfg.c **** 			{0x82u, 0x0Du},
 450:.\Generated_Source\PSoC5/cyfitter_cfg.c **** 			{0x84u, 0x0Fu},
 451:.\Generated_Source\PSoC5/cyfitter_cfg.c **** 			{0x87u, 0x0Du},
 452:.\Generated_Source\PSoC5/cyfitter_cfg.c **** 			{0x89u, 0x0Du},
 453:.\Generated_Source\PSoC5/cyfitter_cfg.c **** 			{0x8Cu, 0x0Du},
 454:.\Generated_Source\PSoC5/cyfitter_cfg.c **** 			{0x84u, 0x0Fu},
 455:.\Generated_Source\PSoC5/cyfitter_cfg.c **** 			{0x85u, 0x0Du},
 456:.\Generated_Source\PSoC5/cyfitter_cfg.c **** 			{0x89u, 0x0Du},
 457:.\Generated_Source\PSoC5/cyfitter_cfg.c **** 			{0x8Bu, 0x0Fu},
 458:.\Generated_Source\PSoC5/cyfitter_cfg.c **** 			{0x00u, 0x5Du},
 459:.\Generated_Source\PSoC5/cyfitter_cfg.c **** 			{0x01u, 0x1Fu},
 460:.\Generated_Source\PSoC5/cyfitter_cfg.c **** 			{0x02u, 0xA2u},
 461:.\Generated_Source\PSoC5/cyfitter_cfg.c **** 			{0x06u, 0x08u},
 462:.\Generated_Source\PSoC5/cyfitter_cfg.c **** 			{0x07u, 0x0Bu},
 463:.\Generated_Source\PSoC5/cyfitter_cfg.c **** 			{0x08u, 0x92u},
 464:.\Generated_Source\PSoC5/cyfitter_cfg.c **** 			{0x09u, 0x01u},
 465:.\Generated_Source\PSoC5/cyfitter_cfg.c **** 			{0x0Au, 0x60u},
 466:.\Generated_Source\PSoC5/cyfitter_cfg.c **** 			{0x0Cu, 0xE2u},
 467:.\Generated_Source\PSoC5/cyfitter_cfg.c **** 			{0x0Fu, 0x14u},
 468:.\Generated_Source\PSoC5/cyfitter_cfg.c **** 			{0x10u, 0x0Du},
 469:.\Generated_Source\PSoC5/cyfitter_cfg.c **** 			{0x11u, 0x08u},
 470:.\Generated_Source\PSoC5/cyfitter_cfg.c **** 			{0x13u, 0x02u},
 471:.\Generated_Source\PSoC5/cyfitter_cfg.c **** 			{0x14u, 0x3Du},
 472:.\Generated_Source\PSoC5/cyfitter_cfg.c **** 			{0x16u, 0xC2u},
 473:.\Generated_Source\PSoC5/cyfitter_cfg.c **** 			{0x17u, 0x01u},
 474:.\Generated_Source\PSoC5/cyfitter_cfg.c **** 			{0x18u, 0x01u},
 475:.\Generated_Source\PSoC5/cyfitter_cfg.c **** 			{0x19u, 0x03u},
 476:.\Generated_Source\PSoC5/cyfitter_cfg.c **** 			{0x1Cu, 0x04u},
 477:.\Generated_Source\PSoC5/cyfitter_cfg.c **** 			{0x1Du, 0x0Fu},
 478:.\Generated_Source\PSoC5/cyfitter_cfg.c **** 			{0x1Eu, 0xE0u},
 479:.\Generated_Source\PSoC5/cyfitter_cfg.c **** 			{0x21u, 0x03u},
 480:.\Generated_Source\PSoC5/cyfitter_cfg.c **** 			{0x22u, 0x02u},
 481:.\Generated_Source\PSoC5/cyfitter_cfg.c **** 			{0x25u, 0x01u},
 482:.\Generated_Source\PSoC5/cyfitter_cfg.c **** 			{0x26u, 0xFFu},
ARM GAS  C:\Users\xavieran\AppData\Local\Temp\ccykvWSD.s 			page 20


 483:.\Generated_Source\PSoC5/cyfitter_cfg.c **** 			{0x28u, 0x01u},
 484:.\Generated_Source\PSoC5/cyfitter_cfg.c **** 			{0x29u, 0x10u},
 485:.\Generated_Source\PSoC5/cyfitter_cfg.c **** 			{0x2Bu, 0x0Bu},
 486:.\Generated_Source\PSoC5/cyfitter_cfg.c **** 			{0x2Cu, 0x40u},
 487:.\Generated_Source\PSoC5/cyfitter_cfg.c **** 			{0x2Du, 0x02u},
 488:.\Generated_Source\PSoC5/cyfitter_cfg.c **** 			{0x2Eu, 0x1Du},
 489:.\Generated_Source\PSoC5/cyfitter_cfg.c **** 			{0x2Fu, 0x09u},
 490:.\Generated_Source\PSoC5/cyfitter_cfg.c **** 			{0x34u, 0xFFu},
 491:.\Generated_Source\PSoC5/cyfitter_cfg.c **** 			{0x37u, 0x1Fu},
 492:.\Generated_Source\PSoC5/cyfitter_cfg.c **** 			{0x3Eu, 0x10u},
 493:.\Generated_Source\PSoC5/cyfitter_cfg.c **** 			{0x58u, 0x04u},
 494:.\Generated_Source\PSoC5/cyfitter_cfg.c **** 			{0x59u, 0x04u},
 495:.\Generated_Source\PSoC5/cyfitter_cfg.c **** 			{0x5Cu, 0x20u},
 496:.\Generated_Source\PSoC5/cyfitter_cfg.c **** 			{0x5Fu, 0x01u},
 497:.\Generated_Source\PSoC5/cyfitter_cfg.c **** 			{0x81u, 0x02u},
 498:.\Generated_Source\PSoC5/cyfitter_cfg.c **** 			{0x85u, 0x04u},
 499:.\Generated_Source\PSoC5/cyfitter_cfg.c **** 			{0x88u, 0x04u},
 500:.\Generated_Source\PSoC5/cyfitter_cfg.c **** 			{0x89u, 0x02u},
 501:.\Generated_Source\PSoC5/cyfitter_cfg.c **** 			{0x8Au, 0x01u},
 502:.\Generated_Source\PSoC5/cyfitter_cfg.c **** 			{0x8Cu, 0x01u},
 503:.\Generated_Source\PSoC5/cyfitter_cfg.c **** 			{0x8Eu, 0x08u},
 504:.\Generated_Source\PSoC5/cyfitter_cfg.c **** 			{0x90u, 0x01u},
 505:.\Generated_Source\PSoC5/cyfitter_cfg.c **** 			{0x92u, 0x0Eu},
 506:.\Generated_Source\PSoC5/cyfitter_cfg.c **** 			{0x93u, 0x01u},
 507:.\Generated_Source\PSoC5/cyfitter_cfg.c **** 			{0x94u, 0x05u},
 508:.\Generated_Source\PSoC5/cyfitter_cfg.c **** 			{0x9Cu, 0x05u},
 509:.\Generated_Source\PSoC5/cyfitter_cfg.c **** 			{0x9Du, 0x02u},
 510:.\Generated_Source\PSoC5/cyfitter_cfg.c **** 			{0xA0u, 0x04u},
 511:.\Generated_Source\PSoC5/cyfitter_cfg.c **** 			{0xA2u, 0x01u},
 512:.\Generated_Source\PSoC5/cyfitter_cfg.c **** 			{0xA4u, 0x01u},
 513:.\Generated_Source\PSoC5/cyfitter_cfg.c **** 			{0xA6u, 0x02u},
 514:.\Generated_Source\PSoC5/cyfitter_cfg.c **** 			{0xA9u, 0x02u},
 515:.\Generated_Source\PSoC5/cyfitter_cfg.c **** 			{0xACu, 0x05u},
 516:.\Generated_Source\PSoC5/cyfitter_cfg.c **** 			{0xADu, 0x02u},
 517:.\Generated_Source\PSoC5/cyfitter_cfg.c **** 			{0xB0u, 0x0Fu},
 518:.\Generated_Source\PSoC5/cyfitter_cfg.c **** 			{0xB5u, 0x07u},
 519:.\Generated_Source\PSoC5/cyfitter_cfg.c **** 			{0xB9u, 0x20u},
 520:.\Generated_Source\PSoC5/cyfitter_cfg.c **** 			{0xBAu, 0x02u},
 521:.\Generated_Source\PSoC5/cyfitter_cfg.c **** 			{0xBFu, 0x10u},
 522:.\Generated_Source\PSoC5/cyfitter_cfg.c **** 			{0xD8u, 0x04u},
 523:.\Generated_Source\PSoC5/cyfitter_cfg.c **** 			{0xD9u, 0x04u},
 524:.\Generated_Source\PSoC5/cyfitter_cfg.c **** 			{0xDCu, 0x02u},
 525:.\Generated_Source\PSoC5/cyfitter_cfg.c **** 			{0xDFu, 0x01u},
 526:.\Generated_Source\PSoC5/cyfitter_cfg.c **** 			{0x00u, 0x40u},
 527:.\Generated_Source\PSoC5/cyfitter_cfg.c **** 			{0x01u, 0x20u},
 528:.\Generated_Source\PSoC5/cyfitter_cfg.c **** 			{0x02u, 0x81u},
 529:.\Generated_Source\PSoC5/cyfitter_cfg.c **** 			{0x03u, 0x28u},
 530:.\Generated_Source\PSoC5/cyfitter_cfg.c **** 			{0x04u, 0x40u},
 531:.\Generated_Source\PSoC5/cyfitter_cfg.c **** 			{0x05u, 0x20u},
 532:.\Generated_Source\PSoC5/cyfitter_cfg.c **** 			{0x08u, 0x52u},
 533:.\Generated_Source\PSoC5/cyfitter_cfg.c **** 			{0x09u, 0x20u},
 534:.\Generated_Source\PSoC5/cyfitter_cfg.c **** 			{0x0Bu, 0x10u},
 535:.\Generated_Source\PSoC5/cyfitter_cfg.c **** 			{0x0Du, 0x40u},
 536:.\Generated_Source\PSoC5/cyfitter_cfg.c **** 			{0x0Eu, 0x40u},
 537:.\Generated_Source\PSoC5/cyfitter_cfg.c **** 			{0x0Fu, 0x10u},
 538:.\Generated_Source\PSoC5/cyfitter_cfg.c **** 			{0x10u, 0x02u},
 539:.\Generated_Source\PSoC5/cyfitter_cfg.c **** 			{0x11u, 0x14u},
ARM GAS  C:\Users\xavieran\AppData\Local\Temp\ccykvWSD.s 			page 21


 540:.\Generated_Source\PSoC5/cyfitter_cfg.c **** 			{0x13u, 0x22u},
 541:.\Generated_Source\PSoC5/cyfitter_cfg.c **** 			{0x14u, 0x41u},
 542:.\Generated_Source\PSoC5/cyfitter_cfg.c **** 			{0x17u, 0x04u},
 543:.\Generated_Source\PSoC5/cyfitter_cfg.c **** 			{0x18u, 0x04u},
 544:.\Generated_Source\PSoC5/cyfitter_cfg.c **** 			{0x1Eu, 0x40u},
 545:.\Generated_Source\PSoC5/cyfitter_cfg.c **** 			{0x21u, 0x40u},
 546:.\Generated_Source\PSoC5/cyfitter_cfg.c **** 			{0x22u, 0x80u},
 547:.\Generated_Source\PSoC5/cyfitter_cfg.c **** 			{0x26u, 0x10u},
 548:.\Generated_Source\PSoC5/cyfitter_cfg.c **** 			{0x27u, 0x04u},
 549:.\Generated_Source\PSoC5/cyfitter_cfg.c **** 			{0x28u, 0x10u},
 550:.\Generated_Source\PSoC5/cyfitter_cfg.c **** 			{0x29u, 0x01u},
 551:.\Generated_Source\PSoC5/cyfitter_cfg.c **** 			{0x2Bu, 0x05u},
 552:.\Generated_Source\PSoC5/cyfitter_cfg.c **** 			{0x2Cu, 0x03u},
 553:.\Generated_Source\PSoC5/cyfitter_cfg.c **** 			{0x2Fu, 0x0Eu},
 554:.\Generated_Source\PSoC5/cyfitter_cfg.c **** 			{0x30u, 0x80u},
 555:.\Generated_Source\PSoC5/cyfitter_cfg.c **** 			{0x32u, 0x04u},
 556:.\Generated_Source\PSoC5/cyfitter_cfg.c **** 			{0x33u, 0x22u},
 557:.\Generated_Source\PSoC5/cyfitter_cfg.c **** 			{0x34u, 0x02u},
 558:.\Generated_Source\PSoC5/cyfitter_cfg.c **** 			{0x35u, 0x01u},
 559:.\Generated_Source\PSoC5/cyfitter_cfg.c **** 			{0x36u, 0x82u},
 560:.\Generated_Source\PSoC5/cyfitter_cfg.c **** 			{0x39u, 0x90u},
 561:.\Generated_Source\PSoC5/cyfitter_cfg.c **** 			{0x3Au, 0x01u},
 562:.\Generated_Source\PSoC5/cyfitter_cfg.c **** 			{0x3Bu, 0x08u},
 563:.\Generated_Source\PSoC5/cyfitter_cfg.c **** 			{0x3Cu, 0x08u},
 564:.\Generated_Source\PSoC5/cyfitter_cfg.c **** 			{0x3Du, 0x06u},
 565:.\Generated_Source\PSoC5/cyfitter_cfg.c **** 			{0x3Fu, 0x1Au},
 566:.\Generated_Source\PSoC5/cyfitter_cfg.c **** 			{0x42u, 0x40u},
 567:.\Generated_Source\PSoC5/cyfitter_cfg.c **** 			{0x43u, 0x01u},
 568:.\Generated_Source\PSoC5/cyfitter_cfg.c **** 			{0x80u, 0x40u},
 569:.\Generated_Source\PSoC5/cyfitter_cfg.c **** 			{0x81u, 0x20u},
 570:.\Generated_Source\PSoC5/cyfitter_cfg.c **** 			{0x84u, 0xC0u},
 571:.\Generated_Source\PSoC5/cyfitter_cfg.c **** 			{0x87u, 0x11u},
 572:.\Generated_Source\PSoC5/cyfitter_cfg.c **** 			{0x8Fu, 0x20u},
 573:.\Generated_Source\PSoC5/cyfitter_cfg.c **** 			{0xC0u, 0xCFu},
 574:.\Generated_Source\PSoC5/cyfitter_cfg.c **** 			{0xC2u, 0xBFu},
 575:.\Generated_Source\PSoC5/cyfitter_cfg.c **** 			{0xC4u, 0xBFu},
 576:.\Generated_Source\PSoC5/cyfitter_cfg.c **** 			{0xCAu, 0x3Fu},
 577:.\Generated_Source\PSoC5/cyfitter_cfg.c **** 			{0xCCu, 0x9Fu},
 578:.\Generated_Source\PSoC5/cyfitter_cfg.c **** 			{0xCEu, 0xEFu},
 579:.\Generated_Source\PSoC5/cyfitter_cfg.c **** 			{0xE0u, 0x06u},
 580:.\Generated_Source\PSoC5/cyfitter_cfg.c **** 			{0xE2u, 0x09u},
 581:.\Generated_Source\PSoC5/cyfitter_cfg.c **** 			{0xE4u, 0x04u},
 582:.\Generated_Source\PSoC5/cyfitter_cfg.c **** 			{0xE6u, 0x08u},
 583:.\Generated_Source\PSoC5/cyfitter_cfg.c **** 			{0x0Bu, 0x01u},
 584:.\Generated_Source\PSoC5/cyfitter_cfg.c **** 			{0x13u, 0x01u},
 585:.\Generated_Source\PSoC5/cyfitter_cfg.c **** 			{0x35u, 0x01u},
 586:.\Generated_Source\PSoC5/cyfitter_cfg.c **** 			{0x40u, 0x20u},
 587:.\Generated_Source\PSoC5/cyfitter_cfg.c **** 			{0x41u, 0x04u},
 588:.\Generated_Source\PSoC5/cyfitter_cfg.c **** 			{0x49u, 0xFFu},
 589:.\Generated_Source\PSoC5/cyfitter_cfg.c **** 			{0x4Au, 0xFFu},
 590:.\Generated_Source\PSoC5/cyfitter_cfg.c **** 			{0x4Bu, 0xFFu},
 591:.\Generated_Source\PSoC5/cyfitter_cfg.c **** 			{0x4Du, 0xA0u},
 592:.\Generated_Source\PSoC5/cyfitter_cfg.c **** 			{0x4Fu, 0x04u},
 593:.\Generated_Source\PSoC5/cyfitter_cfg.c **** 			{0x50u, 0x18u},
 594:.\Generated_Source\PSoC5/cyfitter_cfg.c **** 			{0x54u, 0x01u},
 595:.\Generated_Source\PSoC5/cyfitter_cfg.c **** 			{0x59u, 0x04u},
 596:.\Generated_Source\PSoC5/cyfitter_cfg.c **** 			{0x5Au, 0x04u},
ARM GAS  C:\Users\xavieran\AppData\Local\Temp\ccykvWSD.s 			page 22


 597:.\Generated_Source\PSoC5/cyfitter_cfg.c **** 			{0x5Bu, 0x08u},
 598:.\Generated_Source\PSoC5/cyfitter_cfg.c **** 			{0x5Cu, 0x40u},
 599:.\Generated_Source\PSoC5/cyfitter_cfg.c **** 			{0x5Du, 0x94u},
 600:.\Generated_Source\PSoC5/cyfitter_cfg.c **** 			{0x5Fu, 0x01u},
 601:.\Generated_Source\PSoC5/cyfitter_cfg.c **** 			{0x60u, 0x40u},
 602:.\Generated_Source\PSoC5/cyfitter_cfg.c **** 			{0x62u, 0xC0u},
 603:.\Generated_Source\PSoC5/cyfitter_cfg.c **** 			{0x64u, 0x40u},
 604:.\Generated_Source\PSoC5/cyfitter_cfg.c **** 			{0x65u, 0x40u},
 605:.\Generated_Source\PSoC5/cyfitter_cfg.c **** 			{0x66u, 0xC0u},
 606:.\Generated_Source\PSoC5/cyfitter_cfg.c **** 			{0x68u, 0xC0u},
 607:.\Generated_Source\PSoC5/cyfitter_cfg.c **** 			{0x6Au, 0xC0u},
 608:.\Generated_Source\PSoC5/cyfitter_cfg.c **** 			{0x6Cu, 0xC0u},
 609:.\Generated_Source\PSoC5/cyfitter_cfg.c **** 			{0x6Eu, 0xC0u},
 610:.\Generated_Source\PSoC5/cyfitter_cfg.c **** 			{0x88u, 0x0Cu},
 611:.\Generated_Source\PSoC5/cyfitter_cfg.c **** 			{0x8Au, 0x02u},
 612:.\Generated_Source\PSoC5/cyfitter_cfg.c **** 			{0x8Cu, 0x06u},
 613:.\Generated_Source\PSoC5/cyfitter_cfg.c **** 			{0x8Du, 0x03u},
 614:.\Generated_Source\PSoC5/cyfitter_cfg.c **** 			{0x8Eu, 0x08u},
 615:.\Generated_Source\PSoC5/cyfitter_cfg.c **** 			{0x90u, 0x04u},
 616:.\Generated_Source\PSoC5/cyfitter_cfg.c **** 			{0x92u, 0x0Au},
 617:.\Generated_Source\PSoC5/cyfitter_cfg.c **** 			{0x93u, 0x01u},
 618:.\Generated_Source\PSoC5/cyfitter_cfg.c **** 			{0x94u, 0x0Eu},
 619:.\Generated_Source\PSoC5/cyfitter_cfg.c **** 			{0x95u, 0x03u},
 620:.\Generated_Source\PSoC5/cyfitter_cfg.c **** 			{0x99u, 0x02u},
 621:.\Generated_Source\PSoC5/cyfitter_cfg.c **** 			{0x9Cu, 0x02u},
 622:.\Generated_Source\PSoC5/cyfitter_cfg.c **** 			{0x9Du, 0x02u},
 623:.\Generated_Source\PSoC5/cyfitter_cfg.c **** 			{0x9Eu, 0x1Cu},
 624:.\Generated_Source\PSoC5/cyfitter_cfg.c **** 			{0xA0u, 0x0Eu},
 625:.\Generated_Source\PSoC5/cyfitter_cfg.c **** 			{0xA4u, 0x01u},
 626:.\Generated_Source\PSoC5/cyfitter_cfg.c **** 			{0xABu, 0x02u},
 627:.\Generated_Source\PSoC5/cyfitter_cfg.c **** 			{0xACu, 0x02u},
 628:.\Generated_Source\PSoC5/cyfitter_cfg.c **** 			{0xAEu, 0x10u},
 629:.\Generated_Source\PSoC5/cyfitter_cfg.c **** 			{0xAFu, 0x02u},
 630:.\Generated_Source\PSoC5/cyfitter_cfg.c **** 			{0xB0u, 0x01u},
 631:.\Generated_Source\PSoC5/cyfitter_cfg.c **** 			{0xB1u, 0x03u},
 632:.\Generated_Source\PSoC5/cyfitter_cfg.c **** 			{0xB6u, 0x1Eu},
 633:.\Generated_Source\PSoC5/cyfitter_cfg.c **** 			{0xBAu, 0x80u},
 634:.\Generated_Source\PSoC5/cyfitter_cfg.c **** 			{0xC0u, 0x60u},
 635:.\Generated_Source\PSoC5/cyfitter_cfg.c **** 			{0xC1u, 0x01u},
 636:.\Generated_Source\PSoC5/cyfitter_cfg.c **** 			{0xC5u, 0xD0u},
 637:.\Generated_Source\PSoC5/cyfitter_cfg.c **** 			{0xC6u, 0x02u},
 638:.\Generated_Source\PSoC5/cyfitter_cfg.c **** 			{0xC7u, 0x10u},
 639:.\Generated_Source\PSoC5/cyfitter_cfg.c **** 			{0xC8u, 0x26u},
 640:.\Generated_Source\PSoC5/cyfitter_cfg.c **** 			{0xC9u, 0xFFu},
 641:.\Generated_Source\PSoC5/cyfitter_cfg.c **** 			{0xCAu, 0xFFu},
 642:.\Generated_Source\PSoC5/cyfitter_cfg.c **** 			{0xCBu, 0xFFu},
 643:.\Generated_Source\PSoC5/cyfitter_cfg.c **** 			{0xCDu, 0xAFu},
 644:.\Generated_Source\PSoC5/cyfitter_cfg.c **** 			{0xCEu, 0x0Fu},
 645:.\Generated_Source\PSoC5/cyfitter_cfg.c **** 			{0xCFu, 0x04u},
 646:.\Generated_Source\PSoC5/cyfitter_cfg.c **** 			{0xD0u, 0x18u},
 647:.\Generated_Source\PSoC5/cyfitter_cfg.c **** 			{0xD2u, 0xF6u},
 648:.\Generated_Source\PSoC5/cyfitter_cfg.c **** 			{0xD4u, 0x20u},
 649:.\Generated_Source\PSoC5/cyfitter_cfg.c **** 			{0xD6u, 0x04u},
 650:.\Generated_Source\PSoC5/cyfitter_cfg.c **** 			{0xD8u, 0x04u},
 651:.\Generated_Source\PSoC5/cyfitter_cfg.c **** 			{0xD9u, 0x04u},
 652:.\Generated_Source\PSoC5/cyfitter_cfg.c **** 			{0xDAu, 0x04u},
 653:.\Generated_Source\PSoC5/cyfitter_cfg.c **** 			{0xDBu, 0x04u},
ARM GAS  C:\Users\xavieran\AppData\Local\Temp\ccykvWSD.s 			page 23


 654:.\Generated_Source\PSoC5/cyfitter_cfg.c **** 			{0xDCu, 0x22u},
 655:.\Generated_Source\PSoC5/cyfitter_cfg.c **** 			{0xDDu, 0x24u},
 656:.\Generated_Source\PSoC5/cyfitter_cfg.c **** 			{0xDFu, 0x01u},
 657:.\Generated_Source\PSoC5/cyfitter_cfg.c **** 			{0xE0u, 0x40u},
 658:.\Generated_Source\PSoC5/cyfitter_cfg.c **** 			{0xE2u, 0xC0u},
 659:.\Generated_Source\PSoC5/cyfitter_cfg.c **** 			{0xE4u, 0x40u},
 660:.\Generated_Source\PSoC5/cyfitter_cfg.c **** 			{0xE5u, 0x40u},
 661:.\Generated_Source\PSoC5/cyfitter_cfg.c **** 			{0xE6u, 0xC0u},
 662:.\Generated_Source\PSoC5/cyfitter_cfg.c **** 			{0xE8u, 0xC0u},
 663:.\Generated_Source\PSoC5/cyfitter_cfg.c **** 			{0xEAu, 0xC0u},
 664:.\Generated_Source\PSoC5/cyfitter_cfg.c **** 			{0xECu, 0xC0u},
 665:.\Generated_Source\PSoC5/cyfitter_cfg.c **** 			{0xEEu, 0xC0u},
 666:.\Generated_Source\PSoC5/cyfitter_cfg.c **** 			{0x03u, 0x0Au},
 667:.\Generated_Source\PSoC5/cyfitter_cfg.c **** 			{0x09u, 0x09u},
 668:.\Generated_Source\PSoC5/cyfitter_cfg.c **** 			{0x0Au, 0x02u},
 669:.\Generated_Source\PSoC5/cyfitter_cfg.c **** 			{0x10u, 0x80u},
 670:.\Generated_Source\PSoC5/cyfitter_cfg.c **** 			{0x12u, 0x01u},
 671:.\Generated_Source\PSoC5/cyfitter_cfg.c **** 			{0x13u, 0x08u},
 672:.\Generated_Source\PSoC5/cyfitter_cfg.c **** 			{0x18u, 0x40u},
 673:.\Generated_Source\PSoC5/cyfitter_cfg.c **** 			{0x19u, 0x40u},
 674:.\Generated_Source\PSoC5/cyfitter_cfg.c **** 			{0x1Au, 0x02u},
 675:.\Generated_Source\PSoC5/cyfitter_cfg.c **** 			{0x21u, 0x02u},
 676:.\Generated_Source\PSoC5/cyfitter_cfg.c **** 			{0x23u, 0x80u},
 677:.\Generated_Source\PSoC5/cyfitter_cfg.c **** 			{0x24u, 0x08u},
 678:.\Generated_Source\PSoC5/cyfitter_cfg.c **** 			{0x2Bu, 0x0Au},
 679:.\Generated_Source\PSoC5/cyfitter_cfg.c **** 			{0x30u, 0xA0u},
 680:.\Generated_Source\PSoC5/cyfitter_cfg.c **** 			{0x31u, 0x02u},
 681:.\Generated_Source\PSoC5/cyfitter_cfg.c **** 			{0x33u, 0x24u},
 682:.\Generated_Source\PSoC5/cyfitter_cfg.c **** 			{0x36u, 0x02u},
 683:.\Generated_Source\PSoC5/cyfitter_cfg.c **** 			{0x38u, 0x40u},
 684:.\Generated_Source\PSoC5/cyfitter_cfg.c **** 			{0x3Fu, 0x10u},
 685:.\Generated_Source\PSoC5/cyfitter_cfg.c **** 			{0x43u, 0x80u},
 686:.\Generated_Source\PSoC5/cyfitter_cfg.c **** 			{0x44u, 0x04u},
 687:.\Generated_Source\PSoC5/cyfitter_cfg.c **** 			{0x46u, 0x40u},
 688:.\Generated_Source\PSoC5/cyfitter_cfg.c **** 			{0x49u, 0x02u},
 689:.\Generated_Source\PSoC5/cyfitter_cfg.c **** 			{0x4Bu, 0x10u},
 690:.\Generated_Source\PSoC5/cyfitter_cfg.c **** 			{0x52u, 0x42u},
 691:.\Generated_Source\PSoC5/cyfitter_cfg.c **** 			{0x53u, 0x80u},
 692:.\Generated_Source\PSoC5/cyfitter_cfg.c **** 			{0x59u, 0x18u},
 693:.\Generated_Source\PSoC5/cyfitter_cfg.c **** 			{0x5Bu, 0x81u},
 694:.\Generated_Source\PSoC5/cyfitter_cfg.c **** 			{0x5Du, 0x04u},
 695:.\Generated_Source\PSoC5/cyfitter_cfg.c **** 			{0x5Eu, 0x80u},
 696:.\Generated_Source\PSoC5/cyfitter_cfg.c **** 			{0x5Fu, 0x01u},
 697:.\Generated_Source\PSoC5/cyfitter_cfg.c **** 			{0x61u, 0x01u},
 698:.\Generated_Source\PSoC5/cyfitter_cfg.c **** 			{0x62u, 0x80u},
 699:.\Generated_Source\PSoC5/cyfitter_cfg.c **** 			{0x63u, 0x08u},
 700:.\Generated_Source\PSoC5/cyfitter_cfg.c **** 			{0x68u, 0x10u},
 701:.\Generated_Source\PSoC5/cyfitter_cfg.c **** 			{0x6Au, 0x08u},
 702:.\Generated_Source\PSoC5/cyfitter_cfg.c **** 			{0x6Bu, 0x08u},
 703:.\Generated_Source\PSoC5/cyfitter_cfg.c **** 			{0x71u, 0x20u},
 704:.\Generated_Source\PSoC5/cyfitter_cfg.c **** 			{0x72u, 0x40u},
 705:.\Generated_Source\PSoC5/cyfitter_cfg.c **** 			{0x73u, 0x22u},
 706:.\Generated_Source\PSoC5/cyfitter_cfg.c **** 			{0x7Fu, 0x01u},
 707:.\Generated_Source\PSoC5/cyfitter_cfg.c **** 			{0x80u, 0x04u},
 708:.\Generated_Source\PSoC5/cyfitter_cfg.c **** 			{0x8Cu, 0x20u},
 709:.\Generated_Source\PSoC5/cyfitter_cfg.c **** 			{0x8Du, 0x58u},
 710:.\Generated_Source\PSoC5/cyfitter_cfg.c **** 			{0x8Eu, 0x40u},
ARM GAS  C:\Users\xavieran\AppData\Local\Temp\ccykvWSD.s 			page 24


 711:.\Generated_Source\PSoC5/cyfitter_cfg.c **** 			{0x90u, 0x04u},
 712:.\Generated_Source\PSoC5/cyfitter_cfg.c **** 			{0x91u, 0x81u},
 713:.\Generated_Source\PSoC5/cyfitter_cfg.c **** 			{0x94u, 0x40u},
 714:.\Generated_Source\PSoC5/cyfitter_cfg.c **** 			{0x96u, 0x08u},
 715:.\Generated_Source\PSoC5/cyfitter_cfg.c **** 			{0x98u, 0x40u},
 716:.\Generated_Source\PSoC5/cyfitter_cfg.c **** 			{0x9Au, 0x01u},
 717:.\Generated_Source\PSoC5/cyfitter_cfg.c **** 			{0x9Bu, 0x05u},
 718:.\Generated_Source\PSoC5/cyfitter_cfg.c **** 			{0x9Fu, 0x22u},
 719:.\Generated_Source\PSoC5/cyfitter_cfg.c **** 			{0xA0u, 0x80u},
 720:.\Generated_Source\PSoC5/cyfitter_cfg.c **** 			{0xA1u, 0x01u},
 721:.\Generated_Source\PSoC5/cyfitter_cfg.c **** 			{0xA4u, 0x04u},
 722:.\Generated_Source\PSoC5/cyfitter_cfg.c **** 			{0xA5u, 0x20u},
 723:.\Generated_Source\PSoC5/cyfitter_cfg.c **** 			{0xA7u, 0x0Au},
 724:.\Generated_Source\PSoC5/cyfitter_cfg.c **** 			{0xAEu, 0x10u},
 725:.\Generated_Source\PSoC5/cyfitter_cfg.c **** 			{0xB1u, 0x01u},
 726:.\Generated_Source\PSoC5/cyfitter_cfg.c **** 			{0xB2u, 0x02u},
 727:.\Generated_Source\PSoC5/cyfitter_cfg.c **** 			{0xB3u, 0x20u},
 728:.\Generated_Source\PSoC5/cyfitter_cfg.c **** 			{0xB7u, 0x02u},
 729:.\Generated_Source\PSoC5/cyfitter_cfg.c **** 			{0xC0u, 0x03u},
 730:.\Generated_Source\PSoC5/cyfitter_cfg.c **** 			{0xC2u, 0x0Du},
 731:.\Generated_Source\PSoC5/cyfitter_cfg.c **** 			{0xC4u, 0x0Du},
 732:.\Generated_Source\PSoC5/cyfitter_cfg.c **** 			{0xCAu, 0x0Cu},
 733:.\Generated_Source\PSoC5/cyfitter_cfg.c **** 			{0xCCu, 0x8Fu},
 734:.\Generated_Source\PSoC5/cyfitter_cfg.c **** 			{0xCEu, 0x28u},
 735:.\Generated_Source\PSoC5/cyfitter_cfg.c **** 			{0xD0u, 0xA8u},
 736:.\Generated_Source\PSoC5/cyfitter_cfg.c **** 			{0xD2u, 0x04u},
 737:.\Generated_Source\PSoC5/cyfitter_cfg.c **** 			{0xD6u, 0xDFu},
 738:.\Generated_Source\PSoC5/cyfitter_cfg.c **** 			{0xD8u, 0x0Du},
 739:.\Generated_Source\PSoC5/cyfitter_cfg.c **** 			{0xDEu, 0x10u},
 740:.\Generated_Source\PSoC5/cyfitter_cfg.c **** 			{0xE2u, 0x02u},
 741:.\Generated_Source\PSoC5/cyfitter_cfg.c **** 			{0xE8u, 0x01u},
 742:.\Generated_Source\PSoC5/cyfitter_cfg.c **** 			{0xECu, 0x0Bu},
 743:.\Generated_Source\PSoC5/cyfitter_cfg.c **** 			{0x08u, 0x08u},
 744:.\Generated_Source\PSoC5/cyfitter_cfg.c **** 			{0x0Cu, 0x08u},
 745:.\Generated_Source\PSoC5/cyfitter_cfg.c **** 			{0x0Du, 0x01u},
 746:.\Generated_Source\PSoC5/cyfitter_cfg.c **** 			{0x12u, 0x04u},
 747:.\Generated_Source\PSoC5/cyfitter_cfg.c **** 			{0x15u, 0x02u},
 748:.\Generated_Source\PSoC5/cyfitter_cfg.c **** 			{0x16u, 0x02u},
 749:.\Generated_Source\PSoC5/cyfitter_cfg.c **** 			{0x1Bu, 0x01u},
 750:.\Generated_Source\PSoC5/cyfitter_cfg.c **** 			{0x1Du, 0x04u},
 751:.\Generated_Source\PSoC5/cyfitter_cfg.c **** 			{0x21u, 0x04u},
 752:.\Generated_Source\PSoC5/cyfitter_cfg.c **** 			{0x22u, 0x02u},
 753:.\Generated_Source\PSoC5/cyfitter_cfg.c **** 			{0x25u, 0x04u},
 754:.\Generated_Source\PSoC5/cyfitter_cfg.c **** 			{0x26u, 0x01u},
 755:.\Generated_Source\PSoC5/cyfitter_cfg.c **** 			{0x29u, 0x04u},
 756:.\Generated_Source\PSoC5/cyfitter_cfg.c **** 			{0x2Du, 0x04u},
 757:.\Generated_Source\PSoC5/cyfitter_cfg.c **** 			{0x30u, 0x01u},
 758:.\Generated_Source\PSoC5/cyfitter_cfg.c **** 			{0x31u, 0x02u},
 759:.\Generated_Source\PSoC5/cyfitter_cfg.c **** 			{0x32u, 0x02u},
 760:.\Generated_Source\PSoC5/cyfitter_cfg.c **** 			{0x34u, 0x04u},
 761:.\Generated_Source\PSoC5/cyfitter_cfg.c **** 			{0x35u, 0x01u},
 762:.\Generated_Source\PSoC5/cyfitter_cfg.c **** 			{0x36u, 0x08u},
 763:.\Generated_Source\PSoC5/cyfitter_cfg.c **** 			{0x37u, 0x04u},
 764:.\Generated_Source\PSoC5/cyfitter_cfg.c **** 			{0x39u, 0x80u},
 765:.\Generated_Source\PSoC5/cyfitter_cfg.c **** 			{0x3Eu, 0x04u},
 766:.\Generated_Source\PSoC5/cyfitter_cfg.c **** 			{0x3Fu, 0x40u},
 767:.\Generated_Source\PSoC5/cyfitter_cfg.c **** 			{0x40u, 0x61u},
ARM GAS  C:\Users\xavieran\AppData\Local\Temp\ccykvWSD.s 			page 25


 768:.\Generated_Source\PSoC5/cyfitter_cfg.c **** 			{0x49u, 0xFFu},
 769:.\Generated_Source\PSoC5/cyfitter_cfg.c **** 			{0x4Au, 0xFFu},
 770:.\Generated_Source\PSoC5/cyfitter_cfg.c **** 			{0x4Bu, 0xFFu},
 771:.\Generated_Source\PSoC5/cyfitter_cfg.c **** 			{0x4Fu, 0x01u},
 772:.\Generated_Source\PSoC5/cyfitter_cfg.c **** 			{0x50u, 0x18u},
 773:.\Generated_Source\PSoC5/cyfitter_cfg.c **** 			{0x52u, 0x80u},
 774:.\Generated_Source\PSoC5/cyfitter_cfg.c **** 			{0x54u, 0x07u},
 775:.\Generated_Source\PSoC5/cyfitter_cfg.c **** 			{0x58u, 0x04u},
 776:.\Generated_Source\PSoC5/cyfitter_cfg.c **** 			{0x59u, 0x04u},
 777:.\Generated_Source\PSoC5/cyfitter_cfg.c **** 			{0x5Au, 0x0Bu},
 778:.\Generated_Source\PSoC5/cyfitter_cfg.c **** 			{0x5Bu, 0x04u},
 779:.\Generated_Source\PSoC5/cyfitter_cfg.c **** 			{0x5Cu, 0x33u},
 780:.\Generated_Source\PSoC5/cyfitter_cfg.c **** 			{0x5Du, 0x39u},
 781:.\Generated_Source\PSoC5/cyfitter_cfg.c **** 			{0x5Fu, 0x01u},
 782:.\Generated_Source\PSoC5/cyfitter_cfg.c **** 			{0x60u, 0x40u},
 783:.\Generated_Source\PSoC5/cyfitter_cfg.c **** 			{0x62u, 0x40u},
 784:.\Generated_Source\PSoC5/cyfitter_cfg.c **** 			{0x64u, 0x40u},
 785:.\Generated_Source\PSoC5/cyfitter_cfg.c **** 			{0x65u, 0x40u},
 786:.\Generated_Source\PSoC5/cyfitter_cfg.c **** 			{0x66u, 0x80u},
 787:.\Generated_Source\PSoC5/cyfitter_cfg.c **** 			{0x68u, 0x80u},
 788:.\Generated_Source\PSoC5/cyfitter_cfg.c **** 			{0x6Au, 0x80u},
 789:.\Generated_Source\PSoC5/cyfitter_cfg.c **** 			{0x6Cu, 0x80u},
 790:.\Generated_Source\PSoC5/cyfitter_cfg.c **** 			{0x6Eu, 0x80u},
 791:.\Generated_Source\PSoC5/cyfitter_cfg.c **** 			{0x8Fu, 0x01u},
 792:.\Generated_Source\PSoC5/cyfitter_cfg.c **** 			{0x9Bu, 0x01u},
 793:.\Generated_Source\PSoC5/cyfitter_cfg.c **** 			{0xB7u, 0x01u},
 794:.\Generated_Source\PSoC5/cyfitter_cfg.c **** 			{0xB8u, 0x80u},
 795:.\Generated_Source\PSoC5/cyfitter_cfg.c **** 			{0xBEu, 0x40u},
 796:.\Generated_Source\PSoC5/cyfitter_cfg.c **** 			{0xBFu, 0x40u},
 797:.\Generated_Source\PSoC5/cyfitter_cfg.c **** 			{0xC0u, 0x31u},
 798:.\Generated_Source\PSoC5/cyfitter_cfg.c **** 			{0xC5u, 0xECu},
 799:.\Generated_Source\PSoC5/cyfitter_cfg.c **** 			{0xC6u, 0x02u},
 800:.\Generated_Source\PSoC5/cyfitter_cfg.c **** 			{0xC8u, 0x07u},
 801:.\Generated_Source\PSoC5/cyfitter_cfg.c **** 			{0xC9u, 0xFFu},
 802:.\Generated_Source\PSoC5/cyfitter_cfg.c **** 			{0xCAu, 0xFFu},
 803:.\Generated_Source\PSoC5/cyfitter_cfg.c **** 			{0xCBu, 0xFFu},
 804:.\Generated_Source\PSoC5/cyfitter_cfg.c **** 			{0xCDu, 0x83u},
 805:.\Generated_Source\PSoC5/cyfitter_cfg.c **** 			{0xCEu, 0x03u},
 806:.\Generated_Source\PSoC5/cyfitter_cfg.c **** 			{0xCFu, 0x01u},
 807:.\Generated_Source\PSoC5/cyfitter_cfg.c **** 			{0xD0u, 0x18u},
 808:.\Generated_Source\PSoC5/cyfitter_cfg.c **** 			{0xD6u, 0x08u},
 809:.\Generated_Source\PSoC5/cyfitter_cfg.c **** 			{0xD8u, 0x04u},
 810:.\Generated_Source\PSoC5/cyfitter_cfg.c **** 			{0xD9u, 0x04u},
 811:.\Generated_Source\PSoC5/cyfitter_cfg.c **** 			{0xDAu, 0x08u},
 812:.\Generated_Source\PSoC5/cyfitter_cfg.c **** 			{0xDBu, 0x04u},
 813:.\Generated_Source\PSoC5/cyfitter_cfg.c **** 			{0xDDu, 0x99u},
 814:.\Generated_Source\PSoC5/cyfitter_cfg.c **** 			{0xDFu, 0x01u},
 815:.\Generated_Source\PSoC5/cyfitter_cfg.c **** 			{0xE0u, 0x40u},
 816:.\Generated_Source\PSoC5/cyfitter_cfg.c **** 			{0xE2u, 0x40u},
 817:.\Generated_Source\PSoC5/cyfitter_cfg.c **** 			{0xE4u, 0x40u},
 818:.\Generated_Source\PSoC5/cyfitter_cfg.c **** 			{0xE5u, 0x40u},
 819:.\Generated_Source\PSoC5/cyfitter_cfg.c **** 			{0xE6u, 0x80u},
 820:.\Generated_Source\PSoC5/cyfitter_cfg.c **** 			{0xE8u, 0x80u},
 821:.\Generated_Source\PSoC5/cyfitter_cfg.c **** 			{0xEAu, 0x80u},
 822:.\Generated_Source\PSoC5/cyfitter_cfg.c **** 			{0xECu, 0x80u},
 823:.\Generated_Source\PSoC5/cyfitter_cfg.c **** 			{0xEEu, 0x80u},
 824:.\Generated_Source\PSoC5/cyfitter_cfg.c **** 			{0x00u, 0xA0u},
ARM GAS  C:\Users\xavieran\AppData\Local\Temp\ccykvWSD.s 			page 26


 825:.\Generated_Source\PSoC5/cyfitter_cfg.c **** 			{0x03u, 0x04u},
 826:.\Generated_Source\PSoC5/cyfitter_cfg.c **** 			{0x08u, 0x04u},
 827:.\Generated_Source\PSoC5/cyfitter_cfg.c **** 			{0x09u, 0x02u},
 828:.\Generated_Source\PSoC5/cyfitter_cfg.c **** 			{0x10u, 0x20u},
 829:.\Generated_Source\PSoC5/cyfitter_cfg.c **** 			{0x12u, 0x40u},
 830:.\Generated_Source\PSoC5/cyfitter_cfg.c **** 			{0x18u, 0x40u},
 831:.\Generated_Source\PSoC5/cyfitter_cfg.c **** 			{0x19u, 0x48u},
 832:.\Generated_Source\PSoC5/cyfitter_cfg.c **** 			{0x1Au, 0x08u},
 833:.\Generated_Source\PSoC5/cyfitter_cfg.c **** 			{0x1Fu, 0x40u},
 834:.\Generated_Source\PSoC5/cyfitter_cfg.c **** 			{0x20u, 0x80u},
 835:.\Generated_Source\PSoC5/cyfitter_cfg.c **** 			{0x22u, 0x90u},
 836:.\Generated_Source\PSoC5/cyfitter_cfg.c **** 			{0x26u, 0x40u},
 837:.\Generated_Source\PSoC5/cyfitter_cfg.c **** 			{0x28u, 0x40u},
 838:.\Generated_Source\PSoC5/cyfitter_cfg.c **** 			{0x2Bu, 0x2Au},
 839:.\Generated_Source\PSoC5/cyfitter_cfg.c **** 			{0x30u, 0xA0u},
 840:.\Generated_Source\PSoC5/cyfitter_cfg.c **** 			{0x33u, 0x04u},
 841:.\Generated_Source\PSoC5/cyfitter_cfg.c **** 			{0x35u, 0x10u},
 842:.\Generated_Source\PSoC5/cyfitter_cfg.c **** 			{0x38u, 0x40u},
 843:.\Generated_Source\PSoC5/cyfitter_cfg.c **** 			{0x3Du, 0x80u},
 844:.\Generated_Source\PSoC5/cyfitter_cfg.c **** 			{0x41u, 0x80u},
 845:.\Generated_Source\PSoC5/cyfitter_cfg.c **** 			{0x45u, 0x80u},
 846:.\Generated_Source\PSoC5/cyfitter_cfg.c **** 			{0x46u, 0x20u},
 847:.\Generated_Source\PSoC5/cyfitter_cfg.c **** 			{0x49u, 0x10u},
 848:.\Generated_Source\PSoC5/cyfitter_cfg.c **** 			{0x4Du, 0x04u},
 849:.\Generated_Source\PSoC5/cyfitter_cfg.c **** 			{0x4Fu, 0x01u},
 850:.\Generated_Source\PSoC5/cyfitter_cfg.c **** 			{0x55u, 0xC0u},
 851:.\Generated_Source\PSoC5/cyfitter_cfg.c **** 			{0x58u, 0x08u},
 852:.\Generated_Source\PSoC5/cyfitter_cfg.c **** 			{0x59u, 0x41u},
 853:.\Generated_Source\PSoC5/cyfitter_cfg.c **** 			{0x5Au, 0x20u},
 854:.\Generated_Source\PSoC5/cyfitter_cfg.c **** 			{0x5Cu, 0x10u},
 855:.\Generated_Source\PSoC5/cyfitter_cfg.c **** 			{0x5Eu, 0x40u},
 856:.\Generated_Source\PSoC5/cyfitter_cfg.c **** 			{0x5Fu, 0x08u},
 857:.\Generated_Source\PSoC5/cyfitter_cfg.c **** 			{0x64u, 0x02u},
 858:.\Generated_Source\PSoC5/cyfitter_cfg.c **** 			{0x65u, 0x10u},
 859:.\Generated_Source\PSoC5/cyfitter_cfg.c **** 			{0x66u, 0x24u},
 860:.\Generated_Source\PSoC5/cyfitter_cfg.c **** 			{0x67u, 0x02u},
 861:.\Generated_Source\PSoC5/cyfitter_cfg.c **** 			{0x71u, 0x02u},
 862:.\Generated_Source\PSoC5/cyfitter_cfg.c **** 			{0x78u, 0x02u},
 863:.\Generated_Source\PSoC5/cyfitter_cfg.c **** 			{0x7Fu, 0x01u},
 864:.\Generated_Source\PSoC5/cyfitter_cfg.c **** 			{0x80u, 0x10u},
 865:.\Generated_Source\PSoC5/cyfitter_cfg.c **** 			{0x85u, 0x10u},
 866:.\Generated_Source\PSoC5/cyfitter_cfg.c **** 			{0x8Bu, 0x01u},
 867:.\Generated_Source\PSoC5/cyfitter_cfg.c **** 			{0x8Fu, 0x04u},
 868:.\Generated_Source\PSoC5/cyfitter_cfg.c **** 			{0x90u, 0x04u},
 869:.\Generated_Source\PSoC5/cyfitter_cfg.c **** 			{0x91u, 0x81u},
 870:.\Generated_Source\PSoC5/cyfitter_cfg.c **** 			{0x95u, 0x04u},
 871:.\Generated_Source\PSoC5/cyfitter_cfg.c **** 			{0x97u, 0x03u},
 872:.\Generated_Source\PSoC5/cyfitter_cfg.c **** 			{0x98u, 0x44u},
 873:.\Generated_Source\PSoC5/cyfitter_cfg.c **** 			{0x99u, 0x02u},
 874:.\Generated_Source\PSoC5/cyfitter_cfg.c **** 			{0x9Au, 0x40u},
 875:.\Generated_Source\PSoC5/cyfitter_cfg.c **** 			{0xA0u, 0x80u},
 876:.\Generated_Source\PSoC5/cyfitter_cfg.c **** 			{0xA2u, 0x02u},
 877:.\Generated_Source\PSoC5/cyfitter_cfg.c **** 			{0xA3u, 0x20u},
 878:.\Generated_Source\PSoC5/cyfitter_cfg.c **** 			{0xA4u, 0x04u},
 879:.\Generated_Source\PSoC5/cyfitter_cfg.c **** 			{0xA6u, 0xC0u},
 880:.\Generated_Source\PSoC5/cyfitter_cfg.c **** 			{0xA7u, 0x0Eu},
 881:.\Generated_Source\PSoC5/cyfitter_cfg.c **** 			{0xA9u, 0x01u},
ARM GAS  C:\Users\xavieran\AppData\Local\Temp\ccykvWSD.s 			page 27


 882:.\Generated_Source\PSoC5/cyfitter_cfg.c **** 			{0xACu, 0x04u},
 883:.\Generated_Source\PSoC5/cyfitter_cfg.c **** 			{0xAFu, 0x10u},
 884:.\Generated_Source\PSoC5/cyfitter_cfg.c **** 			{0xB0u, 0x10u},
 885:.\Generated_Source\PSoC5/cyfitter_cfg.c **** 			{0xB1u, 0x48u},
 886:.\Generated_Source\PSoC5/cyfitter_cfg.c **** 			{0xB7u, 0x22u},
 887:.\Generated_Source\PSoC5/cyfitter_cfg.c **** 			{0xC0u, 0x03u},
 888:.\Generated_Source\PSoC5/cyfitter_cfg.c **** 			{0xC2u, 0x0Cu},
 889:.\Generated_Source\PSoC5/cyfitter_cfg.c **** 			{0xC4u, 0x0Cu},
 890:.\Generated_Source\PSoC5/cyfitter_cfg.c **** 			{0xCAu, 0x0Fu},
 891:.\Generated_Source\PSoC5/cyfitter_cfg.c **** 			{0xCCu, 0x2Eu},
 892:.\Generated_Source\PSoC5/cyfitter_cfg.c **** 			{0xCEu, 0x18u},
 893:.\Generated_Source\PSoC5/cyfitter_cfg.c **** 			{0xD0u, 0x58u},
 894:.\Generated_Source\PSoC5/cyfitter_cfg.c **** 			{0xD2u, 0x04u},
 895:.\Generated_Source\PSoC5/cyfitter_cfg.c **** 			{0xD6u, 0x7Fu},
 896:.\Generated_Source\PSoC5/cyfitter_cfg.c **** 			{0xD8u, 0x70u},
 897:.\Generated_Source\PSoC5/cyfitter_cfg.c **** 			{0xDEu, 0x11u},
 898:.\Generated_Source\PSoC5/cyfitter_cfg.c **** 			{0xE6u, 0x20u},
 899:.\Generated_Source\PSoC5/cyfitter_cfg.c **** 			{0xEAu, 0x08u},
 900:.\Generated_Source\PSoC5/cyfitter_cfg.c **** 			{0x06u, 0x02u},
 901:.\Generated_Source\PSoC5/cyfitter_cfg.c **** 			{0x0Bu, 0x02u},
 902:.\Generated_Source\PSoC5/cyfitter_cfg.c **** 			{0x16u, 0x02u},
 903:.\Generated_Source\PSoC5/cyfitter_cfg.c **** 			{0x17u, 0x01u},
 904:.\Generated_Source\PSoC5/cyfitter_cfg.c **** 			{0x19u, 0x01u},
 905:.\Generated_Source\PSoC5/cyfitter_cfg.c **** 			{0x1Au, 0x01u},
 906:.\Generated_Source\PSoC5/cyfitter_cfg.c **** 			{0x26u, 0x01u},
 907:.\Generated_Source\PSoC5/cyfitter_cfg.c **** 			{0x29u, 0x02u},
 908:.\Generated_Source\PSoC5/cyfitter_cfg.c **** 			{0x30u, 0x01u},
 909:.\Generated_Source\PSoC5/cyfitter_cfg.c **** 			{0x32u, 0x02u},
 910:.\Generated_Source\PSoC5/cyfitter_cfg.c **** 			{0x33u, 0x02u},
 911:.\Generated_Source\PSoC5/cyfitter_cfg.c **** 			{0x35u, 0x01u},
 912:.\Generated_Source\PSoC5/cyfitter_cfg.c **** 			{0x3Eu, 0x04u},
 913:.\Generated_Source\PSoC5/cyfitter_cfg.c **** 			{0x3Fu, 0x04u},
 914:.\Generated_Source\PSoC5/cyfitter_cfg.c **** 			{0x40u, 0x60u},
 915:.\Generated_Source\PSoC5/cyfitter_cfg.c **** 			{0x41u, 0x03u},
 916:.\Generated_Source\PSoC5/cyfitter_cfg.c **** 			{0x49u, 0xFFu},
 917:.\Generated_Source\PSoC5/cyfitter_cfg.c **** 			{0x4Au, 0xFFu},
 918:.\Generated_Source\PSoC5/cyfitter_cfg.c **** 			{0x4Bu, 0xFFu},
 919:.\Generated_Source\PSoC5/cyfitter_cfg.c **** 			{0x4Du, 0xA0u},
 920:.\Generated_Source\PSoC5/cyfitter_cfg.c **** 			{0x4Fu, 0x04u},
 921:.\Generated_Source\PSoC5/cyfitter_cfg.c **** 			{0x50u, 0x18u},
 922:.\Generated_Source\PSoC5/cyfitter_cfg.c **** 			{0x56u, 0x08u},
 923:.\Generated_Source\PSoC5/cyfitter_cfg.c **** 			{0x58u, 0x04u},
 924:.\Generated_Source\PSoC5/cyfitter_cfg.c **** 			{0x59u, 0x04u},
 925:.\Generated_Source\PSoC5/cyfitter_cfg.c **** 			{0x5Au, 0x04u},
 926:.\Generated_Source\PSoC5/cyfitter_cfg.c **** 			{0x5Bu, 0x04u},
 927:.\Generated_Source\PSoC5/cyfitter_cfg.c **** 			{0x5Cu, 0x33u},
 928:.\Generated_Source\PSoC5/cyfitter_cfg.c **** 			{0x5Du, 0x93u},
 929:.\Generated_Source\PSoC5/cyfitter_cfg.c **** 			{0x5Fu, 0x01u},
 930:.\Generated_Source\PSoC5/cyfitter_cfg.c **** 			{0x60u, 0x40u},
 931:.\Generated_Source\PSoC5/cyfitter_cfg.c **** 			{0x62u, 0xC0u},
 932:.\Generated_Source\PSoC5/cyfitter_cfg.c **** 			{0x64u, 0x40u},
 933:.\Generated_Source\PSoC5/cyfitter_cfg.c **** 			{0x65u, 0x40u},
 934:.\Generated_Source\PSoC5/cyfitter_cfg.c **** 			{0x66u, 0xC0u},
 935:.\Generated_Source\PSoC5/cyfitter_cfg.c **** 			{0x68u, 0xC0u},
 936:.\Generated_Source\PSoC5/cyfitter_cfg.c **** 			{0x6Au, 0xC0u},
 937:.\Generated_Source\PSoC5/cyfitter_cfg.c **** 			{0x6Cu, 0xC0u},
 938:.\Generated_Source\PSoC5/cyfitter_cfg.c **** 			{0x6Eu, 0xC0u},
ARM GAS  C:\Users\xavieran\AppData\Local\Temp\ccykvWSD.s 			page 28


 939:.\Generated_Source\PSoC5/cyfitter_cfg.c **** 			{0x80u, 0x01u},
 940:.\Generated_Source\PSoC5/cyfitter_cfg.c **** 			{0x82u, 0x02u},
 941:.\Generated_Source\PSoC5/cyfitter_cfg.c **** 			{0x8Eu, 0x08u},
 942:.\Generated_Source\PSoC5/cyfitter_cfg.c **** 			{0x90u, 0x01u},
 943:.\Generated_Source\PSoC5/cyfitter_cfg.c **** 			{0x93u, 0x01u},
 944:.\Generated_Source\PSoC5/cyfitter_cfg.c **** 			{0x96u, 0x04u},
 945:.\Generated_Source\PSoC5/cyfitter_cfg.c **** 			{0x9Au, 0x04u},
 946:.\Generated_Source\PSoC5/cyfitter_cfg.c **** 			{0xA0u, 0x08u},
 947:.\Generated_Source\PSoC5/cyfitter_cfg.c **** 			{0xA8u, 0x02u},
 948:.\Generated_Source\PSoC5/cyfitter_cfg.c **** 			{0xB0u, 0x04u},
 949:.\Generated_Source\PSoC5/cyfitter_cfg.c **** 			{0xB2u, 0x03u},
 950:.\Generated_Source\PSoC5/cyfitter_cfg.c **** 			{0xB4u, 0x03u},
 951:.\Generated_Source\PSoC5/cyfitter_cfg.c **** 			{0xB6u, 0x08u},
 952:.\Generated_Source\PSoC5/cyfitter_cfg.c **** 			{0xB7u, 0x01u},
 953:.\Generated_Source\PSoC5/cyfitter_cfg.c **** 			{0xBEu, 0x15u},
 954:.\Generated_Source\PSoC5/cyfitter_cfg.c **** 			{0xC0u, 0x20u},
 955:.\Generated_Source\PSoC5/cyfitter_cfg.c **** 			{0xC1u, 0x06u},
 956:.\Generated_Source\PSoC5/cyfitter_cfg.c **** 			{0xC5u, 0xD1u},
 957:.\Generated_Source\PSoC5/cyfitter_cfg.c **** 			{0xC6u, 0x50u},
 958:.\Generated_Source\PSoC5/cyfitter_cfg.c **** 			{0xC7u, 0x02u},
 959:.\Generated_Source\PSoC5/cyfitter_cfg.c **** 			{0xC8u, 0x1Bu},
 960:.\Generated_Source\PSoC5/cyfitter_cfg.c **** 			{0xC9u, 0xFFu},
 961:.\Generated_Source\PSoC5/cyfitter_cfg.c **** 			{0xCAu, 0xFFu},
 962:.\Generated_Source\PSoC5/cyfitter_cfg.c **** 			{0xCBu, 0xFFu},
 963:.\Generated_Source\PSoC5/cyfitter_cfg.c **** 			{0xCDu, 0xAFu},
 964:.\Generated_Source\PSoC5/cyfitter_cfg.c **** 			{0xCEu, 0x0Fu},
 965:.\Generated_Source\PSoC5/cyfitter_cfg.c **** 			{0xCFu, 0x04u},
 966:.\Generated_Source\PSoC5/cyfitter_cfg.c **** 			{0xD0u, 0x18u},
 967:.\Generated_Source\PSoC5/cyfitter_cfg.c **** 			{0xD4u, 0x05u},
 968:.\Generated_Source\PSoC5/cyfitter_cfg.c **** 			{0xD8u, 0x04u},
 969:.\Generated_Source\PSoC5/cyfitter_cfg.c **** 			{0xD9u, 0x04u},
 970:.\Generated_Source\PSoC5/cyfitter_cfg.c **** 			{0xDAu, 0x04u},
 971:.\Generated_Source\PSoC5/cyfitter_cfg.c **** 			{0xDBu, 0x04u},
 972:.\Generated_Source\PSoC5/cyfitter_cfg.c **** 			{0xDCu, 0x44u},
 973:.\Generated_Source\PSoC5/cyfitter_cfg.c **** 			{0xDDu, 0x43u},
 974:.\Generated_Source\PSoC5/cyfitter_cfg.c **** 			{0xDFu, 0x01u},
 975:.\Generated_Source\PSoC5/cyfitter_cfg.c **** 			{0xE0u, 0x40u},
 976:.\Generated_Source\PSoC5/cyfitter_cfg.c **** 			{0xE2u, 0xC0u},
 977:.\Generated_Source\PSoC5/cyfitter_cfg.c **** 			{0xE4u, 0x40u},
 978:.\Generated_Source\PSoC5/cyfitter_cfg.c **** 			{0xE5u, 0x40u},
 979:.\Generated_Source\PSoC5/cyfitter_cfg.c **** 			{0xE6u, 0xC0u},
 980:.\Generated_Source\PSoC5/cyfitter_cfg.c **** 			{0xE8u, 0xC0u},
 981:.\Generated_Source\PSoC5/cyfitter_cfg.c **** 			{0xEAu, 0xC0u},
 982:.\Generated_Source\PSoC5/cyfitter_cfg.c **** 			{0xECu, 0xC0u},
 983:.\Generated_Source\PSoC5/cyfitter_cfg.c **** 			{0xEEu, 0xC0u},
 984:.\Generated_Source\PSoC5/cyfitter_cfg.c **** 			{0x00u, 0x02u},
 985:.\Generated_Source\PSoC5/cyfitter_cfg.c **** 			{0x02u, 0x02u},
 986:.\Generated_Source\PSoC5/cyfitter_cfg.c **** 			{0x04u, 0x08u},
 987:.\Generated_Source\PSoC5/cyfitter_cfg.c **** 			{0x08u, 0x02u},
 988:.\Generated_Source\PSoC5/cyfitter_cfg.c **** 			{0x09u, 0x28u},
 989:.\Generated_Source\PSoC5/cyfitter_cfg.c **** 			{0x0Au, 0x08u},
 990:.\Generated_Source\PSoC5/cyfitter_cfg.c **** 			{0x0Du, 0x20u},
 991:.\Generated_Source\PSoC5/cyfitter_cfg.c **** 			{0x0Eu, 0x10u},
 992:.\Generated_Source\PSoC5/cyfitter_cfg.c **** 			{0x12u, 0x84u},
 993:.\Generated_Source\PSoC5/cyfitter_cfg.c **** 			{0x16u, 0x10u},
 994:.\Generated_Source\PSoC5/cyfitter_cfg.c **** 			{0x18u, 0x50u},
 995:.\Generated_Source\PSoC5/cyfitter_cfg.c **** 			{0x19u, 0xA0u},
ARM GAS  C:\Users\xavieran\AppData\Local\Temp\ccykvWSD.s 			page 29


 996:.\Generated_Source\PSoC5/cyfitter_cfg.c **** 			{0x1Bu, 0x04u},
 997:.\Generated_Source\PSoC5/cyfitter_cfg.c **** 			{0x1Cu, 0x80u},
 998:.\Generated_Source\PSoC5/cyfitter_cfg.c **** 			{0x1Fu, 0x08u},
 999:.\Generated_Source\PSoC5/cyfitter_cfg.c **** 			{0x22u, 0x80u},
1000:.\Generated_Source\PSoC5/cyfitter_cfg.c **** 			{0x24u, 0x08u},
1001:.\Generated_Source\PSoC5/cyfitter_cfg.c **** 			{0x25u, 0x10u},
1002:.\Generated_Source\PSoC5/cyfitter_cfg.c **** 			{0x27u, 0x10u},
1003:.\Generated_Source\PSoC5/cyfitter_cfg.c **** 			{0x2Au, 0x80u},
1004:.\Generated_Source\PSoC5/cyfitter_cfg.c **** 			{0x2Bu, 0x01u},
1005:.\Generated_Source\PSoC5/cyfitter_cfg.c **** 			{0x2Eu, 0x10u},
1006:.\Generated_Source\PSoC5/cyfitter_cfg.c **** 			{0x32u, 0x02u},
1007:.\Generated_Source\PSoC5/cyfitter_cfg.c **** 			{0x36u, 0x28u},
1008:.\Generated_Source\PSoC5/cyfitter_cfg.c **** 			{0x3Du, 0x20u},
1009:.\Generated_Source\PSoC5/cyfitter_cfg.c **** 			{0x41u, 0x20u},
1010:.\Generated_Source\PSoC5/cyfitter_cfg.c **** 			{0x45u, 0x08u},
1011:.\Generated_Source\PSoC5/cyfitter_cfg.c **** 			{0x48u, 0x18u},
1012:.\Generated_Source\PSoC5/cyfitter_cfg.c **** 			{0x49u, 0x01u},
1013:.\Generated_Source\PSoC5/cyfitter_cfg.c **** 			{0x4Au, 0x20u},
1014:.\Generated_Source\PSoC5/cyfitter_cfg.c **** 			{0x4Eu, 0x0Cu},
1015:.\Generated_Source\PSoC5/cyfitter_cfg.c **** 			{0x50u, 0x28u},
1016:.\Generated_Source\PSoC5/cyfitter_cfg.c **** 			{0x51u, 0x08u},
1017:.\Generated_Source\PSoC5/cyfitter_cfg.c **** 			{0x52u, 0x10u},
1018:.\Generated_Source\PSoC5/cyfitter_cfg.c **** 			{0x59u, 0x8Au},
1019:.\Generated_Source\PSoC5/cyfitter_cfg.c **** 			{0x5Eu, 0x40u},
1020:.\Generated_Source\PSoC5/cyfitter_cfg.c **** 			{0x66u, 0x80u},
1021:.\Generated_Source\PSoC5/cyfitter_cfg.c **** 			{0x6Du, 0x10u},
1022:.\Generated_Source\PSoC5/cyfitter_cfg.c **** 			{0x6Eu, 0x04u},
1023:.\Generated_Source\PSoC5/cyfitter_cfg.c **** 			{0x6Fu, 0x81u},
1024:.\Generated_Source\PSoC5/cyfitter_cfg.c **** 			{0x74u, 0x80u},
1025:.\Generated_Source\PSoC5/cyfitter_cfg.c **** 			{0x75u, 0x10u},
1026:.\Generated_Source\PSoC5/cyfitter_cfg.c **** 			{0x81u, 0x10u},
1027:.\Generated_Source\PSoC5/cyfitter_cfg.c **** 			{0x83u, 0x80u},
1028:.\Generated_Source\PSoC5/cyfitter_cfg.c **** 			{0x86u, 0x04u},
1029:.\Generated_Source\PSoC5/cyfitter_cfg.c **** 			{0x8Cu, 0x80u},
1030:.\Generated_Source\PSoC5/cyfitter_cfg.c **** 			{0x8Du, 0x10u},
1031:.\Generated_Source\PSoC5/cyfitter_cfg.c **** 			{0x90u, 0x04u},
1032:.\Generated_Source\PSoC5/cyfitter_cfg.c **** 			{0x91u, 0x81u},
1033:.\Generated_Source\PSoC5/cyfitter_cfg.c **** 			{0x92u, 0x08u},
1034:.\Generated_Source\PSoC5/cyfitter_cfg.c **** 			{0x95u, 0x10u},
1035:.\Generated_Source\PSoC5/cyfitter_cfg.c **** 			{0x96u, 0x40u},
1036:.\Generated_Source\PSoC5/cyfitter_cfg.c **** 			{0x99u, 0x0Au},
1037:.\Generated_Source\PSoC5/cyfitter_cfg.c **** 			{0x9Au, 0x04u},
1038:.\Generated_Source\PSoC5/cyfitter_cfg.c **** 			{0x9Cu, 0x08u},
1039:.\Generated_Source\PSoC5/cyfitter_cfg.c **** 			{0x9Du, 0x01u},
1040:.\Generated_Source\PSoC5/cyfitter_cfg.c **** 			{0x9Fu, 0x01u},
1041:.\Generated_Source\PSoC5/cyfitter_cfg.c **** 			{0xA2u, 0x02u},
1042:.\Generated_Source\PSoC5/cyfitter_cfg.c **** 			{0xA4u, 0x34u},
1043:.\Generated_Source\PSoC5/cyfitter_cfg.c **** 			{0xA7u, 0x02u},
1044:.\Generated_Source\PSoC5/cyfitter_cfg.c **** 			{0xABu, 0x08u},
1045:.\Generated_Source\PSoC5/cyfitter_cfg.c **** 			{0xAFu, 0x40u},
1046:.\Generated_Source\PSoC5/cyfitter_cfg.c **** 			{0xB7u, 0x08u},
1047:.\Generated_Source\PSoC5/cyfitter_cfg.c **** 			{0xC0u, 0x29u},
1048:.\Generated_Source\PSoC5/cyfitter_cfg.c **** 			{0xC2u, 0x6Eu},
1049:.\Generated_Source\PSoC5/cyfitter_cfg.c **** 			{0xC4u, 0x2Au},
1050:.\Generated_Source\PSoC5/cyfitter_cfg.c **** 			{0xCAu, 0x20u},
1051:.\Generated_Source\PSoC5/cyfitter_cfg.c **** 			{0xCCu, 0x61u},
1052:.\Generated_Source\PSoC5/cyfitter_cfg.c **** 			{0xCEu, 0x20u},
ARM GAS  C:\Users\xavieran\AppData\Local\Temp\ccykvWSD.s 			page 30


1053:.\Generated_Source\PSoC5/cyfitter_cfg.c **** 			{0xD0u, 0x44u},
1054:.\Generated_Source\PSoC5/cyfitter_cfg.c **** 			{0xD2u, 0x24u},
1055:.\Generated_Source\PSoC5/cyfitter_cfg.c **** 			{0xD6u, 0x1Bu},
1056:.\Generated_Source\PSoC5/cyfitter_cfg.c **** 			{0xD8u, 0x10u},
1057:.\Generated_Source\PSoC5/cyfitter_cfg.c **** 			{0xE0u, 0x85u},
1058:.\Generated_Source\PSoC5/cyfitter_cfg.c **** 			{0xE2u, 0x40u},
1059:.\Generated_Source\PSoC5/cyfitter_cfg.c **** 			{0xE6u, 0x40u},
1060:.\Generated_Source\PSoC5/cyfitter_cfg.c **** 			{0x02u, 0x02u},
1061:.\Generated_Source\PSoC5/cyfitter_cfg.c **** 			{0x06u, 0x06u},
1062:.\Generated_Source\PSoC5/cyfitter_cfg.c **** 			{0x07u, 0x02u},
1063:.\Generated_Source\PSoC5/cyfitter_cfg.c **** 			{0x11u, 0x01u},
1064:.\Generated_Source\PSoC5/cyfitter_cfg.c **** 			{0x12u, 0x10u},
1065:.\Generated_Source\PSoC5/cyfitter_cfg.c **** 			{0x13u, 0x02u},
1066:.\Generated_Source\PSoC5/cyfitter_cfg.c **** 			{0x1Au, 0x08u},
1067:.\Generated_Source\PSoC5/cyfitter_cfg.c **** 			{0x26u, 0x04u},
1068:.\Generated_Source\PSoC5/cyfitter_cfg.c **** 			{0x2Au, 0x01u},
1069:.\Generated_Source\PSoC5/cyfitter_cfg.c **** 			{0x2Cu, 0x02u},
1070:.\Generated_Source\PSoC5/cyfitter_cfg.c **** 			{0x2Eu, 0x04u},
1071:.\Generated_Source\PSoC5/cyfitter_cfg.c **** 			{0x2Fu, 0x01u},
1072:.\Generated_Source\PSoC5/cyfitter_cfg.c **** 			{0x30u, 0x08u},
1073:.\Generated_Source\PSoC5/cyfitter_cfg.c **** 			{0x32u, 0x10u},
1074:.\Generated_Source\PSoC5/cyfitter_cfg.c **** 			{0x33u, 0x03u},
1075:.\Generated_Source\PSoC5/cyfitter_cfg.c **** 			{0x34u, 0x01u},
1076:.\Generated_Source\PSoC5/cyfitter_cfg.c **** 			{0x36u, 0x06u},
1077:.\Generated_Source\PSoC5/cyfitter_cfg.c **** 			{0x3Eu, 0x40u},
1078:.\Generated_Source\PSoC5/cyfitter_cfg.c **** 			{0x3Fu, 0x04u},
1079:.\Generated_Source\PSoC5/cyfitter_cfg.c **** 			{0x40u, 0x26u},
1080:.\Generated_Source\PSoC5/cyfitter_cfg.c **** 			{0x41u, 0x03u},
1081:.\Generated_Source\PSoC5/cyfitter_cfg.c **** 			{0x49u, 0xFFu},
1082:.\Generated_Source\PSoC5/cyfitter_cfg.c **** 			{0x4Au, 0xFFu},
1083:.\Generated_Source\PSoC5/cyfitter_cfg.c **** 			{0x4Bu, 0xFFu},
1084:.\Generated_Source\PSoC5/cyfitter_cfg.c **** 			{0x4Fu, 0x01u},
1085:.\Generated_Source\PSoC5/cyfitter_cfg.c **** 			{0x50u, 0x18u},
1086:.\Generated_Source\PSoC5/cyfitter_cfg.c **** 			{0x56u, 0x08u},
1087:.\Generated_Source\PSoC5/cyfitter_cfg.c **** 			{0x58u, 0x04u},
1088:.\Generated_Source\PSoC5/cyfitter_cfg.c **** 			{0x59u, 0x04u},
1089:.\Generated_Source\PSoC5/cyfitter_cfg.c **** 			{0x5Au, 0x04u},
1090:.\Generated_Source\PSoC5/cyfitter_cfg.c **** 			{0x5Bu, 0x04u},
1091:.\Generated_Source\PSoC5/cyfitter_cfg.c **** 			{0x5Cu, 0x02u},
1092:.\Generated_Source\PSoC5/cyfitter_cfg.c **** 			{0x5Du, 0x93u},
1093:.\Generated_Source\PSoC5/cyfitter_cfg.c **** 			{0x5Fu, 0x01u},
1094:.\Generated_Source\PSoC5/cyfitter_cfg.c **** 			{0x60u, 0x40u},
1095:.\Generated_Source\PSoC5/cyfitter_cfg.c **** 			{0x62u, 0x40u},
1096:.\Generated_Source\PSoC5/cyfitter_cfg.c **** 			{0x64u, 0x40u},
1097:.\Generated_Source\PSoC5/cyfitter_cfg.c **** 			{0x65u, 0x40u},
1098:.\Generated_Source\PSoC5/cyfitter_cfg.c **** 			{0x66u, 0x80u},
1099:.\Generated_Source\PSoC5/cyfitter_cfg.c **** 			{0x68u, 0x80u},
1100:.\Generated_Source\PSoC5/cyfitter_cfg.c **** 			{0x6Au, 0x80u},
1101:.\Generated_Source\PSoC5/cyfitter_cfg.c **** 			{0x6Cu, 0x80u},
1102:.\Generated_Source\PSoC5/cyfitter_cfg.c **** 			{0x6Eu, 0x80u},
1103:.\Generated_Source\PSoC5/cyfitter_cfg.c **** 			{0x8Au, 0x0Fu},
1104:.\Generated_Source\PSoC5/cyfitter_cfg.c **** 			{0x8Eu, 0x0Fu},
1105:.\Generated_Source\PSoC5/cyfitter_cfg.c **** 			{0x92u, 0x01u},
1106:.\Generated_Source\PSoC5/cyfitter_cfg.c **** 			{0x94u, 0x0Fu},
1107:.\Generated_Source\PSoC5/cyfitter_cfg.c **** 			{0x9Au, 0x08u},
1108:.\Generated_Source\PSoC5/cyfitter_cfg.c **** 			{0x9Bu, 0x01u},
1109:.\Generated_Source\PSoC5/cyfitter_cfg.c **** 			{0xA2u, 0x08u},
ARM GAS  C:\Users\xavieran\AppData\Local\Temp\ccykvWSD.s 			page 31


1110:.\Generated_Source\PSoC5/cyfitter_cfg.c **** 			{0xA4u, 0x0Fu},
1111:.\Generated_Source\PSoC5/cyfitter_cfg.c **** 			{0xAAu, 0x02u},
1112:.\Generated_Source\PSoC5/cyfitter_cfg.c **** 			{0xAEu, 0x04u},
1113:.\Generated_Source\PSoC5/cyfitter_cfg.c **** 			{0xB0u, 0x0Fu},
1114:.\Generated_Source\PSoC5/cyfitter_cfg.c **** 			{0xB1u, 0x01u},
1115:.\Generated_Source\PSoC5/cyfitter_cfg.c **** 			{0xBEu, 0x01u},
1116:.\Generated_Source\PSoC5/cyfitter_cfg.c **** 			{0xC0u, 0x26u},
1117:.\Generated_Source\PSoC5/cyfitter_cfg.c **** 			{0xC1u, 0x01u},
1118:.\Generated_Source\PSoC5/cyfitter_cfg.c **** 			{0xC5u, 0xECu},
1119:.\Generated_Source\PSoC5/cyfitter_cfg.c **** 			{0xC7u, 0x02u},
1120:.\Generated_Source\PSoC5/cyfitter_cfg.c **** 			{0xC8u, 0x13u},
1121:.\Generated_Source\PSoC5/cyfitter_cfg.c **** 			{0xC9u, 0xFFu},
1122:.\Generated_Source\PSoC5/cyfitter_cfg.c **** 			{0xCAu, 0xFFu},
1123:.\Generated_Source\PSoC5/cyfitter_cfg.c **** 			{0xCBu, 0xFFu},
1124:.\Generated_Source\PSoC5/cyfitter_cfg.c **** 			{0xCDu, 0x83u},
1125:.\Generated_Source\PSoC5/cyfitter_cfg.c **** 			{0xCEu, 0x03u},
1126:.\Generated_Source\PSoC5/cyfitter_cfg.c **** 			{0xCFu, 0x01u},
1127:.\Generated_Source\PSoC5/cyfitter_cfg.c **** 			{0xD0u, 0x18u},
1128:.\Generated_Source\PSoC5/cyfitter_cfg.c **** 			{0xD4u, 0x01u},
1129:.\Generated_Source\PSoC5/cyfitter_cfg.c **** 			{0xD8u, 0x04u},
1130:.\Generated_Source\PSoC5/cyfitter_cfg.c **** 			{0xD9u, 0x04u},
1131:.\Generated_Source\PSoC5/cyfitter_cfg.c **** 			{0xDAu, 0x04u},
1132:.\Generated_Source\PSoC5/cyfitter_cfg.c **** 			{0xDBu, 0x04u},
1133:.\Generated_Source\PSoC5/cyfitter_cfg.c **** 			{0xDCu, 0x20u},
1134:.\Generated_Source\PSoC5/cyfitter_cfg.c **** 			{0xDDu, 0x33u},
1135:.\Generated_Source\PSoC5/cyfitter_cfg.c **** 			{0xDFu, 0x05u},
1136:.\Generated_Source\PSoC5/cyfitter_cfg.c **** 			{0xE0u, 0x40u},
1137:.\Generated_Source\PSoC5/cyfitter_cfg.c **** 			{0xE2u, 0x40u},
1138:.\Generated_Source\PSoC5/cyfitter_cfg.c **** 			{0xE4u, 0x40u},
1139:.\Generated_Source\PSoC5/cyfitter_cfg.c **** 			{0xE5u, 0x40u},
1140:.\Generated_Source\PSoC5/cyfitter_cfg.c **** 			{0xE6u, 0x80u},
1141:.\Generated_Source\PSoC5/cyfitter_cfg.c **** 			{0xE8u, 0x80u},
1142:.\Generated_Source\PSoC5/cyfitter_cfg.c **** 			{0xEAu, 0x80u},
1143:.\Generated_Source\PSoC5/cyfitter_cfg.c **** 			{0xECu, 0x80u},
1144:.\Generated_Source\PSoC5/cyfitter_cfg.c **** 			{0xEEu, 0x80u},
1145:.\Generated_Source\PSoC5/cyfitter_cfg.c **** 			{0x00u, 0x80u},
1146:.\Generated_Source\PSoC5/cyfitter_cfg.c **** 			{0x03u, 0x08u},
1147:.\Generated_Source\PSoC5/cyfitter_cfg.c **** 			{0x04u, 0x08u},
1148:.\Generated_Source\PSoC5/cyfitter_cfg.c **** 			{0x06u, 0x80u},
1149:.\Generated_Source\PSoC5/cyfitter_cfg.c **** 			{0x0Au, 0x20u},
1150:.\Generated_Source\PSoC5/cyfitter_cfg.c **** 			{0x0Bu, 0x88u},
1151:.\Generated_Source\PSoC5/cyfitter_cfg.c **** 			{0x0Du, 0x22u},
1152:.\Generated_Source\PSoC5/cyfitter_cfg.c **** 			{0x12u, 0x25u},
1153:.\Generated_Source\PSoC5/cyfitter_cfg.c **** 			{0x13u, 0x02u},
1154:.\Generated_Source\PSoC5/cyfitter_cfg.c **** 			{0x15u, 0x40u},
1155:.\Generated_Source\PSoC5/cyfitter_cfg.c **** 			{0x16u, 0x28u},
1156:.\Generated_Source\PSoC5/cyfitter_cfg.c **** 			{0x19u, 0x02u},
1157:.\Generated_Source\PSoC5/cyfitter_cfg.c **** 			{0x1Bu, 0x01u},
1158:.\Generated_Source\PSoC5/cyfitter_cfg.c **** 			{0x1Du, 0x62u},
1159:.\Generated_Source\PSoC5/cyfitter_cfg.c **** 			{0x1Eu, 0x20u},
1160:.\Generated_Source\PSoC5/cyfitter_cfg.c **** 			{0x20u, 0x80u},
1161:.\Generated_Source\PSoC5/cyfitter_cfg.c **** 			{0x21u, 0x01u},
1162:.\Generated_Source\PSoC5/cyfitter_cfg.c **** 			{0x27u, 0x30u},
1163:.\Generated_Source\PSoC5/cyfitter_cfg.c **** 			{0x2Eu, 0x80u},
1164:.\Generated_Source\PSoC5/cyfitter_cfg.c **** 			{0x32u, 0x10u},
1165:.\Generated_Source\PSoC5/cyfitter_cfg.c **** 			{0x37u, 0x01u},
1166:.\Generated_Source\PSoC5/cyfitter_cfg.c **** 			{0x3Fu, 0x04u},
ARM GAS  C:\Users\xavieran\AppData\Local\Temp\ccykvWSD.s 			page 32


1167:.\Generated_Source\PSoC5/cyfitter_cfg.c **** 			{0x41u, 0x40u},
1168:.\Generated_Source\PSoC5/cyfitter_cfg.c **** 			{0x43u, 0x10u},
1169:.\Generated_Source\PSoC5/cyfitter_cfg.c **** 			{0x47u, 0x24u},
1170:.\Generated_Source\PSoC5/cyfitter_cfg.c **** 			{0x49u, 0x25u},
1171:.\Generated_Source\PSoC5/cyfitter_cfg.c **** 			{0x4Cu, 0x04u},
1172:.\Generated_Source\PSoC5/cyfitter_cfg.c **** 			{0x4Du, 0x20u},
1173:.\Generated_Source\PSoC5/cyfitter_cfg.c **** 			{0x50u, 0x04u},
1174:.\Generated_Source\PSoC5/cyfitter_cfg.c **** 			{0x59u, 0x45u},
1175:.\Generated_Source\PSoC5/cyfitter_cfg.c **** 			{0x5Cu, 0xA0u},
1176:.\Generated_Source\PSoC5/cyfitter_cfg.c **** 			{0x66u, 0xA0u},
1177:.\Generated_Source\PSoC5/cyfitter_cfg.c **** 			{0x67u, 0x04u},
1178:.\Generated_Source\PSoC5/cyfitter_cfg.c **** 			{0x6Du, 0x60u},
1179:.\Generated_Source\PSoC5/cyfitter_cfg.c **** 			{0x6Fu, 0x01u},
1180:.\Generated_Source\PSoC5/cyfitter_cfg.c **** 			{0x79u, 0x80u},
1181:.\Generated_Source\PSoC5/cyfitter_cfg.c **** 			{0x81u, 0x40u},
1182:.\Generated_Source\PSoC5/cyfitter_cfg.c **** 			{0x83u, 0x04u},
1183:.\Generated_Source\PSoC5/cyfitter_cfg.c **** 			{0x88u, 0x20u},
1184:.\Generated_Source\PSoC5/cyfitter_cfg.c **** 			{0x93u, 0x88u},
1185:.\Generated_Source\PSoC5/cyfitter_cfg.c **** 			{0x96u, 0x02u},
1186:.\Generated_Source\PSoC5/cyfitter_cfg.c **** 			{0x97u, 0x02u},
1187:.\Generated_Source\PSoC5/cyfitter_cfg.c **** 			{0x9Au, 0x04u},
1188:.\Generated_Source\PSoC5/cyfitter_cfg.c **** 			{0x9Bu, 0x02u},
1189:.\Generated_Source\PSoC5/cyfitter_cfg.c **** 			{0x9Du, 0x02u},
1190:.\Generated_Source\PSoC5/cyfitter_cfg.c **** 			{0x9Eu, 0x09u},
1191:.\Generated_Source\PSoC5/cyfitter_cfg.c **** 			{0xA0u, 0x28u},
1192:.\Generated_Source\PSoC5/cyfitter_cfg.c **** 			{0xA3u, 0x08u},
1193:.\Generated_Source\PSoC5/cyfitter_cfg.c **** 			{0xA5u, 0x20u},
1194:.\Generated_Source\PSoC5/cyfitter_cfg.c **** 			{0xA6u, 0xA0u},
1195:.\Generated_Source\PSoC5/cyfitter_cfg.c **** 			{0xA7u, 0x01u},
1196:.\Generated_Source\PSoC5/cyfitter_cfg.c **** 			{0xB1u, 0x80u},
1197:.\Generated_Source\PSoC5/cyfitter_cfg.c **** 			{0xB4u, 0x80u},
1198:.\Generated_Source\PSoC5/cyfitter_cfg.c **** 			{0xB7u, 0x02u},
1199:.\Generated_Source\PSoC5/cyfitter_cfg.c **** 			{0xC0u, 0x33u},
1200:.\Generated_Source\PSoC5/cyfitter_cfg.c **** 			{0xC2u, 0x5Eu},
1201:.\Generated_Source\PSoC5/cyfitter_cfg.c **** 			{0xC4u, 0xEFu},
1202:.\Generated_Source\PSoC5/cyfitter_cfg.c **** 			{0xCAu, 0x10u},
1203:.\Generated_Source\PSoC5/cyfitter_cfg.c **** 			{0xCCu, 0x84u},
1204:.\Generated_Source\PSoC5/cyfitter_cfg.c **** 			{0xCEu, 0x40u},
1205:.\Generated_Source\PSoC5/cyfitter_cfg.c **** 			{0xD0u, 0x6Cu},
1206:.\Generated_Source\PSoC5/cyfitter_cfg.c **** 			{0xD2u, 0x24u},
1207:.\Generated_Source\PSoC5/cyfitter_cfg.c **** 			{0xD6u, 0x3Bu},
1208:.\Generated_Source\PSoC5/cyfitter_cfg.c **** 			{0xD8u, 0x30u},
1209:.\Generated_Source\PSoC5/cyfitter_cfg.c **** 			{0xDEu, 0x08u},
1210:.\Generated_Source\PSoC5/cyfitter_cfg.c **** 			{0xE0u, 0x84u},
1211:.\Generated_Source\PSoC5/cyfitter_cfg.c **** 			{0xEAu, 0x10u},
1212:.\Generated_Source\PSoC5/cyfitter_cfg.c **** 			{0x01u, 0x01u},
1213:.\Generated_Source\PSoC5/cyfitter_cfg.c **** 			{0x02u, 0x20u},
1214:.\Generated_Source\PSoC5/cyfitter_cfg.c **** 			{0x04u, 0x04u},
1215:.\Generated_Source\PSoC5/cyfitter_cfg.c **** 			{0x05u, 0x01u},
1216:.\Generated_Source\PSoC5/cyfitter_cfg.c **** 			{0x06u, 0x08u},
1217:.\Generated_Source\PSoC5/cyfitter_cfg.c **** 			{0x0Cu, 0x0Fu},
1218:.\Generated_Source\PSoC5/cyfitter_cfg.c **** 			{0x0Du, 0x01u},
1219:.\Generated_Source\PSoC5/cyfitter_cfg.c **** 			{0x10u, 0x10u},
1220:.\Generated_Source\PSoC5/cyfitter_cfg.c **** 			{0x12u, 0x01u},
1221:.\Generated_Source\PSoC5/cyfitter_cfg.c **** 			{0x1Au, 0x08u},
1222:.\Generated_Source\PSoC5/cyfitter_cfg.c **** 			{0x1Du, 0x02u},
1223:.\Generated_Source\PSoC5/cyfitter_cfg.c **** 			{0x21u, 0x01u},
ARM GAS  C:\Users\xavieran\AppData\Local\Temp\ccykvWSD.s 			page 33


1224:.\Generated_Source\PSoC5/cyfitter_cfg.c **** 			{0x22u, 0x18u},
1225:.\Generated_Source\PSoC5/cyfitter_cfg.c **** 			{0x24u, 0x3Fu},
1226:.\Generated_Source\PSoC5/cyfitter_cfg.c **** 			{0x25u, 0x01u},
1227:.\Generated_Source\PSoC5/cyfitter_cfg.c **** 			{0x28u, 0x10u},
1228:.\Generated_Source\PSoC5/cyfitter_cfg.c **** 			{0x2Au, 0x02u},
1229:.\Generated_Source\PSoC5/cyfitter_cfg.c **** 			{0x2Eu, 0x14u},
1230:.\Generated_Source\PSoC5/cyfitter_cfg.c **** 			{0x2Fu, 0x01u},
1231:.\Generated_Source\PSoC5/cyfitter_cfg.c **** 			{0x32u, 0x3Fu},
1232:.\Generated_Source\PSoC5/cyfitter_cfg.c **** 			{0x35u, 0x03u},
1233:.\Generated_Source\PSoC5/cyfitter_cfg.c **** 			{0x38u, 0x08u},
1234:.\Generated_Source\PSoC5/cyfitter_cfg.c **** 			{0x39u, 0x20u},
1235:.\Generated_Source\PSoC5/cyfitter_cfg.c **** 			{0x3Fu, 0x10u},
1236:.\Generated_Source\PSoC5/cyfitter_cfg.c **** 			{0x40u, 0x14u},
1237:.\Generated_Source\PSoC5/cyfitter_cfg.c **** 			{0x49u, 0xFFu},
1238:.\Generated_Source\PSoC5/cyfitter_cfg.c **** 			{0x4Au, 0xFFu},
1239:.\Generated_Source\PSoC5/cyfitter_cfg.c **** 			{0x4Bu, 0xFFu},
1240:.\Generated_Source\PSoC5/cyfitter_cfg.c **** 			{0x4Fu, 0x01u},
1241:.\Generated_Source\PSoC5/cyfitter_cfg.c **** 			{0x50u, 0x18u},
1242:.\Generated_Source\PSoC5/cyfitter_cfg.c **** 			{0x56u, 0x08u},
1243:.\Generated_Source\PSoC5/cyfitter_cfg.c **** 			{0x58u, 0x04u},
1244:.\Generated_Source\PSoC5/cyfitter_cfg.c **** 			{0x59u, 0x04u},
1245:.\Generated_Source\PSoC5/cyfitter_cfg.c **** 			{0x5Au, 0x04u},
1246:.\Generated_Source\PSoC5/cyfitter_cfg.c **** 			{0x5Bu, 0x04u},
1247:.\Generated_Source\PSoC5/cyfitter_cfg.c **** 			{0x5Cu, 0x02u},
1248:.\Generated_Source\PSoC5/cyfitter_cfg.c **** 			{0x5Du, 0x96u},
1249:.\Generated_Source\PSoC5/cyfitter_cfg.c **** 			{0x5Fu, 0x01u},
1250:.\Generated_Source\PSoC5/cyfitter_cfg.c **** 			{0x60u, 0x40u},
1251:.\Generated_Source\PSoC5/cyfitter_cfg.c **** 			{0x62u, 0x40u},
1252:.\Generated_Source\PSoC5/cyfitter_cfg.c **** 			{0x64u, 0x40u},
1253:.\Generated_Source\PSoC5/cyfitter_cfg.c **** 			{0x65u, 0x40u},
1254:.\Generated_Source\PSoC5/cyfitter_cfg.c **** 			{0x66u, 0x80u},
1255:.\Generated_Source\PSoC5/cyfitter_cfg.c **** 			{0x68u, 0x80u},
1256:.\Generated_Source\PSoC5/cyfitter_cfg.c **** 			{0x6Au, 0x80u},
1257:.\Generated_Source\PSoC5/cyfitter_cfg.c **** 			{0x6Cu, 0x80u},
1258:.\Generated_Source\PSoC5/cyfitter_cfg.c **** 			{0x6Eu, 0x80u},
1259:.\Generated_Source\PSoC5/cyfitter_cfg.c **** 			{0x80u, 0x03u},
1260:.\Generated_Source\PSoC5/cyfitter_cfg.c **** 			{0x81u, 0x33u},
1261:.\Generated_Source\PSoC5/cyfitter_cfg.c **** 			{0x83u, 0x0Cu},
1262:.\Generated_Source\PSoC5/cyfitter_cfg.c **** 			{0x86u, 0x03u},
1263:.\Generated_Source\PSoC5/cyfitter_cfg.c **** 			{0x88u, 0x02u},
1264:.\Generated_Source\PSoC5/cyfitter_cfg.c **** 			{0x8Au, 0x01u},
1265:.\Generated_Source\PSoC5/cyfitter_cfg.c **** 			{0x8Cu, 0x01u},
1266:.\Generated_Source\PSoC5/cyfitter_cfg.c **** 			{0x8Eu, 0x06u},
1267:.\Generated_Source\PSoC5/cyfitter_cfg.c **** 			{0x91u, 0x46u},
1268:.\Generated_Source\PSoC5/cyfitter_cfg.c **** 			{0x92u, 0x08u},
1269:.\Generated_Source\PSoC5/cyfitter_cfg.c **** 			{0x93u, 0xA9u},
1270:.\Generated_Source\PSoC5/cyfitter_cfg.c **** 			{0x98u, 0x01u},
1271:.\Generated_Source\PSoC5/cyfitter_cfg.c **** 			{0x99u, 0x80u},
1272:.\Generated_Source\PSoC5/cyfitter_cfg.c **** 			{0x9Au, 0x04u},
1273:.\Generated_Source\PSoC5/cyfitter_cfg.c **** 			{0x9Bu, 0x56u},
1274:.\Generated_Source\PSoC5/cyfitter_cfg.c **** 			{0x9Eu, 0x03u},
1275:.\Generated_Source\PSoC5/cyfitter_cfg.c **** 			{0x9Fu, 0x01u},
1276:.\Generated_Source\PSoC5/cyfitter_cfg.c **** 			{0xA0u, 0x03u},
1277:.\Generated_Source\PSoC5/cyfitter_cfg.c **** 			{0xA1u, 0x0Eu},
1278:.\Generated_Source\PSoC5/cyfitter_cfg.c **** 			{0xA3u, 0x30u},
1279:.\Generated_Source\PSoC5/cyfitter_cfg.c **** 			{0xA5u, 0xFFu},
1280:.\Generated_Source\PSoC5/cyfitter_cfg.c **** 			{0xA6u, 0x03u},
ARM GAS  C:\Users\xavieran\AppData\Local\Temp\ccykvWSD.s 			page 34


1281:.\Generated_Source\PSoC5/cyfitter_cfg.c **** 			{0xA9u, 0x2Au},
1282:.\Generated_Source\PSoC5/cyfitter_cfg.c **** 			{0xAAu, 0x03u},
1283:.\Generated_Source\PSoC5/cyfitter_cfg.c **** 			{0xABu, 0x54u},
1284:.\Generated_Source\PSoC5/cyfitter_cfg.c **** 			{0xADu, 0x40u},
1285:.\Generated_Source\PSoC5/cyfitter_cfg.c **** 			{0xAEu, 0x08u},
1286:.\Generated_Source\PSoC5/cyfitter_cfg.c **** 			{0xAFu, 0x13u},
1287:.\Generated_Source\PSoC5/cyfitter_cfg.c **** 			{0xB0u, 0x08u},
1288:.\Generated_Source\PSoC5/cyfitter_cfg.c **** 			{0xB6u, 0x07u},
1289:.\Generated_Source\PSoC5/cyfitter_cfg.c **** 			{0xB7u, 0xFFu},
1290:.\Generated_Source\PSoC5/cyfitter_cfg.c **** 			{0xBAu, 0x80u},
1291:.\Generated_Source\PSoC5/cyfitter_cfg.c **** 			{0xBEu, 0x01u},
1292:.\Generated_Source\PSoC5/cyfitter_cfg.c **** 			{0xC0u, 0x15u},
1293:.\Generated_Source\PSoC5/cyfitter_cfg.c **** 			{0xC9u, 0xFFu},
1294:.\Generated_Source\PSoC5/cyfitter_cfg.c **** 			{0xCAu, 0xFFu},
1295:.\Generated_Source\PSoC5/cyfitter_cfg.c **** 			{0xCBu, 0xFFu},
1296:.\Generated_Source\PSoC5/cyfitter_cfg.c **** 			{0xCDu, 0x83u},
1297:.\Generated_Source\PSoC5/cyfitter_cfg.c **** 			{0xCEu, 0x03u},
1298:.\Generated_Source\PSoC5/cyfitter_cfg.c **** 			{0xCFu, 0x01u},
1299:.\Generated_Source\PSoC5/cyfitter_cfg.c **** 			{0xD0u, 0x18u},
1300:.\Generated_Source\PSoC5/cyfitter_cfg.c **** 			{0xD2u, 0x80u},
1301:.\Generated_Source\PSoC5/cyfitter_cfg.c **** 			{0xD8u, 0x04u},
1302:.\Generated_Source\PSoC5/cyfitter_cfg.c **** 			{0xD9u, 0x04u},
1303:.\Generated_Source\PSoC5/cyfitter_cfg.c **** 			{0xDAu, 0x04u},
1304:.\Generated_Source\PSoC5/cyfitter_cfg.c **** 			{0xDBu, 0x04u},
1305:.\Generated_Source\PSoC5/cyfitter_cfg.c **** 			{0xDCu, 0x22u},
1306:.\Generated_Source\PSoC5/cyfitter_cfg.c **** 			{0xDDu, 0x66u},
1307:.\Generated_Source\PSoC5/cyfitter_cfg.c **** 			{0xDFu, 0x01u},
1308:.\Generated_Source\PSoC5/cyfitter_cfg.c **** 			{0xE0u, 0x40u},
1309:.\Generated_Source\PSoC5/cyfitter_cfg.c **** 			{0xE2u, 0x40u},
1310:.\Generated_Source\PSoC5/cyfitter_cfg.c **** 			{0xE4u, 0x40u},
1311:.\Generated_Source\PSoC5/cyfitter_cfg.c **** 			{0xE5u, 0x40u},
1312:.\Generated_Source\PSoC5/cyfitter_cfg.c **** 			{0xE6u, 0x80u},
1313:.\Generated_Source\PSoC5/cyfitter_cfg.c **** 			{0xE8u, 0x80u},
1314:.\Generated_Source\PSoC5/cyfitter_cfg.c **** 			{0xEAu, 0x80u},
1315:.\Generated_Source\PSoC5/cyfitter_cfg.c **** 			{0xECu, 0x80u},
1316:.\Generated_Source\PSoC5/cyfitter_cfg.c **** 			{0xEEu, 0x80u},
1317:.\Generated_Source\PSoC5/cyfitter_cfg.c **** 			{0x00u, 0x80u},
1318:.\Generated_Source\PSoC5/cyfitter_cfg.c **** 			{0x01u, 0x02u},
1319:.\Generated_Source\PSoC5/cyfitter_cfg.c **** 			{0x02u, 0x20u},
1320:.\Generated_Source\PSoC5/cyfitter_cfg.c **** 			{0x04u, 0x02u},
1321:.\Generated_Source\PSoC5/cyfitter_cfg.c **** 			{0x05u, 0x40u},
1322:.\Generated_Source\PSoC5/cyfitter_cfg.c **** 			{0x06u, 0x8Au},
1323:.\Generated_Source\PSoC5/cyfitter_cfg.c **** 			{0x07u, 0x20u},
1324:.\Generated_Source\PSoC5/cyfitter_cfg.c **** 			{0x0Bu, 0x88u},
1325:.\Generated_Source\PSoC5/cyfitter_cfg.c **** 			{0x0Cu, 0x20u},
1326:.\Generated_Source\PSoC5/cyfitter_cfg.c **** 			{0x0Du, 0x41u},
1327:.\Generated_Source\PSoC5/cyfitter_cfg.c **** 			{0x10u, 0x20u},
1328:.\Generated_Source\PSoC5/cyfitter_cfg.c **** 			{0x12u, 0x05u},
1329:.\Generated_Source\PSoC5/cyfitter_cfg.c **** 			{0x13u, 0x02u},
1330:.\Generated_Source\PSoC5/cyfitter_cfg.c **** 			{0x15u, 0x04u},
1331:.\Generated_Source\PSoC5/cyfitter_cfg.c **** 			{0x16u, 0x04u},
1332:.\Generated_Source\PSoC5/cyfitter_cfg.c **** 			{0x17u, 0x42u},
1333:.\Generated_Source\PSoC5/cyfitter_cfg.c **** 			{0x1Bu, 0x08u},
1334:.\Generated_Source\PSoC5/cyfitter_cfg.c **** 			{0x1Du, 0x40u},
1335:.\Generated_Source\PSoC5/cyfitter_cfg.c **** 			{0x1Eu, 0x80u},
1336:.\Generated_Source\PSoC5/cyfitter_cfg.c **** 			{0x20u, 0x04u},
1337:.\Generated_Source\PSoC5/cyfitter_cfg.c **** 			{0x27u, 0x02u},
ARM GAS  C:\Users\xavieran\AppData\Local\Temp\ccykvWSD.s 			page 35


1338:.\Generated_Source\PSoC5/cyfitter_cfg.c **** 			{0x28u, 0x80u},
1339:.\Generated_Source\PSoC5/cyfitter_cfg.c **** 			{0x2Au, 0x44u},
1340:.\Generated_Source\PSoC5/cyfitter_cfg.c **** 			{0x2Cu, 0x20u},
1341:.\Generated_Source\PSoC5/cyfitter_cfg.c **** 			{0x2Eu, 0x80u},
1342:.\Generated_Source\PSoC5/cyfitter_cfg.c **** 			{0x2Fu, 0x44u},
1343:.\Generated_Source\PSoC5/cyfitter_cfg.c **** 			{0x32u, 0x80u},
1344:.\Generated_Source\PSoC5/cyfitter_cfg.c **** 			{0x34u, 0x40u},
1345:.\Generated_Source\PSoC5/cyfitter_cfg.c **** 			{0x36u, 0x20u},
1346:.\Generated_Source\PSoC5/cyfitter_cfg.c **** 			{0x37u, 0x22u},
1347:.\Generated_Source\PSoC5/cyfitter_cfg.c **** 			{0x38u, 0x02u},
1348:.\Generated_Source\PSoC5/cyfitter_cfg.c **** 			{0x39u, 0x84u},
1349:.\Generated_Source\PSoC5/cyfitter_cfg.c **** 			{0x3Au, 0x01u},
1350:.\Generated_Source\PSoC5/cyfitter_cfg.c **** 			{0x3Bu, 0x88u},
1351:.\Generated_Source\PSoC5/cyfitter_cfg.c **** 			{0x3Fu, 0x01u},
1352:.\Generated_Source\PSoC5/cyfitter_cfg.c **** 			{0x41u, 0x01u},
1353:.\Generated_Source\PSoC5/cyfitter_cfg.c **** 			{0x43u, 0x42u},
1354:.\Generated_Source\PSoC5/cyfitter_cfg.c **** 			{0x44u, 0x40u},
1355:.\Generated_Source\PSoC5/cyfitter_cfg.c **** 			{0x46u, 0x40u},
1356:.\Generated_Source\PSoC5/cyfitter_cfg.c **** 			{0x47u, 0x40u},
1357:.\Generated_Source\PSoC5/cyfitter_cfg.c **** 			{0x4Du, 0x40u},
1358:.\Generated_Source\PSoC5/cyfitter_cfg.c **** 			{0x59u, 0xA0u},
1359:.\Generated_Source\PSoC5/cyfitter_cfg.c **** 			{0x77u, 0x40u},
1360:.\Generated_Source\PSoC5/cyfitter_cfg.c **** 			{0x79u, 0x40u},
1361:.\Generated_Source\PSoC5/cyfitter_cfg.c **** 			{0x7Bu, 0x02u},
1362:.\Generated_Source\PSoC5/cyfitter_cfg.c **** 			{0x85u, 0x20u},
1363:.\Generated_Source\PSoC5/cyfitter_cfg.c **** 			{0x8Fu, 0x01u},
1364:.\Generated_Source\PSoC5/cyfitter_cfg.c **** 			{0x93u, 0x89u},
1365:.\Generated_Source\PSoC5/cyfitter_cfg.c **** 			{0x94u, 0x04u},
1366:.\Generated_Source\PSoC5/cyfitter_cfg.c **** 			{0x96u, 0x02u},
1367:.\Generated_Source\PSoC5/cyfitter_cfg.c **** 			{0x9Au, 0x44u},
1368:.\Generated_Source\PSoC5/cyfitter_cfg.c **** 			{0x9Eu, 0x02u},
1369:.\Generated_Source\PSoC5/cyfitter_cfg.c **** 			{0x9Fu, 0x42u},
1370:.\Generated_Source\PSoC5/cyfitter_cfg.c **** 			{0xA0u, 0x68u},
1371:.\Generated_Source\PSoC5/cyfitter_cfg.c **** 			{0xA3u, 0x02u},
1372:.\Generated_Source\PSoC5/cyfitter_cfg.c **** 			{0xA5u, 0x20u},
1373:.\Generated_Source\PSoC5/cyfitter_cfg.c **** 			{0xA6u, 0x60u},
1374:.\Generated_Source\PSoC5/cyfitter_cfg.c **** 			{0xA7u, 0x01u},
1375:.\Generated_Source\PSoC5/cyfitter_cfg.c **** 			{0xA8u, 0x80u},
1376:.\Generated_Source\PSoC5/cyfitter_cfg.c **** 			{0xADu, 0x40u},
1377:.\Generated_Source\PSoC5/cyfitter_cfg.c **** 			{0xAFu, 0x0Cu},
1378:.\Generated_Source\PSoC5/cyfitter_cfg.c **** 			{0xB0u, 0x04u},
1379:.\Generated_Source\PSoC5/cyfitter_cfg.c **** 			{0xB4u, 0x10u},
1380:.\Generated_Source\PSoC5/cyfitter_cfg.c **** 			{0xB7u, 0x0Cu},
1381:.\Generated_Source\PSoC5/cyfitter_cfg.c **** 			{0xC0u, 0xFDu},
1382:.\Generated_Source\PSoC5/cyfitter_cfg.c **** 			{0xC2u, 0xDAu},
1383:.\Generated_Source\PSoC5/cyfitter_cfg.c **** 			{0xC4u, 0xFFu},
1384:.\Generated_Source\PSoC5/cyfitter_cfg.c **** 			{0xCAu, 0xFBu},
1385:.\Generated_Source\PSoC5/cyfitter_cfg.c **** 			{0xCCu, 0xB8u},
1386:.\Generated_Source\PSoC5/cyfitter_cfg.c **** 			{0xCEu, 0x8Bu},
1387:.\Generated_Source\PSoC5/cyfitter_cfg.c **** 			{0xD0u, 0x19u},
1388:.\Generated_Source\PSoC5/cyfitter_cfg.c **** 			{0xD2u, 0x10u},
1389:.\Generated_Source\PSoC5/cyfitter_cfg.c **** 			{0xD6u, 0x0Cu},
1390:.\Generated_Source\PSoC5/cyfitter_cfg.c **** 			{0xE2u, 0x40u},
1391:.\Generated_Source\PSoC5/cyfitter_cfg.c **** 			{0xE6u, 0x02u},
1392:.\Generated_Source\PSoC5/cyfitter_cfg.c **** 			{0xE8u, 0x10u},
1393:.\Generated_Source\PSoC5/cyfitter_cfg.c **** 			{0xECu, 0x90u},
1394:.\Generated_Source\PSoC5/cyfitter_cfg.c **** 			{0xEEu, 0x01u},
ARM GAS  C:\Users\xavieran\AppData\Local\Temp\ccykvWSD.s 			page 36


1395:.\Generated_Source\PSoC5/cyfitter_cfg.c **** 			{0x84u, 0x01u},
1396:.\Generated_Source\PSoC5/cyfitter_cfg.c **** 			{0x8Fu, 0x01u},
1397:.\Generated_Source\PSoC5/cyfitter_cfg.c **** 			{0x95u, 0x02u},
1398:.\Generated_Source\PSoC5/cyfitter_cfg.c **** 			{0xA4u, 0x01u},
1399:.\Generated_Source\PSoC5/cyfitter_cfg.c **** 			{0xADu, 0x02u},
1400:.\Generated_Source\PSoC5/cyfitter_cfg.c **** 			{0xB3u, 0x02u},
1401:.\Generated_Source\PSoC5/cyfitter_cfg.c **** 			{0xB5u, 0x01u},
1402:.\Generated_Source\PSoC5/cyfitter_cfg.c **** 			{0xB6u, 0x01u},
1403:.\Generated_Source\PSoC5/cyfitter_cfg.c **** 			{0xB8u, 0x80u},
1404:.\Generated_Source\PSoC5/cyfitter_cfg.c **** 			{0xB9u, 0x08u},
1405:.\Generated_Source\PSoC5/cyfitter_cfg.c **** 			{0xBFu, 0x04u},
1406:.\Generated_Source\PSoC5/cyfitter_cfg.c **** 			{0xC0u, 0x32u},
1407:.\Generated_Source\PSoC5/cyfitter_cfg.c **** 			{0xC5u, 0x50u},
1408:.\Generated_Source\PSoC5/cyfitter_cfg.c **** 			{0xC7u, 0x02u},
1409:.\Generated_Source\PSoC5/cyfitter_cfg.c **** 			{0xC8u, 0x12u},
1410:.\Generated_Source\PSoC5/cyfitter_cfg.c **** 			{0xC9u, 0xFFu},
1411:.\Generated_Source\PSoC5/cyfitter_cfg.c **** 			{0xCAu, 0xFFu},
1412:.\Generated_Source\PSoC5/cyfitter_cfg.c **** 			{0xCBu, 0xFFu},
1413:.\Generated_Source\PSoC5/cyfitter_cfg.c **** 			{0xCCu, 0x42u},
1414:.\Generated_Source\PSoC5/cyfitter_cfg.c **** 			{0xCDu, 0xA0u},
1415:.\Generated_Source\PSoC5/cyfitter_cfg.c **** 			{0xCEu, 0x70u},
1416:.\Generated_Source\PSoC5/cyfitter_cfg.c **** 			{0xD0u, 0x08u},
1417:.\Generated_Source\PSoC5/cyfitter_cfg.c **** 			{0xD1u, 0x10u},
1418:.\Generated_Source\PSoC5/cyfitter_cfg.c **** 			{0xD2u, 0x80u},
1419:.\Generated_Source\PSoC5/cyfitter_cfg.c **** 			{0xD8u, 0x04u},
1420:.\Generated_Source\PSoC5/cyfitter_cfg.c **** 			{0xD9u, 0x04u},
1421:.\Generated_Source\PSoC5/cyfitter_cfg.c **** 			{0xDAu, 0x04u},
1422:.\Generated_Source\PSoC5/cyfitter_cfg.c **** 			{0xDBu, 0x04u},
1423:.\Generated_Source\PSoC5/cyfitter_cfg.c **** 			{0xDCu, 0x42u},
1424:.\Generated_Source\PSoC5/cyfitter_cfg.c **** 			{0xDDu, 0x42u},
1425:.\Generated_Source\PSoC5/cyfitter_cfg.c **** 			{0xDFu, 0x01u},
1426:.\Generated_Source\PSoC5/cyfitter_cfg.c **** 			{0xE1u, 0x48u},
1427:.\Generated_Source\PSoC5/cyfitter_cfg.c **** 			{0xE2u, 0x40u},
1428:.\Generated_Source\PSoC5/cyfitter_cfg.c **** 			{0xE3u, 0x48u},
1429:.\Generated_Source\PSoC5/cyfitter_cfg.c **** 			{0xE4u, 0x80u},
1430:.\Generated_Source\PSoC5/cyfitter_cfg.c **** 			{0xE5u, 0x48u},
1431:.\Generated_Source\PSoC5/cyfitter_cfg.c **** 			{0xE6u, 0x80u},
1432:.\Generated_Source\PSoC5/cyfitter_cfg.c **** 			{0xE7u, 0x48u},
1433:.\Generated_Source\PSoC5/cyfitter_cfg.c **** 			{0x01u, 0x08u},
1434:.\Generated_Source\PSoC5/cyfitter_cfg.c **** 			{0x05u, 0x02u},
1435:.\Generated_Source\PSoC5/cyfitter_cfg.c **** 			{0x06u, 0x04u},
1436:.\Generated_Source\PSoC5/cyfitter_cfg.c **** 			{0x07u, 0x12u},
1437:.\Generated_Source\PSoC5/cyfitter_cfg.c **** 			{0x08u, 0x02u},
1438:.\Generated_Source\PSoC5/cyfitter_cfg.c **** 			{0x0Bu, 0x80u},
1439:.\Generated_Source\PSoC5/cyfitter_cfg.c **** 			{0x0Eu, 0x25u},
1440:.\Generated_Source\PSoC5/cyfitter_cfg.c **** 			{0x0Fu, 0x80u},
1441:.\Generated_Source\PSoC5/cyfitter_cfg.c **** 			{0x12u, 0x20u},
1442:.\Generated_Source\PSoC5/cyfitter_cfg.c **** 			{0x14u, 0x12u},
1443:.\Generated_Source\PSoC5/cyfitter_cfg.c **** 			{0x17u, 0x01u},
1444:.\Generated_Source\PSoC5/cyfitter_cfg.c **** 			{0x19u, 0x80u},
1445:.\Generated_Source\PSoC5/cyfitter_cfg.c **** 			{0x1Cu, 0x02u},
1446:.\Generated_Source\PSoC5/cyfitter_cfg.c **** 			{0x1Eu, 0x21u},
1447:.\Generated_Source\PSoC5/cyfitter_cfg.c **** 			{0x1Fu, 0x04u},
1448:.\Generated_Source\PSoC5/cyfitter_cfg.c **** 			{0x21u, 0x04u},
1449:.\Generated_Source\PSoC5/cyfitter_cfg.c **** 			{0x23u, 0x08u},
1450:.\Generated_Source\PSoC5/cyfitter_cfg.c **** 			{0x27u, 0x01u},
1451:.\Generated_Source\PSoC5/cyfitter_cfg.c **** 			{0x2Bu, 0x01u},
ARM GAS  C:\Users\xavieran\AppData\Local\Temp\ccykvWSD.s 			page 37


1452:.\Generated_Source\PSoC5/cyfitter_cfg.c **** 			{0x2Cu, 0x32u},
1453:.\Generated_Source\PSoC5/cyfitter_cfg.c **** 			{0x2Du, 0x08u},
1454:.\Generated_Source\PSoC5/cyfitter_cfg.c **** 			{0x2Fu, 0x48u},
1455:.\Generated_Source\PSoC5/cyfitter_cfg.c **** 			{0x30u, 0x08u},
1456:.\Generated_Source\PSoC5/cyfitter_cfg.c **** 			{0x35u, 0x40u},
1457:.\Generated_Source\PSoC5/cyfitter_cfg.c **** 			{0x36u, 0x20u},
1458:.\Generated_Source\PSoC5/cyfitter_cfg.c **** 			{0x37u, 0x16u},
1459:.\Generated_Source\PSoC5/cyfitter_cfg.c **** 			{0x3Bu, 0x40u},
1460:.\Generated_Source\PSoC5/cyfitter_cfg.c **** 			{0x3Cu, 0x02u},
1461:.\Generated_Source\PSoC5/cyfitter_cfg.c **** 			{0x3Du, 0x28u},
1462:.\Generated_Source\PSoC5/cyfitter_cfg.c **** 			{0x3Fu, 0x80u},
1463:.\Generated_Source\PSoC5/cyfitter_cfg.c **** 			{0x40u, 0x04u},
1464:.\Generated_Source\PSoC5/cyfitter_cfg.c **** 			{0x41u, 0x04u},
1465:.\Generated_Source\PSoC5/cyfitter_cfg.c **** 			{0x45u, 0x01u},
1466:.\Generated_Source\PSoC5/cyfitter_cfg.c **** 			{0x47u, 0x40u},
1467:.\Generated_Source\PSoC5/cyfitter_cfg.c **** 			{0x48u, 0x40u},
1468:.\Generated_Source\PSoC5/cyfitter_cfg.c **** 			{0x4Du, 0x05u},
1469:.\Generated_Source\PSoC5/cyfitter_cfg.c **** 			{0x50u, 0x08u},
1470:.\Generated_Source\PSoC5/cyfitter_cfg.c **** 			{0x55u, 0x01u},
1471:.\Generated_Source\PSoC5/cyfitter_cfg.c **** 			{0x57u, 0x02u},
1472:.\Generated_Source\PSoC5/cyfitter_cfg.c **** 			{0x5Du, 0x05u},
1473:.\Generated_Source\PSoC5/cyfitter_cfg.c **** 			{0x5Eu, 0x80u},
1474:.\Generated_Source\PSoC5/cyfitter_cfg.c **** 			{0x73u, 0x40u},
1475:.\Generated_Source\PSoC5/cyfitter_cfg.c **** 			{0x8Cu, 0x04u},
1476:.\Generated_Source\PSoC5/cyfitter_cfg.c **** 			{0x8Du, 0x14u},
1477:.\Generated_Source\PSoC5/cyfitter_cfg.c **** 			{0x8Eu, 0x06u},
1478:.\Generated_Source\PSoC5/cyfitter_cfg.c **** 			{0x8Fu, 0x01u},
1479:.\Generated_Source\PSoC5/cyfitter_cfg.c **** 			{0x90u, 0x08u},
1480:.\Generated_Source\PSoC5/cyfitter_cfg.c **** 			{0x92u, 0x04u},
1481:.\Generated_Source\PSoC5/cyfitter_cfg.c **** 			{0x93u, 0x80u},
1482:.\Generated_Source\PSoC5/cyfitter_cfg.c **** 			{0x94u, 0x10u},
1483:.\Generated_Source\PSoC5/cyfitter_cfg.c **** 			{0x96u, 0x02u},
1484:.\Generated_Source\PSoC5/cyfitter_cfg.c **** 			{0x97u, 0x09u},
1485:.\Generated_Source\PSoC5/cyfitter_cfg.c **** 			{0x99u, 0x0Au},
1486:.\Generated_Source\PSoC5/cyfitter_cfg.c **** 			{0x9Au, 0x40u},
1487:.\Generated_Source\PSoC5/cyfitter_cfg.c **** 			{0x9Cu, 0x84u},
1488:.\Generated_Source\PSoC5/cyfitter_cfg.c **** 			{0x9Du, 0x80u},
1489:.\Generated_Source\PSoC5/cyfitter_cfg.c **** 			{0x9Fu, 0x02u},
1490:.\Generated_Source\PSoC5/cyfitter_cfg.c **** 			{0xA0u, 0x02u},
1491:.\Generated_Source\PSoC5/cyfitter_cfg.c **** 			{0xA3u, 0x40u},
1492:.\Generated_Source\PSoC5/cyfitter_cfg.c **** 			{0xA4u, 0x01u},
1493:.\Generated_Source\PSoC5/cyfitter_cfg.c **** 			{0xA5u, 0x20u},
1494:.\Generated_Source\PSoC5/cyfitter_cfg.c **** 			{0xA6u, 0x20u},
1495:.\Generated_Source\PSoC5/cyfitter_cfg.c **** 			{0xABu, 0x44u},
1496:.\Generated_Source\PSoC5/cyfitter_cfg.c **** 			{0xACu, 0x10u},
1497:.\Generated_Source\PSoC5/cyfitter_cfg.c **** 			{0xADu, 0x02u},
1498:.\Generated_Source\PSoC5/cyfitter_cfg.c **** 			{0xAEu, 0x04u},
1499:.\Generated_Source\PSoC5/cyfitter_cfg.c **** 			{0xB0u, 0x41u},
1500:.\Generated_Source\PSoC5/cyfitter_cfg.c **** 			{0xB1u, 0x40u},
1501:.\Generated_Source\PSoC5/cyfitter_cfg.c **** 			{0xB2u, 0x04u},
1502:.\Generated_Source\PSoC5/cyfitter_cfg.c **** 			{0xB7u, 0x40u},
1503:.\Generated_Source\PSoC5/cyfitter_cfg.c **** 			{0xC0u, 0xF4u},
1504:.\Generated_Source\PSoC5/cyfitter_cfg.c **** 			{0xC2u, 0xF0u},
1505:.\Generated_Source\PSoC5/cyfitter_cfg.c **** 			{0xC4u, 0xB4u},
1506:.\Generated_Source\PSoC5/cyfitter_cfg.c **** 			{0xCAu, 0xF8u},
1507:.\Generated_Source\PSoC5/cyfitter_cfg.c **** 			{0xCCu, 0xF2u},
1508:.\Generated_Source\PSoC5/cyfitter_cfg.c **** 			{0xCEu, 0xF8u},
ARM GAS  C:\Users\xavieran\AppData\Local\Temp\ccykvWSD.s 			page 38


1509:.\Generated_Source\PSoC5/cyfitter_cfg.c **** 			{0xD0u, 0x96u},
1510:.\Generated_Source\PSoC5/cyfitter_cfg.c **** 			{0xD6u, 0xD0u},
1511:.\Generated_Source\PSoC5/cyfitter_cfg.c **** 			{0xE2u, 0x42u},
1512:.\Generated_Source\PSoC5/cyfitter_cfg.c **** 			{0xE4u, 0x50u},
1513:.\Generated_Source\PSoC5/cyfitter_cfg.c **** 			{0xEAu, 0x80u},
1514:.\Generated_Source\PSoC5/cyfitter_cfg.c **** 			{0xECu, 0x40u},
1515:.\Generated_Source\PSoC5/cyfitter_cfg.c **** 			{0xEEu, 0xA0u},
1516:.\Generated_Source\PSoC5/cyfitter_cfg.c **** 			{0x00u, 0x06u},
1517:.\Generated_Source\PSoC5/cyfitter_cfg.c **** 			{0x04u, 0x01u},
1518:.\Generated_Source\PSoC5/cyfitter_cfg.c **** 			{0x08u, 0x02u},
1519:.\Generated_Source\PSoC5/cyfitter_cfg.c **** 			{0x0Cu, 0x01u},
1520:.\Generated_Source\PSoC5/cyfitter_cfg.c **** 			{0x0Eu, 0x1Eu},
1521:.\Generated_Source\PSoC5/cyfitter_cfg.c **** 			{0x10u, 0x1Cu},
1522:.\Generated_Source\PSoC5/cyfitter_cfg.c **** 			{0x12u, 0x02u},
1523:.\Generated_Source\PSoC5/cyfitter_cfg.c **** 			{0x14u, 0x1Fu},
1524:.\Generated_Source\PSoC5/cyfitter_cfg.c **** 			{0x18u, 0x02u},
1525:.\Generated_Source\PSoC5/cyfitter_cfg.c **** 			{0x1Au, 0x18u},
1526:.\Generated_Source\PSoC5/cyfitter_cfg.c **** 			{0x1Cu, 0x18u},
1527:.\Generated_Source\PSoC5/cyfitter_cfg.c **** 			{0x1Eu, 0x06u},
1528:.\Generated_Source\PSoC5/cyfitter_cfg.c **** 			{0x20u, 0x12u},
1529:.\Generated_Source\PSoC5/cyfitter_cfg.c **** 			{0x22u, 0x08u},
1530:.\Generated_Source\PSoC5/cyfitter_cfg.c **** 			{0x24u, 0x04u},
1531:.\Generated_Source\PSoC5/cyfitter_cfg.c **** 			{0x2Cu, 0x0Au},
1532:.\Generated_Source\PSoC5/cyfitter_cfg.c **** 			{0x2Eu, 0x10u},
1533:.\Generated_Source\PSoC5/cyfitter_cfg.c **** 			{0x34u, 0x1Fu},
1534:.\Generated_Source\PSoC5/cyfitter_cfg.c **** 			{0x38u, 0x20u},
1535:.\Generated_Source\PSoC5/cyfitter_cfg.c **** 			{0x42u, 0x04u},
1536:.\Generated_Source\PSoC5/cyfitter_cfg.c **** 			{0x47u, 0x0Eu},
1537:.\Generated_Source\PSoC5/cyfitter_cfg.c **** 			{0x48u, 0x10u},
1538:.\Generated_Source\PSoC5/cyfitter_cfg.c **** 			{0x49u, 0xFFu},
1539:.\Generated_Source\PSoC5/cyfitter_cfg.c **** 			{0x4Au, 0xFFu},
1540:.\Generated_Source\PSoC5/cyfitter_cfg.c **** 			{0x4Bu, 0xFFu},
1541:.\Generated_Source\PSoC5/cyfitter_cfg.c **** 			{0x4Fu, 0x83u},
1542:.\Generated_Source\PSoC5/cyfitter_cfg.c **** 			{0x58u, 0x04u},
1543:.\Generated_Source\PSoC5/cyfitter_cfg.c **** 			{0x5Au, 0x04u},
1544:.\Generated_Source\PSoC5/cyfitter_cfg.c **** 			{0x5Bu, 0x04u},
1545:.\Generated_Source\PSoC5/cyfitter_cfg.c **** 			{0x5Cu, 0x02u},
1546:.\Generated_Source\PSoC5/cyfitter_cfg.c **** 			{0x5Du, 0x08u},
1547:.\Generated_Source\PSoC5/cyfitter_cfg.c **** 			{0x5Fu, 0x11u},
1548:.\Generated_Source\PSoC5/cyfitter_cfg.c **** 			{0x81u, 0x3Au},
1549:.\Generated_Source\PSoC5/cyfitter_cfg.c **** 			{0x82u, 0x02u},
1550:.\Generated_Source\PSoC5/cyfitter_cfg.c **** 			{0x83u, 0x04u},
1551:.\Generated_Source\PSoC5/cyfitter_cfg.c **** 			{0x84u, 0x01u},
1552:.\Generated_Source\PSoC5/cyfitter_cfg.c **** 			{0x85u, 0x03u},
1553:.\Generated_Source\PSoC5/cyfitter_cfg.c **** 			{0x88u, 0x01u},
1554:.\Generated_Source\PSoC5/cyfitter_cfg.c **** 			{0x89u, 0x01u},
1555:.\Generated_Source\PSoC5/cyfitter_cfg.c **** 			{0x8Du, 0x08u},
1556:.\Generated_Source\PSoC5/cyfitter_cfg.c **** 			{0x8Fu, 0x07u},
1557:.\Generated_Source\PSoC5/cyfitter_cfg.c **** 			{0x90u, 0x01u},
1558:.\Generated_Source\PSoC5/cyfitter_cfg.c **** 			{0x91u, 0x10u},
1559:.\Generated_Source\PSoC5/cyfitter_cfg.c **** 			{0x93u, 0x07u},
1560:.\Generated_Source\PSoC5/cyfitter_cfg.c **** 			{0x95u, 0x01u},
1561:.\Generated_Source\PSoC5/cyfitter_cfg.c **** 			{0x99u, 0x40u},
1562:.\Generated_Source\PSoC5/cyfitter_cfg.c **** 			{0x9Bu, 0x07u},
1563:.\Generated_Source\PSoC5/cyfitter_cfg.c **** 			{0x9Du, 0x03u},
1564:.\Generated_Source\PSoC5/cyfitter_cfg.c **** 			{0x9Eu, 0x01u},
1565:.\Generated_Source\PSoC5/cyfitter_cfg.c **** 			{0xA0u, 0x01u},
ARM GAS  C:\Users\xavieran\AppData\Local\Temp\ccykvWSD.s 			page 39


1566:.\Generated_Source\PSoC5/cyfitter_cfg.c **** 			{0xA1u, 0x05u},
1567:.\Generated_Source\PSoC5/cyfitter_cfg.c **** 			{0xA3u, 0x78u},
1568:.\Generated_Source\PSoC5/cyfitter_cfg.c **** 			{0xA5u, 0x7Fu},
1569:.\Generated_Source\PSoC5/cyfitter_cfg.c **** 			{0xA9u, 0x22u},
1570:.\Generated_Source\PSoC5/cyfitter_cfg.c **** 			{0xABu, 0x05u},
1571:.\Generated_Source\PSoC5/cyfitter_cfg.c **** 			{0xACu, 0x01u},
1572:.\Generated_Source\PSoC5/cyfitter_cfg.c **** 			{0xADu, 0x01u},
1573:.\Generated_Source\PSoC5/cyfitter_cfg.c **** 			{0xB6u, 0x03u},
1574:.\Generated_Source\PSoC5/cyfitter_cfg.c **** 			{0xB7u, 0x7Fu},
1575:.\Generated_Source\PSoC5/cyfitter_cfg.c **** 			{0xBFu, 0x40u},
1576:.\Generated_Source\PSoC5/cyfitter_cfg.c **** 			{0xC0u, 0x65u},
1577:.\Generated_Source\PSoC5/cyfitter_cfg.c **** 			{0xC4u, 0x02u},
1578:.\Generated_Source\PSoC5/cyfitter_cfg.c **** 			{0xC5u, 0x0Bu},
1579:.\Generated_Source\PSoC5/cyfitter_cfg.c **** 			{0xC6u, 0x0Du},
1580:.\Generated_Source\PSoC5/cyfitter_cfg.c **** 			{0xC8u, 0x05u},
1581:.\Generated_Source\PSoC5/cyfitter_cfg.c **** 			{0xC9u, 0xFFu},
1582:.\Generated_Source\PSoC5/cyfitter_cfg.c **** 			{0xCAu, 0x7Fu},
1583:.\Generated_Source\PSoC5/cyfitter_cfg.c **** 			{0xCBu, 0xFFu},
1584:.\Generated_Source\PSoC5/cyfitter_cfg.c **** 			{0xCCu, 0x42u},
1585:.\Generated_Source\PSoC5/cyfitter_cfg.c **** 			{0xCDu, 0xA0u},
1586:.\Generated_Source\PSoC5/cyfitter_cfg.c **** 			{0xCEu, 0x70u},
1587:.\Generated_Source\PSoC5/cyfitter_cfg.c **** 			{0xD0u, 0x0Cu},
1588:.\Generated_Source\PSoC5/cyfitter_cfg.c **** 			{0xD8u, 0x04u},
1589:.\Generated_Source\PSoC5/cyfitter_cfg.c **** 			{0xD9u, 0x04u},
1590:.\Generated_Source\PSoC5/cyfitter_cfg.c **** 			{0xDAu, 0x04u},
1591:.\Generated_Source\PSoC5/cyfitter_cfg.c **** 			{0xDCu, 0x02u},
1592:.\Generated_Source\PSoC5/cyfitter_cfg.c **** 			{0xDDu, 0x02u},
1593:.\Generated_Source\PSoC5/cyfitter_cfg.c **** 			{0xDFu, 0x01u},
1594:.\Generated_Source\PSoC5/cyfitter_cfg.c **** 			{0xE1u, 0x09u},
1595:.\Generated_Source\PSoC5/cyfitter_cfg.c **** 			{0xE2u, 0x40u},
1596:.\Generated_Source\PSoC5/cyfitter_cfg.c **** 			{0xE3u, 0x09u},
1597:.\Generated_Source\PSoC5/cyfitter_cfg.c **** 			{0xE4u, 0x30u},
1598:.\Generated_Source\PSoC5/cyfitter_cfg.c **** 			{0xE5u, 0x09u},
1599:.\Generated_Source\PSoC5/cyfitter_cfg.c **** 			{0x00u, 0x16u},
1600:.\Generated_Source\PSoC5/cyfitter_cfg.c **** 			{0x01u, 0x80u},
1601:.\Generated_Source\PSoC5/cyfitter_cfg.c **** 			{0x04u, 0x12u},
1602:.\Generated_Source\PSoC5/cyfitter_cfg.c **** 			{0x06u, 0x20u},
1603:.\Generated_Source\PSoC5/cyfitter_cfg.c **** 			{0x0Au, 0x20u},
1604:.\Generated_Source\PSoC5/cyfitter_cfg.c **** 			{0x0Bu, 0x89u},
1605:.\Generated_Source\PSoC5/cyfitter_cfg.c **** 			{0x0Eu, 0x02u},
1606:.\Generated_Source\PSoC5/cyfitter_cfg.c **** 			{0x0Fu, 0xC0u},
1607:.\Generated_Source\PSoC5/cyfitter_cfg.c **** 			{0x11u, 0x04u},
1608:.\Generated_Source\PSoC5/cyfitter_cfg.c **** 			{0x13u, 0x42u},
1609:.\Generated_Source\PSoC5/cyfitter_cfg.c **** 			{0x16u, 0x02u},
1610:.\Generated_Source\PSoC5/cyfitter_cfg.c **** 			{0x17u, 0x02u},
1611:.\Generated_Source\PSoC5/cyfitter_cfg.c **** 			{0x18u, 0x0Cu},
1612:.\Generated_Source\PSoC5/cyfitter_cfg.c **** 			{0x1Eu, 0x02u},
1613:.\Generated_Source\PSoC5/cyfitter_cfg.c **** 			{0x1Fu, 0x40u},
1614:.\Generated_Source\PSoC5/cyfitter_cfg.c **** 			{0x24u, 0x02u},
1615:.\Generated_Source\PSoC5/cyfitter_cfg.c **** 			{0x2Cu, 0x02u},
1616:.\Generated_Source\PSoC5/cyfitter_cfg.c **** 			{0x2Du, 0x08u},
1617:.\Generated_Source\PSoC5/cyfitter_cfg.c **** 			{0x2Eu, 0x20u},
1618:.\Generated_Source\PSoC5/cyfitter_cfg.c **** 			{0x2Fu, 0x44u},
1619:.\Generated_Source\PSoC5/cyfitter_cfg.c **** 			{0x34u, 0x04u},
1620:.\Generated_Source\PSoC5/cyfitter_cfg.c **** 			{0x35u, 0x40u},
1621:.\Generated_Source\PSoC5/cyfitter_cfg.c **** 			{0x36u, 0x20u},
1622:.\Generated_Source\PSoC5/cyfitter_cfg.c **** 			{0x37u, 0x02u},
ARM GAS  C:\Users\xavieran\AppData\Local\Temp\ccykvWSD.s 			page 40


1623:.\Generated_Source\PSoC5/cyfitter_cfg.c **** 			{0x3Eu, 0x14u},
1624:.\Generated_Source\PSoC5/cyfitter_cfg.c **** 			{0x3Fu, 0x81u},
1625:.\Generated_Source\PSoC5/cyfitter_cfg.c **** 			{0x40u, 0x80u},
1626:.\Generated_Source\PSoC5/cyfitter_cfg.c **** 			{0x45u, 0x20u},
1627:.\Generated_Source\PSoC5/cyfitter_cfg.c **** 			{0x4Du, 0x04u},
1628:.\Generated_Source\PSoC5/cyfitter_cfg.c **** 			{0x4Eu, 0x05u},
1629:.\Generated_Source\PSoC5/cyfitter_cfg.c **** 			{0x52u, 0x04u},
1630:.\Generated_Source\PSoC5/cyfitter_cfg.c **** 			{0x54u, 0x40u},
1631:.\Generated_Source\PSoC5/cyfitter_cfg.c **** 			{0x56u, 0x40u},
1632:.\Generated_Source\PSoC5/cyfitter_cfg.c **** 			{0x58u, 0x10u},
1633:.\Generated_Source\PSoC5/cyfitter_cfg.c **** 			{0x5Bu, 0x45u},
1634:.\Generated_Source\PSoC5/cyfitter_cfg.c **** 			{0x60u, 0x08u},
1635:.\Generated_Source\PSoC5/cyfitter_cfg.c **** 			{0x62u, 0x0Au},
1636:.\Generated_Source\PSoC5/cyfitter_cfg.c **** 			{0x63u, 0x02u},
1637:.\Generated_Source\PSoC5/cyfitter_cfg.c **** 			{0x7Bu, 0x08u},
1638:.\Generated_Source\PSoC5/cyfitter_cfg.c **** 			{0x80u, 0x02u},
1639:.\Generated_Source\PSoC5/cyfitter_cfg.c **** 			{0x81u, 0x08u},
1640:.\Generated_Source\PSoC5/cyfitter_cfg.c **** 			{0x82u, 0x16u},
1641:.\Generated_Source\PSoC5/cyfitter_cfg.c **** 			{0x87u, 0x45u},
1642:.\Generated_Source\PSoC5/cyfitter_cfg.c **** 			{0x8Au, 0x02u},
1643:.\Generated_Source\PSoC5/cyfitter_cfg.c **** 			{0x8Bu, 0x01u},
1644:.\Generated_Source\PSoC5/cyfitter_cfg.c **** 			{0x8Cu, 0x08u},
1645:.\Generated_Source\PSoC5/cyfitter_cfg.c **** 			{0x8Eu, 0x18u},
1646:.\Generated_Source\PSoC5/cyfitter_cfg.c **** 			{0x8Fu, 0x08u},
1647:.\Generated_Source\PSoC5/cyfitter_cfg.c **** 			{0xC0u, 0x7Fu},
1648:.\Generated_Source\PSoC5/cyfitter_cfg.c **** 			{0xC2u, 0x9Fu},
1649:.\Generated_Source\PSoC5/cyfitter_cfg.c **** 			{0xC4u, 0x9Du},
1650:.\Generated_Source\PSoC5/cyfitter_cfg.c **** 			{0xCAu, 0xF0u},
1651:.\Generated_Source\PSoC5/cyfitter_cfg.c **** 			{0xCCu, 0xF0u},
1652:.\Generated_Source\PSoC5/cyfitter_cfg.c **** 			{0xCEu, 0xF0u},
1653:.\Generated_Source\PSoC5/cyfitter_cfg.c **** 			{0xD0u, 0x21u},
1654:.\Generated_Source\PSoC5/cyfitter_cfg.c **** 			{0xD2u, 0x30u},
1655:.\Generated_Source\PSoC5/cyfitter_cfg.c **** 			{0xD6u, 0x0Fu},
1656:.\Generated_Source\PSoC5/cyfitter_cfg.c **** 			{0xD8u, 0x0Fu},
1657:.\Generated_Source\PSoC5/cyfitter_cfg.c **** 			{0xDEu, 0x04u},
1658:.\Generated_Source\PSoC5/cyfitter_cfg.c **** 			{0xE4u, 0x10u},
1659:.\Generated_Source\PSoC5/cyfitter_cfg.c **** 			{0x00u, 0x02u},
1660:.\Generated_Source\PSoC5/cyfitter_cfg.c **** 			{0x02u, 0x04u},
1661:.\Generated_Source\PSoC5/cyfitter_cfg.c **** 			{0x03u, 0x01u},
1662:.\Generated_Source\PSoC5/cyfitter_cfg.c **** 			{0x10u, 0x02u},
1663:.\Generated_Source\PSoC5/cyfitter_cfg.c **** 			{0x16u, 0x01u},
1664:.\Generated_Source\PSoC5/cyfitter_cfg.c **** 			{0x1Eu, 0x06u},
1665:.\Generated_Source\PSoC5/cyfitter_cfg.c **** 			{0x28u, 0x04u},
1666:.\Generated_Source\PSoC5/cyfitter_cfg.c **** 			{0x30u, 0x06u},
1667:.\Generated_Source\PSoC5/cyfitter_cfg.c **** 			{0x32u, 0x01u},
1668:.\Generated_Source\PSoC5/cyfitter_cfg.c **** 			{0x35u, 0x01u},
1669:.\Generated_Source\PSoC5/cyfitter_cfg.c **** 			{0x3Eu, 0x01u},
1670:.\Generated_Source\PSoC5/cyfitter_cfg.c **** 			{0x40u, 0x31u},
1671:.\Generated_Source\PSoC5/cyfitter_cfg.c **** 			{0x41u, 0x02u},
1672:.\Generated_Source\PSoC5/cyfitter_cfg.c **** 			{0x49u, 0xFFu},
1673:.\Generated_Source\PSoC5/cyfitter_cfg.c **** 			{0x4Au, 0xFFu},
1674:.\Generated_Source\PSoC5/cyfitter_cfg.c **** 			{0x4Bu, 0xFFu},
1675:.\Generated_Source\PSoC5/cyfitter_cfg.c **** 			{0x4Fu, 0x01u},
1676:.\Generated_Source\PSoC5/cyfitter_cfg.c **** 			{0x50u, 0x18u},
1677:.\Generated_Source\PSoC5/cyfitter_cfg.c **** 			{0x52u, 0x80u},
1678:.\Generated_Source\PSoC5/cyfitter_cfg.c **** 			{0x54u, 0x07u},
1679:.\Generated_Source\PSoC5/cyfitter_cfg.c **** 			{0x58u, 0x04u},
ARM GAS  C:\Users\xavieran\AppData\Local\Temp\ccykvWSD.s 			page 41


1680:.\Generated_Source\PSoC5/cyfitter_cfg.c **** 			{0x59u, 0x04u},
1681:.\Generated_Source\PSoC5/cyfitter_cfg.c **** 			{0x5Au, 0x0Au},
1682:.\Generated_Source\PSoC5/cyfitter_cfg.c **** 			{0x5Bu, 0x08u},
1683:.\Generated_Source\PSoC5/cyfitter_cfg.c **** 			{0x5Cu, 0x88u},
1684:.\Generated_Source\PSoC5/cyfitter_cfg.c **** 			{0x5Du, 0x99u},
1685:.\Generated_Source\PSoC5/cyfitter_cfg.c **** 			{0x5Fu, 0x35u},
1686:.\Generated_Source\PSoC5/cyfitter_cfg.c **** 			{0x60u, 0x40u},
1687:.\Generated_Source\PSoC5/cyfitter_cfg.c **** 			{0x62u, 0x40u},
1688:.\Generated_Source\PSoC5/cyfitter_cfg.c **** 			{0x64u, 0x40u},
1689:.\Generated_Source\PSoC5/cyfitter_cfg.c **** 			{0x65u, 0x40u},
1690:.\Generated_Source\PSoC5/cyfitter_cfg.c **** 			{0x66u, 0x80u},
1691:.\Generated_Source\PSoC5/cyfitter_cfg.c **** 			{0x68u, 0x80u},
1692:.\Generated_Source\PSoC5/cyfitter_cfg.c **** 			{0x6Au, 0x80u},
1693:.\Generated_Source\PSoC5/cyfitter_cfg.c **** 			{0x6Cu, 0x80u},
1694:.\Generated_Source\PSoC5/cyfitter_cfg.c **** 			{0x6Eu, 0x80u},
1695:.\Generated_Source\PSoC5/cyfitter_cfg.c **** 			{0x82u, 0x01u},
1696:.\Generated_Source\PSoC5/cyfitter_cfg.c **** 			{0x9Bu, 0x01u},
1697:.\Generated_Source\PSoC5/cyfitter_cfg.c **** 			{0x9Fu, 0x01u},
1698:.\Generated_Source\PSoC5/cyfitter_cfg.c **** 			{0xA6u, 0x01u},
1699:.\Generated_Source\PSoC5/cyfitter_cfg.c **** 			{0xB2u, 0x01u},
1700:.\Generated_Source\PSoC5/cyfitter_cfg.c **** 			{0xB3u, 0x01u},
1701:.\Generated_Source\PSoC5/cyfitter_cfg.c **** 			{0xC0u, 0x64u},
1702:.\Generated_Source\PSoC5/cyfitter_cfg.c **** 			{0xC1u, 0x02u},
1703:.\Generated_Source\PSoC5/cyfitter_cfg.c **** 			{0xC5u, 0xECu},
1704:.\Generated_Source\PSoC5/cyfitter_cfg.c **** 			{0xC6u, 0x02u},
1705:.\Generated_Source\PSoC5/cyfitter_cfg.c **** 			{0xC8u, 0x07u},
1706:.\Generated_Source\PSoC5/cyfitter_cfg.c **** 			{0xC9u, 0xFFu},
1707:.\Generated_Source\PSoC5/cyfitter_cfg.c **** 			{0xCAu, 0xFFu},
1708:.\Generated_Source\PSoC5/cyfitter_cfg.c **** 			{0xCBu, 0xFFu},
1709:.\Generated_Source\PSoC5/cyfitter_cfg.c **** 			{0xCDu, 0x83u},
1710:.\Generated_Source\PSoC5/cyfitter_cfg.c **** 			{0xCEu, 0x03u},
1711:.\Generated_Source\PSoC5/cyfitter_cfg.c **** 			{0xCFu, 0x01u},
1712:.\Generated_Source\PSoC5/cyfitter_cfg.c **** 			{0xD0u, 0x18u},
1713:.\Generated_Source\PSoC5/cyfitter_cfg.c **** 			{0xD4u, 0x01u},
1714:.\Generated_Source\PSoC5/cyfitter_cfg.c **** 			{0xD8u, 0x0Bu},
1715:.\Generated_Source\PSoC5/cyfitter_cfg.c **** 			{0xD9u, 0x0Bu},
1716:.\Generated_Source\PSoC5/cyfitter_cfg.c **** 			{0xDAu, 0x0Au},
1717:.\Generated_Source\PSoC5/cyfitter_cfg.c **** 			{0xDBu, 0x0Au},
1718:.\Generated_Source\PSoC5/cyfitter_cfg.c **** 			{0xDCu, 0x99u},
1719:.\Generated_Source\PSoC5/cyfitter_cfg.c **** 			{0xDDu, 0x99u},
1720:.\Generated_Source\PSoC5/cyfitter_cfg.c **** 			{0xDFu, 0x05u},
1721:.\Generated_Source\PSoC5/cyfitter_cfg.c **** 			{0xE0u, 0x40u},
1722:.\Generated_Source\PSoC5/cyfitter_cfg.c **** 			{0xE2u, 0x40u},
1723:.\Generated_Source\PSoC5/cyfitter_cfg.c **** 			{0xE4u, 0x40u},
1724:.\Generated_Source\PSoC5/cyfitter_cfg.c **** 			{0xE5u, 0x40u},
1725:.\Generated_Source\PSoC5/cyfitter_cfg.c **** 			{0xE6u, 0x80u},
1726:.\Generated_Source\PSoC5/cyfitter_cfg.c **** 			{0xE8u, 0x80u},
1727:.\Generated_Source\PSoC5/cyfitter_cfg.c **** 			{0xEAu, 0x80u},
1728:.\Generated_Source\PSoC5/cyfitter_cfg.c **** 			{0xECu, 0x80u},
1729:.\Generated_Source\PSoC5/cyfitter_cfg.c **** 			{0xEEu, 0x80u},
1730:.\Generated_Source\PSoC5/cyfitter_cfg.c **** 			{0x00u, 0x02u},
1731:.\Generated_Source\PSoC5/cyfitter_cfg.c **** 			{0x07u, 0x40u},
1732:.\Generated_Source\PSoC5/cyfitter_cfg.c **** 			{0x08u, 0x0Au},
1733:.\Generated_Source\PSoC5/cyfitter_cfg.c **** 			{0x09u, 0x80u},
1734:.\Generated_Source\PSoC5/cyfitter_cfg.c **** 			{0x12u, 0x04u},
1735:.\Generated_Source\PSoC5/cyfitter_cfg.c **** 			{0x16u, 0x10u},
1736:.\Generated_Source\PSoC5/cyfitter_cfg.c **** 			{0x18u, 0x20u},
ARM GAS  C:\Users\xavieran\AppData\Local\Temp\ccykvWSD.s 			page 42


1737:.\Generated_Source\PSoC5/cyfitter_cfg.c **** 			{0x1Au, 0x40u},
1738:.\Generated_Source\PSoC5/cyfitter_cfg.c **** 			{0x1Fu, 0x04u},
1739:.\Generated_Source\PSoC5/cyfitter_cfg.c **** 			{0x20u, 0x04u},
1740:.\Generated_Source\PSoC5/cyfitter_cfg.c **** 			{0x26u, 0x08u},
1741:.\Generated_Source\PSoC5/cyfitter_cfg.c **** 			{0x27u, 0x10u},
1742:.\Generated_Source\PSoC5/cyfitter_cfg.c **** 			{0x36u, 0x20u},
1743:.\Generated_Source\PSoC5/cyfitter_cfg.c **** 			{0x37u, 0x40u},
1744:.\Generated_Source\PSoC5/cyfitter_cfg.c **** 			{0x39u, 0x01u},
1745:.\Generated_Source\PSoC5/cyfitter_cfg.c **** 			{0x40u, 0x10u},
1746:.\Generated_Source\PSoC5/cyfitter_cfg.c **** 			{0x41u, 0x80u},
1747:.\Generated_Source\PSoC5/cyfitter_cfg.c **** 			{0x43u, 0x10u},
1748:.\Generated_Source\PSoC5/cyfitter_cfg.c **** 			{0x46u, 0x80u},
1749:.\Generated_Source\PSoC5/cyfitter_cfg.c **** 			{0x47u, 0x10u},
1750:.\Generated_Source\PSoC5/cyfitter_cfg.c **** 			{0x4Du, 0x20u},
1751:.\Generated_Source\PSoC5/cyfitter_cfg.c **** 			{0x4Fu, 0x05u},
1752:.\Generated_Source\PSoC5/cyfitter_cfg.c **** 			{0x55u, 0x80u},
1753:.\Generated_Source\PSoC5/cyfitter_cfg.c **** 			{0x56u, 0x80u},
1754:.\Generated_Source\PSoC5/cyfitter_cfg.c **** 			{0x59u, 0x12u},
1755:.\Generated_Source\PSoC5/cyfitter_cfg.c **** 			{0x5Au, 0x88u},
1756:.\Generated_Source\PSoC5/cyfitter_cfg.c **** 			{0x5Eu, 0x40u},
1757:.\Generated_Source\PSoC5/cyfitter_cfg.c **** 			{0x5Fu, 0x05u},
1758:.\Generated_Source\PSoC5/cyfitter_cfg.c **** 			{0x62u, 0x80u},
1759:.\Generated_Source\PSoC5/cyfitter_cfg.c **** 			{0x63u, 0x02u},
1760:.\Generated_Source\PSoC5/cyfitter_cfg.c **** 			{0x73u, 0x40u},
1761:.\Generated_Source\PSoC5/cyfitter_cfg.c **** 			{0x79u, 0x08u},
1762:.\Generated_Source\PSoC5/cyfitter_cfg.c **** 			{0x7Bu, 0xA5u},
1763:.\Generated_Source\PSoC5/cyfitter_cfg.c **** 			{0x7Eu, 0x88u},
1764:.\Generated_Source\PSoC5/cyfitter_cfg.c **** 			{0x7Fu, 0x20u},
1765:.\Generated_Source\PSoC5/cyfitter_cfg.c **** 			{0x80u, 0x10u},
1766:.\Generated_Source\PSoC5/cyfitter_cfg.c **** 			{0x83u, 0x80u},
1767:.\Generated_Source\PSoC5/cyfitter_cfg.c **** 			{0x8Cu, 0x0Cu},
1768:.\Generated_Source\PSoC5/cyfitter_cfg.c **** 			{0x90u, 0x10u},
1769:.\Generated_Source\PSoC5/cyfitter_cfg.c **** 			{0x91u, 0x09u},
1770:.\Generated_Source\PSoC5/cyfitter_cfg.c **** 			{0x92u, 0x88u},
1771:.\Generated_Source\PSoC5/cyfitter_cfg.c **** 			{0x97u, 0x48u},
1772:.\Generated_Source\PSoC5/cyfitter_cfg.c **** 			{0x98u, 0x02u},
1773:.\Generated_Source\PSoC5/cyfitter_cfg.c **** 			{0x99u, 0x32u},
1774:.\Generated_Source\PSoC5/cyfitter_cfg.c **** 			{0x9Au, 0x14u},
1775:.\Generated_Source\PSoC5/cyfitter_cfg.c **** 			{0x9Bu, 0x40u},
1776:.\Generated_Source\PSoC5/cyfitter_cfg.c **** 			{0xA0u, 0x01u},
1777:.\Generated_Source\PSoC5/cyfitter_cfg.c **** 			{0xA2u, 0x20u},
1778:.\Generated_Source\PSoC5/cyfitter_cfg.c **** 			{0xA3u, 0x05u},
1779:.\Generated_Source\PSoC5/cyfitter_cfg.c **** 			{0xACu, 0x04u},
1780:.\Generated_Source\PSoC5/cyfitter_cfg.c **** 			{0xADu, 0xC4u},
1781:.\Generated_Source\PSoC5/cyfitter_cfg.c **** 			{0xAEu, 0xC0u},
1782:.\Generated_Source\PSoC5/cyfitter_cfg.c **** 			{0xB7u, 0x02u},
1783:.\Generated_Source\PSoC5/cyfitter_cfg.c **** 			{0xC0u, 0x18u},
1784:.\Generated_Source\PSoC5/cyfitter_cfg.c **** 			{0xC2u, 0x0Du},
1785:.\Generated_Source\PSoC5/cyfitter_cfg.c **** 			{0xC4u, 0x22u},
1786:.\Generated_Source\PSoC5/cyfitter_cfg.c **** 			{0xCCu, 0x30u},
1787:.\Generated_Source\PSoC5/cyfitter_cfg.c **** 			{0xCEu, 0x01u},
1788:.\Generated_Source\PSoC5/cyfitter_cfg.c **** 			{0xD0u, 0xAEu},
1789:.\Generated_Source\PSoC5/cyfitter_cfg.c **** 			{0xD2u, 0x20u},
1790:.\Generated_Source\PSoC5/cyfitter_cfg.c **** 			{0xD6u, 0xDFu},
1791:.\Generated_Source\PSoC5/cyfitter_cfg.c **** 			{0xDEu, 0xEFu},
1792:.\Generated_Source\PSoC5/cyfitter_cfg.c **** 			{0xE2u, 0x80u},
1793:.\Generated_Source\PSoC5/cyfitter_cfg.c **** 			{0xE6u, 0xC0u},
ARM GAS  C:\Users\xavieran\AppData\Local\Temp\ccykvWSD.s 			page 43


1794:.\Generated_Source\PSoC5/cyfitter_cfg.c **** 			{0xEAu, 0x03u},
1795:.\Generated_Source\PSoC5/cyfitter_cfg.c **** 			{0xEEu, 0x02u},
1796:.\Generated_Source\PSoC5/cyfitter_cfg.c **** 			{0x02u, 0x02u},
1797:.\Generated_Source\PSoC5/cyfitter_cfg.c **** 			{0x06u, 0x04u},
1798:.\Generated_Source\PSoC5/cyfitter_cfg.c **** 			{0x0Eu, 0x03u},
1799:.\Generated_Source\PSoC5/cyfitter_cfg.c **** 			{0x0Fu, 0x01u},
1800:.\Generated_Source\PSoC5/cyfitter_cfg.c **** 			{0x12u, 0x01u},
1801:.\Generated_Source\PSoC5/cyfitter_cfg.c **** 			{0x22u, 0x01u},
1802:.\Generated_Source\PSoC5/cyfitter_cfg.c **** 			{0x2Eu, 0x01u},
1803:.\Generated_Source\PSoC5/cyfitter_cfg.c **** 			{0x30u, 0x07u},
1804:.\Generated_Source\PSoC5/cyfitter_cfg.c **** 			{0x31u, 0x01u},
1805:.\Generated_Source\PSoC5/cyfitter_cfg.c **** 			{0x3Au, 0x02u},
1806:.\Generated_Source\PSoC5/cyfitter_cfg.c **** 			{0x3Du, 0x02u},
1807:.\Generated_Source\PSoC5/cyfitter_cfg.c **** 			{0x40u, 0x16u},
1808:.\Generated_Source\PSoC5/cyfitter_cfg.c **** 			{0x41u, 0x03u},
1809:.\Generated_Source\PSoC5/cyfitter_cfg.c **** 			{0x49u, 0xFFu},
1810:.\Generated_Source\PSoC5/cyfitter_cfg.c **** 			{0x4Au, 0xFFu},
1811:.\Generated_Source\PSoC5/cyfitter_cfg.c **** 			{0x4Bu, 0xFFu},
1812:.\Generated_Source\PSoC5/cyfitter_cfg.c **** 			{0x4Du, 0xA0u},
1813:.\Generated_Source\PSoC5/cyfitter_cfg.c **** 			{0x4Fu, 0x04u},
1814:.\Generated_Source\PSoC5/cyfitter_cfg.c **** 			{0x50u, 0x18u},
1815:.\Generated_Source\PSoC5/cyfitter_cfg.c **** 			{0x56u, 0x08u},
1816:.\Generated_Source\PSoC5/cyfitter_cfg.c **** 			{0x58u, 0x04u},
1817:.\Generated_Source\PSoC5/cyfitter_cfg.c **** 			{0x59u, 0x08u},
1818:.\Generated_Source\PSoC5/cyfitter_cfg.c **** 			{0x5Au, 0x08u},
1819:.\Generated_Source\PSoC5/cyfitter_cfg.c **** 			{0x5Bu, 0x04u},
1820:.\Generated_Source\PSoC5/cyfitter_cfg.c **** 			{0x5Cu, 0x92u},
1821:.\Generated_Source\PSoC5/cyfitter_cfg.c **** 			{0x5Du, 0x99u},
1822:.\Generated_Source\PSoC5/cyfitter_cfg.c **** 			{0x5Fu, 0x01u},
1823:.\Generated_Source\PSoC5/cyfitter_cfg.c **** 			{0x60u, 0x40u},
1824:.\Generated_Source\PSoC5/cyfitter_cfg.c **** 			{0x62u, 0xC0u},
1825:.\Generated_Source\PSoC5/cyfitter_cfg.c **** 			{0x64u, 0x40u},
1826:.\Generated_Source\PSoC5/cyfitter_cfg.c **** 			{0x65u, 0x40u},
1827:.\Generated_Source\PSoC5/cyfitter_cfg.c **** 			{0x66u, 0xC0u},
1828:.\Generated_Source\PSoC5/cyfitter_cfg.c **** 			{0x68u, 0xC0u},
1829:.\Generated_Source\PSoC5/cyfitter_cfg.c **** 			{0x6Au, 0xC0u},
1830:.\Generated_Source\PSoC5/cyfitter_cfg.c **** 			{0x6Cu, 0xC0u},
1831:.\Generated_Source\PSoC5/cyfitter_cfg.c **** 			{0x6Eu, 0xC0u},
1832:.\Generated_Source\PSoC5/cyfitter_cfg.c **** 			{0x86u, 0x01u},
1833:.\Generated_Source\PSoC5/cyfitter_cfg.c **** 			{0x97u, 0x04u},
1834:.\Generated_Source\PSoC5/cyfitter_cfg.c **** 			{0x9Bu, 0x02u},
1835:.\Generated_Source\PSoC5/cyfitter_cfg.c **** 			{0x9Cu, 0x02u},
1836:.\Generated_Source\PSoC5/cyfitter_cfg.c **** 			{0x9Fu, 0x04u},
1837:.\Generated_Source\PSoC5/cyfitter_cfg.c **** 			{0xA5u, 0x02u},
1838:.\Generated_Source\PSoC5/cyfitter_cfg.c **** 			{0xA6u, 0x02u},
1839:.\Generated_Source\PSoC5/cyfitter_cfg.c **** 			{0xABu, 0x01u},
1840:.\Generated_Source\PSoC5/cyfitter_cfg.c **** 			{0xB1u, 0x01u},
1841:.\Generated_Source\PSoC5/cyfitter_cfg.c **** 			{0xB2u, 0x01u},
1842:.\Generated_Source\PSoC5/cyfitter_cfg.c **** 			{0xB3u, 0x04u},
1843:.\Generated_Source\PSoC5/cyfitter_cfg.c **** 			{0xB4u, 0x02u},
1844:.\Generated_Source\PSoC5/cyfitter_cfg.c **** 			{0xB7u, 0x02u},
1845:.\Generated_Source\PSoC5/cyfitter_cfg.c **** 			{0xBCu, 0x20u},
1846:.\Generated_Source\PSoC5/cyfitter_cfg.c **** 			{0xBDu, 0x80u},
1847:.\Generated_Source\PSoC5/cyfitter_cfg.c **** 			{0xBFu, 0x04u},
1848:.\Generated_Source\PSoC5/cyfitter_cfg.c **** 			{0xC0u, 0x13u},
1849:.\Generated_Source\PSoC5/cyfitter_cfg.c **** 			{0xC1u, 0x06u},
1850:.\Generated_Source\PSoC5/cyfitter_cfg.c **** 			{0xC5u, 0xD1u},
ARM GAS  C:\Users\xavieran\AppData\Local\Temp\ccykvWSD.s 			page 44


1851:.\Generated_Source\PSoC5/cyfitter_cfg.c **** 			{0xC6u, 0x50u},
1852:.\Generated_Source\PSoC5/cyfitter_cfg.c **** 			{0xC7u, 0x02u},
1853:.\Generated_Source\PSoC5/cyfitter_cfg.c **** 			{0xC8u, 0x1Bu},
1854:.\Generated_Source\PSoC5/cyfitter_cfg.c **** 			{0xC9u, 0xFFu},
1855:.\Generated_Source\PSoC5/cyfitter_cfg.c **** 			{0xCAu, 0xFFu},
1856:.\Generated_Source\PSoC5/cyfitter_cfg.c **** 			{0xCBu, 0xFFu},
1857:.\Generated_Source\PSoC5/cyfitter_cfg.c **** 			{0xCDu, 0xAFu},
1858:.\Generated_Source\PSoC5/cyfitter_cfg.c **** 			{0xCEu, 0x0Fu},
1859:.\Generated_Source\PSoC5/cyfitter_cfg.c **** 			{0xCFu, 0x04u},
1860:.\Generated_Source\PSoC5/cyfitter_cfg.c **** 			{0xD0u, 0x18u},
1861:.\Generated_Source\PSoC5/cyfitter_cfg.c **** 			{0xD6u, 0x08u},
1862:.\Generated_Source\PSoC5/cyfitter_cfg.c **** 			{0xD8u, 0x08u},
1863:.\Generated_Source\PSoC5/cyfitter_cfg.c **** 			{0xD9u, 0x08u},
1864:.\Generated_Source\PSoC5/cyfitter_cfg.c **** 			{0xDAu, 0x08u},
1865:.\Generated_Source\PSoC5/cyfitter_cfg.c **** 			{0xDBu, 0x04u},
1866:.\Generated_Source\PSoC5/cyfitter_cfg.c **** 			{0xDCu, 0x99u},
1867:.\Generated_Source\PSoC5/cyfitter_cfg.c **** 			{0xDDu, 0x99u},
1868:.\Generated_Source\PSoC5/cyfitter_cfg.c **** 			{0xDFu, 0x01u},
1869:.\Generated_Source\PSoC5/cyfitter_cfg.c **** 			{0xE0u, 0x40u},
1870:.\Generated_Source\PSoC5/cyfitter_cfg.c **** 			{0xE2u, 0xC0u},
1871:.\Generated_Source\PSoC5/cyfitter_cfg.c **** 			{0xE4u, 0x40u},
1872:.\Generated_Source\PSoC5/cyfitter_cfg.c **** 			{0xE5u, 0x40u},
1873:.\Generated_Source\PSoC5/cyfitter_cfg.c **** 			{0xE6u, 0xC0u},
1874:.\Generated_Source\PSoC5/cyfitter_cfg.c **** 			{0xE8u, 0xC0u},
1875:.\Generated_Source\PSoC5/cyfitter_cfg.c **** 			{0xEAu, 0xC0u},
1876:.\Generated_Source\PSoC5/cyfitter_cfg.c **** 			{0xECu, 0xC0u},
1877:.\Generated_Source\PSoC5/cyfitter_cfg.c **** 			{0xEEu, 0xC0u},
1878:.\Generated_Source\PSoC5/cyfitter_cfg.c **** 			{0x02u, 0x20u},
1879:.\Generated_Source\PSoC5/cyfitter_cfg.c **** 			{0x04u, 0x44u},
1880:.\Generated_Source\PSoC5/cyfitter_cfg.c **** 			{0x06u, 0x80u},
1881:.\Generated_Source\PSoC5/cyfitter_cfg.c **** 			{0x0Au, 0x02u},
1882:.\Generated_Source\PSoC5/cyfitter_cfg.c **** 			{0x0Eu, 0x80u},
1883:.\Generated_Source\PSoC5/cyfitter_cfg.c **** 			{0x12u, 0x10u},
1884:.\Generated_Source\PSoC5/cyfitter_cfg.c **** 			{0x15u, 0x80u},
1885:.\Generated_Source\PSoC5/cyfitter_cfg.c **** 			{0x16u, 0x40u},
1886:.\Generated_Source\PSoC5/cyfitter_cfg.c **** 			{0x19u, 0x14u},
1887:.\Generated_Source\PSoC5/cyfitter_cfg.c **** 			{0x1Cu, 0x40u},
1888:.\Generated_Source\PSoC5/cyfitter_cfg.c **** 			{0x1Fu, 0x02u},
1889:.\Generated_Source\PSoC5/cyfitter_cfg.c **** 			{0x22u, 0x45u},
1890:.\Generated_Source\PSoC5/cyfitter_cfg.c **** 			{0x27u, 0x40u},
1891:.\Generated_Source\PSoC5/cyfitter_cfg.c **** 			{0x29u, 0x04u},
1892:.\Generated_Source\PSoC5/cyfitter_cfg.c **** 			{0x2Au, 0x10u},
1893:.\Generated_Source\PSoC5/cyfitter_cfg.c **** 			{0x31u, 0x08u},
1894:.\Generated_Source\PSoC5/cyfitter_cfg.c **** 			{0x32u, 0x20u},
1895:.\Generated_Source\PSoC5/cyfitter_cfg.c **** 			{0x33u, 0x40u},
1896:.\Generated_Source\PSoC5/cyfitter_cfg.c **** 			{0x3Fu, 0x40u},
1897:.\Generated_Source\PSoC5/cyfitter_cfg.c **** 			{0x40u, 0x10u},
1898:.\Generated_Source\PSoC5/cyfitter_cfg.c **** 			{0x43u, 0x40u},
1899:.\Generated_Source\PSoC5/cyfitter_cfg.c **** 			{0x45u, 0x08u},
1900:.\Generated_Source\PSoC5/cyfitter_cfg.c **** 			{0x47u, 0x40u},
1901:.\Generated_Source\PSoC5/cyfitter_cfg.c **** 			{0x48u, 0x08u},
1902:.\Generated_Source\PSoC5/cyfitter_cfg.c **** 			{0x49u, 0x02u},
1903:.\Generated_Source\PSoC5/cyfitter_cfg.c **** 			{0x4Au, 0x20u},
1904:.\Generated_Source\PSoC5/cyfitter_cfg.c **** 			{0x4Du, 0x20u},
1905:.\Generated_Source\PSoC5/cyfitter_cfg.c **** 			{0x50u, 0x08u},
1906:.\Generated_Source\PSoC5/cyfitter_cfg.c **** 			{0x51u, 0x08u},
1907:.\Generated_Source\PSoC5/cyfitter_cfg.c **** 			{0x52u, 0x10u},
ARM GAS  C:\Users\xavieran\AppData\Local\Temp\ccykvWSD.s 			page 45


1908:.\Generated_Source\PSoC5/cyfitter_cfg.c **** 			{0x59u, 0x40u},
1909:.\Generated_Source\PSoC5/cyfitter_cfg.c **** 			{0x5Eu, 0x40u},
1910:.\Generated_Source\PSoC5/cyfitter_cfg.c **** 			{0x60u, 0x02u},
1911:.\Generated_Source\PSoC5/cyfitter_cfg.c **** 			{0x65u, 0x80u},
1912:.\Generated_Source\PSoC5/cyfitter_cfg.c **** 			{0x68u, 0x01u},
1913:.\Generated_Source\PSoC5/cyfitter_cfg.c **** 			{0x7Au, 0x02u},
1914:.\Generated_Source\PSoC5/cyfitter_cfg.c **** 			{0x7Bu, 0x05u},
1915:.\Generated_Source\PSoC5/cyfitter_cfg.c **** 			{0x7Cu, 0x10u},
1916:.\Generated_Source\PSoC5/cyfitter_cfg.c **** 			{0x7Eu, 0x02u},
1917:.\Generated_Source\PSoC5/cyfitter_cfg.c **** 			{0x82u, 0x40u},
1918:.\Generated_Source\PSoC5/cyfitter_cfg.c **** 			{0x86u, 0x40u},
1919:.\Generated_Source\PSoC5/cyfitter_cfg.c **** 			{0x87u, 0x08u},
1920:.\Generated_Source\PSoC5/cyfitter_cfg.c **** 			{0x90u, 0x14u},
1921:.\Generated_Source\PSoC5/cyfitter_cfg.c **** 			{0x91u, 0x81u},
1922:.\Generated_Source\PSoC5/cyfitter_cfg.c **** 			{0x96u, 0x40u},
1923:.\Generated_Source\PSoC5/cyfitter_cfg.c **** 			{0x97u, 0x08u},
1924:.\Generated_Source\PSoC5/cyfitter_cfg.c **** 			{0x99u, 0x20u},
1925:.\Generated_Source\PSoC5/cyfitter_cfg.c **** 			{0x9Au, 0x04u},
1926:.\Generated_Source\PSoC5/cyfitter_cfg.c **** 			{0x9Cu, 0x02u},
1927:.\Generated_Source\PSoC5/cyfitter_cfg.c **** 			{0xA3u, 0x0Du},
1928:.\Generated_Source\PSoC5/cyfitter_cfg.c **** 			{0xA4u, 0x05u},
1929:.\Generated_Source\PSoC5/cyfitter_cfg.c **** 			{0xA7u, 0x02u},
1930:.\Generated_Source\PSoC5/cyfitter_cfg.c **** 			{0xA8u, 0x48u},
1931:.\Generated_Source\PSoC5/cyfitter_cfg.c **** 			{0xAAu, 0x10u},
1932:.\Generated_Source\PSoC5/cyfitter_cfg.c **** 			{0xABu, 0x10u},
1933:.\Generated_Source\PSoC5/cyfitter_cfg.c **** 			{0xB0u, 0x40u},
1934:.\Generated_Source\PSoC5/cyfitter_cfg.c **** 			{0xB3u, 0x04u},
1935:.\Generated_Source\PSoC5/cyfitter_cfg.c **** 			{0xC0u, 0xB4u},
1936:.\Generated_Source\PSoC5/cyfitter_cfg.c **** 			{0xC2u, 0x11u},
1937:.\Generated_Source\PSoC5/cyfitter_cfg.c **** 			{0xC4u, 0x94u},
1938:.\Generated_Source\PSoC5/cyfitter_cfg.c **** 			{0xCAu, 0x06u},
1939:.\Generated_Source\PSoC5/cyfitter_cfg.c **** 			{0xCCu, 0x0Eu},
1940:.\Generated_Source\PSoC5/cyfitter_cfg.c **** 			{0xCEu, 0x10u},
1941:.\Generated_Source\PSoC5/cyfitter_cfg.c **** 			{0xD0u, 0x5Au},
1942:.\Generated_Source\PSoC5/cyfitter_cfg.c **** 			{0xD2u, 0x24u},
1943:.\Generated_Source\PSoC5/cyfitter_cfg.c **** 			{0xD6u, 0x18u},
1944:.\Generated_Source\PSoC5/cyfitter_cfg.c **** 			{0xD8u, 0x18u},
1945:.\Generated_Source\PSoC5/cyfitter_cfg.c **** 			{0xDEu, 0x3Cu},
1946:.\Generated_Source\PSoC5/cyfitter_cfg.c **** 			{0xE0u, 0x12u},
1947:.\Generated_Source\PSoC5/cyfitter_cfg.c **** 			{0xE2u, 0x08u},
1948:.\Generated_Source\PSoC5/cyfitter_cfg.c **** 			{0xE6u, 0x40u},
1949:.\Generated_Source\PSoC5/cyfitter_cfg.c **** 			{0xE8u, 0x10u},
1950:.\Generated_Source\PSoC5/cyfitter_cfg.c **** 			{0xEAu, 0x83u},
1951:.\Generated_Source\PSoC5/cyfitter_cfg.c **** 			{0xECu, 0x11u},
1952:.\Generated_Source\PSoC5/cyfitter_cfg.c **** 			{0xEEu, 0x22u},
1953:.\Generated_Source\PSoC5/cyfitter_cfg.c **** 			{0x06u, 0x01u},
1954:.\Generated_Source\PSoC5/cyfitter_cfg.c **** 			{0x07u, 0x03u},
1955:.\Generated_Source\PSoC5/cyfitter_cfg.c **** 			{0x0Fu, 0x03u},
1956:.\Generated_Source\PSoC5/cyfitter_cfg.c **** 			{0x12u, 0x01u},
1957:.\Generated_Source\PSoC5/cyfitter_cfg.c **** 			{0x14u, 0x01u},
1958:.\Generated_Source\PSoC5/cyfitter_cfg.c **** 			{0x19u, 0x01u},
1959:.\Generated_Source\PSoC5/cyfitter_cfg.c **** 			{0x1Au, 0x01u},
1960:.\Generated_Source\PSoC5/cyfitter_cfg.c **** 			{0x1Bu, 0x04u},
1961:.\Generated_Source\PSoC5/cyfitter_cfg.c **** 			{0x1Du, 0x01u},
1962:.\Generated_Source\PSoC5/cyfitter_cfg.c **** 			{0x1Fu, 0x06u},
1963:.\Generated_Source\PSoC5/cyfitter_cfg.c **** 			{0x22u, 0x01u},
1964:.\Generated_Source\PSoC5/cyfitter_cfg.c **** 			{0x27u, 0x03u},
ARM GAS  C:\Users\xavieran\AppData\Local\Temp\ccykvWSD.s 			page 46


1965:.\Generated_Source\PSoC5/cyfitter_cfg.c **** 			{0x29u, 0x02u},
1966:.\Generated_Source\PSoC5/cyfitter_cfg.c **** 			{0x2Bu, 0x01u},
1967:.\Generated_Source\PSoC5/cyfitter_cfg.c **** 			{0x2Du, 0x01u},
1968:.\Generated_Source\PSoC5/cyfitter_cfg.c **** 			{0x2Fu, 0x02u},
1969:.\Generated_Source\PSoC5/cyfitter_cfg.c **** 			{0x30u, 0x01u},
1970:.\Generated_Source\PSoC5/cyfitter_cfg.c **** 			{0x31u, 0x07u},
1971:.\Generated_Source\PSoC5/cyfitter_cfg.c **** 			{0x3Bu, 0x02u},
1972:.\Generated_Source\PSoC5/cyfitter_cfg.c **** 			{0x3Eu, 0x01u},
1973:.\Generated_Source\PSoC5/cyfitter_cfg.c **** 			{0x40u, 0x62u},
1974:.\Generated_Source\PSoC5/cyfitter_cfg.c **** 			{0x41u, 0x03u},
1975:.\Generated_Source\PSoC5/cyfitter_cfg.c **** 			{0x49u, 0xFFu},
1976:.\Generated_Source\PSoC5/cyfitter_cfg.c **** 			{0x4Au, 0xFFu},
1977:.\Generated_Source\PSoC5/cyfitter_cfg.c **** 			{0x4Bu, 0xFFu},
1978:.\Generated_Source\PSoC5/cyfitter_cfg.c **** 			{0x4Fu, 0x01u},
1979:.\Generated_Source\PSoC5/cyfitter_cfg.c **** 			{0x50u, 0x18u},
1980:.\Generated_Source\PSoC5/cyfitter_cfg.c **** 			{0x56u, 0x08u},
1981:.\Generated_Source\PSoC5/cyfitter_cfg.c **** 			{0x58u, 0x04u},
1982:.\Generated_Source\PSoC5/cyfitter_cfg.c **** 			{0x59u, 0x04u},
1983:.\Generated_Source\PSoC5/cyfitter_cfg.c **** 			{0x5Au, 0x04u},
1984:.\Generated_Source\PSoC5/cyfitter_cfg.c **** 			{0x5Bu, 0x04u},
1985:.\Generated_Source\PSoC5/cyfitter_cfg.c **** 			{0x5Cu, 0x20u},
1986:.\Generated_Source\PSoC5/cyfitter_cfg.c **** 			{0x5Du, 0x93u},
1987:.\Generated_Source\PSoC5/cyfitter_cfg.c **** 			{0x5Fu, 0x01u},
1988:.\Generated_Source\PSoC5/cyfitter_cfg.c **** 			{0x60u, 0x40u},
1989:.\Generated_Source\PSoC5/cyfitter_cfg.c **** 			{0x62u, 0x40u},
1990:.\Generated_Source\PSoC5/cyfitter_cfg.c **** 			{0x64u, 0x40u},
1991:.\Generated_Source\PSoC5/cyfitter_cfg.c **** 			{0x65u, 0x40u},
1992:.\Generated_Source\PSoC5/cyfitter_cfg.c **** 			{0x66u, 0x80u},
1993:.\Generated_Source\PSoC5/cyfitter_cfg.c **** 			{0x68u, 0x80u},
1994:.\Generated_Source\PSoC5/cyfitter_cfg.c **** 			{0x6Au, 0x80u},
1995:.\Generated_Source\PSoC5/cyfitter_cfg.c **** 			{0x6Cu, 0x80u},
1996:.\Generated_Source\PSoC5/cyfitter_cfg.c **** 			{0x6Eu, 0x80u},
1997:.\Generated_Source\PSoC5/cyfitter_cfg.c **** 			{0x8Au, 0x01u},
1998:.\Generated_Source\PSoC5/cyfitter_cfg.c **** 			{0x8Eu, 0x04u},
1999:.\Generated_Source\PSoC5/cyfitter_cfg.c **** 			{0x92u, 0x02u},
2000:.\Generated_Source\PSoC5/cyfitter_cfg.c **** 			{0x95u, 0x01u},
2001:.\Generated_Source\PSoC5/cyfitter_cfg.c **** 			{0x99u, 0x01u},
2002:.\Generated_Source\PSoC5/cyfitter_cfg.c **** 			{0x9Au, 0x01u},
2003:.\Generated_Source\PSoC5/cyfitter_cfg.c **** 			{0xA1u, 0x01u},
2004:.\Generated_Source\PSoC5/cyfitter_cfg.c **** 			{0xA9u, 0x02u},
2005:.\Generated_Source\PSoC5/cyfitter_cfg.c **** 			{0xABu, 0x04u},
2006:.\Generated_Source\PSoC5/cyfitter_cfg.c **** 			{0xADu, 0x02u},
2007:.\Generated_Source\PSoC5/cyfitter_cfg.c **** 			{0xAFu, 0x04u},
2008:.\Generated_Source\PSoC5/cyfitter_cfg.c **** 			{0xB0u, 0x01u},
2009:.\Generated_Source\PSoC5/cyfitter_cfg.c **** 			{0xB2u, 0x02u},
2010:.\Generated_Source\PSoC5/cyfitter_cfg.c **** 			{0xB4u, 0x04u},
2011:.\Generated_Source\PSoC5/cyfitter_cfg.c **** 			{0xB5u, 0x01u},
2012:.\Generated_Source\PSoC5/cyfitter_cfg.c **** 			{0xB7u, 0x06u},
2013:.\Generated_Source\PSoC5/cyfitter_cfg.c **** 			{0xB9u, 0x20u},
2014:.\Generated_Source\PSoC5/cyfitter_cfg.c **** 			{0xBEu, 0x01u},
2015:.\Generated_Source\PSoC5/cyfitter_cfg.c **** 			{0xC0u, 0x62u},
2016:.\Generated_Source\PSoC5/cyfitter_cfg.c **** 			{0xC1u, 0x03u},
2017:.\Generated_Source\PSoC5/cyfitter_cfg.c **** 			{0xC5u, 0xECu},
2018:.\Generated_Source\PSoC5/cyfitter_cfg.c **** 			{0xC6u, 0x20u},
2019:.\Generated_Source\PSoC5/cyfitter_cfg.c **** 			{0xC8u, 0x0Bu},
2020:.\Generated_Source\PSoC5/cyfitter_cfg.c **** 			{0xC9u, 0xFFu},
2021:.\Generated_Source\PSoC5/cyfitter_cfg.c **** 			{0xCAu, 0xFFu},
ARM GAS  C:\Users\xavieran\AppData\Local\Temp\ccykvWSD.s 			page 47


2022:.\Generated_Source\PSoC5/cyfitter_cfg.c **** 			{0xCBu, 0xFFu},
2023:.\Generated_Source\PSoC5/cyfitter_cfg.c **** 			{0xCDu, 0x83u},
2024:.\Generated_Source\PSoC5/cyfitter_cfg.c **** 			{0xCEu, 0x03u},
2025:.\Generated_Source\PSoC5/cyfitter_cfg.c **** 			{0xCFu, 0x01u},
2026:.\Generated_Source\PSoC5/cyfitter_cfg.c **** 			{0xD0u, 0x18u},
2027:.\Generated_Source\PSoC5/cyfitter_cfg.c **** 			{0xD4u, 0x01u},
2028:.\Generated_Source\PSoC5/cyfitter_cfg.c **** 			{0xD8u, 0x04u},
2029:.\Generated_Source\PSoC5/cyfitter_cfg.c **** 			{0xD9u, 0x04u},
2030:.\Generated_Source\PSoC5/cyfitter_cfg.c **** 			{0xDAu, 0x04u},
2031:.\Generated_Source\PSoC5/cyfitter_cfg.c **** 			{0xDBu, 0x04u},
2032:.\Generated_Source\PSoC5/cyfitter_cfg.c **** 			{0xDCu, 0x22u},
2033:.\Generated_Source\PSoC5/cyfitter_cfg.c **** 			{0xDDu, 0x33u},
2034:.\Generated_Source\PSoC5/cyfitter_cfg.c **** 			{0xDFu, 0x05u},
2035:.\Generated_Source\PSoC5/cyfitter_cfg.c **** 			{0xE0u, 0x40u},
2036:.\Generated_Source\PSoC5/cyfitter_cfg.c **** 			{0xE2u, 0x40u},
2037:.\Generated_Source\PSoC5/cyfitter_cfg.c **** 			{0xE4u, 0x40u},
2038:.\Generated_Source\PSoC5/cyfitter_cfg.c **** 			{0xE5u, 0x40u},
2039:.\Generated_Source\PSoC5/cyfitter_cfg.c **** 			{0xE6u, 0x80u},
2040:.\Generated_Source\PSoC5/cyfitter_cfg.c **** 			{0xE8u, 0x80u},
2041:.\Generated_Source\PSoC5/cyfitter_cfg.c **** 			{0xEAu, 0x80u},
2042:.\Generated_Source\PSoC5/cyfitter_cfg.c **** 			{0xECu, 0x80u},
2043:.\Generated_Source\PSoC5/cyfitter_cfg.c **** 			{0xEEu, 0x80u},
2044:.\Generated_Source\PSoC5/cyfitter_cfg.c **** 			{0x00u, 0x80u},
2045:.\Generated_Source\PSoC5/cyfitter_cfg.c **** 			{0x01u, 0x20u},
2046:.\Generated_Source\PSoC5/cyfitter_cfg.c **** 			{0x04u, 0x08u},
2047:.\Generated_Source\PSoC5/cyfitter_cfg.c **** 			{0x08u, 0x02u},
2048:.\Generated_Source\PSoC5/cyfitter_cfg.c **** 			{0x09u, 0x20u},
2049:.\Generated_Source\PSoC5/cyfitter_cfg.c **** 			{0x0Cu, 0x02u},
2050:.\Generated_Source\PSoC5/cyfitter_cfg.c **** 			{0x0Du, 0x02u},
2051:.\Generated_Source\PSoC5/cyfitter_cfg.c **** 			{0x0Eu, 0x30u},
2052:.\Generated_Source\PSoC5/cyfitter_cfg.c **** 			{0x0Fu, 0x08u},
2053:.\Generated_Source\PSoC5/cyfitter_cfg.c **** 			{0x15u, 0x02u},
2054:.\Generated_Source\PSoC5/cyfitter_cfg.c **** 			{0x18u, 0x08u},
2055:.\Generated_Source\PSoC5/cyfitter_cfg.c **** 			{0x1Au, 0x60u},
2056:.\Generated_Source\PSoC5/cyfitter_cfg.c **** 			{0x1Bu, 0x24u},
2057:.\Generated_Source\PSoC5/cyfitter_cfg.c **** 			{0x1Fu, 0x01u},
2058:.\Generated_Source\PSoC5/cyfitter_cfg.c **** 			{0x22u, 0xA0u},
2059:.\Generated_Source\PSoC5/cyfitter_cfg.c **** 			{0x27u, 0x40u},
2060:.\Generated_Source\PSoC5/cyfitter_cfg.c **** 			{0x28u, 0x02u},
2061:.\Generated_Source\PSoC5/cyfitter_cfg.c **** 			{0x29u, 0x02u},
2062:.\Generated_Source\PSoC5/cyfitter_cfg.c **** 			{0x2Bu, 0x08u},
2063:.\Generated_Source\PSoC5/cyfitter_cfg.c **** 			{0x2Cu, 0x02u},
2064:.\Generated_Source\PSoC5/cyfitter_cfg.c **** 			{0x2Eu, 0x10u},
2065:.\Generated_Source\PSoC5/cyfitter_cfg.c **** 			{0x2Fu, 0x20u},
2066:.\Generated_Source\PSoC5/cyfitter_cfg.c **** 			{0x30u, 0x28u},
2067:.\Generated_Source\PSoC5/cyfitter_cfg.c **** 			{0x33u, 0x10u},
2068:.\Generated_Source\PSoC5/cyfitter_cfg.c **** 			{0x37u, 0x50u},
2069:.\Generated_Source\PSoC5/cyfitter_cfg.c **** 			{0x3Cu, 0x80u},
2070:.\Generated_Source\PSoC5/cyfitter_cfg.c **** 			{0x3Fu, 0x08u},
2071:.\Generated_Source\PSoC5/cyfitter_cfg.c **** 			{0x40u, 0x20u},
2072:.\Generated_Source\PSoC5/cyfitter_cfg.c **** 			{0x41u, 0x20u},
2073:.\Generated_Source\PSoC5/cyfitter_cfg.c **** 			{0x44u, 0x20u},
2074:.\Generated_Source\PSoC5/cyfitter_cfg.c **** 			{0x45u, 0x20u},
2075:.\Generated_Source\PSoC5/cyfitter_cfg.c **** 			{0x47u, 0x08u},
2076:.\Generated_Source\PSoC5/cyfitter_cfg.c **** 			{0x49u, 0x25u},
2077:.\Generated_Source\PSoC5/cyfitter_cfg.c **** 			{0x4Du, 0x20u},
2078:.\Generated_Source\PSoC5/cyfitter_cfg.c **** 			{0x51u, 0x20u},
ARM GAS  C:\Users\xavieran\AppData\Local\Temp\ccykvWSD.s 			page 48


2079:.\Generated_Source\PSoC5/cyfitter_cfg.c **** 			{0x59u, 0x05u},
2080:.\Generated_Source\PSoC5/cyfitter_cfg.c **** 			{0x5Au, 0x40u},
2081:.\Generated_Source\PSoC5/cyfitter_cfg.c **** 			{0x5Cu, 0x80u},
2082:.\Generated_Source\PSoC5/cyfitter_cfg.c **** 			{0x5Eu, 0x04u},
2083:.\Generated_Source\PSoC5/cyfitter_cfg.c **** 			{0x5Fu, 0x20u},
2084:.\Generated_Source\PSoC5/cyfitter_cfg.c **** 			{0x65u, 0x60u},
2085:.\Generated_Source\PSoC5/cyfitter_cfg.c **** 			{0x66u, 0x08u},
2086:.\Generated_Source\PSoC5/cyfitter_cfg.c **** 			{0x78u, 0x20u},
2087:.\Generated_Source\PSoC5/cyfitter_cfg.c **** 			{0x87u, 0x60u},
2088:.\Generated_Source\PSoC5/cyfitter_cfg.c **** 			{0x8Eu, 0x08u},
2089:.\Generated_Source\PSoC5/cyfitter_cfg.c **** 			{0x91u, 0x02u},
2090:.\Generated_Source\PSoC5/cyfitter_cfg.c **** 			{0x93u, 0x80u},
2091:.\Generated_Source\PSoC5/cyfitter_cfg.c **** 			{0x96u, 0x22u},
2092:.\Generated_Source\PSoC5/cyfitter_cfg.c **** 			{0x97u, 0x02u},
2093:.\Generated_Source\PSoC5/cyfitter_cfg.c **** 			{0x99u, 0x02u},
2094:.\Generated_Source\PSoC5/cyfitter_cfg.c **** 			{0x9Au, 0x04u},
2095:.\Generated_Source\PSoC5/cyfitter_cfg.c **** 			{0x9Eu, 0x09u},
2096:.\Generated_Source\PSoC5/cyfitter_cfg.c **** 			{0xA0u, 0x68u},
2097:.\Generated_Source\PSoC5/cyfitter_cfg.c **** 			{0xA1u, 0x02u},
2098:.\Generated_Source\PSoC5/cyfitter_cfg.c **** 			{0xA2u, 0x10u},
2099:.\Generated_Source\PSoC5/cyfitter_cfg.c **** 			{0xA3u, 0x08u},
2100:.\Generated_Source\PSoC5/cyfitter_cfg.c **** 			{0xA6u, 0xA0u},
2101:.\Generated_Source\PSoC5/cyfitter_cfg.c **** 			{0xA8u, 0x80u},
2102:.\Generated_Source\PSoC5/cyfitter_cfg.c **** 			{0xA9u, 0x10u},
2103:.\Generated_Source\PSoC5/cyfitter_cfg.c **** 			{0xC0u, 0x23u},
2104:.\Generated_Source\PSoC5/cyfitter_cfg.c **** 			{0xC2u, 0x7Au},
2105:.\Generated_Source\PSoC5/cyfitter_cfg.c **** 			{0xC4u, 0x10u},
2106:.\Generated_Source\PSoC5/cyfitter_cfg.c **** 			{0xCAu, 0x7Du},
2107:.\Generated_Source\PSoC5/cyfitter_cfg.c **** 			{0xCCu, 0x36u},
2108:.\Generated_Source\PSoC5/cyfitter_cfg.c **** 			{0xCEu, 0x50u},
2109:.\Generated_Source\PSoC5/cyfitter_cfg.c **** 			{0xD0u, 0x66u},
2110:.\Generated_Source\PSoC5/cyfitter_cfg.c **** 			{0xD2u, 0x24u},
2111:.\Generated_Source\PSoC5/cyfitter_cfg.c **** 			{0xD6u, 0x7Bu},
2112:.\Generated_Source\PSoC5/cyfitter_cfg.c **** 			{0xD8u, 0x70u},
2113:.\Generated_Source\PSoC5/cyfitter_cfg.c **** 			{0xDEu, 0x04u},
2114:.\Generated_Source\PSoC5/cyfitter_cfg.c **** 			{0xE0u, 0x10u},
2115:.\Generated_Source\PSoC5/cyfitter_cfg.c **** 			{0xE6u, 0x40u},
2116:.\Generated_Source\PSoC5/cyfitter_cfg.c **** 			{0xE8u, 0x10u},
2117:.\Generated_Source\PSoC5/cyfitter_cfg.c **** 			{0xEAu, 0x02u},
2118:.\Generated_Source\PSoC5/cyfitter_cfg.c **** 			{0xECu, 0x10u},
2119:.\Generated_Source\PSoC5/cyfitter_cfg.c **** 			{0xEEu, 0x02u},
2120:.\Generated_Source\PSoC5/cyfitter_cfg.c **** 			{0x03u, 0x02u},
2121:.\Generated_Source\PSoC5/cyfitter_cfg.c **** 			{0x05u, 0x08u},
2122:.\Generated_Source\PSoC5/cyfitter_cfg.c **** 			{0x07u, 0x10u},
2123:.\Generated_Source\PSoC5/cyfitter_cfg.c **** 			{0x0Du, 0x08u},
2124:.\Generated_Source\PSoC5/cyfitter_cfg.c **** 			{0x0Fu, 0x10u},
2125:.\Generated_Source\PSoC5/cyfitter_cfg.c **** 			{0x13u, 0x01u},
2126:.\Generated_Source\PSoC5/cyfitter_cfg.c **** 			{0x15u, 0x04u},
2127:.\Generated_Source\PSoC5/cyfitter_cfg.c **** 			{0x21u, 0x04u},
2128:.\Generated_Source\PSoC5/cyfitter_cfg.c **** 			{0x25u, 0x01u},
2129:.\Generated_Source\PSoC5/cyfitter_cfg.c **** 			{0x29u, 0x02u},
2130:.\Generated_Source\PSoC5/cyfitter_cfg.c **** 			{0x2Eu, 0x01u},
2131:.\Generated_Source\PSoC5/cyfitter_cfg.c **** 			{0x31u, 0x1Cu},
2132:.\Generated_Source\PSoC5/cyfitter_cfg.c **** 			{0x32u, 0x01u},
2133:.\Generated_Source\PSoC5/cyfitter_cfg.c **** 			{0x33u, 0x01u},
2134:.\Generated_Source\PSoC5/cyfitter_cfg.c **** 			{0x35u, 0x02u},
2135:.\Generated_Source\PSoC5/cyfitter_cfg.c **** 			{0x39u, 0x02u},
ARM GAS  C:\Users\xavieran\AppData\Local\Temp\ccykvWSD.s 			page 49


2136:.\Generated_Source\PSoC5/cyfitter_cfg.c **** 			{0x3Fu, 0x01u},
2137:.\Generated_Source\PSoC5/cyfitter_cfg.c **** 			{0x40u, 0x10u},
2138:.\Generated_Source\PSoC5/cyfitter_cfg.c **** 			{0x41u, 0x06u},
2139:.\Generated_Source\PSoC5/cyfitter_cfg.c **** 			{0x49u, 0xFFu},
2140:.\Generated_Source\PSoC5/cyfitter_cfg.c **** 			{0x4Au, 0xFFu},
2141:.\Generated_Source\PSoC5/cyfitter_cfg.c **** 			{0x4Bu, 0xFFu},
2142:.\Generated_Source\PSoC5/cyfitter_cfg.c **** 			{0x4Du, 0xA0u},
2143:.\Generated_Source\PSoC5/cyfitter_cfg.c **** 			{0x4Fu, 0x04u},
2144:.\Generated_Source\PSoC5/cyfitter_cfg.c **** 			{0x50u, 0x18u},
2145:.\Generated_Source\PSoC5/cyfitter_cfg.c **** 			{0x56u, 0x08u},
2146:.\Generated_Source\PSoC5/cyfitter_cfg.c **** 			{0x58u, 0x04u},
2147:.\Generated_Source\PSoC5/cyfitter_cfg.c **** 			{0x59u, 0x04u},
2148:.\Generated_Source\PSoC5/cyfitter_cfg.c **** 			{0x5Au, 0x04u},
2149:.\Generated_Source\PSoC5/cyfitter_cfg.c **** 			{0x5Bu, 0x04u},
2150:.\Generated_Source\PSoC5/cyfitter_cfg.c **** 			{0x5Cu, 0x33u},
2151:.\Generated_Source\PSoC5/cyfitter_cfg.c **** 			{0x5Du, 0x93u},
2152:.\Generated_Source\PSoC5/cyfitter_cfg.c **** 			{0x5Fu, 0x01u},
2153:.\Generated_Source\PSoC5/cyfitter_cfg.c **** 			{0x60u, 0x40u},
2154:.\Generated_Source\PSoC5/cyfitter_cfg.c **** 			{0x62u, 0xC0u},
2155:.\Generated_Source\PSoC5/cyfitter_cfg.c **** 			{0x64u, 0x40u},
2156:.\Generated_Source\PSoC5/cyfitter_cfg.c **** 			{0x65u, 0x40u},
2157:.\Generated_Source\PSoC5/cyfitter_cfg.c **** 			{0x66u, 0xC0u},
2158:.\Generated_Source\PSoC5/cyfitter_cfg.c **** 			{0x68u, 0xC0u},
2159:.\Generated_Source\PSoC5/cyfitter_cfg.c **** 			{0x6Au, 0xC0u},
2160:.\Generated_Source\PSoC5/cyfitter_cfg.c **** 			{0x6Cu, 0xC0u},
2161:.\Generated_Source\PSoC5/cyfitter_cfg.c **** 			{0x6Eu, 0xC0u},
2162:.\Generated_Source\PSoC5/cyfitter_cfg.c **** 			{0x82u, 0x01u},
2163:.\Generated_Source\PSoC5/cyfitter_cfg.c **** 			{0x89u, 0x02u},
2164:.\Generated_Source\PSoC5/cyfitter_cfg.c **** 			{0x8Cu, 0x02u},
2165:.\Generated_Source\PSoC5/cyfitter_cfg.c **** 			{0x9Du, 0x01u},
2166:.\Generated_Source\PSoC5/cyfitter_cfg.c **** 			{0x9Eu, 0x04u},
2167:.\Generated_Source\PSoC5/cyfitter_cfg.c **** 			{0xA3u, 0x04u},
2168:.\Generated_Source\PSoC5/cyfitter_cfg.c **** 			{0xA4u, 0x02u},
2169:.\Generated_Source\PSoC5/cyfitter_cfg.c **** 			{0xAAu, 0x04u},
2170:.\Generated_Source\PSoC5/cyfitter_cfg.c **** 			{0xAFu, 0x04u},
2171:.\Generated_Source\PSoC5/cyfitter_cfg.c **** 			{0xB0u, 0x02u},
2172:.\Generated_Source\PSoC5/cyfitter_cfg.c **** 			{0xB3u, 0x01u},
2173:.\Generated_Source\PSoC5/cyfitter_cfg.c **** 			{0xB4u, 0x04u},
2174:.\Generated_Source\PSoC5/cyfitter_cfg.c **** 			{0xB5u, 0x04u},
2175:.\Generated_Source\PSoC5/cyfitter_cfg.c **** 			{0xB6u, 0x01u},
2176:.\Generated_Source\PSoC5/cyfitter_cfg.c **** 			{0xB7u, 0x02u},
2177:.\Generated_Source\PSoC5/cyfitter_cfg.c **** 			{0xBEu, 0x10u},
2178:.\Generated_Source\PSoC5/cyfitter_cfg.c **** 			{0xBFu, 0x04u},
2179:.\Generated_Source\PSoC5/cyfitter_cfg.c **** 			{0xC0u, 0x10u},
2180:.\Generated_Source\PSoC5/cyfitter_cfg.c **** 			{0xC1u, 0x02u},
2181:.\Generated_Source\PSoC5/cyfitter_cfg.c **** 			{0xC5u, 0xD0u},
2182:.\Generated_Source\PSoC5/cyfitter_cfg.c **** 			{0xC6u, 0x10u},
2183:.\Generated_Source\PSoC5/cyfitter_cfg.c **** 			{0xC7u, 0x52u},
2184:.\Generated_Source\PSoC5/cyfitter_cfg.c **** 			{0xC8u, 0x3Au},
2185:.\Generated_Source\PSoC5/cyfitter_cfg.c **** 			{0xC9u, 0xFFu},
2186:.\Generated_Source\PSoC5/cyfitter_cfg.c **** 			{0xCAu, 0xFFu},
2187:.\Generated_Source\PSoC5/cyfitter_cfg.c **** 			{0xCBu, 0xFFu},
2188:.\Generated_Source\PSoC5/cyfitter_cfg.c **** 			{0xCDu, 0xAFu},
2189:.\Generated_Source\PSoC5/cyfitter_cfg.c **** 			{0xCEu, 0x0Fu},
2190:.\Generated_Source\PSoC5/cyfitter_cfg.c **** 			{0xCFu, 0x04u},
2191:.\Generated_Source\PSoC5/cyfitter_cfg.c **** 			{0xD0u, 0x18u},
2192:.\Generated_Source\PSoC5/cyfitter_cfg.c **** 			{0xD2u, 0x80u},
ARM GAS  C:\Users\xavieran\AppData\Local\Temp\ccykvWSD.s 			page 50


2193:.\Generated_Source\PSoC5/cyfitter_cfg.c **** 			{0xD4u, 0x07u},
2194:.\Generated_Source\PSoC5/cyfitter_cfg.c **** 			{0xD8u, 0x04u},
2195:.\Generated_Source\PSoC5/cyfitter_cfg.c **** 			{0xD9u, 0x04u},
2196:.\Generated_Source\PSoC5/cyfitter_cfg.c **** 			{0xDAu, 0x04u},
2197:.\Generated_Source\PSoC5/cyfitter_cfg.c **** 			{0xDBu, 0x04u},
2198:.\Generated_Source\PSoC5/cyfitter_cfg.c **** 			{0xDCu, 0x33u},
2199:.\Generated_Source\PSoC5/cyfitter_cfg.c **** 			{0xDDu, 0x33u},
2200:.\Generated_Source\PSoC5/cyfitter_cfg.c **** 			{0xDFu, 0x01u},
2201:.\Generated_Source\PSoC5/cyfitter_cfg.c **** 			{0xE0u, 0x40u},
2202:.\Generated_Source\PSoC5/cyfitter_cfg.c **** 			{0xE2u, 0xC0u},
2203:.\Generated_Source\PSoC5/cyfitter_cfg.c **** 			{0xE4u, 0x40u},
2204:.\Generated_Source\PSoC5/cyfitter_cfg.c **** 			{0xE5u, 0x40u},
2205:.\Generated_Source\PSoC5/cyfitter_cfg.c **** 			{0xE6u, 0xC0u},
2206:.\Generated_Source\PSoC5/cyfitter_cfg.c **** 			{0xE8u, 0xC0u},
2207:.\Generated_Source\PSoC5/cyfitter_cfg.c **** 			{0xEAu, 0xC0u},
2208:.\Generated_Source\PSoC5/cyfitter_cfg.c **** 			{0xECu, 0xC0u},
2209:.\Generated_Source\PSoC5/cyfitter_cfg.c **** 			{0xEEu, 0xC0u},
2210:.\Generated_Source\PSoC5/cyfitter_cfg.c **** 			{0x06u, 0x40u},
2211:.\Generated_Source\PSoC5/cyfitter_cfg.c **** 			{0x07u, 0x01u},
2212:.\Generated_Source\PSoC5/cyfitter_cfg.c **** 			{0x0Eu, 0x01u},
2213:.\Generated_Source\PSoC5/cyfitter_cfg.c **** 			{0x10u, 0x02u},
2214:.\Generated_Source\PSoC5/cyfitter_cfg.c **** 			{0x16u, 0x28u},
2215:.\Generated_Source\PSoC5/cyfitter_cfg.c **** 			{0x19u, 0x08u},
2216:.\Generated_Source\PSoC5/cyfitter_cfg.c **** 			{0x1Eu, 0x49u},
2217:.\Generated_Source\PSoC5/cyfitter_cfg.c **** 			{0x22u, 0x01u},
2218:.\Generated_Source\PSoC5/cyfitter_cfg.c **** 			{0x23u, 0x28u},
2219:.\Generated_Source\PSoC5/cyfitter_cfg.c **** 			{0x26u, 0x18u},
2220:.\Generated_Source\PSoC5/cyfitter_cfg.c **** 			{0x27u, 0x01u},
2221:.\Generated_Source\PSoC5/cyfitter_cfg.c **** 			{0x29u, 0x0Au},
2222:.\Generated_Source\PSoC5/cyfitter_cfg.c **** 			{0x2Au, 0x20u},
2223:.\Generated_Source\PSoC5/cyfitter_cfg.c **** 			{0x2Cu, 0x02u},
2224:.\Generated_Source\PSoC5/cyfitter_cfg.c **** 			{0x2Eu, 0x01u},
2225:.\Generated_Source\PSoC5/cyfitter_cfg.c **** 			{0x30u, 0x0Au},
2226:.\Generated_Source\PSoC5/cyfitter_cfg.c **** 			{0x35u, 0x40u},
2227:.\Generated_Source\PSoC5/cyfitter_cfg.c **** 			{0x3Au, 0x06u},
2228:.\Generated_Source\PSoC5/cyfitter_cfg.c **** 			{0x3Bu, 0x80u},
2229:.\Generated_Source\PSoC5/cyfitter_cfg.c **** 			{0x3Eu, 0x20u},
2230:.\Generated_Source\PSoC5/cyfitter_cfg.c **** 			{0x42u, 0x03u},
2231:.\Generated_Source\PSoC5/cyfitter_cfg.c **** 			{0x46u, 0x0Au},
2232:.\Generated_Source\PSoC5/cyfitter_cfg.c **** 			{0x48u, 0x04u},
2233:.\Generated_Source\PSoC5/cyfitter_cfg.c **** 			{0x4Du, 0x01u},
2234:.\Generated_Source\PSoC5/cyfitter_cfg.c **** 			{0x54u, 0x06u},
2235:.\Generated_Source\PSoC5/cyfitter_cfg.c **** 			{0x56u, 0x28u},
2236:.\Generated_Source\PSoC5/cyfitter_cfg.c **** 			{0x58u, 0x80u},
2237:.\Generated_Source\PSoC5/cyfitter_cfg.c **** 			{0x5Du, 0x01u},
2238:.\Generated_Source\PSoC5/cyfitter_cfg.c **** 			{0x5Eu, 0x48u},
2239:.\Generated_Source\PSoC5/cyfitter_cfg.c **** 			{0x5Fu, 0x20u},
2240:.\Generated_Source\PSoC5/cyfitter_cfg.c **** 			{0x60u, 0x02u},
2241:.\Generated_Source\PSoC5/cyfitter_cfg.c **** 			{0x76u, 0x40u},
2242:.\Generated_Source\PSoC5/cyfitter_cfg.c **** 			{0x83u, 0x08u},
2243:.\Generated_Source\PSoC5/cyfitter_cfg.c **** 			{0x88u, 0x80u},
2244:.\Generated_Source\PSoC5/cyfitter_cfg.c **** 			{0x8Au, 0x10u},
2245:.\Generated_Source\PSoC5/cyfitter_cfg.c **** 			{0x8Bu, 0x08u},
2246:.\Generated_Source\PSoC5/cyfitter_cfg.c **** 			{0x93u, 0x80u},
2247:.\Generated_Source\PSoC5/cyfitter_cfg.c **** 			{0x96u, 0x02u},
2248:.\Generated_Source\PSoC5/cyfitter_cfg.c **** 			{0x99u, 0x42u},
2249:.\Generated_Source\PSoC5/cyfitter_cfg.c **** 			{0x9Au, 0x04u},
ARM GAS  C:\Users\xavieran\AppData\Local\Temp\ccykvWSD.s 			page 51


2250:.\Generated_Source\PSoC5/cyfitter_cfg.c **** 			{0x9Cu, 0x02u},
2251:.\Generated_Source\PSoC5/cyfitter_cfg.c **** 			{0x9Fu, 0x08u},
2252:.\Generated_Source\PSoC5/cyfitter_cfg.c **** 			{0xA0u, 0x08u},
2253:.\Generated_Source\PSoC5/cyfitter_cfg.c **** 			{0xA3u, 0x08u},
2254:.\Generated_Source\PSoC5/cyfitter_cfg.c **** 			{0xA6u, 0x08u},
2255:.\Generated_Source\PSoC5/cyfitter_cfg.c **** 			{0xACu, 0x20u},
2256:.\Generated_Source\PSoC5/cyfitter_cfg.c **** 			{0xAEu, 0x20u},
2257:.\Generated_Source\PSoC5/cyfitter_cfg.c **** 			{0xB2u, 0x04u},
2258:.\Generated_Source\PSoC5/cyfitter_cfg.c **** 			{0xB4u, 0x80u},
2259:.\Generated_Source\PSoC5/cyfitter_cfg.c **** 			{0xB6u, 0x01u},
2260:.\Generated_Source\PSoC5/cyfitter_cfg.c **** 			{0xC0u, 0x90u},
2261:.\Generated_Source\PSoC5/cyfitter_cfg.c **** 			{0xC2u, 0x80u},
2262:.\Generated_Source\PSoC5/cyfitter_cfg.c **** 			{0xC4u, 0x61u},
2263:.\Generated_Source\PSoC5/cyfitter_cfg.c **** 			{0xCAu, 0x97u},
2264:.\Generated_Source\PSoC5/cyfitter_cfg.c **** 			{0xCCu, 0x13u},
2265:.\Generated_Source\PSoC5/cyfitter_cfg.c **** 			{0xCEu, 0x2Bu},
2266:.\Generated_Source\PSoC5/cyfitter_cfg.c **** 			{0xD0u, 0x38u},
2267:.\Generated_Source\PSoC5/cyfitter_cfg.c **** 			{0xD2u, 0x04u},
2268:.\Generated_Source\PSoC5/cyfitter_cfg.c **** 			{0xD6u, 0xF8u},
2269:.\Generated_Source\PSoC5/cyfitter_cfg.c **** 			{0xD8u, 0x08u},
2270:.\Generated_Source\PSoC5/cyfitter_cfg.c **** 			{0xE2u, 0xC0u},
2271:.\Generated_Source\PSoC5/cyfitter_cfg.c **** 			{0xE4u, 0x01u},
2272:.\Generated_Source\PSoC5/cyfitter_cfg.c **** 			{0xE6u, 0x80u},
2273:.\Generated_Source\PSoC5/cyfitter_cfg.c **** 			{0xEAu, 0x01u},
2274:.\Generated_Source\PSoC5/cyfitter_cfg.c **** 			{0xECu, 0x40u},
2275:.\Generated_Source\PSoC5/cyfitter_cfg.c **** 			{0x0Au, 0x14u},
2276:.\Generated_Source\PSoC5/cyfitter_cfg.c **** 			{0x0Eu, 0x02u},
2277:.\Generated_Source\PSoC5/cyfitter_cfg.c **** 			{0x0Fu, 0x40u},
2278:.\Generated_Source\PSoC5/cyfitter_cfg.c **** 			{0x31u, 0x20u},
2279:.\Generated_Source\PSoC5/cyfitter_cfg.c **** 			{0x32u, 0x02u},
2280:.\Generated_Source\PSoC5/cyfitter_cfg.c **** 			{0x34u, 0x08u},
2281:.\Generated_Source\PSoC5/cyfitter_cfg.c **** 			{0x36u, 0x10u},
2282:.\Generated_Source\PSoC5/cyfitter_cfg.c **** 			{0x3Au, 0x20u},
2283:.\Generated_Source\PSoC5/cyfitter_cfg.c **** 			{0x3Eu, 0x80u},
2284:.\Generated_Source\PSoC5/cyfitter_cfg.c **** 			{0x55u, 0x40u},
2285:.\Generated_Source\PSoC5/cyfitter_cfg.c **** 			{0x5Cu, 0x20u},
2286:.\Generated_Source\PSoC5/cyfitter_cfg.c **** 			{0x82u, 0x80u},
2287:.\Generated_Source\PSoC5/cyfitter_cfg.c **** 			{0x86u, 0x04u},
2288:.\Generated_Source\PSoC5/cyfitter_cfg.c **** 			{0xC2u, 0xF0u},
2289:.\Generated_Source\PSoC5/cyfitter_cfg.c **** 			{0xCCu, 0xF0u},
2290:.\Generated_Source\PSoC5/cyfitter_cfg.c **** 			{0xCEu, 0x30u},
2291:.\Generated_Source\PSoC5/cyfitter_cfg.c **** 			{0xD4u, 0x40u},
2292:.\Generated_Source\PSoC5/cyfitter_cfg.c **** 			{0xD6u, 0x20u},
2293:.\Generated_Source\PSoC5/cyfitter_cfg.c **** 			{0xE0u, 0x40u},
2294:.\Generated_Source\PSoC5/cyfitter_cfg.c **** 			{0xE2u, 0x80u},
2295:.\Generated_Source\PSoC5/cyfitter_cfg.c **** 			{0x03u, 0x20u},
2296:.\Generated_Source\PSoC5/cyfitter_cfg.c **** 			{0x07u, 0x10u},
2297:.\Generated_Source\PSoC5/cyfitter_cfg.c **** 			{0x30u, 0x20u},
2298:.\Generated_Source\PSoC5/cyfitter_cfg.c **** 			{0x33u, 0x01u},
2299:.\Generated_Source\PSoC5/cyfitter_cfg.c **** 			{0x35u, 0x01u},
2300:.\Generated_Source\PSoC5/cyfitter_cfg.c **** 			{0x36u, 0x40u},
2301:.\Generated_Source\PSoC5/cyfitter_cfg.c **** 			{0x38u, 0x20u},
2302:.\Generated_Source\PSoC5/cyfitter_cfg.c **** 			{0x59u, 0x02u},
2303:.\Generated_Source\PSoC5/cyfitter_cfg.c **** 			{0x5Eu, 0x02u},
2304:.\Generated_Source\PSoC5/cyfitter_cfg.c **** 			{0x62u, 0x10u},
2305:.\Generated_Source\PSoC5/cyfitter_cfg.c **** 			{0x65u, 0x04u},
2306:.\Generated_Source\PSoC5/cyfitter_cfg.c **** 			{0x82u, 0x01u},
ARM GAS  C:\Users\xavieran\AppData\Local\Temp\ccykvWSD.s 			page 52


2307:.\Generated_Source\PSoC5/cyfitter_cfg.c **** 			{0x84u, 0x20u},
2308:.\Generated_Source\PSoC5/cyfitter_cfg.c **** 			{0x9Cu, 0x28u},
2309:.\Generated_Source\PSoC5/cyfitter_cfg.c **** 			{0x9Eu, 0x20u},
2310:.\Generated_Source\PSoC5/cyfitter_cfg.c **** 			{0xA5u, 0x60u},
2311:.\Generated_Source\PSoC5/cyfitter_cfg.c **** 			{0xA6u, 0x12u},
2312:.\Generated_Source\PSoC5/cyfitter_cfg.c **** 			{0xAAu, 0x11u},
2313:.\Generated_Source\PSoC5/cyfitter_cfg.c **** 			{0xAFu, 0x40u},
2314:.\Generated_Source\PSoC5/cyfitter_cfg.c **** 			{0xC0u, 0x30u},
2315:.\Generated_Source\PSoC5/cyfitter_cfg.c **** 			{0xCCu, 0xF0u},
2316:.\Generated_Source\PSoC5/cyfitter_cfg.c **** 			{0xCEu, 0x10u},
2317:.\Generated_Source\PSoC5/cyfitter_cfg.c **** 			{0xD6u, 0xC0u},
2318:.\Generated_Source\PSoC5/cyfitter_cfg.c **** 			{0xD8u, 0xC0u},
2319:.\Generated_Source\PSoC5/cyfitter_cfg.c **** 			{0xE2u, 0x40u},
2320:.\Generated_Source\PSoC5/cyfitter_cfg.c **** 			{0xE6u, 0x80u},
2321:.\Generated_Source\PSoC5/cyfitter_cfg.c **** 			{0xE8u, 0x80u},
2322:.\Generated_Source\PSoC5/cyfitter_cfg.c **** 			{0xECu, 0xC0u},
2323:.\Generated_Source\PSoC5/cyfitter_cfg.c **** 			{0x12u, 0x80u},
2324:.\Generated_Source\PSoC5/cyfitter_cfg.c **** 			{0x3Eu, 0x10u},
2325:.\Generated_Source\PSoC5/cyfitter_cfg.c **** 			{0x55u, 0x04u},
2326:.\Generated_Source\PSoC5/cyfitter_cfg.c **** 			{0x58u, 0x04u},
2327:.\Generated_Source\PSoC5/cyfitter_cfg.c **** 			{0x5Du, 0x01u},
2328:.\Generated_Source\PSoC5/cyfitter_cfg.c **** 			{0x63u, 0x10u},
2329:.\Generated_Source\PSoC5/cyfitter_cfg.c **** 			{0x67u, 0x10u},
2330:.\Generated_Source\PSoC5/cyfitter_cfg.c **** 			{0x80u, 0x80u},
2331:.\Generated_Source\PSoC5/cyfitter_cfg.c **** 			{0x84u, 0x20u},
2332:.\Generated_Source\PSoC5/cyfitter_cfg.c **** 			{0x89u, 0x40u},
2333:.\Generated_Source\PSoC5/cyfitter_cfg.c **** 			{0x94u, 0x20u},
2334:.\Generated_Source\PSoC5/cyfitter_cfg.c **** 			{0x9Bu, 0x10u},
2335:.\Generated_Source\PSoC5/cyfitter_cfg.c **** 			{0x9Cu, 0x28u},
2336:.\Generated_Source\PSoC5/cyfitter_cfg.c **** 			{0x9Du, 0x07u},
2337:.\Generated_Source\PSoC5/cyfitter_cfg.c **** 			{0x9Eu, 0x10u},
2338:.\Generated_Source\PSoC5/cyfitter_cfg.c **** 			{0x9Fu, 0x01u},
2339:.\Generated_Source\PSoC5/cyfitter_cfg.c **** 			{0xA3u, 0x20u},
2340:.\Generated_Source\PSoC5/cyfitter_cfg.c **** 			{0xA5u, 0x60u},
2341:.\Generated_Source\PSoC5/cyfitter_cfg.c **** 			{0xA6u, 0x52u},
2342:.\Generated_Source\PSoC5/cyfitter_cfg.c **** 			{0xAAu, 0x20u},
2343:.\Generated_Source\PSoC5/cyfitter_cfg.c **** 			{0xC4u, 0x10u},
2344:.\Generated_Source\PSoC5/cyfitter_cfg.c **** 			{0xCEu, 0x20u},
2345:.\Generated_Source\PSoC5/cyfitter_cfg.c **** 			{0xD4u, 0x40u},
2346:.\Generated_Source\PSoC5/cyfitter_cfg.c **** 			{0xD6u, 0xC0u},
2347:.\Generated_Source\PSoC5/cyfitter_cfg.c **** 			{0xD8u, 0xC0u},
2348:.\Generated_Source\PSoC5/cyfitter_cfg.c **** 			{0xE4u, 0x80u},
2349:.\Generated_Source\PSoC5/cyfitter_cfg.c **** 			{0xE6u, 0x10u},
2350:.\Generated_Source\PSoC5/cyfitter_cfg.c **** 			{0xEAu, 0x20u},
2351:.\Generated_Source\PSoC5/cyfitter_cfg.c **** 			{0x18u, 0x01u},
2352:.\Generated_Source\PSoC5/cyfitter_cfg.c **** 			{0x1Au, 0x40u},
2353:.\Generated_Source\PSoC5/cyfitter_cfg.c **** 			{0x1Du, 0x84u},
2354:.\Generated_Source\PSoC5/cyfitter_cfg.c **** 			{0x81u, 0x02u},
2355:.\Generated_Source\PSoC5/cyfitter_cfg.c **** 			{0x82u, 0x40u},
2356:.\Generated_Source\PSoC5/cyfitter_cfg.c **** 			{0x86u, 0x10u},
2357:.\Generated_Source\PSoC5/cyfitter_cfg.c **** 			{0x8Bu, 0x04u},
2358:.\Generated_Source\PSoC5/cyfitter_cfg.c **** 			{0x8Du, 0x04u},
2359:.\Generated_Source\PSoC5/cyfitter_cfg.c **** 			{0x8Eu, 0x10u},
2360:.\Generated_Source\PSoC5/cyfitter_cfg.c **** 			{0x94u, 0x20u},
2361:.\Generated_Source\PSoC5/cyfitter_cfg.c **** 			{0x96u, 0x10u},
2362:.\Generated_Source\PSoC5/cyfitter_cfg.c **** 			{0x9Cu, 0x88u},
2363:.\Generated_Source\PSoC5/cyfitter_cfg.c **** 			{0x9Du, 0x07u},
ARM GAS  C:\Users\xavieran\AppData\Local\Temp\ccykvWSD.s 			page 53


2364:.\Generated_Source\PSoC5/cyfitter_cfg.c **** 			{0x9Eu, 0x10u},
2365:.\Generated_Source\PSoC5/cyfitter_cfg.c **** 			{0x9Fu, 0x01u},
2366:.\Generated_Source\PSoC5/cyfitter_cfg.c **** 			{0xA2u, 0x80u},
2367:.\Generated_Source\PSoC5/cyfitter_cfg.c **** 			{0xA3u, 0x20u},
2368:.\Generated_Source\PSoC5/cyfitter_cfg.c **** 			{0xA5u, 0x24u},
2369:.\Generated_Source\PSoC5/cyfitter_cfg.c **** 			{0xA6u, 0x52u},
2370:.\Generated_Source\PSoC5/cyfitter_cfg.c **** 			{0xABu, 0x10u},
2371:.\Generated_Source\PSoC5/cyfitter_cfg.c **** 			{0xACu, 0x04u},
2372:.\Generated_Source\PSoC5/cyfitter_cfg.c **** 			{0xADu, 0x01u},
2373:.\Generated_Source\PSoC5/cyfitter_cfg.c **** 			{0xAFu, 0x10u},
2374:.\Generated_Source\PSoC5/cyfitter_cfg.c **** 			{0xC6u, 0xF0u},
2375:.\Generated_Source\PSoC5/cyfitter_cfg.c **** 			{0xE0u, 0x20u},
2376:.\Generated_Source\PSoC5/cyfitter_cfg.c **** 			{0xE2u, 0x40u},
2377:.\Generated_Source\PSoC5/cyfitter_cfg.c **** 			{0xE6u, 0x20u},
2378:.\Generated_Source\PSoC5/cyfitter_cfg.c **** 			{0xE8u, 0x20u},
2379:.\Generated_Source\PSoC5/cyfitter_cfg.c **** 			{0xEAu, 0x10u},
2380:.\Generated_Source\PSoC5/cyfitter_cfg.c **** 			{0x01u, 0x40u},
2381:.\Generated_Source\PSoC5/cyfitter_cfg.c **** 			{0x03u, 0x80u},
2382:.\Generated_Source\PSoC5/cyfitter_cfg.c **** 			{0x04u, 0x28u},
2383:.\Generated_Source\PSoC5/cyfitter_cfg.c **** 			{0x08u, 0x04u},
2384:.\Generated_Source\PSoC5/cyfitter_cfg.c **** 			{0x65u, 0x80u},
2385:.\Generated_Source\PSoC5/cyfitter_cfg.c **** 			{0x8Bu, 0xA0u},
2386:.\Generated_Source\PSoC5/cyfitter_cfg.c **** 			{0x8Cu, 0x14u},
2387:.\Generated_Source\PSoC5/cyfitter_cfg.c **** 			{0x8Du, 0x40u},
2388:.\Generated_Source\PSoC5/cyfitter_cfg.c **** 			{0xC0u, 0x0Fu},
2389:.\Generated_Source\PSoC5/cyfitter_cfg.c **** 			{0xC2u, 0x08u},
2390:.\Generated_Source\PSoC5/cyfitter_cfg.c **** 			{0xD6u, 0x01u},
2391:.\Generated_Source\PSoC5/cyfitter_cfg.c **** 			{0xE2u, 0x0Bu},
2392:.\Generated_Source\PSoC5/cyfitter_cfg.c **** 			{0xE6u, 0x06u},
2393:.\Generated_Source\PSoC5/cyfitter_cfg.c **** 			{0x03u, 0x40u},
2394:.\Generated_Source\PSoC5/cyfitter_cfg.c **** 			{0x08u, 0x04u},
2395:.\Generated_Source\PSoC5/cyfitter_cfg.c **** 			{0x0Fu, 0x40u},
2396:.\Generated_Source\PSoC5/cyfitter_cfg.c **** 			{0x5Bu, 0x08u},
2397:.\Generated_Source\PSoC5/cyfitter_cfg.c **** 			{0x64u, 0x10u},
2398:.\Generated_Source\PSoC5/cyfitter_cfg.c **** 			{0x85u, 0x02u},
2399:.\Generated_Source\PSoC5/cyfitter_cfg.c **** 			{0x8Eu, 0x01u},
2400:.\Generated_Source\PSoC5/cyfitter_cfg.c **** 			{0x9Du, 0x80u},
2401:.\Generated_Source\PSoC5/cyfitter_cfg.c **** 			{0x9Fu, 0x20u},
2402:.\Generated_Source\PSoC5/cyfitter_cfg.c **** 			{0xB0u, 0x04u},
2403:.\Generated_Source\PSoC5/cyfitter_cfg.c **** 			{0xC0u, 0x08u},
2404:.\Generated_Source\PSoC5/cyfitter_cfg.c **** 			{0xC2u, 0x0Cu},
2405:.\Generated_Source\PSoC5/cyfitter_cfg.c **** 			{0xD6u, 0x02u},
2406:.\Generated_Source\PSoC5/cyfitter_cfg.c **** 			{0xD8u, 0x01u},
2407:.\Generated_Source\PSoC5/cyfitter_cfg.c **** 			{0xE0u, 0x08u},
2408:.\Generated_Source\PSoC5/cyfitter_cfg.c **** 			{0xEEu, 0x01u},
2409:.\Generated_Source\PSoC5/cyfitter_cfg.c **** 			{0x07u, 0x20u},
2410:.\Generated_Source\PSoC5/cyfitter_cfg.c **** 			{0x86u, 0x20u},
2411:.\Generated_Source\PSoC5/cyfitter_cfg.c **** 			{0x87u, 0x40u},
2412:.\Generated_Source\PSoC5/cyfitter_cfg.c **** 			{0x93u, 0x40u},
2413:.\Generated_Source\PSoC5/cyfitter_cfg.c **** 			{0x98u, 0x04u},
2414:.\Generated_Source\PSoC5/cyfitter_cfg.c **** 			{0x9Cu, 0x10u},
2415:.\Generated_Source\PSoC5/cyfitter_cfg.c **** 			{0x9Du, 0x80u},
2416:.\Generated_Source\PSoC5/cyfitter_cfg.c **** 			{0x9Fu, 0x28u},
2417:.\Generated_Source\PSoC5/cyfitter_cfg.c **** 			{0xA2u, 0x01u},
2418:.\Generated_Source\PSoC5/cyfitter_cfg.c **** 			{0xA5u, 0x02u},
2419:.\Generated_Source\PSoC5/cyfitter_cfg.c **** 			{0xABu, 0x40u},
2420:.\Generated_Source\PSoC5/cyfitter_cfg.c **** 			{0xC0u, 0x04u},
ARM GAS  C:\Users\xavieran\AppData\Local\Temp\ccykvWSD.s 			page 54


2421:.\Generated_Source\PSoC5/cyfitter_cfg.c **** 			{0x09u, 0x02u},
2422:.\Generated_Source\PSoC5/cyfitter_cfg.c **** 			{0x0Bu, 0x04u},
2423:.\Generated_Source\PSoC5/cyfitter_cfg.c **** 			{0x0Fu, 0x40u},
2424:.\Generated_Source\PSoC5/cyfitter_cfg.c **** 			{0x81u, 0x80u},
2425:.\Generated_Source\PSoC5/cyfitter_cfg.c **** 			{0x98u, 0x04u},
2426:.\Generated_Source\PSoC5/cyfitter_cfg.c **** 			{0x9Cu, 0x10u},
2427:.\Generated_Source\PSoC5/cyfitter_cfg.c **** 			{0x9Du, 0x80u},
2428:.\Generated_Source\PSoC5/cyfitter_cfg.c **** 			{0x9Fu, 0x08u},
2429:.\Generated_Source\PSoC5/cyfitter_cfg.c **** 			{0xA2u, 0x21u},
2430:.\Generated_Source\PSoC5/cyfitter_cfg.c **** 			{0xA5u, 0x02u},
2431:.\Generated_Source\PSoC5/cyfitter_cfg.c **** 			{0xB0u, 0x04u},
2432:.\Generated_Source\PSoC5/cyfitter_cfg.c **** 			{0xC2u, 0x0Eu},
2433:.\Generated_Source\PSoC5/cyfitter_cfg.c **** 			{0xEEu, 0x01u},
2434:.\Generated_Source\PSoC5/cyfitter_cfg.c **** 			{0x26u, 0x20u},
2435:.\Generated_Source\PSoC5/cyfitter_cfg.c **** 			{0x29u, 0x80u},
2436:.\Generated_Source\PSoC5/cyfitter_cfg.c **** 			{0x5Au, 0x20u},
2437:.\Generated_Source\PSoC5/cyfitter_cfg.c **** 			{0x81u, 0x80u},
2438:.\Generated_Source\PSoC5/cyfitter_cfg.c **** 			{0x87u, 0x11u},
2439:.\Generated_Source\PSoC5/cyfitter_cfg.c **** 			{0x8Du, 0x20u},
2440:.\Generated_Source\PSoC5/cyfitter_cfg.c **** 			{0x8Eu, 0x20u},
2441:.\Generated_Source\PSoC5/cyfitter_cfg.c **** 			{0x92u, 0x20u},
2442:.\Generated_Source\PSoC5/cyfitter_cfg.c **** 			{0x94u, 0x20u},
2443:.\Generated_Source\PSoC5/cyfitter_cfg.c **** 			{0x96u, 0x10u},
2444:.\Generated_Source\PSoC5/cyfitter_cfg.c **** 			{0x97u, 0x08u},
2445:.\Generated_Source\PSoC5/cyfitter_cfg.c **** 			{0x9Bu, 0x08u},
2446:.\Generated_Source\PSoC5/cyfitter_cfg.c **** 			{0x9Cu, 0x80u},
2447:.\Generated_Source\PSoC5/cyfitter_cfg.c **** 			{0x9Du, 0x01u},
2448:.\Generated_Source\PSoC5/cyfitter_cfg.c **** 			{0xA2u, 0x80u},
2449:.\Generated_Source\PSoC5/cyfitter_cfg.c **** 			{0xA3u, 0x20u},
2450:.\Generated_Source\PSoC5/cyfitter_cfg.c **** 			{0xA5u, 0x21u},
2451:.\Generated_Source\PSoC5/cyfitter_cfg.c **** 			{0xA6u, 0x10u},
2452:.\Generated_Source\PSoC5/cyfitter_cfg.c **** 			{0xA9u, 0x01u},
2453:.\Generated_Source\PSoC5/cyfitter_cfg.c **** 			{0xABu, 0x08u},
2454:.\Generated_Source\PSoC5/cyfitter_cfg.c **** 			{0xAEu, 0x40u},
2455:.\Generated_Source\PSoC5/cyfitter_cfg.c **** 			{0xAFu, 0x01u},
2456:.\Generated_Source\PSoC5/cyfitter_cfg.c **** 			{0xB0u, 0x08u},
2457:.\Generated_Source\PSoC5/cyfitter_cfg.c **** 			{0xB2u, 0x02u},
2458:.\Generated_Source\PSoC5/cyfitter_cfg.c **** 			{0xB4u, 0x01u},
2459:.\Generated_Source\PSoC5/cyfitter_cfg.c **** 			{0xB5u, 0x80u},
2460:.\Generated_Source\PSoC5/cyfitter_cfg.c **** 			{0xC8u, 0x20u},
2461:.\Generated_Source\PSoC5/cyfitter_cfg.c **** 			{0xCAu, 0x10u},
2462:.\Generated_Source\PSoC5/cyfitter_cfg.c **** 			{0xD4u, 0x80u},
2463:.\Generated_Source\PSoC5/cyfitter_cfg.c **** 			{0xE0u, 0x60u},
2464:.\Generated_Source\PSoC5/cyfitter_cfg.c **** 			{0xE6u, 0x40u},
2465:.\Generated_Source\PSoC5/cyfitter_cfg.c **** 			{0xEAu, 0x60u},
2466:.\Generated_Source\PSoC5/cyfitter_cfg.c **** 			{0xECu, 0x80u},
2467:.\Generated_Source\PSoC5/cyfitter_cfg.c **** 			{0xEEu, 0x40u},
2468:.\Generated_Source\PSoC5/cyfitter_cfg.c **** 			{0x03u, 0x01u},
2469:.\Generated_Source\PSoC5/cyfitter_cfg.c **** 			{0x09u, 0x01u},
2470:.\Generated_Source\PSoC5/cyfitter_cfg.c **** 			{0x0Bu, 0x08u},
2471:.\Generated_Source\PSoC5/cyfitter_cfg.c **** 			{0x14u, 0x80u},
2472:.\Generated_Source\PSoC5/cyfitter_cfg.c **** 			{0x21u, 0x40u},
2473:.\Generated_Source\PSoC5/cyfitter_cfg.c **** 			{0x25u, 0x40u},
2474:.\Generated_Source\PSoC5/cyfitter_cfg.c **** 			{0x50u, 0x02u},
2475:.\Generated_Source\PSoC5/cyfitter_cfg.c **** 			{0x5Fu, 0x08u},
2476:.\Generated_Source\PSoC5/cyfitter_cfg.c **** 			{0x67u, 0x20u},
2477:.\Generated_Source\PSoC5/cyfitter_cfg.c **** 			{0x79u, 0x80u},
ARM GAS  C:\Users\xavieran\AppData\Local\Temp\ccykvWSD.s 			page 55


2478:.\Generated_Source\PSoC5/cyfitter_cfg.c **** 			{0x7Du, 0x80u},
2479:.\Generated_Source\PSoC5/cyfitter_cfg.c **** 			{0x81u, 0x01u},
2480:.\Generated_Source\PSoC5/cyfitter_cfg.c **** 			{0x82u, 0x80u},
2481:.\Generated_Source\PSoC5/cyfitter_cfg.c **** 			{0x88u, 0x02u},
2482:.\Generated_Source\PSoC5/cyfitter_cfg.c **** 			{0x8Au, 0x10u},
2483:.\Generated_Source\PSoC5/cyfitter_cfg.c **** 			{0x8Cu, 0x10u},
2484:.\Generated_Source\PSoC5/cyfitter_cfg.c **** 			{0x93u, 0x20u},
2485:.\Generated_Source\PSoC5/cyfitter_cfg.c **** 			{0x94u, 0x20u},
2486:.\Generated_Source\PSoC5/cyfitter_cfg.c **** 			{0x97u, 0x08u},
2487:.\Generated_Source\PSoC5/cyfitter_cfg.c **** 			{0x9Bu, 0x08u},
2488:.\Generated_Source\PSoC5/cyfitter_cfg.c **** 			{0x9Cu, 0x80u},
2489:.\Generated_Source\PSoC5/cyfitter_cfg.c **** 			{0x9Du, 0x01u},
2490:.\Generated_Source\PSoC5/cyfitter_cfg.c **** 			{0x9Fu, 0x01u},
2491:.\Generated_Source\PSoC5/cyfitter_cfg.c **** 			{0xA2u, 0x80u},
2492:.\Generated_Source\PSoC5/cyfitter_cfg.c **** 			{0xA5u, 0x01u},
2493:.\Generated_Source\PSoC5/cyfitter_cfg.c **** 			{0xA6u, 0x10u},
2494:.\Generated_Source\PSoC5/cyfitter_cfg.c **** 			{0xAAu, 0x10u},
2495:.\Generated_Source\PSoC5/cyfitter_cfg.c **** 			{0xAFu, 0x20u},
2496:.\Generated_Source\PSoC5/cyfitter_cfg.c **** 			{0xC0u, 0x40u},
2497:.\Generated_Source\PSoC5/cyfitter_cfg.c **** 			{0xC2u, 0x50u},
2498:.\Generated_Source\PSoC5/cyfitter_cfg.c **** 			{0xC4u, 0x20u},
2499:.\Generated_Source\PSoC5/cyfitter_cfg.c **** 			{0xC8u, 0x30u},
2500:.\Generated_Source\PSoC5/cyfitter_cfg.c **** 			{0xD4u, 0x80u},
2501:.\Generated_Source\PSoC5/cyfitter_cfg.c **** 			{0xD6u, 0x80u},
2502:.\Generated_Source\PSoC5/cyfitter_cfg.c **** 			{0xD8u, 0x80u},
2503:.\Generated_Source\PSoC5/cyfitter_cfg.c **** 			{0xDCu, 0x80u},
2504:.\Generated_Source\PSoC5/cyfitter_cfg.c **** 			{0xDEu, 0x20u},
2505:.\Generated_Source\PSoC5/cyfitter_cfg.c **** 			{0xE2u, 0x20u},
2506:.\Generated_Source\PSoC5/cyfitter_cfg.c **** 			{0xE4u, 0x20u},
2507:.\Generated_Source\PSoC5/cyfitter_cfg.c **** 			{0xEAu, 0x80u},
2508:.\Generated_Source\PSoC5/cyfitter_cfg.c **** 			{0xECu, 0x10u},
2509:.\Generated_Source\PSoC5/cyfitter_cfg.c **** 			{0x09u, 0x80u},
2510:.\Generated_Source\PSoC5/cyfitter_cfg.c **** 			{0x0Fu, 0x04u},
2511:.\Generated_Source\PSoC5/cyfitter_cfg.c **** 			{0x13u, 0x28u},
2512:.\Generated_Source\PSoC5/cyfitter_cfg.c **** 			{0x14u, 0x10u},
2513:.\Generated_Source\PSoC5/cyfitter_cfg.c **** 			{0x5Eu, 0x02u},
2514:.\Generated_Source\PSoC5/cyfitter_cfg.c **** 			{0x78u, 0x84u},
2515:.\Generated_Source\PSoC5/cyfitter_cfg.c **** 			{0x7Eu, 0x20u},
2516:.\Generated_Source\PSoC5/cyfitter_cfg.c **** 			{0x8Cu, 0x80u},
2517:.\Generated_Source\PSoC5/cyfitter_cfg.c **** 			{0x98u, 0x04u},
2518:.\Generated_Source\PSoC5/cyfitter_cfg.c **** 			{0x99u, 0xA0u},
2519:.\Generated_Source\PSoC5/cyfitter_cfg.c **** 			{0x9Cu, 0x10u},
2520:.\Generated_Source\PSoC5/cyfitter_cfg.c **** 			{0x9Fu, 0x08u},
2521:.\Generated_Source\PSoC5/cyfitter_cfg.c **** 			{0xA0u, 0x08u},
2522:.\Generated_Source\PSoC5/cyfitter_cfg.c **** 			{0xA2u, 0x21u},
2523:.\Generated_Source\PSoC5/cyfitter_cfg.c **** 			{0xAFu, 0x44u},
2524:.\Generated_Source\PSoC5/cyfitter_cfg.c **** 			{0xB4u, 0x08u},
2525:.\Generated_Source\PSoC5/cyfitter_cfg.c **** 			{0xB5u, 0x20u},
2526:.\Generated_Source\PSoC5/cyfitter_cfg.c **** 			{0xC2u, 0x03u},
2527:.\Generated_Source\PSoC5/cyfitter_cfg.c **** 			{0xC4u, 0x0Eu},
2528:.\Generated_Source\PSoC5/cyfitter_cfg.c **** 			{0xD6u, 0x01u},
2529:.\Generated_Source\PSoC5/cyfitter_cfg.c **** 			{0xDCu, 0x01u},
2530:.\Generated_Source\PSoC5/cyfitter_cfg.c **** 			{0xDEu, 0x03u},
2531:.\Generated_Source\PSoC5/cyfitter_cfg.c **** 			{0xE0u, 0x08u},
2532:.\Generated_Source\PSoC5/cyfitter_cfg.c **** 			{0xE8u, 0x08u},
2533:.\Generated_Source\PSoC5/cyfitter_cfg.c **** 			{0xECu, 0x08u},
2534:.\Generated_Source\PSoC5/cyfitter_cfg.c **** 			{0x0Eu, 0x08u},
ARM GAS  C:\Users\xavieran\AppData\Local\Temp\ccykvWSD.s 			page 56


2535:.\Generated_Source\PSoC5/cyfitter_cfg.c **** 			{0x10u, 0x10u},
2536:.\Generated_Source\PSoC5/cyfitter_cfg.c **** 			{0x59u, 0x20u},
2537:.\Generated_Source\PSoC5/cyfitter_cfg.c **** 			{0x65u, 0x80u},
2538:.\Generated_Source\PSoC5/cyfitter_cfg.c **** 			{0x70u, 0x04u},
2539:.\Generated_Source\PSoC5/cyfitter_cfg.c **** 			{0x74u, 0x08u},
2540:.\Generated_Source\PSoC5/cyfitter_cfg.c **** 			{0x80u, 0x04u},
2541:.\Generated_Source\PSoC5/cyfitter_cfg.c **** 			{0x88u, 0x10u},
2542:.\Generated_Source\PSoC5/cyfitter_cfg.c **** 			{0x8Eu, 0x04u},
2543:.\Generated_Source\PSoC5/cyfitter_cfg.c **** 			{0x99u, 0xA0u},
2544:.\Generated_Source\PSoC5/cyfitter_cfg.c **** 			{0xA0u, 0x08u},
2545:.\Generated_Source\PSoC5/cyfitter_cfg.c **** 			{0xABu, 0x20u},
2546:.\Generated_Source\PSoC5/cyfitter_cfg.c **** 			{0xB3u, 0x04u},
2547:.\Generated_Source\PSoC5/cyfitter_cfg.c **** 			{0xB5u, 0x80u},
2548:.\Generated_Source\PSoC5/cyfitter_cfg.c **** 			{0xC2u, 0x01u},
2549:.\Generated_Source\PSoC5/cyfitter_cfg.c **** 			{0xC4u, 0x08u},
2550:.\Generated_Source\PSoC5/cyfitter_cfg.c **** 			{0xD4u, 0x01u},
2551:.\Generated_Source\PSoC5/cyfitter_cfg.c **** 			{0xD6u, 0x01u},
2552:.\Generated_Source\PSoC5/cyfitter_cfg.c **** 			{0xDCu, 0x01u},
2553:.\Generated_Source\PSoC5/cyfitter_cfg.c **** 			{0xDEu, 0x04u},
2554:.\Generated_Source\PSoC5/cyfitter_cfg.c **** 			{0xE2u, 0x06u},
2555:.\Generated_Source\PSoC5/cyfitter_cfg.c **** 			{0xEAu, 0x08u},
2556:.\Generated_Source\PSoC5/cyfitter_cfg.c **** 			{0xEEu, 0x04u},
2557:.\Generated_Source\PSoC5/cyfitter_cfg.c **** 			{0x10u, 0x0Cu},
2558:.\Generated_Source\PSoC5/cyfitter_cfg.c **** 			{0x11u, 0x01u},
2559:.\Generated_Source\PSoC5/cyfitter_cfg.c **** 			{0x1Au, 0x04u},
2560:.\Generated_Source\PSoC5/cyfitter_cfg.c **** 			{0x1Bu, 0x01u},
2561:.\Generated_Source\PSoC5/cyfitter_cfg.c **** 			{0x1Cu, 0x0Cu},
2562:.\Generated_Source\PSoC5/cyfitter_cfg.c **** 			{0x1Du, 0x01u},
2563:.\Generated_Source\PSoC5/cyfitter_cfg.c **** 			{0x10u, 0x01u},
2564:.\Generated_Source\PSoC5/cyfitter_cfg.c **** 		};
2565:.\Generated_Source\PSoC5/cyfitter_cfg.c **** 
2566:.\Generated_Source\PSoC5/cyfitter_cfg.c **** 
2567:.\Generated_Source\PSoC5/cyfitter_cfg.c **** 
2568:.\Generated_Source\PSoC5/cyfitter_cfg.c **** 		CYPACKED typedef struct {
2569:.\Generated_Source\PSoC5/cyfitter_cfg.c **** 			void CYFAR *address;
2570:.\Generated_Source\PSoC5/cyfitter_cfg.c **** 			uint16 size;
2571:.\Generated_Source\PSoC5/cyfitter_cfg.c **** 		} CYPACKED_ATTR cfg_memset_t;
2572:.\Generated_Source\PSoC5/cyfitter_cfg.c **** 
2573:.\Generated_Source\PSoC5/cyfitter_cfg.c **** 
2574:.\Generated_Source\PSoC5/cyfitter_cfg.c **** 		CYPACKED typedef struct {
2575:.\Generated_Source\PSoC5/cyfitter_cfg.c **** 			void CYFAR *dest;
2576:.\Generated_Source\PSoC5/cyfitter_cfg.c **** 			const void CYCODE *src;
2577:.\Generated_Source\PSoC5/cyfitter_cfg.c **** 			uint16 size;
2578:.\Generated_Source\PSoC5/cyfitter_cfg.c **** 		} CYPACKED_ATTR cfg_memcpy_t;
2579:.\Generated_Source\PSoC5/cyfitter_cfg.c **** 
2580:.\Generated_Source\PSoC5/cyfitter_cfg.c **** 		static const cfg_memset_t CYCODE cfg_memset_list [] = {
2581:.\Generated_Source\PSoC5/cyfitter_cfg.c **** 			/* address, size */
2582:.\Generated_Source\PSoC5/cyfitter_cfg.c **** 			{(void CYFAR *)(CYREG_I2C_XCFG), 25u},
2583:.\Generated_Source\PSoC5/cyfitter_cfg.c **** 			{(void CYFAR *)(CYREG_TMR0_CFG0), 48u},
2584:.\Generated_Source\PSoC5/cyfitter_cfg.c **** 			{(void CYFAR *)(CYDEV_UCFG_B0_P0_U0_BASE), 3072u},
2585:.\Generated_Source\PSoC5/cyfitter_cfg.c **** 			{(void CYFAR *)(CYDEV_UCFG_B0_P6_U1_BASE), 896u},
2586:.\Generated_Source\PSoC5/cyfitter_cfg.c **** 			{(void CYFAR *)(CYDEV_UCFG_B1_P2_U0_BASE), 2048u},
2587:.\Generated_Source\PSoC5/cyfitter_cfg.c **** 			{(void CYFAR *)(CYDEV_UCFG_DSI0_BASE), 2560u},
2588:.\Generated_Source\PSoC5/cyfitter_cfg.c **** 			{(void CYFAR *)(CYDEV_UCFG_DSI12_BASE), 512u},
2589:.\Generated_Source\PSoC5/cyfitter_cfg.c **** 			{(void CYFAR *)(CYREG_BCTL1_MDCLK_EN), 16u},
2590:.\Generated_Source\PSoC5/cyfitter_cfg.c **** 		};
2591:.\Generated_Source\PSoC5/cyfitter_cfg.c **** 
ARM GAS  C:\Users\xavieran\AppData\Local\Temp\ccykvWSD.s 			page 57


2592:.\Generated_Source\PSoC5/cyfitter_cfg.c **** 		/* IDMUX_IRQ Address: CYREG_IDMUX_IRQ_CTL0 Size (bytes): 8 */
2593:.\Generated_Source\PSoC5/cyfitter_cfg.c **** 		static const uint8 CYCODE BS_IDMUX_IRQ_VAL[] = {
2594:.\Generated_Source\PSoC5/cyfitter_cfg.c **** 			0xFFu, 0xABu, 0x0Fu, 0xC0u, 0x00u, 0x00u, 0x00u, 0x00u};
2595:.\Generated_Source\PSoC5/cyfitter_cfg.c **** 
2596:.\Generated_Source\PSoC5/cyfitter_cfg.c **** 		/* UDB_0_4_1_CONFIG Address: CYDEV_UCFG_B0_P6_U0_BASE Size (bytes): 128 */
2597:.\Generated_Source\PSoC5/cyfitter_cfg.c **** 		static const uint8 CYCODE BS_UDB_0_4_1_CONFIG_VAL[] = {
2598:.\Generated_Source\PSoC5/cyfitter_cfg.c **** 			0x20u, 0x02u, 0x00u, 0x00u, 0x08u, 0x00u, 0x05u, 0x01u, 0x01u, 0xA9u, 0x04u, 0x54u, 0x01u, 0x4Du
2599:.\Generated_Source\PSoC5/cyfitter_cfg.c **** 			0x00u, 0xCCu, 0x02u, 0x13u, 0x05u, 0x00u, 0x0Au, 0x02u, 0x01u, 0x00u, 0x02u, 0xB5u, 0x00u, 0xA5u
2600:.\Generated_Source\PSoC5/cyfitter_cfg.c **** 			0x00u, 0x1Au, 0x10u, 0x60u, 0x2Fu, 0xFFu, 0x00u, 0x00u, 0x00u, 0x00u, 0x00u, 0x04u, 0x06u, 0x04u
2601:.\Generated_Source\PSoC5/cyfitter_cfg.c **** 			0x00u, 0x00u, 0x1Fu, 0x00u, 0x00u, 0x00u, 0x20u, 0xFFu, 0x00u, 0x00u, 0x00u, 0x00u, 0x00u, 0x00u
2602:.\Generated_Source\PSoC5/cyfitter_cfg.c **** 			0x14u, 0x00u, 0x00u, 0x00u, 0x00u, 0xECu, 0x00u, 0x20u, 0x23u, 0xFFu, 0xFFu, 0xFFu, 0x00u, 0x83u
2603:.\Generated_Source\PSoC5/cyfitter_cfg.c **** 			0x18u, 0x00u, 0x00u, 0x00u, 0x01u, 0x00u, 0x00u, 0x00u, 0x04u, 0x04u, 0x04u, 0x04u, 0x02u, 0x66u
2604:.\Generated_Source\PSoC5/cyfitter_cfg.c **** 			0x40u, 0x00u, 0x40u, 0x00u, 0x40u, 0x40u, 0x80u, 0x00u, 0x80u, 0x00u, 0x80u, 0x00u, 0x80u, 0x00u
2605:.\Generated_Source\PSoC5/cyfitter_cfg.c **** 			0x00u, 0x00u, 0x00u, 0x00u, 0x00u, 0x00u, 0x00u, 0x00u, 0x00u, 0x00u, 0x00u, 0x00u, 0x00u, 0x00u
2606:.\Generated_Source\PSoC5/cyfitter_cfg.c **** 
2607:.\Generated_Source\PSoC5/cyfitter_cfg.c **** 		/* UCFG_BCTL0 Address: CYREG_BCTL0_MDCLK_EN Size (bytes): 16 */
2608:.\Generated_Source\PSoC5/cyfitter_cfg.c **** 		static const uint8 CYCODE BS_UCFG_BCTL0_VAL[] = {
2609:.\Generated_Source\PSoC5/cyfitter_cfg.c **** 			0x5Cu, 0x01u, 0x00u, 0x00u, 0x00u, 0x00u, 0x00u, 0x00u, 0x14u, 0x01u, 0x18u, 0x01u, 0x4Cu, 0x01u
2610:.\Generated_Source\PSoC5/cyfitter_cfg.c **** 
2611:.\Generated_Source\PSoC5/cyfitter_cfg.c **** 		static const cfg_memcpy_t CYCODE cfg_memcpy_list [] = {
2612:.\Generated_Source\PSoC5/cyfitter_cfg.c **** 			/* dest, src, size */
2613:.\Generated_Source\PSoC5/cyfitter_cfg.c **** 			{(void CYFAR *)(CYREG_IDMUX_IRQ_CTL0), BS_IDMUX_IRQ_VAL, 8u},
2614:.\Generated_Source\PSoC5/cyfitter_cfg.c **** 			{(void CYFAR *)(CYDEV_UCFG_B0_P6_U0_BASE), BS_UDB_0_4_1_CONFIG_VAL, 128u},
2615:.\Generated_Source\PSoC5/cyfitter_cfg.c **** 			{(void CYFAR *)(CYREG_BCTL0_MDCLK_EN), BS_UCFG_BCTL0_VAL, 16u},
2616:.\Generated_Source\PSoC5/cyfitter_cfg.c **** 		};
2617:.\Generated_Source\PSoC5/cyfitter_cfg.c **** 
2618:.\Generated_Source\PSoC5/cyfitter_cfg.c **** 		uint8 CYDATA i;
2619:.\Generated_Source\PSoC5/cyfitter_cfg.c **** 
2620:.\Generated_Source\PSoC5/cyfitter_cfg.c **** 		/* Zero out critical memory blocks before beginning configuration */
2621:.\Generated_Source\PSoC5/cyfitter_cfg.c **** 		for (i = 0u; i < (sizeof(cfg_memset_list)/sizeof(cfg_memset_list[0])); i++)
 597              		.loc 1 2621 0
 598 0018 0023     		movs	r3, #0
 599 001a FB75     		strb	r3, [r7, #23]
 600 001c 13E0     		b	.L27
 601              	.L28:
 602              	.LBB4:
2622:.\Generated_Source\PSoC5/cyfitter_cfg.c **** 		{
2623:.\Generated_Source\PSoC5/cyfitter_cfg.c **** 			const cfg_memset_t CYCODE * CYDATA ms = &cfg_memset_list[i];
 603              		.loc 1 2623 0 discriminator 2
 604 001e FA7D     		ldrb	r2, [r7, #23]	@ zero_extendqisi2
 605 0020 1346     		mov	r3, r2
 606 0022 5B00     		lsls	r3, r3, #1
 607 0024 1344     		add	r3, r3, r2
 608 0026 5B00     		lsls	r3, r3, #1
 609 0028 564A     		ldr	r2, .L31+4
 610 002a 1344     		add	r3, r3, r2
 611 002c 3B61     		str	r3, [r7, #16]
2624:.\Generated_Source\PSoC5/cyfitter_cfg.c **** 			CYMEMZERO(ms->address, (size_t)(uint32)(ms->size));
 612              		.loc 1 2624 0 discriminator 2
 613 002e 3B69     		ldr	r3, [r7, #16]
 614 0030 1A68     		ldr	r2, [r3]	@ unaligned
 615 0032 3B69     		ldr	r3, [r7, #16]
 616 0034 9B88     		ldrh	r3, [r3, #4]	@ unaligned
 617 0036 9BB2     		uxth	r3, r3
 618 0038 1046     		mov	r0, r2
 619 003a 1946     		mov	r1, r3
 620 003c FFF7FEFF 		bl	CYMEMZERO
ARM GAS  C:\Users\xavieran\AppData\Local\Temp\ccykvWSD.s 			page 58


 621              	.LBE4:
2621:.\Generated_Source\PSoC5/cyfitter_cfg.c **** 		for (i = 0u; i < (sizeof(cfg_memset_list)/sizeof(cfg_memset_list[0])); i++)
 622              		.loc 1 2621 0 discriminator 2
 623 0040 FB7D     		ldrb	r3, [r7, #23]	@ zero_extendqisi2
 624 0042 0133     		adds	r3, r3, #1
 625 0044 FB75     		strb	r3, [r7, #23]
 626              	.L27:
2621:.\Generated_Source\PSoC5/cyfitter_cfg.c **** 		for (i = 0u; i < (sizeof(cfg_memset_list)/sizeof(cfg_memset_list[0])); i++)
 627              		.loc 1 2621 0 is_stmt 0 discriminator 1
 628 0046 FB7D     		ldrb	r3, [r7, #23]	@ zero_extendqisi2
 629 0048 072B     		cmp	r3, #7
 630 004a E8D9     		bls	.L28
2625:.\Generated_Source\PSoC5/cyfitter_cfg.c **** 		}
2626:.\Generated_Source\PSoC5/cyfitter_cfg.c **** 
2627:.\Generated_Source\PSoC5/cyfitter_cfg.c **** 		/* Copy device configuration data into registers */
2628:.\Generated_Source\PSoC5/cyfitter_cfg.c **** 		for (i = 0u; i < (sizeof(cfg_memcpy_list)/sizeof(cfg_memcpy_list[0])); i++)
 631              		.loc 1 2628 0 is_stmt 1
 632 004c 0023     		movs	r3, #0
 633 004e FB75     		strb	r3, [r7, #23]
 634 0050 1CE0     		b	.L29
 635              	.L30:
 636              	.LBB5:
2629:.\Generated_Source\PSoC5/cyfitter_cfg.c **** 		{
2630:.\Generated_Source\PSoC5/cyfitter_cfg.c **** 			const cfg_memcpy_t CYCODE * CYDATA mc = &cfg_memcpy_list[i];
 637              		.loc 1 2630 0 discriminator 2
 638 0052 FA7D     		ldrb	r2, [r7, #23]	@ zero_extendqisi2
 639 0054 1346     		mov	r3, r2
 640 0056 9B00     		lsls	r3, r3, #2
 641 0058 1344     		add	r3, r3, r2
 642 005a 5B00     		lsls	r3, r3, #1
 643 005c 4A4A     		ldr	r2, .L31+8
 644 005e 1344     		add	r3, r3, r2
 645 0060 FB60     		str	r3, [r7, #12]
2631:.\Generated_Source\PSoC5/cyfitter_cfg.c **** 			void * CYDATA destPtr = mc->dest;
 646              		.loc 1 2631 0 discriminator 2
 647 0062 FB68     		ldr	r3, [r7, #12]
 648 0064 1B68     		ldr	r3, [r3]	@ unaligned
 649 0066 BB60     		str	r3, [r7, #8]
2632:.\Generated_Source\PSoC5/cyfitter_cfg.c **** 			const void CYCODE * CYDATA srcPtr = mc->src;
 650              		.loc 1 2632 0 discriminator 2
 651 0068 FB68     		ldr	r3, [r7, #12]
 652 006a 5B68     		ldr	r3, [r3, #4]	@ unaligned
 653 006c 7B60     		str	r3, [r7, #4]
2633:.\Generated_Source\PSoC5/cyfitter_cfg.c **** 			uint16 CYDATA numBytes = mc->size;
 654              		.loc 1 2633 0 discriminator 2
 655 006e FB68     		ldr	r3, [r7, #12]
 656 0070 1A7A     		ldrb	r2, [r3, #8]	@ zero_extendqisi2
 657 0072 5B7A     		ldrb	r3, [r3, #9]	@ zero_extendqisi2
 658 0074 1B02     		lsls	r3, r3, #8
 659 0076 1343     		orrs	r3, r3, r2
 660 0078 7B80     		strh	r3, [r7, #2]	@ movhi
2634:.\Generated_Source\PSoC5/cyfitter_cfg.c **** 			CYCONFIGCPYCODE(destPtr, srcPtr, numBytes);
 661              		.loc 1 2634 0 discriminator 2
 662 007a 7B88     		ldrh	r3, [r7, #2]
 663 007c B868     		ldr	r0, [r7, #8]
 664 007e 7968     		ldr	r1, [r7, #4]
 665 0080 1A46     		mov	r2, r3
ARM GAS  C:\Users\xavieran\AppData\Local\Temp\ccykvWSD.s 			page 59


 666 0082 FFF7FEFF 		bl	CYCONFIGCPYCODE
 667              	.LBE5:
2628:.\Generated_Source\PSoC5/cyfitter_cfg.c **** 		for (i = 0u; i < (sizeof(cfg_memcpy_list)/sizeof(cfg_memcpy_list[0])); i++)
 668              		.loc 1 2628 0 discriminator 2
 669 0086 FB7D     		ldrb	r3, [r7, #23]	@ zero_extendqisi2
 670 0088 0133     		adds	r3, r3, #1
 671 008a FB75     		strb	r3, [r7, #23]
 672              	.L29:
2628:.\Generated_Source\PSoC5/cyfitter_cfg.c **** 		for (i = 0u; i < (sizeof(cfg_memcpy_list)/sizeof(cfg_memcpy_list[0])); i++)
 673              		.loc 1 2628 0 is_stmt 0 discriminator 1
 674 008c FB7D     		ldrb	r3, [r7, #23]	@ zero_extendqisi2
 675 008e 022B     		cmp	r3, #2
 676 0090 DFD9     		bls	.L30
2635:.\Generated_Source\PSoC5/cyfitter_cfg.c **** 		}
2636:.\Generated_Source\PSoC5/cyfitter_cfg.c **** 
2637:.\Generated_Source\PSoC5/cyfitter_cfg.c **** 		cfg_write_bytes32(cy_cfg_addr_table, cy_cfg_data_table);
 677              		.loc 1 2637 0 is_stmt 1
 678 0092 3E48     		ldr	r0, .L31+12
 679 0094 3E49     		ldr	r1, .L31+16
 680 0096 FFF7FEFF 		bl	cfg_write_bytes32
2638:.\Generated_Source\PSoC5/cyfitter_cfg.c **** 
2639:.\Generated_Source\PSoC5/cyfitter_cfg.c **** 		/* Perform normal device configuration. Order is not critical for these items. */
2640:.\Generated_Source\PSoC5/cyfitter_cfg.c **** 		CYMEMZERO((void CYFAR *)(CYREG_PHUB_CFGMEM0_CFG0), 4u);
 681              		.loc 1 2640 0
 682 009a 3E48     		ldr	r0, .L31+20
 683 009c 0421     		movs	r1, #4
 684 009e FFF7FEFF 		bl	CYMEMZERO
2641:.\Generated_Source\PSoC5/cyfitter_cfg.c **** 
2642:.\Generated_Source\PSoC5/cyfitter_cfg.c **** 		/* Enable digital routing */
2643:.\Generated_Source\PSoC5/cyfitter_cfg.c **** 		CY_SET_XTND_REG8((void CYFAR *)CYREG_BCTL0_BANK_CTL, CY_GET_XTND_REG8((void CYFAR *)CYREG_BCTL0_B
 685              		.loc 1 2643 0
 686 00a2 3D4B     		ldr	r3, .L31+24
 687 00a4 3C4A     		ldr	r2, .L31+24
 688 00a6 1278     		ldrb	r2, [r2]
 689 00a8 D2B2     		uxtb	r2, r2
 690 00aa 42F00202 		orr	r2, r2, #2
 691 00ae D2B2     		uxtb	r2, r2
 692 00b0 1A70     		strb	r2, [r3]
2644:.\Generated_Source\PSoC5/cyfitter_cfg.c **** 		CY_SET_XTND_REG8((void CYFAR *)CYREG_BCTL1_BANK_CTL, CY_GET_XTND_REG8((void CYFAR *)CYREG_BCTL1_B
 693              		.loc 1 2644 0
 694 00b2 3A4B     		ldr	r3, .L31+28
 695 00b4 394A     		ldr	r2, .L31+28
 696 00b6 1278     		ldrb	r2, [r2]
 697 00b8 D2B2     		uxtb	r2, r2
 698 00ba 42F00202 		orr	r2, r2, #2
 699 00be D2B2     		uxtb	r2, r2
 700 00c0 1A70     		strb	r2, [r3]
2645:.\Generated_Source\PSoC5/cyfitter_cfg.c **** 
2646:.\Generated_Source\PSoC5/cyfitter_cfg.c **** 		/* Enable UDB array */
2647:.\Generated_Source\PSoC5/cyfitter_cfg.c **** 		CY_SET_XTND_REG8((void CYFAR *)CYREG_PM_ACT_CFG0, CY_GET_XTND_REG8((void CYFAR *)CYREG_PM_ACT_CFG
 701              		.loc 1 2647 0
 702 00c2 374B     		ldr	r3, .L31+32
 703 00c4 364A     		ldr	r2, .L31+32
 704 00c6 1278     		ldrb	r2, [r2]
 705 00c8 D2B2     		uxtb	r2, r2
 706 00ca 42F04002 		orr	r2, r2, #64
 707 00ce D2B2     		uxtb	r2, r2
ARM GAS  C:\Users\xavieran\AppData\Local\Temp\ccykvWSD.s 			page 60


 708 00d0 1A70     		strb	r2, [r3]
2648:.\Generated_Source\PSoC5/cyfitter_cfg.c **** 		CY_SET_XTND_REG8((void CYFAR *)CYREG_PM_AVAIL_CR2, CY_GET_XTND_REG8((void CYFAR *)CYREG_PM_AVAIL_
 709              		.loc 1 2648 0
 710 00d2 344B     		ldr	r3, .L31+36
 711 00d4 334A     		ldr	r2, .L31+36
 712 00d6 1278     		ldrb	r2, [r2]
 713 00d8 D2B2     		uxtb	r2, r2
 714 00da 42F01002 		orr	r2, r2, #16
 715 00de D2B2     		uxtb	r2, r2
 716 00e0 1A70     		strb	r2, [r3]
 717              	.LBE3:
2649:.\Generated_Source\PSoC5/cyfitter_cfg.c **** 	}
2650:.\Generated_Source\PSoC5/cyfitter_cfg.c **** 
2651:.\Generated_Source\PSoC5/cyfitter_cfg.c **** 
2652:.\Generated_Source\PSoC5/cyfitter_cfg.c **** 	/* Perform second pass device configuration. These items must be configured in specific order afte
2653:.\Generated_Source\PSoC5/cyfitter_cfg.c **** 	CYCONFIGCPYCODE((void CYFAR *)(CYREG_PRT0_DM0), (const void CYCODE *)(BS_IOPINS0_0_VAL), 8u);
 718              		.loc 1 2653 0
 719 00e2 3148     		ldr	r0, .L31+40
 720 00e4 3149     		ldr	r1, .L31+44
 721 00e6 0822     		movs	r2, #8
 722 00e8 FFF7FEFF 		bl	CYCONFIGCPYCODE
2654:.\Generated_Source\PSoC5/cyfitter_cfg.c **** 	CYCONFIGCPYCODE((void CYFAR *)(CYREG_PRT12_DR), (const void CYCODE *)(BS_IOPINS0_7_VAL), 10u);
 723              		.loc 1 2654 0
 724 00ec 3048     		ldr	r0, .L31+48
 725 00ee 3149     		ldr	r1, .L31+52
 726 00f0 0A22     		movs	r2, #10
 727 00f2 FFF7FEFF 		bl	CYCONFIGCPYCODE
2655:.\Generated_Source\PSoC5/cyfitter_cfg.c **** 	CYCONFIGCPYCODE((void CYFAR *)(CYREG_PRT15_DR), (const void CYCODE *)(BS_IOPINS0_8_VAL), 10u);
 728              		.loc 1 2655 0
 729 00f6 3048     		ldr	r0, .L31+56
 730 00f8 3049     		ldr	r1, .L31+60
 731 00fa 0A22     		movs	r2, #10
 732 00fc FFF7FEFF 		bl	CYCONFIGCPYCODE
2656:.\Generated_Source\PSoC5/cyfitter_cfg.c **** 	CYCONFIGCPYCODE((void CYFAR *)(CYREG_PRT1_DR), (const void CYCODE *)(BS_IOPINS0_1_VAL), 10u);
 733              		.loc 1 2656 0
 734 0100 2F48     		ldr	r0, .L31+64
 735 0102 3049     		ldr	r1, .L31+68
 736 0104 0A22     		movs	r2, #10
 737 0106 FFF7FEFF 		bl	CYCONFIGCPYCODE
2657:.\Generated_Source\PSoC5/cyfitter_cfg.c **** 	CYCONFIGCPYCODE((void CYFAR *)(CYREG_PRT2_DR), (const void CYCODE *)(BS_IOPINS0_2_VAL), 10u);
 738              		.loc 1 2657 0
 739 010a 2F48     		ldr	r0, .L31+72
 740 010c 2F49     		ldr	r1, .L31+76
 741 010e 0A22     		movs	r2, #10
 742 0110 FFF7FEFF 		bl	CYCONFIGCPYCODE
2658:.\Generated_Source\PSoC5/cyfitter_cfg.c **** 	CYCONFIGCPYCODE((void CYFAR *)(CYREG_PRT3_DR), (const void CYCODE *)(BS_IOPINS0_3_VAL), 10u);
 743              		.loc 1 2658 0
 744 0114 2E48     		ldr	r0, .L31+80
 745 0116 2F49     		ldr	r1, .L31+84
 746 0118 0A22     		movs	r2, #10
 747 011a FFF7FEFF 		bl	CYCONFIGCPYCODE
2659:.\Generated_Source\PSoC5/cyfitter_cfg.c **** 	CYCONFIGCPYCODE((void CYFAR *)(CYREG_PRT4_DM0), (const void CYCODE *)(BS_IOPINS0_4_VAL), 8u);
 748              		.loc 1 2659 0
 749 011e 2E48     		ldr	r0, .L31+88
 750 0120 2E49     		ldr	r1, .L31+92
 751 0122 0822     		movs	r2, #8
 752 0124 FFF7FEFF 		bl	CYCONFIGCPYCODE
ARM GAS  C:\Users\xavieran\AppData\Local\Temp\ccykvWSD.s 			page 61


2660:.\Generated_Source\PSoC5/cyfitter_cfg.c **** 	CYCONFIGCPYCODE((void CYFAR *)(CYREG_PRT5_DM0), (const void CYCODE *)(BS_IOPINS0_5_VAL), 8u);
 753              		.loc 1 2660 0
 754 0128 2D48     		ldr	r0, .L31+96
 755 012a 2E49     		ldr	r1, .L31+100
 756 012c 0822     		movs	r2, #8
 757 012e FFF7FEFF 		bl	CYCONFIGCPYCODE
2661:.\Generated_Source\PSoC5/cyfitter_cfg.c **** 	CYCONFIGCPYCODE((void CYFAR *)(CYREG_PRT6_DM0), (const void CYCODE *)(BS_IOPINS0_6_VAL), 8u);
 758              		.loc 1 2661 0
 759 0132 2D48     		ldr	r0, .L31+104
 760 0134 2D49     		ldr	r1, .L31+108
 761 0136 0822     		movs	r2, #8
 762 0138 FFF7FEFF 		bl	CYCONFIGCPYCODE
2662:.\Generated_Source\PSoC5/cyfitter_cfg.c **** 	CY_SET_XTND_REG8((void CYFAR *)(CYREG_B1_P2_U0_CFG27), 0x48u);
 763              		.loc 1 2662 0
 764 013c 2C4B     		ldr	r3, .L31+112
 765 013e 4822     		movs	r2, #72
 766 0140 1A70     		strb	r2, [r3]
2663:.\Generated_Source\PSoC5/cyfitter_cfg.c **** 	CY_SET_XTND_REG8((void CYFAR *)(CYREG_B1_P2_U1_CFG27), 0x4Au);
 767              		.loc 1 2663 0
 768 0142 2C4B     		ldr	r3, .L31+116
 769 0144 4A22     		movs	r2, #74
 770 0146 1A70     		strb	r2, [r3]
2664:.\Generated_Source\PSoC5/cyfitter_cfg.c **** 	CY_SET_XTND_REG8((void CYFAR *)(CYREG_B1_P3_U0_CFG24), 0x44u);
 771              		.loc 1 2664 0
 772 0148 2B4B     		ldr	r3, .L31+120
 773 014a 4422     		movs	r2, #68
 774 014c 1A70     		strb	r2, [r3]
2665:.\Generated_Source\PSoC5/cyfitter_cfg.c **** 	CY_SET_XTND_REG8((void CYFAR *)(CYREG_B1_P3_U1_CFG24), 0x48u);
 775              		.loc 1 2665 0
 776 014e 2B4B     		ldr	r3, .L31+124
 777 0150 4822     		movs	r2, #72
 778 0152 1A70     		strb	r2, [r3]
2666:.\Generated_Source\PSoC5/cyfitter_cfg.c **** 	CY_SET_XTND_REG8((void CYFAR *)(CYREG_B1_P4_U1_CFG27), 0x44u);
 779              		.loc 1 2666 0
 780 0154 2A4B     		ldr	r3, .L31+128
 781 0156 4422     		movs	r2, #68
 782 0158 1A70     		strb	r2, [r3]
2667:.\Generated_Source\PSoC5/cyfitter_cfg.c **** 	/* Switch Boost to the precision bandgap reference from its internal reference */
2668:.\Generated_Source\PSoC5/cyfitter_cfg.c **** 	CY_SET_REG8((void CYXDATA *)CYREG_BOOST_CR2, (CY_GET_REG8((void CYXDATA *)CYREG_BOOST_CR2) | 0x08u
 783              		.loc 1 2668 0
 784 015a 2A4B     		ldr	r3, .L31+132
 785 015c 294A     		ldr	r2, .L31+132
 786 015e 1278     		ldrb	r2, [r2]
 787 0160 D2B2     		uxtb	r2, r2
 788 0162 42F00802 		orr	r2, r2, #8
 789 0166 D2B2     		uxtb	r2, r2
 790 0168 1A70     		strb	r2, [r3]
2669:.\Generated_Source\PSoC5/cyfitter_cfg.c **** 
2670:.\Generated_Source\PSoC5/cyfitter_cfg.c **** 	/* Perform basic analog initialization to defaults */
2671:.\Generated_Source\PSoC5/cyfitter_cfg.c **** 	AnalogSetDefault();
 791              		.loc 1 2671 0
 792 016a FFF7FEFF 		bl	AnalogSetDefault
2672:.\Generated_Source\PSoC5/cyfitter_cfg.c **** 
2673:.\Generated_Source\PSoC5/cyfitter_cfg.c **** 	/* Configure alternate active mode */
2674:.\Generated_Source\PSoC5/cyfitter_cfg.c **** 	CYCONFIGCPY((void CYFAR *)CYDEV_PM_STBY_BASE, (const void CYFAR *)CYDEV_PM_ACT_BASE, 14u);
 793              		.loc 1 2674 0
 794 016e 2648     		ldr	r0, .L31+136
ARM GAS  C:\Users\xavieran\AppData\Local\Temp\ccykvWSD.s 			page 62


 795 0170 0B49     		ldr	r1, .L31+32
 796 0172 0E22     		movs	r2, #14
 797 0174 FFF7FEFF 		bl	CYCONFIGCPY
2675:.\Generated_Source\PSoC5/cyfitter_cfg.c **** }
 798              		.loc 1 2675 0
 799 0178 1837     		adds	r7, r7, #24
 800 017a BD46     		mov	sp, r7
 801              		@ sp needed
 802 017c 80BD     		pop	{r7, pc}
 803              	.L32:
 804 017e 00BF     		.align	2
 805              	.L31:
 806 0180 00480040 		.word	1073760256
 807 0184 00000000 		.word	cfg_memset_list.4899
 808 0188 30000000 		.word	cfg_memcpy_list.4903
 809 018c 50000000 		.word	cy_cfg_addr_table.4888
 810 0190 FC000000 		.word	cy_cfg_data_table.4889
 811 0194 00760040 		.word	1073772032
 812 0198 03500140 		.word	1073827843
 813 019c 13500140 		.word	1073827859
 814 01a0 A0430040 		.word	1073759136
 815 01a4 C2430040 		.word	1073759170
 816 01a8 02510040 		.word	1073762562
 817 01ac BC110000 		.word	BS_IOPINS0_0_VAL.4879
 818 01b0 C0510040 		.word	1073762752
 819 01b4 C4110000 		.word	BS_IOPINS0_7_VAL.4880
 820 01b8 F0510040 		.word	1073762800
 821 01bc D0110000 		.word	BS_IOPINS0_8_VAL.4881
 822 01c0 10510040 		.word	1073762576
 823 01c4 DC110000 		.word	BS_IOPINS0_1_VAL.4882
 824 01c8 20510040 		.word	1073762592
 825 01cc E8110000 		.word	BS_IOPINS0_2_VAL.4883
 826 01d0 30510040 		.word	1073762608
 827 01d4 F4110000 		.word	BS_IOPINS0_3_VAL.4884
 828 01d8 42510040 		.word	1073762626
 829 01dc 00120000 		.word	BS_IOPINS0_4_VAL.4885
 830 01e0 52510040 		.word	1073762642
 831 01e4 08120000 		.word	BS_IOPINS0_5_VAL.4886
 832 01e8 62510040 		.word	1073762658
 833 01ec 10120000 		.word	BS_IOPINS0_6_VAL.4887
 834 01f0 5B140140 		.word	1073812571
 835 01f4 DB140140 		.word	1073812699
 836 01f8 58160140 		.word	1073813080
 837 01fc D8160140 		.word	1073813208
 838 0200 DB180140 		.word	1073813723
 839 0204 22430040 		.word	1073759010
 840 0208 B0430040 		.word	1073759152
 841              		.cfi_endproc
 842              	.LFE8:
 843              		.size	cyfitter_cfg, .-cyfitter_cfg
 844              		.section	.rodata
 845              		.align	2
 846              		.type	cfg_memset_list.4899, %object
 847              		.size	cfg_memset_list.4899, 48
 848              	cfg_memset_list.4899:
 849 0000 C8490040 		.word	1073760712
 850 0004 1900     		.short	25
ARM GAS  C:\Users\xavieran\AppData\Local\Temp\ccykvWSD.s 			page 63


 851 0006 004F0040 		.4byte	1073762048
 852 000a 3000     		.short	48
 853 000c 00000140 		.word	1073807360
 854 0010 000C     		.short	3072
 855 0012 800C0140 		.4byte	1073810560
 856 0016 8003     		.short	896
 857 0018 00140140 		.word	1073812480
 858 001c 0008     		.short	2048
 859 001e 00400140 		.4byte	1073823744
 860 0022 000A     		.short	2560
 861 0024 004C0140 		.word	1073826816
 862 0028 0002     		.short	512
 863 002a 10500140 		.4byte	1073827856
 864 002e 1000     		.short	16
 865              		.align	2
 866              		.type	cfg_memcpy_list.4903, %object
 867              		.size	cfg_memcpy_list.4903, 30
 868              	cfg_memcpy_list.4903:
 869 0030 00510140 		.word	1073828096
 870 0034 A8120000 		.word	BS_IDMUX_IRQ_VAL.4900
 871 0038 0800     		.short	8
 872 003a 000C0140 		.4byte	1073810432
 873 003e 28120000 		.4byte	BS_UDB_0_4_1_CONFIG_VAL.4901
 874 0042 8000     		.short	128
 875 0044 00500140 		.word	1073827840
 876 0048 18120000 		.word	BS_UCFG_BCTL0_VAL.4902
 877 004c 1000     		.short	16
 878 004e 0000     		.align	2
 879              		.type	cy_cfg_addr_table.4888, %object
 880              		.size	cy_cfg_addr_table.4888, 172
 881              	cy_cfg_addr_table.4888:
 882 0050 01450040 		.word	1073759489
 883 0054 084F0040 		.word	1073762056
 884 0058 10520040 		.word	1073762832
 885 005c 08640040 		.word	1073767432
 886 0060 04650040 		.word	1073767684
 887 0064 44000140 		.word	1073807428
 888 0068 39010140 		.word	1073807673
 889 006c 53020140 		.word	1073807955
 890 0070 4D030140 		.word	1073808205
 891 0074 51040140 		.word	1073808465
 892 0078 4C050140 		.word	1073808716
 893 007c 54060140 		.word	1073808980
 894 0080 4C070140 		.word	1073809228
 895 0084 55080140 		.word	1073809493
 896 0088 43090140 		.word	1073809731
 897 008c 690A0140 		.word	1073810025
 898 0090 4E0B0140 		.word	1073810254
 899 0094 260C0140 		.word	1073810470
 900 0098 530D0140 		.word	1073810771
 901 009c 530E0140 		.word	1073811027
 902 00a0 3C0F0140 		.word	1073811260
 903 00a4 47140140 		.word	1073812551
 904 00a8 42150140 		.word	1073812802
 905 00ac 52160140 		.word	1073813074
 906 00b0 4B170140 		.word	1073813323
 907 00b4 5B180140 		.word	1073813595
ARM GAS  C:\Users\xavieran\AppData\Local\Temp\ccykvWSD.s 			page 64


 908 00b8 4C190140 		.word	1073813836
 909 00bc 5A1A0140 		.word	1073814106
 910 00c0 411B0140 		.word	1073814337
 911 00c4 14400140 		.word	1073823764
 912 00c8 1C410140 		.word	1073824028
 913 00cc 1C420140 		.word	1073824284
 914 00d0 1D430140 		.word	1073824541
 915 00d4 0D440140 		.word	1073824781
 916 00d8 10450140 		.word	1073825040
 917 00dc 0C460140 		.word	1073825292
 918 00e0 0D470140 		.word	1073825549
 919 00e4 22480140 		.word	1073825826
 920 00e8 29490140 		.word	1073826089
 921 00ec 194C0140 		.word	1073826841
 922 00f0 174D0140 		.word	1073827095
 923 00f4 06500140 		.word	1073827846
 924 00f8 01510140 		.word	1073828097
 925              		.align	2
 926              		.type	cy_cfg_data_table.4889, %object
 927              		.size	cy_cfg_data_table.4889, 4286
 928              	cy_cfg_data_table.4889:
 929 00fc 7E       		.byte	126
 930 00fd 02       		.byte	2
 931 00fe 01       		.byte	1
 932 00ff 10       		.byte	16
 933 0100 0A       		.byte	10
 934 0101 4B       		.byte	75
 935 0102 0D       		.byte	13
 936 0103 40       		.byte	64
 937 0104 16       		.byte	22
 938 0105 4B       		.byte	75
 939 0106 19       		.byte	25
 940 0107 40       		.byte	64
 941 0108 22       		.byte	34
 942 0109 4B       		.byte	75
 943 010a 25       		.byte	37
 944 010b 40       		.byte	64
 945 010c 2E       		.byte	46
 946 010d 4B       		.byte	75
 947 010e 00       		.byte	0
 948 010f 30       		.byte	48
 949 0110 01       		.byte	1
 950 0111 60       		.byte	96
 951 0112 08       		.byte	8
 952 0113 80       		.byte	-128
 953 0114 10       		.byte	16
 954 0115 20       		.byte	32
 955 0116 11       		.byte	17
 956 0117 20       		.byte	32
 957 0118 18       		.byte	24
 958 0119 A0       		.byte	-96
 959 011a 19       		.byte	25
 960 011b 88       		.byte	-120
 961 011c 20       		.byte	32
 962 011d 03       		.byte	3
 963 011e 21       		.byte	33
 964 011f 02       		.byte	2
ARM GAS  C:\Users\xavieran\AppData\Local\Temp\ccykvWSD.s 			page 65


 965 0120 28       		.byte	40
 966 0121 80       		.byte	-128
 967 0122 29       		.byte	41
 968 0123 02       		.byte	2
 969 0124 30       		.byte	48
 970 0125 10       		.byte	16
 971 0126 60       		.byte	96
 972 0127 2C       		.byte	44
 973 0128 61       		.byte	97
 974 0129 64       		.byte	100
 975 012a 79       		.byte	121
 976 012b 18       		.byte	24
 977 012c 7C       		.byte	124
 978 012d 40       		.byte	64
 979 012e 2D       		.byte	45
 980 012f 0F       		.byte	15
 981 0130 2F       		.byte	47
 982 0131 04       		.byte	4
 983 0132 3D       		.byte	61
 984 0133 08       		.byte	8
 985 0134 82       		.byte	-126
 986 0135 0D       		.byte	13
 987 0136 84       		.byte	-124
 988 0137 0F       		.byte	15
 989 0138 87       		.byte	-121
 990 0139 0D       		.byte	13
 991 013a 89       		.byte	-119
 992 013b 0D       		.byte	13
 993 013c 8C       		.byte	-116
 994 013d 0D       		.byte	13
 995 013e 84       		.byte	-124
 996 013f 0F       		.byte	15
 997 0140 85       		.byte	-123
 998 0141 0D       		.byte	13
 999 0142 89       		.byte	-119
 1000 0143 0D       		.byte	13
 1001 0144 8B       		.byte	-117
 1002 0145 0F       		.byte	15
 1003 0146 00       		.byte	0
 1004 0147 5D       		.byte	93
 1005 0148 01       		.byte	1
 1006 0149 1F       		.byte	31
 1007 014a 02       		.byte	2
 1008 014b A2       		.byte	-94
 1009 014c 06       		.byte	6
 1010 014d 08       		.byte	8
 1011 014e 07       		.byte	7
 1012 014f 0B       		.byte	11
 1013 0150 08       		.byte	8
 1014 0151 92       		.byte	-110
 1015 0152 09       		.byte	9
 1016 0153 01       		.byte	1
 1017 0154 0A       		.byte	10
 1018 0155 60       		.byte	96
 1019 0156 0C       		.byte	12
 1020 0157 E2       		.byte	-30
 1021 0158 0F       		.byte	15
ARM GAS  C:\Users\xavieran\AppData\Local\Temp\ccykvWSD.s 			page 66


 1022 0159 14       		.byte	20
 1023 015a 10       		.byte	16
 1024 015b 0D       		.byte	13
 1025 015c 11       		.byte	17
 1026 015d 08       		.byte	8
 1027 015e 13       		.byte	19
 1028 015f 02       		.byte	2
 1029 0160 14       		.byte	20
 1030 0161 3D       		.byte	61
 1031 0162 16       		.byte	22
 1032 0163 C2       		.byte	-62
 1033 0164 17       		.byte	23
 1034 0165 01       		.byte	1
 1035 0166 18       		.byte	24
 1036 0167 01       		.byte	1
 1037 0168 19       		.byte	25
 1038 0169 03       		.byte	3
 1039 016a 1C       		.byte	28
 1040 016b 04       		.byte	4
 1041 016c 1D       		.byte	29
 1042 016d 0F       		.byte	15
 1043 016e 1E       		.byte	30
 1044 016f E0       		.byte	-32
 1045 0170 21       		.byte	33
 1046 0171 03       		.byte	3
 1047 0172 22       		.byte	34
 1048 0173 02       		.byte	2
 1049 0174 25       		.byte	37
 1050 0175 01       		.byte	1
 1051 0176 26       		.byte	38
 1052 0177 FF       		.byte	-1
 1053 0178 28       		.byte	40
 1054 0179 01       		.byte	1
 1055 017a 29       		.byte	41
 1056 017b 10       		.byte	16
 1057 017c 2B       		.byte	43
 1058 017d 0B       		.byte	11
 1059 017e 2C       		.byte	44
 1060 017f 40       		.byte	64
 1061 0180 2D       		.byte	45
 1062 0181 02       		.byte	2
 1063 0182 2E       		.byte	46
 1064 0183 1D       		.byte	29
 1065 0184 2F       		.byte	47
 1066 0185 09       		.byte	9
 1067 0186 34       		.byte	52
 1068 0187 FF       		.byte	-1
 1069 0188 37       		.byte	55
 1070 0189 1F       		.byte	31
 1071 018a 3E       		.byte	62
 1072 018b 10       		.byte	16
 1073 018c 58       		.byte	88
 1074 018d 04       		.byte	4
 1075 018e 59       		.byte	89
 1076 018f 04       		.byte	4
 1077 0190 5C       		.byte	92
 1078 0191 20       		.byte	32
ARM GAS  C:\Users\xavieran\AppData\Local\Temp\ccykvWSD.s 			page 67


 1079 0192 5F       		.byte	95
 1080 0193 01       		.byte	1
 1081 0194 81       		.byte	-127
 1082 0195 02       		.byte	2
 1083 0196 85       		.byte	-123
 1084 0197 04       		.byte	4
 1085 0198 88       		.byte	-120
 1086 0199 04       		.byte	4
 1087 019a 89       		.byte	-119
 1088 019b 02       		.byte	2
 1089 019c 8A       		.byte	-118
 1090 019d 01       		.byte	1
 1091 019e 8C       		.byte	-116
 1092 019f 01       		.byte	1
 1093 01a0 8E       		.byte	-114
 1094 01a1 08       		.byte	8
 1095 01a2 90       		.byte	-112
 1096 01a3 01       		.byte	1
 1097 01a4 92       		.byte	-110
 1098 01a5 0E       		.byte	14
 1099 01a6 93       		.byte	-109
 1100 01a7 01       		.byte	1
 1101 01a8 94       		.byte	-108
 1102 01a9 05       		.byte	5
 1103 01aa 9C       		.byte	-100
 1104 01ab 05       		.byte	5
 1105 01ac 9D       		.byte	-99
 1106 01ad 02       		.byte	2
 1107 01ae A0       		.byte	-96
 1108 01af 04       		.byte	4
 1109 01b0 A2       		.byte	-94
 1110 01b1 01       		.byte	1
 1111 01b2 A4       		.byte	-92
 1112 01b3 01       		.byte	1
 1113 01b4 A6       		.byte	-90
 1114 01b5 02       		.byte	2
 1115 01b6 A9       		.byte	-87
 1116 01b7 02       		.byte	2
 1117 01b8 AC       		.byte	-84
 1118 01b9 05       		.byte	5
 1119 01ba AD       		.byte	-83
 1120 01bb 02       		.byte	2
 1121 01bc B0       		.byte	-80
 1122 01bd 0F       		.byte	15
 1123 01be B5       		.byte	-75
 1124 01bf 07       		.byte	7
 1125 01c0 B9       		.byte	-71
 1126 01c1 20       		.byte	32
 1127 01c2 BA       		.byte	-70
 1128 01c3 02       		.byte	2
 1129 01c4 BF       		.byte	-65
 1130 01c5 10       		.byte	16
 1131 01c6 D8       		.byte	-40
 1132 01c7 04       		.byte	4
 1133 01c8 D9       		.byte	-39
 1134 01c9 04       		.byte	4
 1135 01ca DC       		.byte	-36
ARM GAS  C:\Users\xavieran\AppData\Local\Temp\ccykvWSD.s 			page 68


 1136 01cb 02       		.byte	2
 1137 01cc DF       		.byte	-33
 1138 01cd 01       		.byte	1
 1139 01ce 00       		.byte	0
 1140 01cf 40       		.byte	64
 1141 01d0 01       		.byte	1
 1142 01d1 20       		.byte	32
 1143 01d2 02       		.byte	2
 1144 01d3 81       		.byte	-127
 1145 01d4 03       		.byte	3
 1146 01d5 28       		.byte	40
 1147 01d6 04       		.byte	4
 1148 01d7 40       		.byte	64
 1149 01d8 05       		.byte	5
 1150 01d9 20       		.byte	32
 1151 01da 08       		.byte	8
 1152 01db 52       		.byte	82
 1153 01dc 09       		.byte	9
 1154 01dd 20       		.byte	32
 1155 01de 0B       		.byte	11
 1156 01df 10       		.byte	16
 1157 01e0 0D       		.byte	13
 1158 01e1 40       		.byte	64
 1159 01e2 0E       		.byte	14
 1160 01e3 40       		.byte	64
 1161 01e4 0F       		.byte	15
 1162 01e5 10       		.byte	16
 1163 01e6 10       		.byte	16
 1164 01e7 02       		.byte	2
 1165 01e8 11       		.byte	17
 1166 01e9 14       		.byte	20
 1167 01ea 13       		.byte	19
 1168 01eb 22       		.byte	34
 1169 01ec 14       		.byte	20
 1170 01ed 41       		.byte	65
 1171 01ee 17       		.byte	23
 1172 01ef 04       		.byte	4
 1173 01f0 18       		.byte	24
 1174 01f1 04       		.byte	4
 1175 01f2 1E       		.byte	30
 1176 01f3 40       		.byte	64
 1177 01f4 21       		.byte	33
 1178 01f5 40       		.byte	64
 1179 01f6 22       		.byte	34
 1180 01f7 80       		.byte	-128
 1181 01f8 26       		.byte	38
 1182 01f9 10       		.byte	16
 1183 01fa 27       		.byte	39
 1184 01fb 04       		.byte	4
 1185 01fc 28       		.byte	40
 1186 01fd 10       		.byte	16
 1187 01fe 29       		.byte	41
 1188 01ff 01       		.byte	1
 1189 0200 2B       		.byte	43
 1190 0201 05       		.byte	5
 1191 0202 2C       		.byte	44
 1192 0203 03       		.byte	3
ARM GAS  C:\Users\xavieran\AppData\Local\Temp\ccykvWSD.s 			page 69


 1193 0204 2F       		.byte	47
 1194 0205 0E       		.byte	14
 1195 0206 30       		.byte	48
 1196 0207 80       		.byte	-128
 1197 0208 32       		.byte	50
 1198 0209 04       		.byte	4
 1199 020a 33       		.byte	51
 1200 020b 22       		.byte	34
 1201 020c 34       		.byte	52
 1202 020d 02       		.byte	2
 1203 020e 35       		.byte	53
 1204 020f 01       		.byte	1
 1205 0210 36       		.byte	54
 1206 0211 82       		.byte	-126
 1207 0212 39       		.byte	57
 1208 0213 90       		.byte	-112
 1209 0214 3A       		.byte	58
 1210 0215 01       		.byte	1
 1211 0216 3B       		.byte	59
 1212 0217 08       		.byte	8
 1213 0218 3C       		.byte	60
 1214 0219 08       		.byte	8
 1215 021a 3D       		.byte	61
 1216 021b 06       		.byte	6
 1217 021c 3F       		.byte	63
 1218 021d 1A       		.byte	26
 1219 021e 42       		.byte	66
 1220 021f 40       		.byte	64
 1221 0220 43       		.byte	67
 1222 0221 01       		.byte	1
 1223 0222 80       		.byte	-128
 1224 0223 40       		.byte	64
 1225 0224 81       		.byte	-127
 1226 0225 20       		.byte	32
 1227 0226 84       		.byte	-124
 1228 0227 C0       		.byte	-64
 1229 0228 87       		.byte	-121
 1230 0229 11       		.byte	17
 1231 022a 8F       		.byte	-113
 1232 022b 20       		.byte	32
 1233 022c C0       		.byte	-64
 1234 022d CF       		.byte	-49
 1235 022e C2       		.byte	-62
 1236 022f BF       		.byte	-65
 1237 0230 C4       		.byte	-60
 1238 0231 BF       		.byte	-65
 1239 0232 CA       		.byte	-54
 1240 0233 3F       		.byte	63
 1241 0234 CC       		.byte	-52
 1242 0235 9F       		.byte	-97
 1243 0236 CE       		.byte	-50
 1244 0237 EF       		.byte	-17
 1245 0238 E0       		.byte	-32
 1246 0239 06       		.byte	6
 1247 023a E2       		.byte	-30
 1248 023b 09       		.byte	9
 1249 023c E4       		.byte	-28
ARM GAS  C:\Users\xavieran\AppData\Local\Temp\ccykvWSD.s 			page 70


 1250 023d 04       		.byte	4
 1251 023e E6       		.byte	-26
 1252 023f 08       		.byte	8
 1253 0240 0B       		.byte	11
 1254 0241 01       		.byte	1
 1255 0242 13       		.byte	19
 1256 0243 01       		.byte	1
 1257 0244 35       		.byte	53
 1258 0245 01       		.byte	1
 1259 0246 40       		.byte	64
 1260 0247 20       		.byte	32
 1261 0248 41       		.byte	65
 1262 0249 04       		.byte	4
 1263 024a 49       		.byte	73
 1264 024b FF       		.byte	-1
 1265 024c 4A       		.byte	74
 1266 024d FF       		.byte	-1
 1267 024e 4B       		.byte	75
 1268 024f FF       		.byte	-1
 1269 0250 4D       		.byte	77
 1270 0251 A0       		.byte	-96
 1271 0252 4F       		.byte	79
 1272 0253 04       		.byte	4
 1273 0254 50       		.byte	80
 1274 0255 18       		.byte	24
 1275 0256 54       		.byte	84
 1276 0257 01       		.byte	1
 1277 0258 59       		.byte	89
 1278 0259 04       		.byte	4
 1279 025a 5A       		.byte	90
 1280 025b 04       		.byte	4
 1281 025c 5B       		.byte	91
 1282 025d 08       		.byte	8
 1283 025e 5C       		.byte	92
 1284 025f 40       		.byte	64
 1285 0260 5D       		.byte	93
 1286 0261 94       		.byte	-108
 1287 0262 5F       		.byte	95
 1288 0263 01       		.byte	1
 1289 0264 60       		.byte	96
 1290 0265 40       		.byte	64
 1291 0266 62       		.byte	98
 1292 0267 C0       		.byte	-64
 1293 0268 64       		.byte	100
 1294 0269 40       		.byte	64
 1295 026a 65       		.byte	101
 1296 026b 40       		.byte	64
 1297 026c 66       		.byte	102
 1298 026d C0       		.byte	-64
 1299 026e 68       		.byte	104
 1300 026f C0       		.byte	-64
 1301 0270 6A       		.byte	106
 1302 0271 C0       		.byte	-64
 1303 0272 6C       		.byte	108
 1304 0273 C0       		.byte	-64
 1305 0274 6E       		.byte	110
 1306 0275 C0       		.byte	-64
ARM GAS  C:\Users\xavieran\AppData\Local\Temp\ccykvWSD.s 			page 71


 1307 0276 88       		.byte	-120
 1308 0277 0C       		.byte	12
 1309 0278 8A       		.byte	-118
 1310 0279 02       		.byte	2
 1311 027a 8C       		.byte	-116
 1312 027b 06       		.byte	6
 1313 027c 8D       		.byte	-115
 1314 027d 03       		.byte	3
 1315 027e 8E       		.byte	-114
 1316 027f 08       		.byte	8
 1317 0280 90       		.byte	-112
 1318 0281 04       		.byte	4
 1319 0282 92       		.byte	-110
 1320 0283 0A       		.byte	10
 1321 0284 93       		.byte	-109
 1322 0285 01       		.byte	1
 1323 0286 94       		.byte	-108
 1324 0287 0E       		.byte	14
 1325 0288 95       		.byte	-107
 1326 0289 03       		.byte	3
 1327 028a 99       		.byte	-103
 1328 028b 02       		.byte	2
 1329 028c 9C       		.byte	-100
 1330 028d 02       		.byte	2
 1331 028e 9D       		.byte	-99
 1332 028f 02       		.byte	2
 1333 0290 9E       		.byte	-98
 1334 0291 1C       		.byte	28
 1335 0292 A0       		.byte	-96
 1336 0293 0E       		.byte	14
 1337 0294 A4       		.byte	-92
 1338 0295 01       		.byte	1
 1339 0296 AB       		.byte	-85
 1340 0297 02       		.byte	2
 1341 0298 AC       		.byte	-84
 1342 0299 02       		.byte	2
 1343 029a AE       		.byte	-82
 1344 029b 10       		.byte	16
 1345 029c AF       		.byte	-81
 1346 029d 02       		.byte	2
 1347 029e B0       		.byte	-80
 1348 029f 01       		.byte	1
 1349 02a0 B1       		.byte	-79
 1350 02a1 03       		.byte	3
 1351 02a2 B6       		.byte	-74
 1352 02a3 1E       		.byte	30
 1353 02a4 BA       		.byte	-70
 1354 02a5 80       		.byte	-128
 1355 02a6 C0       		.byte	-64
 1356 02a7 60       		.byte	96
 1357 02a8 C1       		.byte	-63
 1358 02a9 01       		.byte	1
 1359 02aa C5       		.byte	-59
 1360 02ab D0       		.byte	-48
 1361 02ac C6       		.byte	-58
 1362 02ad 02       		.byte	2
 1363 02ae C7       		.byte	-57
ARM GAS  C:\Users\xavieran\AppData\Local\Temp\ccykvWSD.s 			page 72


 1364 02af 10       		.byte	16
 1365 02b0 C8       		.byte	-56
 1366 02b1 26       		.byte	38
 1367 02b2 C9       		.byte	-55
 1368 02b3 FF       		.byte	-1
 1369 02b4 CA       		.byte	-54
 1370 02b5 FF       		.byte	-1
 1371 02b6 CB       		.byte	-53
 1372 02b7 FF       		.byte	-1
 1373 02b8 CD       		.byte	-51
 1374 02b9 AF       		.byte	-81
 1375 02ba CE       		.byte	-50
 1376 02bb 0F       		.byte	15
 1377 02bc CF       		.byte	-49
 1378 02bd 04       		.byte	4
 1379 02be D0       		.byte	-48
 1380 02bf 18       		.byte	24
 1381 02c0 D2       		.byte	-46
 1382 02c1 F6       		.byte	-10
 1383 02c2 D4       		.byte	-44
 1384 02c3 20       		.byte	32
 1385 02c4 D6       		.byte	-42
 1386 02c5 04       		.byte	4
 1387 02c6 D8       		.byte	-40
 1388 02c7 04       		.byte	4
 1389 02c8 D9       		.byte	-39
 1390 02c9 04       		.byte	4
 1391 02ca DA       		.byte	-38
 1392 02cb 04       		.byte	4
 1393 02cc DB       		.byte	-37
 1394 02cd 04       		.byte	4
 1395 02ce DC       		.byte	-36
 1396 02cf 22       		.byte	34
 1397 02d0 DD       		.byte	-35
 1398 02d1 24       		.byte	36
 1399 02d2 DF       		.byte	-33
 1400 02d3 01       		.byte	1
 1401 02d4 E0       		.byte	-32
 1402 02d5 40       		.byte	64
 1403 02d6 E2       		.byte	-30
 1404 02d7 C0       		.byte	-64
 1405 02d8 E4       		.byte	-28
 1406 02d9 40       		.byte	64
 1407 02da E5       		.byte	-27
 1408 02db 40       		.byte	64
 1409 02dc E6       		.byte	-26
 1410 02dd C0       		.byte	-64
 1411 02de E8       		.byte	-24
 1412 02df C0       		.byte	-64
 1413 02e0 EA       		.byte	-22
 1414 02e1 C0       		.byte	-64
 1415 02e2 EC       		.byte	-20
 1416 02e3 C0       		.byte	-64
 1417 02e4 EE       		.byte	-18
 1418 02e5 C0       		.byte	-64
 1419 02e6 03       		.byte	3
 1420 02e7 0A       		.byte	10
ARM GAS  C:\Users\xavieran\AppData\Local\Temp\ccykvWSD.s 			page 73


 1421 02e8 09       		.byte	9
 1422 02e9 09       		.byte	9
 1423 02ea 0A       		.byte	10
 1424 02eb 02       		.byte	2
 1425 02ec 10       		.byte	16
 1426 02ed 80       		.byte	-128
 1427 02ee 12       		.byte	18
 1428 02ef 01       		.byte	1
 1429 02f0 13       		.byte	19
 1430 02f1 08       		.byte	8
 1431 02f2 18       		.byte	24
 1432 02f3 40       		.byte	64
 1433 02f4 19       		.byte	25
 1434 02f5 40       		.byte	64
 1435 02f6 1A       		.byte	26
 1436 02f7 02       		.byte	2
 1437 02f8 21       		.byte	33
 1438 02f9 02       		.byte	2
 1439 02fa 23       		.byte	35
 1440 02fb 80       		.byte	-128
 1441 02fc 24       		.byte	36
 1442 02fd 08       		.byte	8
 1443 02fe 2B       		.byte	43
 1444 02ff 0A       		.byte	10
 1445 0300 30       		.byte	48
 1446 0301 A0       		.byte	-96
 1447 0302 31       		.byte	49
 1448 0303 02       		.byte	2
 1449 0304 33       		.byte	51
 1450 0305 24       		.byte	36
 1451 0306 36       		.byte	54
 1452 0307 02       		.byte	2
 1453 0308 38       		.byte	56
 1454 0309 40       		.byte	64
 1455 030a 3F       		.byte	63
 1456 030b 10       		.byte	16
 1457 030c 43       		.byte	67
 1458 030d 80       		.byte	-128
 1459 030e 44       		.byte	68
 1460 030f 04       		.byte	4
 1461 0310 46       		.byte	70
 1462 0311 40       		.byte	64
 1463 0312 49       		.byte	73
 1464 0313 02       		.byte	2
 1465 0314 4B       		.byte	75
 1466 0315 10       		.byte	16
 1467 0316 52       		.byte	82
 1468 0317 42       		.byte	66
 1469 0318 53       		.byte	83
 1470 0319 80       		.byte	-128
 1471 031a 59       		.byte	89
 1472 031b 18       		.byte	24
 1473 031c 5B       		.byte	91
 1474 031d 81       		.byte	-127
 1475 031e 5D       		.byte	93
 1476 031f 04       		.byte	4
 1477 0320 5E       		.byte	94
ARM GAS  C:\Users\xavieran\AppData\Local\Temp\ccykvWSD.s 			page 74


 1478 0321 80       		.byte	-128
 1479 0322 5F       		.byte	95
 1480 0323 01       		.byte	1
 1481 0324 61       		.byte	97
 1482 0325 01       		.byte	1
 1483 0326 62       		.byte	98
 1484 0327 80       		.byte	-128
 1485 0328 63       		.byte	99
 1486 0329 08       		.byte	8
 1487 032a 68       		.byte	104
 1488 032b 10       		.byte	16
 1489 032c 6A       		.byte	106
 1490 032d 08       		.byte	8
 1491 032e 6B       		.byte	107
 1492 032f 08       		.byte	8
 1493 0330 71       		.byte	113
 1494 0331 20       		.byte	32
 1495 0332 72       		.byte	114
 1496 0333 40       		.byte	64
 1497 0334 73       		.byte	115
 1498 0335 22       		.byte	34
 1499 0336 7F       		.byte	127
 1500 0337 01       		.byte	1
 1501 0338 80       		.byte	-128
 1502 0339 04       		.byte	4
 1503 033a 8C       		.byte	-116
 1504 033b 20       		.byte	32
 1505 033c 8D       		.byte	-115
 1506 033d 58       		.byte	88
 1507 033e 8E       		.byte	-114
 1508 033f 40       		.byte	64
 1509 0340 90       		.byte	-112
 1510 0341 04       		.byte	4
 1511 0342 91       		.byte	-111
 1512 0343 81       		.byte	-127
 1513 0344 94       		.byte	-108
 1514 0345 40       		.byte	64
 1515 0346 96       		.byte	-106
 1516 0347 08       		.byte	8
 1517 0348 98       		.byte	-104
 1518 0349 40       		.byte	64
 1519 034a 9A       		.byte	-102
 1520 034b 01       		.byte	1
 1521 034c 9B       		.byte	-101
 1522 034d 05       		.byte	5
 1523 034e 9F       		.byte	-97
 1524 034f 22       		.byte	34
 1525 0350 A0       		.byte	-96
 1526 0351 80       		.byte	-128
 1527 0352 A1       		.byte	-95
 1528 0353 01       		.byte	1
 1529 0354 A4       		.byte	-92
 1530 0355 04       		.byte	4
 1531 0356 A5       		.byte	-91
 1532 0357 20       		.byte	32
 1533 0358 A7       		.byte	-89
 1534 0359 0A       		.byte	10
ARM GAS  C:\Users\xavieran\AppData\Local\Temp\ccykvWSD.s 			page 75


 1535 035a AE       		.byte	-82
 1536 035b 10       		.byte	16
 1537 035c B1       		.byte	-79
 1538 035d 01       		.byte	1
 1539 035e B2       		.byte	-78
 1540 035f 02       		.byte	2
 1541 0360 B3       		.byte	-77
 1542 0361 20       		.byte	32
 1543 0362 B7       		.byte	-73
 1544 0363 02       		.byte	2
 1545 0364 C0       		.byte	-64
 1546 0365 03       		.byte	3
 1547 0366 C2       		.byte	-62
 1548 0367 0D       		.byte	13
 1549 0368 C4       		.byte	-60
 1550 0369 0D       		.byte	13
 1551 036a CA       		.byte	-54
 1552 036b 0C       		.byte	12
 1553 036c CC       		.byte	-52
 1554 036d 8F       		.byte	-113
 1555 036e CE       		.byte	-50
 1556 036f 28       		.byte	40
 1557 0370 D0       		.byte	-48
 1558 0371 A8       		.byte	-88
 1559 0372 D2       		.byte	-46
 1560 0373 04       		.byte	4
 1561 0374 D6       		.byte	-42
 1562 0375 DF       		.byte	-33
 1563 0376 D8       		.byte	-40
 1564 0377 0D       		.byte	13
 1565 0378 DE       		.byte	-34
 1566 0379 10       		.byte	16
 1567 037a E2       		.byte	-30
 1568 037b 02       		.byte	2
 1569 037c E8       		.byte	-24
 1570 037d 01       		.byte	1
 1571 037e EC       		.byte	-20
 1572 037f 0B       		.byte	11
 1573 0380 08       		.byte	8
 1574 0381 08       		.byte	8
 1575 0382 0C       		.byte	12
 1576 0383 08       		.byte	8
 1577 0384 0D       		.byte	13
 1578 0385 01       		.byte	1
 1579 0386 12       		.byte	18
 1580 0387 04       		.byte	4
 1581 0388 15       		.byte	21
 1582 0389 02       		.byte	2
 1583 038a 16       		.byte	22
 1584 038b 02       		.byte	2
 1585 038c 1B       		.byte	27
 1586 038d 01       		.byte	1
 1587 038e 1D       		.byte	29
 1588 038f 04       		.byte	4
 1589 0390 21       		.byte	33
 1590 0391 04       		.byte	4
 1591 0392 22       		.byte	34
ARM GAS  C:\Users\xavieran\AppData\Local\Temp\ccykvWSD.s 			page 76


 1592 0393 02       		.byte	2
 1593 0394 25       		.byte	37
 1594 0395 04       		.byte	4
 1595 0396 26       		.byte	38
 1596 0397 01       		.byte	1
 1597 0398 29       		.byte	41
 1598 0399 04       		.byte	4
 1599 039a 2D       		.byte	45
 1600 039b 04       		.byte	4
 1601 039c 30       		.byte	48
 1602 039d 01       		.byte	1
 1603 039e 31       		.byte	49
 1604 039f 02       		.byte	2
 1605 03a0 32       		.byte	50
 1606 03a1 02       		.byte	2
 1607 03a2 34       		.byte	52
 1608 03a3 04       		.byte	4
 1609 03a4 35       		.byte	53
 1610 03a5 01       		.byte	1
 1611 03a6 36       		.byte	54
 1612 03a7 08       		.byte	8
 1613 03a8 37       		.byte	55
 1614 03a9 04       		.byte	4
 1615 03aa 39       		.byte	57
 1616 03ab 80       		.byte	-128
 1617 03ac 3E       		.byte	62
 1618 03ad 04       		.byte	4
 1619 03ae 3F       		.byte	63
 1620 03af 40       		.byte	64
 1621 03b0 40       		.byte	64
 1622 03b1 61       		.byte	97
 1623 03b2 49       		.byte	73
 1624 03b3 FF       		.byte	-1
 1625 03b4 4A       		.byte	74
 1626 03b5 FF       		.byte	-1
 1627 03b6 4B       		.byte	75
 1628 03b7 FF       		.byte	-1
 1629 03b8 4F       		.byte	79
 1630 03b9 01       		.byte	1
 1631 03ba 50       		.byte	80
 1632 03bb 18       		.byte	24
 1633 03bc 52       		.byte	82
 1634 03bd 80       		.byte	-128
 1635 03be 54       		.byte	84
 1636 03bf 07       		.byte	7
 1637 03c0 58       		.byte	88
 1638 03c1 04       		.byte	4
 1639 03c2 59       		.byte	89
 1640 03c3 04       		.byte	4
 1641 03c4 5A       		.byte	90
 1642 03c5 0B       		.byte	11
 1643 03c6 5B       		.byte	91
 1644 03c7 04       		.byte	4
 1645 03c8 5C       		.byte	92
 1646 03c9 33       		.byte	51
 1647 03ca 5D       		.byte	93
 1648 03cb 39       		.byte	57
ARM GAS  C:\Users\xavieran\AppData\Local\Temp\ccykvWSD.s 			page 77


 1649 03cc 5F       		.byte	95
 1650 03cd 01       		.byte	1
 1651 03ce 60       		.byte	96
 1652 03cf 40       		.byte	64
 1653 03d0 62       		.byte	98
 1654 03d1 40       		.byte	64
 1655 03d2 64       		.byte	100
 1656 03d3 40       		.byte	64
 1657 03d4 65       		.byte	101
 1658 03d5 40       		.byte	64
 1659 03d6 66       		.byte	102
 1660 03d7 80       		.byte	-128
 1661 03d8 68       		.byte	104
 1662 03d9 80       		.byte	-128
 1663 03da 6A       		.byte	106
 1664 03db 80       		.byte	-128
 1665 03dc 6C       		.byte	108
 1666 03dd 80       		.byte	-128
 1667 03de 6E       		.byte	110
 1668 03df 80       		.byte	-128
 1669 03e0 8F       		.byte	-113
 1670 03e1 01       		.byte	1
 1671 03e2 9B       		.byte	-101
 1672 03e3 01       		.byte	1
 1673 03e4 B7       		.byte	-73
 1674 03e5 01       		.byte	1
 1675 03e6 B8       		.byte	-72
 1676 03e7 80       		.byte	-128
 1677 03e8 BE       		.byte	-66
 1678 03e9 40       		.byte	64
 1679 03ea BF       		.byte	-65
 1680 03eb 40       		.byte	64
 1681 03ec C0       		.byte	-64
 1682 03ed 31       		.byte	49
 1683 03ee C5       		.byte	-59
 1684 03ef EC       		.byte	-20
 1685 03f0 C6       		.byte	-58
 1686 03f1 02       		.byte	2
 1687 03f2 C8       		.byte	-56
 1688 03f3 07       		.byte	7
 1689 03f4 C9       		.byte	-55
 1690 03f5 FF       		.byte	-1
 1691 03f6 CA       		.byte	-54
 1692 03f7 FF       		.byte	-1
 1693 03f8 CB       		.byte	-53
 1694 03f9 FF       		.byte	-1
 1695 03fa CD       		.byte	-51
 1696 03fb 83       		.byte	-125
 1697 03fc CE       		.byte	-50
 1698 03fd 03       		.byte	3
 1699 03fe CF       		.byte	-49
 1700 03ff 01       		.byte	1
 1701 0400 D0       		.byte	-48
 1702 0401 18       		.byte	24
 1703 0402 D6       		.byte	-42
 1704 0403 08       		.byte	8
 1705 0404 D8       		.byte	-40
ARM GAS  C:\Users\xavieran\AppData\Local\Temp\ccykvWSD.s 			page 78


 1706 0405 04       		.byte	4
 1707 0406 D9       		.byte	-39
 1708 0407 04       		.byte	4
 1709 0408 DA       		.byte	-38
 1710 0409 08       		.byte	8
 1711 040a DB       		.byte	-37
 1712 040b 04       		.byte	4
 1713 040c DD       		.byte	-35
 1714 040d 99       		.byte	-103
 1715 040e DF       		.byte	-33
 1716 040f 01       		.byte	1
 1717 0410 E0       		.byte	-32
 1718 0411 40       		.byte	64
 1719 0412 E2       		.byte	-30
 1720 0413 40       		.byte	64
 1721 0414 E4       		.byte	-28
 1722 0415 40       		.byte	64
 1723 0416 E5       		.byte	-27
 1724 0417 40       		.byte	64
 1725 0418 E6       		.byte	-26
 1726 0419 80       		.byte	-128
 1727 041a E8       		.byte	-24
 1728 041b 80       		.byte	-128
 1729 041c EA       		.byte	-22
 1730 041d 80       		.byte	-128
 1731 041e EC       		.byte	-20
 1732 041f 80       		.byte	-128
 1733 0420 EE       		.byte	-18
 1734 0421 80       		.byte	-128
 1735 0422 00       		.byte	0
 1736 0423 A0       		.byte	-96
 1737 0424 03       		.byte	3
 1738 0425 04       		.byte	4
 1739 0426 08       		.byte	8
 1740 0427 04       		.byte	4
 1741 0428 09       		.byte	9
 1742 0429 02       		.byte	2
 1743 042a 10       		.byte	16
 1744 042b 20       		.byte	32
 1745 042c 12       		.byte	18
 1746 042d 40       		.byte	64
 1747 042e 18       		.byte	24
 1748 042f 40       		.byte	64
 1749 0430 19       		.byte	25
 1750 0431 48       		.byte	72
 1751 0432 1A       		.byte	26
 1752 0433 08       		.byte	8
 1753 0434 1F       		.byte	31
 1754 0435 40       		.byte	64
 1755 0436 20       		.byte	32
 1756 0437 80       		.byte	-128
 1757 0438 22       		.byte	34
 1758 0439 90       		.byte	-112
 1759 043a 26       		.byte	38
 1760 043b 40       		.byte	64
 1761 043c 28       		.byte	40
 1762 043d 40       		.byte	64
ARM GAS  C:\Users\xavieran\AppData\Local\Temp\ccykvWSD.s 			page 79


 1763 043e 2B       		.byte	43
 1764 043f 2A       		.byte	42
 1765 0440 30       		.byte	48
 1766 0441 A0       		.byte	-96
 1767 0442 33       		.byte	51
 1768 0443 04       		.byte	4
 1769 0444 35       		.byte	53
 1770 0445 10       		.byte	16
 1771 0446 38       		.byte	56
 1772 0447 40       		.byte	64
 1773 0448 3D       		.byte	61
 1774 0449 80       		.byte	-128
 1775 044a 41       		.byte	65
 1776 044b 80       		.byte	-128
 1777 044c 45       		.byte	69
 1778 044d 80       		.byte	-128
 1779 044e 46       		.byte	70
 1780 044f 20       		.byte	32
 1781 0450 49       		.byte	73
 1782 0451 10       		.byte	16
 1783 0452 4D       		.byte	77
 1784 0453 04       		.byte	4
 1785 0454 4F       		.byte	79
 1786 0455 01       		.byte	1
 1787 0456 55       		.byte	85
 1788 0457 C0       		.byte	-64
 1789 0458 58       		.byte	88
 1790 0459 08       		.byte	8
 1791 045a 59       		.byte	89
 1792 045b 41       		.byte	65
 1793 045c 5A       		.byte	90
 1794 045d 20       		.byte	32
 1795 045e 5C       		.byte	92
 1796 045f 10       		.byte	16
 1797 0460 5E       		.byte	94
 1798 0461 40       		.byte	64
 1799 0462 5F       		.byte	95
 1800 0463 08       		.byte	8
 1801 0464 64       		.byte	100
 1802 0465 02       		.byte	2
 1803 0466 65       		.byte	101
 1804 0467 10       		.byte	16
 1805 0468 66       		.byte	102
 1806 0469 24       		.byte	36
 1807 046a 67       		.byte	103
 1808 046b 02       		.byte	2
 1809 046c 71       		.byte	113
 1810 046d 02       		.byte	2
 1811 046e 78       		.byte	120
 1812 046f 02       		.byte	2
 1813 0470 7F       		.byte	127
 1814 0471 01       		.byte	1
 1815 0472 80       		.byte	-128
 1816 0473 10       		.byte	16
 1817 0474 85       		.byte	-123
 1818 0475 10       		.byte	16
 1819 0476 8B       		.byte	-117
ARM GAS  C:\Users\xavieran\AppData\Local\Temp\ccykvWSD.s 			page 80


 1820 0477 01       		.byte	1
 1821 0478 8F       		.byte	-113
 1822 0479 04       		.byte	4
 1823 047a 90       		.byte	-112
 1824 047b 04       		.byte	4
 1825 047c 91       		.byte	-111
 1826 047d 81       		.byte	-127
 1827 047e 95       		.byte	-107
 1828 047f 04       		.byte	4
 1829 0480 97       		.byte	-105
 1830 0481 03       		.byte	3
 1831 0482 98       		.byte	-104
 1832 0483 44       		.byte	68
 1833 0484 99       		.byte	-103
 1834 0485 02       		.byte	2
 1835 0486 9A       		.byte	-102
 1836 0487 40       		.byte	64
 1837 0488 A0       		.byte	-96
 1838 0489 80       		.byte	-128
 1839 048a A2       		.byte	-94
 1840 048b 02       		.byte	2
 1841 048c A3       		.byte	-93
 1842 048d 20       		.byte	32
 1843 048e A4       		.byte	-92
 1844 048f 04       		.byte	4
 1845 0490 A6       		.byte	-90
 1846 0491 C0       		.byte	-64
 1847 0492 A7       		.byte	-89
 1848 0493 0E       		.byte	14
 1849 0494 A9       		.byte	-87
 1850 0495 01       		.byte	1
 1851 0496 AC       		.byte	-84
 1852 0497 04       		.byte	4
 1853 0498 AF       		.byte	-81
 1854 0499 10       		.byte	16
 1855 049a B0       		.byte	-80
 1856 049b 10       		.byte	16
 1857 049c B1       		.byte	-79
 1858 049d 48       		.byte	72
 1859 049e B7       		.byte	-73
 1860 049f 22       		.byte	34
 1861 04a0 C0       		.byte	-64
 1862 04a1 03       		.byte	3
 1863 04a2 C2       		.byte	-62
 1864 04a3 0C       		.byte	12
 1865 04a4 C4       		.byte	-60
 1866 04a5 0C       		.byte	12
 1867 04a6 CA       		.byte	-54
 1868 04a7 0F       		.byte	15
 1869 04a8 CC       		.byte	-52
 1870 04a9 2E       		.byte	46
 1871 04aa CE       		.byte	-50
 1872 04ab 18       		.byte	24
 1873 04ac D0       		.byte	-48
 1874 04ad 58       		.byte	88
 1875 04ae D2       		.byte	-46
 1876 04af 04       		.byte	4
ARM GAS  C:\Users\xavieran\AppData\Local\Temp\ccykvWSD.s 			page 81


 1877 04b0 D6       		.byte	-42
 1878 04b1 7F       		.byte	127
 1879 04b2 D8       		.byte	-40
 1880 04b3 70       		.byte	112
 1881 04b4 DE       		.byte	-34
 1882 04b5 11       		.byte	17
 1883 04b6 E6       		.byte	-26
 1884 04b7 20       		.byte	32
 1885 04b8 EA       		.byte	-22
 1886 04b9 08       		.byte	8
 1887 04ba 06       		.byte	6
 1888 04bb 02       		.byte	2
 1889 04bc 0B       		.byte	11
 1890 04bd 02       		.byte	2
 1891 04be 16       		.byte	22
 1892 04bf 02       		.byte	2
 1893 04c0 17       		.byte	23
 1894 04c1 01       		.byte	1
 1895 04c2 19       		.byte	25
 1896 04c3 01       		.byte	1
 1897 04c4 1A       		.byte	26
 1898 04c5 01       		.byte	1
 1899 04c6 26       		.byte	38
 1900 04c7 01       		.byte	1
 1901 04c8 29       		.byte	41
 1902 04c9 02       		.byte	2
 1903 04ca 30       		.byte	48
 1904 04cb 01       		.byte	1
 1905 04cc 32       		.byte	50
 1906 04cd 02       		.byte	2
 1907 04ce 33       		.byte	51
 1908 04cf 02       		.byte	2
 1909 04d0 35       		.byte	53
 1910 04d1 01       		.byte	1
 1911 04d2 3E       		.byte	62
 1912 04d3 04       		.byte	4
 1913 04d4 3F       		.byte	63
 1914 04d5 04       		.byte	4
 1915 04d6 40       		.byte	64
 1916 04d7 60       		.byte	96
 1917 04d8 41       		.byte	65
 1918 04d9 03       		.byte	3
 1919 04da 49       		.byte	73
 1920 04db FF       		.byte	-1
 1921 04dc 4A       		.byte	74
 1922 04dd FF       		.byte	-1
 1923 04de 4B       		.byte	75
 1924 04df FF       		.byte	-1
 1925 04e0 4D       		.byte	77
 1926 04e1 A0       		.byte	-96
 1927 04e2 4F       		.byte	79
 1928 04e3 04       		.byte	4
 1929 04e4 50       		.byte	80
 1930 04e5 18       		.byte	24
 1931 04e6 56       		.byte	86
 1932 04e7 08       		.byte	8
 1933 04e8 58       		.byte	88
ARM GAS  C:\Users\xavieran\AppData\Local\Temp\ccykvWSD.s 			page 82


 1934 04e9 04       		.byte	4
 1935 04ea 59       		.byte	89
 1936 04eb 04       		.byte	4
 1937 04ec 5A       		.byte	90
 1938 04ed 04       		.byte	4
 1939 04ee 5B       		.byte	91
 1940 04ef 04       		.byte	4
 1941 04f0 5C       		.byte	92
 1942 04f1 33       		.byte	51
 1943 04f2 5D       		.byte	93
 1944 04f3 93       		.byte	-109
 1945 04f4 5F       		.byte	95
 1946 04f5 01       		.byte	1
 1947 04f6 60       		.byte	96
 1948 04f7 40       		.byte	64
 1949 04f8 62       		.byte	98
 1950 04f9 C0       		.byte	-64
 1951 04fa 64       		.byte	100
 1952 04fb 40       		.byte	64
 1953 04fc 65       		.byte	101
 1954 04fd 40       		.byte	64
 1955 04fe 66       		.byte	102
 1956 04ff C0       		.byte	-64
 1957 0500 68       		.byte	104
 1958 0501 C0       		.byte	-64
 1959 0502 6A       		.byte	106
 1960 0503 C0       		.byte	-64
 1961 0504 6C       		.byte	108
 1962 0505 C0       		.byte	-64
 1963 0506 6E       		.byte	110
 1964 0507 C0       		.byte	-64
 1965 0508 80       		.byte	-128
 1966 0509 01       		.byte	1
 1967 050a 82       		.byte	-126
 1968 050b 02       		.byte	2
 1969 050c 8E       		.byte	-114
 1970 050d 08       		.byte	8
 1971 050e 90       		.byte	-112
 1972 050f 01       		.byte	1
 1973 0510 93       		.byte	-109
 1974 0511 01       		.byte	1
 1975 0512 96       		.byte	-106
 1976 0513 04       		.byte	4
 1977 0514 9A       		.byte	-102
 1978 0515 04       		.byte	4
 1979 0516 A0       		.byte	-96
 1980 0517 08       		.byte	8
 1981 0518 A8       		.byte	-88
 1982 0519 02       		.byte	2
 1983 051a B0       		.byte	-80
 1984 051b 04       		.byte	4
 1985 051c B2       		.byte	-78
 1986 051d 03       		.byte	3
 1987 051e B4       		.byte	-76
 1988 051f 03       		.byte	3
 1989 0520 B6       		.byte	-74
 1990 0521 08       		.byte	8
ARM GAS  C:\Users\xavieran\AppData\Local\Temp\ccykvWSD.s 			page 83


 1991 0522 B7       		.byte	-73
 1992 0523 01       		.byte	1
 1993 0524 BE       		.byte	-66
 1994 0525 15       		.byte	21
 1995 0526 C0       		.byte	-64
 1996 0527 20       		.byte	32
 1997 0528 C1       		.byte	-63
 1998 0529 06       		.byte	6
 1999 052a C5       		.byte	-59
 2000 052b D1       		.byte	-47
 2001 052c C6       		.byte	-58
 2002 052d 50       		.byte	80
 2003 052e C7       		.byte	-57
 2004 052f 02       		.byte	2
 2005 0530 C8       		.byte	-56
 2006 0531 1B       		.byte	27
 2007 0532 C9       		.byte	-55
 2008 0533 FF       		.byte	-1
 2009 0534 CA       		.byte	-54
 2010 0535 FF       		.byte	-1
 2011 0536 CB       		.byte	-53
 2012 0537 FF       		.byte	-1
 2013 0538 CD       		.byte	-51
 2014 0539 AF       		.byte	-81
 2015 053a CE       		.byte	-50
 2016 053b 0F       		.byte	15
 2017 053c CF       		.byte	-49
 2018 053d 04       		.byte	4
 2019 053e D0       		.byte	-48
 2020 053f 18       		.byte	24
 2021 0540 D4       		.byte	-44
 2022 0541 05       		.byte	5
 2023 0542 D8       		.byte	-40
 2024 0543 04       		.byte	4
 2025 0544 D9       		.byte	-39
 2026 0545 04       		.byte	4
 2027 0546 DA       		.byte	-38
 2028 0547 04       		.byte	4
 2029 0548 DB       		.byte	-37
 2030 0549 04       		.byte	4
 2031 054a DC       		.byte	-36
 2032 054b 44       		.byte	68
 2033 054c DD       		.byte	-35
 2034 054d 43       		.byte	67
 2035 054e DF       		.byte	-33
 2036 054f 01       		.byte	1
 2037 0550 E0       		.byte	-32
 2038 0551 40       		.byte	64
 2039 0552 E2       		.byte	-30
 2040 0553 C0       		.byte	-64
 2041 0554 E4       		.byte	-28
 2042 0555 40       		.byte	64
 2043 0556 E5       		.byte	-27
 2044 0557 40       		.byte	64
 2045 0558 E6       		.byte	-26
 2046 0559 C0       		.byte	-64
 2047 055a E8       		.byte	-24
ARM GAS  C:\Users\xavieran\AppData\Local\Temp\ccykvWSD.s 			page 84


 2048 055b C0       		.byte	-64
 2049 055c EA       		.byte	-22
 2050 055d C0       		.byte	-64
 2051 055e EC       		.byte	-20
 2052 055f C0       		.byte	-64
 2053 0560 EE       		.byte	-18
 2054 0561 C0       		.byte	-64
 2055 0562 00       		.byte	0
 2056 0563 02       		.byte	2
 2057 0564 02       		.byte	2
 2058 0565 02       		.byte	2
 2059 0566 04       		.byte	4
 2060 0567 08       		.byte	8
 2061 0568 08       		.byte	8
 2062 0569 02       		.byte	2
 2063 056a 09       		.byte	9
 2064 056b 28       		.byte	40
 2065 056c 0A       		.byte	10
 2066 056d 08       		.byte	8
 2067 056e 0D       		.byte	13
 2068 056f 20       		.byte	32
 2069 0570 0E       		.byte	14
 2070 0571 10       		.byte	16
 2071 0572 12       		.byte	18
 2072 0573 84       		.byte	-124
 2073 0574 16       		.byte	22
 2074 0575 10       		.byte	16
 2075 0576 18       		.byte	24
 2076 0577 50       		.byte	80
 2077 0578 19       		.byte	25
 2078 0579 A0       		.byte	-96
 2079 057a 1B       		.byte	27
 2080 057b 04       		.byte	4
 2081 057c 1C       		.byte	28
 2082 057d 80       		.byte	-128
 2083 057e 1F       		.byte	31
 2084 057f 08       		.byte	8
 2085 0580 22       		.byte	34
 2086 0581 80       		.byte	-128
 2087 0582 24       		.byte	36
 2088 0583 08       		.byte	8
 2089 0584 25       		.byte	37
 2090 0585 10       		.byte	16
 2091 0586 27       		.byte	39
 2092 0587 10       		.byte	16
 2093 0588 2A       		.byte	42
 2094 0589 80       		.byte	-128
 2095 058a 2B       		.byte	43
 2096 058b 01       		.byte	1
 2097 058c 2E       		.byte	46
 2098 058d 10       		.byte	16
 2099 058e 32       		.byte	50
 2100 058f 02       		.byte	2
 2101 0590 36       		.byte	54
 2102 0591 28       		.byte	40
 2103 0592 3D       		.byte	61
 2104 0593 20       		.byte	32
ARM GAS  C:\Users\xavieran\AppData\Local\Temp\ccykvWSD.s 			page 85


 2105 0594 41       		.byte	65
 2106 0595 20       		.byte	32
 2107 0596 45       		.byte	69
 2108 0597 08       		.byte	8
 2109 0598 48       		.byte	72
 2110 0599 18       		.byte	24
 2111 059a 49       		.byte	73
 2112 059b 01       		.byte	1
 2113 059c 4A       		.byte	74
 2114 059d 20       		.byte	32
 2115 059e 4E       		.byte	78
 2116 059f 0C       		.byte	12
 2117 05a0 50       		.byte	80
 2118 05a1 28       		.byte	40
 2119 05a2 51       		.byte	81
 2120 05a3 08       		.byte	8
 2121 05a4 52       		.byte	82
 2122 05a5 10       		.byte	16
 2123 05a6 59       		.byte	89
 2124 05a7 8A       		.byte	-118
 2125 05a8 5E       		.byte	94
 2126 05a9 40       		.byte	64
 2127 05aa 66       		.byte	102
 2128 05ab 80       		.byte	-128
 2129 05ac 6D       		.byte	109
 2130 05ad 10       		.byte	16
 2131 05ae 6E       		.byte	110
 2132 05af 04       		.byte	4
 2133 05b0 6F       		.byte	111
 2134 05b1 81       		.byte	-127
 2135 05b2 74       		.byte	116
 2136 05b3 80       		.byte	-128
 2137 05b4 75       		.byte	117
 2138 05b5 10       		.byte	16
 2139 05b6 81       		.byte	-127
 2140 05b7 10       		.byte	16
 2141 05b8 83       		.byte	-125
 2142 05b9 80       		.byte	-128
 2143 05ba 86       		.byte	-122
 2144 05bb 04       		.byte	4
 2145 05bc 8C       		.byte	-116
 2146 05bd 80       		.byte	-128
 2147 05be 8D       		.byte	-115
 2148 05bf 10       		.byte	16
 2149 05c0 90       		.byte	-112
 2150 05c1 04       		.byte	4
 2151 05c2 91       		.byte	-111
 2152 05c3 81       		.byte	-127
 2153 05c4 92       		.byte	-110
 2154 05c5 08       		.byte	8
 2155 05c6 95       		.byte	-107
 2156 05c7 10       		.byte	16
 2157 05c8 96       		.byte	-106
 2158 05c9 40       		.byte	64
 2159 05ca 99       		.byte	-103
 2160 05cb 0A       		.byte	10
 2161 05cc 9A       		.byte	-102
ARM GAS  C:\Users\xavieran\AppData\Local\Temp\ccykvWSD.s 			page 86


 2162 05cd 04       		.byte	4
 2163 05ce 9C       		.byte	-100
 2164 05cf 08       		.byte	8
 2165 05d0 9D       		.byte	-99
 2166 05d1 01       		.byte	1
 2167 05d2 9F       		.byte	-97
 2168 05d3 01       		.byte	1
 2169 05d4 A2       		.byte	-94
 2170 05d5 02       		.byte	2
 2171 05d6 A4       		.byte	-92
 2172 05d7 34       		.byte	52
 2173 05d8 A7       		.byte	-89
 2174 05d9 02       		.byte	2
 2175 05da AB       		.byte	-85
 2176 05db 08       		.byte	8
 2177 05dc AF       		.byte	-81
 2178 05dd 40       		.byte	64
 2179 05de B7       		.byte	-73
 2180 05df 08       		.byte	8
 2181 05e0 C0       		.byte	-64
 2182 05e1 29       		.byte	41
 2183 05e2 C2       		.byte	-62
 2184 05e3 6E       		.byte	110
 2185 05e4 C4       		.byte	-60
 2186 05e5 2A       		.byte	42
 2187 05e6 CA       		.byte	-54
 2188 05e7 20       		.byte	32
 2189 05e8 CC       		.byte	-52
 2190 05e9 61       		.byte	97
 2191 05ea CE       		.byte	-50
 2192 05eb 20       		.byte	32
 2193 05ec D0       		.byte	-48
 2194 05ed 44       		.byte	68
 2195 05ee D2       		.byte	-46
 2196 05ef 24       		.byte	36
 2197 05f0 D6       		.byte	-42
 2198 05f1 1B       		.byte	27
 2199 05f2 D8       		.byte	-40
 2200 05f3 10       		.byte	16
 2201 05f4 E0       		.byte	-32
 2202 05f5 85       		.byte	-123
 2203 05f6 E2       		.byte	-30
 2204 05f7 40       		.byte	64
 2205 05f8 E6       		.byte	-26
 2206 05f9 40       		.byte	64
 2207 05fa 02       		.byte	2
 2208 05fb 02       		.byte	2
 2209 05fc 06       		.byte	6
 2210 05fd 06       		.byte	6
 2211 05fe 07       		.byte	7
 2212 05ff 02       		.byte	2
 2213 0600 11       		.byte	17
 2214 0601 01       		.byte	1
 2215 0602 12       		.byte	18
 2216 0603 10       		.byte	16
 2217 0604 13       		.byte	19
 2218 0605 02       		.byte	2
ARM GAS  C:\Users\xavieran\AppData\Local\Temp\ccykvWSD.s 			page 87


 2219 0606 1A       		.byte	26
 2220 0607 08       		.byte	8
 2221 0608 26       		.byte	38
 2222 0609 04       		.byte	4
 2223 060a 2A       		.byte	42
 2224 060b 01       		.byte	1
 2225 060c 2C       		.byte	44
 2226 060d 02       		.byte	2
 2227 060e 2E       		.byte	46
 2228 060f 04       		.byte	4
 2229 0610 2F       		.byte	47
 2230 0611 01       		.byte	1
 2231 0612 30       		.byte	48
 2232 0613 08       		.byte	8
 2233 0614 32       		.byte	50
 2234 0615 10       		.byte	16
 2235 0616 33       		.byte	51
 2236 0617 03       		.byte	3
 2237 0618 34       		.byte	52
 2238 0619 01       		.byte	1
 2239 061a 36       		.byte	54
 2240 061b 06       		.byte	6
 2241 061c 3E       		.byte	62
 2242 061d 40       		.byte	64
 2243 061e 3F       		.byte	63
 2244 061f 04       		.byte	4
 2245 0620 40       		.byte	64
 2246 0621 26       		.byte	38
 2247 0622 41       		.byte	65
 2248 0623 03       		.byte	3
 2249 0624 49       		.byte	73
 2250 0625 FF       		.byte	-1
 2251 0626 4A       		.byte	74
 2252 0627 FF       		.byte	-1
 2253 0628 4B       		.byte	75
 2254 0629 FF       		.byte	-1
 2255 062a 4F       		.byte	79
 2256 062b 01       		.byte	1
 2257 062c 50       		.byte	80
 2258 062d 18       		.byte	24
 2259 062e 56       		.byte	86
 2260 062f 08       		.byte	8
 2261 0630 58       		.byte	88
 2262 0631 04       		.byte	4
 2263 0632 59       		.byte	89
 2264 0633 04       		.byte	4
 2265 0634 5A       		.byte	90
 2266 0635 04       		.byte	4
 2267 0636 5B       		.byte	91
 2268 0637 04       		.byte	4
 2269 0638 5C       		.byte	92
 2270 0639 02       		.byte	2
 2271 063a 5D       		.byte	93
 2272 063b 93       		.byte	-109
 2273 063c 5F       		.byte	95
 2274 063d 01       		.byte	1
 2275 063e 60       		.byte	96
ARM GAS  C:\Users\xavieran\AppData\Local\Temp\ccykvWSD.s 			page 88


 2276 063f 40       		.byte	64
 2277 0640 62       		.byte	98
 2278 0641 40       		.byte	64
 2279 0642 64       		.byte	100
 2280 0643 40       		.byte	64
 2281 0644 65       		.byte	101
 2282 0645 40       		.byte	64
 2283 0646 66       		.byte	102
 2284 0647 80       		.byte	-128
 2285 0648 68       		.byte	104
 2286 0649 80       		.byte	-128
 2287 064a 6A       		.byte	106
 2288 064b 80       		.byte	-128
 2289 064c 6C       		.byte	108
 2290 064d 80       		.byte	-128
 2291 064e 6E       		.byte	110
 2292 064f 80       		.byte	-128
 2293 0650 8A       		.byte	-118
 2294 0651 0F       		.byte	15
 2295 0652 8E       		.byte	-114
 2296 0653 0F       		.byte	15
 2297 0654 92       		.byte	-110
 2298 0655 01       		.byte	1
 2299 0656 94       		.byte	-108
 2300 0657 0F       		.byte	15
 2301 0658 9A       		.byte	-102
 2302 0659 08       		.byte	8
 2303 065a 9B       		.byte	-101
 2304 065b 01       		.byte	1
 2305 065c A2       		.byte	-94
 2306 065d 08       		.byte	8
 2307 065e A4       		.byte	-92
 2308 065f 0F       		.byte	15
 2309 0660 AA       		.byte	-86
 2310 0661 02       		.byte	2
 2311 0662 AE       		.byte	-82
 2312 0663 04       		.byte	4
 2313 0664 B0       		.byte	-80
 2314 0665 0F       		.byte	15
 2315 0666 B1       		.byte	-79
 2316 0667 01       		.byte	1
 2317 0668 BE       		.byte	-66
 2318 0669 01       		.byte	1
 2319 066a C0       		.byte	-64
 2320 066b 26       		.byte	38
 2321 066c C1       		.byte	-63
 2322 066d 01       		.byte	1
 2323 066e C5       		.byte	-59
 2324 066f EC       		.byte	-20
 2325 0670 C7       		.byte	-57
 2326 0671 02       		.byte	2
 2327 0672 C8       		.byte	-56
 2328 0673 13       		.byte	19
 2329 0674 C9       		.byte	-55
 2330 0675 FF       		.byte	-1
 2331 0676 CA       		.byte	-54
 2332 0677 FF       		.byte	-1
ARM GAS  C:\Users\xavieran\AppData\Local\Temp\ccykvWSD.s 			page 89


 2333 0678 CB       		.byte	-53
 2334 0679 FF       		.byte	-1
 2335 067a CD       		.byte	-51
 2336 067b 83       		.byte	-125
 2337 067c CE       		.byte	-50
 2338 067d 03       		.byte	3
 2339 067e CF       		.byte	-49
 2340 067f 01       		.byte	1
 2341 0680 D0       		.byte	-48
 2342 0681 18       		.byte	24
 2343 0682 D4       		.byte	-44
 2344 0683 01       		.byte	1
 2345 0684 D8       		.byte	-40
 2346 0685 04       		.byte	4
 2347 0686 D9       		.byte	-39
 2348 0687 04       		.byte	4
 2349 0688 DA       		.byte	-38
 2350 0689 04       		.byte	4
 2351 068a DB       		.byte	-37
 2352 068b 04       		.byte	4
 2353 068c DC       		.byte	-36
 2354 068d 20       		.byte	32
 2355 068e DD       		.byte	-35
 2356 068f 33       		.byte	51
 2357 0690 DF       		.byte	-33
 2358 0691 05       		.byte	5
 2359 0692 E0       		.byte	-32
 2360 0693 40       		.byte	64
 2361 0694 E2       		.byte	-30
 2362 0695 40       		.byte	64
 2363 0696 E4       		.byte	-28
 2364 0697 40       		.byte	64
 2365 0698 E5       		.byte	-27
 2366 0699 40       		.byte	64
 2367 069a E6       		.byte	-26
 2368 069b 80       		.byte	-128
 2369 069c E8       		.byte	-24
 2370 069d 80       		.byte	-128
 2371 069e EA       		.byte	-22
 2372 069f 80       		.byte	-128
 2373 06a0 EC       		.byte	-20
 2374 06a1 80       		.byte	-128
 2375 06a2 EE       		.byte	-18
 2376 06a3 80       		.byte	-128
 2377 06a4 00       		.byte	0
 2378 06a5 80       		.byte	-128
 2379 06a6 03       		.byte	3
 2380 06a7 08       		.byte	8
 2381 06a8 04       		.byte	4
 2382 06a9 08       		.byte	8
 2383 06aa 06       		.byte	6
 2384 06ab 80       		.byte	-128
 2385 06ac 0A       		.byte	10
 2386 06ad 20       		.byte	32
 2387 06ae 0B       		.byte	11
 2388 06af 88       		.byte	-120
 2389 06b0 0D       		.byte	13
ARM GAS  C:\Users\xavieran\AppData\Local\Temp\ccykvWSD.s 			page 90


 2390 06b1 22       		.byte	34
 2391 06b2 12       		.byte	18
 2392 06b3 25       		.byte	37
 2393 06b4 13       		.byte	19
 2394 06b5 02       		.byte	2
 2395 06b6 15       		.byte	21
 2396 06b7 40       		.byte	64
 2397 06b8 16       		.byte	22
 2398 06b9 28       		.byte	40
 2399 06ba 19       		.byte	25
 2400 06bb 02       		.byte	2
 2401 06bc 1B       		.byte	27
 2402 06bd 01       		.byte	1
 2403 06be 1D       		.byte	29
 2404 06bf 62       		.byte	98
 2405 06c0 1E       		.byte	30
 2406 06c1 20       		.byte	32
 2407 06c2 20       		.byte	32
 2408 06c3 80       		.byte	-128
 2409 06c4 21       		.byte	33
 2410 06c5 01       		.byte	1
 2411 06c6 27       		.byte	39
 2412 06c7 30       		.byte	48
 2413 06c8 2E       		.byte	46
 2414 06c9 80       		.byte	-128
 2415 06ca 32       		.byte	50
 2416 06cb 10       		.byte	16
 2417 06cc 37       		.byte	55
 2418 06cd 01       		.byte	1
 2419 06ce 3F       		.byte	63
 2420 06cf 04       		.byte	4
 2421 06d0 41       		.byte	65
 2422 06d1 40       		.byte	64
 2423 06d2 43       		.byte	67
 2424 06d3 10       		.byte	16
 2425 06d4 47       		.byte	71
 2426 06d5 24       		.byte	36
 2427 06d6 49       		.byte	73
 2428 06d7 25       		.byte	37
 2429 06d8 4C       		.byte	76
 2430 06d9 04       		.byte	4
 2431 06da 4D       		.byte	77
 2432 06db 20       		.byte	32
 2433 06dc 50       		.byte	80
 2434 06dd 04       		.byte	4
 2435 06de 59       		.byte	89
 2436 06df 45       		.byte	69
 2437 06e0 5C       		.byte	92
 2438 06e1 A0       		.byte	-96
 2439 06e2 66       		.byte	102
 2440 06e3 A0       		.byte	-96
 2441 06e4 67       		.byte	103
 2442 06e5 04       		.byte	4
 2443 06e6 6D       		.byte	109
 2444 06e7 60       		.byte	96
 2445 06e8 6F       		.byte	111
 2446 06e9 01       		.byte	1
ARM GAS  C:\Users\xavieran\AppData\Local\Temp\ccykvWSD.s 			page 91


 2447 06ea 79       		.byte	121
 2448 06eb 80       		.byte	-128
 2449 06ec 81       		.byte	-127
 2450 06ed 40       		.byte	64
 2451 06ee 83       		.byte	-125
 2452 06ef 04       		.byte	4
 2453 06f0 88       		.byte	-120
 2454 06f1 20       		.byte	32
 2455 06f2 93       		.byte	-109
 2456 06f3 88       		.byte	-120
 2457 06f4 96       		.byte	-106
 2458 06f5 02       		.byte	2
 2459 06f6 97       		.byte	-105
 2460 06f7 02       		.byte	2
 2461 06f8 9A       		.byte	-102
 2462 06f9 04       		.byte	4
 2463 06fa 9B       		.byte	-101
 2464 06fb 02       		.byte	2
 2465 06fc 9D       		.byte	-99
 2466 06fd 02       		.byte	2
 2467 06fe 9E       		.byte	-98
 2468 06ff 09       		.byte	9
 2469 0700 A0       		.byte	-96
 2470 0701 28       		.byte	40
 2471 0702 A3       		.byte	-93
 2472 0703 08       		.byte	8
 2473 0704 A5       		.byte	-91
 2474 0705 20       		.byte	32
 2475 0706 A6       		.byte	-90
 2476 0707 A0       		.byte	-96
 2477 0708 A7       		.byte	-89
 2478 0709 01       		.byte	1
 2479 070a B1       		.byte	-79
 2480 070b 80       		.byte	-128
 2481 070c B4       		.byte	-76
 2482 070d 80       		.byte	-128
 2483 070e B7       		.byte	-73
 2484 070f 02       		.byte	2
 2485 0710 C0       		.byte	-64
 2486 0711 33       		.byte	51
 2487 0712 C2       		.byte	-62
 2488 0713 5E       		.byte	94
 2489 0714 C4       		.byte	-60
 2490 0715 EF       		.byte	-17
 2491 0716 CA       		.byte	-54
 2492 0717 10       		.byte	16
 2493 0718 CC       		.byte	-52
 2494 0719 84       		.byte	-124
 2495 071a CE       		.byte	-50
 2496 071b 40       		.byte	64
 2497 071c D0       		.byte	-48
 2498 071d 6C       		.byte	108
 2499 071e D2       		.byte	-46
 2500 071f 24       		.byte	36
 2501 0720 D6       		.byte	-42
 2502 0721 3B       		.byte	59
 2503 0722 D8       		.byte	-40
ARM GAS  C:\Users\xavieran\AppData\Local\Temp\ccykvWSD.s 			page 92


 2504 0723 30       		.byte	48
 2505 0724 DE       		.byte	-34
 2506 0725 08       		.byte	8
 2507 0726 E0       		.byte	-32
 2508 0727 84       		.byte	-124
 2509 0728 EA       		.byte	-22
 2510 0729 10       		.byte	16
 2511 072a 01       		.byte	1
 2512 072b 01       		.byte	1
 2513 072c 02       		.byte	2
 2514 072d 20       		.byte	32
 2515 072e 04       		.byte	4
 2516 072f 04       		.byte	4
 2517 0730 05       		.byte	5
 2518 0731 01       		.byte	1
 2519 0732 06       		.byte	6
 2520 0733 08       		.byte	8
 2521 0734 0C       		.byte	12
 2522 0735 0F       		.byte	15
 2523 0736 0D       		.byte	13
 2524 0737 01       		.byte	1
 2525 0738 10       		.byte	16
 2526 0739 10       		.byte	16
 2527 073a 12       		.byte	18
 2528 073b 01       		.byte	1
 2529 073c 1A       		.byte	26
 2530 073d 08       		.byte	8
 2531 073e 1D       		.byte	29
 2532 073f 02       		.byte	2
 2533 0740 21       		.byte	33
 2534 0741 01       		.byte	1
 2535 0742 22       		.byte	34
 2536 0743 18       		.byte	24
 2537 0744 24       		.byte	36
 2538 0745 3F       		.byte	63
 2539 0746 25       		.byte	37
 2540 0747 01       		.byte	1
 2541 0748 28       		.byte	40
 2542 0749 10       		.byte	16
 2543 074a 2A       		.byte	42
 2544 074b 02       		.byte	2
 2545 074c 2E       		.byte	46
 2546 074d 14       		.byte	20
 2547 074e 2F       		.byte	47
 2548 074f 01       		.byte	1
 2549 0750 32       		.byte	50
 2550 0751 3F       		.byte	63
 2551 0752 35       		.byte	53
 2552 0753 03       		.byte	3
 2553 0754 38       		.byte	56
 2554 0755 08       		.byte	8
 2555 0756 39       		.byte	57
 2556 0757 20       		.byte	32
 2557 0758 3F       		.byte	63
 2558 0759 10       		.byte	16
 2559 075a 40       		.byte	64
 2560 075b 14       		.byte	20
ARM GAS  C:\Users\xavieran\AppData\Local\Temp\ccykvWSD.s 			page 93


 2561 075c 49       		.byte	73
 2562 075d FF       		.byte	-1
 2563 075e 4A       		.byte	74
 2564 075f FF       		.byte	-1
 2565 0760 4B       		.byte	75
 2566 0761 FF       		.byte	-1
 2567 0762 4F       		.byte	79
 2568 0763 01       		.byte	1
 2569 0764 50       		.byte	80
 2570 0765 18       		.byte	24
 2571 0766 56       		.byte	86
 2572 0767 08       		.byte	8
 2573 0768 58       		.byte	88
 2574 0769 04       		.byte	4
 2575 076a 59       		.byte	89
 2576 076b 04       		.byte	4
 2577 076c 5A       		.byte	90
 2578 076d 04       		.byte	4
 2579 076e 5B       		.byte	91
 2580 076f 04       		.byte	4
 2581 0770 5C       		.byte	92
 2582 0771 02       		.byte	2
 2583 0772 5D       		.byte	93
 2584 0773 96       		.byte	-106
 2585 0774 5F       		.byte	95
 2586 0775 01       		.byte	1
 2587 0776 60       		.byte	96
 2588 0777 40       		.byte	64
 2589 0778 62       		.byte	98
 2590 0779 40       		.byte	64
 2591 077a 64       		.byte	100
 2592 077b 40       		.byte	64
 2593 077c 65       		.byte	101
 2594 077d 40       		.byte	64
 2595 077e 66       		.byte	102
 2596 077f 80       		.byte	-128
 2597 0780 68       		.byte	104
 2598 0781 80       		.byte	-128
 2599 0782 6A       		.byte	106
 2600 0783 80       		.byte	-128
 2601 0784 6C       		.byte	108
 2602 0785 80       		.byte	-128
 2603 0786 6E       		.byte	110
 2604 0787 80       		.byte	-128
 2605 0788 80       		.byte	-128
 2606 0789 03       		.byte	3
 2607 078a 81       		.byte	-127
 2608 078b 33       		.byte	51
 2609 078c 83       		.byte	-125
 2610 078d 0C       		.byte	12
 2611 078e 86       		.byte	-122
 2612 078f 03       		.byte	3
 2613 0790 88       		.byte	-120
 2614 0791 02       		.byte	2
 2615 0792 8A       		.byte	-118
 2616 0793 01       		.byte	1
 2617 0794 8C       		.byte	-116
ARM GAS  C:\Users\xavieran\AppData\Local\Temp\ccykvWSD.s 			page 94


 2618 0795 01       		.byte	1
 2619 0796 8E       		.byte	-114
 2620 0797 06       		.byte	6
 2621 0798 91       		.byte	-111
 2622 0799 46       		.byte	70
 2623 079a 92       		.byte	-110
 2624 079b 08       		.byte	8
 2625 079c 93       		.byte	-109
 2626 079d A9       		.byte	-87
 2627 079e 98       		.byte	-104
 2628 079f 01       		.byte	1
 2629 07a0 99       		.byte	-103
 2630 07a1 80       		.byte	-128
 2631 07a2 9A       		.byte	-102
 2632 07a3 04       		.byte	4
 2633 07a4 9B       		.byte	-101
 2634 07a5 56       		.byte	86
 2635 07a6 9E       		.byte	-98
 2636 07a7 03       		.byte	3
 2637 07a8 9F       		.byte	-97
 2638 07a9 01       		.byte	1
 2639 07aa A0       		.byte	-96
 2640 07ab 03       		.byte	3
 2641 07ac A1       		.byte	-95
 2642 07ad 0E       		.byte	14
 2643 07ae A3       		.byte	-93
 2644 07af 30       		.byte	48
 2645 07b0 A5       		.byte	-91
 2646 07b1 FF       		.byte	-1
 2647 07b2 A6       		.byte	-90
 2648 07b3 03       		.byte	3
 2649 07b4 A9       		.byte	-87
 2650 07b5 2A       		.byte	42
 2651 07b6 AA       		.byte	-86
 2652 07b7 03       		.byte	3
 2653 07b8 AB       		.byte	-85
 2654 07b9 54       		.byte	84
 2655 07ba AD       		.byte	-83
 2656 07bb 40       		.byte	64
 2657 07bc AE       		.byte	-82
 2658 07bd 08       		.byte	8
 2659 07be AF       		.byte	-81
 2660 07bf 13       		.byte	19
 2661 07c0 B0       		.byte	-80
 2662 07c1 08       		.byte	8
 2663 07c2 B6       		.byte	-74
 2664 07c3 07       		.byte	7
 2665 07c4 B7       		.byte	-73
 2666 07c5 FF       		.byte	-1
 2667 07c6 BA       		.byte	-70
 2668 07c7 80       		.byte	-128
 2669 07c8 BE       		.byte	-66
 2670 07c9 01       		.byte	1
 2671 07ca C0       		.byte	-64
 2672 07cb 15       		.byte	21
 2673 07cc C9       		.byte	-55
 2674 07cd FF       		.byte	-1
ARM GAS  C:\Users\xavieran\AppData\Local\Temp\ccykvWSD.s 			page 95


 2675 07ce CA       		.byte	-54
 2676 07cf FF       		.byte	-1
 2677 07d0 CB       		.byte	-53
 2678 07d1 FF       		.byte	-1
 2679 07d2 CD       		.byte	-51
 2680 07d3 83       		.byte	-125
 2681 07d4 CE       		.byte	-50
 2682 07d5 03       		.byte	3
 2683 07d6 CF       		.byte	-49
 2684 07d7 01       		.byte	1
 2685 07d8 D0       		.byte	-48
 2686 07d9 18       		.byte	24
 2687 07da D2       		.byte	-46
 2688 07db 80       		.byte	-128
 2689 07dc D8       		.byte	-40
 2690 07dd 04       		.byte	4
 2691 07de D9       		.byte	-39
 2692 07df 04       		.byte	4
 2693 07e0 DA       		.byte	-38
 2694 07e1 04       		.byte	4
 2695 07e2 DB       		.byte	-37
 2696 07e3 04       		.byte	4
 2697 07e4 DC       		.byte	-36
 2698 07e5 22       		.byte	34
 2699 07e6 DD       		.byte	-35
 2700 07e7 66       		.byte	102
 2701 07e8 DF       		.byte	-33
 2702 07e9 01       		.byte	1
 2703 07ea E0       		.byte	-32
 2704 07eb 40       		.byte	64
 2705 07ec E2       		.byte	-30
 2706 07ed 40       		.byte	64
 2707 07ee E4       		.byte	-28
 2708 07ef 40       		.byte	64
 2709 07f0 E5       		.byte	-27
 2710 07f1 40       		.byte	64
 2711 07f2 E6       		.byte	-26
 2712 07f3 80       		.byte	-128
 2713 07f4 E8       		.byte	-24
 2714 07f5 80       		.byte	-128
 2715 07f6 EA       		.byte	-22
 2716 07f7 80       		.byte	-128
 2717 07f8 EC       		.byte	-20
 2718 07f9 80       		.byte	-128
 2719 07fa EE       		.byte	-18
 2720 07fb 80       		.byte	-128
 2721 07fc 00       		.byte	0
 2722 07fd 80       		.byte	-128
 2723 07fe 01       		.byte	1
 2724 07ff 02       		.byte	2
 2725 0800 02       		.byte	2
 2726 0801 20       		.byte	32
 2727 0802 04       		.byte	4
 2728 0803 02       		.byte	2
 2729 0804 05       		.byte	5
 2730 0805 40       		.byte	64
 2731 0806 06       		.byte	6
ARM GAS  C:\Users\xavieran\AppData\Local\Temp\ccykvWSD.s 			page 96


 2732 0807 8A       		.byte	-118
 2733 0808 07       		.byte	7
 2734 0809 20       		.byte	32
 2735 080a 0B       		.byte	11
 2736 080b 88       		.byte	-120
 2737 080c 0C       		.byte	12
 2738 080d 20       		.byte	32
 2739 080e 0D       		.byte	13
 2740 080f 41       		.byte	65
 2741 0810 10       		.byte	16
 2742 0811 20       		.byte	32
 2743 0812 12       		.byte	18
 2744 0813 05       		.byte	5
 2745 0814 13       		.byte	19
 2746 0815 02       		.byte	2
 2747 0816 15       		.byte	21
 2748 0817 04       		.byte	4
 2749 0818 16       		.byte	22
 2750 0819 04       		.byte	4
 2751 081a 17       		.byte	23
 2752 081b 42       		.byte	66
 2753 081c 1B       		.byte	27
 2754 081d 08       		.byte	8
 2755 081e 1D       		.byte	29
 2756 081f 40       		.byte	64
 2757 0820 1E       		.byte	30
 2758 0821 80       		.byte	-128
 2759 0822 20       		.byte	32
 2760 0823 04       		.byte	4
 2761 0824 27       		.byte	39
 2762 0825 02       		.byte	2
 2763 0826 28       		.byte	40
 2764 0827 80       		.byte	-128
 2765 0828 2A       		.byte	42
 2766 0829 44       		.byte	68
 2767 082a 2C       		.byte	44
 2768 082b 20       		.byte	32
 2769 082c 2E       		.byte	46
 2770 082d 80       		.byte	-128
 2771 082e 2F       		.byte	47
 2772 082f 44       		.byte	68
 2773 0830 32       		.byte	50
 2774 0831 80       		.byte	-128
 2775 0832 34       		.byte	52
 2776 0833 40       		.byte	64
 2777 0834 36       		.byte	54
 2778 0835 20       		.byte	32
 2779 0836 37       		.byte	55
 2780 0837 22       		.byte	34
 2781 0838 38       		.byte	56
 2782 0839 02       		.byte	2
 2783 083a 39       		.byte	57
 2784 083b 84       		.byte	-124
 2785 083c 3A       		.byte	58
 2786 083d 01       		.byte	1
 2787 083e 3B       		.byte	59
 2788 083f 88       		.byte	-120
ARM GAS  C:\Users\xavieran\AppData\Local\Temp\ccykvWSD.s 			page 97


 2789 0840 3F       		.byte	63
 2790 0841 01       		.byte	1
 2791 0842 41       		.byte	65
 2792 0843 01       		.byte	1
 2793 0844 43       		.byte	67
 2794 0845 42       		.byte	66
 2795 0846 44       		.byte	68
 2796 0847 40       		.byte	64
 2797 0848 46       		.byte	70
 2798 0849 40       		.byte	64
 2799 084a 47       		.byte	71
 2800 084b 40       		.byte	64
 2801 084c 4D       		.byte	77
 2802 084d 40       		.byte	64
 2803 084e 59       		.byte	89
 2804 084f A0       		.byte	-96
 2805 0850 77       		.byte	119
 2806 0851 40       		.byte	64
 2807 0852 79       		.byte	121
 2808 0853 40       		.byte	64
 2809 0854 7B       		.byte	123
 2810 0855 02       		.byte	2
 2811 0856 85       		.byte	-123
 2812 0857 20       		.byte	32
 2813 0858 8F       		.byte	-113
 2814 0859 01       		.byte	1
 2815 085a 93       		.byte	-109
 2816 085b 89       		.byte	-119
 2817 085c 94       		.byte	-108
 2818 085d 04       		.byte	4
 2819 085e 96       		.byte	-106
 2820 085f 02       		.byte	2
 2821 0860 9A       		.byte	-102
 2822 0861 44       		.byte	68
 2823 0862 9E       		.byte	-98
 2824 0863 02       		.byte	2
 2825 0864 9F       		.byte	-97
 2826 0865 42       		.byte	66
 2827 0866 A0       		.byte	-96
 2828 0867 68       		.byte	104
 2829 0868 A3       		.byte	-93
 2830 0869 02       		.byte	2
 2831 086a A5       		.byte	-91
 2832 086b 20       		.byte	32
 2833 086c A6       		.byte	-90
 2834 086d 60       		.byte	96
 2835 086e A7       		.byte	-89
 2836 086f 01       		.byte	1
 2837 0870 A8       		.byte	-88
 2838 0871 80       		.byte	-128
 2839 0872 AD       		.byte	-83
 2840 0873 40       		.byte	64
 2841 0874 AF       		.byte	-81
 2842 0875 0C       		.byte	12
 2843 0876 B0       		.byte	-80
 2844 0877 04       		.byte	4
 2845 0878 B4       		.byte	-76
ARM GAS  C:\Users\xavieran\AppData\Local\Temp\ccykvWSD.s 			page 98


 2846 0879 10       		.byte	16
 2847 087a B7       		.byte	-73
 2848 087b 0C       		.byte	12
 2849 087c C0       		.byte	-64
 2850 087d FD       		.byte	-3
 2851 087e C2       		.byte	-62
 2852 087f DA       		.byte	-38
 2853 0880 C4       		.byte	-60
 2854 0881 FF       		.byte	-1
 2855 0882 CA       		.byte	-54
 2856 0883 FB       		.byte	-5
 2857 0884 CC       		.byte	-52
 2858 0885 B8       		.byte	-72
 2859 0886 CE       		.byte	-50
 2860 0887 8B       		.byte	-117
 2861 0888 D0       		.byte	-48
 2862 0889 19       		.byte	25
 2863 088a D2       		.byte	-46
 2864 088b 10       		.byte	16
 2865 088c D6       		.byte	-42
 2866 088d 0C       		.byte	12
 2867 088e E2       		.byte	-30
 2868 088f 40       		.byte	64
 2869 0890 E6       		.byte	-26
 2870 0891 02       		.byte	2
 2871 0892 E8       		.byte	-24
 2872 0893 10       		.byte	16
 2873 0894 EC       		.byte	-20
 2874 0895 90       		.byte	-112
 2875 0896 EE       		.byte	-18
 2876 0897 01       		.byte	1
 2877 0898 84       		.byte	-124
 2878 0899 01       		.byte	1
 2879 089a 8F       		.byte	-113
 2880 089b 01       		.byte	1
 2881 089c 95       		.byte	-107
 2882 089d 02       		.byte	2
 2883 089e A4       		.byte	-92
 2884 089f 01       		.byte	1
 2885 08a0 AD       		.byte	-83
 2886 08a1 02       		.byte	2
 2887 08a2 B3       		.byte	-77
 2888 08a3 02       		.byte	2
 2889 08a4 B5       		.byte	-75
 2890 08a5 01       		.byte	1
 2891 08a6 B6       		.byte	-74
 2892 08a7 01       		.byte	1
 2893 08a8 B8       		.byte	-72
 2894 08a9 80       		.byte	-128
 2895 08aa B9       		.byte	-71
 2896 08ab 08       		.byte	8
 2897 08ac BF       		.byte	-65
 2898 08ad 04       		.byte	4
 2899 08ae C0       		.byte	-64
 2900 08af 32       		.byte	50
 2901 08b0 C5       		.byte	-59
 2902 08b1 50       		.byte	80
ARM GAS  C:\Users\xavieran\AppData\Local\Temp\ccykvWSD.s 			page 99


 2903 08b2 C7       		.byte	-57
 2904 08b3 02       		.byte	2
 2905 08b4 C8       		.byte	-56
 2906 08b5 12       		.byte	18
 2907 08b6 C9       		.byte	-55
 2908 08b7 FF       		.byte	-1
 2909 08b8 CA       		.byte	-54
 2910 08b9 FF       		.byte	-1
 2911 08ba CB       		.byte	-53
 2912 08bb FF       		.byte	-1
 2913 08bc CC       		.byte	-52
 2914 08bd 42       		.byte	66
 2915 08be CD       		.byte	-51
 2916 08bf A0       		.byte	-96
 2917 08c0 CE       		.byte	-50
 2918 08c1 70       		.byte	112
 2919 08c2 D0       		.byte	-48
 2920 08c3 08       		.byte	8
 2921 08c4 D1       		.byte	-47
 2922 08c5 10       		.byte	16
 2923 08c6 D2       		.byte	-46
 2924 08c7 80       		.byte	-128
 2925 08c8 D8       		.byte	-40
 2926 08c9 04       		.byte	4
 2927 08ca D9       		.byte	-39
 2928 08cb 04       		.byte	4
 2929 08cc DA       		.byte	-38
 2930 08cd 04       		.byte	4
 2931 08ce DB       		.byte	-37
 2932 08cf 04       		.byte	4
 2933 08d0 DC       		.byte	-36
 2934 08d1 42       		.byte	66
 2935 08d2 DD       		.byte	-35
 2936 08d3 42       		.byte	66
 2937 08d4 DF       		.byte	-33
 2938 08d5 01       		.byte	1
 2939 08d6 E1       		.byte	-31
 2940 08d7 48       		.byte	72
 2941 08d8 E2       		.byte	-30
 2942 08d9 40       		.byte	64
 2943 08da E3       		.byte	-29
 2944 08db 48       		.byte	72
 2945 08dc E4       		.byte	-28
 2946 08dd 80       		.byte	-128
 2947 08de E5       		.byte	-27
 2948 08df 48       		.byte	72
 2949 08e0 E6       		.byte	-26
 2950 08e1 80       		.byte	-128
 2951 08e2 E7       		.byte	-25
 2952 08e3 48       		.byte	72
 2953 08e4 01       		.byte	1
 2954 08e5 08       		.byte	8
 2955 08e6 05       		.byte	5
 2956 08e7 02       		.byte	2
 2957 08e8 06       		.byte	6
 2958 08e9 04       		.byte	4
 2959 08ea 07       		.byte	7
ARM GAS  C:\Users\xavieran\AppData\Local\Temp\ccykvWSD.s 			page 100


 2960 08eb 12       		.byte	18
 2961 08ec 08       		.byte	8
 2962 08ed 02       		.byte	2
 2963 08ee 0B       		.byte	11
 2964 08ef 80       		.byte	-128
 2965 08f0 0E       		.byte	14
 2966 08f1 25       		.byte	37
 2967 08f2 0F       		.byte	15
 2968 08f3 80       		.byte	-128
 2969 08f4 12       		.byte	18
 2970 08f5 20       		.byte	32
 2971 08f6 14       		.byte	20
 2972 08f7 12       		.byte	18
 2973 08f8 17       		.byte	23
 2974 08f9 01       		.byte	1
 2975 08fa 19       		.byte	25
 2976 08fb 80       		.byte	-128
 2977 08fc 1C       		.byte	28
 2978 08fd 02       		.byte	2
 2979 08fe 1E       		.byte	30
 2980 08ff 21       		.byte	33
 2981 0900 1F       		.byte	31
 2982 0901 04       		.byte	4
 2983 0902 21       		.byte	33
 2984 0903 04       		.byte	4
 2985 0904 23       		.byte	35
 2986 0905 08       		.byte	8
 2987 0906 27       		.byte	39
 2988 0907 01       		.byte	1
 2989 0908 2B       		.byte	43
 2990 0909 01       		.byte	1
 2991 090a 2C       		.byte	44
 2992 090b 32       		.byte	50
 2993 090c 2D       		.byte	45
 2994 090d 08       		.byte	8
 2995 090e 2F       		.byte	47
 2996 090f 48       		.byte	72
 2997 0910 30       		.byte	48
 2998 0911 08       		.byte	8
 2999 0912 35       		.byte	53
 3000 0913 40       		.byte	64
 3001 0914 36       		.byte	54
 3002 0915 20       		.byte	32
 3003 0916 37       		.byte	55
 3004 0917 16       		.byte	22
 3005 0918 3B       		.byte	59
 3006 0919 40       		.byte	64
 3007 091a 3C       		.byte	60
 3008 091b 02       		.byte	2
 3009 091c 3D       		.byte	61
 3010 091d 28       		.byte	40
 3011 091e 3F       		.byte	63
 3012 091f 80       		.byte	-128
 3013 0920 40       		.byte	64
 3014 0921 04       		.byte	4
 3015 0922 41       		.byte	65
 3016 0923 04       		.byte	4
ARM GAS  C:\Users\xavieran\AppData\Local\Temp\ccykvWSD.s 			page 101


 3017 0924 45       		.byte	69
 3018 0925 01       		.byte	1
 3019 0926 47       		.byte	71
 3020 0927 40       		.byte	64
 3021 0928 48       		.byte	72
 3022 0929 40       		.byte	64
 3023 092a 4D       		.byte	77
 3024 092b 05       		.byte	5
 3025 092c 50       		.byte	80
 3026 092d 08       		.byte	8
 3027 092e 55       		.byte	85
 3028 092f 01       		.byte	1
 3029 0930 57       		.byte	87
 3030 0931 02       		.byte	2
 3031 0932 5D       		.byte	93
 3032 0933 05       		.byte	5
 3033 0934 5E       		.byte	94
 3034 0935 80       		.byte	-128
 3035 0936 73       		.byte	115
 3036 0937 40       		.byte	64
 3037 0938 8C       		.byte	-116
 3038 0939 04       		.byte	4
 3039 093a 8D       		.byte	-115
 3040 093b 14       		.byte	20
 3041 093c 8E       		.byte	-114
 3042 093d 06       		.byte	6
 3043 093e 8F       		.byte	-113
 3044 093f 01       		.byte	1
 3045 0940 90       		.byte	-112
 3046 0941 08       		.byte	8
 3047 0942 92       		.byte	-110
 3048 0943 04       		.byte	4
 3049 0944 93       		.byte	-109
 3050 0945 80       		.byte	-128
 3051 0946 94       		.byte	-108
 3052 0947 10       		.byte	16
 3053 0948 96       		.byte	-106
 3054 0949 02       		.byte	2
 3055 094a 97       		.byte	-105
 3056 094b 09       		.byte	9
 3057 094c 99       		.byte	-103
 3058 094d 0A       		.byte	10
 3059 094e 9A       		.byte	-102
 3060 094f 40       		.byte	64
 3061 0950 9C       		.byte	-100
 3062 0951 84       		.byte	-124
 3063 0952 9D       		.byte	-99
 3064 0953 80       		.byte	-128
 3065 0954 9F       		.byte	-97
 3066 0955 02       		.byte	2
 3067 0956 A0       		.byte	-96
 3068 0957 02       		.byte	2
 3069 0958 A3       		.byte	-93
 3070 0959 40       		.byte	64
 3071 095a A4       		.byte	-92
 3072 095b 01       		.byte	1
 3073 095c A5       		.byte	-91
ARM GAS  C:\Users\xavieran\AppData\Local\Temp\ccykvWSD.s 			page 102


 3074 095d 20       		.byte	32
 3075 095e A6       		.byte	-90
 3076 095f 20       		.byte	32
 3077 0960 AB       		.byte	-85
 3078 0961 44       		.byte	68
 3079 0962 AC       		.byte	-84
 3080 0963 10       		.byte	16
 3081 0964 AD       		.byte	-83
 3082 0965 02       		.byte	2
 3083 0966 AE       		.byte	-82
 3084 0967 04       		.byte	4
 3085 0968 B0       		.byte	-80
 3086 0969 41       		.byte	65
 3087 096a B1       		.byte	-79
 3088 096b 40       		.byte	64
 3089 096c B2       		.byte	-78
 3090 096d 04       		.byte	4
 3091 096e B7       		.byte	-73
 3092 096f 40       		.byte	64
 3093 0970 C0       		.byte	-64
 3094 0971 F4       		.byte	-12
 3095 0972 C2       		.byte	-62
 3096 0973 F0       		.byte	-16
 3097 0974 C4       		.byte	-60
 3098 0975 B4       		.byte	-76
 3099 0976 CA       		.byte	-54
 3100 0977 F8       		.byte	-8
 3101 0978 CC       		.byte	-52
 3102 0979 F2       		.byte	-14
 3103 097a CE       		.byte	-50
 3104 097b F8       		.byte	-8
 3105 097c D0       		.byte	-48
 3106 097d 96       		.byte	-106
 3107 097e D6       		.byte	-42
 3108 097f D0       		.byte	-48
 3109 0980 E2       		.byte	-30
 3110 0981 42       		.byte	66
 3111 0982 E4       		.byte	-28
 3112 0983 50       		.byte	80
 3113 0984 EA       		.byte	-22
 3114 0985 80       		.byte	-128
 3115 0986 EC       		.byte	-20
 3116 0987 40       		.byte	64
 3117 0988 EE       		.byte	-18
 3118 0989 A0       		.byte	-96
 3119 098a 00       		.byte	0
 3120 098b 06       		.byte	6
 3121 098c 04       		.byte	4
 3122 098d 01       		.byte	1
 3123 098e 08       		.byte	8
 3124 098f 02       		.byte	2
 3125 0990 0C       		.byte	12
 3126 0991 01       		.byte	1
 3127 0992 0E       		.byte	14
 3128 0993 1E       		.byte	30
 3129 0994 10       		.byte	16
 3130 0995 1C       		.byte	28
ARM GAS  C:\Users\xavieran\AppData\Local\Temp\ccykvWSD.s 			page 103


 3131 0996 12       		.byte	18
 3132 0997 02       		.byte	2
 3133 0998 14       		.byte	20
 3134 0999 1F       		.byte	31
 3135 099a 18       		.byte	24
 3136 099b 02       		.byte	2
 3137 099c 1A       		.byte	26
 3138 099d 18       		.byte	24
 3139 099e 1C       		.byte	28
 3140 099f 18       		.byte	24
 3141 09a0 1E       		.byte	30
 3142 09a1 06       		.byte	6
 3143 09a2 20       		.byte	32
 3144 09a3 12       		.byte	18
 3145 09a4 22       		.byte	34
 3146 09a5 08       		.byte	8
 3147 09a6 24       		.byte	36
 3148 09a7 04       		.byte	4
 3149 09a8 2C       		.byte	44
 3150 09a9 0A       		.byte	10
 3151 09aa 2E       		.byte	46
 3152 09ab 10       		.byte	16
 3153 09ac 34       		.byte	52
 3154 09ad 1F       		.byte	31
 3155 09ae 38       		.byte	56
 3156 09af 20       		.byte	32
 3157 09b0 42       		.byte	66
 3158 09b1 04       		.byte	4
 3159 09b2 47       		.byte	71
 3160 09b3 0E       		.byte	14
 3161 09b4 48       		.byte	72
 3162 09b5 10       		.byte	16
 3163 09b6 49       		.byte	73
 3164 09b7 FF       		.byte	-1
 3165 09b8 4A       		.byte	74
 3166 09b9 FF       		.byte	-1
 3167 09ba 4B       		.byte	75
 3168 09bb FF       		.byte	-1
 3169 09bc 4F       		.byte	79
 3170 09bd 83       		.byte	-125
 3171 09be 58       		.byte	88
 3172 09bf 04       		.byte	4
 3173 09c0 5A       		.byte	90
 3174 09c1 04       		.byte	4
 3175 09c2 5B       		.byte	91
 3176 09c3 04       		.byte	4
 3177 09c4 5C       		.byte	92
 3178 09c5 02       		.byte	2
 3179 09c6 5D       		.byte	93
 3180 09c7 08       		.byte	8
 3181 09c8 5F       		.byte	95
 3182 09c9 11       		.byte	17
 3183 09ca 81       		.byte	-127
 3184 09cb 3A       		.byte	58
 3185 09cc 82       		.byte	-126
 3186 09cd 02       		.byte	2
 3187 09ce 83       		.byte	-125
ARM GAS  C:\Users\xavieran\AppData\Local\Temp\ccykvWSD.s 			page 104


 3188 09cf 04       		.byte	4
 3189 09d0 84       		.byte	-124
 3190 09d1 01       		.byte	1
 3191 09d2 85       		.byte	-123
 3192 09d3 03       		.byte	3
 3193 09d4 88       		.byte	-120
 3194 09d5 01       		.byte	1
 3195 09d6 89       		.byte	-119
 3196 09d7 01       		.byte	1
 3197 09d8 8D       		.byte	-115
 3198 09d9 08       		.byte	8
 3199 09da 8F       		.byte	-113
 3200 09db 07       		.byte	7
 3201 09dc 90       		.byte	-112
 3202 09dd 01       		.byte	1
 3203 09de 91       		.byte	-111
 3204 09df 10       		.byte	16
 3205 09e0 93       		.byte	-109
 3206 09e1 07       		.byte	7
 3207 09e2 95       		.byte	-107
 3208 09e3 01       		.byte	1
 3209 09e4 99       		.byte	-103
 3210 09e5 40       		.byte	64
 3211 09e6 9B       		.byte	-101
 3212 09e7 07       		.byte	7
 3213 09e8 9D       		.byte	-99
 3214 09e9 03       		.byte	3
 3215 09ea 9E       		.byte	-98
 3216 09eb 01       		.byte	1
 3217 09ec A0       		.byte	-96
 3218 09ed 01       		.byte	1
 3219 09ee A1       		.byte	-95
 3220 09ef 05       		.byte	5
 3221 09f0 A3       		.byte	-93
 3222 09f1 78       		.byte	120
 3223 09f2 A5       		.byte	-91
 3224 09f3 7F       		.byte	127
 3225 09f4 A9       		.byte	-87
 3226 09f5 22       		.byte	34
 3227 09f6 AB       		.byte	-85
 3228 09f7 05       		.byte	5
 3229 09f8 AC       		.byte	-84
 3230 09f9 01       		.byte	1
 3231 09fa AD       		.byte	-83
 3232 09fb 01       		.byte	1
 3233 09fc B6       		.byte	-74
 3234 09fd 03       		.byte	3
 3235 09fe B7       		.byte	-73
 3236 09ff 7F       		.byte	127
 3237 0a00 BF       		.byte	-65
 3238 0a01 40       		.byte	64
 3239 0a02 C0       		.byte	-64
 3240 0a03 65       		.byte	101
 3241 0a04 C4       		.byte	-60
 3242 0a05 02       		.byte	2
 3243 0a06 C5       		.byte	-59
 3244 0a07 0B       		.byte	11
ARM GAS  C:\Users\xavieran\AppData\Local\Temp\ccykvWSD.s 			page 105


 3245 0a08 C6       		.byte	-58
 3246 0a09 0D       		.byte	13
 3247 0a0a C8       		.byte	-56
 3248 0a0b 05       		.byte	5
 3249 0a0c C9       		.byte	-55
 3250 0a0d FF       		.byte	-1
 3251 0a0e CA       		.byte	-54
 3252 0a0f 7F       		.byte	127
 3253 0a10 CB       		.byte	-53
 3254 0a11 FF       		.byte	-1
 3255 0a12 CC       		.byte	-52
 3256 0a13 42       		.byte	66
 3257 0a14 CD       		.byte	-51
 3258 0a15 A0       		.byte	-96
 3259 0a16 CE       		.byte	-50
 3260 0a17 70       		.byte	112
 3261 0a18 D0       		.byte	-48
 3262 0a19 0C       		.byte	12
 3263 0a1a D8       		.byte	-40
 3264 0a1b 04       		.byte	4
 3265 0a1c D9       		.byte	-39
 3266 0a1d 04       		.byte	4
 3267 0a1e DA       		.byte	-38
 3268 0a1f 04       		.byte	4
 3269 0a20 DC       		.byte	-36
 3270 0a21 02       		.byte	2
 3271 0a22 DD       		.byte	-35
 3272 0a23 02       		.byte	2
 3273 0a24 DF       		.byte	-33
 3274 0a25 01       		.byte	1
 3275 0a26 E1       		.byte	-31
 3276 0a27 09       		.byte	9
 3277 0a28 E2       		.byte	-30
 3278 0a29 40       		.byte	64
 3279 0a2a E3       		.byte	-29
 3280 0a2b 09       		.byte	9
 3281 0a2c E4       		.byte	-28
 3282 0a2d 30       		.byte	48
 3283 0a2e E5       		.byte	-27
 3284 0a2f 09       		.byte	9
 3285 0a30 00       		.byte	0
 3286 0a31 16       		.byte	22
 3287 0a32 01       		.byte	1
 3288 0a33 80       		.byte	-128
 3289 0a34 04       		.byte	4
 3290 0a35 12       		.byte	18
 3291 0a36 06       		.byte	6
 3292 0a37 20       		.byte	32
 3293 0a38 0A       		.byte	10
 3294 0a39 20       		.byte	32
 3295 0a3a 0B       		.byte	11
 3296 0a3b 89       		.byte	-119
 3297 0a3c 0E       		.byte	14
 3298 0a3d 02       		.byte	2
 3299 0a3e 0F       		.byte	15
 3300 0a3f C0       		.byte	-64
 3301 0a40 11       		.byte	17
ARM GAS  C:\Users\xavieran\AppData\Local\Temp\ccykvWSD.s 			page 106


 3302 0a41 04       		.byte	4
 3303 0a42 13       		.byte	19
 3304 0a43 42       		.byte	66
 3305 0a44 16       		.byte	22
 3306 0a45 02       		.byte	2
 3307 0a46 17       		.byte	23
 3308 0a47 02       		.byte	2
 3309 0a48 18       		.byte	24
 3310 0a49 0C       		.byte	12
 3311 0a4a 1E       		.byte	30
 3312 0a4b 02       		.byte	2
 3313 0a4c 1F       		.byte	31
 3314 0a4d 40       		.byte	64
 3315 0a4e 24       		.byte	36
 3316 0a4f 02       		.byte	2
 3317 0a50 2C       		.byte	44
 3318 0a51 02       		.byte	2
 3319 0a52 2D       		.byte	45
 3320 0a53 08       		.byte	8
 3321 0a54 2E       		.byte	46
 3322 0a55 20       		.byte	32
 3323 0a56 2F       		.byte	47
 3324 0a57 44       		.byte	68
 3325 0a58 34       		.byte	52
 3326 0a59 04       		.byte	4
 3327 0a5a 35       		.byte	53
 3328 0a5b 40       		.byte	64
 3329 0a5c 36       		.byte	54
 3330 0a5d 20       		.byte	32
 3331 0a5e 37       		.byte	55
 3332 0a5f 02       		.byte	2
 3333 0a60 3E       		.byte	62
 3334 0a61 14       		.byte	20
 3335 0a62 3F       		.byte	63
 3336 0a63 81       		.byte	-127
 3337 0a64 40       		.byte	64
 3338 0a65 80       		.byte	-128
 3339 0a66 45       		.byte	69
 3340 0a67 20       		.byte	32
 3341 0a68 4D       		.byte	77
 3342 0a69 04       		.byte	4
 3343 0a6a 4E       		.byte	78
 3344 0a6b 05       		.byte	5
 3345 0a6c 52       		.byte	82
 3346 0a6d 04       		.byte	4
 3347 0a6e 54       		.byte	84
 3348 0a6f 40       		.byte	64
 3349 0a70 56       		.byte	86
 3350 0a71 40       		.byte	64
 3351 0a72 58       		.byte	88
 3352 0a73 10       		.byte	16
 3353 0a74 5B       		.byte	91
 3354 0a75 45       		.byte	69
 3355 0a76 60       		.byte	96
 3356 0a77 08       		.byte	8
 3357 0a78 62       		.byte	98
 3358 0a79 0A       		.byte	10
ARM GAS  C:\Users\xavieran\AppData\Local\Temp\ccykvWSD.s 			page 107


 3359 0a7a 63       		.byte	99
 3360 0a7b 02       		.byte	2
 3361 0a7c 7B       		.byte	123
 3362 0a7d 08       		.byte	8
 3363 0a7e 80       		.byte	-128
 3364 0a7f 02       		.byte	2
 3365 0a80 81       		.byte	-127
 3366 0a81 08       		.byte	8
 3367 0a82 82       		.byte	-126
 3368 0a83 16       		.byte	22
 3369 0a84 87       		.byte	-121
 3370 0a85 45       		.byte	69
 3371 0a86 8A       		.byte	-118
 3372 0a87 02       		.byte	2
 3373 0a88 8B       		.byte	-117
 3374 0a89 01       		.byte	1
 3375 0a8a 8C       		.byte	-116
 3376 0a8b 08       		.byte	8
 3377 0a8c 8E       		.byte	-114
 3378 0a8d 18       		.byte	24
 3379 0a8e 8F       		.byte	-113
 3380 0a8f 08       		.byte	8
 3381 0a90 C0       		.byte	-64
 3382 0a91 7F       		.byte	127
 3383 0a92 C2       		.byte	-62
 3384 0a93 9F       		.byte	-97
 3385 0a94 C4       		.byte	-60
 3386 0a95 9D       		.byte	-99
 3387 0a96 CA       		.byte	-54
 3388 0a97 F0       		.byte	-16
 3389 0a98 CC       		.byte	-52
 3390 0a99 F0       		.byte	-16
 3391 0a9a CE       		.byte	-50
 3392 0a9b F0       		.byte	-16
 3393 0a9c D0       		.byte	-48
 3394 0a9d 21       		.byte	33
 3395 0a9e D2       		.byte	-46
 3396 0a9f 30       		.byte	48
 3397 0aa0 D6       		.byte	-42
 3398 0aa1 0F       		.byte	15
 3399 0aa2 D8       		.byte	-40
 3400 0aa3 0F       		.byte	15
 3401 0aa4 DE       		.byte	-34
 3402 0aa5 04       		.byte	4
 3403 0aa6 E4       		.byte	-28
 3404 0aa7 10       		.byte	16
 3405 0aa8 00       		.byte	0
 3406 0aa9 02       		.byte	2
 3407 0aaa 02       		.byte	2
 3408 0aab 04       		.byte	4
 3409 0aac 03       		.byte	3
 3410 0aad 01       		.byte	1
 3411 0aae 10       		.byte	16
 3412 0aaf 02       		.byte	2
 3413 0ab0 16       		.byte	22
 3414 0ab1 01       		.byte	1
 3415 0ab2 1E       		.byte	30
ARM GAS  C:\Users\xavieran\AppData\Local\Temp\ccykvWSD.s 			page 108


 3416 0ab3 06       		.byte	6
 3417 0ab4 28       		.byte	40
 3418 0ab5 04       		.byte	4
 3419 0ab6 30       		.byte	48
 3420 0ab7 06       		.byte	6
 3421 0ab8 32       		.byte	50
 3422 0ab9 01       		.byte	1
 3423 0aba 35       		.byte	53
 3424 0abb 01       		.byte	1
 3425 0abc 3E       		.byte	62
 3426 0abd 01       		.byte	1
 3427 0abe 40       		.byte	64
 3428 0abf 31       		.byte	49
 3429 0ac0 41       		.byte	65
 3430 0ac1 02       		.byte	2
 3431 0ac2 49       		.byte	73
 3432 0ac3 FF       		.byte	-1
 3433 0ac4 4A       		.byte	74
 3434 0ac5 FF       		.byte	-1
 3435 0ac6 4B       		.byte	75
 3436 0ac7 FF       		.byte	-1
 3437 0ac8 4F       		.byte	79
 3438 0ac9 01       		.byte	1
 3439 0aca 50       		.byte	80
 3440 0acb 18       		.byte	24
 3441 0acc 52       		.byte	82
 3442 0acd 80       		.byte	-128
 3443 0ace 54       		.byte	84
 3444 0acf 07       		.byte	7
 3445 0ad0 58       		.byte	88
 3446 0ad1 04       		.byte	4
 3447 0ad2 59       		.byte	89
 3448 0ad3 04       		.byte	4
 3449 0ad4 5A       		.byte	90
 3450 0ad5 0A       		.byte	10
 3451 0ad6 5B       		.byte	91
 3452 0ad7 08       		.byte	8
 3453 0ad8 5C       		.byte	92
 3454 0ad9 88       		.byte	-120
 3455 0ada 5D       		.byte	93
 3456 0adb 99       		.byte	-103
 3457 0adc 5F       		.byte	95
 3458 0add 35       		.byte	53
 3459 0ade 60       		.byte	96
 3460 0adf 40       		.byte	64
 3461 0ae0 62       		.byte	98
 3462 0ae1 40       		.byte	64
 3463 0ae2 64       		.byte	100
 3464 0ae3 40       		.byte	64
 3465 0ae4 65       		.byte	101
 3466 0ae5 40       		.byte	64
 3467 0ae6 66       		.byte	102
 3468 0ae7 80       		.byte	-128
 3469 0ae8 68       		.byte	104
 3470 0ae9 80       		.byte	-128
 3471 0aea 6A       		.byte	106
 3472 0aeb 80       		.byte	-128
ARM GAS  C:\Users\xavieran\AppData\Local\Temp\ccykvWSD.s 			page 109


 3473 0aec 6C       		.byte	108
 3474 0aed 80       		.byte	-128
 3475 0aee 6E       		.byte	110
 3476 0aef 80       		.byte	-128
 3477 0af0 82       		.byte	-126
 3478 0af1 01       		.byte	1
 3479 0af2 9B       		.byte	-101
 3480 0af3 01       		.byte	1
 3481 0af4 9F       		.byte	-97
 3482 0af5 01       		.byte	1
 3483 0af6 A6       		.byte	-90
 3484 0af7 01       		.byte	1
 3485 0af8 B2       		.byte	-78
 3486 0af9 01       		.byte	1
 3487 0afa B3       		.byte	-77
 3488 0afb 01       		.byte	1
 3489 0afc C0       		.byte	-64
 3490 0afd 64       		.byte	100
 3491 0afe C1       		.byte	-63
 3492 0aff 02       		.byte	2
 3493 0b00 C5       		.byte	-59
 3494 0b01 EC       		.byte	-20
 3495 0b02 C6       		.byte	-58
 3496 0b03 02       		.byte	2
 3497 0b04 C8       		.byte	-56
 3498 0b05 07       		.byte	7
 3499 0b06 C9       		.byte	-55
 3500 0b07 FF       		.byte	-1
 3501 0b08 CA       		.byte	-54
 3502 0b09 FF       		.byte	-1
 3503 0b0a CB       		.byte	-53
 3504 0b0b FF       		.byte	-1
 3505 0b0c CD       		.byte	-51
 3506 0b0d 83       		.byte	-125
 3507 0b0e CE       		.byte	-50
 3508 0b0f 03       		.byte	3
 3509 0b10 CF       		.byte	-49
 3510 0b11 01       		.byte	1
 3511 0b12 D0       		.byte	-48
 3512 0b13 18       		.byte	24
 3513 0b14 D4       		.byte	-44
 3514 0b15 01       		.byte	1
 3515 0b16 D8       		.byte	-40
 3516 0b17 0B       		.byte	11
 3517 0b18 D9       		.byte	-39
 3518 0b19 0B       		.byte	11
 3519 0b1a DA       		.byte	-38
 3520 0b1b 0A       		.byte	10
 3521 0b1c DB       		.byte	-37
 3522 0b1d 0A       		.byte	10
 3523 0b1e DC       		.byte	-36
 3524 0b1f 99       		.byte	-103
 3525 0b20 DD       		.byte	-35
 3526 0b21 99       		.byte	-103
 3527 0b22 DF       		.byte	-33
 3528 0b23 05       		.byte	5
 3529 0b24 E0       		.byte	-32
ARM GAS  C:\Users\xavieran\AppData\Local\Temp\ccykvWSD.s 			page 110


 3530 0b25 40       		.byte	64
 3531 0b26 E2       		.byte	-30
 3532 0b27 40       		.byte	64
 3533 0b28 E4       		.byte	-28
 3534 0b29 40       		.byte	64
 3535 0b2a E5       		.byte	-27
 3536 0b2b 40       		.byte	64
 3537 0b2c E6       		.byte	-26
 3538 0b2d 80       		.byte	-128
 3539 0b2e E8       		.byte	-24
 3540 0b2f 80       		.byte	-128
 3541 0b30 EA       		.byte	-22
 3542 0b31 80       		.byte	-128
 3543 0b32 EC       		.byte	-20
 3544 0b33 80       		.byte	-128
 3545 0b34 EE       		.byte	-18
 3546 0b35 80       		.byte	-128
 3547 0b36 00       		.byte	0
 3548 0b37 02       		.byte	2
 3549 0b38 07       		.byte	7
 3550 0b39 40       		.byte	64
 3551 0b3a 08       		.byte	8
 3552 0b3b 0A       		.byte	10
 3553 0b3c 09       		.byte	9
 3554 0b3d 80       		.byte	-128
 3555 0b3e 12       		.byte	18
 3556 0b3f 04       		.byte	4
 3557 0b40 16       		.byte	22
 3558 0b41 10       		.byte	16
 3559 0b42 18       		.byte	24
 3560 0b43 20       		.byte	32
 3561 0b44 1A       		.byte	26
 3562 0b45 40       		.byte	64
 3563 0b46 1F       		.byte	31
 3564 0b47 04       		.byte	4
 3565 0b48 20       		.byte	32
 3566 0b49 04       		.byte	4
 3567 0b4a 26       		.byte	38
 3568 0b4b 08       		.byte	8
 3569 0b4c 27       		.byte	39
 3570 0b4d 10       		.byte	16
 3571 0b4e 36       		.byte	54
 3572 0b4f 20       		.byte	32
 3573 0b50 37       		.byte	55
 3574 0b51 40       		.byte	64
 3575 0b52 39       		.byte	57
 3576 0b53 01       		.byte	1
 3577 0b54 40       		.byte	64
 3578 0b55 10       		.byte	16
 3579 0b56 41       		.byte	65
 3580 0b57 80       		.byte	-128
 3581 0b58 43       		.byte	67
 3582 0b59 10       		.byte	16
 3583 0b5a 46       		.byte	70
 3584 0b5b 80       		.byte	-128
 3585 0b5c 47       		.byte	71
 3586 0b5d 10       		.byte	16
ARM GAS  C:\Users\xavieran\AppData\Local\Temp\ccykvWSD.s 			page 111


 3587 0b5e 4D       		.byte	77
 3588 0b5f 20       		.byte	32
 3589 0b60 4F       		.byte	79
 3590 0b61 05       		.byte	5
 3591 0b62 55       		.byte	85
 3592 0b63 80       		.byte	-128
 3593 0b64 56       		.byte	86
 3594 0b65 80       		.byte	-128
 3595 0b66 59       		.byte	89
 3596 0b67 12       		.byte	18
 3597 0b68 5A       		.byte	90
 3598 0b69 88       		.byte	-120
 3599 0b6a 5E       		.byte	94
 3600 0b6b 40       		.byte	64
 3601 0b6c 5F       		.byte	95
 3602 0b6d 05       		.byte	5
 3603 0b6e 62       		.byte	98
 3604 0b6f 80       		.byte	-128
 3605 0b70 63       		.byte	99
 3606 0b71 02       		.byte	2
 3607 0b72 73       		.byte	115
 3608 0b73 40       		.byte	64
 3609 0b74 79       		.byte	121
 3610 0b75 08       		.byte	8
 3611 0b76 7B       		.byte	123
 3612 0b77 A5       		.byte	-91
 3613 0b78 7E       		.byte	126
 3614 0b79 88       		.byte	-120
 3615 0b7a 7F       		.byte	127
 3616 0b7b 20       		.byte	32
 3617 0b7c 80       		.byte	-128
 3618 0b7d 10       		.byte	16
 3619 0b7e 83       		.byte	-125
 3620 0b7f 80       		.byte	-128
 3621 0b80 8C       		.byte	-116
 3622 0b81 0C       		.byte	12
 3623 0b82 90       		.byte	-112
 3624 0b83 10       		.byte	16
 3625 0b84 91       		.byte	-111
 3626 0b85 09       		.byte	9
 3627 0b86 92       		.byte	-110
 3628 0b87 88       		.byte	-120
 3629 0b88 97       		.byte	-105
 3630 0b89 48       		.byte	72
 3631 0b8a 98       		.byte	-104
 3632 0b8b 02       		.byte	2
 3633 0b8c 99       		.byte	-103
 3634 0b8d 32       		.byte	50
 3635 0b8e 9A       		.byte	-102
 3636 0b8f 14       		.byte	20
 3637 0b90 9B       		.byte	-101
 3638 0b91 40       		.byte	64
 3639 0b92 A0       		.byte	-96
 3640 0b93 01       		.byte	1
 3641 0b94 A2       		.byte	-94
 3642 0b95 20       		.byte	32
 3643 0b96 A3       		.byte	-93
ARM GAS  C:\Users\xavieran\AppData\Local\Temp\ccykvWSD.s 			page 112


 3644 0b97 05       		.byte	5
 3645 0b98 AC       		.byte	-84
 3646 0b99 04       		.byte	4
 3647 0b9a AD       		.byte	-83
 3648 0b9b C4       		.byte	-60
 3649 0b9c AE       		.byte	-82
 3650 0b9d C0       		.byte	-64
 3651 0b9e B7       		.byte	-73
 3652 0b9f 02       		.byte	2
 3653 0ba0 C0       		.byte	-64
 3654 0ba1 18       		.byte	24
 3655 0ba2 C2       		.byte	-62
 3656 0ba3 0D       		.byte	13
 3657 0ba4 C4       		.byte	-60
 3658 0ba5 22       		.byte	34
 3659 0ba6 CC       		.byte	-52
 3660 0ba7 30       		.byte	48
 3661 0ba8 CE       		.byte	-50
 3662 0ba9 01       		.byte	1
 3663 0baa D0       		.byte	-48
 3664 0bab AE       		.byte	-82
 3665 0bac D2       		.byte	-46
 3666 0bad 20       		.byte	32
 3667 0bae D6       		.byte	-42
 3668 0baf DF       		.byte	-33
 3669 0bb0 DE       		.byte	-34
 3670 0bb1 EF       		.byte	-17
 3671 0bb2 E2       		.byte	-30
 3672 0bb3 80       		.byte	-128
 3673 0bb4 E6       		.byte	-26
 3674 0bb5 C0       		.byte	-64
 3675 0bb6 EA       		.byte	-22
 3676 0bb7 03       		.byte	3
 3677 0bb8 EE       		.byte	-18
 3678 0bb9 02       		.byte	2
 3679 0bba 02       		.byte	2
 3680 0bbb 02       		.byte	2
 3681 0bbc 06       		.byte	6
 3682 0bbd 04       		.byte	4
 3683 0bbe 0E       		.byte	14
 3684 0bbf 03       		.byte	3
 3685 0bc0 0F       		.byte	15
 3686 0bc1 01       		.byte	1
 3687 0bc2 12       		.byte	18
 3688 0bc3 01       		.byte	1
 3689 0bc4 22       		.byte	34
 3690 0bc5 01       		.byte	1
 3691 0bc6 2E       		.byte	46
 3692 0bc7 01       		.byte	1
 3693 0bc8 30       		.byte	48
 3694 0bc9 07       		.byte	7
 3695 0bca 31       		.byte	49
 3696 0bcb 01       		.byte	1
 3697 0bcc 3A       		.byte	58
 3698 0bcd 02       		.byte	2
 3699 0bce 3D       		.byte	61
 3700 0bcf 02       		.byte	2
ARM GAS  C:\Users\xavieran\AppData\Local\Temp\ccykvWSD.s 			page 113


 3701 0bd0 40       		.byte	64
 3702 0bd1 16       		.byte	22
 3703 0bd2 41       		.byte	65
 3704 0bd3 03       		.byte	3
 3705 0bd4 49       		.byte	73
 3706 0bd5 FF       		.byte	-1
 3707 0bd6 4A       		.byte	74
 3708 0bd7 FF       		.byte	-1
 3709 0bd8 4B       		.byte	75
 3710 0bd9 FF       		.byte	-1
 3711 0bda 4D       		.byte	77
 3712 0bdb A0       		.byte	-96
 3713 0bdc 4F       		.byte	79
 3714 0bdd 04       		.byte	4
 3715 0bde 50       		.byte	80
 3716 0bdf 18       		.byte	24
 3717 0be0 56       		.byte	86
 3718 0be1 08       		.byte	8
 3719 0be2 58       		.byte	88
 3720 0be3 04       		.byte	4
 3721 0be4 59       		.byte	89
 3722 0be5 08       		.byte	8
 3723 0be6 5A       		.byte	90
 3724 0be7 08       		.byte	8
 3725 0be8 5B       		.byte	91
 3726 0be9 04       		.byte	4
 3727 0bea 5C       		.byte	92
 3728 0beb 92       		.byte	-110
 3729 0bec 5D       		.byte	93
 3730 0bed 99       		.byte	-103
 3731 0bee 5F       		.byte	95
 3732 0bef 01       		.byte	1
 3733 0bf0 60       		.byte	96
 3734 0bf1 40       		.byte	64
 3735 0bf2 62       		.byte	98
 3736 0bf3 C0       		.byte	-64
 3737 0bf4 64       		.byte	100
 3738 0bf5 40       		.byte	64
 3739 0bf6 65       		.byte	101
 3740 0bf7 40       		.byte	64
 3741 0bf8 66       		.byte	102
 3742 0bf9 C0       		.byte	-64
 3743 0bfa 68       		.byte	104
 3744 0bfb C0       		.byte	-64
 3745 0bfc 6A       		.byte	106
 3746 0bfd C0       		.byte	-64
 3747 0bfe 6C       		.byte	108
 3748 0bff C0       		.byte	-64
 3749 0c00 6E       		.byte	110
 3750 0c01 C0       		.byte	-64
 3751 0c02 86       		.byte	-122
 3752 0c03 01       		.byte	1
 3753 0c04 97       		.byte	-105
 3754 0c05 04       		.byte	4
 3755 0c06 9B       		.byte	-101
 3756 0c07 02       		.byte	2
 3757 0c08 9C       		.byte	-100
ARM GAS  C:\Users\xavieran\AppData\Local\Temp\ccykvWSD.s 			page 114


 3758 0c09 02       		.byte	2
 3759 0c0a 9F       		.byte	-97
 3760 0c0b 04       		.byte	4
 3761 0c0c A5       		.byte	-91
 3762 0c0d 02       		.byte	2
 3763 0c0e A6       		.byte	-90
 3764 0c0f 02       		.byte	2
 3765 0c10 AB       		.byte	-85
 3766 0c11 01       		.byte	1
 3767 0c12 B1       		.byte	-79
 3768 0c13 01       		.byte	1
 3769 0c14 B2       		.byte	-78
 3770 0c15 01       		.byte	1
 3771 0c16 B3       		.byte	-77
 3772 0c17 04       		.byte	4
 3773 0c18 B4       		.byte	-76
 3774 0c19 02       		.byte	2
 3775 0c1a B7       		.byte	-73
 3776 0c1b 02       		.byte	2
 3777 0c1c BC       		.byte	-68
 3778 0c1d 20       		.byte	32
 3779 0c1e BD       		.byte	-67
 3780 0c1f 80       		.byte	-128
 3781 0c20 BF       		.byte	-65
 3782 0c21 04       		.byte	4
 3783 0c22 C0       		.byte	-64
 3784 0c23 13       		.byte	19
 3785 0c24 C1       		.byte	-63
 3786 0c25 06       		.byte	6
 3787 0c26 C5       		.byte	-59
 3788 0c27 D1       		.byte	-47
 3789 0c28 C6       		.byte	-58
 3790 0c29 50       		.byte	80
 3791 0c2a C7       		.byte	-57
 3792 0c2b 02       		.byte	2
 3793 0c2c C8       		.byte	-56
 3794 0c2d 1B       		.byte	27
 3795 0c2e C9       		.byte	-55
 3796 0c2f FF       		.byte	-1
 3797 0c30 CA       		.byte	-54
 3798 0c31 FF       		.byte	-1
 3799 0c32 CB       		.byte	-53
 3800 0c33 FF       		.byte	-1
 3801 0c34 CD       		.byte	-51
 3802 0c35 AF       		.byte	-81
 3803 0c36 CE       		.byte	-50
 3804 0c37 0F       		.byte	15
 3805 0c38 CF       		.byte	-49
 3806 0c39 04       		.byte	4
 3807 0c3a D0       		.byte	-48
 3808 0c3b 18       		.byte	24
 3809 0c3c D6       		.byte	-42
 3810 0c3d 08       		.byte	8
 3811 0c3e D8       		.byte	-40
 3812 0c3f 08       		.byte	8
 3813 0c40 D9       		.byte	-39
 3814 0c41 08       		.byte	8
ARM GAS  C:\Users\xavieran\AppData\Local\Temp\ccykvWSD.s 			page 115


 3815 0c42 DA       		.byte	-38
 3816 0c43 08       		.byte	8
 3817 0c44 DB       		.byte	-37
 3818 0c45 04       		.byte	4
 3819 0c46 DC       		.byte	-36
 3820 0c47 99       		.byte	-103
 3821 0c48 DD       		.byte	-35
 3822 0c49 99       		.byte	-103
 3823 0c4a DF       		.byte	-33
 3824 0c4b 01       		.byte	1
 3825 0c4c E0       		.byte	-32
 3826 0c4d 40       		.byte	64
 3827 0c4e E2       		.byte	-30
 3828 0c4f C0       		.byte	-64
 3829 0c50 E4       		.byte	-28
 3830 0c51 40       		.byte	64
 3831 0c52 E5       		.byte	-27
 3832 0c53 40       		.byte	64
 3833 0c54 E6       		.byte	-26
 3834 0c55 C0       		.byte	-64
 3835 0c56 E8       		.byte	-24
 3836 0c57 C0       		.byte	-64
 3837 0c58 EA       		.byte	-22
 3838 0c59 C0       		.byte	-64
 3839 0c5a EC       		.byte	-20
 3840 0c5b C0       		.byte	-64
 3841 0c5c EE       		.byte	-18
 3842 0c5d C0       		.byte	-64
 3843 0c5e 02       		.byte	2
 3844 0c5f 20       		.byte	32
 3845 0c60 04       		.byte	4
 3846 0c61 44       		.byte	68
 3847 0c62 06       		.byte	6
 3848 0c63 80       		.byte	-128
 3849 0c64 0A       		.byte	10
 3850 0c65 02       		.byte	2
 3851 0c66 0E       		.byte	14
 3852 0c67 80       		.byte	-128
 3853 0c68 12       		.byte	18
 3854 0c69 10       		.byte	16
 3855 0c6a 15       		.byte	21
 3856 0c6b 80       		.byte	-128
 3857 0c6c 16       		.byte	22
 3858 0c6d 40       		.byte	64
 3859 0c6e 19       		.byte	25
 3860 0c6f 14       		.byte	20
 3861 0c70 1C       		.byte	28
 3862 0c71 40       		.byte	64
 3863 0c72 1F       		.byte	31
 3864 0c73 02       		.byte	2
 3865 0c74 22       		.byte	34
 3866 0c75 45       		.byte	69
 3867 0c76 27       		.byte	39
 3868 0c77 40       		.byte	64
 3869 0c78 29       		.byte	41
 3870 0c79 04       		.byte	4
 3871 0c7a 2A       		.byte	42
ARM GAS  C:\Users\xavieran\AppData\Local\Temp\ccykvWSD.s 			page 116


 3872 0c7b 10       		.byte	16
 3873 0c7c 31       		.byte	49
 3874 0c7d 08       		.byte	8
 3875 0c7e 32       		.byte	50
 3876 0c7f 20       		.byte	32
 3877 0c80 33       		.byte	51
 3878 0c81 40       		.byte	64
 3879 0c82 3F       		.byte	63
 3880 0c83 40       		.byte	64
 3881 0c84 40       		.byte	64
 3882 0c85 10       		.byte	16
 3883 0c86 43       		.byte	67
 3884 0c87 40       		.byte	64
 3885 0c88 45       		.byte	69
 3886 0c89 08       		.byte	8
 3887 0c8a 47       		.byte	71
 3888 0c8b 40       		.byte	64
 3889 0c8c 48       		.byte	72
 3890 0c8d 08       		.byte	8
 3891 0c8e 49       		.byte	73
 3892 0c8f 02       		.byte	2
 3893 0c90 4A       		.byte	74
 3894 0c91 20       		.byte	32
 3895 0c92 4D       		.byte	77
 3896 0c93 20       		.byte	32
 3897 0c94 50       		.byte	80
 3898 0c95 08       		.byte	8
 3899 0c96 51       		.byte	81
 3900 0c97 08       		.byte	8
 3901 0c98 52       		.byte	82
 3902 0c99 10       		.byte	16
 3903 0c9a 59       		.byte	89
 3904 0c9b 40       		.byte	64
 3905 0c9c 5E       		.byte	94
 3906 0c9d 40       		.byte	64
 3907 0c9e 60       		.byte	96
 3908 0c9f 02       		.byte	2
 3909 0ca0 65       		.byte	101
 3910 0ca1 80       		.byte	-128
 3911 0ca2 68       		.byte	104
 3912 0ca3 01       		.byte	1
 3913 0ca4 7A       		.byte	122
 3914 0ca5 02       		.byte	2
 3915 0ca6 7B       		.byte	123
 3916 0ca7 05       		.byte	5
 3917 0ca8 7C       		.byte	124
 3918 0ca9 10       		.byte	16
 3919 0caa 7E       		.byte	126
 3920 0cab 02       		.byte	2
 3921 0cac 82       		.byte	-126
 3922 0cad 40       		.byte	64
 3923 0cae 86       		.byte	-122
 3924 0caf 40       		.byte	64
 3925 0cb0 87       		.byte	-121
 3926 0cb1 08       		.byte	8
 3927 0cb2 90       		.byte	-112
 3928 0cb3 14       		.byte	20
ARM GAS  C:\Users\xavieran\AppData\Local\Temp\ccykvWSD.s 			page 117


 3929 0cb4 91       		.byte	-111
 3930 0cb5 81       		.byte	-127
 3931 0cb6 96       		.byte	-106
 3932 0cb7 40       		.byte	64
 3933 0cb8 97       		.byte	-105
 3934 0cb9 08       		.byte	8
 3935 0cba 99       		.byte	-103
 3936 0cbb 20       		.byte	32
 3937 0cbc 9A       		.byte	-102
 3938 0cbd 04       		.byte	4
 3939 0cbe 9C       		.byte	-100
 3940 0cbf 02       		.byte	2
 3941 0cc0 A3       		.byte	-93
 3942 0cc1 0D       		.byte	13
 3943 0cc2 A4       		.byte	-92
 3944 0cc3 05       		.byte	5
 3945 0cc4 A7       		.byte	-89
 3946 0cc5 02       		.byte	2
 3947 0cc6 A8       		.byte	-88
 3948 0cc7 48       		.byte	72
 3949 0cc8 AA       		.byte	-86
 3950 0cc9 10       		.byte	16
 3951 0cca AB       		.byte	-85
 3952 0ccb 10       		.byte	16
 3953 0ccc B0       		.byte	-80
 3954 0ccd 40       		.byte	64
 3955 0cce B3       		.byte	-77
 3956 0ccf 04       		.byte	4
 3957 0cd0 C0       		.byte	-64
 3958 0cd1 B4       		.byte	-76
 3959 0cd2 C2       		.byte	-62
 3960 0cd3 11       		.byte	17
 3961 0cd4 C4       		.byte	-60
 3962 0cd5 94       		.byte	-108
 3963 0cd6 CA       		.byte	-54
 3964 0cd7 06       		.byte	6
 3965 0cd8 CC       		.byte	-52
 3966 0cd9 0E       		.byte	14
 3967 0cda CE       		.byte	-50
 3968 0cdb 10       		.byte	16
 3969 0cdc D0       		.byte	-48
 3970 0cdd 5A       		.byte	90
 3971 0cde D2       		.byte	-46
 3972 0cdf 24       		.byte	36
 3973 0ce0 D6       		.byte	-42
 3974 0ce1 18       		.byte	24
 3975 0ce2 D8       		.byte	-40
 3976 0ce3 18       		.byte	24
 3977 0ce4 DE       		.byte	-34
 3978 0ce5 3C       		.byte	60
 3979 0ce6 E0       		.byte	-32
 3980 0ce7 12       		.byte	18
 3981 0ce8 E2       		.byte	-30
 3982 0ce9 08       		.byte	8
 3983 0cea E6       		.byte	-26
 3984 0ceb 40       		.byte	64
 3985 0cec E8       		.byte	-24
ARM GAS  C:\Users\xavieran\AppData\Local\Temp\ccykvWSD.s 			page 118


 3986 0ced 10       		.byte	16
 3987 0cee EA       		.byte	-22
 3988 0cef 83       		.byte	-125
 3989 0cf0 EC       		.byte	-20
 3990 0cf1 11       		.byte	17
 3991 0cf2 EE       		.byte	-18
 3992 0cf3 22       		.byte	34
 3993 0cf4 06       		.byte	6
 3994 0cf5 01       		.byte	1
 3995 0cf6 07       		.byte	7
 3996 0cf7 03       		.byte	3
 3997 0cf8 0F       		.byte	15
 3998 0cf9 03       		.byte	3
 3999 0cfa 12       		.byte	18
 4000 0cfb 01       		.byte	1
 4001 0cfc 14       		.byte	20
 4002 0cfd 01       		.byte	1
 4003 0cfe 19       		.byte	25
 4004 0cff 01       		.byte	1
 4005 0d00 1A       		.byte	26
 4006 0d01 01       		.byte	1
 4007 0d02 1B       		.byte	27
 4008 0d03 04       		.byte	4
 4009 0d04 1D       		.byte	29
 4010 0d05 01       		.byte	1
 4011 0d06 1F       		.byte	31
 4012 0d07 06       		.byte	6
 4013 0d08 22       		.byte	34
 4014 0d09 01       		.byte	1
 4015 0d0a 27       		.byte	39
 4016 0d0b 03       		.byte	3
 4017 0d0c 29       		.byte	41
 4018 0d0d 02       		.byte	2
 4019 0d0e 2B       		.byte	43
 4020 0d0f 01       		.byte	1
 4021 0d10 2D       		.byte	45
 4022 0d11 01       		.byte	1
 4023 0d12 2F       		.byte	47
 4024 0d13 02       		.byte	2
 4025 0d14 30       		.byte	48
 4026 0d15 01       		.byte	1
 4027 0d16 31       		.byte	49
 4028 0d17 07       		.byte	7
 4029 0d18 3B       		.byte	59
 4030 0d19 02       		.byte	2
 4031 0d1a 3E       		.byte	62
 4032 0d1b 01       		.byte	1
 4033 0d1c 40       		.byte	64
 4034 0d1d 62       		.byte	98
 4035 0d1e 41       		.byte	65
 4036 0d1f 03       		.byte	3
 4037 0d20 49       		.byte	73
 4038 0d21 FF       		.byte	-1
 4039 0d22 4A       		.byte	74
 4040 0d23 FF       		.byte	-1
 4041 0d24 4B       		.byte	75
 4042 0d25 FF       		.byte	-1
ARM GAS  C:\Users\xavieran\AppData\Local\Temp\ccykvWSD.s 			page 119


 4043 0d26 4F       		.byte	79
 4044 0d27 01       		.byte	1
 4045 0d28 50       		.byte	80
 4046 0d29 18       		.byte	24
 4047 0d2a 56       		.byte	86
 4048 0d2b 08       		.byte	8
 4049 0d2c 58       		.byte	88
 4050 0d2d 04       		.byte	4
 4051 0d2e 59       		.byte	89
 4052 0d2f 04       		.byte	4
 4053 0d30 5A       		.byte	90
 4054 0d31 04       		.byte	4
 4055 0d32 5B       		.byte	91
 4056 0d33 04       		.byte	4
 4057 0d34 5C       		.byte	92
 4058 0d35 20       		.byte	32
 4059 0d36 5D       		.byte	93
 4060 0d37 93       		.byte	-109
 4061 0d38 5F       		.byte	95
 4062 0d39 01       		.byte	1
 4063 0d3a 60       		.byte	96
 4064 0d3b 40       		.byte	64
 4065 0d3c 62       		.byte	98
 4066 0d3d 40       		.byte	64
 4067 0d3e 64       		.byte	100
 4068 0d3f 40       		.byte	64
 4069 0d40 65       		.byte	101
 4070 0d41 40       		.byte	64
 4071 0d42 66       		.byte	102
 4072 0d43 80       		.byte	-128
 4073 0d44 68       		.byte	104
 4074 0d45 80       		.byte	-128
 4075 0d46 6A       		.byte	106
 4076 0d47 80       		.byte	-128
 4077 0d48 6C       		.byte	108
 4078 0d49 80       		.byte	-128
 4079 0d4a 6E       		.byte	110
 4080 0d4b 80       		.byte	-128
 4081 0d4c 8A       		.byte	-118
 4082 0d4d 01       		.byte	1
 4083 0d4e 8E       		.byte	-114
 4084 0d4f 04       		.byte	4
 4085 0d50 92       		.byte	-110
 4086 0d51 02       		.byte	2
 4087 0d52 95       		.byte	-107
 4088 0d53 01       		.byte	1
 4089 0d54 99       		.byte	-103
 4090 0d55 01       		.byte	1
 4091 0d56 9A       		.byte	-102
 4092 0d57 01       		.byte	1
 4093 0d58 A1       		.byte	-95
 4094 0d59 01       		.byte	1
 4095 0d5a A9       		.byte	-87
 4096 0d5b 02       		.byte	2
 4097 0d5c AB       		.byte	-85
 4098 0d5d 04       		.byte	4
 4099 0d5e AD       		.byte	-83
ARM GAS  C:\Users\xavieran\AppData\Local\Temp\ccykvWSD.s 			page 120


 4100 0d5f 02       		.byte	2
 4101 0d60 AF       		.byte	-81
 4102 0d61 04       		.byte	4
 4103 0d62 B0       		.byte	-80
 4104 0d63 01       		.byte	1
 4105 0d64 B2       		.byte	-78
 4106 0d65 02       		.byte	2
 4107 0d66 B4       		.byte	-76
 4108 0d67 04       		.byte	4
 4109 0d68 B5       		.byte	-75
 4110 0d69 01       		.byte	1
 4111 0d6a B7       		.byte	-73
 4112 0d6b 06       		.byte	6
 4113 0d6c B9       		.byte	-71
 4114 0d6d 20       		.byte	32
 4115 0d6e BE       		.byte	-66
 4116 0d6f 01       		.byte	1
 4117 0d70 C0       		.byte	-64
 4118 0d71 62       		.byte	98
 4119 0d72 C1       		.byte	-63
 4120 0d73 03       		.byte	3
 4121 0d74 C5       		.byte	-59
 4122 0d75 EC       		.byte	-20
 4123 0d76 C6       		.byte	-58
 4124 0d77 20       		.byte	32
 4125 0d78 C8       		.byte	-56
 4126 0d79 0B       		.byte	11
 4127 0d7a C9       		.byte	-55
 4128 0d7b FF       		.byte	-1
 4129 0d7c CA       		.byte	-54
 4130 0d7d FF       		.byte	-1
 4131 0d7e CB       		.byte	-53
 4132 0d7f FF       		.byte	-1
 4133 0d80 CD       		.byte	-51
 4134 0d81 83       		.byte	-125
 4135 0d82 CE       		.byte	-50
 4136 0d83 03       		.byte	3
 4137 0d84 CF       		.byte	-49
 4138 0d85 01       		.byte	1
 4139 0d86 D0       		.byte	-48
 4140 0d87 18       		.byte	24
 4141 0d88 D4       		.byte	-44
 4142 0d89 01       		.byte	1
 4143 0d8a D8       		.byte	-40
 4144 0d8b 04       		.byte	4
 4145 0d8c D9       		.byte	-39
 4146 0d8d 04       		.byte	4
 4147 0d8e DA       		.byte	-38
 4148 0d8f 04       		.byte	4
 4149 0d90 DB       		.byte	-37
 4150 0d91 04       		.byte	4
 4151 0d92 DC       		.byte	-36
 4152 0d93 22       		.byte	34
 4153 0d94 DD       		.byte	-35
 4154 0d95 33       		.byte	51
 4155 0d96 DF       		.byte	-33
 4156 0d97 05       		.byte	5
ARM GAS  C:\Users\xavieran\AppData\Local\Temp\ccykvWSD.s 			page 121


 4157 0d98 E0       		.byte	-32
 4158 0d99 40       		.byte	64
 4159 0d9a E2       		.byte	-30
 4160 0d9b 40       		.byte	64
 4161 0d9c E4       		.byte	-28
 4162 0d9d 40       		.byte	64
 4163 0d9e E5       		.byte	-27
 4164 0d9f 40       		.byte	64
 4165 0da0 E6       		.byte	-26
 4166 0da1 80       		.byte	-128
 4167 0da2 E8       		.byte	-24
 4168 0da3 80       		.byte	-128
 4169 0da4 EA       		.byte	-22
 4170 0da5 80       		.byte	-128
 4171 0da6 EC       		.byte	-20
 4172 0da7 80       		.byte	-128
 4173 0da8 EE       		.byte	-18
 4174 0da9 80       		.byte	-128
 4175 0daa 00       		.byte	0
 4176 0dab 80       		.byte	-128
 4177 0dac 01       		.byte	1
 4178 0dad 20       		.byte	32
 4179 0dae 04       		.byte	4
 4180 0daf 08       		.byte	8
 4181 0db0 08       		.byte	8
 4182 0db1 02       		.byte	2
 4183 0db2 09       		.byte	9
 4184 0db3 20       		.byte	32
 4185 0db4 0C       		.byte	12
 4186 0db5 02       		.byte	2
 4187 0db6 0D       		.byte	13
 4188 0db7 02       		.byte	2
 4189 0db8 0E       		.byte	14
 4190 0db9 30       		.byte	48
 4191 0dba 0F       		.byte	15
 4192 0dbb 08       		.byte	8
 4193 0dbc 15       		.byte	21
 4194 0dbd 02       		.byte	2
 4195 0dbe 18       		.byte	24
 4196 0dbf 08       		.byte	8
 4197 0dc0 1A       		.byte	26
 4198 0dc1 60       		.byte	96
 4199 0dc2 1B       		.byte	27
 4200 0dc3 24       		.byte	36
 4201 0dc4 1F       		.byte	31
 4202 0dc5 01       		.byte	1
 4203 0dc6 22       		.byte	34
 4204 0dc7 A0       		.byte	-96
 4205 0dc8 27       		.byte	39
 4206 0dc9 40       		.byte	64
 4207 0dca 28       		.byte	40
 4208 0dcb 02       		.byte	2
 4209 0dcc 29       		.byte	41
 4210 0dcd 02       		.byte	2
 4211 0dce 2B       		.byte	43
 4212 0dcf 08       		.byte	8
 4213 0dd0 2C       		.byte	44
ARM GAS  C:\Users\xavieran\AppData\Local\Temp\ccykvWSD.s 			page 122


 4214 0dd1 02       		.byte	2
 4215 0dd2 2E       		.byte	46
 4216 0dd3 10       		.byte	16
 4217 0dd4 2F       		.byte	47
 4218 0dd5 20       		.byte	32
 4219 0dd6 30       		.byte	48
 4220 0dd7 28       		.byte	40
 4221 0dd8 33       		.byte	51
 4222 0dd9 10       		.byte	16
 4223 0dda 37       		.byte	55
 4224 0ddb 50       		.byte	80
 4225 0ddc 3C       		.byte	60
 4226 0ddd 80       		.byte	-128
 4227 0dde 3F       		.byte	63
 4228 0ddf 08       		.byte	8
 4229 0de0 40       		.byte	64
 4230 0de1 20       		.byte	32
 4231 0de2 41       		.byte	65
 4232 0de3 20       		.byte	32
 4233 0de4 44       		.byte	68
 4234 0de5 20       		.byte	32
 4235 0de6 45       		.byte	69
 4236 0de7 20       		.byte	32
 4237 0de8 47       		.byte	71
 4238 0de9 08       		.byte	8
 4239 0dea 49       		.byte	73
 4240 0deb 25       		.byte	37
 4241 0dec 4D       		.byte	77
 4242 0ded 20       		.byte	32
 4243 0dee 51       		.byte	81
 4244 0def 20       		.byte	32
 4245 0df0 59       		.byte	89
 4246 0df1 05       		.byte	5
 4247 0df2 5A       		.byte	90
 4248 0df3 40       		.byte	64
 4249 0df4 5C       		.byte	92
 4250 0df5 80       		.byte	-128
 4251 0df6 5E       		.byte	94
 4252 0df7 04       		.byte	4
 4253 0df8 5F       		.byte	95
 4254 0df9 20       		.byte	32
 4255 0dfa 65       		.byte	101
 4256 0dfb 60       		.byte	96
 4257 0dfc 66       		.byte	102
 4258 0dfd 08       		.byte	8
 4259 0dfe 78       		.byte	120
 4260 0dff 20       		.byte	32
 4261 0e00 87       		.byte	-121
 4262 0e01 60       		.byte	96
 4263 0e02 8E       		.byte	-114
 4264 0e03 08       		.byte	8
 4265 0e04 91       		.byte	-111
 4266 0e05 02       		.byte	2
 4267 0e06 93       		.byte	-109
 4268 0e07 80       		.byte	-128
 4269 0e08 96       		.byte	-106
 4270 0e09 22       		.byte	34
ARM GAS  C:\Users\xavieran\AppData\Local\Temp\ccykvWSD.s 			page 123


 4271 0e0a 97       		.byte	-105
 4272 0e0b 02       		.byte	2
 4273 0e0c 99       		.byte	-103
 4274 0e0d 02       		.byte	2
 4275 0e0e 9A       		.byte	-102
 4276 0e0f 04       		.byte	4
 4277 0e10 9E       		.byte	-98
 4278 0e11 09       		.byte	9
 4279 0e12 A0       		.byte	-96
 4280 0e13 68       		.byte	104
 4281 0e14 A1       		.byte	-95
 4282 0e15 02       		.byte	2
 4283 0e16 A2       		.byte	-94
 4284 0e17 10       		.byte	16
 4285 0e18 A3       		.byte	-93
 4286 0e19 08       		.byte	8
 4287 0e1a A6       		.byte	-90
 4288 0e1b A0       		.byte	-96
 4289 0e1c A8       		.byte	-88
 4290 0e1d 80       		.byte	-128
 4291 0e1e A9       		.byte	-87
 4292 0e1f 10       		.byte	16
 4293 0e20 C0       		.byte	-64
 4294 0e21 23       		.byte	35
 4295 0e22 C2       		.byte	-62
 4296 0e23 7A       		.byte	122
 4297 0e24 C4       		.byte	-60
 4298 0e25 10       		.byte	16
 4299 0e26 CA       		.byte	-54
 4300 0e27 7D       		.byte	125
 4301 0e28 CC       		.byte	-52
 4302 0e29 36       		.byte	54
 4303 0e2a CE       		.byte	-50
 4304 0e2b 50       		.byte	80
 4305 0e2c D0       		.byte	-48
 4306 0e2d 66       		.byte	102
 4307 0e2e D2       		.byte	-46
 4308 0e2f 24       		.byte	36
 4309 0e30 D6       		.byte	-42
 4310 0e31 7B       		.byte	123
 4311 0e32 D8       		.byte	-40
 4312 0e33 70       		.byte	112
 4313 0e34 DE       		.byte	-34
 4314 0e35 04       		.byte	4
 4315 0e36 E0       		.byte	-32
 4316 0e37 10       		.byte	16
 4317 0e38 E6       		.byte	-26
 4318 0e39 40       		.byte	64
 4319 0e3a E8       		.byte	-24
 4320 0e3b 10       		.byte	16
 4321 0e3c EA       		.byte	-22
 4322 0e3d 02       		.byte	2
 4323 0e3e EC       		.byte	-20
 4324 0e3f 10       		.byte	16
 4325 0e40 EE       		.byte	-18
 4326 0e41 02       		.byte	2
 4327 0e42 03       		.byte	3
ARM GAS  C:\Users\xavieran\AppData\Local\Temp\ccykvWSD.s 			page 124


 4328 0e43 02       		.byte	2
 4329 0e44 05       		.byte	5
 4330 0e45 08       		.byte	8
 4331 0e46 07       		.byte	7
 4332 0e47 10       		.byte	16
 4333 0e48 0D       		.byte	13
 4334 0e49 08       		.byte	8
 4335 0e4a 0F       		.byte	15
 4336 0e4b 10       		.byte	16
 4337 0e4c 13       		.byte	19
 4338 0e4d 01       		.byte	1
 4339 0e4e 15       		.byte	21
 4340 0e4f 04       		.byte	4
 4341 0e50 21       		.byte	33
 4342 0e51 04       		.byte	4
 4343 0e52 25       		.byte	37
 4344 0e53 01       		.byte	1
 4345 0e54 29       		.byte	41
 4346 0e55 02       		.byte	2
 4347 0e56 2E       		.byte	46
 4348 0e57 01       		.byte	1
 4349 0e58 31       		.byte	49
 4350 0e59 1C       		.byte	28
 4351 0e5a 32       		.byte	50
 4352 0e5b 01       		.byte	1
 4353 0e5c 33       		.byte	51
 4354 0e5d 01       		.byte	1
 4355 0e5e 35       		.byte	53
 4356 0e5f 02       		.byte	2
 4357 0e60 39       		.byte	57
 4358 0e61 02       		.byte	2
 4359 0e62 3F       		.byte	63
 4360 0e63 01       		.byte	1
 4361 0e64 40       		.byte	64
 4362 0e65 10       		.byte	16
 4363 0e66 41       		.byte	65
 4364 0e67 06       		.byte	6
 4365 0e68 49       		.byte	73
 4366 0e69 FF       		.byte	-1
 4367 0e6a 4A       		.byte	74
 4368 0e6b FF       		.byte	-1
 4369 0e6c 4B       		.byte	75
 4370 0e6d FF       		.byte	-1
 4371 0e6e 4D       		.byte	77
 4372 0e6f A0       		.byte	-96
 4373 0e70 4F       		.byte	79
 4374 0e71 04       		.byte	4
 4375 0e72 50       		.byte	80
 4376 0e73 18       		.byte	24
 4377 0e74 56       		.byte	86
 4378 0e75 08       		.byte	8
 4379 0e76 58       		.byte	88
 4380 0e77 04       		.byte	4
 4381 0e78 59       		.byte	89
 4382 0e79 04       		.byte	4
 4383 0e7a 5A       		.byte	90
 4384 0e7b 04       		.byte	4
ARM GAS  C:\Users\xavieran\AppData\Local\Temp\ccykvWSD.s 			page 125


 4385 0e7c 5B       		.byte	91
 4386 0e7d 04       		.byte	4
 4387 0e7e 5C       		.byte	92
 4388 0e7f 33       		.byte	51
 4389 0e80 5D       		.byte	93
 4390 0e81 93       		.byte	-109
 4391 0e82 5F       		.byte	95
 4392 0e83 01       		.byte	1
 4393 0e84 60       		.byte	96
 4394 0e85 40       		.byte	64
 4395 0e86 62       		.byte	98
 4396 0e87 C0       		.byte	-64
 4397 0e88 64       		.byte	100
 4398 0e89 40       		.byte	64
 4399 0e8a 65       		.byte	101
 4400 0e8b 40       		.byte	64
 4401 0e8c 66       		.byte	102
 4402 0e8d C0       		.byte	-64
 4403 0e8e 68       		.byte	104
 4404 0e8f C0       		.byte	-64
 4405 0e90 6A       		.byte	106
 4406 0e91 C0       		.byte	-64
 4407 0e92 6C       		.byte	108
 4408 0e93 C0       		.byte	-64
 4409 0e94 6E       		.byte	110
 4410 0e95 C0       		.byte	-64
 4411 0e96 82       		.byte	-126
 4412 0e97 01       		.byte	1
 4413 0e98 89       		.byte	-119
 4414 0e99 02       		.byte	2
 4415 0e9a 8C       		.byte	-116
 4416 0e9b 02       		.byte	2
 4417 0e9c 9D       		.byte	-99
 4418 0e9d 01       		.byte	1
 4419 0e9e 9E       		.byte	-98
 4420 0e9f 04       		.byte	4
 4421 0ea0 A3       		.byte	-93
 4422 0ea1 04       		.byte	4
 4423 0ea2 A4       		.byte	-92
 4424 0ea3 02       		.byte	2
 4425 0ea4 AA       		.byte	-86
 4426 0ea5 04       		.byte	4
 4427 0ea6 AF       		.byte	-81
 4428 0ea7 04       		.byte	4
 4429 0ea8 B0       		.byte	-80
 4430 0ea9 02       		.byte	2
 4431 0eaa B3       		.byte	-77
 4432 0eab 01       		.byte	1
 4433 0eac B4       		.byte	-76
 4434 0ead 04       		.byte	4
 4435 0eae B5       		.byte	-75
 4436 0eaf 04       		.byte	4
 4437 0eb0 B6       		.byte	-74
 4438 0eb1 01       		.byte	1
 4439 0eb2 B7       		.byte	-73
 4440 0eb3 02       		.byte	2
 4441 0eb4 BE       		.byte	-66
ARM GAS  C:\Users\xavieran\AppData\Local\Temp\ccykvWSD.s 			page 126


 4442 0eb5 10       		.byte	16
 4443 0eb6 BF       		.byte	-65
 4444 0eb7 04       		.byte	4
 4445 0eb8 C0       		.byte	-64
 4446 0eb9 10       		.byte	16
 4447 0eba C1       		.byte	-63
 4448 0ebb 02       		.byte	2
 4449 0ebc C5       		.byte	-59
 4450 0ebd D0       		.byte	-48
 4451 0ebe C6       		.byte	-58
 4452 0ebf 10       		.byte	16
 4453 0ec0 C7       		.byte	-57
 4454 0ec1 52       		.byte	82
 4455 0ec2 C8       		.byte	-56
 4456 0ec3 3A       		.byte	58
 4457 0ec4 C9       		.byte	-55
 4458 0ec5 FF       		.byte	-1
 4459 0ec6 CA       		.byte	-54
 4460 0ec7 FF       		.byte	-1
 4461 0ec8 CB       		.byte	-53
 4462 0ec9 FF       		.byte	-1
 4463 0eca CD       		.byte	-51
 4464 0ecb AF       		.byte	-81
 4465 0ecc CE       		.byte	-50
 4466 0ecd 0F       		.byte	15
 4467 0ece CF       		.byte	-49
 4468 0ecf 04       		.byte	4
 4469 0ed0 D0       		.byte	-48
 4470 0ed1 18       		.byte	24
 4471 0ed2 D2       		.byte	-46
 4472 0ed3 80       		.byte	-128
 4473 0ed4 D4       		.byte	-44
 4474 0ed5 07       		.byte	7
 4475 0ed6 D8       		.byte	-40
 4476 0ed7 04       		.byte	4
 4477 0ed8 D9       		.byte	-39
 4478 0ed9 04       		.byte	4
 4479 0eda DA       		.byte	-38
 4480 0edb 04       		.byte	4
 4481 0edc DB       		.byte	-37
 4482 0edd 04       		.byte	4
 4483 0ede DC       		.byte	-36
 4484 0edf 33       		.byte	51
 4485 0ee0 DD       		.byte	-35
 4486 0ee1 33       		.byte	51
 4487 0ee2 DF       		.byte	-33
 4488 0ee3 01       		.byte	1
 4489 0ee4 E0       		.byte	-32
 4490 0ee5 40       		.byte	64
 4491 0ee6 E2       		.byte	-30
 4492 0ee7 C0       		.byte	-64
 4493 0ee8 E4       		.byte	-28
 4494 0ee9 40       		.byte	64
 4495 0eea E5       		.byte	-27
 4496 0eeb 40       		.byte	64
 4497 0eec E6       		.byte	-26
 4498 0eed C0       		.byte	-64
ARM GAS  C:\Users\xavieran\AppData\Local\Temp\ccykvWSD.s 			page 127


 4499 0eee E8       		.byte	-24
 4500 0eef C0       		.byte	-64
 4501 0ef0 EA       		.byte	-22
 4502 0ef1 C0       		.byte	-64
 4503 0ef2 EC       		.byte	-20
 4504 0ef3 C0       		.byte	-64
 4505 0ef4 EE       		.byte	-18
 4506 0ef5 C0       		.byte	-64
 4507 0ef6 06       		.byte	6
 4508 0ef7 40       		.byte	64
 4509 0ef8 07       		.byte	7
 4510 0ef9 01       		.byte	1
 4511 0efa 0E       		.byte	14
 4512 0efb 01       		.byte	1
 4513 0efc 10       		.byte	16
 4514 0efd 02       		.byte	2
 4515 0efe 16       		.byte	22
 4516 0eff 28       		.byte	40
 4517 0f00 19       		.byte	25
 4518 0f01 08       		.byte	8
 4519 0f02 1E       		.byte	30
 4520 0f03 49       		.byte	73
 4521 0f04 22       		.byte	34
 4522 0f05 01       		.byte	1
 4523 0f06 23       		.byte	35
 4524 0f07 28       		.byte	40
 4525 0f08 26       		.byte	38
 4526 0f09 18       		.byte	24
 4527 0f0a 27       		.byte	39
 4528 0f0b 01       		.byte	1
 4529 0f0c 29       		.byte	41
 4530 0f0d 0A       		.byte	10
 4531 0f0e 2A       		.byte	42
 4532 0f0f 20       		.byte	32
 4533 0f10 2C       		.byte	44
 4534 0f11 02       		.byte	2
 4535 0f12 2E       		.byte	46
 4536 0f13 01       		.byte	1
 4537 0f14 30       		.byte	48
 4538 0f15 0A       		.byte	10
 4539 0f16 35       		.byte	53
 4540 0f17 40       		.byte	64
 4541 0f18 3A       		.byte	58
 4542 0f19 06       		.byte	6
 4543 0f1a 3B       		.byte	59
 4544 0f1b 80       		.byte	-128
 4545 0f1c 3E       		.byte	62
 4546 0f1d 20       		.byte	32
 4547 0f1e 42       		.byte	66
 4548 0f1f 03       		.byte	3
 4549 0f20 46       		.byte	70
 4550 0f21 0A       		.byte	10
 4551 0f22 48       		.byte	72
 4552 0f23 04       		.byte	4
 4553 0f24 4D       		.byte	77
 4554 0f25 01       		.byte	1
 4555 0f26 54       		.byte	84
ARM GAS  C:\Users\xavieran\AppData\Local\Temp\ccykvWSD.s 			page 128


 4556 0f27 06       		.byte	6
 4557 0f28 56       		.byte	86
 4558 0f29 28       		.byte	40
 4559 0f2a 58       		.byte	88
 4560 0f2b 80       		.byte	-128
 4561 0f2c 5D       		.byte	93
 4562 0f2d 01       		.byte	1
 4563 0f2e 5E       		.byte	94
 4564 0f2f 48       		.byte	72
 4565 0f30 5F       		.byte	95
 4566 0f31 20       		.byte	32
 4567 0f32 60       		.byte	96
 4568 0f33 02       		.byte	2
 4569 0f34 76       		.byte	118
 4570 0f35 40       		.byte	64
 4571 0f36 83       		.byte	-125
 4572 0f37 08       		.byte	8
 4573 0f38 88       		.byte	-120
 4574 0f39 80       		.byte	-128
 4575 0f3a 8A       		.byte	-118
 4576 0f3b 10       		.byte	16
 4577 0f3c 8B       		.byte	-117
 4578 0f3d 08       		.byte	8
 4579 0f3e 93       		.byte	-109
 4580 0f3f 80       		.byte	-128
 4581 0f40 96       		.byte	-106
 4582 0f41 02       		.byte	2
 4583 0f42 99       		.byte	-103
 4584 0f43 42       		.byte	66
 4585 0f44 9A       		.byte	-102
 4586 0f45 04       		.byte	4
 4587 0f46 9C       		.byte	-100
 4588 0f47 02       		.byte	2
 4589 0f48 9F       		.byte	-97
 4590 0f49 08       		.byte	8
 4591 0f4a A0       		.byte	-96
 4592 0f4b 08       		.byte	8
 4593 0f4c A3       		.byte	-93
 4594 0f4d 08       		.byte	8
 4595 0f4e A6       		.byte	-90
 4596 0f4f 08       		.byte	8
 4597 0f50 AC       		.byte	-84
 4598 0f51 20       		.byte	32
 4599 0f52 AE       		.byte	-82
 4600 0f53 20       		.byte	32
 4601 0f54 B2       		.byte	-78
 4602 0f55 04       		.byte	4
 4603 0f56 B4       		.byte	-76
 4604 0f57 80       		.byte	-128
 4605 0f58 B6       		.byte	-74
 4606 0f59 01       		.byte	1
 4607 0f5a C0       		.byte	-64
 4608 0f5b 90       		.byte	-112
 4609 0f5c C2       		.byte	-62
 4610 0f5d 80       		.byte	-128
 4611 0f5e C4       		.byte	-60
 4612 0f5f 61       		.byte	97
ARM GAS  C:\Users\xavieran\AppData\Local\Temp\ccykvWSD.s 			page 129


 4613 0f60 CA       		.byte	-54
 4614 0f61 97       		.byte	-105
 4615 0f62 CC       		.byte	-52
 4616 0f63 13       		.byte	19
 4617 0f64 CE       		.byte	-50
 4618 0f65 2B       		.byte	43
 4619 0f66 D0       		.byte	-48
 4620 0f67 38       		.byte	56
 4621 0f68 D2       		.byte	-46
 4622 0f69 04       		.byte	4
 4623 0f6a D6       		.byte	-42
 4624 0f6b F8       		.byte	-8
 4625 0f6c D8       		.byte	-40
 4626 0f6d 08       		.byte	8
 4627 0f6e E2       		.byte	-30
 4628 0f6f C0       		.byte	-64
 4629 0f70 E4       		.byte	-28
 4630 0f71 01       		.byte	1
 4631 0f72 E6       		.byte	-26
 4632 0f73 80       		.byte	-128
 4633 0f74 EA       		.byte	-22
 4634 0f75 01       		.byte	1
 4635 0f76 EC       		.byte	-20
 4636 0f77 40       		.byte	64
 4637 0f78 0A       		.byte	10
 4638 0f79 14       		.byte	20
 4639 0f7a 0E       		.byte	14
 4640 0f7b 02       		.byte	2
 4641 0f7c 0F       		.byte	15
 4642 0f7d 40       		.byte	64
 4643 0f7e 31       		.byte	49
 4644 0f7f 20       		.byte	32
 4645 0f80 32       		.byte	50
 4646 0f81 02       		.byte	2
 4647 0f82 34       		.byte	52
 4648 0f83 08       		.byte	8
 4649 0f84 36       		.byte	54
 4650 0f85 10       		.byte	16
 4651 0f86 3A       		.byte	58
 4652 0f87 20       		.byte	32
 4653 0f88 3E       		.byte	62
 4654 0f89 80       		.byte	-128
 4655 0f8a 55       		.byte	85
 4656 0f8b 40       		.byte	64
 4657 0f8c 5C       		.byte	92
 4658 0f8d 20       		.byte	32
 4659 0f8e 82       		.byte	-126
 4660 0f8f 80       		.byte	-128
 4661 0f90 86       		.byte	-122
 4662 0f91 04       		.byte	4
 4663 0f92 C2       		.byte	-62
 4664 0f93 F0       		.byte	-16
 4665 0f94 CC       		.byte	-52
 4666 0f95 F0       		.byte	-16
 4667 0f96 CE       		.byte	-50
 4668 0f97 30       		.byte	48
 4669 0f98 D4       		.byte	-44
ARM GAS  C:\Users\xavieran\AppData\Local\Temp\ccykvWSD.s 			page 130


 4670 0f99 40       		.byte	64
 4671 0f9a D6       		.byte	-42
 4672 0f9b 20       		.byte	32
 4673 0f9c E0       		.byte	-32
 4674 0f9d 40       		.byte	64
 4675 0f9e E2       		.byte	-30
 4676 0f9f 80       		.byte	-128
 4677 0fa0 03       		.byte	3
 4678 0fa1 20       		.byte	32
 4679 0fa2 07       		.byte	7
 4680 0fa3 10       		.byte	16
 4681 0fa4 30       		.byte	48
 4682 0fa5 20       		.byte	32
 4683 0fa6 33       		.byte	51
 4684 0fa7 01       		.byte	1
 4685 0fa8 35       		.byte	53
 4686 0fa9 01       		.byte	1
 4687 0faa 36       		.byte	54
 4688 0fab 40       		.byte	64
 4689 0fac 38       		.byte	56
 4690 0fad 20       		.byte	32
 4691 0fae 59       		.byte	89
 4692 0faf 02       		.byte	2
 4693 0fb0 5E       		.byte	94
 4694 0fb1 02       		.byte	2
 4695 0fb2 62       		.byte	98
 4696 0fb3 10       		.byte	16
 4697 0fb4 65       		.byte	101
 4698 0fb5 04       		.byte	4
 4699 0fb6 82       		.byte	-126
 4700 0fb7 01       		.byte	1
 4701 0fb8 84       		.byte	-124
 4702 0fb9 20       		.byte	32
 4703 0fba 9C       		.byte	-100
 4704 0fbb 28       		.byte	40
 4705 0fbc 9E       		.byte	-98
 4706 0fbd 20       		.byte	32
 4707 0fbe A5       		.byte	-91
 4708 0fbf 60       		.byte	96
 4709 0fc0 A6       		.byte	-90
 4710 0fc1 12       		.byte	18
 4711 0fc2 AA       		.byte	-86
 4712 0fc3 11       		.byte	17
 4713 0fc4 AF       		.byte	-81
 4714 0fc5 40       		.byte	64
 4715 0fc6 C0       		.byte	-64
 4716 0fc7 30       		.byte	48
 4717 0fc8 CC       		.byte	-52
 4718 0fc9 F0       		.byte	-16
 4719 0fca CE       		.byte	-50
 4720 0fcb 10       		.byte	16
 4721 0fcc D6       		.byte	-42
 4722 0fcd C0       		.byte	-64
 4723 0fce D8       		.byte	-40
 4724 0fcf C0       		.byte	-64
 4725 0fd0 E2       		.byte	-30
 4726 0fd1 40       		.byte	64
ARM GAS  C:\Users\xavieran\AppData\Local\Temp\ccykvWSD.s 			page 131


 4727 0fd2 E6       		.byte	-26
 4728 0fd3 80       		.byte	-128
 4729 0fd4 E8       		.byte	-24
 4730 0fd5 80       		.byte	-128
 4731 0fd6 EC       		.byte	-20
 4732 0fd7 C0       		.byte	-64
 4733 0fd8 12       		.byte	18
 4734 0fd9 80       		.byte	-128
 4735 0fda 3E       		.byte	62
 4736 0fdb 10       		.byte	16
 4737 0fdc 55       		.byte	85
 4738 0fdd 04       		.byte	4
 4739 0fde 58       		.byte	88
 4740 0fdf 04       		.byte	4
 4741 0fe0 5D       		.byte	93
 4742 0fe1 01       		.byte	1
 4743 0fe2 63       		.byte	99
 4744 0fe3 10       		.byte	16
 4745 0fe4 67       		.byte	103
 4746 0fe5 10       		.byte	16
 4747 0fe6 80       		.byte	-128
 4748 0fe7 80       		.byte	-128
 4749 0fe8 84       		.byte	-124
 4750 0fe9 20       		.byte	32
 4751 0fea 89       		.byte	-119
 4752 0feb 40       		.byte	64
 4753 0fec 94       		.byte	-108
 4754 0fed 20       		.byte	32
 4755 0fee 9B       		.byte	-101
 4756 0fef 10       		.byte	16
 4757 0ff0 9C       		.byte	-100
 4758 0ff1 28       		.byte	40
 4759 0ff2 9D       		.byte	-99
 4760 0ff3 07       		.byte	7
 4761 0ff4 9E       		.byte	-98
 4762 0ff5 10       		.byte	16
 4763 0ff6 9F       		.byte	-97
 4764 0ff7 01       		.byte	1
 4765 0ff8 A3       		.byte	-93
 4766 0ff9 20       		.byte	32
 4767 0ffa A5       		.byte	-91
 4768 0ffb 60       		.byte	96
 4769 0ffc A6       		.byte	-90
 4770 0ffd 52       		.byte	82
 4771 0ffe AA       		.byte	-86
 4772 0fff 20       		.byte	32
 4773 1000 C4       		.byte	-60
 4774 1001 10       		.byte	16
 4775 1002 CE       		.byte	-50
 4776 1003 20       		.byte	32
 4777 1004 D4       		.byte	-44
 4778 1005 40       		.byte	64
 4779 1006 D6       		.byte	-42
 4780 1007 C0       		.byte	-64
 4781 1008 D8       		.byte	-40
 4782 1009 C0       		.byte	-64
 4783 100a E4       		.byte	-28
ARM GAS  C:\Users\xavieran\AppData\Local\Temp\ccykvWSD.s 			page 132


 4784 100b 80       		.byte	-128
 4785 100c E6       		.byte	-26
 4786 100d 10       		.byte	16
 4787 100e EA       		.byte	-22
 4788 100f 20       		.byte	32
 4789 1010 18       		.byte	24
 4790 1011 01       		.byte	1
 4791 1012 1A       		.byte	26
 4792 1013 40       		.byte	64
 4793 1014 1D       		.byte	29
 4794 1015 84       		.byte	-124
 4795 1016 81       		.byte	-127
 4796 1017 02       		.byte	2
 4797 1018 82       		.byte	-126
 4798 1019 40       		.byte	64
 4799 101a 86       		.byte	-122
 4800 101b 10       		.byte	16
 4801 101c 8B       		.byte	-117
 4802 101d 04       		.byte	4
 4803 101e 8D       		.byte	-115
 4804 101f 04       		.byte	4
 4805 1020 8E       		.byte	-114
 4806 1021 10       		.byte	16
 4807 1022 94       		.byte	-108
 4808 1023 20       		.byte	32
 4809 1024 96       		.byte	-106
 4810 1025 10       		.byte	16
 4811 1026 9C       		.byte	-100
 4812 1027 88       		.byte	-120
 4813 1028 9D       		.byte	-99
 4814 1029 07       		.byte	7
 4815 102a 9E       		.byte	-98
 4816 102b 10       		.byte	16
 4817 102c 9F       		.byte	-97
 4818 102d 01       		.byte	1
 4819 102e A2       		.byte	-94
 4820 102f 80       		.byte	-128
 4821 1030 A3       		.byte	-93
 4822 1031 20       		.byte	32
 4823 1032 A5       		.byte	-91
 4824 1033 24       		.byte	36
 4825 1034 A6       		.byte	-90
 4826 1035 52       		.byte	82
 4827 1036 AB       		.byte	-85
 4828 1037 10       		.byte	16
 4829 1038 AC       		.byte	-84
 4830 1039 04       		.byte	4
 4831 103a AD       		.byte	-83
 4832 103b 01       		.byte	1
 4833 103c AF       		.byte	-81
 4834 103d 10       		.byte	16
 4835 103e C6       		.byte	-58
 4836 103f F0       		.byte	-16
 4837 1040 E0       		.byte	-32
 4838 1041 20       		.byte	32
 4839 1042 E2       		.byte	-30
 4840 1043 40       		.byte	64
ARM GAS  C:\Users\xavieran\AppData\Local\Temp\ccykvWSD.s 			page 133


 4841 1044 E6       		.byte	-26
 4842 1045 20       		.byte	32
 4843 1046 E8       		.byte	-24
 4844 1047 20       		.byte	32
 4845 1048 EA       		.byte	-22
 4846 1049 10       		.byte	16
 4847 104a 01       		.byte	1
 4848 104b 40       		.byte	64
 4849 104c 03       		.byte	3
 4850 104d 80       		.byte	-128
 4851 104e 04       		.byte	4
 4852 104f 28       		.byte	40
 4853 1050 08       		.byte	8
 4854 1051 04       		.byte	4
 4855 1052 65       		.byte	101
 4856 1053 80       		.byte	-128
 4857 1054 8B       		.byte	-117
 4858 1055 A0       		.byte	-96
 4859 1056 8C       		.byte	-116
 4860 1057 14       		.byte	20
 4861 1058 8D       		.byte	-115
 4862 1059 40       		.byte	64
 4863 105a C0       		.byte	-64
 4864 105b 0F       		.byte	15
 4865 105c C2       		.byte	-62
 4866 105d 08       		.byte	8
 4867 105e D6       		.byte	-42
 4868 105f 01       		.byte	1
 4869 1060 E2       		.byte	-30
 4870 1061 0B       		.byte	11
 4871 1062 E6       		.byte	-26
 4872 1063 06       		.byte	6
 4873 1064 03       		.byte	3
 4874 1065 40       		.byte	64
 4875 1066 08       		.byte	8
 4876 1067 04       		.byte	4
 4877 1068 0F       		.byte	15
 4878 1069 40       		.byte	64
 4879 106a 5B       		.byte	91
 4880 106b 08       		.byte	8
 4881 106c 64       		.byte	100
 4882 106d 10       		.byte	16
 4883 106e 85       		.byte	-123
 4884 106f 02       		.byte	2
 4885 1070 8E       		.byte	-114
 4886 1071 01       		.byte	1
 4887 1072 9D       		.byte	-99
 4888 1073 80       		.byte	-128
 4889 1074 9F       		.byte	-97
 4890 1075 20       		.byte	32
 4891 1076 B0       		.byte	-80
 4892 1077 04       		.byte	4
 4893 1078 C0       		.byte	-64
 4894 1079 08       		.byte	8
 4895 107a C2       		.byte	-62
 4896 107b 0C       		.byte	12
 4897 107c D6       		.byte	-42
ARM GAS  C:\Users\xavieran\AppData\Local\Temp\ccykvWSD.s 			page 134


 4898 107d 02       		.byte	2
 4899 107e D8       		.byte	-40
 4900 107f 01       		.byte	1
 4901 1080 E0       		.byte	-32
 4902 1081 08       		.byte	8
 4903 1082 EE       		.byte	-18
 4904 1083 01       		.byte	1
 4905 1084 07       		.byte	7
 4906 1085 20       		.byte	32
 4907 1086 86       		.byte	-122
 4908 1087 20       		.byte	32
 4909 1088 87       		.byte	-121
 4910 1089 40       		.byte	64
 4911 108a 93       		.byte	-109
 4912 108b 40       		.byte	64
 4913 108c 98       		.byte	-104
 4914 108d 04       		.byte	4
 4915 108e 9C       		.byte	-100
 4916 108f 10       		.byte	16
 4917 1090 9D       		.byte	-99
 4918 1091 80       		.byte	-128
 4919 1092 9F       		.byte	-97
 4920 1093 28       		.byte	40
 4921 1094 A2       		.byte	-94
 4922 1095 01       		.byte	1
 4923 1096 A5       		.byte	-91
 4924 1097 02       		.byte	2
 4925 1098 AB       		.byte	-85
 4926 1099 40       		.byte	64
 4927 109a C0       		.byte	-64
 4928 109b 04       		.byte	4
 4929 109c 09       		.byte	9
 4930 109d 02       		.byte	2
 4931 109e 0B       		.byte	11
 4932 109f 04       		.byte	4
 4933 10a0 0F       		.byte	15
 4934 10a1 40       		.byte	64
 4935 10a2 81       		.byte	-127
 4936 10a3 80       		.byte	-128
 4937 10a4 98       		.byte	-104
 4938 10a5 04       		.byte	4
 4939 10a6 9C       		.byte	-100
 4940 10a7 10       		.byte	16
 4941 10a8 9D       		.byte	-99
 4942 10a9 80       		.byte	-128
 4943 10aa 9F       		.byte	-97
 4944 10ab 08       		.byte	8
 4945 10ac A2       		.byte	-94
 4946 10ad 21       		.byte	33
 4947 10ae A5       		.byte	-91
 4948 10af 02       		.byte	2
 4949 10b0 B0       		.byte	-80
 4950 10b1 04       		.byte	4
 4951 10b2 C2       		.byte	-62
 4952 10b3 0E       		.byte	14
 4953 10b4 EE       		.byte	-18
 4954 10b5 01       		.byte	1
ARM GAS  C:\Users\xavieran\AppData\Local\Temp\ccykvWSD.s 			page 135


 4955 10b6 26       		.byte	38
 4956 10b7 20       		.byte	32
 4957 10b8 29       		.byte	41
 4958 10b9 80       		.byte	-128
 4959 10ba 5A       		.byte	90
 4960 10bb 20       		.byte	32
 4961 10bc 81       		.byte	-127
 4962 10bd 80       		.byte	-128
 4963 10be 87       		.byte	-121
 4964 10bf 11       		.byte	17
 4965 10c0 8D       		.byte	-115
 4966 10c1 20       		.byte	32
 4967 10c2 8E       		.byte	-114
 4968 10c3 20       		.byte	32
 4969 10c4 92       		.byte	-110
 4970 10c5 20       		.byte	32
 4971 10c6 94       		.byte	-108
 4972 10c7 20       		.byte	32
 4973 10c8 96       		.byte	-106
 4974 10c9 10       		.byte	16
 4975 10ca 97       		.byte	-105
 4976 10cb 08       		.byte	8
 4977 10cc 9B       		.byte	-101
 4978 10cd 08       		.byte	8
 4979 10ce 9C       		.byte	-100
 4980 10cf 80       		.byte	-128
 4981 10d0 9D       		.byte	-99
 4982 10d1 01       		.byte	1
 4983 10d2 A2       		.byte	-94
 4984 10d3 80       		.byte	-128
 4985 10d4 A3       		.byte	-93
 4986 10d5 20       		.byte	32
 4987 10d6 A5       		.byte	-91
 4988 10d7 21       		.byte	33
 4989 10d8 A6       		.byte	-90
 4990 10d9 10       		.byte	16
 4991 10da A9       		.byte	-87
 4992 10db 01       		.byte	1
 4993 10dc AB       		.byte	-85
 4994 10dd 08       		.byte	8
 4995 10de AE       		.byte	-82
 4996 10df 40       		.byte	64
 4997 10e0 AF       		.byte	-81
 4998 10e1 01       		.byte	1
 4999 10e2 B0       		.byte	-80
 5000 10e3 08       		.byte	8
 5001 10e4 B2       		.byte	-78
 5002 10e5 02       		.byte	2
 5003 10e6 B4       		.byte	-76
 5004 10e7 01       		.byte	1
 5005 10e8 B5       		.byte	-75
 5006 10e9 80       		.byte	-128
 5007 10ea C8       		.byte	-56
 5008 10eb 20       		.byte	32
 5009 10ec CA       		.byte	-54
 5010 10ed 10       		.byte	16
 5011 10ee D4       		.byte	-44
ARM GAS  C:\Users\xavieran\AppData\Local\Temp\ccykvWSD.s 			page 136


 5012 10ef 80       		.byte	-128
 5013 10f0 E0       		.byte	-32
 5014 10f1 60       		.byte	96
 5015 10f2 E6       		.byte	-26
 5016 10f3 40       		.byte	64
 5017 10f4 EA       		.byte	-22
 5018 10f5 60       		.byte	96
 5019 10f6 EC       		.byte	-20
 5020 10f7 80       		.byte	-128
 5021 10f8 EE       		.byte	-18
 5022 10f9 40       		.byte	64
 5023 10fa 03       		.byte	3
 5024 10fb 01       		.byte	1
 5025 10fc 09       		.byte	9
 5026 10fd 01       		.byte	1
 5027 10fe 0B       		.byte	11
 5028 10ff 08       		.byte	8
 5029 1100 14       		.byte	20
 5030 1101 80       		.byte	-128
 5031 1102 21       		.byte	33
 5032 1103 40       		.byte	64
 5033 1104 25       		.byte	37
 5034 1105 40       		.byte	64
 5035 1106 50       		.byte	80
 5036 1107 02       		.byte	2
 5037 1108 5F       		.byte	95
 5038 1109 08       		.byte	8
 5039 110a 67       		.byte	103
 5040 110b 20       		.byte	32
 5041 110c 79       		.byte	121
 5042 110d 80       		.byte	-128
 5043 110e 7D       		.byte	125
 5044 110f 80       		.byte	-128
 5045 1110 81       		.byte	-127
 5046 1111 01       		.byte	1
 5047 1112 82       		.byte	-126
 5048 1113 80       		.byte	-128
 5049 1114 88       		.byte	-120
 5050 1115 02       		.byte	2
 5051 1116 8A       		.byte	-118
 5052 1117 10       		.byte	16
 5053 1118 8C       		.byte	-116
 5054 1119 10       		.byte	16
 5055 111a 93       		.byte	-109
 5056 111b 20       		.byte	32
 5057 111c 94       		.byte	-108
 5058 111d 20       		.byte	32
 5059 111e 97       		.byte	-105
 5060 111f 08       		.byte	8
 5061 1120 9B       		.byte	-101
 5062 1121 08       		.byte	8
 5063 1122 9C       		.byte	-100
 5064 1123 80       		.byte	-128
 5065 1124 9D       		.byte	-99
 5066 1125 01       		.byte	1
 5067 1126 9F       		.byte	-97
 5068 1127 01       		.byte	1
ARM GAS  C:\Users\xavieran\AppData\Local\Temp\ccykvWSD.s 			page 137


 5069 1128 A2       		.byte	-94
 5070 1129 80       		.byte	-128
 5071 112a A5       		.byte	-91
 5072 112b 01       		.byte	1
 5073 112c A6       		.byte	-90
 5074 112d 10       		.byte	16
 5075 112e AA       		.byte	-86
 5076 112f 10       		.byte	16
 5077 1130 AF       		.byte	-81
 5078 1131 20       		.byte	32
 5079 1132 C0       		.byte	-64
 5080 1133 40       		.byte	64
 5081 1134 C2       		.byte	-62
 5082 1135 50       		.byte	80
 5083 1136 C4       		.byte	-60
 5084 1137 20       		.byte	32
 5085 1138 C8       		.byte	-56
 5086 1139 30       		.byte	48
 5087 113a D4       		.byte	-44
 5088 113b 80       		.byte	-128
 5089 113c D6       		.byte	-42
 5090 113d 80       		.byte	-128
 5091 113e D8       		.byte	-40
 5092 113f 80       		.byte	-128
 5093 1140 DC       		.byte	-36
 5094 1141 80       		.byte	-128
 5095 1142 DE       		.byte	-34
 5096 1143 20       		.byte	32
 5097 1144 E2       		.byte	-30
 5098 1145 20       		.byte	32
 5099 1146 E4       		.byte	-28
 5100 1147 20       		.byte	32
 5101 1148 EA       		.byte	-22
 5102 1149 80       		.byte	-128
 5103 114a EC       		.byte	-20
 5104 114b 10       		.byte	16
 5105 114c 09       		.byte	9
 5106 114d 80       		.byte	-128
 5107 114e 0F       		.byte	15
 5108 114f 04       		.byte	4
 5109 1150 13       		.byte	19
 5110 1151 28       		.byte	40
 5111 1152 14       		.byte	20
 5112 1153 10       		.byte	16
 5113 1154 5E       		.byte	94
 5114 1155 02       		.byte	2
 5115 1156 78       		.byte	120
 5116 1157 84       		.byte	-124
 5117 1158 7E       		.byte	126
 5118 1159 20       		.byte	32
 5119 115a 8C       		.byte	-116
 5120 115b 80       		.byte	-128
 5121 115c 98       		.byte	-104
 5122 115d 04       		.byte	4
 5123 115e 99       		.byte	-103
 5124 115f A0       		.byte	-96
 5125 1160 9C       		.byte	-100
ARM GAS  C:\Users\xavieran\AppData\Local\Temp\ccykvWSD.s 			page 138


 5126 1161 10       		.byte	16
 5127 1162 9F       		.byte	-97
 5128 1163 08       		.byte	8
 5129 1164 A0       		.byte	-96
 5130 1165 08       		.byte	8
 5131 1166 A2       		.byte	-94
 5132 1167 21       		.byte	33
 5133 1168 AF       		.byte	-81
 5134 1169 44       		.byte	68
 5135 116a B4       		.byte	-76
 5136 116b 08       		.byte	8
 5137 116c B5       		.byte	-75
 5138 116d 20       		.byte	32
 5139 116e C2       		.byte	-62
 5140 116f 03       		.byte	3
 5141 1170 C4       		.byte	-60
 5142 1171 0E       		.byte	14
 5143 1172 D6       		.byte	-42
 5144 1173 01       		.byte	1
 5145 1174 DC       		.byte	-36
 5146 1175 01       		.byte	1
 5147 1176 DE       		.byte	-34
 5148 1177 03       		.byte	3
 5149 1178 E0       		.byte	-32
 5150 1179 08       		.byte	8
 5151 117a E8       		.byte	-24
 5152 117b 08       		.byte	8
 5153 117c EC       		.byte	-20
 5154 117d 08       		.byte	8
 5155 117e 0E       		.byte	14
 5156 117f 08       		.byte	8
 5157 1180 10       		.byte	16
 5158 1181 10       		.byte	16
 5159 1182 59       		.byte	89
 5160 1183 20       		.byte	32
 5161 1184 65       		.byte	101
 5162 1185 80       		.byte	-128
 5163 1186 70       		.byte	112
 5164 1187 04       		.byte	4
 5165 1188 74       		.byte	116
 5166 1189 08       		.byte	8
 5167 118a 80       		.byte	-128
 5168 118b 04       		.byte	4
 5169 118c 88       		.byte	-120
 5170 118d 10       		.byte	16
 5171 118e 8E       		.byte	-114
 5172 118f 04       		.byte	4
 5173 1190 99       		.byte	-103
 5174 1191 A0       		.byte	-96
 5175 1192 A0       		.byte	-96
 5176 1193 08       		.byte	8
 5177 1194 AB       		.byte	-85
 5178 1195 20       		.byte	32
 5179 1196 B3       		.byte	-77
 5180 1197 04       		.byte	4
 5181 1198 B5       		.byte	-75
 5182 1199 80       		.byte	-128
ARM GAS  C:\Users\xavieran\AppData\Local\Temp\ccykvWSD.s 			page 139


 5183 119a C2       		.byte	-62
 5184 119b 01       		.byte	1
 5185 119c C4       		.byte	-60
 5186 119d 08       		.byte	8
 5187 119e D4       		.byte	-44
 5188 119f 01       		.byte	1
 5189 11a0 D6       		.byte	-42
 5190 11a1 01       		.byte	1
 5191 11a2 DC       		.byte	-36
 5192 11a3 01       		.byte	1
 5193 11a4 DE       		.byte	-34
 5194 11a5 04       		.byte	4
 5195 11a6 E2       		.byte	-30
 5196 11a7 06       		.byte	6
 5197 11a8 EA       		.byte	-22
 5198 11a9 08       		.byte	8
 5199 11aa EE       		.byte	-18
 5200 11ab 04       		.byte	4
 5201 11ac 10       		.byte	16
 5202 11ad 0C       		.byte	12
 5203 11ae 11       		.byte	17
 5204 11af 01       		.byte	1
 5205 11b0 1A       		.byte	26
 5206 11b1 04       		.byte	4
 5207 11b2 1B       		.byte	27
 5208 11b3 01       		.byte	1
 5209 11b4 1C       		.byte	28
 5210 11b5 0C       		.byte	12
 5211 11b6 1D       		.byte	29
 5212 11b7 01       		.byte	1
 5213 11b8 10       		.byte	16
 5214 11b9 01       		.byte	1
 5215 11ba 0000     		.align	2
 5216              		.type	BS_IOPINS0_0_VAL.4879, %object
 5217              		.size	BS_IOPINS0_0_VAL.4879, 8
 5218              	BS_IOPINS0_0_VAL.4879:
 5219 11bc 03       		.byte	3
 5220 11bd F4       		.byte	-12
 5221 11be F4       		.byte	-12
 5222 11bf 00       		.byte	0
 5223 11c0 F0       		.byte	-16
 5224 11c1 00       		.byte	0
 5225 11c2 00       		.byte	0
 5226 11c3 00       		.byte	0
 5227              		.align	2
 5228              		.type	BS_IOPINS0_7_VAL.4880, %object
 5229              		.size	BS_IOPINS0_7_VAL.4880, 10
 5230              	BS_IOPINS0_7_VAL.4880:
 5231 11c4 40       		.byte	64
 5232 11c5 00       		.byte	0
 5233 11c6 82       		.byte	-126
 5234 11c7 2D       		.byte	45
 5235 11c8 ED       		.byte	-19
 5236 11c9 00       		.byte	0
 5237 11ca 6D       		.byte	109
 5238 11cb 00       		.byte	0
 5239 11cc 00       		.byte	0
ARM GAS  C:\Users\xavieran\AppData\Local\Temp\ccykvWSD.s 			page 140


 5240 11cd 00       		.byte	0
 5241 11ce 0000     		.align	2
 5242              		.type	BS_IOPINS0_8_VAL.4881, %object
 5243              		.size	BS_IOPINS0_8_VAL.4881, 10
 5244              	BS_IOPINS0_8_VAL.4881:
 5245 11d0 00       		.byte	0
 5246 11d1 00       		.byte	0
 5247 11d2 20       		.byte	32
 5248 11d3 18       		.byte	24
 5249 11d4 18       		.byte	24
 5250 11d5 00       		.byte	0
 5251 11d6 18       		.byte	24
 5252 11d7 00       		.byte	0
 5253 11d8 C0       		.byte	-64
 5254 11d9 00       		.byte	0
 5255 11da 0000     		.align	2
 5256              		.type	BS_IOPINS0_1_VAL.4882, %object
 5257              		.size	BS_IOPINS0_1_VAL.4882, 10
 5258              	BS_IOPINS0_1_VAL.4882:
 5259 11dc 80       		.byte	-128
 5260 11dd 00       		.byte	0
 5261 11de 40       		.byte	64
 5262 11df 00       		.byte	0
 5263 11e0 80       		.byte	-128
 5264 11e1 00       		.byte	0
 5265 11e2 80       		.byte	-128
 5266 11e3 00       		.byte	0
 5267 11e4 00       		.byte	0
 5268 11e5 00       		.byte	0
 5269 11e6 0000     		.align	2
 5270              		.type	BS_IOPINS0_2_VAL.4883, %object
 5271              		.size	BS_IOPINS0_2_VAL.4883, 10
 5272              	BS_IOPINS0_2_VAL.4883:
 5273 11e8 30       		.byte	48
 5274 11e9 00       		.byte	0
 5275 11ea 05       		.byte	5
 5276 11eb 00       		.byte	0
 5277 11ec 30       		.byte	48
 5278 11ed 00       		.byte	0
 5279 11ee 30       		.byte	48
 5280 11ef 00       		.byte	0
 5281 11f0 00       		.byte	0
 5282 11f1 00       		.byte	0
 5283 11f2 0000     		.align	2
 5284              		.type	BS_IOPINS0_3_VAL.4884, %object
 5285              		.size	BS_IOPINS0_3_VAL.4884, 10
 5286              	BS_IOPINS0_3_VAL.4884:
 5287 11f4 A8       		.byte	-88
 5288 11f5 00       		.byte	0
 5289 11f6 54       		.byte	84
 5290 11f7 A8       		.byte	-88
 5291 11f8 A8       		.byte	-88
 5292 11f9 00       		.byte	0
 5293 11fa A8       		.byte	-88
 5294 11fb 00       		.byte	0
 5295 11fc 00       		.byte	0
 5296 11fd 00       		.byte	0
ARM GAS  C:\Users\xavieran\AppData\Local\Temp\ccykvWSD.s 			page 141


 5297 11fe 0000     		.align	2
 5298              		.type	BS_IOPINS0_4_VAL.4885, %object
 5299              		.size	BS_IOPINS0_4_VAL.4885, 8
 5300              	BS_IOPINS0_4_VAL.4885:
 5301 1200 F0       		.byte	-16
 5302 1201 03       		.byte	3
 5303 1202 03       		.byte	3
 5304 1203 00       		.byte	0
 5305 1204 03       		.byte	3
 5306 1205 00       		.byte	0
 5307 1206 00       		.byte	0
 5308 1207 01       		.byte	1
 5309              		.align	2
 5310              		.type	BS_IOPINS0_5_VAL.4886, %object
 5311              		.size	BS_IOPINS0_5_VAL.4886, 8
 5312              	BS_IOPINS0_5_VAL.4886:
 5313 1208 F0       		.byte	-16
 5314 1209 83       		.byte	-125
 5315 120a 73       		.byte	115
 5316 120b 00       		.byte	0
 5317 120c 82       		.byte	-126
 5318 120d 00       		.byte	0
 5319 120e 00       		.byte	0
 5320 120f 00       		.byte	0
 5321              		.align	2
 5322              		.type	BS_IOPINS0_6_VAL.4887, %object
 5323              		.size	BS_IOPINS0_6_VAL.4887, 8
 5324              	BS_IOPINS0_6_VAL.4887:
 5325 1210 1F       		.byte	31
 5326 1211 F0       		.byte	-16
 5327 1212 E0       		.byte	-32
 5328 1213 00       		.byte	0
 5329 1214 10       		.byte	16
 5330 1215 00       		.byte	0
 5331 1216 00       		.byte	0
 5332 1217 00       		.byte	0
 5333              		.align	2
 5334              		.type	BS_UCFG_BCTL0_VAL.4902, %object
 5335              		.size	BS_UCFG_BCTL0_VAL.4902, 16
 5336              	BS_UCFG_BCTL0_VAL.4902:
 5337 1218 5C       		.byte	92
 5338 1219 01       		.byte	1
 5339 121a 00       		.byte	0
 5340 121b 00       		.byte	0
 5341 121c 00       		.byte	0
 5342 121d 00       		.byte	0
 5343 121e 00       		.byte	0
 5344 121f 00       		.byte	0
 5345 1220 14       		.byte	20
 5346 1221 01       		.byte	1
 5347 1222 18       		.byte	24
 5348 1223 01       		.byte	1
 5349 1224 4C       		.byte	76
 5350 1225 01       		.byte	1
 5351 1226 54       		.byte	84
 5352 1227 00       		.byte	0
 5353              		.align	2
ARM GAS  C:\Users\xavieran\AppData\Local\Temp\ccykvWSD.s 			page 142


 5354              		.type	BS_UDB_0_4_1_CONFIG_VAL.4901, %object
 5355              		.size	BS_UDB_0_4_1_CONFIG_VAL.4901, 128
 5356              	BS_UDB_0_4_1_CONFIG_VAL.4901:
 5357 1228 20       		.byte	32
 5358 1229 02       		.byte	2
 5359 122a 00       		.byte	0
 5360 122b 00       		.byte	0
 5361 122c 08       		.byte	8
 5362 122d 00       		.byte	0
 5363 122e 05       		.byte	5
 5364 122f 01       		.byte	1
 5365 1230 01       		.byte	1
 5366 1231 A9       		.byte	-87
 5367 1232 04       		.byte	4
 5368 1233 54       		.byte	84
 5369 1234 01       		.byte	1
 5370 1235 4D       		.byte	77
 5371 1236 02       		.byte	2
 5372 1237 92       		.byte	-110
 5373 1238 00       		.byte	0
 5374 1239 CC       		.byte	-52
 5375 123a 02       		.byte	2
 5376 123b 13       		.byte	19
 5377 123c 05       		.byte	5
 5378 123d 00       		.byte	0
 5379 123e 0A       		.byte	10
 5380 123f 02       		.byte	2
 5381 1240 01       		.byte	1
 5382 1241 00       		.byte	0
 5383 1242 02       		.byte	2
 5384 1243 B5       		.byte	-75
 5385 1244 00       		.byte	0
 5386 1245 A5       		.byte	-91
 5387 1246 20       		.byte	32
 5388 1247 4A       		.byte	74
 5389 1248 00       		.byte	0
 5390 1249 1A       		.byte	26
 5391 124a 10       		.byte	16
 5392 124b 60       		.byte	96
 5393 124c 2F       		.byte	47
 5394 124d FF       		.byte	-1
 5395 124e 00       		.byte	0
 5396 124f 00       		.byte	0
 5397 1250 00       		.byte	0
 5398 1251 00       		.byte	0
 5399 1252 00       		.byte	0
 5400 1253 04       		.byte	4
 5401 1254 06       		.byte	6
 5402 1255 04       		.byte	4
 5403 1256 00       		.byte	0
 5404 1257 00       		.byte	0
 5405 1258 00       		.byte	0
 5406 1259 00       		.byte	0
 5407 125a 1F       		.byte	31
 5408 125b 00       		.byte	0
 5409 125c 00       		.byte	0
 5410 125d 00       		.byte	0
ARM GAS  C:\Users\xavieran\AppData\Local\Temp\ccykvWSD.s 			page 143


 5411 125e 20       		.byte	32
 5412 125f FF       		.byte	-1
 5413 1260 00       		.byte	0
 5414 1261 00       		.byte	0
 5415 1262 00       		.byte	0
 5416 1263 00       		.byte	0
 5417 1264 00       		.byte	0
 5418 1265 00       		.byte	0
 5419 1266 00       		.byte	0
 5420 1267 40       		.byte	64
 5421 1268 14       		.byte	20
 5422 1269 00       		.byte	0
 5423 126a 00       		.byte	0
 5424 126b 00       		.byte	0
 5425 126c 00       		.byte	0
 5426 126d EC       		.byte	-20
 5427 126e 00       		.byte	0
 5428 126f 20       		.byte	32
 5429 1270 23       		.byte	35
 5430 1271 FF       		.byte	-1
 5431 1272 FF       		.byte	-1
 5432 1273 FF       		.byte	-1
 5433 1274 00       		.byte	0
 5434 1275 83       		.byte	-125
 5435 1276 03       		.byte	3
 5436 1277 01       		.byte	1
 5437 1278 18       		.byte	24
 5438 1279 00       		.byte	0
 5439 127a 00       		.byte	0
 5440 127b 00       		.byte	0
 5441 127c 01       		.byte	1
 5442 127d 00       		.byte	0
 5443 127e 00       		.byte	0
 5444 127f 00       		.byte	0
 5445 1280 04       		.byte	4
 5446 1281 04       		.byte	4
 5447 1282 04       		.byte	4
 5448 1283 04       		.byte	4
 5449 1284 02       		.byte	2
 5450 1285 66       		.byte	102
 5451 1286 00       		.byte	0
 5452 1287 01       		.byte	1
 5453 1288 40       		.byte	64
 5454 1289 00       		.byte	0
 5455 128a 40       		.byte	64
 5456 128b 00       		.byte	0
 5457 128c 40       		.byte	64
 5458 128d 40       		.byte	64
 5459 128e 80       		.byte	-128
 5460 128f 00       		.byte	0
 5461 1290 80       		.byte	-128
 5462 1291 00       		.byte	0
 5463 1292 80       		.byte	-128
 5464 1293 00       		.byte	0
 5465 1294 80       		.byte	-128
 5466 1295 00       		.byte	0
 5467 1296 80       		.byte	-128
ARM GAS  C:\Users\xavieran\AppData\Local\Temp\ccykvWSD.s 			page 144


 5468 1297 00       		.byte	0
 5469 1298 00       		.byte	0
 5470 1299 00       		.byte	0
 5471 129a 00       		.byte	0
 5472 129b 00       		.byte	0
 5473 129c 00       		.byte	0
 5474 129d 00       		.byte	0
 5475 129e 00       		.byte	0
 5476 129f 00       		.byte	0
 5477 12a0 00       		.byte	0
 5478 12a1 00       		.byte	0
 5479 12a2 00       		.byte	0
 5480 12a3 00       		.byte	0
 5481 12a4 00       		.byte	0
 5482 12a5 00       		.byte	0
 5483 12a6 00       		.byte	0
 5484 12a7 00       		.byte	0
 5485              		.align	2
 5486              		.type	BS_IDMUX_IRQ_VAL.4900, %object
 5487              		.size	BS_IDMUX_IRQ_VAL.4900, 8
 5488              	BS_IDMUX_IRQ_VAL.4900:
 5489 12a8 FF       		.byte	-1
 5490 12a9 AB       		.byte	-85
 5491 12aa 0F       		.byte	15
 5492 12ab C0       		.byte	-64
 5493 12ac 00       		.byte	0
 5494 12ad 00       		.byte	0
 5495 12ae 00       		.byte	0
 5496 12af 00       		.byte	0
 5497              		.text
 5498              	.Letext0:
 5499              		.file 2 "c:\\program files (x86)\\cypress\\psoc creator\\3.2\\psoc creator\\import\\gnu\\arm\\4.8.
 5500              		.file 3 ".\\Generated_Source\\PSoC5\\cytypes.h"
 5501              		.section	.debug_info,"",%progbits
 5502              	.Ldebug_info0:
 5503 0000 EB050000 		.4byte	0x5eb
 5504 0004 0400     		.2byte	0x4
 5505 0006 00000000 		.4byte	.Ldebug_abbrev0
 5506 000a 04       		.byte	0x4
 5507 000b 01       		.uleb128 0x1
 5508 000c 14020000 		.4byte	.LASF65
 5509 0010 01       		.byte	0x1
 5510 0011 5F010000 		.4byte	.LASF66
 5511 0015 EE020000 		.4byte	.LASF67
 5512 0019 00000000 		.4byte	.Ldebug_ranges0+0
 5513 001d 00000000 		.4byte	0
 5514 0021 00000000 		.4byte	.Ldebug_line0
 5515 0025 02       		.uleb128 0x2
 5516 0026 04       		.byte	0x4
 5517 0027 05       		.byte	0x5
 5518 0028 696E7400 		.ascii	"int\000"
 5519 002c 03       		.uleb128 0x3
 5520 002d 10000000 		.4byte	.LASF11
 5521 0031 02       		.byte	0x2
 5522 0032 D4       		.byte	0xd4
 5523 0033 37000000 		.4byte	0x37
 5524 0037 04       		.uleb128 0x4
ARM GAS  C:\Users\xavieran\AppData\Local\Temp\ccykvWSD.s 			page 145


 5525 0038 04       		.byte	0x4
 5526 0039 07       		.byte	0x7
 5527 003a 49010000 		.4byte	.LASF0
 5528 003e 04       		.uleb128 0x4
 5529 003f 01       		.byte	0x1
 5530 0040 06       		.byte	0x6
 5531 0041 9A000000 		.4byte	.LASF1
 5532 0045 04       		.uleb128 0x4
 5533 0046 01       		.byte	0x1
 5534 0047 08       		.byte	0x8
 5535 0048 D6020000 		.4byte	.LASF2
 5536 004c 04       		.uleb128 0x4
 5537 004d 02       		.byte	0x2
 5538 004e 05       		.byte	0x5
 5539 004f E4020000 		.4byte	.LASF3
 5540 0053 04       		.uleb128 0x4
 5541 0054 02       		.byte	0x2
 5542 0055 07       		.byte	0x7
 5543 0056 C5010000 		.4byte	.LASF4
 5544 005a 04       		.uleb128 0x4
 5545 005b 04       		.byte	0x4
 5546 005c 05       		.byte	0x5
 5547 005d E8000000 		.4byte	.LASF5
 5548 0061 04       		.uleb128 0x4
 5549 0062 04       		.byte	0x4
 5550 0063 07       		.byte	0x7
 5551 0064 87010000 		.4byte	.LASF6
 5552 0068 04       		.uleb128 0x4
 5553 0069 08       		.byte	0x8
 5554 006a 05       		.byte	0x5
 5555 006b 8C000000 		.4byte	.LASF7
 5556 006f 04       		.uleb128 0x4
 5557 0070 08       		.byte	0x8
 5558 0071 07       		.byte	0x7
 5559 0072 47000000 		.4byte	.LASF8
 5560 0076 04       		.uleb128 0x4
 5561 0077 04       		.byte	0x4
 5562 0078 07       		.byte	0x7
 5563 0079 F9010000 		.4byte	.LASF9
 5564 007d 05       		.uleb128 0x5
 5565 007e 04       		.byte	0x4
 5566 007f 04       		.uleb128 0x4
 5567 0080 01       		.byte	0x1
 5568 0081 08       		.byte	0x8
 5569 0082 7A030000 		.4byte	.LASF10
 5570 0086 03       		.uleb128 0x3
 5571 0087 0F010000 		.4byte	.LASF12
 5572 008b 03       		.byte	0x3
 5573 008c B3       		.byte	0xb3
 5574 008d 45000000 		.4byte	0x45
 5575 0091 03       		.uleb128 0x3
 5576 0092 00000000 		.4byte	.LASF13
 5577 0096 03       		.byte	0x3
 5578 0097 B4       		.byte	0xb4
 5579 0098 53000000 		.4byte	0x53
 5580 009c 03       		.uleb128 0x3
 5581 009d 1C010000 		.4byte	.LASF14
ARM GAS  C:\Users\xavieran\AppData\Local\Temp\ccykvWSD.s 			page 146


 5582 00a1 03       		.byte	0x3
 5583 00a2 B5       		.byte	0xb5
 5584 00a3 61000000 		.4byte	0x61
 5585 00a7 04       		.uleb128 0x4
 5586 00a8 04       		.byte	0x4
 5587 00a9 04       		.byte	0x4
 5588 00aa C3020000 		.4byte	.LASF15
 5589 00ae 04       		.uleb128 0x4
 5590 00af 08       		.byte	0x8
 5591 00b0 04       		.byte	0x4
 5592 00b1 15010000 		.4byte	.LASF16
 5593 00b5 06       		.uleb128 0x6
 5594 00b6 D1020000 		.4byte	.LASF17
 5595 00ba 03       		.byte	0x3
 5596 00bb 5D01     		.2byte	0x15d
 5597 00bd C1000000 		.4byte	0xc1
 5598 00c1 07       		.uleb128 0x7
 5599 00c2 86000000 		.4byte	0x86
 5600 00c6 06       		.uleb128 0x6
 5601 00c7 09010000 		.4byte	.LASF18
 5602 00cb 03       		.byte	0x3
 5603 00cc 5E01     		.2byte	0x15e
 5604 00ce D2000000 		.4byte	0xd2
 5605 00d2 07       		.uleb128 0x7
 5606 00d3 91000000 		.4byte	0x91
 5607 00d7 08       		.uleb128 0x8
 5608 00d8 02       		.byte	0x2
 5609 00d9 01       		.byte	0x1
 5610 00da 7E       		.byte	0x7e
 5611 00db F8000000 		.4byte	0xf8
 5612 00df 09       		.uleb128 0x9
 5613 00e0 AE030000 		.4byte	.LASF19
 5614 00e4 01       		.byte	0x1
 5615 00e5 80       		.byte	0x80
 5616 00e6 86000000 		.4byte	0x86
 5617 00ea 00       		.byte	0
 5618 00eb 09       		.uleb128 0x9
 5619 00ec 43010000 		.4byte	.LASF20
 5620 00f0 01       		.byte	0x1
 5621 00f1 81       		.byte	0x81
 5622 00f2 86000000 		.4byte	0x86
 5623 00f6 01       		.byte	0x1
 5624 00f7 00       		.byte	0
 5625 00f8 03       		.uleb128 0x3
 5626 00f9 67030000 		.4byte	.LASF21
 5627 00fd 01       		.byte	0x1
 5628 00fe 82       		.byte	0x82
 5629 00ff D7000000 		.4byte	0xd7
 5630 0103 0A       		.uleb128 0xa
 5631 0104 B8000000 		.4byte	.LASF22
 5632 0108 01       		.byte	0x1
 5633 0109 3C       		.byte	0x3c
 5634 010a 00000000 		.4byte	.LFB0
 5635 010e 1A000000 		.4byte	.LFE0-.LFB0
 5636 0112 01       		.uleb128 0x1
 5637 0113 9C       		.byte	0x9c
 5638 0114 31010000 		.4byte	0x131
ARM GAS  C:\Users\xavieran\AppData\Local\Temp\ccykvWSD.s 			page 147


 5639 0118 0B       		.uleb128 0xb
 5640 0119 7300     		.ascii	"s\000"
 5641 011b 01       		.byte	0x1
 5642 011c 3C       		.byte	0x3c
 5643 011d 7D000000 		.4byte	0x7d
 5644 0121 02       		.uleb128 0x2
 5645 0122 91       		.byte	0x91
 5646 0123 74       		.sleb128 -12
 5647 0124 0B       		.uleb128 0xb
 5648 0125 6E00     		.ascii	"n\000"
 5649 0127 01       		.byte	0x1
 5650 0128 3C       		.byte	0x3c
 5651 0129 2C000000 		.4byte	0x2c
 5652 012d 02       		.uleb128 0x2
 5653 012e 91       		.byte	0x91
 5654 012f 70       		.sleb128 -16
 5655 0130 00       		.byte	0
 5656 0131 0A       		.uleb128 0xa
 5657 0132 CE030000 		.4byte	.LASF23
 5658 0136 01       		.byte	0x1
 5659 0137 43       		.byte	0x43
 5660 0138 00000000 		.4byte	.LFB1
 5661 013c 1C000000 		.4byte	.LFE1-.LFB1
 5662 0140 01       		.uleb128 0x1
 5663 0141 9C       		.byte	0x9c
 5664 0142 6F010000 		.4byte	0x16f
 5665 0146 0C       		.uleb128 0xc
 5666 0147 BE020000 		.4byte	.LASF24
 5667 014b 01       		.byte	0x1
 5668 014c 43       		.byte	0x43
 5669 014d 7D000000 		.4byte	0x7d
 5670 0151 02       		.uleb128 0x2
 5671 0152 91       		.byte	0x91
 5672 0153 74       		.sleb128 -12
 5673 0154 0B       		.uleb128 0xb
 5674 0155 73726300 		.ascii	"src\000"
 5675 0159 01       		.byte	0x1
 5676 015a 43       		.byte	0x43
 5677 015b 6F010000 		.4byte	0x16f
 5678 015f 02       		.uleb128 0x2
 5679 0160 91       		.byte	0x91
 5680 0161 70       		.sleb128 -16
 5681 0162 0B       		.uleb128 0xb
 5682 0163 6E00     		.ascii	"n\000"
 5683 0165 01       		.byte	0x1
 5684 0166 43       		.byte	0x43
 5685 0167 2C000000 		.4byte	0x2c
 5686 016b 02       		.uleb128 0x2
 5687 016c 91       		.byte	0x91
 5688 016d 6C       		.sleb128 -20
 5689 016e 00       		.byte	0
 5690 016f 0D       		.uleb128 0xd
 5691 0170 04       		.byte	0x4
 5692 0171 75010000 		.4byte	0x175
 5693 0175 0E       		.uleb128 0xe
 5694 0176 0A       		.uleb128 0xa
 5695 0177 E9010000 		.4byte	.LASF25
ARM GAS  C:\Users\xavieran\AppData\Local\Temp\ccykvWSD.s 			page 148


 5696 017b 01       		.byte	0x1
 5697 017c 4A       		.byte	0x4a
 5698 017d 00000000 		.4byte	.LFB2
 5699 0181 1C000000 		.4byte	.LFE2-.LFB2
 5700 0185 01       		.uleb128 0x1
 5701 0186 9C       		.byte	0x9c
 5702 0187 B4010000 		.4byte	0x1b4
 5703 018b 0C       		.uleb128 0xc
 5704 018c BE020000 		.4byte	.LASF24
 5705 0190 01       		.byte	0x1
 5706 0191 4A       		.byte	0x4a
 5707 0192 7D000000 		.4byte	0x7d
 5708 0196 02       		.uleb128 0x2
 5709 0197 91       		.byte	0x91
 5710 0198 74       		.sleb128 -12
 5711 0199 0B       		.uleb128 0xb
 5712 019a 73726300 		.ascii	"src\000"
 5713 019e 01       		.byte	0x1
 5714 019f 4A       		.byte	0x4a
 5715 01a0 6F010000 		.4byte	0x16f
 5716 01a4 02       		.uleb128 0x2
 5717 01a5 91       		.byte	0x91
 5718 01a6 70       		.sleb128 -16
 5719 01a7 0B       		.uleb128 0xb
 5720 01a8 6E00     		.ascii	"n\000"
 5721 01aa 01       		.byte	0x1
 5722 01ab 4A       		.byte	0x4a
 5723 01ac 2C000000 		.4byte	0x2c
 5724 01b0 02       		.uleb128 0x2
 5725 01b1 91       		.byte	0x91
 5726 01b2 6C       		.sleb128 -20
 5727 01b3 00       		.byte	0
 5728 01b4 0F       		.uleb128 0xf
 5729 01b5 17000000 		.4byte	.LASF26
 5730 01b9 01       		.byte	0x1
 5731 01ba 6A       		.byte	0x6a
 5732 01bb 00000000 		.4byte	.LFB3
 5733 01bf 0C000000 		.4byte	.LFE3-.LFB3
 5734 01c3 01       		.uleb128 0x1
 5735 01c4 9C       		.byte	0x9c
 5736 01c5 D8010000 		.4byte	0x1d8
 5737 01c9 0C       		.uleb128 0xc
 5738 01ca CD000000 		.4byte	.LASF27
 5739 01ce 01       		.byte	0x1
 5740 01cf 6A       		.byte	0x6a
 5741 01d0 86000000 		.4byte	0x86
 5742 01d4 02       		.uleb128 0x2
 5743 01d5 91       		.byte	0x91
 5744 01d6 77       		.sleb128 -9
 5745 01d7 00       		.byte	0
 5746 01d8 0F       		.uleb128 0xf
 5747 01d9 AE010000 		.4byte	.LASF28
 5748 01dd 01       		.byte	0x1
 5749 01de 95       		.byte	0x95
 5750 01df 00000000 		.4byte	.LFB4
 5751 01e3 72000000 		.4byte	.LFE4-.LFB4
 5752 01e7 01       		.uleb128 0x1
ARM GAS  C:\Users\xavieran\AppData\Local\Temp\ccykvWSD.s 			page 149


 5753 01e8 9C       		.byte	0x9c
 5754 01e9 48020000 		.4byte	0x248
 5755 01ed 0C       		.uleb128 0xc
 5756 01ee 5E000000 		.4byte	.LASF29
 5757 01f2 01       		.byte	0x1
 5758 01f3 95       		.byte	0x95
 5759 01f4 48020000 		.4byte	0x248
 5760 01f8 02       		.uleb128 0x2
 5761 01f9 91       		.byte	0x91
 5762 01fa 64       		.sleb128 -28
 5763 01fb 0C       		.uleb128 0xc
 5764 01fc 3C000000 		.4byte	.LASF30
 5765 0200 01       		.byte	0x1
 5766 0201 95       		.byte	0x95
 5767 0202 53020000 		.4byte	0x253
 5768 0206 02       		.uleb128 0x2
 5769 0207 91       		.byte	0x91
 5770 0208 60       		.sleb128 -32
 5771 0209 10       		.uleb128 0x10
 5772 020a 6900     		.ascii	"i\000"
 5773 020c 01       		.byte	0x1
 5774 020d 98       		.byte	0x98
 5775 020e 9C000000 		.4byte	0x9c
 5776 0212 02       		.uleb128 0x2
 5777 0213 91       		.byte	0x91
 5778 0214 74       		.sleb128 -12
 5779 0215 10       		.uleb128 0x10
 5780 0216 6A00     		.ascii	"j\000"
 5781 0218 01       		.byte	0x1
 5782 0219 98       		.byte	0x98
 5783 021a 9C000000 		.4byte	0x9c
 5784 021e 02       		.uleb128 0x2
 5785 021f 91       		.byte	0x91
 5786 0220 70       		.sleb128 -16
 5787 0221 11       		.uleb128 0x11
 5788 0222 14000000 		.4byte	.LBB2
 5789 0226 48000000 		.4byte	.LBE2-.LBB2
 5790 022a 12       		.uleb128 0x12
 5791 022b 07000000 		.4byte	.LASF31
 5792 022f 01       		.byte	0x1
 5793 0230 9B       		.byte	0x9b
 5794 0231 9C000000 		.4byte	0x9c
 5795 0235 02       		.uleb128 0x2
 5796 0236 91       		.byte	0x91
 5797 0237 68       		.sleb128 -24
 5798 0238 12       		.uleb128 0x12
 5799 0239 23010000 		.4byte	.LASF32
 5800 023d 01       		.byte	0x1
 5801 023e 9C       		.byte	0x9c
 5802 023f 86000000 		.4byte	0x86
 5803 0243 02       		.uleb128 0x2
 5804 0244 91       		.byte	0x91
 5805 0245 6F       		.sleb128 -17
 5806 0246 00       		.byte	0
 5807 0247 00       		.byte	0
 5808 0248 0D       		.uleb128 0xd
 5809 0249 04       		.byte	0x4
ARM GAS  C:\Users\xavieran\AppData\Local\Temp\ccykvWSD.s 			page 150


 5810 024a 4E020000 		.4byte	0x24e
 5811 024e 13       		.uleb128 0x13
 5812 024f 9C000000 		.4byte	0x9c
 5813 0253 0D       		.uleb128 0xd
 5814 0254 04       		.byte	0x4
 5815 0255 59020000 		.4byte	0x259
 5816 0259 13       		.uleb128 0x13
 5817 025a F8000000 		.4byte	0xf8
 5818 025e 0A       		.uleb128 0xa
 5819 025f C2000000 		.4byte	.LASF33
 5820 0263 01       		.byte	0x1
 5821 0264 B8       		.byte	0xb8
 5822 0265 00000000 		.4byte	.LFB5
 5823 0269 80010000 		.4byte	.LFE5-.LFB5
 5824 026d 01       		.uleb128 0x1
 5825 026e 9C       		.byte	0x9c
 5826 026f 90020000 		.4byte	0x290
 5827 0273 12       		.uleb128 0x12
 5828 0274 99010000 		.4byte	.LASF34
 5829 0278 01       		.byte	0x1
 5830 0279 BA       		.byte	0xba
 5831 027a 9C000000 		.4byte	0x9c
 5832 027e 02       		.uleb128 0x2
 5833 027f 91       		.byte	0x91
 5834 0280 74       		.sleb128 -12
 5835 0281 12       		.uleb128 0x12
 5836 0282 4E030000 		.4byte	.LASF35
 5837 0286 01       		.byte	0x1
 5838 0287 BB       		.byte	0xbb
 5839 0288 86000000 		.4byte	0x86
 5840 028c 02       		.uleb128 0x2
 5841 028d 91       		.byte	0x91
 5842 028e 73       		.sleb128 -13
 5843 028f 00       		.byte	0
 5844 0290 14       		.uleb128 0x14
 5845 0291 7B000000 		.4byte	.LASF36
 5846 0295 01       		.byte	0x1
 5847 0296 0701     		.2byte	0x107
 5848 0298 00000000 		.4byte	.LFB6
 5849 029c 44000000 		.4byte	.LFE6-.LFB6
 5850 02a0 01       		.uleb128 0x1
 5851 02a1 9C       		.byte	0x9c
 5852 02a2 B6020000 		.4byte	0x2b6
 5853 02a6 15       		.uleb128 0x15
 5854 02a7 02020000 		.4byte	.LASF37
 5855 02ab 01       		.byte	0x1
 5856 02ac 0901     		.2byte	0x109
 5857 02ae 86000000 		.4byte	0x86
 5858 02b2 02       		.uleb128 0x2
 5859 02b3 91       		.byte	0x91
 5860 02b4 77       		.sleb128 -9
 5861 02b5 00       		.byte	0
 5862 02b6 16       		.uleb128 0x16
 5863 02b7 98030000 		.4byte	.LASF40
 5864 02bb 01       		.byte	0x1
 5865 02bc 2101     		.2byte	0x121
 5866 02be 00000000 		.4byte	.LFB7
ARM GAS  C:\Users\xavieran\AppData\Local\Temp\ccykvWSD.s 			page 151


 5867 02c2 28000000 		.4byte	.LFE7-.LFB7
 5868 02c6 01       		.uleb128 0x1
 5869 02c7 9C       		.byte	0x9c
 5870 02c8 EB020000 		.4byte	0x2eb
 5871 02cc 17       		.uleb128 0x17
 5872 02cd C6030000 		.4byte	.LASF38
 5873 02d1 01       		.byte	0x1
 5874 02d2 2101     		.2byte	0x121
 5875 02d4 86000000 		.4byte	0x86
 5876 02d8 02       		.uleb128 0x2
 5877 02d9 91       		.byte	0x91
 5878 02da 6F       		.sleb128 -17
 5879 02db 15       		.uleb128 0x15
 5880 02dc 29010000 		.4byte	.LASF39
 5881 02e0 01       		.byte	0x1
 5882 02e1 2301     		.2byte	0x123
 5883 02e3 86000000 		.4byte	0x86
 5884 02e7 02       		.uleb128 0x2
 5885 02e8 91       		.byte	0x91
 5886 02e9 77       		.sleb128 -9
 5887 02ea 00       		.byte	0
 5888 02eb 18       		.uleb128 0x18
 5889 02ec 14040000 		.4byte	.LASF41
 5890 02f0 01       		.byte	0x1
 5891 02f1 4301     		.2byte	0x143
 5892 02f3 00000000 		.4byte	.LFB8
 5893 02f7 0C020000 		.4byte	.LFE8-.LFB8
 5894 02fb 01       		.uleb128 0x1
 5895 02fc 9C       		.byte	0x9c
 5896 02fd 47050000 		.4byte	0x547
 5897 0301 15       		.uleb128 0x15
 5898 0302 3D030000 		.4byte	.LASF42
 5899 0306 01       		.byte	0x1
 5900 0307 4601     		.2byte	0x146
 5901 0309 57050000 		.4byte	0x557
 5902 030d 05       		.uleb128 0x5
 5903 030e 03       		.byte	0x3
 5904 030f BC110000 		.4byte	BS_IOPINS0_0_VAL.4879
 5905 0313 15       		.uleb128 0x15
 5906 0314 2B000000 		.4byte	.LASF43
 5907 0318 01       		.byte	0x1
 5908 0319 4A01     		.2byte	0x14a
 5909 031b 6C050000 		.4byte	0x56c
 5910 031f 05       		.uleb128 0x5
 5911 0320 03       		.byte	0x3
 5912 0321 C4110000 		.4byte	BS_IOPINS0_7_VAL.4880
 5913 0325 15       		.uleb128 0x15
 5914 0326 56030000 		.4byte	.LASF44
 5915 032a 01       		.byte	0x1
 5916 032b 4E01     		.2byte	0x14e
 5917 032d 71050000 		.4byte	0x571
 5918 0331 05       		.uleb128 0x5
 5919 0332 03       		.byte	0x3
 5920 0333 D0110000 		.4byte	BS_IOPINS0_8_VAL.4881
 5921 0337 15       		.uleb128 0x15
 5922 0338 32010000 		.4byte	.LASF45
 5923 033c 01       		.byte	0x1
ARM GAS  C:\Users\xavieran\AppData\Local\Temp\ccykvWSD.s 			page 152


 5924 033d 5201     		.2byte	0x152
 5925 033f 76050000 		.4byte	0x576
 5926 0343 05       		.uleb128 0x5
 5927 0344 03       		.byte	0x3
 5928 0345 DC110000 		.4byte	BS_IOPINS0_1_VAL.4882
 5929 0349 15       		.uleb128 0x15
 5930 034a E2030000 		.4byte	.LASF46
 5931 034e 01       		.byte	0x1
 5932 034f 5601     		.2byte	0x156
 5933 0351 7B050000 		.4byte	0x57b
 5934 0355 05       		.uleb128 0x5
 5935 0356 03       		.byte	0x3
 5936 0357 E8110000 		.4byte	BS_IOPINS0_2_VAL.4883
 5937 035b 15       		.uleb128 0x15
 5938 035c AD020000 		.4byte	.LASF47
 5939 0360 01       		.byte	0x1
 5940 0361 5A01     		.2byte	0x15a
 5941 0363 80050000 		.4byte	0x580
 5942 0367 05       		.uleb128 0x5
 5943 0368 03       		.byte	0x3
 5944 0369 F4110000 		.4byte	BS_IOPINS0_3_VAL.4884
 5945 036d 15       		.uleb128 0x15
 5946 036e D7000000 		.4byte	.LASF48
 5947 0372 01       		.byte	0x1
 5948 0373 5E01     		.2byte	0x15e
 5949 0375 85050000 		.4byte	0x585
 5950 0379 05       		.uleb128 0x5
 5951 037a 03       		.byte	0x3
 5952 037b 00120000 		.4byte	BS_IOPINS0_4_VAL.4885
 5953 037f 15       		.uleb128 0x15
 5954 0380 B5030000 		.4byte	.LASF49
 5955 0384 01       		.byte	0x1
 5956 0385 6201     		.2byte	0x162
 5957 0387 8A050000 		.4byte	0x58a
 5958 038b 05       		.uleb128 0x5
 5959 038c 03       		.byte	0x3
 5960 038d 08120000 		.4byte	BS_IOPINS0_5_VAL.4886
 5961 0391 15       		.uleb128 0x15
 5962 0392 D8010000 		.4byte	.LASF50
 5963 0396 01       		.byte	0x1
 5964 0397 6601     		.2byte	0x166
 5965 0399 8F050000 		.4byte	0x58f
 5966 039d 05       		.uleb128 0x5
 5967 039e 03       		.byte	0x3
 5968 039f 10120000 		.4byte	BS_IOPINS0_6_VAL.4887
 5969 03a3 11       		.uleb128 0x11
 5970 03a4 18000000 		.4byte	.LBB3
 5971 03a8 CA000000 		.4byte	.LBE3-.LBB3
 5972 03ac 15       		.uleb128 0x15
 5973 03ad A6000000 		.4byte	.LASF51
 5974 03b1 01       		.byte	0x1
 5975 03b2 7601     		.2byte	0x176
 5976 03b4 A4050000 		.4byte	0x5a4
 5977 03b8 05       		.uleb128 0x5
 5978 03b9 03       		.byte	0x3
 5979 03ba 50000000 		.4byte	cy_cfg_addr_table.4888
 5980 03be 15       		.uleb128 0x15
ARM GAS  C:\Users\xavieran\AppData\Local\Temp\ccykvWSD.s 			page 153


 5981 03bf 69000000 		.4byte	.LASF52
 5982 03c3 01       		.byte	0x1
 5983 03c4 A401     		.2byte	0x1a4
 5984 03c6 BA050000 		.4byte	0x5ba
 5985 03ca 05       		.uleb128 0x5
 5986 03cb 03       		.byte	0x3
 5987 03cc FC000000 		.4byte	cy_cfg_data_table.4889
 5988 03d0 19       		.uleb128 0x19
 5989 03d1 06       		.byte	0x6
 5990 03d2 01       		.byte	0x1
 5991 03d3 080A     		.2byte	0xa08
 5992 03d5 F4030000 		.4byte	0x3f4
 5993 03d9 1A       		.uleb128 0x1a
 5994 03da DA030000 		.4byte	.LASF53
 5995 03de 01       		.byte	0x1
 5996 03df 090A     		.2byte	0xa09
 5997 03e1 7D000000 		.4byte	0x7d
 5998 03e5 00       		.byte	0
 5999 03e6 1A       		.uleb128 0x1a
 6000 03e7 C0010000 		.4byte	.LASF54
 6001 03eb 01       		.byte	0x1
 6002 03ec 0A0A     		.2byte	0xa0a
 6003 03ee 91000000 		.4byte	0x91
 6004 03f2 04       		.byte	0x4
 6005 03f3 00       		.byte	0
 6006 03f4 06       		.uleb128 0x6
 6007 03f5 90020000 		.4byte	.LASF55
 6008 03f9 01       		.byte	0x1
 6009 03fa 0B0A     		.2byte	0xa0b
 6010 03fc D0030000 		.4byte	0x3d0
 6011 0400 19       		.uleb128 0x19
 6012 0401 0A       		.byte	0xa
 6013 0402 01       		.byte	0x1
 6014 0403 0E0A     		.2byte	0xa0e
 6015 0405 31040000 		.4byte	0x431
 6016 0409 1A       		.uleb128 0x1a
 6017 040a BE020000 		.4byte	.LASF24
 6018 040e 01       		.byte	0x1
 6019 040f 0F0A     		.2byte	0xa0f
 6020 0411 7D000000 		.4byte	0x7d
 6021 0415 00       		.byte	0
 6022 0416 1B       		.uleb128 0x1b
 6023 0417 73726300 		.ascii	"src\000"
 6024 041b 01       		.byte	0x1
 6025 041c 100A     		.2byte	0xa10
 6026 041e 6F010000 		.4byte	0x16f
 6027 0422 04       		.byte	0x4
 6028 0423 1A       		.uleb128 0x1a
 6029 0424 C0010000 		.4byte	.LASF54
 6030 0428 01       		.byte	0x1
 6031 0429 110A     		.2byte	0xa11
 6032 042b 91000000 		.4byte	0x91
 6033 042f 08       		.byte	0x8
 6034 0430 00       		.byte	0
 6035 0431 06       		.uleb128 0x6
 6036 0432 A1010000 		.4byte	.LASF56
 6037 0436 01       		.byte	0x1
ARM GAS  C:\Users\xavieran\AppData\Local\Temp\ccykvWSD.s 			page 154


 6038 0437 120A     		.2byte	0xa12
 6039 0439 00040000 		.4byte	0x400
 6040 043d 1C       		.uleb128 0x1c
 6041 043e F4030000 		.4byte	0x3f4
 6042 0442 4D040000 		.4byte	0x44d
 6043 0446 1D       		.uleb128 0x1d
 6044 0447 76000000 		.4byte	0x76
 6045 044b 07       		.byte	0x7
 6046 044c 00       		.byte	0
 6047 044d 15       		.uleb128 0x15
 6048 044e 9D020000 		.4byte	.LASF57
 6049 0452 01       		.byte	0x1
 6050 0453 140A     		.2byte	0xa14
 6051 0455 5F040000 		.4byte	0x45f
 6052 0459 05       		.uleb128 0x5
 6053 045a 03       		.byte	0x3
 6054 045b 00000000 		.4byte	cfg_memset_list.4899
 6055 045f 13       		.uleb128 0x13
 6056 0460 3D040000 		.4byte	0x43d
 6057 0464 15       		.uleb128 0x15
 6058 0465 F3030000 		.4byte	.LASF58
 6059 0469 01       		.byte	0x1
 6060 046a 210A     		.2byte	0xa21
 6061 046c BF050000 		.4byte	0x5bf
 6062 0470 05       		.uleb128 0x5
 6063 0471 03       		.byte	0x3
 6064 0472 A8120000 		.4byte	BS_IDMUX_IRQ_VAL.4900
 6065 0476 15       		.uleb128 0x15
 6066 0477 F1000000 		.4byte	.LASF59
 6067 047b 01       		.byte	0x1
 6068 047c 250A     		.2byte	0xa25
 6069 047e D4050000 		.4byte	0x5d4
 6070 0482 05       		.uleb128 0x5
 6071 0483 03       		.byte	0x3
 6072 0484 28120000 		.4byte	BS_UDB_0_4_1_CONFIG_VAL.4901
 6073 0488 15       		.uleb128 0x15
 6074 0489 86030000 		.4byte	.LASF60
 6075 048d 01       		.byte	0x1
 6076 048e 300A     		.2byte	0xa30
 6077 0490 E9050000 		.4byte	0x5e9
 6078 0494 05       		.uleb128 0x5
 6079 0495 03       		.byte	0x3
 6080 0496 18120000 		.4byte	BS_UCFG_BCTL0_VAL.4902
 6081 049a 1C       		.uleb128 0x1c
 6082 049b 31040000 		.4byte	0x431
 6083 049f AA040000 		.4byte	0x4aa
 6084 04a3 1D       		.uleb128 0x1d
 6085 04a4 76000000 		.4byte	0x76
 6086 04a8 02       		.byte	0x2
 6087 04a9 00       		.byte	0
 6088 04aa 15       		.uleb128 0x15
 6089 04ab 04040000 		.4byte	.LASF61
 6090 04af 01       		.byte	0x1
 6091 04b0 330A     		.2byte	0xa33
 6092 04b2 BC040000 		.4byte	0x4bc
 6093 04b6 05       		.uleb128 0x5
 6094 04b7 03       		.byte	0x3
ARM GAS  C:\Users\xavieran\AppData\Local\Temp\ccykvWSD.s 			page 155


 6095 04b8 30000000 		.4byte	cfg_memcpy_list.4903
 6096 04bc 13       		.uleb128 0x13
 6097 04bd 9A040000 		.4byte	0x49a
 6098 04c1 1E       		.uleb128 0x1e
 6099 04c2 6900     		.ascii	"i\000"
 6100 04c4 01       		.byte	0x1
 6101 04c5 3A0A     		.2byte	0xa3a
 6102 04c7 86000000 		.4byte	0x86
 6103 04cb 02       		.uleb128 0x2
 6104 04cc 91       		.byte	0x91
 6105 04cd 77       		.sleb128 -9
 6106 04ce 1F       		.uleb128 0x1f
 6107 04cf 1E000000 		.4byte	.LBB4
 6108 04d3 22000000 		.4byte	.LBE4-.LBB4
 6109 04d7 F5040000 		.4byte	0x4f5
 6110 04db 1E       		.uleb128 0x1e
 6111 04dc 6D7300   		.ascii	"ms\000"
 6112 04df 01       		.byte	0x1
 6113 04e0 3F0A     		.2byte	0xa3f
 6114 04e2 E9040000 		.4byte	0x4e9
 6115 04e6 02       		.uleb128 0x2
 6116 04e7 91       		.byte	0x91
 6117 04e8 70       		.sleb128 -16
 6118 04e9 0D       		.uleb128 0xd
 6119 04ea 04       		.byte	0x4
 6120 04eb EF040000 		.4byte	0x4ef
 6121 04ef 13       		.uleb128 0x13
 6122 04f0 F4030000 		.4byte	0x3f4
 6123 04f4 00       		.byte	0
 6124 04f5 11       		.uleb128 0x11
 6125 04f6 52000000 		.4byte	.LBB5
 6126 04fa 34000000 		.4byte	.LBE5-.LBB5
 6127 04fe 1E       		.uleb128 0x1e
 6128 04ff 6D6300   		.ascii	"mc\000"
 6129 0502 01       		.byte	0x1
 6130 0503 460A     		.2byte	0xa46
 6131 0505 0C050000 		.4byte	0x50c
 6132 0509 02       		.uleb128 0x2
 6133 050a 91       		.byte	0x91
 6134 050b 6C       		.sleb128 -20
 6135 050c 0D       		.uleb128 0xd
 6136 050d 04       		.byte	0x4
 6137 050e 12050000 		.4byte	0x512
 6138 0512 13       		.uleb128 0x13
 6139 0513 31040000 		.4byte	0x431
 6140 0517 15       		.uleb128 0x15
 6141 0518 C9020000 		.4byte	.LASF62
 6142 051c 01       		.byte	0x1
 6143 051d 470A     		.2byte	0xa47
 6144 051f 7D000000 		.4byte	0x7d
 6145 0523 02       		.uleb128 0x2
 6146 0524 91       		.byte	0x91
 6147 0525 68       		.sleb128 -24
 6148 0526 15       		.uleb128 0x15
 6149 0527 7F030000 		.4byte	.LASF63
 6150 052b 01       		.byte	0x1
 6151 052c 480A     		.2byte	0xa48
ARM GAS  C:\Users\xavieran\AppData\Local\Temp\ccykvWSD.s 			page 156


 6152 052e 6F010000 		.4byte	0x16f
 6153 0532 02       		.uleb128 0x2
 6154 0533 91       		.byte	0x91
 6155 0534 64       		.sleb128 -28
 6156 0535 15       		.uleb128 0x15
 6157 0536 56010000 		.4byte	.LASF64
 6158 053a 01       		.byte	0x1
 6159 053b 490A     		.2byte	0xa49
 6160 053d 91000000 		.4byte	0x91
 6161 0541 02       		.uleb128 0x2
 6162 0542 91       		.byte	0x91
 6163 0543 62       		.sleb128 -30
 6164 0544 00       		.byte	0
 6165 0545 00       		.byte	0
 6166 0546 00       		.byte	0
 6167 0547 1C       		.uleb128 0x1c
 6168 0548 86000000 		.4byte	0x86
 6169 054c 57050000 		.4byte	0x557
 6170 0550 1D       		.uleb128 0x1d
 6171 0551 76000000 		.4byte	0x76
 6172 0555 07       		.byte	0x7
 6173 0556 00       		.byte	0
 6174 0557 13       		.uleb128 0x13
 6175 0558 47050000 		.4byte	0x547
 6176 055c 1C       		.uleb128 0x1c
 6177 055d 86000000 		.4byte	0x86
 6178 0561 6C050000 		.4byte	0x56c
 6179 0565 1D       		.uleb128 0x1d
 6180 0566 76000000 		.4byte	0x76
 6181 056a 09       		.byte	0x9
 6182 056b 00       		.byte	0
 6183 056c 13       		.uleb128 0x13
 6184 056d 5C050000 		.4byte	0x55c
 6185 0571 13       		.uleb128 0x13
 6186 0572 5C050000 		.4byte	0x55c
 6187 0576 13       		.uleb128 0x13
 6188 0577 5C050000 		.4byte	0x55c
 6189 057b 13       		.uleb128 0x13
 6190 057c 5C050000 		.4byte	0x55c
 6191 0580 13       		.uleb128 0x13
 6192 0581 5C050000 		.4byte	0x55c
 6193 0585 13       		.uleb128 0x13
 6194 0586 47050000 		.4byte	0x547
 6195 058a 13       		.uleb128 0x13
 6196 058b 47050000 		.4byte	0x547
 6197 058f 13       		.uleb128 0x13
 6198 0590 47050000 		.4byte	0x547
 6199 0594 1C       		.uleb128 0x1c
 6200 0595 9C000000 		.4byte	0x9c
 6201 0599 A4050000 		.4byte	0x5a4
 6202 059d 1D       		.uleb128 0x1d
 6203 059e 76000000 		.4byte	0x76
 6204 05a2 2A       		.byte	0x2a
 6205 05a3 00       		.byte	0
 6206 05a4 13       		.uleb128 0x13
 6207 05a5 94050000 		.4byte	0x594
 6208 05a9 1C       		.uleb128 0x1c
ARM GAS  C:\Users\xavieran\AppData\Local\Temp\ccykvWSD.s 			page 157


 6209 05aa F8000000 		.4byte	0xf8
 6210 05ae BA050000 		.4byte	0x5ba
 6211 05b2 20       		.uleb128 0x20
 6212 05b3 76000000 		.4byte	0x76
 6213 05b7 5E08     		.2byte	0x85e
 6214 05b9 00       		.byte	0
 6215 05ba 13       		.uleb128 0x13
 6216 05bb A9050000 		.4byte	0x5a9
 6217 05bf 13       		.uleb128 0x13
 6218 05c0 47050000 		.4byte	0x547
 6219 05c4 1C       		.uleb128 0x1c
 6220 05c5 86000000 		.4byte	0x86
 6221 05c9 D4050000 		.4byte	0x5d4
 6222 05cd 1D       		.uleb128 0x1d
 6223 05ce 76000000 		.4byte	0x76
 6224 05d2 7F       		.byte	0x7f
 6225 05d3 00       		.byte	0
 6226 05d4 13       		.uleb128 0x13
 6227 05d5 C4050000 		.4byte	0x5c4
 6228 05d9 1C       		.uleb128 0x1c
 6229 05da 86000000 		.4byte	0x86
 6230 05de E9050000 		.4byte	0x5e9
 6231 05e2 1D       		.uleb128 0x1d
 6232 05e3 76000000 		.4byte	0x76
 6233 05e7 0F       		.byte	0xf
 6234 05e8 00       		.byte	0
 6235 05e9 13       		.uleb128 0x13
 6236 05ea D9050000 		.4byte	0x5d9
 6237 05ee 00       		.byte	0
 6238              		.section	.debug_abbrev,"",%progbits
 6239              	.Ldebug_abbrev0:
 6240 0000 01       		.uleb128 0x1
 6241 0001 11       		.uleb128 0x11
 6242 0002 01       		.byte	0x1
 6243 0003 25       		.uleb128 0x25
 6244 0004 0E       		.uleb128 0xe
 6245 0005 13       		.uleb128 0x13
 6246 0006 0B       		.uleb128 0xb
 6247 0007 03       		.uleb128 0x3
 6248 0008 0E       		.uleb128 0xe
 6249 0009 1B       		.uleb128 0x1b
 6250 000a 0E       		.uleb128 0xe
 6251 000b 55       		.uleb128 0x55
 6252 000c 17       		.uleb128 0x17
 6253 000d 11       		.uleb128 0x11
 6254 000e 01       		.uleb128 0x1
 6255 000f 10       		.uleb128 0x10
 6256 0010 17       		.uleb128 0x17
 6257 0011 00       		.byte	0
 6258 0012 00       		.byte	0
 6259 0013 02       		.uleb128 0x2
 6260 0014 24       		.uleb128 0x24
 6261 0015 00       		.byte	0
 6262 0016 0B       		.uleb128 0xb
 6263 0017 0B       		.uleb128 0xb
 6264 0018 3E       		.uleb128 0x3e
 6265 0019 0B       		.uleb128 0xb
ARM GAS  C:\Users\xavieran\AppData\Local\Temp\ccykvWSD.s 			page 158


 6266 001a 03       		.uleb128 0x3
 6267 001b 08       		.uleb128 0x8
 6268 001c 00       		.byte	0
 6269 001d 00       		.byte	0
 6270 001e 03       		.uleb128 0x3
 6271 001f 16       		.uleb128 0x16
 6272 0020 00       		.byte	0
 6273 0021 03       		.uleb128 0x3
 6274 0022 0E       		.uleb128 0xe
 6275 0023 3A       		.uleb128 0x3a
 6276 0024 0B       		.uleb128 0xb
 6277 0025 3B       		.uleb128 0x3b
 6278 0026 0B       		.uleb128 0xb
 6279 0027 49       		.uleb128 0x49
 6280 0028 13       		.uleb128 0x13
 6281 0029 00       		.byte	0
 6282 002a 00       		.byte	0
 6283 002b 04       		.uleb128 0x4
 6284 002c 24       		.uleb128 0x24
 6285 002d 00       		.byte	0
 6286 002e 0B       		.uleb128 0xb
 6287 002f 0B       		.uleb128 0xb
 6288 0030 3E       		.uleb128 0x3e
 6289 0031 0B       		.uleb128 0xb
 6290 0032 03       		.uleb128 0x3
 6291 0033 0E       		.uleb128 0xe
 6292 0034 00       		.byte	0
 6293 0035 00       		.byte	0
 6294 0036 05       		.uleb128 0x5
 6295 0037 0F       		.uleb128 0xf
 6296 0038 00       		.byte	0
 6297 0039 0B       		.uleb128 0xb
 6298 003a 0B       		.uleb128 0xb
 6299 003b 00       		.byte	0
 6300 003c 00       		.byte	0
 6301 003d 06       		.uleb128 0x6
 6302 003e 16       		.uleb128 0x16
 6303 003f 00       		.byte	0
 6304 0040 03       		.uleb128 0x3
 6305 0041 0E       		.uleb128 0xe
 6306 0042 3A       		.uleb128 0x3a
 6307 0043 0B       		.uleb128 0xb
 6308 0044 3B       		.uleb128 0x3b
 6309 0045 05       		.uleb128 0x5
 6310 0046 49       		.uleb128 0x49
 6311 0047 13       		.uleb128 0x13
 6312 0048 00       		.byte	0
 6313 0049 00       		.byte	0
 6314 004a 07       		.uleb128 0x7
 6315 004b 35       		.uleb128 0x35
 6316 004c 00       		.byte	0
 6317 004d 49       		.uleb128 0x49
 6318 004e 13       		.uleb128 0x13
 6319 004f 00       		.byte	0
 6320 0050 00       		.byte	0
 6321 0051 08       		.uleb128 0x8
 6322 0052 13       		.uleb128 0x13
ARM GAS  C:\Users\xavieran\AppData\Local\Temp\ccykvWSD.s 			page 159


 6323 0053 01       		.byte	0x1
 6324 0054 0B       		.uleb128 0xb
 6325 0055 0B       		.uleb128 0xb
 6326 0056 3A       		.uleb128 0x3a
 6327 0057 0B       		.uleb128 0xb
 6328 0058 3B       		.uleb128 0x3b
 6329 0059 0B       		.uleb128 0xb
 6330 005a 01       		.uleb128 0x1
 6331 005b 13       		.uleb128 0x13
 6332 005c 00       		.byte	0
 6333 005d 00       		.byte	0
 6334 005e 09       		.uleb128 0x9
 6335 005f 0D       		.uleb128 0xd
 6336 0060 00       		.byte	0
 6337 0061 03       		.uleb128 0x3
 6338 0062 0E       		.uleb128 0xe
 6339 0063 3A       		.uleb128 0x3a
 6340 0064 0B       		.uleb128 0xb
 6341 0065 3B       		.uleb128 0x3b
 6342 0066 0B       		.uleb128 0xb
 6343 0067 49       		.uleb128 0x49
 6344 0068 13       		.uleb128 0x13
 6345 0069 38       		.uleb128 0x38
 6346 006a 0B       		.uleb128 0xb
 6347 006b 00       		.byte	0
 6348 006c 00       		.byte	0
 6349 006d 0A       		.uleb128 0xa
 6350 006e 2E       		.uleb128 0x2e
 6351 006f 01       		.byte	0x1
 6352 0070 03       		.uleb128 0x3
 6353 0071 0E       		.uleb128 0xe
 6354 0072 3A       		.uleb128 0x3a
 6355 0073 0B       		.uleb128 0xb
 6356 0074 3B       		.uleb128 0x3b
 6357 0075 0B       		.uleb128 0xb
 6358 0076 27       		.uleb128 0x27
 6359 0077 19       		.uleb128 0x19
 6360 0078 11       		.uleb128 0x11
 6361 0079 01       		.uleb128 0x1
 6362 007a 12       		.uleb128 0x12
 6363 007b 06       		.uleb128 0x6
 6364 007c 40       		.uleb128 0x40
 6365 007d 18       		.uleb128 0x18
 6366 007e 9642     		.uleb128 0x2116
 6367 0080 19       		.uleb128 0x19
 6368 0081 01       		.uleb128 0x1
 6369 0082 13       		.uleb128 0x13
 6370 0083 00       		.byte	0
 6371 0084 00       		.byte	0
 6372 0085 0B       		.uleb128 0xb
 6373 0086 05       		.uleb128 0x5
 6374 0087 00       		.byte	0
 6375 0088 03       		.uleb128 0x3
 6376 0089 08       		.uleb128 0x8
 6377 008a 3A       		.uleb128 0x3a
 6378 008b 0B       		.uleb128 0xb
 6379 008c 3B       		.uleb128 0x3b
ARM GAS  C:\Users\xavieran\AppData\Local\Temp\ccykvWSD.s 			page 160


 6380 008d 0B       		.uleb128 0xb
 6381 008e 49       		.uleb128 0x49
 6382 008f 13       		.uleb128 0x13
 6383 0090 02       		.uleb128 0x2
 6384 0091 18       		.uleb128 0x18
 6385 0092 00       		.byte	0
 6386 0093 00       		.byte	0
 6387 0094 0C       		.uleb128 0xc
 6388 0095 05       		.uleb128 0x5
 6389 0096 00       		.byte	0
 6390 0097 03       		.uleb128 0x3
 6391 0098 0E       		.uleb128 0xe
 6392 0099 3A       		.uleb128 0x3a
 6393 009a 0B       		.uleb128 0xb
 6394 009b 3B       		.uleb128 0x3b
 6395 009c 0B       		.uleb128 0xb
 6396 009d 49       		.uleb128 0x49
 6397 009e 13       		.uleb128 0x13
 6398 009f 02       		.uleb128 0x2
 6399 00a0 18       		.uleb128 0x18
 6400 00a1 00       		.byte	0
 6401 00a2 00       		.byte	0
 6402 00a3 0D       		.uleb128 0xd
 6403 00a4 0F       		.uleb128 0xf
 6404 00a5 00       		.byte	0
 6405 00a6 0B       		.uleb128 0xb
 6406 00a7 0B       		.uleb128 0xb
 6407 00a8 49       		.uleb128 0x49
 6408 00a9 13       		.uleb128 0x13
 6409 00aa 00       		.byte	0
 6410 00ab 00       		.byte	0
 6411 00ac 0E       		.uleb128 0xe
 6412 00ad 26       		.uleb128 0x26
 6413 00ae 00       		.byte	0
 6414 00af 00       		.byte	0
 6415 00b0 00       		.byte	0
 6416 00b1 0F       		.uleb128 0xf
 6417 00b2 2E       		.uleb128 0x2e
 6418 00b3 01       		.byte	0x1
 6419 00b4 03       		.uleb128 0x3
 6420 00b5 0E       		.uleb128 0xe
 6421 00b6 3A       		.uleb128 0x3a
 6422 00b7 0B       		.uleb128 0xb
 6423 00b8 3B       		.uleb128 0x3b
 6424 00b9 0B       		.uleb128 0xb
 6425 00ba 27       		.uleb128 0x27
 6426 00bb 19       		.uleb128 0x19
 6427 00bc 11       		.uleb128 0x11
 6428 00bd 01       		.uleb128 0x1
 6429 00be 12       		.uleb128 0x12
 6430 00bf 06       		.uleb128 0x6
 6431 00c0 40       		.uleb128 0x40
 6432 00c1 18       		.uleb128 0x18
 6433 00c2 9742     		.uleb128 0x2117
 6434 00c4 19       		.uleb128 0x19
 6435 00c5 01       		.uleb128 0x1
 6436 00c6 13       		.uleb128 0x13
ARM GAS  C:\Users\xavieran\AppData\Local\Temp\ccykvWSD.s 			page 161


 6437 00c7 00       		.byte	0
 6438 00c8 00       		.byte	0
 6439 00c9 10       		.uleb128 0x10
 6440 00ca 34       		.uleb128 0x34
 6441 00cb 00       		.byte	0
 6442 00cc 03       		.uleb128 0x3
 6443 00cd 08       		.uleb128 0x8
 6444 00ce 3A       		.uleb128 0x3a
 6445 00cf 0B       		.uleb128 0xb
 6446 00d0 3B       		.uleb128 0x3b
 6447 00d1 0B       		.uleb128 0xb
 6448 00d2 49       		.uleb128 0x49
 6449 00d3 13       		.uleb128 0x13
 6450 00d4 02       		.uleb128 0x2
 6451 00d5 18       		.uleb128 0x18
 6452 00d6 00       		.byte	0
 6453 00d7 00       		.byte	0
 6454 00d8 11       		.uleb128 0x11
 6455 00d9 0B       		.uleb128 0xb
 6456 00da 01       		.byte	0x1
 6457 00db 11       		.uleb128 0x11
 6458 00dc 01       		.uleb128 0x1
 6459 00dd 12       		.uleb128 0x12
 6460 00de 06       		.uleb128 0x6
 6461 00df 00       		.byte	0
 6462 00e0 00       		.byte	0
 6463 00e1 12       		.uleb128 0x12
 6464 00e2 34       		.uleb128 0x34
 6465 00e3 00       		.byte	0
 6466 00e4 03       		.uleb128 0x3
 6467 00e5 0E       		.uleb128 0xe
 6468 00e6 3A       		.uleb128 0x3a
 6469 00e7 0B       		.uleb128 0xb
 6470 00e8 3B       		.uleb128 0x3b
 6471 00e9 0B       		.uleb128 0xb
 6472 00ea 49       		.uleb128 0x49
 6473 00eb 13       		.uleb128 0x13
 6474 00ec 02       		.uleb128 0x2
 6475 00ed 18       		.uleb128 0x18
 6476 00ee 00       		.byte	0
 6477 00ef 00       		.byte	0
 6478 00f0 13       		.uleb128 0x13
 6479 00f1 26       		.uleb128 0x26
 6480 00f2 00       		.byte	0
 6481 00f3 49       		.uleb128 0x49
 6482 00f4 13       		.uleb128 0x13
 6483 00f5 00       		.byte	0
 6484 00f6 00       		.byte	0
 6485 00f7 14       		.uleb128 0x14
 6486 00f8 2E       		.uleb128 0x2e
 6487 00f9 01       		.byte	0x1
 6488 00fa 03       		.uleb128 0x3
 6489 00fb 0E       		.uleb128 0xe
 6490 00fc 3A       		.uleb128 0x3a
 6491 00fd 0B       		.uleb128 0xb
 6492 00fe 3B       		.uleb128 0x3b
 6493 00ff 05       		.uleb128 0x5
ARM GAS  C:\Users\xavieran\AppData\Local\Temp\ccykvWSD.s 			page 162


 6494 0100 27       		.uleb128 0x27
 6495 0101 19       		.uleb128 0x19
 6496 0102 11       		.uleb128 0x11
 6497 0103 01       		.uleb128 0x1
 6498 0104 12       		.uleb128 0x12
 6499 0105 06       		.uleb128 0x6
 6500 0106 40       		.uleb128 0x40
 6501 0107 18       		.uleb128 0x18
 6502 0108 9742     		.uleb128 0x2117
 6503 010a 19       		.uleb128 0x19
 6504 010b 01       		.uleb128 0x1
 6505 010c 13       		.uleb128 0x13
 6506 010d 00       		.byte	0
 6507 010e 00       		.byte	0
 6508 010f 15       		.uleb128 0x15
 6509 0110 34       		.uleb128 0x34
 6510 0111 00       		.byte	0
 6511 0112 03       		.uleb128 0x3
 6512 0113 0E       		.uleb128 0xe
 6513 0114 3A       		.uleb128 0x3a
 6514 0115 0B       		.uleb128 0xb
 6515 0116 3B       		.uleb128 0x3b
 6516 0117 05       		.uleb128 0x5
 6517 0118 49       		.uleb128 0x49
 6518 0119 13       		.uleb128 0x13
 6519 011a 02       		.uleb128 0x2
 6520 011b 18       		.uleb128 0x18
 6521 011c 00       		.byte	0
 6522 011d 00       		.byte	0
 6523 011e 16       		.uleb128 0x16
 6524 011f 2E       		.uleb128 0x2e
 6525 0120 01       		.byte	0x1
 6526 0121 3F       		.uleb128 0x3f
 6527 0122 19       		.uleb128 0x19
 6528 0123 03       		.uleb128 0x3
 6529 0124 0E       		.uleb128 0xe
 6530 0125 3A       		.uleb128 0x3a
 6531 0126 0B       		.uleb128 0xb
 6532 0127 3B       		.uleb128 0x3b
 6533 0128 05       		.uleb128 0x5
 6534 0129 27       		.uleb128 0x27
 6535 012a 19       		.uleb128 0x19
 6536 012b 11       		.uleb128 0x11
 6537 012c 01       		.uleb128 0x1
 6538 012d 12       		.uleb128 0x12
 6539 012e 06       		.uleb128 0x6
 6540 012f 40       		.uleb128 0x40
 6541 0130 18       		.uleb128 0x18
 6542 0131 9742     		.uleb128 0x2117
 6543 0133 19       		.uleb128 0x19
 6544 0134 01       		.uleb128 0x1
 6545 0135 13       		.uleb128 0x13
 6546 0136 00       		.byte	0
 6547 0137 00       		.byte	0
 6548 0138 17       		.uleb128 0x17
 6549 0139 05       		.uleb128 0x5
 6550 013a 00       		.byte	0
ARM GAS  C:\Users\xavieran\AppData\Local\Temp\ccykvWSD.s 			page 163


 6551 013b 03       		.uleb128 0x3
 6552 013c 0E       		.uleb128 0xe
 6553 013d 3A       		.uleb128 0x3a
 6554 013e 0B       		.uleb128 0xb
 6555 013f 3B       		.uleb128 0x3b
 6556 0140 05       		.uleb128 0x5
 6557 0141 49       		.uleb128 0x49
 6558 0142 13       		.uleb128 0x13
 6559 0143 02       		.uleb128 0x2
 6560 0144 18       		.uleb128 0x18
 6561 0145 00       		.byte	0
 6562 0146 00       		.byte	0
 6563 0147 18       		.uleb128 0x18
 6564 0148 2E       		.uleb128 0x2e
 6565 0149 01       		.byte	0x1
 6566 014a 3F       		.uleb128 0x3f
 6567 014b 19       		.uleb128 0x19
 6568 014c 03       		.uleb128 0x3
 6569 014d 0E       		.uleb128 0xe
 6570 014e 3A       		.uleb128 0x3a
 6571 014f 0B       		.uleb128 0xb
 6572 0150 3B       		.uleb128 0x3b
 6573 0151 05       		.uleb128 0x5
 6574 0152 27       		.uleb128 0x27
 6575 0153 19       		.uleb128 0x19
 6576 0154 11       		.uleb128 0x11
 6577 0155 01       		.uleb128 0x1
 6578 0156 12       		.uleb128 0x12
 6579 0157 06       		.uleb128 0x6
 6580 0158 40       		.uleb128 0x40
 6581 0159 18       		.uleb128 0x18
 6582 015a 9642     		.uleb128 0x2116
 6583 015c 19       		.uleb128 0x19
 6584 015d 01       		.uleb128 0x1
 6585 015e 13       		.uleb128 0x13
 6586 015f 00       		.byte	0
 6587 0160 00       		.byte	0
 6588 0161 19       		.uleb128 0x19
 6589 0162 13       		.uleb128 0x13
 6590 0163 01       		.byte	0x1
 6591 0164 0B       		.uleb128 0xb
 6592 0165 0B       		.uleb128 0xb
 6593 0166 3A       		.uleb128 0x3a
 6594 0167 0B       		.uleb128 0xb
 6595 0168 3B       		.uleb128 0x3b
 6596 0169 05       		.uleb128 0x5
 6597 016a 01       		.uleb128 0x1
 6598 016b 13       		.uleb128 0x13
 6599 016c 00       		.byte	0
 6600 016d 00       		.byte	0
 6601 016e 1A       		.uleb128 0x1a
 6602 016f 0D       		.uleb128 0xd
 6603 0170 00       		.byte	0
 6604 0171 03       		.uleb128 0x3
 6605 0172 0E       		.uleb128 0xe
 6606 0173 3A       		.uleb128 0x3a
 6607 0174 0B       		.uleb128 0xb
ARM GAS  C:\Users\xavieran\AppData\Local\Temp\ccykvWSD.s 			page 164


 6608 0175 3B       		.uleb128 0x3b
 6609 0176 05       		.uleb128 0x5
 6610 0177 49       		.uleb128 0x49
 6611 0178 13       		.uleb128 0x13
 6612 0179 38       		.uleb128 0x38
 6613 017a 0B       		.uleb128 0xb
 6614 017b 00       		.byte	0
 6615 017c 00       		.byte	0
 6616 017d 1B       		.uleb128 0x1b
 6617 017e 0D       		.uleb128 0xd
 6618 017f 00       		.byte	0
 6619 0180 03       		.uleb128 0x3
 6620 0181 08       		.uleb128 0x8
 6621 0182 3A       		.uleb128 0x3a
 6622 0183 0B       		.uleb128 0xb
 6623 0184 3B       		.uleb128 0x3b
 6624 0185 05       		.uleb128 0x5
 6625 0186 49       		.uleb128 0x49
 6626 0187 13       		.uleb128 0x13
 6627 0188 38       		.uleb128 0x38
 6628 0189 0B       		.uleb128 0xb
 6629 018a 00       		.byte	0
 6630 018b 00       		.byte	0
 6631 018c 1C       		.uleb128 0x1c
 6632 018d 01       		.uleb128 0x1
 6633 018e 01       		.byte	0x1
 6634 018f 49       		.uleb128 0x49
 6635 0190 13       		.uleb128 0x13
 6636 0191 01       		.uleb128 0x1
 6637 0192 13       		.uleb128 0x13
 6638 0193 00       		.byte	0
 6639 0194 00       		.byte	0
 6640 0195 1D       		.uleb128 0x1d
 6641 0196 21       		.uleb128 0x21
 6642 0197 00       		.byte	0
 6643 0198 49       		.uleb128 0x49
 6644 0199 13       		.uleb128 0x13
 6645 019a 2F       		.uleb128 0x2f
 6646 019b 0B       		.uleb128 0xb
 6647 019c 00       		.byte	0
 6648 019d 00       		.byte	0
 6649 019e 1E       		.uleb128 0x1e
 6650 019f 34       		.uleb128 0x34
 6651 01a0 00       		.byte	0
 6652 01a1 03       		.uleb128 0x3
 6653 01a2 08       		.uleb128 0x8
 6654 01a3 3A       		.uleb128 0x3a
 6655 01a4 0B       		.uleb128 0xb
 6656 01a5 3B       		.uleb128 0x3b
 6657 01a6 05       		.uleb128 0x5
 6658 01a7 49       		.uleb128 0x49
 6659 01a8 13       		.uleb128 0x13
 6660 01a9 02       		.uleb128 0x2
 6661 01aa 18       		.uleb128 0x18
 6662 01ab 00       		.byte	0
 6663 01ac 00       		.byte	0
 6664 01ad 1F       		.uleb128 0x1f
ARM GAS  C:\Users\xavieran\AppData\Local\Temp\ccykvWSD.s 			page 165


 6665 01ae 0B       		.uleb128 0xb
 6666 01af 01       		.byte	0x1
 6667 01b0 11       		.uleb128 0x11
 6668 01b1 01       		.uleb128 0x1
 6669 01b2 12       		.uleb128 0x12
 6670 01b3 06       		.uleb128 0x6
 6671 01b4 01       		.uleb128 0x1
 6672 01b5 13       		.uleb128 0x13
 6673 01b6 00       		.byte	0
 6674 01b7 00       		.byte	0
 6675 01b8 20       		.uleb128 0x20
 6676 01b9 21       		.uleb128 0x21
 6677 01ba 00       		.byte	0
 6678 01bb 49       		.uleb128 0x49
 6679 01bc 13       		.uleb128 0x13
 6680 01bd 2F       		.uleb128 0x2f
 6681 01be 05       		.uleb128 0x5
 6682 01bf 00       		.byte	0
 6683 01c0 00       		.byte	0
 6684 01c1 00       		.byte	0
 6685              		.section	.debug_aranges,"",%progbits
 6686 0000 5C000000 		.4byte	0x5c
 6687 0004 0200     		.2byte	0x2
 6688 0006 00000000 		.4byte	.Ldebug_info0
 6689 000a 04       		.byte	0x4
 6690 000b 00       		.byte	0
 6691 000c 0000     		.2byte	0
 6692 000e 0000     		.2byte	0
 6693 0010 00000000 		.4byte	.LFB0
 6694 0014 1A000000 		.4byte	.LFE0-.LFB0
 6695 0018 00000000 		.4byte	.LFB1
 6696 001c 1C000000 		.4byte	.LFE1-.LFB1
 6697 0020 00000000 		.4byte	.LFB2
 6698 0024 1C000000 		.4byte	.LFE2-.LFB2
 6699 0028 00000000 		.4byte	.LFB3
 6700 002c 0C000000 		.4byte	.LFE3-.LFB3
 6701 0030 00000000 		.4byte	.LFB4
 6702 0034 72000000 		.4byte	.LFE4-.LFB4
 6703 0038 00000000 		.4byte	.LFB5
 6704 003c 80010000 		.4byte	.LFE5-.LFB5
 6705 0040 00000000 		.4byte	.LFB6
 6706 0044 44000000 		.4byte	.LFE6-.LFB6
 6707 0048 00000000 		.4byte	.LFB7
 6708 004c 28000000 		.4byte	.LFE7-.LFB7
 6709 0050 00000000 		.4byte	.LFB8
 6710 0054 0C020000 		.4byte	.LFE8-.LFB8
 6711 0058 00000000 		.4byte	0
 6712 005c 00000000 		.4byte	0
 6713              		.section	.debug_ranges,"",%progbits
 6714              	.Ldebug_ranges0:
 6715 0000 00000000 		.4byte	.LFB0
 6716 0004 1A000000 		.4byte	.LFE0
 6717 0008 00000000 		.4byte	.LFB1
 6718 000c 1C000000 		.4byte	.LFE1
 6719 0010 00000000 		.4byte	.LFB2
 6720 0014 1C000000 		.4byte	.LFE2
 6721 0018 00000000 		.4byte	.LFB3
ARM GAS  C:\Users\xavieran\AppData\Local\Temp\ccykvWSD.s 			page 166


 6722 001c 0C000000 		.4byte	.LFE3
 6723 0020 00000000 		.4byte	.LFB4
 6724 0024 72000000 		.4byte	.LFE4
 6725 0028 00000000 		.4byte	.LFB5
 6726 002c 80010000 		.4byte	.LFE5
 6727 0030 00000000 		.4byte	.LFB6
 6728 0034 44000000 		.4byte	.LFE6
 6729 0038 00000000 		.4byte	.LFB7
 6730 003c 28000000 		.4byte	.LFE7
 6731 0040 00000000 		.4byte	.LFB8
 6732 0044 0C020000 		.4byte	.LFE8
 6733 0048 00000000 		.4byte	0
 6734 004c 00000000 		.4byte	0
 6735              		.section	.debug_line,"",%progbits
 6736              	.Ldebug_line0:
 6737 0000 29020000 		.section	.debug_str,"MS",%progbits,1
 6737      0200CD00 
 6737      00000201 
 6737      FB0E0D00 
 6737      01010101 
 6738              	.LASF13:
 6739 0000 75696E74 		.ascii	"uint16\000"
 6739      313600
 6740              	.LASF31:
 6741 0007 62617365 		.ascii	"baseAddr\000"
 6741      41646472 
 6741      00
 6742              	.LASF11:
 6743 0010 73697A65 		.ascii	"size_t\000"
 6743      5F7400
 6744              	.LASF26:
 6745 0017 4379436C 		.ascii	"CyClockStartupError\000"
 6745      6F636B53 
 6745      74617274 
 6745      75704572 
 6745      726F7200 
 6746              	.LASF43:
 6747 002b 42535F49 		.ascii	"BS_IOPINS0_7_VAL\000"
 6747      4F50494E 
 6747      53305F37 
 6747      5F56414C 
 6747      00
 6748              	.LASF30:
 6749 003c 64617461 		.ascii	"data_table\000"
 6749      5F746162 
 6749      6C6500
 6750              	.LASF8:
 6751 0047 6C6F6E67 		.ascii	"long long unsigned int\000"
 6751      206C6F6E 
 6751      6720756E 
 6751      7369676E 
 6751      65642069 
 6752              	.LASF29:
 6753 005e 61646472 		.ascii	"addr_table\000"
 6753      5F746162 
 6753      6C6500
 6754              	.LASF52:
ARM GAS  C:\Users\xavieran\AppData\Local\Temp\ccykvWSD.s 			page 167


 6755 0069 63795F63 		.ascii	"cy_cfg_data_table\000"
 6755      66675F64 
 6755      6174615F 
 6755      7461626C 
 6755      6500
 6756              	.LASF36:
 6757 007b 416E616C 		.ascii	"AnalogSetDefault\000"
 6757      6F675365 
 6757      74446566 
 6757      61756C74 
 6757      00
 6758              	.LASF7:
 6759 008c 6C6F6E67 		.ascii	"long long int\000"
 6759      206C6F6E 
 6759      6720696E 
 6759      7400
 6760              	.LASF1:
 6761 009a 7369676E 		.ascii	"signed char\000"
 6761      65642063 
 6761      68617200 
 6762              	.LASF51:
 6763 00a6 63795F63 		.ascii	"cy_cfg_addr_table\000"
 6763      66675F61 
 6763      6464725F 
 6763      7461626C 
 6763      6500
 6764              	.LASF22:
 6765 00b8 43594D45 		.ascii	"CYMEMZERO\000"
 6765      4D5A4552 
 6765      4F00
 6766              	.LASF33:
 6767 00c2 436C6F63 		.ascii	"ClockSetup\000"
 6767      6B536574 
 6767      757000
 6768              	.LASF27:
 6769 00cd 6572726F 		.ascii	"errorCode\000"
 6769      72436F64 
 6769      6500
 6770              	.LASF48:
 6771 00d7 42535F49 		.ascii	"BS_IOPINS0_4_VAL\000"
 6771      4F50494E 
 6771      53305F34 
 6771      5F56414C 
 6771      00
 6772              	.LASF5:
 6773 00e8 6C6F6E67 		.ascii	"long int\000"
 6773      20696E74 
 6773      00
 6774              	.LASF59:
 6775 00f1 42535F55 		.ascii	"BS_UDB_0_4_1_CONFIG_VAL\000"
 6775      44425F30 
 6775      5F345F31 
 6775      5F434F4E 
 6775      4649475F 
 6776              	.LASF18:
 6777 0109 72656731 		.ascii	"reg16\000"
 6777      3600
ARM GAS  C:\Users\xavieran\AppData\Local\Temp\ccykvWSD.s 			page 168


 6778              	.LASF12:
 6779 010f 75696E74 		.ascii	"uint8\000"
 6779      3800
 6780              	.LASF16:
 6781 0115 646F7562 		.ascii	"double\000"
 6781      6C6500
 6782              	.LASF14:
 6783 011c 75696E74 		.ascii	"uint32\000"
 6783      333200
 6784              	.LASF32:
 6785 0123 636F756E 		.ascii	"count\000"
 6785      7400
 6786              	.LASF39:
 6787 0129 72656756 		.ascii	"regValue\000"
 6787      616C7565 
 6787      00
 6788              	.LASF45:
 6789 0132 42535F49 		.ascii	"BS_IOPINS0_1_VAL\000"
 6789      4F50494E 
 6789      53305F31 
 6789      5F56414C 
 6789      00
 6790              	.LASF20:
 6791 0143 76616C75 		.ascii	"value\000"
 6791      6500
 6792              	.LASF0:
 6793 0149 756E7369 		.ascii	"unsigned int\000"
 6793      676E6564 
 6793      20696E74 
 6793      00
 6794              	.LASF64:
 6795 0156 6E756D42 		.ascii	"numBytes\000"
 6795      79746573 
 6795      00
 6796              	.LASF66:
 6797 015f 2E5C4765 		.ascii	".\\Generated_Source\\PSoC5\\cyfitter_cfg.c\000"
 6797      6E657261 
 6797      7465645F 
 6797      536F7572 
 6797      63655C50 
 6798              	.LASF6:
 6799 0187 6C6F6E67 		.ascii	"long unsigned int\000"
 6799      20756E73 
 6799      69676E65 
 6799      6420696E 
 6799      7400
 6800              	.LASF34:
 6801 0199 74696D65 		.ascii	"timeout\000"
 6801      6F757400 
 6802              	.LASF56:
 6803 01a1 6366675F 		.ascii	"cfg_memcpy_t\000"
 6803      6D656D63 
 6803      70795F74 
 6803      00
 6804              	.LASF28:
 6805 01ae 6366675F 		.ascii	"cfg_write_bytes32\000"
 6805      77726974 
ARM GAS  C:\Users\xavieran\AppData\Local\Temp\ccykvWSD.s 			page 169


 6805      655F6279 
 6805      74657333 
 6805      3200
 6806              	.LASF54:
 6807 01c0 73697A65 		.ascii	"size\000"
 6807      00
 6808              	.LASF4:
 6809 01c5 73686F72 		.ascii	"short unsigned int\000"
 6809      7420756E 
 6809      7369676E 
 6809      65642069 
 6809      6E7400
 6810              	.LASF50:
 6811 01d8 42535F49 		.ascii	"BS_IOPINS0_6_VAL\000"
 6811      4F50494E 
 6811      53305F36 
 6811      5F56414C 
 6811      00
 6812              	.LASF25:
 6813 01e9 4359434F 		.ascii	"CYCONFIGCPYCODE\000"
 6813      4E464947 
 6813      43505943 
 6813      4F444500 
 6814              	.LASF9:
 6815 01f9 73697A65 		.ascii	"sizetype\000"
 6815      74797065 
 6815      00
 6816              	.LASF37:
 6817 0202 62675F78 		.ascii	"bg_xover_inl_trim\000"
 6817      6F766572 
 6817      5F696E6C 
 6817      5F747269 
 6817      6D00
 6818              	.LASF65:
 6819 0214 474E5520 		.ascii	"GNU C 4.8.4 20140526 (release) [ARM/embedded-4_8-br"
 6819      4320342E 
 6819      382E3420 
 6819      32303134 
 6819      30353236 
 6820 0247 616E6368 		.ascii	"anch revision 211358] -mcpu=cortex-m3 -mthumb -g -O"
 6820      20726576 
 6820      6973696F 
 6820      6E203231 
 6820      31333538 
 6821 027a 30202D66 		.ascii	"0 -ffunction-sections\000"
 6821      66756E63 
 6821      74696F6E 
 6821      2D736563 
 6821      74696F6E 
 6822              	.LASF55:
 6823 0290 6366675F 		.ascii	"cfg_memset_t\000"
 6823      6D656D73 
 6823      65745F74 
 6823      00
 6824              	.LASF57:
 6825 029d 6366675F 		.ascii	"cfg_memset_list\000"
 6825      6D656D73 
ARM GAS  C:\Users\xavieran\AppData\Local\Temp\ccykvWSD.s 			page 170


 6825      65745F6C 
 6825      69737400 
 6826              	.LASF47:
 6827 02ad 42535F49 		.ascii	"BS_IOPINS0_3_VAL\000"
 6827      4F50494E 
 6827      53305F33 
 6827      5F56414C 
 6827      00
 6828              	.LASF24:
 6829 02be 64657374 		.ascii	"dest\000"
 6829      00
 6830              	.LASF15:
 6831 02c3 666C6F61 		.ascii	"float\000"
 6831      7400
 6832              	.LASF62:
 6833 02c9 64657374 		.ascii	"destPtr\000"
 6833      50747200 
 6834              	.LASF17:
 6835 02d1 72656738 		.ascii	"reg8\000"
 6835      00
 6836              	.LASF2:
 6837 02d6 756E7369 		.ascii	"unsigned char\000"
 6837      676E6564 
 6837      20636861 
 6837      7200
 6838              	.LASF3:
 6839 02e4 73686F72 		.ascii	"short int\000"
 6839      7420696E 
 6839      7400
 6840              	.LASF67:
 6841 02ee 433A5C55 		.ascii	"C:\\Users\\xavieran\\Desktop\\ECE3091\\PSOCProjects"
 6841      73657273 
 6841      5C786176 
 6841      69657261 
 6841      6E5C4465 
 6842 031c 5C454E47 		.ascii	"\\ENG3091_MandM\\camera_test.cydsn\000"
 6842      33303931 
 6842      5F4D616E 
 6842      644D5C63 
 6842      616D6572 
 6843              	.LASF42:
 6844 033d 42535F49 		.ascii	"BS_IOPINS0_0_VAL\000"
 6844      4F50494E 
 6844      53305F30 
 6844      5F56414C 
 6844      00
 6845              	.LASF35:
 6846 034e 706C6C4C 		.ascii	"pllLock\000"
 6846      6F636B00 
 6847              	.LASF44:
 6848 0356 42535F49 		.ascii	"BS_IOPINS0_8_VAL\000"
 6848      4F50494E 
 6848      53305F38 
 6848      5F56414C 
 6848      00
 6849              	.LASF21:
 6850 0367 63795F63 		.ascii	"cy_cfg_addrvalue_t\000"
ARM GAS  C:\Users\xavieran\AppData\Local\Temp\ccykvWSD.s 			page 171


 6850      66675F61 
 6850      64647276 
 6850      616C7565 
 6850      5F7400
 6851              	.LASF10:
 6852 037a 63686172 		.ascii	"char\000"
 6852      00
 6853              	.LASF63:
 6854 037f 73726350 		.ascii	"srcPtr\000"
 6854      747200
 6855              	.LASF60:
 6856 0386 42535F55 		.ascii	"BS_UCFG_BCTL0_VAL\000"
 6856      4346475F 
 6856      4243544C 
 6856      305F5641 
 6856      4C00
 6857              	.LASF40:
 6858 0398 53657441 		.ascii	"SetAnalogRoutingPumps\000"
 6858      6E616C6F 
 6858      67526F75 
 6858      74696E67 
 6858      50756D70 
 6859              	.LASF19:
 6860 03ae 6F666673 		.ascii	"offset\000"
 6860      657400
 6861              	.LASF49:
 6862 03b5 42535F49 		.ascii	"BS_IOPINS0_5_VAL\000"
 6862      4F50494E 
 6862      53305F35 
 6862      5F56414C 
 6862      00
 6863              	.LASF38:
 6864 03c6 656E6162 		.ascii	"enabled\000"
 6864      6C656400 
 6865              	.LASF23:
 6866 03ce 4359434F 		.ascii	"CYCONFIGCPY\000"
 6866      4E464947 
 6866      43505900 
 6867              	.LASF53:
 6868 03da 61646472 		.ascii	"address\000"
 6868      65737300 
 6869              	.LASF46:
 6870 03e2 42535F49 		.ascii	"BS_IOPINS0_2_VAL\000"
 6870      4F50494E 
 6870      53305F32 
 6870      5F56414C 
 6870      00
 6871              	.LASF58:
 6872 03f3 42535F49 		.ascii	"BS_IDMUX_IRQ_VAL\000"
 6872      444D5558 
 6872      5F495251 
 6872      5F56414C 
 6872      00
 6873              	.LASF61:
 6874 0404 6366675F 		.ascii	"cfg_memcpy_list\000"
 6874      6D656D63 
 6874      70795F6C 
ARM GAS  C:\Users\xavieran\AppData\Local\Temp\ccykvWSD.s 			page 172


 6874      69737400 
 6875              	.LASF41:
 6876 0414 63796669 		.ascii	"cyfitter_cfg\000"
 6876      74746572 
 6876      5F636667 
 6876      00
 6877              		.ident	"GCC: (GNU Tools for ARM Embedded Processors) 4.8.4 20140526 (release) [ARM/embedded-4_8-br
