ARM GAS  C:\Users\xavieran\AppData\Local\Temp\ccDRn56N.s 			page 1


   1              		.syntax unified
   2              		.cpu cortex-m3
   3              		.fpu softvfp
   4              		.eabi_attribute 20, 1
   5              		.eabi_attribute 21, 1
   6              		.eabi_attribute 23, 3
   7              		.eabi_attribute 24, 1
   8              		.eabi_attribute 25, 1
   9              		.eabi_attribute 26, 1
  10              		.eabi_attribute 30, 6
  11              		.eabi_attribute 34, 1
  12              		.eabi_attribute 18, 4
  13              		.thumb
  14              		.file	"CyFlash.c"
  15              		.text
  16              	.Ltext0:
  17              		.cfi_sections	.debug_frame
  18              		.comm	dieTemperature,2,4
  19              		.section	.text.CyFlash_Start,"ax",%progbits
  20              		.align	2
  21              		.global	CyFlash_Start
  22              		.thumb
  23              		.thumb_func
  24              		.type	CyFlash_Start, %function
  25              	CyFlash_Start:
  26              	.LFB0:
  27              		.file 1 ".\\Generated_Source\\PSoC5\\CyFlash.c"
   1:.\Generated_Source\PSoC5/CyFlash.c **** /*******************************************************************************
   2:.\Generated_Source\PSoC5/CyFlash.c **** * File Name: CyFlash.c
   3:.\Generated_Source\PSoC5/CyFlash.c **** * Version 5.0
   4:.\Generated_Source\PSoC5/CyFlash.c **** *
   5:.\Generated_Source\PSoC5/CyFlash.c **** *  Description:
   6:.\Generated_Source\PSoC5/CyFlash.c **** *   Provides an API for the FLASH/EEPROM.
   7:.\Generated_Source\PSoC5/CyFlash.c **** *
   8:.\Generated_Source\PSoC5/CyFlash.c **** *  Note:
   9:.\Generated_Source\PSoC5/CyFlash.c **** *   This code is endian agnostic.
  10:.\Generated_Source\PSoC5/CyFlash.c **** *
  11:.\Generated_Source\PSoC5/CyFlash.c **** *  Note:
  12:.\Generated_Source\PSoC5/CyFlash.c **** *   Documentation of the API's in this file is located in the
  13:.\Generated_Source\PSoC5/CyFlash.c **** *   System Reference Guide provided with PSoC Creator.
  14:.\Generated_Source\PSoC5/CyFlash.c **** *
  15:.\Generated_Source\PSoC5/CyFlash.c **** ********************************************************************************
  16:.\Generated_Source\PSoC5/CyFlash.c **** * Copyright 2008-2015, Cypress Semiconductor Corporation. All rights reserved.
  17:.\Generated_Source\PSoC5/CyFlash.c **** * You may use this file only in accordance with the license, terms, conditions,
  18:.\Generated_Source\PSoC5/CyFlash.c **** * disclaimers, and limitations in the end user license agreement accompanying
  19:.\Generated_Source\PSoC5/CyFlash.c **** * the software package with which this file was provided.
  20:.\Generated_Source\PSoC5/CyFlash.c **** *******************************************************************************/
  21:.\Generated_Source\PSoC5/CyFlash.c **** 
  22:.\Generated_Source\PSoC5/CyFlash.c **** #include "CyFlash.h"
  23:.\Generated_Source\PSoC5/CyFlash.c **** 
  24:.\Generated_Source\PSoC5/CyFlash.c **** /*  The number of EEPROM arrays */
  25:.\Generated_Source\PSoC5/CyFlash.c **** #define CY_FLASH_EEPROM_NUMBER_ARRAYS                 (1u)
  26:.\Generated_Source\PSoC5/CyFlash.c **** 
  27:.\Generated_Source\PSoC5/CyFlash.c **** 
  28:.\Generated_Source\PSoC5/CyFlash.c **** /*******************************************************************************
  29:.\Generated_Source\PSoC5/CyFlash.c **** * Holds the die temperature, updated by CySetTemp(). Used for flash writing.
  30:.\Generated_Source\PSoC5/CyFlash.c **** * The first byte is the sign of the temperature (0 = negative, 1 = positive).
ARM GAS  C:\Users\xavieran\AppData\Local\Temp\ccDRn56N.s 			page 2


  31:.\Generated_Source\PSoC5/CyFlash.c **** * The second byte is the magnitude.
  32:.\Generated_Source\PSoC5/CyFlash.c **** *******************************************************************************/
  33:.\Generated_Source\PSoC5/CyFlash.c **** uint8 dieTemperature[CY_FLASH_DIE_TEMP_DATA_SIZE];
  34:.\Generated_Source\PSoC5/CyFlash.c **** 
  35:.\Generated_Source\PSoC5/CyFlash.c **** #if(CYDEV_ECC_ENABLE == 0)
  36:.\Generated_Source\PSoC5/CyFlash.c ****     static uint8 * rowBuffer = 0;
  37:.\Generated_Source\PSoC5/CyFlash.c **** #endif  /* (CYDEV_ECC_ENABLE == 0) */
  38:.\Generated_Source\PSoC5/CyFlash.c **** 
  39:.\Generated_Source\PSoC5/CyFlash.c **** 
  40:.\Generated_Source\PSoC5/CyFlash.c **** static cystatus CySetTempInt(void);
  41:.\Generated_Source\PSoC5/CyFlash.c **** static cystatus CyFlashGetSpcAlgorithm(void);
  42:.\Generated_Source\PSoC5/CyFlash.c **** 
  43:.\Generated_Source\PSoC5/CyFlash.c **** 
  44:.\Generated_Source\PSoC5/CyFlash.c **** /*******************************************************************************
  45:.\Generated_Source\PSoC5/CyFlash.c **** * Function Name: CyFlash_Start
  46:.\Generated_Source\PSoC5/CyFlash.c **** ********************************************************************************
  47:.\Generated_Source\PSoC5/CyFlash.c **** *
  48:.\Generated_Source\PSoC5/CyFlash.c **** * Summary:
  49:.\Generated_Source\PSoC5/CyFlash.c **** *  Enable the Flash.
  50:.\Generated_Source\PSoC5/CyFlash.c **** *
  51:.\Generated_Source\PSoC5/CyFlash.c **** * Parameters:
  52:.\Generated_Source\PSoC5/CyFlash.c **** *  None
  53:.\Generated_Source\PSoC5/CyFlash.c **** *
  54:.\Generated_Source\PSoC5/CyFlash.c **** * Return:
  55:.\Generated_Source\PSoC5/CyFlash.c **** *  None
  56:.\Generated_Source\PSoC5/CyFlash.c **** *
  57:.\Generated_Source\PSoC5/CyFlash.c **** *******************************************************************************/
  58:.\Generated_Source\PSoC5/CyFlash.c **** void CyFlash_Start(void) 
  59:.\Generated_Source\PSoC5/CyFlash.c **** {
  28              		.loc 1 59 0
  29              		.cfi_startproc
  30              		@ args = 0, pretend = 0, frame = 8
  31              		@ frame_needed = 1, uses_anonymous_args = 0
  32 0000 80B5     		push	{r7, lr}
  33              		.cfi_def_cfa_offset 8
  34              		.cfi_offset 7, -8
  35              		.cfi_offset 14, -4
  36 0002 82B0     		sub	sp, sp, #8
  37              		.cfi_def_cfa_offset 16
  38 0004 00AF     		add	r7, sp, #0
  39              		.cfi_def_cfa_register 7
  60:.\Generated_Source\PSoC5/CyFlash.c ****     uint8 interruptState;
  61:.\Generated_Source\PSoC5/CyFlash.c **** 
  62:.\Generated_Source\PSoC5/CyFlash.c ****     interruptState = CyEnterCriticalSection();
  40              		.loc 1 62 0
  41 0006 FFF7FEFF 		bl	CyEnterCriticalSection
  42 000a 0346     		mov	r3, r0
  43 000c FB71     		strb	r3, [r7, #7]
  63:.\Generated_Source\PSoC5/CyFlash.c **** 
  64:.\Generated_Source\PSoC5/CyFlash.c **** 
  65:.\Generated_Source\PSoC5/CyFlash.c ****     /***************************************************************************
  66:.\Generated_Source\PSoC5/CyFlash.c ****     * Enable SPC clock. This also internally enables the 36MHz IMO, since this
  67:.\Generated_Source\PSoC5/CyFlash.c ****     * is required for the SPC to function.
  68:.\Generated_Source\PSoC5/CyFlash.c ****     ***************************************************************************/
  69:.\Generated_Source\PSoC5/CyFlash.c ****     CY_FLASH_PM_ACT_CFG0_REG    |= CY_FLASH_PM_ACT_CFG0_EN_CLK_SPC;
  44              		.loc 1 69 0
  45 000e 194B     		ldr	r3, .L3
ARM GAS  C:\Users\xavieran\AppData\Local\Temp\ccDRn56N.s 			page 3


  46 0010 184A     		ldr	r2, .L3
  47 0012 1278     		ldrb	r2, [r2]
  48 0014 D2B2     		uxtb	r2, r2
  49 0016 42F00802 		orr	r2, r2, #8
  50 001a D2B2     		uxtb	r2, r2
  51 001c 1A70     		strb	r2, [r3]
  70:.\Generated_Source\PSoC5/CyFlash.c ****     CY_FLASH_PM_ALTACT_CFG0_REG |= CY_FLASH_PM_ALTACT_CFG0_EN_CLK_SPC;
  52              		.loc 1 70 0
  53 001e 164B     		ldr	r3, .L3+4
  54 0020 154A     		ldr	r2, .L3+4
  55 0022 1278     		ldrb	r2, [r2]
  56 0024 D2B2     		uxtb	r2, r2
  57 0026 42F00802 		orr	r2, r2, #8
  58 002a D2B2     		uxtb	r2, r2
  59 002c 1A70     		strb	r2, [r3]
  71:.\Generated_Source\PSoC5/CyFlash.c **** 
  72:.\Generated_Source\PSoC5/CyFlash.c **** 
  73:.\Generated_Source\PSoC5/CyFlash.c ****     /***************************************************************************
  74:.\Generated_Source\PSoC5/CyFlash.c ****     * The wake count defines the number of Bus Clock cycles it takes for the
  75:.\Generated_Source\PSoC5/CyFlash.c ****     * flash or eeprom to wake up from a low power mode independent of the chip
  76:.\Generated_Source\PSoC5/CyFlash.c ****     * power mode. Wake up time for these blocks is 5 us.
  77:.\Generated_Source\PSoC5/CyFlash.c ****     * The granularity of this register is 2 Bus Clock cycles, so a value of 0x1E
  78:.\Generated_Source\PSoC5/CyFlash.c ****     * (30d) defines the wake up time as 60 cycles of the Bus Clock.
  79:.\Generated_Source\PSoC5/CyFlash.c ****     * This register needs to be written with a value dependent on the Bus Clock
  80:.\Generated_Source\PSoC5/CyFlash.c ****     * frequency so that the duration of the cycles is equal to or greater than
  81:.\Generated_Source\PSoC5/CyFlash.c ****     * the 5 us delay required.
  82:.\Generated_Source\PSoC5/CyFlash.c ****     ***************************************************************************/
  83:.\Generated_Source\PSoC5/CyFlash.c ****     CY_FLASH_SPC_FM_EE_WAKE_CNT_REG = CY_FLASH_SPC_FM_EE_WAKE_CNT_80MHZ;
  60              		.loc 1 83 0
  61 002e 134B     		ldr	r3, .L3+8
  62 0030 C822     		movs	r2, #200
  63 0032 1A70     		strb	r2, [r3]
  84:.\Generated_Source\PSoC5/CyFlash.c **** 
  85:.\Generated_Source\PSoC5/CyFlash.c **** 
  86:.\Generated_Source\PSoC5/CyFlash.c ****     /***************************************************************************
  87:.\Generated_Source\PSoC5/CyFlash.c ****     * Enable flash. Active flash macros consume current, but re-enabling a
  88:.\Generated_Source\PSoC5/CyFlash.c ****     * disabled flash macro takes 5us. If the CPU attempts to fetch out of the
  89:.\Generated_Source\PSoC5/CyFlash.c ****     * macro during that time, it will be stalled. This bit allows the flash to
  90:.\Generated_Source\PSoC5/CyFlash.c ****     * be enabled even if the CPU is disabled, which allows a quicker return to
  91:.\Generated_Source\PSoC5/CyFlash.c ****     * code execution.
  92:.\Generated_Source\PSoC5/CyFlash.c ****     ***************************************************************************/
  93:.\Generated_Source\PSoC5/CyFlash.c ****     CY_FLASH_PM_ACT_CFG12_REG    |= CY_FLASH_PM_ACT_CFG12_EN_FM;
  64              		.loc 1 93 0
  65 0034 124B     		ldr	r3, .L3+12
  66 0036 124A     		ldr	r2, .L3+12
  67 0038 1278     		ldrb	r2, [r2]
  68 003a D2B2     		uxtb	r2, r2
  69 003c 42F00F02 		orr	r2, r2, #15
  70 0040 D2B2     		uxtb	r2, r2
  71 0042 1A70     		strb	r2, [r3]
  94:.\Generated_Source\PSoC5/CyFlash.c ****     CY_FLASH_PM_ALTACT_CFG12_REG |= CY_FLASH_PM_ALTACT_CFG12_EN_FM;
  72              		.loc 1 94 0
  73 0044 0F4B     		ldr	r3, .L3+16
  74 0046 0F4A     		ldr	r2, .L3+16
  75 0048 1278     		ldrb	r2, [r2]
  76 004a D2B2     		uxtb	r2, r2
  77 004c 42F00F02 		orr	r2, r2, #15
ARM GAS  C:\Users\xavieran\AppData\Local\Temp\ccDRn56N.s 			page 4


  78 0050 D2B2     		uxtb	r2, r2
  79 0052 1A70     		strb	r2, [r3]
  95:.\Generated_Source\PSoC5/CyFlash.c **** 
  96:.\Generated_Source\PSoC5/CyFlash.c ****     while(0u == (CY_FLASH_SPC_FM_EE_CR_REG & CY_FLASH_EE_EE_AWAKE))
  80              		.loc 1 96 0
  81 0054 00BF     		nop
  82              	.L2:
  83              		.loc 1 96 0 is_stmt 0 discriminator 1
  84 0056 0C4B     		ldr	r3, .L3+20
  85 0058 1B78     		ldrb	r3, [r3]
  86 005a DBB2     		uxtb	r3, r3
  87 005c 03F02003 		and	r3, r3, #32
  88 0060 002B     		cmp	r3, #0
  89 0062 F8D0     		beq	.L2
  97:.\Generated_Source\PSoC5/CyFlash.c ****     {
  98:.\Generated_Source\PSoC5/CyFlash.c ****         /* Non-zero status denotes that the EEPROM/Flash is awake & powered. */
  99:.\Generated_Source\PSoC5/CyFlash.c ****     }
 100:.\Generated_Source\PSoC5/CyFlash.c **** 
 101:.\Generated_Source\PSoC5/CyFlash.c ****     CyExitCriticalSection(interruptState);
  90              		.loc 1 101 0 is_stmt 1
  91 0064 FB79     		ldrb	r3, [r7, #7]	@ zero_extendqisi2
  92 0066 1846     		mov	r0, r3
  93 0068 FFF7FEFF 		bl	CyExitCriticalSection
 102:.\Generated_Source\PSoC5/CyFlash.c **** }
  94              		.loc 1 102 0
  95 006c 0837     		adds	r7, r7, #8
  96 006e BD46     		mov	sp, r7
  97              		@ sp needed
  98 0070 80BD     		pop	{r7, pc}
  99              	.L4:
 100 0072 00BF     		.align	2
 101              	.L3:
 102 0074 A0430040 		.word	1073759136
 103 0078 B0430040 		.word	1073759152
 104 007c 01470040 		.word	1073760001
 105 0080 AC430040 		.word	1073759148
 106 0084 BC430040 		.word	1073759164
 107 0088 00470040 		.word	1073760000
 108              		.cfi_endproc
 109              	.LFE0:
 110              		.size	CyFlash_Start, .-CyFlash_Start
 111              		.section	.text.CyFlash_Stop,"ax",%progbits
 112              		.align	2
 113              		.global	CyFlash_Stop
 114              		.thumb
 115              		.thumb_func
 116              		.type	CyFlash_Stop, %function
 117              	CyFlash_Stop:
 118              	.LFB1:
 103:.\Generated_Source\PSoC5/CyFlash.c **** 
 104:.\Generated_Source\PSoC5/CyFlash.c **** 
 105:.\Generated_Source\PSoC5/CyFlash.c **** /*******************************************************************************
 106:.\Generated_Source\PSoC5/CyFlash.c **** * Function Name: CyFlash_Stop
 107:.\Generated_Source\PSoC5/CyFlash.c **** ********************************************************************************
 108:.\Generated_Source\PSoC5/CyFlash.c **** *
 109:.\Generated_Source\PSoC5/CyFlash.c **** * Summary:
 110:.\Generated_Source\PSoC5/CyFlash.c **** *  Disable the Flash.
ARM GAS  C:\Users\xavieran\AppData\Local\Temp\ccDRn56N.s 			page 5


 111:.\Generated_Source\PSoC5/CyFlash.c **** *
 112:.\Generated_Source\PSoC5/CyFlash.c **** * Parameters:
 113:.\Generated_Source\PSoC5/CyFlash.c **** *  None
 114:.\Generated_Source\PSoC5/CyFlash.c **** *
 115:.\Generated_Source\PSoC5/CyFlash.c **** * Return:
 116:.\Generated_Source\PSoC5/CyFlash.c **** *  None
 117:.\Generated_Source\PSoC5/CyFlash.c **** *
 118:.\Generated_Source\PSoC5/CyFlash.c **** * Side Effects:
 119:.\Generated_Source\PSoC5/CyFlash.c **** *  This setting is ignored as long as the CPU is currently running.  This will
 120:.\Generated_Source\PSoC5/CyFlash.c **** *  only take effect when the CPU is later disabled.
 121:.\Generated_Source\PSoC5/CyFlash.c **** *
 122:.\Generated_Source\PSoC5/CyFlash.c **** *******************************************************************************/
 123:.\Generated_Source\PSoC5/CyFlash.c **** void CyFlash_Stop(void) 
 124:.\Generated_Source\PSoC5/CyFlash.c **** {
 119              		.loc 1 124 0
 120              		.cfi_startproc
 121              		@ args = 0, pretend = 0, frame = 8
 122              		@ frame_needed = 1, uses_anonymous_args = 0
 123 0000 80B5     		push	{r7, lr}
 124              		.cfi_def_cfa_offset 8
 125              		.cfi_offset 7, -8
 126              		.cfi_offset 14, -4
 127 0002 82B0     		sub	sp, sp, #8
 128              		.cfi_def_cfa_offset 16
 129 0004 00AF     		add	r7, sp, #0
 130              		.cfi_def_cfa_register 7
 125:.\Generated_Source\PSoC5/CyFlash.c ****     uint8 interruptState;
 126:.\Generated_Source\PSoC5/CyFlash.c **** 
 127:.\Generated_Source\PSoC5/CyFlash.c ****     interruptState = CyEnterCriticalSection();
 131              		.loc 1 127 0
 132 0006 FFF7FEFF 		bl	CyEnterCriticalSection
 133 000a 0346     		mov	r3, r0
 134 000c FB71     		strb	r3, [r7, #7]
 128:.\Generated_Source\PSoC5/CyFlash.c **** 
 129:.\Generated_Source\PSoC5/CyFlash.c ****     CY_FLASH_PM_ACT_CFG12_REG    &= ((uint8)(~CY_FLASH_PM_ACT_CFG12_EN_FM));
 135              		.loc 1 129 0
 136 000e 0B4B     		ldr	r3, .L6
 137 0010 0A4A     		ldr	r2, .L6
 138 0012 1278     		ldrb	r2, [r2]
 139 0014 D2B2     		uxtb	r2, r2
 140 0016 22F00F02 		bic	r2, r2, #15
 141 001a D2B2     		uxtb	r2, r2
 142 001c 1A70     		strb	r2, [r3]
 130:.\Generated_Source\PSoC5/CyFlash.c ****     CY_FLASH_PM_ALTACT_CFG12_REG &= ((uint8)(~CY_FLASH_PM_ALTACT_CFG12_EN_FM));
 143              		.loc 1 130 0
 144 001e 084B     		ldr	r3, .L6+4
 145 0020 074A     		ldr	r2, .L6+4
 146 0022 1278     		ldrb	r2, [r2]
 147 0024 D2B2     		uxtb	r2, r2
 148 0026 22F00F02 		bic	r2, r2, #15
 149 002a D2B2     		uxtb	r2, r2
 150 002c 1A70     		strb	r2, [r3]
 131:.\Generated_Source\PSoC5/CyFlash.c **** 
 132:.\Generated_Source\PSoC5/CyFlash.c ****     CyExitCriticalSection(interruptState);
 151              		.loc 1 132 0
 152 002e FB79     		ldrb	r3, [r7, #7]	@ zero_extendqisi2
 153 0030 1846     		mov	r0, r3
ARM GAS  C:\Users\xavieran\AppData\Local\Temp\ccDRn56N.s 			page 6


 154 0032 FFF7FEFF 		bl	CyExitCriticalSection
 133:.\Generated_Source\PSoC5/CyFlash.c **** }
 155              		.loc 1 133 0
 156 0036 0837     		adds	r7, r7, #8
 157 0038 BD46     		mov	sp, r7
 158              		@ sp needed
 159 003a 80BD     		pop	{r7, pc}
 160              	.L7:
 161              		.align	2
 162              	.L6:
 163 003c AC430040 		.word	1073759148
 164 0040 BC430040 		.word	1073759164
 165              		.cfi_endproc
 166              	.LFE1:
 167              		.size	CyFlash_Stop, .-CyFlash_Stop
 168              		.section	.text.CySetTempInt,"ax",%progbits
 169              		.align	2
 170              		.thumb
 171              		.thumb_func
 172              		.type	CySetTempInt, %function
 173              	CySetTempInt:
 174              	.LFB2:
 134:.\Generated_Source\PSoC5/CyFlash.c **** 
 135:.\Generated_Source\PSoC5/CyFlash.c **** 
 136:.\Generated_Source\PSoC5/CyFlash.c **** /*******************************************************************************
 137:.\Generated_Source\PSoC5/CyFlash.c **** * Function Name: CySetTempInt
 138:.\Generated_Source\PSoC5/CyFlash.c **** ********************************************************************************
 139:.\Generated_Source\PSoC5/CyFlash.c **** *
 140:.\Generated_Source\PSoC5/CyFlash.c **** * Summary:
 141:.\Generated_Source\PSoC5/CyFlash.c **** *  Sends a command to the SPC to read the die temperature. Sets a global value
 142:.\Generated_Source\PSoC5/CyFlash.c **** *  used by the Write function. This function must be called once before
 143:.\Generated_Source\PSoC5/CyFlash.c **** *  executing a series of Flash writing functions.
 144:.\Generated_Source\PSoC5/CyFlash.c **** *
 145:.\Generated_Source\PSoC5/CyFlash.c **** * Parameters:
 146:.\Generated_Source\PSoC5/CyFlash.c **** *  None
 147:.\Generated_Source\PSoC5/CyFlash.c **** *
 148:.\Generated_Source\PSoC5/CyFlash.c **** * Return:
 149:.\Generated_Source\PSoC5/CyFlash.c **** *  status:
 150:.\Generated_Source\PSoC5/CyFlash.c **** *   CYRET_SUCCESS - if successful
 151:.\Generated_Source\PSoC5/CyFlash.c **** *   CYRET_LOCKED  - if Flash writing already in use
 152:.\Generated_Source\PSoC5/CyFlash.c **** *   CYRET_UNKNOWN - if there was an SPC error
 153:.\Generated_Source\PSoC5/CyFlash.c **** *
 154:.\Generated_Source\PSoC5/CyFlash.c **** *******************************************************************************/
 155:.\Generated_Source\PSoC5/CyFlash.c **** static cystatus CySetTempInt(void) 
 156:.\Generated_Source\PSoC5/CyFlash.c **** {
 175              		.loc 1 156 0
 176              		.cfi_startproc
 177              		@ args = 0, pretend = 0, frame = 8
 178              		@ frame_needed = 1, uses_anonymous_args = 0
 179 0000 80B5     		push	{r7, lr}
 180              		.cfi_def_cfa_offset 8
 181              		.cfi_offset 7, -8
 182              		.cfi_offset 14, -4
 183 0002 82B0     		sub	sp, sp, #8
 184              		.cfi_def_cfa_offset 16
 185 0004 00AF     		add	r7, sp, #0
 186              		.cfi_def_cfa_register 7
ARM GAS  C:\Users\xavieran\AppData\Local\Temp\ccDRn56N.s 			page 7


 157:.\Generated_Source\PSoC5/CyFlash.c ****     cystatus status;
 158:.\Generated_Source\PSoC5/CyFlash.c **** 
 159:.\Generated_Source\PSoC5/CyFlash.c ****     /* Make sure SPC is powered */
 160:.\Generated_Source\PSoC5/CyFlash.c ****     CySpcStart();
 187              		.loc 1 160 0
 188 0006 FFF7FEFF 		bl	CySpcStart
 161:.\Generated_Source\PSoC5/CyFlash.c **** 
 162:.\Generated_Source\PSoC5/CyFlash.c ****     /* Plan for failure. */
 163:.\Generated_Source\PSoC5/CyFlash.c ****     status = CYRET_UNKNOWN;
 189              		.loc 1 163 0
 190 000a 4FF0FF33 		mov	r3, #-1
 191 000e 7B60     		str	r3, [r7, #4]
 164:.\Generated_Source\PSoC5/CyFlash.c **** 
 165:.\Generated_Source\PSoC5/CyFlash.c ****     if(CySpcLock() == CYRET_SUCCESS)
 192              		.loc 1 165 0
 193 0010 FFF7FEFF 		bl	CySpcLock
 194 0014 0346     		mov	r3, r0
 195 0016 002B     		cmp	r3, #0
 196 0018 24D1     		bne	.L9
 166:.\Generated_Source\PSoC5/CyFlash.c ****     {
 167:.\Generated_Source\PSoC5/CyFlash.c ****         /* Write the command. */
 168:.\Generated_Source\PSoC5/CyFlash.c ****         if(CYRET_STARTED == CySpcGetTemp(CY_TEMP_NUMBER_OF_SAMPLES))
 197              		.loc 1 168 0
 198 001a 0120     		movs	r0, #1
 199 001c FFF7FEFF 		bl	CySpcGetTemp
 200 0020 0346     		mov	r3, r0
 201 0022 072B     		cmp	r3, #7
 202 0024 1BD1     		bne	.L10
 203              	.L14:
 169:.\Generated_Source\PSoC5/CyFlash.c ****         {
 170:.\Generated_Source\PSoC5/CyFlash.c ****             do
 171:.\Generated_Source\PSoC5/CyFlash.c ****             {
 172:.\Generated_Source\PSoC5/CyFlash.c ****                 if(CySpcReadData(dieTemperature, CY_FLASH_DIE_TEMP_DATA_SIZE) == CY_FLASH_DIE_TEMP_
 204              		.loc 1 172 0
 205 0026 1348     		ldr	r0, .L17
 206 0028 0221     		movs	r1, #2
 207 002a FFF7FEFF 		bl	CySpcReadData
 208 002e 0346     		mov	r3, r0
 209 0030 022B     		cmp	r3, #2
 210 0032 0DD1     		bne	.L11
 173:.\Generated_Source\PSoC5/CyFlash.c ****                 {
 174:.\Generated_Source\PSoC5/CyFlash.c ****                     status = CYRET_SUCCESS;
 211              		.loc 1 174 0
 212 0034 0023     		movs	r3, #0
 213 0036 7B60     		str	r3, [r7, #4]
 175:.\Generated_Source\PSoC5/CyFlash.c **** 
 176:.\Generated_Source\PSoC5/CyFlash.c ****                     while(CY_SPC_BUSY)
 214              		.loc 1 176 0
 215 0038 02E0     		b	.L12
 216              	.L13:
 177:.\Generated_Source\PSoC5/CyFlash.c ****                     {
 178:.\Generated_Source\PSoC5/CyFlash.c ****                         /* Spin until idle. */
 179:.\Generated_Source\PSoC5/CyFlash.c ****                         CyDelayUs(1u);
 217              		.loc 1 179 0
 218 003a 0120     		movs	r0, #1
 219 003c FFF7FEFF 		bl	CyDelayUs
 220              	.L12:
ARM GAS  C:\Users\xavieran\AppData\Local\Temp\ccDRn56N.s 			page 8


 176:.\Generated_Source\PSoC5/CyFlash.c ****                     while(CY_SPC_BUSY)
 221              		.loc 1 176 0 discriminator 1
 222 0040 0D4B     		ldr	r3, .L17+4
 223 0042 1B78     		ldrb	r3, [r3]
 224 0044 DBB2     		uxtb	r3, r3
 225 0046 03F00203 		and	r3, r3, #2
 226 004a 002B     		cmp	r3, #0
 227 004c F5D0     		beq	.L13
 180:.\Generated_Source\PSoC5/CyFlash.c ****                     }
 181:.\Generated_Source\PSoC5/CyFlash.c ****                     break;
 228              		.loc 1 181 0
 229 004e 06E0     		b	.L10
 230              	.L11:
 182:.\Generated_Source\PSoC5/CyFlash.c ****                 }
 183:.\Generated_Source\PSoC5/CyFlash.c **** 
 184:.\Generated_Source\PSoC5/CyFlash.c ****             } while(CY_SPC_BUSY);
 231              		.loc 1 184 0
 232 0050 094B     		ldr	r3, .L17+4
 233 0052 1B78     		ldrb	r3, [r3]
 234 0054 DBB2     		uxtb	r3, r3
 235 0056 03F00203 		and	r3, r3, #2
 236 005a 002B     		cmp	r3, #0
 237 005c E3D0     		beq	.L14
 238              	.L10:
 185:.\Generated_Source\PSoC5/CyFlash.c ****         }
 186:.\Generated_Source\PSoC5/CyFlash.c **** 
 187:.\Generated_Source\PSoC5/CyFlash.c ****         CySpcUnlock();
 239              		.loc 1 187 0
 240 005e FFF7FEFF 		bl	CySpcUnlock
 241 0062 01E0     		b	.L15
 242              	.L9:
 188:.\Generated_Source\PSoC5/CyFlash.c ****     }
 189:.\Generated_Source\PSoC5/CyFlash.c ****     else
 190:.\Generated_Source\PSoC5/CyFlash.c ****     {
 191:.\Generated_Source\PSoC5/CyFlash.c ****         status = CYRET_LOCKED;
 243              		.loc 1 191 0
 244 0064 0423     		movs	r3, #4
 245 0066 7B60     		str	r3, [r7, #4]
 246              	.L15:
 192:.\Generated_Source\PSoC5/CyFlash.c ****     }
 193:.\Generated_Source\PSoC5/CyFlash.c **** 
 194:.\Generated_Source\PSoC5/CyFlash.c ****     return (status);
 247              		.loc 1 194 0
 248 0068 7B68     		ldr	r3, [r7, #4]
 195:.\Generated_Source\PSoC5/CyFlash.c **** }
 249              		.loc 1 195 0
 250 006a 1846     		mov	r0, r3
 251 006c 0837     		adds	r7, r7, #8
 252 006e BD46     		mov	sp, r7
 253              		@ sp needed
 254 0070 80BD     		pop	{r7, pc}
 255              	.L18:
 256 0072 00BF     		.align	2
 257              	.L17:
 258 0074 00000000 		.word	dieTemperature
 259 0078 22470040 		.word	1073760034
 260              		.cfi_endproc
ARM GAS  C:\Users\xavieran\AppData\Local\Temp\ccDRn56N.s 			page 9


 261              	.LFE2:
 262              		.size	CySetTempInt, .-CySetTempInt
 263              		.section	.text.CyFlashGetSpcAlgorithm,"ax",%progbits
 264              		.align	2
 265              		.thumb
 266              		.thumb_func
 267              		.type	CyFlashGetSpcAlgorithm, %function
 268              	CyFlashGetSpcAlgorithm:
 269              	.LFB3:
 196:.\Generated_Source\PSoC5/CyFlash.c **** 
 197:.\Generated_Source\PSoC5/CyFlash.c **** 
 198:.\Generated_Source\PSoC5/CyFlash.c **** /*******************************************************************************
 199:.\Generated_Source\PSoC5/CyFlash.c **** * Function Name: CyFlashGetSpcAlgorithm
 200:.\Generated_Source\PSoC5/CyFlash.c **** ********************************************************************************
 201:.\Generated_Source\PSoC5/CyFlash.c **** *
 202:.\Generated_Source\PSoC5/CyFlash.c **** * Summary:
 203:.\Generated_Source\PSoC5/CyFlash.c **** *  Sends a command to the SPC to download code into RAM.
 204:.\Generated_Source\PSoC5/CyFlash.c **** *
 205:.\Generated_Source\PSoC5/CyFlash.c **** * Parameters:
 206:.\Generated_Source\PSoC5/CyFlash.c **** *  None
 207:.\Generated_Source\PSoC5/CyFlash.c **** *
 208:.\Generated_Source\PSoC5/CyFlash.c **** * Return:
 209:.\Generated_Source\PSoC5/CyFlash.c **** *  status:
 210:.\Generated_Source\PSoC5/CyFlash.c **** *   CYRET_SUCCESS - if successful
 211:.\Generated_Source\PSoC5/CyFlash.c **** *   CYRET_LOCKED  - if Flash writing already in use
 212:.\Generated_Source\PSoC5/CyFlash.c **** *   CYRET_UNKNOWN - if there was an SPC error
 213:.\Generated_Source\PSoC5/CyFlash.c **** *
 214:.\Generated_Source\PSoC5/CyFlash.c **** *******************************************************************************/
 215:.\Generated_Source\PSoC5/CyFlash.c **** static cystatus CyFlashGetSpcAlgorithm(void) 
 216:.\Generated_Source\PSoC5/CyFlash.c **** {
 270              		.loc 1 216 0
 271              		.cfi_startproc
 272              		@ args = 0, pretend = 0, frame = 8
 273              		@ frame_needed = 1, uses_anonymous_args = 0
 274 0000 80B5     		push	{r7, lr}
 275              		.cfi_def_cfa_offset 8
 276              		.cfi_offset 7, -8
 277              		.cfi_offset 14, -4
 278 0002 82B0     		sub	sp, sp, #8
 279              		.cfi_def_cfa_offset 16
 280 0004 00AF     		add	r7, sp, #0
 281              		.cfi_def_cfa_register 7
 217:.\Generated_Source\PSoC5/CyFlash.c ****     cystatus status;
 218:.\Generated_Source\PSoC5/CyFlash.c **** 
 219:.\Generated_Source\PSoC5/CyFlash.c ****     /* Make sure SPC is powered */
 220:.\Generated_Source\PSoC5/CyFlash.c ****     CySpcStart();
 282              		.loc 1 220 0
 283 0006 FFF7FEFF 		bl	CySpcStart
 221:.\Generated_Source\PSoC5/CyFlash.c **** 
 222:.\Generated_Source\PSoC5/CyFlash.c ****     if(CySpcLock() == CYRET_SUCCESS)
 284              		.loc 1 222 0
 285 000a FFF7FEFF 		bl	CySpcLock
 286 000e 0346     		mov	r3, r0
 287 0010 002B     		cmp	r3, #0
 288 0012 23D1     		bne	.L20
 223:.\Generated_Source\PSoC5/CyFlash.c ****     {
 224:.\Generated_Source\PSoC5/CyFlash.c ****         status = CySpcGetAlgorithm();
ARM GAS  C:\Users\xavieran\AppData\Local\Temp\ccDRn56N.s 			page 10


 289              		.loc 1 224 0
 290 0014 FFF7FEFF 		bl	CySpcGetAlgorithm
 291 0018 7860     		str	r0, [r7, #4]
 225:.\Generated_Source\PSoC5/CyFlash.c **** 
 226:.\Generated_Source\PSoC5/CyFlash.c ****         if(CYRET_STARTED == status)
 292              		.loc 1 226 0
 293 001a 7B68     		ldr	r3, [r7, #4]
 294 001c 072B     		cmp	r3, #7
 295 001e 1AD1     		bne	.L21
 227:.\Generated_Source\PSoC5/CyFlash.c ****         {
 228:.\Generated_Source\PSoC5/CyFlash.c ****             while(CY_SPC_BUSY)
 296              		.loc 1 228 0
 297 0020 02E0     		b	.L22
 298              	.L23:
 229:.\Generated_Source\PSoC5/CyFlash.c ****             {
 230:.\Generated_Source\PSoC5/CyFlash.c ****                 /* Spin until idle. */
 231:.\Generated_Source\PSoC5/CyFlash.c ****                 CyDelayUs(1u);
 299              		.loc 1 231 0
 300 0022 0120     		movs	r0, #1
 301 0024 FFF7FEFF 		bl	CyDelayUs
 302              	.L22:
 228:.\Generated_Source\PSoC5/CyFlash.c ****             while(CY_SPC_BUSY)
 303              		.loc 1 228 0 discriminator 1
 304 0028 104B     		ldr	r3, .L26
 305 002a 1B78     		ldrb	r3, [r3]
 306 002c DBB2     		uxtb	r3, r3
 307 002e 03F00203 		and	r3, r3, #2
 308 0032 002B     		cmp	r3, #0
 309 0034 F5D0     		beq	.L23
 232:.\Generated_Source\PSoC5/CyFlash.c ****             }
 233:.\Generated_Source\PSoC5/CyFlash.c **** 
 234:.\Generated_Source\PSoC5/CyFlash.c ****             if(CY_SPC_STATUS_SUCCESS == CY_SPC_READ_STATUS)
 310              		.loc 1 234 0
 311 0036 0D4B     		ldr	r3, .L26
 312 0038 1B78     		ldrb	r3, [r3]
 313 003a DBB2     		uxtb	r3, r3
 314 003c 03F00203 		and	r3, r3, #2
 315 0040 002B     		cmp	r3, #0
 316 0042 08D0     		beq	.L21
 317              		.loc 1 234 0 is_stmt 0 discriminator 1
 318 0044 094B     		ldr	r3, .L26
 319 0046 1B78     		ldrb	r3, [r3]
 320 0048 DBB2     		uxtb	r3, r3
 321 004a 9B08     		lsrs	r3, r3, #2
 322 004c DBB2     		uxtb	r3, r3
 323 004e 002B     		cmp	r3, #0
 324 0050 01D1     		bne	.L21
 235:.\Generated_Source\PSoC5/CyFlash.c ****             {
 236:.\Generated_Source\PSoC5/CyFlash.c ****                 status = CYRET_SUCCESS;
 325              		.loc 1 236 0 is_stmt 1
 326 0052 0023     		movs	r3, #0
 327 0054 7B60     		str	r3, [r7, #4]
 328              	.L21:
 237:.\Generated_Source\PSoC5/CyFlash.c ****             }
 238:.\Generated_Source\PSoC5/CyFlash.c ****         }
 239:.\Generated_Source\PSoC5/CyFlash.c ****         CySpcUnlock();
 329              		.loc 1 239 0
ARM GAS  C:\Users\xavieran\AppData\Local\Temp\ccDRn56N.s 			page 11


 330 0056 FFF7FEFF 		bl	CySpcUnlock
 331 005a 01E0     		b	.L24
 332              	.L20:
 240:.\Generated_Source\PSoC5/CyFlash.c ****     }
 241:.\Generated_Source\PSoC5/CyFlash.c ****     else
 242:.\Generated_Source\PSoC5/CyFlash.c ****     {
 243:.\Generated_Source\PSoC5/CyFlash.c ****         status = CYRET_LOCKED;
 333              		.loc 1 243 0
 334 005c 0423     		movs	r3, #4
 335 005e 7B60     		str	r3, [r7, #4]
 336              	.L24:
 244:.\Generated_Source\PSoC5/CyFlash.c ****     }
 245:.\Generated_Source\PSoC5/CyFlash.c **** 
 246:.\Generated_Source\PSoC5/CyFlash.c ****     return (status);
 337              		.loc 1 246 0
 338 0060 7B68     		ldr	r3, [r7, #4]
 247:.\Generated_Source\PSoC5/CyFlash.c **** }
 339              		.loc 1 247 0
 340 0062 1846     		mov	r0, r3
 341 0064 0837     		adds	r7, r7, #8
 342 0066 BD46     		mov	sp, r7
 343              		@ sp needed
 344 0068 80BD     		pop	{r7, pc}
 345              	.L27:
 346 006a 00BF     		.align	2
 347              	.L26:
 348 006c 22470040 		.word	1073760034
 349              		.cfi_endproc
 350              	.LFE3:
 351              		.size	CyFlashGetSpcAlgorithm, .-CyFlashGetSpcAlgorithm
 352              		.section	.text.CySetTemp,"ax",%progbits
 353              		.align	2
 354              		.global	CySetTemp
 355              		.thumb
 356              		.thumb_func
 357              		.type	CySetTemp, %function
 358              	CySetTemp:
 359              	.LFB4:
 248:.\Generated_Source\PSoC5/CyFlash.c **** 
 249:.\Generated_Source\PSoC5/CyFlash.c **** 
 250:.\Generated_Source\PSoC5/CyFlash.c **** /*******************************************************************************
 251:.\Generated_Source\PSoC5/CyFlash.c **** * Function Name: CySetTemp
 252:.\Generated_Source\PSoC5/CyFlash.c **** ********************************************************************************
 253:.\Generated_Source\PSoC5/CyFlash.c **** *
 254:.\Generated_Source\PSoC5/CyFlash.c **** * Summary:
 255:.\Generated_Source\PSoC5/CyFlash.c **** *  This is a wraparound for CySetTempInt(). It is used to return the second
 256:.\Generated_Source\PSoC5/CyFlash.c **** *  successful read of the temperature value.
 257:.\Generated_Source\PSoC5/CyFlash.c **** *
 258:.\Generated_Source\PSoC5/CyFlash.c **** * Parameters:
 259:.\Generated_Source\PSoC5/CyFlash.c **** *  None
 260:.\Generated_Source\PSoC5/CyFlash.c **** *
 261:.\Generated_Source\PSoC5/CyFlash.c **** * Return:
 262:.\Generated_Source\PSoC5/CyFlash.c **** *  status:
 263:.\Generated_Source\PSoC5/CyFlash.c **** *   CYRET_SUCCESS if successful.
 264:.\Generated_Source\PSoC5/CyFlash.c **** *   CYRET_LOCKED  if Flash writing already in use
 265:.\Generated_Source\PSoC5/CyFlash.c **** *   CYRET_UNKNOWN if there was an SPC error.
 266:.\Generated_Source\PSoC5/CyFlash.c **** *
ARM GAS  C:\Users\xavieran\AppData\Local\Temp\ccDRn56N.s 			page 12


 267:.\Generated_Source\PSoC5/CyFlash.c **** *  uint8 dieTemperature[2]:
 268:.\Generated_Source\PSoC5/CyFlash.c **** *   Holds the die temperature for the flash writing algorithm. The first byte is
 269:.\Generated_Source\PSoC5/CyFlash.c **** *   the sign of the temperature (0 = negative, 1 = positive). The second byte is
 270:.\Generated_Source\PSoC5/CyFlash.c **** *   the magnitude.
 271:.\Generated_Source\PSoC5/CyFlash.c **** *
 272:.\Generated_Source\PSoC5/CyFlash.c **** *******************************************************************************/
 273:.\Generated_Source\PSoC5/CyFlash.c **** cystatus CySetTemp(void) 
 274:.\Generated_Source\PSoC5/CyFlash.c **** {
 360              		.loc 1 274 0
 361              		.cfi_startproc
 362              		@ args = 0, pretend = 0, frame = 8
 363              		@ frame_needed = 1, uses_anonymous_args = 0
 364 0000 80B5     		push	{r7, lr}
 365              		.cfi_def_cfa_offset 8
 366              		.cfi_offset 7, -8
 367              		.cfi_offset 14, -4
 368 0002 82B0     		sub	sp, sp, #8
 369              		.cfi_def_cfa_offset 16
 370 0004 00AF     		add	r7, sp, #0
 371              		.cfi_def_cfa_register 7
 275:.\Generated_Source\PSoC5/CyFlash.c ****     cystatus status = CyFlashGetSpcAlgorithm();
 372              		.loc 1 275 0
 373 0006 FFF7FEFF 		bl	CyFlashGetSpcAlgorithm
 374 000a 7860     		str	r0, [r7, #4]
 276:.\Generated_Source\PSoC5/CyFlash.c **** 
 277:.\Generated_Source\PSoC5/CyFlash.c ****     if(status == CYRET_SUCCESS)
 375              		.loc 1 277 0
 376 000c 7B68     		ldr	r3, [r7, #4]
 377 000e 002B     		cmp	r3, #0
 378 0010 02D1     		bne	.L29
 278:.\Generated_Source\PSoC5/CyFlash.c ****     {
 279:.\Generated_Source\PSoC5/CyFlash.c ****         status = CySetTempInt();
 379              		.loc 1 279 0
 380 0012 FFF7FEFF 		bl	CySetTempInt
 381 0016 7860     		str	r0, [r7, #4]
 382              	.L29:
 280:.\Generated_Source\PSoC5/CyFlash.c ****     }
 281:.\Generated_Source\PSoC5/CyFlash.c **** 
 282:.\Generated_Source\PSoC5/CyFlash.c ****     return (status);
 383              		.loc 1 282 0
 384 0018 7B68     		ldr	r3, [r7, #4]
 283:.\Generated_Source\PSoC5/CyFlash.c **** }
 385              		.loc 1 283 0
 386 001a 1846     		mov	r0, r3
 387 001c 0837     		adds	r7, r7, #8
 388 001e BD46     		mov	sp, r7
 389              		@ sp needed
 390 0020 80BD     		pop	{r7, pc}
 391              		.cfi_endproc
 392              	.LFE4:
 393              		.size	CySetTemp, .-CySetTemp
 394 0022 00BF     		.section	.text.CySetFlashEEBuffer,"ax",%progbits
 395              		.align	2
 396              		.global	CySetFlashEEBuffer
 397              		.thumb
 398              		.thumb_func
 399              		.type	CySetFlashEEBuffer, %function
ARM GAS  C:\Users\xavieran\AppData\Local\Temp\ccDRn56N.s 			page 13


 400              	CySetFlashEEBuffer:
 401              	.LFB5:
 284:.\Generated_Source\PSoC5/CyFlash.c **** 
 285:.\Generated_Source\PSoC5/CyFlash.c **** 
 286:.\Generated_Source\PSoC5/CyFlash.c **** /*******************************************************************************
 287:.\Generated_Source\PSoC5/CyFlash.c **** * Function Name: CySetFlashEEBuffer
 288:.\Generated_Source\PSoC5/CyFlash.c **** ********************************************************************************
 289:.\Generated_Source\PSoC5/CyFlash.c **** *
 290:.\Generated_Source\PSoC5/CyFlash.c **** * Summary:
 291:.\Generated_Source\PSoC5/CyFlash.c **** *  Sets the user supplied temporary buffer to store SPC data while performing
 292:.\Generated_Source\PSoC5/CyFlash.c **** *  Flash and EEPROM commands. This buffer is only necessary when the Flash ECC
 293:.\Generated_Source\PSoC5/CyFlash.c **** *  is disabled.
 294:.\Generated_Source\PSoC5/CyFlash.c **** *
 295:.\Generated_Source\PSoC5/CyFlash.c **** * Parameters:
 296:.\Generated_Source\PSoC5/CyFlash.c **** *  buffer:
 297:.\Generated_Source\PSoC5/CyFlash.c **** *   The address of a block of memory to store temporary memory. The size of the
 298:.\Generated_Source\PSoC5/CyFlash.c **** *   block of memory is CYDEV_FLS_ROW_SIZE + CYDEV_ECC_ROW_SIZE.
 299:.\Generated_Source\PSoC5/CyFlash.c **** *
 300:.\Generated_Source\PSoC5/CyFlash.c **** * Return:
 301:.\Generated_Source\PSoC5/CyFlash.c **** *  status:
 302:.\Generated_Source\PSoC5/CyFlash.c **** *   CYRET_SUCCESS if successful.
 303:.\Generated_Source\PSoC5/CyFlash.c **** *   CYRET_BAD_PARAM if the buffer is NULL
 304:.\Generated_Source\PSoC5/CyFlash.c **** *
 305:.\Generated_Source\PSoC5/CyFlash.c **** *******************************************************************************/
 306:.\Generated_Source\PSoC5/CyFlash.c **** cystatus CySetFlashEEBuffer(uint8 * buffer) 
 307:.\Generated_Source\PSoC5/CyFlash.c **** {
 402              		.loc 1 307 0
 403              		.cfi_startproc
 404              		@ args = 0, pretend = 0, frame = 16
 405              		@ frame_needed = 1, uses_anonymous_args = 0
 406 0000 80B5     		push	{r7, lr}
 407              		.cfi_def_cfa_offset 8
 408              		.cfi_offset 7, -8
 409              		.cfi_offset 14, -4
 410 0002 84B0     		sub	sp, sp, #16
 411              		.cfi_def_cfa_offset 24
 412 0004 00AF     		add	r7, sp, #0
 413              		.cfi_def_cfa_register 7
 414 0006 7860     		str	r0, [r7, #4]
 308:.\Generated_Source\PSoC5/CyFlash.c ****     cystatus status = CYRET_SUCCESS;
 415              		.loc 1 308 0
 416 0008 0023     		movs	r3, #0
 417 000a FB60     		str	r3, [r7, #12]
 309:.\Generated_Source\PSoC5/CyFlash.c **** 
 310:.\Generated_Source\PSoC5/CyFlash.c ****     CySpcStart();
 418              		.loc 1 310 0
 419 000c FFF7FEFF 		bl	CySpcStart
 311:.\Generated_Source\PSoC5/CyFlash.c **** 
 312:.\Generated_Source\PSoC5/CyFlash.c ****     #if(CYDEV_ECC_ENABLE == 0)
 313:.\Generated_Source\PSoC5/CyFlash.c **** 
 314:.\Generated_Source\PSoC5/CyFlash.c ****         if(NULL == buffer)
 315:.\Generated_Source\PSoC5/CyFlash.c ****         {
 316:.\Generated_Source\PSoC5/CyFlash.c ****             rowBuffer = rowBuffer;
 317:.\Generated_Source\PSoC5/CyFlash.c ****             status = CYRET_BAD_PARAM;
 318:.\Generated_Source\PSoC5/CyFlash.c ****         }
 319:.\Generated_Source\PSoC5/CyFlash.c ****         else if(CySpcLock() != CYRET_SUCCESS)
 320:.\Generated_Source\PSoC5/CyFlash.c ****         {
ARM GAS  C:\Users\xavieran\AppData\Local\Temp\ccDRn56N.s 			page 14


 321:.\Generated_Source\PSoC5/CyFlash.c ****             rowBuffer = rowBuffer;
 322:.\Generated_Source\PSoC5/CyFlash.c ****             status = CYRET_LOCKED;
 323:.\Generated_Source\PSoC5/CyFlash.c ****         }
 324:.\Generated_Source\PSoC5/CyFlash.c ****         else
 325:.\Generated_Source\PSoC5/CyFlash.c ****         {
 326:.\Generated_Source\PSoC5/CyFlash.c ****             rowBuffer = buffer;
 327:.\Generated_Source\PSoC5/CyFlash.c ****             CySpcUnlock();
 328:.\Generated_Source\PSoC5/CyFlash.c ****         }
 329:.\Generated_Source\PSoC5/CyFlash.c **** 
 330:.\Generated_Source\PSoC5/CyFlash.c ****     #else
 331:.\Generated_Source\PSoC5/CyFlash.c **** 
 332:.\Generated_Source\PSoC5/CyFlash.c ****         /* To suppress warning */
 333:.\Generated_Source\PSoC5/CyFlash.c ****         buffer = buffer;
 334:.\Generated_Source\PSoC5/CyFlash.c **** 
 335:.\Generated_Source\PSoC5/CyFlash.c ****     #endif  /* (CYDEV_ECC_ENABLE == 0u) */
 336:.\Generated_Source\PSoC5/CyFlash.c **** 
 337:.\Generated_Source\PSoC5/CyFlash.c ****     return(status);
 420              		.loc 1 337 0
 421 0010 FB68     		ldr	r3, [r7, #12]
 338:.\Generated_Source\PSoC5/CyFlash.c **** }
 422              		.loc 1 338 0
 423 0012 1846     		mov	r0, r3
 424 0014 1037     		adds	r7, r7, #16
 425 0016 BD46     		mov	sp, r7
 426              		@ sp needed
 427 0018 80BD     		pop	{r7, pc}
 428              		.cfi_endproc
 429              	.LFE5:
 430              		.size	CySetFlashEEBuffer, .-CySetFlashEEBuffer
 431 001a 00BF     		.section	.text.CyWriteRowData,"ax",%progbits
 432              		.align	2
 433              		.global	CyWriteRowData
 434              		.thumb
 435              		.thumb_func
 436              		.type	CyWriteRowData, %function
 437              	CyWriteRowData:
 438              	.LFB6:
 339:.\Generated_Source\PSoC5/CyFlash.c **** 
 340:.\Generated_Source\PSoC5/CyFlash.c **** 
 341:.\Generated_Source\PSoC5/CyFlash.c **** /*******************************************************************************
 342:.\Generated_Source\PSoC5/CyFlash.c **** * Function Name: CyWriteRowData
 343:.\Generated_Source\PSoC5/CyFlash.c **** ********************************************************************************
 344:.\Generated_Source\PSoC5/CyFlash.c **** *
 345:.\Generated_Source\PSoC5/CyFlash.c **** * Summary:
 346:.\Generated_Source\PSoC5/CyFlash.c **** *  Sends a command to the SPC to load and program a row of data in
 347:.\Generated_Source\PSoC5/CyFlash.c **** *  Flash or EEPROM.
 348:.\Generated_Source\PSoC5/CyFlash.c **** *
 349:.\Generated_Source\PSoC5/CyFlash.c **** * Parameters:
 350:.\Generated_Source\PSoC5/CyFlash.c **** *  arrayID:    ID of the array to write.
 351:.\Generated_Source\PSoC5/CyFlash.c **** *   The type of write, Flash or EEPROM, is determined from the array ID.
 352:.\Generated_Source\PSoC5/CyFlash.c **** *   The arrays in the part are sequential starting at the first ID for the
 353:.\Generated_Source\PSoC5/CyFlash.c **** *   specific memory type. The array ID for the Flash memory lasts from 0x00 to
 354:.\Generated_Source\PSoC5/CyFlash.c **** *   0x3F and for the EEPROM memory it lasts from 0x40 to 0x7F.
 355:.\Generated_Source\PSoC5/CyFlash.c **** *  rowAddress: rowAddress of flash row to program.
 356:.\Generated_Source\PSoC5/CyFlash.c **** *  rowData:    Array of bytes to write.
 357:.\Generated_Source\PSoC5/CyFlash.c **** *
 358:.\Generated_Source\PSoC5/CyFlash.c **** * Return:
ARM GAS  C:\Users\xavieran\AppData\Local\Temp\ccDRn56N.s 			page 15


 359:.\Generated_Source\PSoC5/CyFlash.c **** *  status:
 360:.\Generated_Source\PSoC5/CyFlash.c **** *   CYRET_SUCCESS if successful.
 361:.\Generated_Source\PSoC5/CyFlash.c **** *   CYRET_LOCKED if the SPC is already in use.
 362:.\Generated_Source\PSoC5/CyFlash.c **** *   CYRET_CANCELED if command not accepted
 363:.\Generated_Source\PSoC5/CyFlash.c **** *   CYRET_UNKNOWN if there was an SPC error.
 364:.\Generated_Source\PSoC5/CyFlash.c **** *
 365:.\Generated_Source\PSoC5/CyFlash.c **** *******************************************************************************/
 366:.\Generated_Source\PSoC5/CyFlash.c **** cystatus CyWriteRowData(uint8 arrayId, uint16 rowAddress, const uint8 * rowData) 
 367:.\Generated_Source\PSoC5/CyFlash.c **** {
 439              		.loc 1 367 0
 440              		.cfi_startproc
 441              		@ args = 0, pretend = 0, frame = 16
 442              		@ frame_needed = 1, uses_anonymous_args = 0
 443 0000 80B5     		push	{r7, lr}
 444              		.cfi_def_cfa_offset 8
 445              		.cfi_offset 7, -8
 446              		.cfi_offset 14, -4
 447 0002 84B0     		sub	sp, sp, #16
 448              		.cfi_def_cfa_offset 24
 449 0004 00AF     		add	r7, sp, #0
 450              		.cfi_def_cfa_register 7
 451 0006 0B46     		mov	r3, r1
 452 0008 3A60     		str	r2, [r7]
 453 000a 0246     		mov	r2, r0
 454 000c FA71     		strb	r2, [r7, #7]
 455 000e BB80     		strh	r3, [r7, #4]	@ movhi
 368:.\Generated_Source\PSoC5/CyFlash.c ****     uint16 rowSize;
 369:.\Generated_Source\PSoC5/CyFlash.c ****     cystatus status;
 370:.\Generated_Source\PSoC5/CyFlash.c **** 
 371:.\Generated_Source\PSoC5/CyFlash.c ****     rowSize = (arrayId > CY_SPC_LAST_FLASH_ARRAYID) ? CYDEV_EEPROM_ROW_SIZE : CYDEV_FLS_ROW_SIZE;
 456              		.loc 1 371 0
 457 0010 FB79     		ldrb	r3, [r7, #7]	@ zero_extendqisi2
 458 0012 3F2B     		cmp	r3, #63
 459 0014 01D9     		bls	.L34
 460              		.loc 1 371 0 is_stmt 0 discriminator 1
 461 0016 1023     		movs	r3, #16
 462 0018 01E0     		b	.L35
 463              	.L34:
 464              		.loc 1 371 0 discriminator 2
 465 001a 4FF48073 		mov	r3, #256
 466              	.L35:
 467              		.loc 1 371 0 discriminator 3
 468 001e FB81     		strh	r3, [r7, #14]	@ movhi
 372:.\Generated_Source\PSoC5/CyFlash.c ****     status = CyWriteRowFull(arrayId, rowAddress, rowData, rowSize);
 469              		.loc 1 372 0 is_stmt 1 discriminator 3
 470 0020 F979     		ldrb	r1, [r7, #7]	@ zero_extendqisi2
 471 0022 BA88     		ldrh	r2, [r7, #4]
 472 0024 FB89     		ldrh	r3, [r7, #14]
 473 0026 0846     		mov	r0, r1
 474 0028 1146     		mov	r1, r2
 475 002a 3A68     		ldr	r2, [r7]
 476 002c FFF7FEFF 		bl	CyWriteRowFull
 477 0030 B860     		str	r0, [r7, #8]
 373:.\Generated_Source\PSoC5/CyFlash.c **** 
 374:.\Generated_Source\PSoC5/CyFlash.c ****     return(status);
 478              		.loc 1 374 0 discriminator 3
 479 0032 BB68     		ldr	r3, [r7, #8]
ARM GAS  C:\Users\xavieran\AppData\Local\Temp\ccDRn56N.s 			page 16


 375:.\Generated_Source\PSoC5/CyFlash.c **** }
 480              		.loc 1 375 0 discriminator 3
 481 0034 1846     		mov	r0, r3
 482 0036 1037     		adds	r7, r7, #16
 483 0038 BD46     		mov	sp, r7
 484              		@ sp needed
 485 003a 80BD     		pop	{r7, pc}
 486              		.cfi_endproc
 487              	.LFE6:
 488              		.size	CyWriteRowData, .-CyWriteRowData
 489              		.section	.text.CyWriteRowFull,"ax",%progbits
 490              		.align	2
 491              		.global	CyWriteRowFull
 492              		.thumb
 493              		.thumb_func
 494              		.type	CyWriteRowFull, %function
 495              	CyWriteRowFull:
 496              	.LFB7:
 376:.\Generated_Source\PSoC5/CyFlash.c **** 
 377:.\Generated_Source\PSoC5/CyFlash.c **** 
 378:.\Generated_Source\PSoC5/CyFlash.c **** /*******************************************************************
 379:.\Generated_Source\PSoC5/CyFlash.c **** * If "Enable Error Correcting Code (ECC)" and "Store Configuration
 380:.\Generated_Source\PSoC5/CyFlash.c **** * Data in ECC" DWR options are disabled, ECC section is available
 381:.\Generated_Source\PSoC5/CyFlash.c **** * for user data.
 382:.\Generated_Source\PSoC5/CyFlash.c **** *******************************************************************/
 383:.\Generated_Source\PSoC5/CyFlash.c **** #if ((CYDEV_ECC_ENABLE == 0u) && (CYDEV_CONFIGURATION_ECC == 0u))
 384:.\Generated_Source\PSoC5/CyFlash.c **** 
 385:.\Generated_Source\PSoC5/CyFlash.c ****     /*******************************************************************************
 386:.\Generated_Source\PSoC5/CyFlash.c ****     * Function Name: CyWriteRowConfig
 387:.\Generated_Source\PSoC5/CyFlash.c ****     ********************************************************************************
 388:.\Generated_Source\PSoC5/CyFlash.c ****     *
 389:.\Generated_Source\PSoC5/CyFlash.c ****     * Summary:
 390:.\Generated_Source\PSoC5/CyFlash.c ****     *  Sends a command to the SPC to load and program a row of config data in the
 391:.\Generated_Source\PSoC5/CyFlash.c ****     *  Flash. This function is only valid for Flash array IDs (not for EEPROM).
 392:.\Generated_Source\PSoC5/CyFlash.c ****     *
 393:.\Generated_Source\PSoC5/CyFlash.c ****     * Parameters:
 394:.\Generated_Source\PSoC5/CyFlash.c ****     *  arrayId:      ID of the array to write
 395:.\Generated_Source\PSoC5/CyFlash.c ****     *   The arrays in the part are sequential starting at the first ID for the
 396:.\Generated_Source\PSoC5/CyFlash.c ****     *   specific memory type. The array ID for the Flash memory lasts
 397:.\Generated_Source\PSoC5/CyFlash.c ****     *   from 0x00 to 0x3F.
 398:.\Generated_Source\PSoC5/CyFlash.c ****     *  rowAddress:   The address of the sector to erase.
 399:.\Generated_Source\PSoC5/CyFlash.c ****     *  rowECC:       The array of bytes to write.
 400:.\Generated_Source\PSoC5/CyFlash.c ****     *
 401:.\Generated_Source\PSoC5/CyFlash.c ****     * Return:
 402:.\Generated_Source\PSoC5/CyFlash.c ****     *  status:
 403:.\Generated_Source\PSoC5/CyFlash.c ****     *   CYRET_SUCCESS if successful.
 404:.\Generated_Source\PSoC5/CyFlash.c ****     *   CYRET_LOCKED if the SPC is already in use.
 405:.\Generated_Source\PSoC5/CyFlash.c ****     *   CYRET_CANCELED if command not accepted
 406:.\Generated_Source\PSoC5/CyFlash.c ****     *   CYRET_UNKNOWN if there was an SPC error.
 407:.\Generated_Source\PSoC5/CyFlash.c ****     *
 408:.\Generated_Source\PSoC5/CyFlash.c ****     *******************************************************************************/
 409:.\Generated_Source\PSoC5/CyFlash.c ****     cystatus CyWriteRowConfig(uint8 arrayId, uint16 rowAddress, const uint8 * rowECC)\
 410:.\Generated_Source\PSoC5/CyFlash.c ****     
 411:.\Generated_Source\PSoC5/CyFlash.c ****     {
 412:.\Generated_Source\PSoC5/CyFlash.c ****         cystatus status;
 413:.\Generated_Source\PSoC5/CyFlash.c **** 
 414:.\Generated_Source\PSoC5/CyFlash.c ****         status = CyWriteRowFull(arrayId, rowAddress, rowECC, CYDEV_ECC_ROW_SIZE);
ARM GAS  C:\Users\xavieran\AppData\Local\Temp\ccDRn56N.s 			page 17


 415:.\Generated_Source\PSoC5/CyFlash.c **** 
 416:.\Generated_Source\PSoC5/CyFlash.c ****         return (status);
 417:.\Generated_Source\PSoC5/CyFlash.c ****     }
 418:.\Generated_Source\PSoC5/CyFlash.c **** 
 419:.\Generated_Source\PSoC5/CyFlash.c **** #endif  /* ((CYDEV_ECC_ENABLE == 0u) && (CYDEV_CONFIGURATION_ECC == 0u)) */
 420:.\Generated_Source\PSoC5/CyFlash.c **** 
 421:.\Generated_Source\PSoC5/CyFlash.c **** 
 422:.\Generated_Source\PSoC5/CyFlash.c **** 
 423:.\Generated_Source\PSoC5/CyFlash.c **** /*******************************************************************************
 424:.\Generated_Source\PSoC5/CyFlash.c **** * Function Name: CyWriteRowFull
 425:.\Generated_Source\PSoC5/CyFlash.c **** ********************************************************************************
 426:.\Generated_Source\PSoC5/CyFlash.c **** * Summary:
 427:.\Generated_Source\PSoC5/CyFlash.c **** *  Sends a command to the SPC to load and program a row of data in the Flash.
 428:.\Generated_Source\PSoC5/CyFlash.c **** *  rowData array is expected to contain Flash and ECC data if needed.
 429:.\Generated_Source\PSoC5/CyFlash.c **** *
 430:.\Generated_Source\PSoC5/CyFlash.c **** * Parameters:
 431:.\Generated_Source\PSoC5/CyFlash.c **** *  arrayId:    FLASH or EEPROM array id.
 432:.\Generated_Source\PSoC5/CyFlash.c **** *  rowData:    Pointer to a row of data to write.
 433:.\Generated_Source\PSoC5/CyFlash.c **** *  rowNumber:  Zero based number of the row.
 434:.\Generated_Source\PSoC5/CyFlash.c **** *  rowSize:    Size of the row.
 435:.\Generated_Source\PSoC5/CyFlash.c **** *
 436:.\Generated_Source\PSoC5/CyFlash.c **** * Return:
 437:.\Generated_Source\PSoC5/CyFlash.c **** *  CYRET_SUCCESS if successful.
 438:.\Generated_Source\PSoC5/CyFlash.c **** *  CYRET_LOCKED if the SPC is already in use.
 439:.\Generated_Source\PSoC5/CyFlash.c **** *  CYRET_CANCELED if command not accepted
 440:.\Generated_Source\PSoC5/CyFlash.c **** *  CYRET_UNKNOWN if there was an SPC error.
 441:.\Generated_Source\PSoC5/CyFlash.c **** *
 442:.\Generated_Source\PSoC5/CyFlash.c **** *******************************************************************************/
 443:.\Generated_Source\PSoC5/CyFlash.c **** cystatus CyWriteRowFull(uint8 arrayId, uint16 rowNumber, const uint8* rowData, uint16 rowSize) \
 444:.\Generated_Source\PSoC5/CyFlash.c ****         
 445:.\Generated_Source\PSoC5/CyFlash.c **** {
 497              		.loc 1 445 0
 498              		.cfi_startproc
 499              		@ args = 0, pretend = 0, frame = 24
 500              		@ frame_needed = 1, uses_anonymous_args = 0
 501 0000 80B5     		push	{r7, lr}
 502              		.cfi_def_cfa_offset 8
 503              		.cfi_offset 7, -8
 504              		.cfi_offset 14, -4
 505 0002 86B0     		sub	sp, sp, #24
 506              		.cfi_def_cfa_offset 32
 507 0004 00AF     		add	r7, sp, #0
 508              		.cfi_def_cfa_register 7
 509 0006 BA60     		str	r2, [r7, #8]
 510 0008 0246     		mov	r2, r0
 511 000a FA73     		strb	r2, [r7, #15]
 512 000c 0A46     		mov	r2, r1	@ movhi
 513 000e BA81     		strh	r2, [r7, #12]	@ movhi
 514 0010 FB80     		strh	r3, [r7, #6]	@ movhi
 446:.\Generated_Source\PSoC5/CyFlash.c ****     cystatus status = CYRET_SUCCESS;
 515              		.loc 1 446 0
 516 0012 0023     		movs	r3, #0
 517 0014 7B61     		str	r3, [r7, #20]
 447:.\Generated_Source\PSoC5/CyFlash.c **** 
 448:.\Generated_Source\PSoC5/CyFlash.c ****     if((arrayId <=  CY_SPC_LAST_FLASH_ARRAYID) && (arrayId > (CY_FLASH_NUMBER_ARRAYS  + CY_SPC_FIRS
 518              		.loc 1 448 0
 519 0016 FB7B     		ldrb	r3, [r7, #15]	@ zero_extendqisi2
ARM GAS  C:\Users\xavieran\AppData\Local\Temp\ccDRn56N.s 			page 18


 520 0018 3F2B     		cmp	r3, #63
 521 001a 04D8     		bhi	.L38
 522              		.loc 1 448 0 is_stmt 0 discriminator 1
 523 001c FB7B     		ldrb	r3, [r7, #15]	@ zero_extendqisi2
 524 001e 042B     		cmp	r3, #4
 525 0020 01D9     		bls	.L38
 449:.\Generated_Source\PSoC5/CyFlash.c ****     {
 450:.\Generated_Source\PSoC5/CyFlash.c ****         status = CYRET_BAD_PARAM;
 526              		.loc 1 450 0 is_stmt 1
 527 0022 0123     		movs	r3, #1
 528 0024 7B61     		str	r3, [r7, #20]
 529              	.L38:
 451:.\Generated_Source\PSoC5/CyFlash.c ****     }
 452:.\Generated_Source\PSoC5/CyFlash.c **** 
 453:.\Generated_Source\PSoC5/CyFlash.c ****     if(arrayId > CY_SPC_LAST_EE_ARRAYID)
 530              		.loc 1 453 0
 531 0026 FB7B     		ldrb	r3, [r7, #15]	@ zero_extendqisi2
 532 0028 5BB2     		sxtb	r3, r3
 533 002a 002B     		cmp	r3, #0
 534 002c 01DA     		bge	.L39
 454:.\Generated_Source\PSoC5/CyFlash.c ****     {
 455:.\Generated_Source\PSoC5/CyFlash.c ****         status = CYRET_BAD_PARAM;
 535              		.loc 1 455 0
 536 002e 0123     		movs	r3, #1
 537 0030 7B61     		str	r3, [r7, #20]
 538              	.L39:
 456:.\Generated_Source\PSoC5/CyFlash.c ****     }
 457:.\Generated_Source\PSoC5/CyFlash.c **** 
 458:.\Generated_Source\PSoC5/CyFlash.c ****     if((arrayId >= CY_SPC_FIRST_EE_ARRAYID) && (arrayId > (CY_FLASH_EEPROM_NUMBER_ARRAYS + CY_SPC_F
 539              		.loc 1 458 0
 540 0032 FB7B     		ldrb	r3, [r7, #15]	@ zero_extendqisi2
 541 0034 3F2B     		cmp	r3, #63
 542 0036 04D9     		bls	.L40
 543              		.loc 1 458 0 is_stmt 0 discriminator 1
 544 0038 FB7B     		ldrb	r3, [r7, #15]	@ zero_extendqisi2
 545 003a 412B     		cmp	r3, #65
 546 003c 01D9     		bls	.L40
 459:.\Generated_Source\PSoC5/CyFlash.c ****     {
 460:.\Generated_Source\PSoC5/CyFlash.c ****         status = CYRET_BAD_PARAM;
 547              		.loc 1 460 0 is_stmt 1
 548 003e 0123     		movs	r3, #1
 549 0040 7B61     		str	r3, [r7, #20]
 550              	.L40:
 461:.\Generated_Source\PSoC5/CyFlash.c ****     }
 462:.\Generated_Source\PSoC5/CyFlash.c **** 
 463:.\Generated_Source\PSoC5/CyFlash.c ****     if(arrayId <=  CY_SPC_LAST_FLASH_ARRAYID)
 551              		.loc 1 463 0
 552 0042 FB7B     		ldrb	r3, [r7, #15]	@ zero_extendqisi2
 553 0044 3F2B     		cmp	r3, #63
 554 0046 06D8     		bhi	.L41
 464:.\Generated_Source\PSoC5/CyFlash.c ****     {
 465:.\Generated_Source\PSoC5/CyFlash.c ****         /* Flash */
 466:.\Generated_Source\PSoC5/CyFlash.c ****         if(rowNumber > (CY_FLASH_NUMBER_ROWS/CY_FLASH_NUMBER_ARRAYS))
 555              		.loc 1 466 0
 556 0048 BB89     		ldrh	r3, [r7, #12]
 557 004a B3F5807F 		cmp	r3, #256
 558 004e 0CD9     		bls	.L43
ARM GAS  C:\Users\xavieran\AppData\Local\Temp\ccDRn56N.s 			page 19


 467:.\Generated_Source\PSoC5/CyFlash.c ****         {
 468:.\Generated_Source\PSoC5/CyFlash.c ****             status = CYRET_BAD_PARAM;
 559              		.loc 1 468 0
 560 0050 0123     		movs	r3, #1
 561 0052 7B61     		str	r3, [r7, #20]
 562 0054 09E0     		b	.L43
 563              	.L41:
 469:.\Generated_Source\PSoC5/CyFlash.c ****         }
 470:.\Generated_Source\PSoC5/CyFlash.c ****     }
 471:.\Generated_Source\PSoC5/CyFlash.c ****     else
 472:.\Generated_Source\PSoC5/CyFlash.c ****     {
 473:.\Generated_Source\PSoC5/CyFlash.c ****         /* EEPROM */
 474:.\Generated_Source\PSoC5/CyFlash.c ****         if(rowNumber > (CY_EEPROM_NUMBER_ROWS/CY_FLASH_EEPROM_NUMBER_ARRAYS))
 564              		.loc 1 474 0
 565 0056 BB89     		ldrh	r3, [r7, #12]
 566 0058 802B     		cmp	r3, #128
 567 005a 01D9     		bls	.L44
 475:.\Generated_Source\PSoC5/CyFlash.c ****         {
 476:.\Generated_Source\PSoC5/CyFlash.c ****             status = CYRET_BAD_PARAM;
 568              		.loc 1 476 0
 569 005c 0123     		movs	r3, #1
 570 005e 7B61     		str	r3, [r7, #20]
 571              	.L44:
 477:.\Generated_Source\PSoC5/CyFlash.c ****         }
 478:.\Generated_Source\PSoC5/CyFlash.c **** 
 479:.\Generated_Source\PSoC5/CyFlash.c ****         if(CY_EEPROM_SIZEOF_ROW != rowSize)
 572              		.loc 1 479 0
 573 0060 FB88     		ldrh	r3, [r7, #6]
 574 0062 102B     		cmp	r3, #16
 575 0064 01D0     		beq	.L43
 480:.\Generated_Source\PSoC5/CyFlash.c ****         {
 481:.\Generated_Source\PSoC5/CyFlash.c ****             status = CYRET_BAD_PARAM;
 576              		.loc 1 481 0
 577 0066 0123     		movs	r3, #1
 578 0068 7B61     		str	r3, [r7, #20]
 579              	.L43:
 482:.\Generated_Source\PSoC5/CyFlash.c ****         }
 483:.\Generated_Source\PSoC5/CyFlash.c ****     }
 484:.\Generated_Source\PSoC5/CyFlash.c **** 
 485:.\Generated_Source\PSoC5/CyFlash.c ****     if(rowData == NULL)
 580              		.loc 1 485 0
 581 006a BB68     		ldr	r3, [r7, #8]
 582 006c 002B     		cmp	r3, #0
 583 006e 01D1     		bne	.L45
 486:.\Generated_Source\PSoC5/CyFlash.c ****     {
 487:.\Generated_Source\PSoC5/CyFlash.c ****         status = CYRET_BAD_PARAM;
 584              		.loc 1 487 0
 585 0070 0123     		movs	r3, #1
 586 0072 7B61     		str	r3, [r7, #20]
 587              	.L45:
 488:.\Generated_Source\PSoC5/CyFlash.c ****     }
 489:.\Generated_Source\PSoC5/CyFlash.c **** 
 490:.\Generated_Source\PSoC5/CyFlash.c **** 
 491:.\Generated_Source\PSoC5/CyFlash.c ****     if(status == CYRET_SUCCESS)
 588              		.loc 1 491 0
 589 0074 7B69     		ldr	r3, [r7, #20]
 590 0076 002B     		cmp	r3, #0
ARM GAS  C:\Users\xavieran\AppData\Local\Temp\ccDRn56N.s 			page 20


 591 0078 62D1     		bne	.L46
 492:.\Generated_Source\PSoC5/CyFlash.c ****     {
 493:.\Generated_Source\PSoC5/CyFlash.c ****         if(CySpcLock() == CYRET_SUCCESS)
 592              		.loc 1 493 0
 593 007a FFF7FEFF 		bl	CySpcLock
 594 007e 0346     		mov	r3, r0
 595 0080 002B     		cmp	r3, #0
 596 0082 5BD1     		bne	.L47
 494:.\Generated_Source\PSoC5/CyFlash.c ****         {
 495:.\Generated_Source\PSoC5/CyFlash.c ****             /* Load row data into SPC internal latch */
 496:.\Generated_Source\PSoC5/CyFlash.c ****             status = CySpcLoadRowFull(arrayId, rowNumber, rowData, rowSize);
 597              		.loc 1 496 0
 598 0084 F97B     		ldrb	r1, [r7, #15]	@ zero_extendqisi2
 599 0086 BA89     		ldrh	r2, [r7, #12]
 600 0088 FB88     		ldrh	r3, [r7, #6]
 601 008a 0846     		mov	r0, r1
 602 008c 1146     		mov	r1, r2
 603 008e BA68     		ldr	r2, [r7, #8]
 604 0090 FFF7FEFF 		bl	CySpcLoadRowFull
 605 0094 7861     		str	r0, [r7, #20]
 497:.\Generated_Source\PSoC5/CyFlash.c **** 
 498:.\Generated_Source\PSoC5/CyFlash.c ****             if(CYRET_STARTED == status)
 606              		.loc 1 498 0
 607 0096 7B69     		ldr	r3, [r7, #20]
 608 0098 072B     		cmp	r3, #7
 609 009a 4CD1     		bne	.L48
 499:.\Generated_Source\PSoC5/CyFlash.c ****             {
 500:.\Generated_Source\PSoC5/CyFlash.c ****                 while(CY_SPC_BUSY)
 610              		.loc 1 500 0
 611 009c 02E0     		b	.L49
 612              	.L50:
 501:.\Generated_Source\PSoC5/CyFlash.c ****                 {
 502:.\Generated_Source\PSoC5/CyFlash.c ****                     /* Wait for SPC to finish and get SPC status */
 503:.\Generated_Source\PSoC5/CyFlash.c ****                     CyDelayUs(1u);
 613              		.loc 1 503 0
 614 009e 0120     		movs	r0, #1
 615 00a0 FFF7FEFF 		bl	CyDelayUs
 616              	.L49:
 500:.\Generated_Source\PSoC5/CyFlash.c ****                 while(CY_SPC_BUSY)
 617              		.loc 1 500 0 discriminator 1
 618 00a4 294B     		ldr	r3, .L57
 619 00a6 1B78     		ldrb	r3, [r3]
 620 00a8 DBB2     		uxtb	r3, r3
 621 00aa 03F00203 		and	r3, r3, #2
 622 00ae 002B     		cmp	r3, #0
 623 00b0 F5D0     		beq	.L50
 504:.\Generated_Source\PSoC5/CyFlash.c ****                 }
 505:.\Generated_Source\PSoC5/CyFlash.c **** 
 506:.\Generated_Source\PSoC5/CyFlash.c ****                 /* Hide SPC status */
 507:.\Generated_Source\PSoC5/CyFlash.c ****                 if(CY_SPC_STATUS_SUCCESS == CY_SPC_READ_STATUS)
 624              		.loc 1 507 0
 625 00b2 264B     		ldr	r3, .L57
 626 00b4 1B78     		ldrb	r3, [r3]
 627 00b6 DBB2     		uxtb	r3, r3
 628 00b8 03F00203 		and	r3, r3, #2
 629 00bc 002B     		cmp	r3, #0
 630 00be 09D0     		beq	.L51
ARM GAS  C:\Users\xavieran\AppData\Local\Temp\ccDRn56N.s 			page 21


 631              		.loc 1 507 0 is_stmt 0 discriminator 1
 632 00c0 224B     		ldr	r3, .L57
 633 00c2 1B78     		ldrb	r3, [r3]
 634 00c4 DBB2     		uxtb	r3, r3
 635 00c6 9B08     		lsrs	r3, r3, #2
 636 00c8 DBB2     		uxtb	r3, r3
 637 00ca 002B     		cmp	r3, #0
 638 00cc 02D1     		bne	.L51
 508:.\Generated_Source\PSoC5/CyFlash.c ****                 {
 509:.\Generated_Source\PSoC5/CyFlash.c ****                     status = CYRET_SUCCESS;
 639              		.loc 1 509 0 is_stmt 1
 640 00ce 0023     		movs	r3, #0
 641 00d0 7B61     		str	r3, [r7, #20]
 642 00d2 02E0     		b	.L52
 643              	.L51:
 510:.\Generated_Source\PSoC5/CyFlash.c ****                 }
 511:.\Generated_Source\PSoC5/CyFlash.c ****                 else
 512:.\Generated_Source\PSoC5/CyFlash.c ****                 {
 513:.\Generated_Source\PSoC5/CyFlash.c ****                     status = CYRET_UNKNOWN;
 644              		.loc 1 513 0
 645 00d4 4FF0FF33 		mov	r3, #-1
 646 00d8 7B61     		str	r3, [r7, #20]
 647              	.L52:
 514:.\Generated_Source\PSoC5/CyFlash.c ****                 }
 515:.\Generated_Source\PSoC5/CyFlash.c **** 
 516:.\Generated_Source\PSoC5/CyFlash.c ****                 if(CYRET_SUCCESS == status)
 648              		.loc 1 516 0
 649 00da 7B69     		ldr	r3, [r7, #20]
 650 00dc 002B     		cmp	r3, #0
 651 00de 2AD1     		bne	.L48
 517:.\Generated_Source\PSoC5/CyFlash.c ****                 {
 518:.\Generated_Source\PSoC5/CyFlash.c ****                     /* Erase and program flash with data from SPC interval latch */
 519:.\Generated_Source\PSoC5/CyFlash.c ****                     status = CySpcWriteRow(arrayId, rowNumber, dieTemperature[0u], dieTemperature[1
 652              		.loc 1 519 0
 653 00e0 1B4B     		ldr	r3, .L57+4
 654 00e2 1A78     		ldrb	r2, [r3]	@ zero_extendqisi2
 655 00e4 1A4B     		ldr	r3, .L57+4
 656 00e6 5B78     		ldrb	r3, [r3, #1]	@ zero_extendqisi2
 657 00e8 F87B     		ldrb	r0, [r7, #15]	@ zero_extendqisi2
 658 00ea B989     		ldrh	r1, [r7, #12]
 659 00ec FFF7FEFF 		bl	CySpcWriteRow
 660 00f0 7861     		str	r0, [r7, #20]
 520:.\Generated_Source\PSoC5/CyFlash.c **** 
 521:.\Generated_Source\PSoC5/CyFlash.c ****                     if(CYRET_STARTED == status)
 661              		.loc 1 521 0
 662 00f2 7B69     		ldr	r3, [r7, #20]
 663 00f4 072B     		cmp	r3, #7
 664 00f6 1ED1     		bne	.L48
 522:.\Generated_Source\PSoC5/CyFlash.c ****                     {
 523:.\Generated_Source\PSoC5/CyFlash.c ****                         while(CY_SPC_BUSY)
 665              		.loc 1 523 0
 666 00f8 02E0     		b	.L53
 667              	.L54:
 524:.\Generated_Source\PSoC5/CyFlash.c ****                         {
 525:.\Generated_Source\PSoC5/CyFlash.c ****                             /* Wait for SPC to finish and get SPC status */
 526:.\Generated_Source\PSoC5/CyFlash.c ****                             CyDelayUs(1u);
 668              		.loc 1 526 0
ARM GAS  C:\Users\xavieran\AppData\Local\Temp\ccDRn56N.s 			page 22


 669 00fa 0120     		movs	r0, #1
 670 00fc FFF7FEFF 		bl	CyDelayUs
 671              	.L53:
 523:.\Generated_Source\PSoC5/CyFlash.c ****                         while(CY_SPC_BUSY)
 672              		.loc 1 523 0 discriminator 1
 673 0100 124B     		ldr	r3, .L57
 674 0102 1B78     		ldrb	r3, [r3]
 675 0104 DBB2     		uxtb	r3, r3
 676 0106 03F00203 		and	r3, r3, #2
 677 010a 002B     		cmp	r3, #0
 678 010c F5D0     		beq	.L54
 527:.\Generated_Source\PSoC5/CyFlash.c ****                         }
 528:.\Generated_Source\PSoC5/CyFlash.c **** 
 529:.\Generated_Source\PSoC5/CyFlash.c ****                         /* Hide SPC status */
 530:.\Generated_Source\PSoC5/CyFlash.c ****                         if(CY_SPC_STATUS_SUCCESS == CY_SPC_READ_STATUS)
 679              		.loc 1 530 0
 680 010e 0F4B     		ldr	r3, .L57
 681 0110 1B78     		ldrb	r3, [r3]
 682 0112 DBB2     		uxtb	r3, r3
 683 0114 03F00203 		and	r3, r3, #2
 684 0118 002B     		cmp	r3, #0
 685 011a 09D0     		beq	.L55
 686              		.loc 1 530 0 is_stmt 0 discriminator 1
 687 011c 0B4B     		ldr	r3, .L57
 688 011e 1B78     		ldrb	r3, [r3]
 689 0120 DBB2     		uxtb	r3, r3
 690 0122 9B08     		lsrs	r3, r3, #2
 691 0124 DBB2     		uxtb	r3, r3
 692 0126 002B     		cmp	r3, #0
 693 0128 02D1     		bne	.L55
 531:.\Generated_Source\PSoC5/CyFlash.c ****                         {
 532:.\Generated_Source\PSoC5/CyFlash.c ****                             status = CYRET_SUCCESS;
 694              		.loc 1 532 0 is_stmt 1
 695 012a 0023     		movs	r3, #0
 696 012c 7B61     		str	r3, [r7, #20]
 697 012e 02E0     		b	.L48
 698              	.L55:
 533:.\Generated_Source\PSoC5/CyFlash.c ****                         }
 534:.\Generated_Source\PSoC5/CyFlash.c ****                         else
 535:.\Generated_Source\PSoC5/CyFlash.c ****                         {
 536:.\Generated_Source\PSoC5/CyFlash.c ****                             status = CYRET_UNKNOWN;
 699              		.loc 1 536 0
 700 0130 4FF0FF33 		mov	r3, #-1
 701 0134 7B61     		str	r3, [r7, #20]
 702              	.L48:
 537:.\Generated_Source\PSoC5/CyFlash.c ****                         }
 538:.\Generated_Source\PSoC5/CyFlash.c ****                     }
 539:.\Generated_Source\PSoC5/CyFlash.c ****                 }
 540:.\Generated_Source\PSoC5/CyFlash.c ****             }
 541:.\Generated_Source\PSoC5/CyFlash.c ****             CySpcUnlock();
 703              		.loc 1 541 0
 704 0136 FFF7FEFF 		bl	CySpcUnlock
 705 013a 01E0     		b	.L46
 706              	.L47:
 542:.\Generated_Source\PSoC5/CyFlash.c ****         }   /* if(CySpcLock() == CYRET_SUCCESS) */
 543:.\Generated_Source\PSoC5/CyFlash.c ****         else
 544:.\Generated_Source\PSoC5/CyFlash.c ****         {
ARM GAS  C:\Users\xavieran\AppData\Local\Temp\ccDRn56N.s 			page 23


 545:.\Generated_Source\PSoC5/CyFlash.c ****             status = CYRET_LOCKED;
 707              		.loc 1 545 0
 708 013c 0423     		movs	r3, #4
 709 013e 7B61     		str	r3, [r7, #20]
 710              	.L46:
 546:.\Generated_Source\PSoC5/CyFlash.c ****         }
 547:.\Generated_Source\PSoC5/CyFlash.c ****     }
 548:.\Generated_Source\PSoC5/CyFlash.c **** 
 549:.\Generated_Source\PSoC5/CyFlash.c ****     return(status);
 711              		.loc 1 549 0
 712 0140 7B69     		ldr	r3, [r7, #20]
 550:.\Generated_Source\PSoC5/CyFlash.c **** }
 713              		.loc 1 550 0
 714 0142 1846     		mov	r0, r3
 715 0144 1837     		adds	r7, r7, #24
 716 0146 BD46     		mov	sp, r7
 717              		@ sp needed
 718 0148 80BD     		pop	{r7, pc}
 719              	.L58:
 720 014a 00BF     		.align	2
 721              	.L57:
 722 014c 22470040 		.word	1073760034
 723 0150 00000000 		.word	dieTemperature
 724              		.cfi_endproc
 725              	.LFE7:
 726              		.size	CyWriteRowFull, .-CyWriteRowFull
 727              		.section	.text.CyFlash_SetWaitCycles,"ax",%progbits
 728              		.align	2
 729              		.global	CyFlash_SetWaitCycles
 730              		.thumb
 731              		.thumb_func
 732              		.type	CyFlash_SetWaitCycles, %function
 733              	CyFlash_SetWaitCycles:
 734              	.LFB8:
 551:.\Generated_Source\PSoC5/CyFlash.c **** 
 552:.\Generated_Source\PSoC5/CyFlash.c **** 
 553:.\Generated_Source\PSoC5/CyFlash.c **** /*******************************************************************************
 554:.\Generated_Source\PSoC5/CyFlash.c **** * Function Name: CyFlash_SetWaitCycles
 555:.\Generated_Source\PSoC5/CyFlash.c **** ********************************************************************************
 556:.\Generated_Source\PSoC5/CyFlash.c **** *
 557:.\Generated_Source\PSoC5/CyFlash.c **** * Summary:
 558:.\Generated_Source\PSoC5/CyFlash.c **** *  Sets the number of clock cycles the cache will wait before it samples data
 559:.\Generated_Source\PSoC5/CyFlash.c **** *  coming back from the Flash. This function must be called before increasing
 560:.\Generated_Source\PSoC5/CyFlash.c **** *  the CPU clock frequency. It can optionally be called after lowering the CPU
 561:.\Generated_Source\PSoC5/CyFlash.c **** *  clock frequency in order to improve the CPU performance.
 562:.\Generated_Source\PSoC5/CyFlash.c **** *
 563:.\Generated_Source\PSoC5/CyFlash.c **** * Parameters:
 564:.\Generated_Source\PSoC5/CyFlash.c **** *  uint8 freq:
 565:.\Generated_Source\PSoC5/CyFlash.c **** *   Frequency of operation in Megahertz.
 566:.\Generated_Source\PSoC5/CyFlash.c **** *
 567:.\Generated_Source\PSoC5/CyFlash.c **** * Return:
 568:.\Generated_Source\PSoC5/CyFlash.c **** *  None
 569:.\Generated_Source\PSoC5/CyFlash.c **** *
 570:.\Generated_Source\PSoC5/CyFlash.c **** *******************************************************************************/
 571:.\Generated_Source\PSoC5/CyFlash.c **** void CyFlash_SetWaitCycles(uint8 freq) 
 572:.\Generated_Source\PSoC5/CyFlash.c **** {
 735              		.loc 1 572 0
ARM GAS  C:\Users\xavieran\AppData\Local\Temp\ccDRn56N.s 			page 24


 736              		.cfi_startproc
 737              		@ args = 0, pretend = 0, frame = 16
 738              		@ frame_needed = 1, uses_anonymous_args = 0
 739 0000 80B5     		push	{r7, lr}
 740              		.cfi_def_cfa_offset 8
 741              		.cfi_offset 7, -8
 742              		.cfi_offset 14, -4
 743 0002 84B0     		sub	sp, sp, #16
 744              		.cfi_def_cfa_offset 24
 745 0004 00AF     		add	r7, sp, #0
 746              		.cfi_def_cfa_register 7
 747 0006 0346     		mov	r3, r0
 748 0008 FB71     		strb	r3, [r7, #7]
 573:.\Generated_Source\PSoC5/CyFlash.c ****     uint8 interruptState;
 574:.\Generated_Source\PSoC5/CyFlash.c **** 
 575:.\Generated_Source\PSoC5/CyFlash.c ****     /* Save current global interrupt enable and disable it */
 576:.\Generated_Source\PSoC5/CyFlash.c ****     interruptState = CyEnterCriticalSection();
 749              		.loc 1 576 0
 750 000a FFF7FEFF 		bl	CyEnterCriticalSection
 751 000e 0346     		mov	r3, r0
 752 0010 FB73     		strb	r3, [r7, #15]
 577:.\Generated_Source\PSoC5/CyFlash.c **** 
 578:.\Generated_Source\PSoC5/CyFlash.c ****     /***************************************************************************
 579:.\Generated_Source\PSoC5/CyFlash.c ****     * The number of clock cycles the cache will wait before it samples data
 580:.\Generated_Source\PSoC5/CyFlash.c ****     * coming back from the Flash must be equal or greater to to the CPU frequency
 581:.\Generated_Source\PSoC5/CyFlash.c ****     * outlined in clock cycles.
 582:.\Generated_Source\PSoC5/CyFlash.c ****     ***************************************************************************/
 583:.\Generated_Source\PSoC5/CyFlash.c **** 
 584:.\Generated_Source\PSoC5/CyFlash.c ****     if (freq < CY_FLASH_CACHE_WS_1_FREQ_MAX)
 753              		.loc 1 584 0
 754 0012 FB79     		ldrb	r3, [r7, #7]	@ zero_extendqisi2
 755 0014 0F2B     		cmp	r3, #15
 756 0016 0BD8     		bhi	.L60
 585:.\Generated_Source\PSoC5/CyFlash.c ****     {
 586:.\Generated_Source\PSoC5/CyFlash.c ****         CY_FLASH_CONTROL_REG = (CY_FLASH_CONTROL_REG & (uint8)(~CY_FLASH_CACHE_WS_VALUE_MASK)) |
 757              		.loc 1 586 0
 758 0018 274B     		ldr	r3, .L66
 759 001a 274A     		ldr	r2, .L66
 760 001c 1278     		ldrb	r2, [r2]
 761 001e D2B2     		uxtb	r2, r2
 762 0020 02F01F02 		and	r2, r2, #31
 763 0024 D2B2     		uxtb	r2, r2
 764 0026 42F04002 		orr	r2, r2, #64
 765 002a D2B2     		uxtb	r2, r2
 766 002c 1A70     		strb	r2, [r3]
 767 002e 3BE0     		b	.L61
 768              	.L60:
 587:.\Generated_Source\PSoC5/CyFlash.c ****                                     CY_FLASH_CACHE_WS_1_VALUE_MASK;
 588:.\Generated_Source\PSoC5/CyFlash.c ****     }
 589:.\Generated_Source\PSoC5/CyFlash.c ****     else if (freq < CY_FLASH_CACHE_WS_2_FREQ_MAX)
 769              		.loc 1 589 0
 770 0030 FB79     		ldrb	r3, [r7, #7]	@ zero_extendqisi2
 771 0032 202B     		cmp	r3, #32
 772 0034 0BD8     		bhi	.L62
 590:.\Generated_Source\PSoC5/CyFlash.c ****     {
 591:.\Generated_Source\PSoC5/CyFlash.c ****         CY_FLASH_CONTROL_REG = (CY_FLASH_CONTROL_REG & (uint8)(~CY_FLASH_CACHE_WS_VALUE_MASK)) |
 773              		.loc 1 591 0
ARM GAS  C:\Users\xavieran\AppData\Local\Temp\ccDRn56N.s 			page 25


 774 0036 204B     		ldr	r3, .L66
 775 0038 1F4A     		ldr	r2, .L66
 776 003a 1278     		ldrb	r2, [r2]
 777 003c D2B2     		uxtb	r2, r2
 778 003e 02F01F02 		and	r2, r2, #31
 779 0042 D2B2     		uxtb	r2, r2
 780 0044 62F07F02 		orn	r2, r2, #127
 781 0048 D2B2     		uxtb	r2, r2
 782 004a 1A70     		strb	r2, [r3]
 783 004c 2CE0     		b	.L61
 784              	.L62:
 592:.\Generated_Source\PSoC5/CyFlash.c ****                                     CY_FLASH_CACHE_WS_2_VALUE_MASK;
 593:.\Generated_Source\PSoC5/CyFlash.c ****     }
 594:.\Generated_Source\PSoC5/CyFlash.c ****     else if (freq < CY_FLASH_CACHE_WS_3_FREQ_MAX)
 785              		.loc 1 594 0
 786 004e FB79     		ldrb	r3, [r7, #7]	@ zero_extendqisi2
 787 0050 312B     		cmp	r3, #49
 788 0052 0BD8     		bhi	.L63
 595:.\Generated_Source\PSoC5/CyFlash.c ****     {
 596:.\Generated_Source\PSoC5/CyFlash.c ****         CY_FLASH_CONTROL_REG = (CY_FLASH_CONTROL_REG & (uint8)(~CY_FLASH_CACHE_WS_VALUE_MASK)) |
 789              		.loc 1 596 0
 790 0054 184B     		ldr	r3, .L66
 791 0056 184A     		ldr	r2, .L66
 792 0058 1278     		ldrb	r2, [r2]
 793 005a D2B2     		uxtb	r2, r2
 794 005c 02F01F02 		and	r2, r2, #31
 795 0060 D2B2     		uxtb	r2, r2
 796 0062 62F03F02 		orn	r2, r2, #63
 797 0066 D2B2     		uxtb	r2, r2
 798 0068 1A70     		strb	r2, [r3]
 799 006a 1DE0     		b	.L61
 800              	.L63:
 597:.\Generated_Source\PSoC5/CyFlash.c ****                                     CY_FLASH_CACHE_WS_3_VALUE_MASK;
 598:.\Generated_Source\PSoC5/CyFlash.c ****     }
 599:.\Generated_Source\PSoC5/CyFlash.c **** #if (CY_PSOC5)
 600:.\Generated_Source\PSoC5/CyFlash.c ****     else if (freq < CY_FLASH_CACHE_WS_4_FREQ_MAX)
 801              		.loc 1 600 0
 802 006c FB79     		ldrb	r3, [r7, #7]	@ zero_extendqisi2
 803 006e 422B     		cmp	r3, #66
 804 0070 08D8     		bhi	.L64
 601:.\Generated_Source\PSoC5/CyFlash.c ****     {
 602:.\Generated_Source\PSoC5/CyFlash.c ****         CY_FLASH_CONTROL_REG = (CY_FLASH_CONTROL_REG & (uint8)(~CY_FLASH_CACHE_WS_VALUE_MASK)) |
 805              		.loc 1 602 0
 806 0072 114B     		ldr	r3, .L66
 807 0074 104A     		ldr	r2, .L66
 808 0076 1278     		ldrb	r2, [r2]
 809 0078 D2B2     		uxtb	r2, r2
 810 007a 02F01F02 		and	r2, r2, #31
 811 007e D2B2     		uxtb	r2, r2
 812 0080 1A70     		strb	r2, [r3]
 813 0082 11E0     		b	.L61
 814              	.L64:
 603:.\Generated_Source\PSoC5/CyFlash.c ****                                     CY_FLASH_CACHE_WS_4_VALUE_MASK;
 604:.\Generated_Source\PSoC5/CyFlash.c ****     }
 605:.\Generated_Source\PSoC5/CyFlash.c ****     else if (freq <= CY_FLASH_CACHE_WS_5_FREQ_MAX)
 815              		.loc 1 605 0
 816 0084 FB79     		ldrb	r3, [r7, #7]	@ zero_extendqisi2
ARM GAS  C:\Users\xavieran\AppData\Local\Temp\ccDRn56N.s 			page 26


 817 0086 532B     		cmp	r3, #83
 818 0088 0BD8     		bhi	.L65
 606:.\Generated_Source\PSoC5/CyFlash.c ****     {
 607:.\Generated_Source\PSoC5/CyFlash.c ****         CY_FLASH_CONTROL_REG = (CY_FLASH_CONTROL_REG & (uint8)(~CY_FLASH_CACHE_WS_VALUE_MASK)) |
 819              		.loc 1 607 0
 820 008a 0B4B     		ldr	r3, .L66
 821 008c 0A4A     		ldr	r2, .L66
 822 008e 1278     		ldrb	r2, [r2]
 823 0090 D2B2     		uxtb	r2, r2
 824 0092 02F01F02 		and	r2, r2, #31
 825 0096 D2B2     		uxtb	r2, r2
 826 0098 42F02002 		orr	r2, r2, #32
 827 009c D2B2     		uxtb	r2, r2
 828 009e 1A70     		strb	r2, [r3]
 829 00a0 02E0     		b	.L61
 830              	.L65:
 608:.\Generated_Source\PSoC5/CyFlash.c ****                                     CY_FLASH_CACHE_WS_5_VALUE_MASK;
 609:.\Generated_Source\PSoC5/CyFlash.c ****     }
 610:.\Generated_Source\PSoC5/CyFlash.c **** #endif  /* (CY_PSOC5) */
 611:.\Generated_Source\PSoC5/CyFlash.c ****     else
 612:.\Generated_Source\PSoC5/CyFlash.c ****     {
 613:.\Generated_Source\PSoC5/CyFlash.c ****         /* Halt CPU in debug mode if frequency is invalid */
 614:.\Generated_Source\PSoC5/CyFlash.c ****         CYASSERT(0u != 0u);
 831              		.loc 1 614 0 discriminator 1
 832 00a2 0020     		movs	r0, #0
 833 00a4 FFF7FEFF 		bl	CyHalt
 834              	.L61:
 615:.\Generated_Source\PSoC5/CyFlash.c ****     }
 616:.\Generated_Source\PSoC5/CyFlash.c **** 
 617:.\Generated_Source\PSoC5/CyFlash.c ****     /* Restore global interrupt enable state */
 618:.\Generated_Source\PSoC5/CyFlash.c ****     CyExitCriticalSection(interruptState);
 835              		.loc 1 618 0
 836 00a8 FB7B     		ldrb	r3, [r7, #15]	@ zero_extendqisi2
 837 00aa 1846     		mov	r0, r3
 838 00ac FFF7FEFF 		bl	CyExitCriticalSection
 619:.\Generated_Source\PSoC5/CyFlash.c **** }
 839              		.loc 1 619 0
 840 00b0 1037     		adds	r7, r7, #16
 841 00b2 BD46     		mov	sp, r7
 842              		@ sp needed
 843 00b4 80BD     		pop	{r7, pc}
 844              	.L67:
 845 00b6 00BF     		.align	2
 846              	.L66:
 847 00b8 00480040 		.word	1073760256
 848              		.cfi_endproc
 849              	.LFE8:
 850              		.size	CyFlash_SetWaitCycles, .-CyFlash_SetWaitCycles
 851              		.section	.text.CyEEPROM_Start,"ax",%progbits
 852              		.align	2
 853              		.global	CyEEPROM_Start
 854              		.thumb
 855              		.thumb_func
 856              		.type	CyEEPROM_Start, %function
 857              	CyEEPROM_Start:
 858              	.LFB9:
 620:.\Generated_Source\PSoC5/CyFlash.c **** 
ARM GAS  C:\Users\xavieran\AppData\Local\Temp\ccDRn56N.s 			page 27


 621:.\Generated_Source\PSoC5/CyFlash.c **** 
 622:.\Generated_Source\PSoC5/CyFlash.c **** /*******************************************************************************
 623:.\Generated_Source\PSoC5/CyFlash.c **** * Function Name: CyEEPROM_Start
 624:.\Generated_Source\PSoC5/CyFlash.c **** ********************************************************************************
 625:.\Generated_Source\PSoC5/CyFlash.c **** *
 626:.\Generated_Source\PSoC5/CyFlash.c **** * Summary:
 627:.\Generated_Source\PSoC5/CyFlash.c **** *  Enable the EEPROM.
 628:.\Generated_Source\PSoC5/CyFlash.c **** *
 629:.\Generated_Source\PSoC5/CyFlash.c **** * Parameters:
 630:.\Generated_Source\PSoC5/CyFlash.c **** *  None
 631:.\Generated_Source\PSoC5/CyFlash.c **** *
 632:.\Generated_Source\PSoC5/CyFlash.c **** * Return:
 633:.\Generated_Source\PSoC5/CyFlash.c **** *  None
 634:.\Generated_Source\PSoC5/CyFlash.c **** *
 635:.\Generated_Source\PSoC5/CyFlash.c **** *******************************************************************************/
 636:.\Generated_Source\PSoC5/CyFlash.c **** void CyEEPROM_Start(void) 
 637:.\Generated_Source\PSoC5/CyFlash.c **** {
 859              		.loc 1 637 0
 860              		.cfi_startproc
 861              		@ args = 0, pretend = 0, frame = 8
 862              		@ frame_needed = 1, uses_anonymous_args = 0
 863 0000 80B5     		push	{r7, lr}
 864              		.cfi_def_cfa_offset 8
 865              		.cfi_offset 7, -8
 866              		.cfi_offset 14, -4
 867 0002 82B0     		sub	sp, sp, #8
 868              		.cfi_def_cfa_offset 16
 869 0004 00AF     		add	r7, sp, #0
 870              		.cfi_def_cfa_register 7
 638:.\Generated_Source\PSoC5/CyFlash.c ****     uint8 interruptState;
 639:.\Generated_Source\PSoC5/CyFlash.c **** 
 640:.\Generated_Source\PSoC5/CyFlash.c ****     interruptState = CyEnterCriticalSection();
 871              		.loc 1 640 0
 872 0006 FFF7FEFF 		bl	CyEnterCriticalSection
 873 000a 0346     		mov	r3, r0
 874 000c FB71     		strb	r3, [r7, #7]
 641:.\Generated_Source\PSoC5/CyFlash.c **** 
 642:.\Generated_Source\PSoC5/CyFlash.c **** 
 643:.\Generated_Source\PSoC5/CyFlash.c ****     /***************************************************************************
 644:.\Generated_Source\PSoC5/CyFlash.c ****     * Enable SPC clock. This also internally enables the 36MHz IMO, since this
 645:.\Generated_Source\PSoC5/CyFlash.c ****     * is required for the SPC to function.
 646:.\Generated_Source\PSoC5/CyFlash.c ****     ***************************************************************************/
 647:.\Generated_Source\PSoC5/CyFlash.c ****     CY_FLASH_PM_ACT_CFG0_REG    |= CY_FLASH_PM_ACT_CFG0_EN_CLK_SPC;
 875              		.loc 1 647 0
 876 000e 194B     		ldr	r3, .L70
 877 0010 184A     		ldr	r2, .L70
 878 0012 1278     		ldrb	r2, [r2]
 879 0014 D2B2     		uxtb	r2, r2
 880 0016 42F00802 		orr	r2, r2, #8
 881 001a D2B2     		uxtb	r2, r2
 882 001c 1A70     		strb	r2, [r3]
 648:.\Generated_Source\PSoC5/CyFlash.c ****     CY_FLASH_PM_ALTACT_CFG0_REG |= CY_FLASH_PM_ALTACT_CFG0_EN_CLK_SPC;
 883              		.loc 1 648 0
 884 001e 164B     		ldr	r3, .L70+4
 885 0020 154A     		ldr	r2, .L70+4
 886 0022 1278     		ldrb	r2, [r2]
 887 0024 D2B2     		uxtb	r2, r2
ARM GAS  C:\Users\xavieran\AppData\Local\Temp\ccDRn56N.s 			page 28


 888 0026 42F00802 		orr	r2, r2, #8
 889 002a D2B2     		uxtb	r2, r2
 890 002c 1A70     		strb	r2, [r3]
 649:.\Generated_Source\PSoC5/CyFlash.c **** 
 650:.\Generated_Source\PSoC5/CyFlash.c **** 
 651:.\Generated_Source\PSoC5/CyFlash.c ****     /***************************************************************************
 652:.\Generated_Source\PSoC5/CyFlash.c ****     * The wake count defines the number of Bus Clock cycles it takes for the
 653:.\Generated_Source\PSoC5/CyFlash.c ****     * flash or EEPROM to wake up from a low power mode independent of the chip
 654:.\Generated_Source\PSoC5/CyFlash.c ****     * power mode. Wake up time for these blocks is 5 us.
 655:.\Generated_Source\PSoC5/CyFlash.c ****     * The granularity of this register is 2 Bus Clock cycles, so a value of 0x1E
 656:.\Generated_Source\PSoC5/CyFlash.c ****     * (30d) defines the wake up time as 60 cycles of the Bus Clock.
 657:.\Generated_Source\PSoC5/CyFlash.c ****     * This register needs to be written with a value dependent on the Bus Clock
 658:.\Generated_Source\PSoC5/CyFlash.c ****     * frequency so that the duration of the cycles is equal to or greater than
 659:.\Generated_Source\PSoC5/CyFlash.c ****     * the 5 us delay required.
 660:.\Generated_Source\PSoC5/CyFlash.c ****     ***************************************************************************/
 661:.\Generated_Source\PSoC5/CyFlash.c ****     CY_FLASH_SPC_FM_EE_WAKE_CNT_REG = CY_FLASH_SPC_FM_EE_WAKE_CNT_80MHZ;
 891              		.loc 1 661 0
 892 002e 134B     		ldr	r3, .L70+8
 893 0030 C822     		movs	r2, #200
 894 0032 1A70     		strb	r2, [r3]
 662:.\Generated_Source\PSoC5/CyFlash.c **** 
 663:.\Generated_Source\PSoC5/CyFlash.c **** 
 664:.\Generated_Source\PSoC5/CyFlash.c ****     /***************************************************************************
 665:.\Generated_Source\PSoC5/CyFlash.c ****     * Enable EEPROM. Re-enabling an EEPROM macro takes 5us. During this time,
 666:.\Generated_Source\PSoC5/CyFlash.c ****     * the EE will not acknowledge a PHUB request.
 667:.\Generated_Source\PSoC5/CyFlash.c ****     ***************************************************************************/
 668:.\Generated_Source\PSoC5/CyFlash.c ****     CY_FLASH_PM_ACT_CFG12_REG    |= CY_FLASH_PM_ACT_CFG12_EN_EE;
 895              		.loc 1 668 0
 896 0034 124B     		ldr	r3, .L70+12
 897 0036 124A     		ldr	r2, .L70+12
 898 0038 1278     		ldrb	r2, [r2]
 899 003a D2B2     		uxtb	r2, r2
 900 003c 42F01002 		orr	r2, r2, #16
 901 0040 D2B2     		uxtb	r2, r2
 902 0042 1A70     		strb	r2, [r3]
 669:.\Generated_Source\PSoC5/CyFlash.c ****     CY_FLASH_PM_ALTACT_CFG12_REG |= CY_FLASH_PM_ALTACT_CFG12_EN_EE;
 903              		.loc 1 669 0
 904 0044 0F4B     		ldr	r3, .L70+16
 905 0046 0F4A     		ldr	r2, .L70+16
 906 0048 1278     		ldrb	r2, [r2]
 907 004a D2B2     		uxtb	r2, r2
 908 004c 42F01002 		orr	r2, r2, #16
 909 0050 D2B2     		uxtb	r2, r2
 910 0052 1A70     		strb	r2, [r3]
 670:.\Generated_Source\PSoC5/CyFlash.c **** 
 671:.\Generated_Source\PSoC5/CyFlash.c ****     while(0u == (CY_FLASH_SPC_FM_EE_CR_REG & CY_FLASH_EE_EE_AWAKE))
 911              		.loc 1 671 0
 912 0054 00BF     		nop
 913              	.L69:
 914              		.loc 1 671 0 is_stmt 0 discriminator 1
 915 0056 0C4B     		ldr	r3, .L70+20
 916 0058 1B78     		ldrb	r3, [r3]
 917 005a DBB2     		uxtb	r3, r3
 918 005c 03F02003 		and	r3, r3, #32
 919 0060 002B     		cmp	r3, #0
 920 0062 F8D0     		beq	.L69
 672:.\Generated_Source\PSoC5/CyFlash.c ****     {
ARM GAS  C:\Users\xavieran\AppData\Local\Temp\ccDRn56N.s 			page 29


 673:.\Generated_Source\PSoC5/CyFlash.c ****         /* Non-zero status denotes that the EEPROM/Flash is awake & powered. */
 674:.\Generated_Source\PSoC5/CyFlash.c ****     }
 675:.\Generated_Source\PSoC5/CyFlash.c **** 
 676:.\Generated_Source\PSoC5/CyFlash.c ****     CyExitCriticalSection(interruptState);
 921              		.loc 1 676 0 is_stmt 1
 922 0064 FB79     		ldrb	r3, [r7, #7]	@ zero_extendqisi2
 923 0066 1846     		mov	r0, r3
 924 0068 FFF7FEFF 		bl	CyExitCriticalSection
 677:.\Generated_Source\PSoC5/CyFlash.c **** }
 925              		.loc 1 677 0
 926 006c 0837     		adds	r7, r7, #8
 927 006e BD46     		mov	sp, r7
 928              		@ sp needed
 929 0070 80BD     		pop	{r7, pc}
 930              	.L71:
 931 0072 00BF     		.align	2
 932              	.L70:
 933 0074 A0430040 		.word	1073759136
 934 0078 B0430040 		.word	1073759152
 935 007c 01470040 		.word	1073760001
 936 0080 AC430040 		.word	1073759148
 937 0084 BC430040 		.word	1073759164
 938 0088 00470040 		.word	1073760000
 939              		.cfi_endproc
 940              	.LFE9:
 941              		.size	CyEEPROM_Start, .-CyEEPROM_Start
 942              		.section	.text.CyEEPROM_Stop,"ax",%progbits
 943              		.align	2
 944              		.global	CyEEPROM_Stop
 945              		.thumb
 946              		.thumb_func
 947              		.type	CyEEPROM_Stop, %function
 948              	CyEEPROM_Stop:
 949              	.LFB10:
 678:.\Generated_Source\PSoC5/CyFlash.c **** 
 679:.\Generated_Source\PSoC5/CyFlash.c **** 
 680:.\Generated_Source\PSoC5/CyFlash.c **** /*******************************************************************************
 681:.\Generated_Source\PSoC5/CyFlash.c **** * Function Name: CyEEPROM_Stop
 682:.\Generated_Source\PSoC5/CyFlash.c **** ********************************************************************************
 683:.\Generated_Source\PSoC5/CyFlash.c **** *
 684:.\Generated_Source\PSoC5/CyFlash.c **** * Summary:
 685:.\Generated_Source\PSoC5/CyFlash.c **** *  Disable the EEPROM.
 686:.\Generated_Source\PSoC5/CyFlash.c **** *
 687:.\Generated_Source\PSoC5/CyFlash.c **** * Parameters:
 688:.\Generated_Source\PSoC5/CyFlash.c **** *  None
 689:.\Generated_Source\PSoC5/CyFlash.c **** *
 690:.\Generated_Source\PSoC5/CyFlash.c **** * Return:
 691:.\Generated_Source\PSoC5/CyFlash.c **** *  None
 692:.\Generated_Source\PSoC5/CyFlash.c **** *
 693:.\Generated_Source\PSoC5/CyFlash.c **** *******************************************************************************/
 694:.\Generated_Source\PSoC5/CyFlash.c **** void CyEEPROM_Stop (void) 
 695:.\Generated_Source\PSoC5/CyFlash.c **** {
 950              		.loc 1 695 0
 951              		.cfi_startproc
 952              		@ args = 0, pretend = 0, frame = 8
 953              		@ frame_needed = 1, uses_anonymous_args = 0
 954 0000 80B5     		push	{r7, lr}
ARM GAS  C:\Users\xavieran\AppData\Local\Temp\ccDRn56N.s 			page 30


 955              		.cfi_def_cfa_offset 8
 956              		.cfi_offset 7, -8
 957              		.cfi_offset 14, -4
 958 0002 82B0     		sub	sp, sp, #8
 959              		.cfi_def_cfa_offset 16
 960 0004 00AF     		add	r7, sp, #0
 961              		.cfi_def_cfa_register 7
 696:.\Generated_Source\PSoC5/CyFlash.c ****     uint8 interruptState;
 697:.\Generated_Source\PSoC5/CyFlash.c **** 
 698:.\Generated_Source\PSoC5/CyFlash.c ****     interruptState = CyEnterCriticalSection();
 962              		.loc 1 698 0
 963 0006 FFF7FEFF 		bl	CyEnterCriticalSection
 964 000a 0346     		mov	r3, r0
 965 000c FB71     		strb	r3, [r7, #7]
 699:.\Generated_Source\PSoC5/CyFlash.c **** 
 700:.\Generated_Source\PSoC5/CyFlash.c ****     CY_FLASH_PM_ACT_CFG12_REG    &= ((uint8)(~CY_FLASH_PM_ACT_CFG12_EN_EE));
 966              		.loc 1 700 0
 967 000e 0B4B     		ldr	r3, .L73
 968 0010 0A4A     		ldr	r2, .L73
 969 0012 1278     		ldrb	r2, [r2]
 970 0014 D2B2     		uxtb	r2, r2
 971 0016 22F01002 		bic	r2, r2, #16
 972 001a D2B2     		uxtb	r2, r2
 973 001c 1A70     		strb	r2, [r3]
 701:.\Generated_Source\PSoC5/CyFlash.c ****     CY_FLASH_PM_ALTACT_CFG12_REG &= ((uint8)(~CY_FLASH_PM_ALTACT_CFG12_EN_EE));
 974              		.loc 1 701 0
 975 001e 084B     		ldr	r3, .L73+4
 976 0020 074A     		ldr	r2, .L73+4
 977 0022 1278     		ldrb	r2, [r2]
 978 0024 D2B2     		uxtb	r2, r2
 979 0026 22F01002 		bic	r2, r2, #16
 980 002a D2B2     		uxtb	r2, r2
 981 002c 1A70     		strb	r2, [r3]
 702:.\Generated_Source\PSoC5/CyFlash.c **** 
 703:.\Generated_Source\PSoC5/CyFlash.c ****     CyExitCriticalSection(interruptState);
 982              		.loc 1 703 0
 983 002e FB79     		ldrb	r3, [r7, #7]	@ zero_extendqisi2
 984 0030 1846     		mov	r0, r3
 985 0032 FFF7FEFF 		bl	CyExitCriticalSection
 704:.\Generated_Source\PSoC5/CyFlash.c **** }
 986              		.loc 1 704 0
 987 0036 0837     		adds	r7, r7, #8
 988 0038 BD46     		mov	sp, r7
 989              		@ sp needed
 990 003a 80BD     		pop	{r7, pc}
 991              	.L74:
 992              		.align	2
 993              	.L73:
 994 003c AC430040 		.word	1073759148
 995 0040 BC430040 		.word	1073759164
 996              		.cfi_endproc
 997              	.LFE10:
 998              		.size	CyEEPROM_Stop, .-CyEEPROM_Stop
 999              		.section	.text.CyEEPROM_ReadReserve,"ax",%progbits
 1000              		.align	2
 1001              		.global	CyEEPROM_ReadReserve
 1002              		.thumb
ARM GAS  C:\Users\xavieran\AppData\Local\Temp\ccDRn56N.s 			page 31


 1003              		.thumb_func
 1004              		.type	CyEEPROM_ReadReserve, %function
 1005              	CyEEPROM_ReadReserve:
 1006              	.LFB11:
 705:.\Generated_Source\PSoC5/CyFlash.c **** 
 706:.\Generated_Source\PSoC5/CyFlash.c **** 
 707:.\Generated_Source\PSoC5/CyFlash.c **** /*******************************************************************************
 708:.\Generated_Source\PSoC5/CyFlash.c **** * Function Name: CyEEPROM_ReadReserve
 709:.\Generated_Source\PSoC5/CyFlash.c **** ********************************************************************************
 710:.\Generated_Source\PSoC5/CyFlash.c **** *
 711:.\Generated_Source\PSoC5/CyFlash.c **** * Summary:
 712:.\Generated_Source\PSoC5/CyFlash.c **** *  Request access to the EEPROM for reading and wait until access is available.
 713:.\Generated_Source\PSoC5/CyFlash.c **** *
 714:.\Generated_Source\PSoC5/CyFlash.c **** * Parameters:
 715:.\Generated_Source\PSoC5/CyFlash.c **** *  None
 716:.\Generated_Source\PSoC5/CyFlash.c **** *
 717:.\Generated_Source\PSoC5/CyFlash.c **** * Return:
 718:.\Generated_Source\PSoC5/CyFlash.c **** *  None
 719:.\Generated_Source\PSoC5/CyFlash.c **** *
 720:.\Generated_Source\PSoC5/CyFlash.c **** *******************************************************************************/
 721:.\Generated_Source\PSoC5/CyFlash.c **** void CyEEPROM_ReadReserve(void) 
 722:.\Generated_Source\PSoC5/CyFlash.c **** {
 1007              		.loc 1 722 0
 1008              		.cfi_startproc
 1009              		@ args = 0, pretend = 0, frame = 0
 1010              		@ frame_needed = 1, uses_anonymous_args = 0
 1011              		@ link register save eliminated.
 1012 0000 80B4     		push	{r7}
 1013              		.cfi_def_cfa_offset 4
 1014              		.cfi_offset 7, -4
 1015 0002 00AF     		add	r7, sp, #0
 1016              		.cfi_def_cfa_register 7
 723:.\Generated_Source\PSoC5/CyFlash.c ****     /* Make request for PHUB to have access */
 724:.\Generated_Source\PSoC5/CyFlash.c ****     CY_FLASH_EE_SCR_REG |= CY_FLASH_EE_SCR_AHB_EE_REQ;
 1017              		.loc 1 724 0
 1018 0004 094B     		ldr	r3, .L77
 1019 0006 094A     		ldr	r2, .L77
 1020 0008 1278     		ldrb	r2, [r2]
 1021 000a D2B2     		uxtb	r2, r2
 1022 000c 42F00102 		orr	r2, r2, #1
 1023 0010 D2B2     		uxtb	r2, r2
 1024 0012 1A70     		strb	r2, [r3]
 725:.\Generated_Source\PSoC5/CyFlash.c **** 
 726:.\Generated_Source\PSoC5/CyFlash.c ****     while (0u == (CY_FLASH_EE_SCR_REG & CY_FLASH_EE_SCR_AHB_EE_ACK))
 1025              		.loc 1 726 0
 1026 0014 00BF     		nop
 1027              	.L76:
 1028              		.loc 1 726 0 is_stmt 0 discriminator 1
 1029 0016 054B     		ldr	r3, .L77
 1030 0018 1B78     		ldrb	r3, [r3]
 1031 001a DBB2     		uxtb	r3, r3
 1032 001c 03F00203 		and	r3, r3, #2
 1033 0020 002B     		cmp	r3, #0
 1034 0022 F8D0     		beq	.L76
 727:.\Generated_Source\PSoC5/CyFlash.c ****     {
 728:.\Generated_Source\PSoC5/CyFlash.c ****         /* Wait for acknowledgment from PHUB */
 729:.\Generated_Source\PSoC5/CyFlash.c ****     }
ARM GAS  C:\Users\xavieran\AppData\Local\Temp\ccDRn56N.s 			page 32


 730:.\Generated_Source\PSoC5/CyFlash.c **** }
 1035              		.loc 1 730 0 is_stmt 1
 1036 0024 BD46     		mov	sp, r7
 1037              		@ sp needed
 1038 0026 5DF8047B 		ldr	r7, [sp], #4
 1039 002a 7047     		bx	lr
 1040              	.L78:
 1041              		.align	2
 1042              	.L77:
 1043 002c 02470040 		.word	1073760002
 1044              		.cfi_endproc
 1045              	.LFE11:
 1046              		.size	CyEEPROM_ReadReserve, .-CyEEPROM_ReadReserve
 1047              		.section	.text.CyEEPROM_ReadRelease,"ax",%progbits
 1048              		.align	2
 1049              		.global	CyEEPROM_ReadRelease
 1050              		.thumb
 1051              		.thumb_func
 1052              		.type	CyEEPROM_ReadRelease, %function
 1053              	CyEEPROM_ReadRelease:
 1054              	.LFB12:
 731:.\Generated_Source\PSoC5/CyFlash.c **** 
 732:.\Generated_Source\PSoC5/CyFlash.c **** 
 733:.\Generated_Source\PSoC5/CyFlash.c **** /*******************************************************************************
 734:.\Generated_Source\PSoC5/CyFlash.c **** * Function Name: CyEEPROM_ReadRelease
 735:.\Generated_Source\PSoC5/CyFlash.c **** ********************************************************************************
 736:.\Generated_Source\PSoC5/CyFlash.c **** *
 737:.\Generated_Source\PSoC5/CyFlash.c **** * Summary:
 738:.\Generated_Source\PSoC5/CyFlash.c **** *  Release the read reservation of the EEPROM.
 739:.\Generated_Source\PSoC5/CyFlash.c **** *
 740:.\Generated_Source\PSoC5/CyFlash.c **** * Parameters:
 741:.\Generated_Source\PSoC5/CyFlash.c **** *  None
 742:.\Generated_Source\PSoC5/CyFlash.c **** *
 743:.\Generated_Source\PSoC5/CyFlash.c **** * Return:
 744:.\Generated_Source\PSoC5/CyFlash.c **** *  None
 745:.\Generated_Source\PSoC5/CyFlash.c **** *
 746:.\Generated_Source\PSoC5/CyFlash.c **** *******************************************************************************/
 747:.\Generated_Source\PSoC5/CyFlash.c **** void CyEEPROM_ReadRelease(void) 
 748:.\Generated_Source\PSoC5/CyFlash.c **** {
 1055              		.loc 1 748 0
 1056              		.cfi_startproc
 1057              		@ args = 0, pretend = 0, frame = 0
 1058              		@ frame_needed = 1, uses_anonymous_args = 0
 1059              		@ link register save eliminated.
 1060 0000 80B4     		push	{r7}
 1061              		.cfi_def_cfa_offset 4
 1062              		.cfi_offset 7, -4
 1063 0002 00AF     		add	r7, sp, #0
 1064              		.cfi_def_cfa_register 7
 749:.\Generated_Source\PSoC5/CyFlash.c ****     CY_FLASH_EE_SCR_REG &= (uint8)(~CY_FLASH_EE_SCR_AHB_EE_REQ);
 1065              		.loc 1 749 0
 1066 0004 054B     		ldr	r3, .L80
 1067 0006 054A     		ldr	r2, .L80
 1068 0008 1278     		ldrb	r2, [r2]
 1069 000a D2B2     		uxtb	r2, r2
 1070 000c 22F00102 		bic	r2, r2, #1
 1071 0010 D2B2     		uxtb	r2, r2
ARM GAS  C:\Users\xavieran\AppData\Local\Temp\ccDRn56N.s 			page 33


 1072 0012 1A70     		strb	r2, [r3]
 750:.\Generated_Source\PSoC5/CyFlash.c **** }
 1073              		.loc 1 750 0
 1074 0014 BD46     		mov	sp, r7
 1075              		@ sp needed
 1076 0016 5DF8047B 		ldr	r7, [sp], #4
 1077 001a 7047     		bx	lr
 1078              	.L81:
 1079              		.align	2
 1080              	.L80:
 1081 001c 02470040 		.word	1073760002
 1082              		.cfi_endproc
 1083              	.LFE12:
 1084              		.size	CyEEPROM_ReadRelease, .-CyEEPROM_ReadRelease
 1085              		.text
 1086              	.Letext0:
 1087              		.file 2 ".\\Generated_Source\\PSoC5\\cytypes.h"