ARM GAS  C:\Users\xavieran\AppData\Local\Temp\cc006O7W.s 			page 1


   1              		.syntax unified
   2              		.cpu cortex-m3
   3              		.fpu softvfp
   4              		.eabi_attribute 20, 1
   5              		.eabi_attribute 21, 1
   6              		.eabi_attribute 23, 3
   7              		.eabi_attribute 24, 1
   8              		.eabi_attribute 25, 1
   9              		.eabi_attribute 26, 1
  10              		.eabi_attribute 30, 6
  11              		.eabi_attribute 34, 1
  12              		.eabi_attribute 18, 4
  13              		.thumb
  14              		.file	"HC_PWM_S.c"
  15              		.text
  16              	.Ltext0:
  17              		.cfi_sections	.debug_frame
  18              		.global	HC_PWM_S_initVar
  19              		.bss
  20              		.type	HC_PWM_S_initVar, %object
  21              		.size	HC_PWM_S_initVar, 1
  22              	HC_PWM_S_initVar:
  23 0000 00       		.space	1
  24              		.section	.text.HC_PWM_S_Start,"ax",%progbits
  25              		.align	2
  26              		.global	HC_PWM_S_Start
  27              		.thumb
  28              		.thumb_func
  29              		.type	HC_PWM_S_Start, %function
  30              	HC_PWM_S_Start:
  31              	.LFB0:
  32              		.file 1 ".\\Generated_Source\\PSoC5\\HC_PWM_S.c"
   1:.\Generated_Source\PSoC5/HC_PWM_S.c **** /*******************************************************************************
   2:.\Generated_Source\PSoC5/HC_PWM_S.c **** * File Name: HC_PWM_S.c
   3:.\Generated_Source\PSoC5/HC_PWM_S.c **** * Version 3.30
   4:.\Generated_Source\PSoC5/HC_PWM_S.c **** *
   5:.\Generated_Source\PSoC5/HC_PWM_S.c **** * Description:
   6:.\Generated_Source\PSoC5/HC_PWM_S.c **** *  The PWM User Module consist of an 8 or 16-bit counter with two 8 or 16-bit
   7:.\Generated_Source\PSoC5/HC_PWM_S.c **** *  comparitors. Each instance of this user module is capable of generating
   8:.\Generated_Source\PSoC5/HC_PWM_S.c **** *  two PWM outputs with the same period. The pulse width is selectable between
   9:.\Generated_Source\PSoC5/HC_PWM_S.c **** *  1 and 255/65535. The period is selectable between 2 and 255/65536 clocks.
  10:.\Generated_Source\PSoC5/HC_PWM_S.c **** *  The compare value output may be configured to be active when the present
  11:.\Generated_Source\PSoC5/HC_PWM_S.c **** *  counter is less than or less than/equal to the compare value.
  12:.\Generated_Source\PSoC5/HC_PWM_S.c **** *  A terminal count output is also provided. It generates a pulse one clock
  13:.\Generated_Source\PSoC5/HC_PWM_S.c **** *  width wide when the counter is equal to zero.
  14:.\Generated_Source\PSoC5/HC_PWM_S.c **** *
  15:.\Generated_Source\PSoC5/HC_PWM_S.c **** * Note:
  16:.\Generated_Source\PSoC5/HC_PWM_S.c **** *
  17:.\Generated_Source\PSoC5/HC_PWM_S.c **** *******************************************************************************
  18:.\Generated_Source\PSoC5/HC_PWM_S.c **** * Copyright 2008-2014, Cypress Semiconductor Corporation.  All rights reserved.
  19:.\Generated_Source\PSoC5/HC_PWM_S.c **** * You may use this file only in accordance with the license, terms, conditions,
  20:.\Generated_Source\PSoC5/HC_PWM_S.c **** * disclaimers, and limitations in the end user license agreement accompanying
  21:.\Generated_Source\PSoC5/HC_PWM_S.c **** * the software package with which this file was provided.
  22:.\Generated_Source\PSoC5/HC_PWM_S.c **** ********************************************************************************/
  23:.\Generated_Source\PSoC5/HC_PWM_S.c **** 
  24:.\Generated_Source\PSoC5/HC_PWM_S.c **** #include "HC_PWM_S.h"
  25:.\Generated_Source\PSoC5/HC_PWM_S.c **** 
ARM GAS  C:\Users\xavieran\AppData\Local\Temp\cc006O7W.s 			page 2


  26:.\Generated_Source\PSoC5/HC_PWM_S.c **** /* Error message for removed <resource> through optimization */
  27:.\Generated_Source\PSoC5/HC_PWM_S.c **** #ifdef HC_PWM_S_PWMUDB_genblk1_ctrlreg__REMOVED
  28:.\Generated_Source\PSoC5/HC_PWM_S.c ****     #error PWM_v3_30 detected with a constant 0 for the enable or \
  29:.\Generated_Source\PSoC5/HC_PWM_S.c ****          constant 1 for reset. This will prevent the component from operating.
  30:.\Generated_Source\PSoC5/HC_PWM_S.c **** #endif /* HC_PWM_S_PWMUDB_genblk1_ctrlreg__REMOVED */
  31:.\Generated_Source\PSoC5/HC_PWM_S.c **** 
  32:.\Generated_Source\PSoC5/HC_PWM_S.c **** uint8 HC_PWM_S_initVar = 0u;
  33:.\Generated_Source\PSoC5/HC_PWM_S.c **** 
  34:.\Generated_Source\PSoC5/HC_PWM_S.c **** 
  35:.\Generated_Source\PSoC5/HC_PWM_S.c **** /*******************************************************************************
  36:.\Generated_Source\PSoC5/HC_PWM_S.c **** * Function Name: HC_PWM_S_Start
  37:.\Generated_Source\PSoC5/HC_PWM_S.c **** ********************************************************************************
  38:.\Generated_Source\PSoC5/HC_PWM_S.c **** *
  39:.\Generated_Source\PSoC5/HC_PWM_S.c **** * Summary:
  40:.\Generated_Source\PSoC5/HC_PWM_S.c **** *  The start function initializes the pwm with the default values, the
  41:.\Generated_Source\PSoC5/HC_PWM_S.c **** *  enables the counter to begin counting.  It does not enable interrupts,
  42:.\Generated_Source\PSoC5/HC_PWM_S.c **** *  the EnableInt command should be called if interrupt generation is required.
  43:.\Generated_Source\PSoC5/HC_PWM_S.c **** *
  44:.\Generated_Source\PSoC5/HC_PWM_S.c **** * Parameters:
  45:.\Generated_Source\PSoC5/HC_PWM_S.c **** *  None
  46:.\Generated_Source\PSoC5/HC_PWM_S.c **** *
  47:.\Generated_Source\PSoC5/HC_PWM_S.c **** * Return:
  48:.\Generated_Source\PSoC5/HC_PWM_S.c **** *  None
  49:.\Generated_Source\PSoC5/HC_PWM_S.c **** *
  50:.\Generated_Source\PSoC5/HC_PWM_S.c **** * Global variables:
  51:.\Generated_Source\PSoC5/HC_PWM_S.c **** *  HC_PWM_S_initVar: Is modified when this function is called for the
  52:.\Generated_Source\PSoC5/HC_PWM_S.c **** *   first time. Is used to ensure that initialization happens only once.
  53:.\Generated_Source\PSoC5/HC_PWM_S.c **** *
  54:.\Generated_Source\PSoC5/HC_PWM_S.c **** *******************************************************************************/
  55:.\Generated_Source\PSoC5/HC_PWM_S.c **** void HC_PWM_S_Start(void) 
  56:.\Generated_Source\PSoC5/HC_PWM_S.c **** {
  33              		.loc 1 56 0
  34              		.cfi_startproc
  35              		@ args = 0, pretend = 0, frame = 0
  36              		@ frame_needed = 1, uses_anonymous_args = 0
  37 0000 80B5     		push	{r7, lr}
  38              		.cfi_def_cfa_offset 8
  39              		.cfi_offset 7, -8
  40              		.cfi_offset 14, -4
  41 0002 00AF     		add	r7, sp, #0
  42              		.cfi_def_cfa_register 7
  57:.\Generated_Source\PSoC5/HC_PWM_S.c ****     /* If not Initialized then initialize all required hardware and software */
  58:.\Generated_Source\PSoC5/HC_PWM_S.c ****     if(HC_PWM_S_initVar == 0u)
  43              		.loc 1 58 0
  44 0004 054B     		ldr	r3, .L3
  45 0006 1B78     		ldrb	r3, [r3]	@ zero_extendqisi2
  46 0008 002B     		cmp	r3, #0
  47 000a 04D1     		bne	.L2
  59:.\Generated_Source\PSoC5/HC_PWM_S.c ****     {
  60:.\Generated_Source\PSoC5/HC_PWM_S.c ****         HC_PWM_S_Init();
  48              		.loc 1 60 0
  49 000c FFF7FEFF 		bl	HC_PWM_S_Init
  61:.\Generated_Source\PSoC5/HC_PWM_S.c ****         HC_PWM_S_initVar = 1u;
  50              		.loc 1 61 0
  51 0010 024B     		ldr	r3, .L3
  52 0012 0122     		movs	r2, #1
  53 0014 1A70     		strb	r2, [r3]
ARM GAS  C:\Users\xavieran\AppData\Local\Temp\cc006O7W.s 			page 3


  54              	.L2:
  62:.\Generated_Source\PSoC5/HC_PWM_S.c ****     }
  63:.\Generated_Source\PSoC5/HC_PWM_S.c ****     HC_PWM_S_Enable();
  55              		.loc 1 63 0
  56 0016 FFF7FEFF 		bl	HC_PWM_S_Enable
  64:.\Generated_Source\PSoC5/HC_PWM_S.c **** 
  65:.\Generated_Source\PSoC5/HC_PWM_S.c **** }
  57              		.loc 1 65 0
  58 001a 80BD     		pop	{r7, pc}
  59              	.L4:
  60              		.align	2
  61              	.L3:
  62 001c 00000000 		.word	HC_PWM_S_initVar
  63              		.cfi_endproc
  64              	.LFE0:
  65              		.size	HC_PWM_S_Start, .-HC_PWM_S_Start
  66              		.section	.text.HC_PWM_S_Init,"ax",%progbits
  67              		.align	2
  68              		.global	HC_PWM_S_Init
  69              		.thumb
  70              		.thumb_func
  71              		.type	HC_PWM_S_Init, %function
  72              	HC_PWM_S_Init:
  73              	.LFB1:
  66:.\Generated_Source\PSoC5/HC_PWM_S.c **** 
  67:.\Generated_Source\PSoC5/HC_PWM_S.c **** 
  68:.\Generated_Source\PSoC5/HC_PWM_S.c **** /*******************************************************************************
  69:.\Generated_Source\PSoC5/HC_PWM_S.c **** * Function Name: HC_PWM_S_Init
  70:.\Generated_Source\PSoC5/HC_PWM_S.c **** ********************************************************************************
  71:.\Generated_Source\PSoC5/HC_PWM_S.c **** *
  72:.\Generated_Source\PSoC5/HC_PWM_S.c **** * Summary:
  73:.\Generated_Source\PSoC5/HC_PWM_S.c **** *  Initialize component's parameters to the parameters set by user in the
  74:.\Generated_Source\PSoC5/HC_PWM_S.c **** *  customizer of the component placed onto schematic. Usually called in
  75:.\Generated_Source\PSoC5/HC_PWM_S.c **** *  HC_PWM_S_Start().
  76:.\Generated_Source\PSoC5/HC_PWM_S.c **** *
  77:.\Generated_Source\PSoC5/HC_PWM_S.c **** * Parameters:
  78:.\Generated_Source\PSoC5/HC_PWM_S.c **** *  None
  79:.\Generated_Source\PSoC5/HC_PWM_S.c **** *
  80:.\Generated_Source\PSoC5/HC_PWM_S.c **** * Return:
  81:.\Generated_Source\PSoC5/HC_PWM_S.c **** *  None
  82:.\Generated_Source\PSoC5/HC_PWM_S.c **** *
  83:.\Generated_Source\PSoC5/HC_PWM_S.c **** *******************************************************************************/
  84:.\Generated_Source\PSoC5/HC_PWM_S.c **** void HC_PWM_S_Init(void) 
  85:.\Generated_Source\PSoC5/HC_PWM_S.c **** {
  74              		.loc 1 85 0
  75              		.cfi_startproc
  76              		@ args = 0, pretend = 0, frame = 8
  77              		@ frame_needed = 1, uses_anonymous_args = 0
  78 0000 80B5     		push	{r7, lr}
  79              		.cfi_def_cfa_offset 8
  80              		.cfi_offset 7, -8
  81              		.cfi_offset 14, -4
  82 0002 82B0     		sub	sp, sp, #8
  83              		.cfi_def_cfa_offset 16
  84 0004 00AF     		add	r7, sp, #0
  85              		.cfi_def_cfa_register 7
  86:.\Generated_Source\PSoC5/HC_PWM_S.c ****     #if (HC_PWM_S_UsingFixedFunction || HC_PWM_S_UseControl)
ARM GAS  C:\Users\xavieran\AppData\Local\Temp\cc006O7W.s 			page 4


  87:.\Generated_Source\PSoC5/HC_PWM_S.c ****         uint8 ctrl;
  88:.\Generated_Source\PSoC5/HC_PWM_S.c ****     #endif /* (HC_PWM_S_UsingFixedFunction || HC_PWM_S_UseControl) */
  89:.\Generated_Source\PSoC5/HC_PWM_S.c **** 
  90:.\Generated_Source\PSoC5/HC_PWM_S.c ****     #if(!HC_PWM_S_UsingFixedFunction)
  91:.\Generated_Source\PSoC5/HC_PWM_S.c ****         #if(HC_PWM_S_UseStatus)
  92:.\Generated_Source\PSoC5/HC_PWM_S.c ****             /* Interrupt State Backup for Critical Region*/
  93:.\Generated_Source\PSoC5/HC_PWM_S.c ****             uint8 HC_PWM_S_interruptState;
  94:.\Generated_Source\PSoC5/HC_PWM_S.c ****         #endif /* (HC_PWM_S_UseStatus) */
  95:.\Generated_Source\PSoC5/HC_PWM_S.c ****     #endif /* (!HC_PWM_S_UsingFixedFunction) */
  96:.\Generated_Source\PSoC5/HC_PWM_S.c **** 
  97:.\Generated_Source\PSoC5/HC_PWM_S.c ****     #if (HC_PWM_S_UsingFixedFunction)
  98:.\Generated_Source\PSoC5/HC_PWM_S.c ****         /* You are allowed to write the compare value (FF only) */
  99:.\Generated_Source\PSoC5/HC_PWM_S.c ****         HC_PWM_S_CONTROL |= HC_PWM_S_CFG0_MODE;
 100:.\Generated_Source\PSoC5/HC_PWM_S.c ****         #if (HC_PWM_S_DeadBand2_4)
 101:.\Generated_Source\PSoC5/HC_PWM_S.c ****             HC_PWM_S_CONTROL |= HC_PWM_S_CFG0_DB;
 102:.\Generated_Source\PSoC5/HC_PWM_S.c ****         #endif /* (HC_PWM_S_DeadBand2_4) */
 103:.\Generated_Source\PSoC5/HC_PWM_S.c **** 
 104:.\Generated_Source\PSoC5/HC_PWM_S.c ****         ctrl = HC_PWM_S_CONTROL3 & ((uint8 )(~HC_PWM_S_CTRL_CMPMODE1_MASK));
 105:.\Generated_Source\PSoC5/HC_PWM_S.c ****         HC_PWM_S_CONTROL3 = ctrl | HC_PWM_S_DEFAULT_COMPARE1_MODE;
 106:.\Generated_Source\PSoC5/HC_PWM_S.c **** 
 107:.\Generated_Source\PSoC5/HC_PWM_S.c ****          /* Clear and Set SYNCTC and SYNCCMP bits of RT1 register */
 108:.\Generated_Source\PSoC5/HC_PWM_S.c ****         HC_PWM_S_RT1 &= ((uint8)(~HC_PWM_S_RT1_MASK));
 109:.\Generated_Source\PSoC5/HC_PWM_S.c ****         HC_PWM_S_RT1 |= HC_PWM_S_SYNC;
 110:.\Generated_Source\PSoC5/HC_PWM_S.c **** 
 111:.\Generated_Source\PSoC5/HC_PWM_S.c ****         /*Enable DSI Sync all all inputs of the PWM*/
 112:.\Generated_Source\PSoC5/HC_PWM_S.c ****         HC_PWM_S_RT1 &= ((uint8)(~HC_PWM_S_SYNCDSI_MASK));
 113:.\Generated_Source\PSoC5/HC_PWM_S.c ****         HC_PWM_S_RT1 |= HC_PWM_S_SYNCDSI_EN;
 114:.\Generated_Source\PSoC5/HC_PWM_S.c **** 
 115:.\Generated_Source\PSoC5/HC_PWM_S.c ****     #elif (HC_PWM_S_UseControl)
 116:.\Generated_Source\PSoC5/HC_PWM_S.c ****         /* Set the default compare mode defined in the parameter */
 117:.\Generated_Source\PSoC5/HC_PWM_S.c ****         ctrl = HC_PWM_S_CONTROL & ((uint8)(~HC_PWM_S_CTRL_CMPMODE2_MASK)) &
  86              		.loc 1 117 0
  87 0006 224B     		ldr	r3, .L6
  88 0008 1B78     		ldrb	r3, [r3]
  89 000a DBB2     		uxtb	r3, r3
  90 000c 23F03F03 		bic	r3, r3, #63
  91 0010 FB71     		strb	r3, [r7, #7]
 118:.\Generated_Source\PSoC5/HC_PWM_S.c ****                 ((uint8)(~HC_PWM_S_CTRL_CMPMODE1_MASK));
 119:.\Generated_Source\PSoC5/HC_PWM_S.c ****         HC_PWM_S_CONTROL = ctrl | HC_PWM_S_DEFAULT_COMPARE2_MODE |
  92              		.loc 1 119 0
  93 0012 1F4B     		ldr	r3, .L6
  94 0014 FA79     		ldrb	r2, [r7, #7]
  95 0016 42F00C02 		orr	r2, r2, #12
  96 001a D2B2     		uxtb	r2, r2
  97 001c 1A70     		strb	r2, [r3]
 120:.\Generated_Source\PSoC5/HC_PWM_S.c ****                                    HC_PWM_S_DEFAULT_COMPARE1_MODE;
 121:.\Generated_Source\PSoC5/HC_PWM_S.c ****     #endif /* (HC_PWM_S_UsingFixedFunction) */
 122:.\Generated_Source\PSoC5/HC_PWM_S.c **** 
 123:.\Generated_Source\PSoC5/HC_PWM_S.c ****     #if (!HC_PWM_S_UsingFixedFunction)
 124:.\Generated_Source\PSoC5/HC_PWM_S.c ****         #if (HC_PWM_S_Resolution == 8)
 125:.\Generated_Source\PSoC5/HC_PWM_S.c ****             /* Set FIFO 0 to 1 byte register for period*/
 126:.\Generated_Source\PSoC5/HC_PWM_S.c ****             HC_PWM_S_AUX_CONTROLDP0 |= (HC_PWM_S_AUX_CTRL_FIFO0_CLR);
 127:.\Generated_Source\PSoC5/HC_PWM_S.c ****         #else /* (HC_PWM_S_Resolution == 16)*/
 128:.\Generated_Source\PSoC5/HC_PWM_S.c ****             /* Set FIFO 0 to 1 byte register for period */
 129:.\Generated_Source\PSoC5/HC_PWM_S.c ****             HC_PWM_S_AUX_CONTROLDP0 |= (HC_PWM_S_AUX_CTRL_FIFO0_CLR);
  98              		.loc 1 129 0
  99 001e 1D4B     		ldr	r3, .L6+4
ARM GAS  C:\Users\xavieran\AppData\Local\Temp\cc006O7W.s 			page 5


 100 0020 1C4A     		ldr	r2, .L6+4
 101 0022 1278     		ldrb	r2, [r2]
 102 0024 D2B2     		uxtb	r2, r2
 103 0026 42F00102 		orr	r2, r2, #1
 104 002a D2B2     		uxtb	r2, r2
 105 002c 1A70     		strb	r2, [r3]
 130:.\Generated_Source\PSoC5/HC_PWM_S.c ****             HC_PWM_S_AUX_CONTROLDP1 |= (HC_PWM_S_AUX_CTRL_FIFO0_CLR);
 106              		.loc 1 130 0
 107 002e 1A4B     		ldr	r3, .L6+8
 108 0030 194A     		ldr	r2, .L6+8
 109 0032 1278     		ldrb	r2, [r2]
 110 0034 D2B2     		uxtb	r2, r2
 111 0036 42F00102 		orr	r2, r2, #1
 112 003a D2B2     		uxtb	r2, r2
 113 003c 1A70     		strb	r2, [r3]
 131:.\Generated_Source\PSoC5/HC_PWM_S.c ****         #endif /* (HC_PWM_S_Resolution == 8) */
 132:.\Generated_Source\PSoC5/HC_PWM_S.c **** 
 133:.\Generated_Source\PSoC5/HC_PWM_S.c ****         HC_PWM_S_WriteCounter(HC_PWM_S_INIT_PERIOD_VALUE);
 114              		.loc 1 133 0
 115 003e 4CF24F30 		movw	r0, #49999
 116 0042 FFF7FEFF 		bl	HC_PWM_S_WriteCounter
 134:.\Generated_Source\PSoC5/HC_PWM_S.c ****     #endif /* (!HC_PWM_S_UsingFixedFunction) */
 135:.\Generated_Source\PSoC5/HC_PWM_S.c **** 
 136:.\Generated_Source\PSoC5/HC_PWM_S.c ****     HC_PWM_S_WritePeriod(HC_PWM_S_INIT_PERIOD_VALUE);
 117              		.loc 1 136 0
 118 0046 4CF24F30 		movw	r0, #49999
 119 004a FFF7FEFF 		bl	HC_PWM_S_WritePeriod
 137:.\Generated_Source\PSoC5/HC_PWM_S.c **** 
 138:.\Generated_Source\PSoC5/HC_PWM_S.c ****         #if (HC_PWM_S_UseOneCompareMode)
 139:.\Generated_Source\PSoC5/HC_PWM_S.c ****             HC_PWM_S_WriteCompare(HC_PWM_S_INIT_COMPARE_VALUE1);
 140:.\Generated_Source\PSoC5/HC_PWM_S.c ****         #else
 141:.\Generated_Source\PSoC5/HC_PWM_S.c ****             HC_PWM_S_WriteCompare1(HC_PWM_S_INIT_COMPARE_VALUE1);
 120              		.loc 1 141 0
 121 004e 4AF6B370 		movw	r0, #44979
 122 0052 FFF7FEFF 		bl	HC_PWM_S_WriteCompare1
 142:.\Generated_Source\PSoC5/HC_PWM_S.c ****             HC_PWM_S_WriteCompare2(HC_PWM_S_INIT_COMPARE_VALUE2);
 123              		.loc 1 142 0
 124 0056 42F21070 		movw	r0, #10000
 125 005a FFF7FEFF 		bl	HC_PWM_S_WriteCompare2
 143:.\Generated_Source\PSoC5/HC_PWM_S.c ****         #endif /* (HC_PWM_S_UseOneCompareMode) */
 144:.\Generated_Source\PSoC5/HC_PWM_S.c **** 
 145:.\Generated_Source\PSoC5/HC_PWM_S.c ****         #if (HC_PWM_S_KillModeMinTime)
 146:.\Generated_Source\PSoC5/HC_PWM_S.c ****             HC_PWM_S_WriteKillTime(HC_PWM_S_MinimumKillTime);
 147:.\Generated_Source\PSoC5/HC_PWM_S.c ****         #endif /* (HC_PWM_S_KillModeMinTime) */
 148:.\Generated_Source\PSoC5/HC_PWM_S.c **** 
 149:.\Generated_Source\PSoC5/HC_PWM_S.c ****         #if (HC_PWM_S_DeadBandUsed)
 150:.\Generated_Source\PSoC5/HC_PWM_S.c ****             HC_PWM_S_WriteDeadTime(HC_PWM_S_INIT_DEAD_TIME);
 151:.\Generated_Source\PSoC5/HC_PWM_S.c ****         #endif /* (HC_PWM_S_DeadBandUsed) */
 152:.\Generated_Source\PSoC5/HC_PWM_S.c **** 
 153:.\Generated_Source\PSoC5/HC_PWM_S.c ****     #if (HC_PWM_S_UseStatus || HC_PWM_S_UsingFixedFunction)
 154:.\Generated_Source\PSoC5/HC_PWM_S.c ****         HC_PWM_S_SetInterruptMode(HC_PWM_S_INIT_INTERRUPTS_MODE);
 126              		.loc 1 154 0
 127 005e 0020     		movs	r0, #0
 128 0060 FFF7FEFF 		bl	HC_PWM_S_SetInterruptMode
 155:.\Generated_Source\PSoC5/HC_PWM_S.c ****     #endif /* (HC_PWM_S_UseStatus || HC_PWM_S_UsingFixedFunction) */
 156:.\Generated_Source\PSoC5/HC_PWM_S.c **** 
 157:.\Generated_Source\PSoC5/HC_PWM_S.c ****     #if (HC_PWM_S_UsingFixedFunction)
ARM GAS  C:\Users\xavieran\AppData\Local\Temp\cc006O7W.s 			page 6


 158:.\Generated_Source\PSoC5/HC_PWM_S.c ****         /* Globally Enable the Fixed Function Block chosen */
 159:.\Generated_Source\PSoC5/HC_PWM_S.c ****         HC_PWM_S_GLOBAL_ENABLE |= HC_PWM_S_BLOCK_EN_MASK;
 160:.\Generated_Source\PSoC5/HC_PWM_S.c ****         /* Set the Interrupt source to come from the status register */
 161:.\Generated_Source\PSoC5/HC_PWM_S.c ****         HC_PWM_S_CONTROL2 |= HC_PWM_S_CTRL2_IRQ_SEL;
 162:.\Generated_Source\PSoC5/HC_PWM_S.c ****     #else
 163:.\Generated_Source\PSoC5/HC_PWM_S.c ****         #if(HC_PWM_S_UseStatus)
 164:.\Generated_Source\PSoC5/HC_PWM_S.c **** 
 165:.\Generated_Source\PSoC5/HC_PWM_S.c ****             /* CyEnterCriticalRegion and CyExitCriticalRegion are used to mark following region cri
 166:.\Generated_Source\PSoC5/HC_PWM_S.c ****             /* Enter Critical Region*/
 167:.\Generated_Source\PSoC5/HC_PWM_S.c ****             HC_PWM_S_interruptState = CyEnterCriticalSection();
 129              		.loc 1 167 0
 130 0064 FFF7FEFF 		bl	CyEnterCriticalSection
 131 0068 0346     		mov	r3, r0
 132 006a BB71     		strb	r3, [r7, #6]
 168:.\Generated_Source\PSoC5/HC_PWM_S.c ****             /* Use the interrupt output of the status register for IRQ output */
 169:.\Generated_Source\PSoC5/HC_PWM_S.c ****             HC_PWM_S_STATUS_AUX_CTRL |= HC_PWM_S_STATUS_ACTL_INT_EN_MASK;
 133              		.loc 1 169 0
 134 006c 0B4B     		ldr	r3, .L6+12
 135 006e 0B4A     		ldr	r2, .L6+12
 136 0070 1278     		ldrb	r2, [r2]
 137 0072 D2B2     		uxtb	r2, r2
 138 0074 42F01002 		orr	r2, r2, #16
 139 0078 D2B2     		uxtb	r2, r2
 140 007a 1A70     		strb	r2, [r3]
 170:.\Generated_Source\PSoC5/HC_PWM_S.c **** 
 171:.\Generated_Source\PSoC5/HC_PWM_S.c ****              /* Exit Critical Region*/
 172:.\Generated_Source\PSoC5/HC_PWM_S.c ****             CyExitCriticalSection(HC_PWM_S_interruptState);
 141              		.loc 1 172 0
 142 007c BB79     		ldrb	r3, [r7, #6]	@ zero_extendqisi2
 143 007e 1846     		mov	r0, r3
 144 0080 FFF7FEFF 		bl	CyExitCriticalSection
 173:.\Generated_Source\PSoC5/HC_PWM_S.c **** 
 174:.\Generated_Source\PSoC5/HC_PWM_S.c ****             /* Clear the FIFO to enable the HC_PWM_S_STATUS_FIFOFULL
 175:.\Generated_Source\PSoC5/HC_PWM_S.c ****                    bit to be set on FIFO full. */
 176:.\Generated_Source\PSoC5/HC_PWM_S.c ****             HC_PWM_S_ClearFIFO();
 145              		.loc 1 176 0
 146 0084 FFF7FEFF 		bl	HC_PWM_S_ClearFIFO
 177:.\Generated_Source\PSoC5/HC_PWM_S.c ****         #endif /* (HC_PWM_S_UseStatus) */
 178:.\Generated_Source\PSoC5/HC_PWM_S.c ****     #endif /* (HC_PWM_S_UsingFixedFunction) */
 179:.\Generated_Source\PSoC5/HC_PWM_S.c **** }
 147              		.loc 1 179 0
 148 0088 0837     		adds	r7, r7, #8
 149 008a BD46     		mov	sp, r7
 150              		@ sp needed
 151 008c 80BD     		pop	{r7, pc}
 152              	.L7:
 153 008e 00BF     		.align	2
 154              	.L6:
 155 0090 75650040 		.word	1073767797
 156 0094 96640040 		.word	1073767574
 157 0098 97640040 		.word	1073767575
 158 009c 94650040 		.word	1073767828
 159              		.cfi_endproc
 160              	.LFE1:
 161              		.size	HC_PWM_S_Init, .-HC_PWM_S_Init
 162              		.section	.text.HC_PWM_S_Enable,"ax",%progbits
 163              		.align	2
ARM GAS  C:\Users\xavieran\AppData\Local\Temp\cc006O7W.s 			page 7


 164              		.global	HC_PWM_S_Enable
 165              		.thumb
 166              		.thumb_func
 167              		.type	HC_PWM_S_Enable, %function
 168              	HC_PWM_S_Enable:
 169              	.LFB2:
 180:.\Generated_Source\PSoC5/HC_PWM_S.c **** 
 181:.\Generated_Source\PSoC5/HC_PWM_S.c **** 
 182:.\Generated_Source\PSoC5/HC_PWM_S.c **** /*******************************************************************************
 183:.\Generated_Source\PSoC5/HC_PWM_S.c **** * Function Name: HC_PWM_S_Enable
 184:.\Generated_Source\PSoC5/HC_PWM_S.c **** ********************************************************************************
 185:.\Generated_Source\PSoC5/HC_PWM_S.c **** *
 186:.\Generated_Source\PSoC5/HC_PWM_S.c **** * Summary:
 187:.\Generated_Source\PSoC5/HC_PWM_S.c **** *  Enables the PWM block operation
 188:.\Generated_Source\PSoC5/HC_PWM_S.c **** *
 189:.\Generated_Source\PSoC5/HC_PWM_S.c **** * Parameters:
 190:.\Generated_Source\PSoC5/HC_PWM_S.c **** *  None
 191:.\Generated_Source\PSoC5/HC_PWM_S.c **** *
 192:.\Generated_Source\PSoC5/HC_PWM_S.c **** * Return:
 193:.\Generated_Source\PSoC5/HC_PWM_S.c **** *  None
 194:.\Generated_Source\PSoC5/HC_PWM_S.c **** *
 195:.\Generated_Source\PSoC5/HC_PWM_S.c **** * Side Effects:
 196:.\Generated_Source\PSoC5/HC_PWM_S.c **** *  This works only if software enable mode is chosen
 197:.\Generated_Source\PSoC5/HC_PWM_S.c **** *
 198:.\Generated_Source\PSoC5/HC_PWM_S.c **** *******************************************************************************/
 199:.\Generated_Source\PSoC5/HC_PWM_S.c **** void HC_PWM_S_Enable(void) 
 200:.\Generated_Source\PSoC5/HC_PWM_S.c **** {
 170              		.loc 1 200 0
 171              		.cfi_startproc
 172              		@ args = 0, pretend = 0, frame = 0
 173              		@ frame_needed = 1, uses_anonymous_args = 0
 174              		@ link register save eliminated.
 175 0000 80B4     		push	{r7}
 176              		.cfi_def_cfa_offset 4
 177              		.cfi_offset 7, -4
 178 0002 00AF     		add	r7, sp, #0
 179              		.cfi_def_cfa_register 7
 201:.\Generated_Source\PSoC5/HC_PWM_S.c ****     /* Globally Enable the Fixed Function Block chosen */
 202:.\Generated_Source\PSoC5/HC_PWM_S.c ****     #if (HC_PWM_S_UsingFixedFunction)
 203:.\Generated_Source\PSoC5/HC_PWM_S.c ****         HC_PWM_S_GLOBAL_ENABLE |= HC_PWM_S_BLOCK_EN_MASK;
 204:.\Generated_Source\PSoC5/HC_PWM_S.c ****         HC_PWM_S_GLOBAL_STBY_ENABLE |= HC_PWM_S_BLOCK_STBY_EN_MASK;
 205:.\Generated_Source\PSoC5/HC_PWM_S.c ****     #endif /* (HC_PWM_S_UsingFixedFunction) */
 206:.\Generated_Source\PSoC5/HC_PWM_S.c **** 
 207:.\Generated_Source\PSoC5/HC_PWM_S.c ****     /* Enable the PWM from the control register  */
 208:.\Generated_Source\PSoC5/HC_PWM_S.c ****     #if (HC_PWM_S_UseControl || HC_PWM_S_UsingFixedFunction)
 209:.\Generated_Source\PSoC5/HC_PWM_S.c ****         HC_PWM_S_CONTROL |= HC_PWM_S_CTRL_ENABLE;
 180              		.loc 1 209 0
 181 0004 054B     		ldr	r3, .L9
 182 0006 054A     		ldr	r2, .L9
 183 0008 1278     		ldrb	r2, [r2]
 184 000a D2B2     		uxtb	r2, r2
 185 000c 62F07F02 		orn	r2, r2, #127
 186 0010 D2B2     		uxtb	r2, r2
 187 0012 1A70     		strb	r2, [r3]
 210:.\Generated_Source\PSoC5/HC_PWM_S.c ****     #endif /* (HC_PWM_S_UseControl || HC_PWM_S_UsingFixedFunction) */
 211:.\Generated_Source\PSoC5/HC_PWM_S.c **** }
 188              		.loc 1 211 0
ARM GAS  C:\Users\xavieran\AppData\Local\Temp\cc006O7W.s 			page 8


 189 0014 BD46     		mov	sp, r7
 190              		@ sp needed
 191 0016 5DF8047B 		ldr	r7, [sp], #4
 192 001a 7047     		bx	lr
 193              	.L10:
 194              		.align	2
 195              	.L9:
 196 001c 75650040 		.word	1073767797
 197              		.cfi_endproc
 198              	.LFE2:
 199              		.size	HC_PWM_S_Enable, .-HC_PWM_S_Enable
 200              		.section	.text.HC_PWM_S_Stop,"ax",%progbits
 201              		.align	2
 202              		.global	HC_PWM_S_Stop
 203              		.thumb
 204              		.thumb_func
 205              		.type	HC_PWM_S_Stop, %function
 206              	HC_PWM_S_Stop:
 207              	.LFB3:
 212:.\Generated_Source\PSoC5/HC_PWM_S.c **** 
 213:.\Generated_Source\PSoC5/HC_PWM_S.c **** 
 214:.\Generated_Source\PSoC5/HC_PWM_S.c **** /*******************************************************************************
 215:.\Generated_Source\PSoC5/HC_PWM_S.c **** * Function Name: HC_PWM_S_Stop
 216:.\Generated_Source\PSoC5/HC_PWM_S.c **** ********************************************************************************
 217:.\Generated_Source\PSoC5/HC_PWM_S.c **** *
 218:.\Generated_Source\PSoC5/HC_PWM_S.c **** * Summary:
 219:.\Generated_Source\PSoC5/HC_PWM_S.c **** *  The stop function halts the PWM, but does not change any modes or disable
 220:.\Generated_Source\PSoC5/HC_PWM_S.c **** *  interrupts.
 221:.\Generated_Source\PSoC5/HC_PWM_S.c **** *
 222:.\Generated_Source\PSoC5/HC_PWM_S.c **** * Parameters:
 223:.\Generated_Source\PSoC5/HC_PWM_S.c **** *  None
 224:.\Generated_Source\PSoC5/HC_PWM_S.c **** *
 225:.\Generated_Source\PSoC5/HC_PWM_S.c **** * Return:
 226:.\Generated_Source\PSoC5/HC_PWM_S.c **** *  None
 227:.\Generated_Source\PSoC5/HC_PWM_S.c **** *
 228:.\Generated_Source\PSoC5/HC_PWM_S.c **** * Side Effects:
 229:.\Generated_Source\PSoC5/HC_PWM_S.c **** *  If the Enable mode is set to Hardware only then this function
 230:.\Generated_Source\PSoC5/HC_PWM_S.c **** *  has no effect on the operation of the PWM
 231:.\Generated_Source\PSoC5/HC_PWM_S.c **** *
 232:.\Generated_Source\PSoC5/HC_PWM_S.c **** *******************************************************************************/
 233:.\Generated_Source\PSoC5/HC_PWM_S.c **** void HC_PWM_S_Stop(void) 
 234:.\Generated_Source\PSoC5/HC_PWM_S.c **** {
 208              		.loc 1 234 0
 209              		.cfi_startproc
 210              		@ args = 0, pretend = 0, frame = 0
 211              		@ frame_needed = 1, uses_anonymous_args = 0
 212              		@ link register save eliminated.
 213 0000 80B4     		push	{r7}
 214              		.cfi_def_cfa_offset 4
 215              		.cfi_offset 7, -4
 216 0002 00AF     		add	r7, sp, #0
 217              		.cfi_def_cfa_register 7
 235:.\Generated_Source\PSoC5/HC_PWM_S.c ****     #if (HC_PWM_S_UseControl || HC_PWM_S_UsingFixedFunction)
 236:.\Generated_Source\PSoC5/HC_PWM_S.c ****         HC_PWM_S_CONTROL &= ((uint8)(~HC_PWM_S_CTRL_ENABLE));
 218              		.loc 1 236 0
 219 0004 054B     		ldr	r3, .L12
 220 0006 054A     		ldr	r2, .L12
ARM GAS  C:\Users\xavieran\AppData\Local\Temp\cc006O7W.s 			page 9


 221 0008 1278     		ldrb	r2, [r2]
 222 000a D2B2     		uxtb	r2, r2
 223 000c 02F07F02 		and	r2, r2, #127
 224 0010 D2B2     		uxtb	r2, r2
 225 0012 1A70     		strb	r2, [r3]
 237:.\Generated_Source\PSoC5/HC_PWM_S.c ****     #endif /* (HC_PWM_S_UseControl || HC_PWM_S_UsingFixedFunction) */
 238:.\Generated_Source\PSoC5/HC_PWM_S.c **** 
 239:.\Generated_Source\PSoC5/HC_PWM_S.c ****     /* Globally disable the Fixed Function Block chosen */
 240:.\Generated_Source\PSoC5/HC_PWM_S.c ****     #if (HC_PWM_S_UsingFixedFunction)
 241:.\Generated_Source\PSoC5/HC_PWM_S.c ****         HC_PWM_S_GLOBAL_ENABLE &= ((uint8)(~HC_PWM_S_BLOCK_EN_MASK));
 242:.\Generated_Source\PSoC5/HC_PWM_S.c ****         HC_PWM_S_GLOBAL_STBY_ENABLE &= ((uint8)(~HC_PWM_S_BLOCK_STBY_EN_MASK));
 243:.\Generated_Source\PSoC5/HC_PWM_S.c ****     #endif /* (HC_PWM_S_UsingFixedFunction) */
 244:.\Generated_Source\PSoC5/HC_PWM_S.c **** }
 226              		.loc 1 244 0
 227 0014 BD46     		mov	sp, r7
 228              		@ sp needed
 229 0016 5DF8047B 		ldr	r7, [sp], #4
 230 001a 7047     		bx	lr
 231              	.L13:
 232              		.align	2
 233              	.L12:
 234 001c 75650040 		.word	1073767797
 235              		.cfi_endproc
 236              	.LFE3:
 237              		.size	HC_PWM_S_Stop, .-HC_PWM_S_Stop
 238              		.section	.text.HC_PWM_S_WriteCounter,"ax",%progbits
 239              		.align	2
 240              		.global	HC_PWM_S_WriteCounter
 241              		.thumb
 242              		.thumb_func
 243              		.type	HC_PWM_S_WriteCounter, %function
 244              	HC_PWM_S_WriteCounter:
 245              	.LFB4:
 245:.\Generated_Source\PSoC5/HC_PWM_S.c **** 
 246:.\Generated_Source\PSoC5/HC_PWM_S.c **** #if (HC_PWM_S_UseOneCompareMode)
 247:.\Generated_Source\PSoC5/HC_PWM_S.c ****     #if (HC_PWM_S_CompareMode1SW)
 248:.\Generated_Source\PSoC5/HC_PWM_S.c **** 
 249:.\Generated_Source\PSoC5/HC_PWM_S.c **** 
 250:.\Generated_Source\PSoC5/HC_PWM_S.c ****         /*******************************************************************************
 251:.\Generated_Source\PSoC5/HC_PWM_S.c ****         * Function Name: HC_PWM_S_SetCompareMode
 252:.\Generated_Source\PSoC5/HC_PWM_S.c ****         ********************************************************************************
 253:.\Generated_Source\PSoC5/HC_PWM_S.c ****         *
 254:.\Generated_Source\PSoC5/HC_PWM_S.c ****         * Summary:
 255:.\Generated_Source\PSoC5/HC_PWM_S.c ****         *  This function writes the Compare Mode for the pwm output when in Dither mode,
 256:.\Generated_Source\PSoC5/HC_PWM_S.c ****         *  Center Align Mode or One Output Mode.
 257:.\Generated_Source\PSoC5/HC_PWM_S.c ****         *
 258:.\Generated_Source\PSoC5/HC_PWM_S.c ****         * Parameters:
 259:.\Generated_Source\PSoC5/HC_PWM_S.c ****         *  comparemode:  The new compare mode for the PWM output. Use the compare types
 260:.\Generated_Source\PSoC5/HC_PWM_S.c ****         *                defined in the H file as input arguments.
 261:.\Generated_Source\PSoC5/HC_PWM_S.c ****         *
 262:.\Generated_Source\PSoC5/HC_PWM_S.c ****         * Return:
 263:.\Generated_Source\PSoC5/HC_PWM_S.c ****         *  None
 264:.\Generated_Source\PSoC5/HC_PWM_S.c ****         *
 265:.\Generated_Source\PSoC5/HC_PWM_S.c ****         *******************************************************************************/
 266:.\Generated_Source\PSoC5/HC_PWM_S.c ****         void HC_PWM_S_SetCompareMode(uint8 comparemode) 
 267:.\Generated_Source\PSoC5/HC_PWM_S.c ****         {
 268:.\Generated_Source\PSoC5/HC_PWM_S.c ****             #if(HC_PWM_S_UsingFixedFunction)
ARM GAS  C:\Users\xavieran\AppData\Local\Temp\cc006O7W.s 			page 10


 269:.\Generated_Source\PSoC5/HC_PWM_S.c **** 
 270:.\Generated_Source\PSoC5/HC_PWM_S.c ****                 #if(0 != HC_PWM_S_CTRL_CMPMODE1_SHIFT)
 271:.\Generated_Source\PSoC5/HC_PWM_S.c ****                     uint8 comparemodemasked = ((uint8)((uint8)comparemode << HC_PWM_S_CTRL_CMPMODE1
 272:.\Generated_Source\PSoC5/HC_PWM_S.c ****                 #else
 273:.\Generated_Source\PSoC5/HC_PWM_S.c ****                     uint8 comparemodemasked = comparemode;
 274:.\Generated_Source\PSoC5/HC_PWM_S.c ****                 #endif /* (0 != HC_PWM_S_CTRL_CMPMODE1_SHIFT) */
 275:.\Generated_Source\PSoC5/HC_PWM_S.c **** 
 276:.\Generated_Source\PSoC5/HC_PWM_S.c ****                 HC_PWM_S_CONTROL3 &= ((uint8)(~HC_PWM_S_CTRL_CMPMODE1_MASK)); /*Clear Existing Data
 277:.\Generated_Source\PSoC5/HC_PWM_S.c ****                 HC_PWM_S_CONTROL3 |= comparemodemasked;
 278:.\Generated_Source\PSoC5/HC_PWM_S.c **** 
 279:.\Generated_Source\PSoC5/HC_PWM_S.c ****             #elif (HC_PWM_S_UseControl)
 280:.\Generated_Source\PSoC5/HC_PWM_S.c **** 
 281:.\Generated_Source\PSoC5/HC_PWM_S.c ****                 #if(0 != HC_PWM_S_CTRL_CMPMODE1_SHIFT)
 282:.\Generated_Source\PSoC5/HC_PWM_S.c ****                     uint8 comparemode1masked = ((uint8)((uint8)comparemode << HC_PWM_S_CTRL_CMPMODE
 283:.\Generated_Source\PSoC5/HC_PWM_S.c ****                                                 HC_PWM_S_CTRL_CMPMODE1_MASK;
 284:.\Generated_Source\PSoC5/HC_PWM_S.c ****                 #else
 285:.\Generated_Source\PSoC5/HC_PWM_S.c ****                     uint8 comparemode1masked = comparemode & HC_PWM_S_CTRL_CMPMODE1_MASK;
 286:.\Generated_Source\PSoC5/HC_PWM_S.c ****                 #endif /* (0 != HC_PWM_S_CTRL_CMPMODE1_SHIFT) */
 287:.\Generated_Source\PSoC5/HC_PWM_S.c **** 
 288:.\Generated_Source\PSoC5/HC_PWM_S.c ****                 #if(0 != HC_PWM_S_CTRL_CMPMODE2_SHIFT)
 289:.\Generated_Source\PSoC5/HC_PWM_S.c ****                     uint8 comparemode2masked = ((uint8)((uint8)comparemode << HC_PWM_S_CTRL_CMPMODE
 290:.\Generated_Source\PSoC5/HC_PWM_S.c ****                                                HC_PWM_S_CTRL_CMPMODE2_MASK;
 291:.\Generated_Source\PSoC5/HC_PWM_S.c ****                 #else
 292:.\Generated_Source\PSoC5/HC_PWM_S.c ****                     uint8 comparemode2masked = comparemode & HC_PWM_S_CTRL_CMPMODE2_MASK;
 293:.\Generated_Source\PSoC5/HC_PWM_S.c ****                 #endif /* (0 != HC_PWM_S_CTRL_CMPMODE2_SHIFT) */
 294:.\Generated_Source\PSoC5/HC_PWM_S.c **** 
 295:.\Generated_Source\PSoC5/HC_PWM_S.c ****                 /*Clear existing mode */
 296:.\Generated_Source\PSoC5/HC_PWM_S.c ****                 HC_PWM_S_CONTROL &= ((uint8)(~(HC_PWM_S_CTRL_CMPMODE1_MASK |
 297:.\Generated_Source\PSoC5/HC_PWM_S.c ****                                             HC_PWM_S_CTRL_CMPMODE2_MASK)));
 298:.\Generated_Source\PSoC5/HC_PWM_S.c ****                 HC_PWM_S_CONTROL |= (comparemode1masked | comparemode2masked);
 299:.\Generated_Source\PSoC5/HC_PWM_S.c **** 
 300:.\Generated_Source\PSoC5/HC_PWM_S.c ****             #else
 301:.\Generated_Source\PSoC5/HC_PWM_S.c ****                 uint8 temp = comparemode;
 302:.\Generated_Source\PSoC5/HC_PWM_S.c ****             #endif /* (HC_PWM_S_UsingFixedFunction) */
 303:.\Generated_Source\PSoC5/HC_PWM_S.c ****         }
 304:.\Generated_Source\PSoC5/HC_PWM_S.c ****     #endif /* HC_PWM_S_CompareMode1SW */
 305:.\Generated_Source\PSoC5/HC_PWM_S.c **** 
 306:.\Generated_Source\PSoC5/HC_PWM_S.c **** #else /* UseOneCompareMode */
 307:.\Generated_Source\PSoC5/HC_PWM_S.c **** 
 308:.\Generated_Source\PSoC5/HC_PWM_S.c ****     #if (HC_PWM_S_CompareMode1SW)
 309:.\Generated_Source\PSoC5/HC_PWM_S.c **** 
 310:.\Generated_Source\PSoC5/HC_PWM_S.c **** 
 311:.\Generated_Source\PSoC5/HC_PWM_S.c ****         /*******************************************************************************
 312:.\Generated_Source\PSoC5/HC_PWM_S.c ****         * Function Name: HC_PWM_S_SetCompareMode1
 313:.\Generated_Source\PSoC5/HC_PWM_S.c ****         ********************************************************************************
 314:.\Generated_Source\PSoC5/HC_PWM_S.c ****         *
 315:.\Generated_Source\PSoC5/HC_PWM_S.c ****         * Summary:
 316:.\Generated_Source\PSoC5/HC_PWM_S.c ****         *  This function writes the Compare Mode for the pwm or pwm1 output
 317:.\Generated_Source\PSoC5/HC_PWM_S.c ****         *
 318:.\Generated_Source\PSoC5/HC_PWM_S.c ****         * Parameters:
 319:.\Generated_Source\PSoC5/HC_PWM_S.c ****         *  comparemode:  The new compare mode for the PWM output. Use the compare types
 320:.\Generated_Source\PSoC5/HC_PWM_S.c ****         *                defined in the H file as input arguments.
 321:.\Generated_Source\PSoC5/HC_PWM_S.c ****         *
 322:.\Generated_Source\PSoC5/HC_PWM_S.c ****         * Return:
 323:.\Generated_Source\PSoC5/HC_PWM_S.c ****         *  None
 324:.\Generated_Source\PSoC5/HC_PWM_S.c ****         *
 325:.\Generated_Source\PSoC5/HC_PWM_S.c ****         *******************************************************************************/
ARM GAS  C:\Users\xavieran\AppData\Local\Temp\cc006O7W.s 			page 11


 326:.\Generated_Source\PSoC5/HC_PWM_S.c ****         void HC_PWM_S_SetCompareMode1(uint8 comparemode) 
 327:.\Generated_Source\PSoC5/HC_PWM_S.c ****         {
 328:.\Generated_Source\PSoC5/HC_PWM_S.c ****             #if(0 != HC_PWM_S_CTRL_CMPMODE1_SHIFT)
 329:.\Generated_Source\PSoC5/HC_PWM_S.c ****                 uint8 comparemodemasked = ((uint8)((uint8)comparemode << HC_PWM_S_CTRL_CMPMODE1_SHI
 330:.\Generated_Source\PSoC5/HC_PWM_S.c ****                                            HC_PWM_S_CTRL_CMPMODE1_MASK;
 331:.\Generated_Source\PSoC5/HC_PWM_S.c ****             #else
 332:.\Generated_Source\PSoC5/HC_PWM_S.c ****                 uint8 comparemodemasked = comparemode & HC_PWM_S_CTRL_CMPMODE1_MASK;
 333:.\Generated_Source\PSoC5/HC_PWM_S.c ****             #endif /* (0 != HC_PWM_S_CTRL_CMPMODE1_SHIFT) */
 334:.\Generated_Source\PSoC5/HC_PWM_S.c **** 
 335:.\Generated_Source\PSoC5/HC_PWM_S.c ****             #if (HC_PWM_S_UseControl)
 336:.\Generated_Source\PSoC5/HC_PWM_S.c ****                 HC_PWM_S_CONTROL &= ((uint8)(~HC_PWM_S_CTRL_CMPMODE1_MASK)); /*Clear existing mode 
 337:.\Generated_Source\PSoC5/HC_PWM_S.c ****                 HC_PWM_S_CONTROL |= comparemodemasked;
 338:.\Generated_Source\PSoC5/HC_PWM_S.c ****             #endif /* (HC_PWM_S_UseControl) */
 339:.\Generated_Source\PSoC5/HC_PWM_S.c ****         }
 340:.\Generated_Source\PSoC5/HC_PWM_S.c ****     #endif /* HC_PWM_S_CompareMode1SW */
 341:.\Generated_Source\PSoC5/HC_PWM_S.c **** 
 342:.\Generated_Source\PSoC5/HC_PWM_S.c **** #if (HC_PWM_S_CompareMode2SW)
 343:.\Generated_Source\PSoC5/HC_PWM_S.c **** 
 344:.\Generated_Source\PSoC5/HC_PWM_S.c **** 
 345:.\Generated_Source\PSoC5/HC_PWM_S.c ****     /*******************************************************************************
 346:.\Generated_Source\PSoC5/HC_PWM_S.c ****     * Function Name: HC_PWM_S_SetCompareMode2
 347:.\Generated_Source\PSoC5/HC_PWM_S.c ****     ********************************************************************************
 348:.\Generated_Source\PSoC5/HC_PWM_S.c ****     *
 349:.\Generated_Source\PSoC5/HC_PWM_S.c ****     * Summary:
 350:.\Generated_Source\PSoC5/HC_PWM_S.c ****     *  This function writes the Compare Mode for the pwm or pwm2 output
 351:.\Generated_Source\PSoC5/HC_PWM_S.c ****     *
 352:.\Generated_Source\PSoC5/HC_PWM_S.c ****     * Parameters:
 353:.\Generated_Source\PSoC5/HC_PWM_S.c ****     *  comparemode:  The new compare mode for the PWM output. Use the compare types
 354:.\Generated_Source\PSoC5/HC_PWM_S.c ****     *                defined in the H file as input arguments.
 355:.\Generated_Source\PSoC5/HC_PWM_S.c ****     *
 356:.\Generated_Source\PSoC5/HC_PWM_S.c ****     * Return:
 357:.\Generated_Source\PSoC5/HC_PWM_S.c ****     *  None
 358:.\Generated_Source\PSoC5/HC_PWM_S.c ****     *
 359:.\Generated_Source\PSoC5/HC_PWM_S.c ****     *******************************************************************************/
 360:.\Generated_Source\PSoC5/HC_PWM_S.c ****     void HC_PWM_S_SetCompareMode2(uint8 comparemode) 
 361:.\Generated_Source\PSoC5/HC_PWM_S.c ****     {
 362:.\Generated_Source\PSoC5/HC_PWM_S.c **** 
 363:.\Generated_Source\PSoC5/HC_PWM_S.c ****         #if(0 != HC_PWM_S_CTRL_CMPMODE2_SHIFT)
 364:.\Generated_Source\PSoC5/HC_PWM_S.c ****             uint8 comparemodemasked = ((uint8)((uint8)comparemode << HC_PWM_S_CTRL_CMPMODE2_SHIFT))
 365:.\Generated_Source\PSoC5/HC_PWM_S.c ****                                                  HC_PWM_S_CTRL_CMPMODE2_MASK;
 366:.\Generated_Source\PSoC5/HC_PWM_S.c ****         #else
 367:.\Generated_Source\PSoC5/HC_PWM_S.c ****             uint8 comparemodemasked = comparemode & HC_PWM_S_CTRL_CMPMODE2_MASK;
 368:.\Generated_Source\PSoC5/HC_PWM_S.c ****         #endif /* (0 != HC_PWM_S_CTRL_CMPMODE2_SHIFT) */
 369:.\Generated_Source\PSoC5/HC_PWM_S.c **** 
 370:.\Generated_Source\PSoC5/HC_PWM_S.c ****         #if (HC_PWM_S_UseControl)
 371:.\Generated_Source\PSoC5/HC_PWM_S.c ****             HC_PWM_S_CONTROL &= ((uint8)(~HC_PWM_S_CTRL_CMPMODE2_MASK)); /*Clear existing mode */
 372:.\Generated_Source\PSoC5/HC_PWM_S.c ****             HC_PWM_S_CONTROL |= comparemodemasked;
 373:.\Generated_Source\PSoC5/HC_PWM_S.c ****         #endif /* (HC_PWM_S_UseControl) */
 374:.\Generated_Source\PSoC5/HC_PWM_S.c ****     }
 375:.\Generated_Source\PSoC5/HC_PWM_S.c ****     #endif /*HC_PWM_S_CompareMode2SW */
 376:.\Generated_Source\PSoC5/HC_PWM_S.c **** 
 377:.\Generated_Source\PSoC5/HC_PWM_S.c **** #endif /* UseOneCompareMode */
 378:.\Generated_Source\PSoC5/HC_PWM_S.c **** 
 379:.\Generated_Source\PSoC5/HC_PWM_S.c **** 
 380:.\Generated_Source\PSoC5/HC_PWM_S.c **** #if (!HC_PWM_S_UsingFixedFunction)
 381:.\Generated_Source\PSoC5/HC_PWM_S.c **** 
 382:.\Generated_Source\PSoC5/HC_PWM_S.c **** 
ARM GAS  C:\Users\xavieran\AppData\Local\Temp\cc006O7W.s 			page 12


 383:.\Generated_Source\PSoC5/HC_PWM_S.c ****     /*******************************************************************************
 384:.\Generated_Source\PSoC5/HC_PWM_S.c ****     * Function Name: HC_PWM_S_WriteCounter
 385:.\Generated_Source\PSoC5/HC_PWM_S.c ****     ********************************************************************************
 386:.\Generated_Source\PSoC5/HC_PWM_S.c ****     *
 387:.\Generated_Source\PSoC5/HC_PWM_S.c ****     * Summary:
 388:.\Generated_Source\PSoC5/HC_PWM_S.c ****     *  Writes a new counter value directly to the counter register. This will be
 389:.\Generated_Source\PSoC5/HC_PWM_S.c ****     *  implemented for that currently running period and only that period. This API
 390:.\Generated_Source\PSoC5/HC_PWM_S.c ****     *  is valid only for UDB implementation and not available for fixed function
 391:.\Generated_Source\PSoC5/HC_PWM_S.c ****     *  PWM implementation.
 392:.\Generated_Source\PSoC5/HC_PWM_S.c ****     *
 393:.\Generated_Source\PSoC5/HC_PWM_S.c ****     * Parameters:
 394:.\Generated_Source\PSoC5/HC_PWM_S.c ****     *  counter:  The period new period counter value.
 395:.\Generated_Source\PSoC5/HC_PWM_S.c ****     *
 396:.\Generated_Source\PSoC5/HC_PWM_S.c ****     * Return:
 397:.\Generated_Source\PSoC5/HC_PWM_S.c ****     *  None
 398:.\Generated_Source\PSoC5/HC_PWM_S.c ****     *
 399:.\Generated_Source\PSoC5/HC_PWM_S.c ****     * Side Effects:
 400:.\Generated_Source\PSoC5/HC_PWM_S.c ****     *  The PWM Period will be reloaded when a counter value will be a zero
 401:.\Generated_Source\PSoC5/HC_PWM_S.c ****     *
 402:.\Generated_Source\PSoC5/HC_PWM_S.c ****     *******************************************************************************/
 403:.\Generated_Source\PSoC5/HC_PWM_S.c ****     void HC_PWM_S_WriteCounter(uint16 counter) \
 404:.\Generated_Source\PSoC5/HC_PWM_S.c ****                                        
 405:.\Generated_Source\PSoC5/HC_PWM_S.c ****     {
 246              		.loc 1 405 0
 247              		.cfi_startproc
 248              		@ args = 0, pretend = 0, frame = 8
 249              		@ frame_needed = 1, uses_anonymous_args = 0
 250              		@ link register save eliminated.
 251 0000 80B4     		push	{r7}
 252              		.cfi_def_cfa_offset 4
 253              		.cfi_offset 7, -4
 254 0002 83B0     		sub	sp, sp, #12
 255              		.cfi_def_cfa_offset 16
 256 0004 00AF     		add	r7, sp, #0
 257              		.cfi_def_cfa_register 7
 258 0006 0346     		mov	r3, r0
 259 0008 FB80     		strh	r3, [r7, #6]	@ movhi
 406:.\Generated_Source\PSoC5/HC_PWM_S.c ****         CY_SET_REG16(HC_PWM_S_COUNTER_LSB_PTR, counter);
 260              		.loc 1 406 0
 261 000a 044B     		ldr	r3, .L15
 262 000c FA88     		ldrh	r2, [r7, #6]	@ movhi
 263 000e 1A80     		strh	r2, [r3]	@ movhi
 407:.\Generated_Source\PSoC5/HC_PWM_S.c ****     }
 264              		.loc 1 407 0
 265 0010 0C37     		adds	r7, r7, #12
 266 0012 BD46     		mov	sp, r7
 267              		@ sp needed
 268 0014 5DF8047B 		ldr	r7, [sp], #4
 269 0018 7047     		bx	lr
 270              	.L16:
 271 001a 00BF     		.align	2
 272              	.L15:
 273 001c 0C680040 		.word	1073768460
 274              		.cfi_endproc
 275              	.LFE4:
 276              		.size	HC_PWM_S_WriteCounter, .-HC_PWM_S_WriteCounter
 277              		.section	.text.HC_PWM_S_ReadCounter,"ax",%progbits
ARM GAS  C:\Users\xavieran\AppData\Local\Temp\cc006O7W.s 			page 13


 278              		.align	2
 279              		.global	HC_PWM_S_ReadCounter
 280              		.thumb
 281              		.thumb_func
 282              		.type	HC_PWM_S_ReadCounter, %function
 283              	HC_PWM_S_ReadCounter:
 284              	.LFB5:
 408:.\Generated_Source\PSoC5/HC_PWM_S.c **** 
 409:.\Generated_Source\PSoC5/HC_PWM_S.c **** 
 410:.\Generated_Source\PSoC5/HC_PWM_S.c ****     /*******************************************************************************
 411:.\Generated_Source\PSoC5/HC_PWM_S.c ****     * Function Name: HC_PWM_S_ReadCounter
 412:.\Generated_Source\PSoC5/HC_PWM_S.c ****     ********************************************************************************
 413:.\Generated_Source\PSoC5/HC_PWM_S.c ****     *
 414:.\Generated_Source\PSoC5/HC_PWM_S.c ****     * Summary:
 415:.\Generated_Source\PSoC5/HC_PWM_S.c ****     *  This function returns the current value of the counter.  It doesn't matter
 416:.\Generated_Source\PSoC5/HC_PWM_S.c ****     *  if the counter is enabled or running.
 417:.\Generated_Source\PSoC5/HC_PWM_S.c ****     *
 418:.\Generated_Source\PSoC5/HC_PWM_S.c ****     * Parameters:
 419:.\Generated_Source\PSoC5/HC_PWM_S.c ****     *  None
 420:.\Generated_Source\PSoC5/HC_PWM_S.c ****     *
 421:.\Generated_Source\PSoC5/HC_PWM_S.c ****     * Return:
 422:.\Generated_Source\PSoC5/HC_PWM_S.c ****     *  The current value of the counter.
 423:.\Generated_Source\PSoC5/HC_PWM_S.c ****     *
 424:.\Generated_Source\PSoC5/HC_PWM_S.c ****     *******************************************************************************/
 425:.\Generated_Source\PSoC5/HC_PWM_S.c ****     uint16 HC_PWM_S_ReadCounter(void) 
 426:.\Generated_Source\PSoC5/HC_PWM_S.c ****     {
 285              		.loc 1 426 0
 286              		.cfi_startproc
 287              		@ args = 0, pretend = 0, frame = 0
 288              		@ frame_needed = 1, uses_anonymous_args = 0
 289              		@ link register save eliminated.
 290 0000 80B4     		push	{r7}
 291              		.cfi_def_cfa_offset 4
 292              		.cfi_offset 7, -4
 293 0002 00AF     		add	r7, sp, #0
 294              		.cfi_def_cfa_register 7
 427:.\Generated_Source\PSoC5/HC_PWM_S.c ****         /* Force capture by reading Accumulator */
 428:.\Generated_Source\PSoC5/HC_PWM_S.c ****         /* Must first do a software capture to be able to read the counter */
 429:.\Generated_Source\PSoC5/HC_PWM_S.c ****         /* It is up to the user code to make sure there isn't already captured data in the FIFO */
 430:.\Generated_Source\PSoC5/HC_PWM_S.c ****           (void)CY_GET_REG8(HC_PWM_S_COUNTERCAP_LSB_PTR_8BIT);
 295              		.loc 1 430 0
 296 0004 044B     		ldr	r3, .L19
 297 0006 1B78     		ldrb	r3, [r3]
 431:.\Generated_Source\PSoC5/HC_PWM_S.c **** 
 432:.\Generated_Source\PSoC5/HC_PWM_S.c ****         /* Read the data from the FIFO */
 433:.\Generated_Source\PSoC5/HC_PWM_S.c ****         return (CY_GET_REG16(HC_PWM_S_CAPTURE_LSB_PTR));
 298              		.loc 1 433 0
 299 0008 044B     		ldr	r3, .L19+4
 300 000a 1B88     		ldrh	r3, [r3]	@ movhi
 301 000c 9BB2     		uxth	r3, r3
 434:.\Generated_Source\PSoC5/HC_PWM_S.c ****     }
 302              		.loc 1 434 0
 303 000e 1846     		mov	r0, r3
 304 0010 BD46     		mov	sp, r7
 305              		@ sp needed
 306 0012 5DF8047B 		ldr	r7, [sp], #4
 307 0016 7047     		bx	lr
ARM GAS  C:\Users\xavieran\AppData\Local\Temp\cc006O7W.s 			page 14


 308              	.L20:
 309              		.align	2
 310              	.L19:
 311 0018 16640040 		.word	1073767446
 312 001c AC680040 		.word	1073768620
 313              		.cfi_endproc
 314              	.LFE5:
 315              		.size	HC_PWM_S_ReadCounter, .-HC_PWM_S_ReadCounter
 316              		.section	.text.HC_PWM_S_ClearFIFO,"ax",%progbits
 317              		.align	2
 318              		.global	HC_PWM_S_ClearFIFO
 319              		.thumb
 320              		.thumb_func
 321              		.type	HC_PWM_S_ClearFIFO, %function
 322              	HC_PWM_S_ClearFIFO:
 323              	.LFB6:
 435:.\Generated_Source\PSoC5/HC_PWM_S.c **** 
 436:.\Generated_Source\PSoC5/HC_PWM_S.c ****     #if (HC_PWM_S_UseStatus)
 437:.\Generated_Source\PSoC5/HC_PWM_S.c **** 
 438:.\Generated_Source\PSoC5/HC_PWM_S.c **** 
 439:.\Generated_Source\PSoC5/HC_PWM_S.c ****         /*******************************************************************************
 440:.\Generated_Source\PSoC5/HC_PWM_S.c ****         * Function Name: HC_PWM_S_ClearFIFO
 441:.\Generated_Source\PSoC5/HC_PWM_S.c ****         ********************************************************************************
 442:.\Generated_Source\PSoC5/HC_PWM_S.c ****         *
 443:.\Generated_Source\PSoC5/HC_PWM_S.c ****         * Summary:
 444:.\Generated_Source\PSoC5/HC_PWM_S.c ****         *  This function clears all capture data from the capture FIFO
 445:.\Generated_Source\PSoC5/HC_PWM_S.c ****         *
 446:.\Generated_Source\PSoC5/HC_PWM_S.c ****         * Parameters:
 447:.\Generated_Source\PSoC5/HC_PWM_S.c ****         *  None
 448:.\Generated_Source\PSoC5/HC_PWM_S.c ****         *
 449:.\Generated_Source\PSoC5/HC_PWM_S.c ****         * Return:
 450:.\Generated_Source\PSoC5/HC_PWM_S.c ****         *  None
 451:.\Generated_Source\PSoC5/HC_PWM_S.c ****         *
 452:.\Generated_Source\PSoC5/HC_PWM_S.c ****         *******************************************************************************/
 453:.\Generated_Source\PSoC5/HC_PWM_S.c ****         void HC_PWM_S_ClearFIFO(void) 
 454:.\Generated_Source\PSoC5/HC_PWM_S.c ****         {
 324              		.loc 1 454 0
 325              		.cfi_startproc
 326              		@ args = 0, pretend = 0, frame = 0
 327              		@ frame_needed = 1, uses_anonymous_args = 0
 328 0000 80B5     		push	{r7, lr}
 329              		.cfi_def_cfa_offset 8
 330              		.cfi_offset 7, -8
 331              		.cfi_offset 14, -4
 332 0002 00AF     		add	r7, sp, #0
 333              		.cfi_def_cfa_register 7
 455:.\Generated_Source\PSoC5/HC_PWM_S.c ****             while(0u != (HC_PWM_S_ReadStatusRegister() & HC_PWM_S_STATUS_FIFONEMPTY))
 334              		.loc 1 455 0
 335 0004 01E0     		b	.L22
 336              	.L23:
 456:.\Generated_Source\PSoC5/HC_PWM_S.c ****             {
 457:.\Generated_Source\PSoC5/HC_PWM_S.c ****                 (void)HC_PWM_S_ReadCapture();
 337              		.loc 1 457 0
 338 0006 FFF7FEFF 		bl	HC_PWM_S_ReadCapture
 339              	.L22:
 455:.\Generated_Source\PSoC5/HC_PWM_S.c ****             while(0u != (HC_PWM_S_ReadStatusRegister() & HC_PWM_S_STATUS_FIFONEMPTY))
 340              		.loc 1 455 0 discriminator 1
ARM GAS  C:\Users\xavieran\AppData\Local\Temp\cc006O7W.s 			page 15


 341 000a FFF7FEFF 		bl	HC_PWM_S_ReadStatusRegister
 342 000e 0346     		mov	r3, r0
 343 0010 03F01003 		and	r3, r3, #16
 344 0014 002B     		cmp	r3, #0
 345 0016 F6D1     		bne	.L23
 458:.\Generated_Source\PSoC5/HC_PWM_S.c ****             }
 459:.\Generated_Source\PSoC5/HC_PWM_S.c ****         }
 346              		.loc 1 459 0
 347 0018 80BD     		pop	{r7, pc}
 348              		.cfi_endproc
 349              	.LFE6:
 350              		.size	HC_PWM_S_ClearFIFO, .-HC_PWM_S_ClearFIFO
 351 001a 00BF     		.section	.text.HC_PWM_S_WritePeriod,"ax",%progbits
 352              		.align	2
 353              		.global	HC_PWM_S_WritePeriod
 354              		.thumb
 355              		.thumb_func
 356              		.type	HC_PWM_S_WritePeriod, %function
 357              	HC_PWM_S_WritePeriod:
 358              	.LFB7:
 460:.\Generated_Source\PSoC5/HC_PWM_S.c **** 
 461:.\Generated_Source\PSoC5/HC_PWM_S.c ****     #endif /* HC_PWM_S_UseStatus */
 462:.\Generated_Source\PSoC5/HC_PWM_S.c **** 
 463:.\Generated_Source\PSoC5/HC_PWM_S.c **** #endif /* !HC_PWM_S_UsingFixedFunction */
 464:.\Generated_Source\PSoC5/HC_PWM_S.c **** 
 465:.\Generated_Source\PSoC5/HC_PWM_S.c **** 
 466:.\Generated_Source\PSoC5/HC_PWM_S.c **** /*******************************************************************************
 467:.\Generated_Source\PSoC5/HC_PWM_S.c **** * Function Name: HC_PWM_S_WritePeriod
 468:.\Generated_Source\PSoC5/HC_PWM_S.c **** ********************************************************************************
 469:.\Generated_Source\PSoC5/HC_PWM_S.c **** *
 470:.\Generated_Source\PSoC5/HC_PWM_S.c **** * Summary:
 471:.\Generated_Source\PSoC5/HC_PWM_S.c **** *  This function is used to change the period of the counter.  The new period
 472:.\Generated_Source\PSoC5/HC_PWM_S.c **** *  will be loaded the next time terminal count is detected.
 473:.\Generated_Source\PSoC5/HC_PWM_S.c **** *
 474:.\Generated_Source\PSoC5/HC_PWM_S.c **** * Parameters:
 475:.\Generated_Source\PSoC5/HC_PWM_S.c **** *  period:  Period value. May be between 1 and (2^Resolution)-1.  A value of 0
 476:.\Generated_Source\PSoC5/HC_PWM_S.c **** *           will result in the counter remaining at zero.
 477:.\Generated_Source\PSoC5/HC_PWM_S.c **** *
 478:.\Generated_Source\PSoC5/HC_PWM_S.c **** * Return:
 479:.\Generated_Source\PSoC5/HC_PWM_S.c **** *  None
 480:.\Generated_Source\PSoC5/HC_PWM_S.c **** *
 481:.\Generated_Source\PSoC5/HC_PWM_S.c **** *******************************************************************************/
 482:.\Generated_Source\PSoC5/HC_PWM_S.c **** void HC_PWM_S_WritePeriod(uint16 period) 
 483:.\Generated_Source\PSoC5/HC_PWM_S.c **** {
 359              		.loc 1 483 0
 360              		.cfi_startproc
 361              		@ args = 0, pretend = 0, frame = 8
 362              		@ frame_needed = 1, uses_anonymous_args = 0
 363              		@ link register save eliminated.
 364 0000 80B4     		push	{r7}
 365              		.cfi_def_cfa_offset 4
 366              		.cfi_offset 7, -4
 367 0002 83B0     		sub	sp, sp, #12
 368              		.cfi_def_cfa_offset 16
 369 0004 00AF     		add	r7, sp, #0
 370              		.cfi_def_cfa_register 7
 371 0006 0346     		mov	r3, r0
ARM GAS  C:\Users\xavieran\AppData\Local\Temp\cc006O7W.s 			page 16


 372 0008 FB80     		strh	r3, [r7, #6]	@ movhi
 484:.\Generated_Source\PSoC5/HC_PWM_S.c ****     #if(HC_PWM_S_UsingFixedFunction)
 485:.\Generated_Source\PSoC5/HC_PWM_S.c ****         CY_SET_REG16(HC_PWM_S_PERIOD_LSB_PTR, (uint16)period);
 486:.\Generated_Source\PSoC5/HC_PWM_S.c ****     #else
 487:.\Generated_Source\PSoC5/HC_PWM_S.c ****         CY_SET_REG16(HC_PWM_S_PERIOD_LSB_PTR, period);
 373              		.loc 1 487 0
 374 000a 044B     		ldr	r3, .L25
 375 000c FA88     		ldrh	r2, [r7, #6]	@ movhi
 376 000e 1A80     		strh	r2, [r3]	@ movhi
 488:.\Generated_Source\PSoC5/HC_PWM_S.c ****     #endif /* (HC_PWM_S_UsingFixedFunction) */
 489:.\Generated_Source\PSoC5/HC_PWM_S.c **** }
 377              		.loc 1 489 0
 378 0010 0C37     		adds	r7, r7, #12
 379 0012 BD46     		mov	sp, r7
 380              		@ sp needed
 381 0014 5DF8047B 		ldr	r7, [sp], #4
 382 0018 7047     		bx	lr
 383              	.L26:
 384 001a 00BF     		.align	2
 385              	.L25:
 386 001c 8C680040 		.word	1073768588
 387              		.cfi_endproc
 388              	.LFE7:
 389              		.size	HC_PWM_S_WritePeriod, .-HC_PWM_S_WritePeriod
 390              		.section	.text.HC_PWM_S_WriteCompare1,"ax",%progbits
 391              		.align	2
 392              		.global	HC_PWM_S_WriteCompare1
 393              		.thumb
 394              		.thumb_func
 395              		.type	HC_PWM_S_WriteCompare1, %function
 396              	HC_PWM_S_WriteCompare1:
 397              	.LFB8:
 490:.\Generated_Source\PSoC5/HC_PWM_S.c **** 
 491:.\Generated_Source\PSoC5/HC_PWM_S.c **** #if (HC_PWM_S_UseOneCompareMode)
 492:.\Generated_Source\PSoC5/HC_PWM_S.c **** 
 493:.\Generated_Source\PSoC5/HC_PWM_S.c **** 
 494:.\Generated_Source\PSoC5/HC_PWM_S.c ****     /*******************************************************************************
 495:.\Generated_Source\PSoC5/HC_PWM_S.c ****     * Function Name: HC_PWM_S_WriteCompare
 496:.\Generated_Source\PSoC5/HC_PWM_S.c ****     ********************************************************************************
 497:.\Generated_Source\PSoC5/HC_PWM_S.c ****     *
 498:.\Generated_Source\PSoC5/HC_PWM_S.c ****     * Summary:
 499:.\Generated_Source\PSoC5/HC_PWM_S.c ****     *  This funtion is used to change the compare1 value when the PWM is in Dither
 500:.\Generated_Source\PSoC5/HC_PWM_S.c ****     *  mode. The compare output will reflect the new value on the next UDB clock.
 501:.\Generated_Source\PSoC5/HC_PWM_S.c ****     *  The compare output will be driven high when the present counter value is
 502:.\Generated_Source\PSoC5/HC_PWM_S.c ****     *  compared to the compare value based on the compare mode defined in
 503:.\Generated_Source\PSoC5/HC_PWM_S.c ****     *  Dither Mode.
 504:.\Generated_Source\PSoC5/HC_PWM_S.c ****     *
 505:.\Generated_Source\PSoC5/HC_PWM_S.c ****     * Parameters:
 506:.\Generated_Source\PSoC5/HC_PWM_S.c ****     *  compare:  New compare value.
 507:.\Generated_Source\PSoC5/HC_PWM_S.c ****     *
 508:.\Generated_Source\PSoC5/HC_PWM_S.c ****     * Return:
 509:.\Generated_Source\PSoC5/HC_PWM_S.c ****     *  None
 510:.\Generated_Source\PSoC5/HC_PWM_S.c ****     *
 511:.\Generated_Source\PSoC5/HC_PWM_S.c ****     * Side Effects:
 512:.\Generated_Source\PSoC5/HC_PWM_S.c ****     *  This function is only available if the PWM mode parameter is set to
 513:.\Generated_Source\PSoC5/HC_PWM_S.c ****     *  Dither Mode, Center Aligned Mode or One Output Mode
 514:.\Generated_Source\PSoC5/HC_PWM_S.c ****     *
ARM GAS  C:\Users\xavieran\AppData\Local\Temp\cc006O7W.s 			page 17


 515:.\Generated_Source\PSoC5/HC_PWM_S.c ****     *******************************************************************************/
 516:.\Generated_Source\PSoC5/HC_PWM_S.c ****     void HC_PWM_S_WriteCompare(uint16 compare) \
 517:.\Generated_Source\PSoC5/HC_PWM_S.c ****                                        
 518:.\Generated_Source\PSoC5/HC_PWM_S.c ****     {
 519:.\Generated_Source\PSoC5/HC_PWM_S.c ****         #if(HC_PWM_S_UsingFixedFunction)
 520:.\Generated_Source\PSoC5/HC_PWM_S.c ****             CY_SET_REG16(HC_PWM_S_COMPARE1_LSB_PTR, (uint16)compare);
 521:.\Generated_Source\PSoC5/HC_PWM_S.c ****         #else
 522:.\Generated_Source\PSoC5/HC_PWM_S.c ****             CY_SET_REG16(HC_PWM_S_COMPARE1_LSB_PTR, compare);
 523:.\Generated_Source\PSoC5/HC_PWM_S.c ****         #endif /* (HC_PWM_S_UsingFixedFunction) */
 524:.\Generated_Source\PSoC5/HC_PWM_S.c **** 
 525:.\Generated_Source\PSoC5/HC_PWM_S.c ****         #if (HC_PWM_S_PWMMode == HC_PWM_S__B_PWM__DITHER)
 526:.\Generated_Source\PSoC5/HC_PWM_S.c ****             #if(HC_PWM_S_UsingFixedFunction)
 527:.\Generated_Source\PSoC5/HC_PWM_S.c ****                 CY_SET_REG16(HC_PWM_S_COMPARE2_LSB_PTR, (uint16)(compare + 1u));
 528:.\Generated_Source\PSoC5/HC_PWM_S.c ****             #else
 529:.\Generated_Source\PSoC5/HC_PWM_S.c ****                 CY_SET_REG16(HC_PWM_S_COMPARE2_LSB_PTR, (compare + 1u));
 530:.\Generated_Source\PSoC5/HC_PWM_S.c ****             #endif /* (HC_PWM_S_UsingFixedFunction) */
 531:.\Generated_Source\PSoC5/HC_PWM_S.c ****         #endif /* (HC_PWM_S_PWMMode == HC_PWM_S__B_PWM__DITHER) */
 532:.\Generated_Source\PSoC5/HC_PWM_S.c ****     }
 533:.\Generated_Source\PSoC5/HC_PWM_S.c **** 
 534:.\Generated_Source\PSoC5/HC_PWM_S.c **** 
 535:.\Generated_Source\PSoC5/HC_PWM_S.c **** #else
 536:.\Generated_Source\PSoC5/HC_PWM_S.c **** 
 537:.\Generated_Source\PSoC5/HC_PWM_S.c **** 
 538:.\Generated_Source\PSoC5/HC_PWM_S.c ****     /*******************************************************************************
 539:.\Generated_Source\PSoC5/HC_PWM_S.c ****     * Function Name: HC_PWM_S_WriteCompare1
 540:.\Generated_Source\PSoC5/HC_PWM_S.c ****     ********************************************************************************
 541:.\Generated_Source\PSoC5/HC_PWM_S.c ****     *
 542:.\Generated_Source\PSoC5/HC_PWM_S.c ****     * Summary:
 543:.\Generated_Source\PSoC5/HC_PWM_S.c ****     *  This funtion is used to change the compare1 value.  The compare output will
 544:.\Generated_Source\PSoC5/HC_PWM_S.c ****     *  reflect the new value on the next UDB clock.  The compare output will be
 545:.\Generated_Source\PSoC5/HC_PWM_S.c ****     *  driven high when the present counter value is less than or less than or
 546:.\Generated_Source\PSoC5/HC_PWM_S.c ****     *  equal to the compare register, depending on the mode.
 547:.\Generated_Source\PSoC5/HC_PWM_S.c ****     *
 548:.\Generated_Source\PSoC5/HC_PWM_S.c ****     * Parameters:
 549:.\Generated_Source\PSoC5/HC_PWM_S.c ****     *  compare:  New compare value.
 550:.\Generated_Source\PSoC5/HC_PWM_S.c ****     *
 551:.\Generated_Source\PSoC5/HC_PWM_S.c ****     * Return:
 552:.\Generated_Source\PSoC5/HC_PWM_S.c ****     *  None
 553:.\Generated_Source\PSoC5/HC_PWM_S.c ****     *
 554:.\Generated_Source\PSoC5/HC_PWM_S.c ****     *******************************************************************************/
 555:.\Generated_Source\PSoC5/HC_PWM_S.c ****     void HC_PWM_S_WriteCompare1(uint16 compare) \
 556:.\Generated_Source\PSoC5/HC_PWM_S.c ****                                         
 557:.\Generated_Source\PSoC5/HC_PWM_S.c ****     {
 398              		.loc 1 557 0
 399              		.cfi_startproc
 400              		@ args = 0, pretend = 0, frame = 8
 401              		@ frame_needed = 1, uses_anonymous_args = 0
 402              		@ link register save eliminated.
 403 0000 80B4     		push	{r7}
 404              		.cfi_def_cfa_offset 4
 405              		.cfi_offset 7, -4
 406 0002 83B0     		sub	sp, sp, #12
 407              		.cfi_def_cfa_offset 16
 408 0004 00AF     		add	r7, sp, #0
 409              		.cfi_def_cfa_register 7
 410 0006 0346     		mov	r3, r0
 411 0008 FB80     		strh	r3, [r7, #6]	@ movhi
ARM GAS  C:\Users\xavieran\AppData\Local\Temp\cc006O7W.s 			page 18


 558:.\Generated_Source\PSoC5/HC_PWM_S.c ****         #if(HC_PWM_S_UsingFixedFunction)
 559:.\Generated_Source\PSoC5/HC_PWM_S.c ****             CY_SET_REG16(HC_PWM_S_COMPARE1_LSB_PTR, (uint16)compare);
 560:.\Generated_Source\PSoC5/HC_PWM_S.c ****         #else
 561:.\Generated_Source\PSoC5/HC_PWM_S.c ****             CY_SET_REG16(HC_PWM_S_COMPARE1_LSB_PTR, compare);
 412              		.loc 1 561 0
 413 000a 044B     		ldr	r3, .L28
 414 000c FA88     		ldrh	r2, [r7, #6]	@ movhi
 415 000e 1A80     		strh	r2, [r3]	@ movhi
 562:.\Generated_Source\PSoC5/HC_PWM_S.c ****         #endif /* (HC_PWM_S_UsingFixedFunction) */
 563:.\Generated_Source\PSoC5/HC_PWM_S.c ****     }
 416              		.loc 1 563 0
 417 0010 0C37     		adds	r7, r7, #12
 418 0012 BD46     		mov	sp, r7
 419              		@ sp needed
 420 0014 5DF8047B 		ldr	r7, [sp], #4
 421 0018 7047     		bx	lr
 422              	.L29:
 423 001a 00BF     		.align	2
 424              	.L28:
 425 001c 4C680040 		.word	1073768524
 426              		.cfi_endproc
 427              	.LFE8:
 428              		.size	HC_PWM_S_WriteCompare1, .-HC_PWM_S_WriteCompare1
 429              		.section	.text.HC_PWM_S_WriteCompare2,"ax",%progbits
 430              		.align	2
 431              		.global	HC_PWM_S_WriteCompare2
 432              		.thumb
 433              		.thumb_func
 434              		.type	HC_PWM_S_WriteCompare2, %function
 435              	HC_PWM_S_WriteCompare2:
 436              	.LFB9:
 564:.\Generated_Source\PSoC5/HC_PWM_S.c **** 
 565:.\Generated_Source\PSoC5/HC_PWM_S.c **** 
 566:.\Generated_Source\PSoC5/HC_PWM_S.c ****     /*******************************************************************************
 567:.\Generated_Source\PSoC5/HC_PWM_S.c ****     * Function Name: HC_PWM_S_WriteCompare2
 568:.\Generated_Source\PSoC5/HC_PWM_S.c ****     ********************************************************************************
 569:.\Generated_Source\PSoC5/HC_PWM_S.c ****     *
 570:.\Generated_Source\PSoC5/HC_PWM_S.c ****     * Summary:
 571:.\Generated_Source\PSoC5/HC_PWM_S.c ****     *  This funtion is used to change the compare value, for compare1 output.
 572:.\Generated_Source\PSoC5/HC_PWM_S.c ****     *  The compare output will reflect the new value on the next UDB clock.
 573:.\Generated_Source\PSoC5/HC_PWM_S.c ****     *  The compare output will be driven high when the present counter value is
 574:.\Generated_Source\PSoC5/HC_PWM_S.c ****     *  less than or less than or equal to the compare register, depending on the
 575:.\Generated_Source\PSoC5/HC_PWM_S.c ****     *  mode.
 576:.\Generated_Source\PSoC5/HC_PWM_S.c ****     *
 577:.\Generated_Source\PSoC5/HC_PWM_S.c ****     * Parameters:
 578:.\Generated_Source\PSoC5/HC_PWM_S.c ****     *  compare:  New compare value.
 579:.\Generated_Source\PSoC5/HC_PWM_S.c ****     *
 580:.\Generated_Source\PSoC5/HC_PWM_S.c ****     * Return:
 581:.\Generated_Source\PSoC5/HC_PWM_S.c ****     *  None
 582:.\Generated_Source\PSoC5/HC_PWM_S.c ****     *
 583:.\Generated_Source\PSoC5/HC_PWM_S.c ****     *******************************************************************************/
 584:.\Generated_Source\PSoC5/HC_PWM_S.c ****     void HC_PWM_S_WriteCompare2(uint16 compare) \
 585:.\Generated_Source\PSoC5/HC_PWM_S.c ****                                         
 586:.\Generated_Source\PSoC5/HC_PWM_S.c ****     {
 437              		.loc 1 586 0
 438              		.cfi_startproc
 439              		@ args = 0, pretend = 0, frame = 8
ARM GAS  C:\Users\xavieran\AppData\Local\Temp\cc006O7W.s 			page 19


 440              		@ frame_needed = 1, uses_anonymous_args = 0
 441              		@ link register save eliminated.
 442 0000 80B4     		push	{r7}
 443              		.cfi_def_cfa_offset 4
 444              		.cfi_offset 7, -4
 445 0002 83B0     		sub	sp, sp, #12
 446              		.cfi_def_cfa_offset 16
 447 0004 00AF     		add	r7, sp, #0
 448              		.cfi_def_cfa_register 7
 449 0006 0346     		mov	r3, r0
 450 0008 FB80     		strh	r3, [r7, #6]	@ movhi
 587:.\Generated_Source\PSoC5/HC_PWM_S.c ****         #if(HC_PWM_S_UsingFixedFunction)
 588:.\Generated_Source\PSoC5/HC_PWM_S.c ****             CY_SET_REG16(HC_PWM_S_COMPARE2_LSB_PTR, compare);
 589:.\Generated_Source\PSoC5/HC_PWM_S.c ****         #else
 590:.\Generated_Source\PSoC5/HC_PWM_S.c ****             CY_SET_REG16(HC_PWM_S_COMPARE2_LSB_PTR, compare);
 451              		.loc 1 590 0
 452 000a 044B     		ldr	r3, .L31
 453 000c FA88     		ldrh	r2, [r7, #6]	@ movhi
 454 000e 1A80     		strh	r2, [r3]	@ movhi
 591:.\Generated_Source\PSoC5/HC_PWM_S.c ****         #endif /* (HC_PWM_S_UsingFixedFunction) */
 592:.\Generated_Source\PSoC5/HC_PWM_S.c ****     }
 455              		.loc 1 592 0
 456 0010 0C37     		adds	r7, r7, #12
 457 0012 BD46     		mov	sp, r7
 458              		@ sp needed
 459 0014 5DF8047B 		ldr	r7, [sp], #4
 460 0018 7047     		bx	lr
 461              	.L32:
 462 001a 00BF     		.align	2
 463              	.L31:
 464 001c 6C680040 		.word	1073768556
 465              		.cfi_endproc
 466              	.LFE9:
 467              		.size	HC_PWM_S_WriteCompare2, .-HC_PWM_S_WriteCompare2
 468              		.section	.text.HC_PWM_S_SetInterruptMode,"ax",%progbits
 469              		.align	2
 470              		.global	HC_PWM_S_SetInterruptMode
 471              		.thumb
 472              		.thumb_func
 473              		.type	HC_PWM_S_SetInterruptMode, %function
 474              	HC_PWM_S_SetInterruptMode:
 475              	.LFB10:
 593:.\Generated_Source\PSoC5/HC_PWM_S.c **** #endif /* UseOneCompareMode */
 594:.\Generated_Source\PSoC5/HC_PWM_S.c **** 
 595:.\Generated_Source\PSoC5/HC_PWM_S.c **** #if (HC_PWM_S_DeadBandUsed)
 596:.\Generated_Source\PSoC5/HC_PWM_S.c **** 
 597:.\Generated_Source\PSoC5/HC_PWM_S.c **** 
 598:.\Generated_Source\PSoC5/HC_PWM_S.c ****     /*******************************************************************************
 599:.\Generated_Source\PSoC5/HC_PWM_S.c ****     * Function Name: HC_PWM_S_WriteDeadTime
 600:.\Generated_Source\PSoC5/HC_PWM_S.c ****     ********************************************************************************
 601:.\Generated_Source\PSoC5/HC_PWM_S.c ****     *
 602:.\Generated_Source\PSoC5/HC_PWM_S.c ****     * Summary:
 603:.\Generated_Source\PSoC5/HC_PWM_S.c ****     *  This function writes the dead-band counts to the corresponding register
 604:.\Generated_Source\PSoC5/HC_PWM_S.c ****     *
 605:.\Generated_Source\PSoC5/HC_PWM_S.c ****     * Parameters:
 606:.\Generated_Source\PSoC5/HC_PWM_S.c ****     *  deadtime:  Number of counts for dead time
 607:.\Generated_Source\PSoC5/HC_PWM_S.c ****     *
ARM GAS  C:\Users\xavieran\AppData\Local\Temp\cc006O7W.s 			page 20


 608:.\Generated_Source\PSoC5/HC_PWM_S.c ****     * Return:
 609:.\Generated_Source\PSoC5/HC_PWM_S.c ****     *  None
 610:.\Generated_Source\PSoC5/HC_PWM_S.c ****     *
 611:.\Generated_Source\PSoC5/HC_PWM_S.c ****     *******************************************************************************/
 612:.\Generated_Source\PSoC5/HC_PWM_S.c ****     void HC_PWM_S_WriteDeadTime(uint8 deadtime) 
 613:.\Generated_Source\PSoC5/HC_PWM_S.c ****     {
 614:.\Generated_Source\PSoC5/HC_PWM_S.c ****         /* If using the Dead Band 1-255 mode then just write the register */
 615:.\Generated_Source\PSoC5/HC_PWM_S.c ****         #if(!HC_PWM_S_DeadBand2_4)
 616:.\Generated_Source\PSoC5/HC_PWM_S.c ****             CY_SET_REG8(HC_PWM_S_DEADBAND_COUNT_PTR, deadtime);
 617:.\Generated_Source\PSoC5/HC_PWM_S.c ****         #else
 618:.\Generated_Source\PSoC5/HC_PWM_S.c ****             /* Otherwise the data has to be masked and offset */
 619:.\Generated_Source\PSoC5/HC_PWM_S.c ****             /* Clear existing data */
 620:.\Generated_Source\PSoC5/HC_PWM_S.c ****             HC_PWM_S_DEADBAND_COUNT &= ((uint8)(~HC_PWM_S_DEADBAND_COUNT_MASK));
 621:.\Generated_Source\PSoC5/HC_PWM_S.c **** 
 622:.\Generated_Source\PSoC5/HC_PWM_S.c ****             /* Set new dead time */
 623:.\Generated_Source\PSoC5/HC_PWM_S.c ****             #if(HC_PWM_S_DEADBAND_COUNT_SHIFT)
 624:.\Generated_Source\PSoC5/HC_PWM_S.c ****                 HC_PWM_S_DEADBAND_COUNT |= ((uint8)((uint8)deadtime << HC_PWM_S_DEADBAND_COUNT_SHIF
 625:.\Generated_Source\PSoC5/HC_PWM_S.c ****                                                     HC_PWM_S_DEADBAND_COUNT_MASK;
 626:.\Generated_Source\PSoC5/HC_PWM_S.c ****             #else
 627:.\Generated_Source\PSoC5/HC_PWM_S.c ****                 HC_PWM_S_DEADBAND_COUNT |= deadtime & HC_PWM_S_DEADBAND_COUNT_MASK;
 628:.\Generated_Source\PSoC5/HC_PWM_S.c ****             #endif /* (HC_PWM_S_DEADBAND_COUNT_SHIFT) */
 629:.\Generated_Source\PSoC5/HC_PWM_S.c **** 
 630:.\Generated_Source\PSoC5/HC_PWM_S.c ****         #endif /* (!HC_PWM_S_DeadBand2_4) */
 631:.\Generated_Source\PSoC5/HC_PWM_S.c ****     }
 632:.\Generated_Source\PSoC5/HC_PWM_S.c **** 
 633:.\Generated_Source\PSoC5/HC_PWM_S.c **** 
 634:.\Generated_Source\PSoC5/HC_PWM_S.c ****     /*******************************************************************************
 635:.\Generated_Source\PSoC5/HC_PWM_S.c ****     * Function Name: HC_PWM_S_ReadDeadTime
 636:.\Generated_Source\PSoC5/HC_PWM_S.c ****     ********************************************************************************
 637:.\Generated_Source\PSoC5/HC_PWM_S.c ****     *
 638:.\Generated_Source\PSoC5/HC_PWM_S.c ****     * Summary:
 639:.\Generated_Source\PSoC5/HC_PWM_S.c ****     *  This function reads the dead-band counts from the corresponding register
 640:.\Generated_Source\PSoC5/HC_PWM_S.c ****     *
 641:.\Generated_Source\PSoC5/HC_PWM_S.c ****     * Parameters:
 642:.\Generated_Source\PSoC5/HC_PWM_S.c ****     *  None
 643:.\Generated_Source\PSoC5/HC_PWM_S.c ****     *
 644:.\Generated_Source\PSoC5/HC_PWM_S.c ****     * Return:
 645:.\Generated_Source\PSoC5/HC_PWM_S.c ****     *  Dead Band Counts
 646:.\Generated_Source\PSoC5/HC_PWM_S.c ****     *
 647:.\Generated_Source\PSoC5/HC_PWM_S.c ****     *******************************************************************************/
 648:.\Generated_Source\PSoC5/HC_PWM_S.c ****     uint8 HC_PWM_S_ReadDeadTime(void) 
 649:.\Generated_Source\PSoC5/HC_PWM_S.c ****     {
 650:.\Generated_Source\PSoC5/HC_PWM_S.c ****         /* If using the Dead Band 1-255 mode then just read the register */
 651:.\Generated_Source\PSoC5/HC_PWM_S.c ****         #if(!HC_PWM_S_DeadBand2_4)
 652:.\Generated_Source\PSoC5/HC_PWM_S.c ****             return (CY_GET_REG8(HC_PWM_S_DEADBAND_COUNT_PTR));
 653:.\Generated_Source\PSoC5/HC_PWM_S.c ****         #else
 654:.\Generated_Source\PSoC5/HC_PWM_S.c **** 
 655:.\Generated_Source\PSoC5/HC_PWM_S.c ****             /* Otherwise the data has to be masked and offset */
 656:.\Generated_Source\PSoC5/HC_PWM_S.c ****             #if(HC_PWM_S_DEADBAND_COUNT_SHIFT)
 657:.\Generated_Source\PSoC5/HC_PWM_S.c ****                 return ((uint8)(((uint8)(HC_PWM_S_DEADBAND_COUNT & HC_PWM_S_DEADBAND_COUNT_MASK)) >
 658:.\Generated_Source\PSoC5/HC_PWM_S.c ****                                                                            HC_PWM_S_DEADBAND_COUNT_
 659:.\Generated_Source\PSoC5/HC_PWM_S.c ****             #else
 660:.\Generated_Source\PSoC5/HC_PWM_S.c ****                 return (HC_PWM_S_DEADBAND_COUNT & HC_PWM_S_DEADBAND_COUNT_MASK);
 661:.\Generated_Source\PSoC5/HC_PWM_S.c ****             #endif /* (HC_PWM_S_DEADBAND_COUNT_SHIFT) */
 662:.\Generated_Source\PSoC5/HC_PWM_S.c ****         #endif /* (!HC_PWM_S_DeadBand2_4) */
 663:.\Generated_Source\PSoC5/HC_PWM_S.c ****     }
 664:.\Generated_Source\PSoC5/HC_PWM_S.c **** #endif /* DeadBandUsed */
ARM GAS  C:\Users\xavieran\AppData\Local\Temp\cc006O7W.s 			page 21


 665:.\Generated_Source\PSoC5/HC_PWM_S.c **** 
 666:.\Generated_Source\PSoC5/HC_PWM_S.c **** #if (HC_PWM_S_UseStatus || HC_PWM_S_UsingFixedFunction)
 667:.\Generated_Source\PSoC5/HC_PWM_S.c **** 
 668:.\Generated_Source\PSoC5/HC_PWM_S.c **** 
 669:.\Generated_Source\PSoC5/HC_PWM_S.c ****     /*******************************************************************************
 670:.\Generated_Source\PSoC5/HC_PWM_S.c ****     * Function Name: HC_PWM_S_SetInterruptMode
 671:.\Generated_Source\PSoC5/HC_PWM_S.c ****     ********************************************************************************
 672:.\Generated_Source\PSoC5/HC_PWM_S.c ****     *
 673:.\Generated_Source\PSoC5/HC_PWM_S.c ****     * Summary:
 674:.\Generated_Source\PSoC5/HC_PWM_S.c ****     *  This function configures the interrupts mask control of theinterrupt
 675:.\Generated_Source\PSoC5/HC_PWM_S.c ****     *  source status register.
 676:.\Generated_Source\PSoC5/HC_PWM_S.c ****     *
 677:.\Generated_Source\PSoC5/HC_PWM_S.c ****     * Parameters:
 678:.\Generated_Source\PSoC5/HC_PWM_S.c ****     *  uint8 interruptMode: Bit field containing the interrupt sources enabled
 679:.\Generated_Source\PSoC5/HC_PWM_S.c ****     *
 680:.\Generated_Source\PSoC5/HC_PWM_S.c ****     * Return:
 681:.\Generated_Source\PSoC5/HC_PWM_S.c ****     *  None
 682:.\Generated_Source\PSoC5/HC_PWM_S.c ****     *
 683:.\Generated_Source\PSoC5/HC_PWM_S.c ****     *******************************************************************************/
 684:.\Generated_Source\PSoC5/HC_PWM_S.c ****     void HC_PWM_S_SetInterruptMode(uint8 interruptMode) 
 685:.\Generated_Source\PSoC5/HC_PWM_S.c ****     {
 476              		.loc 1 685 0
 477              		.cfi_startproc
 478              		@ args = 0, pretend = 0, frame = 8
 479              		@ frame_needed = 1, uses_anonymous_args = 0
 480              		@ link register save eliminated.
 481 0000 80B4     		push	{r7}
 482              		.cfi_def_cfa_offset 4
 483              		.cfi_offset 7, -4
 484 0002 83B0     		sub	sp, sp, #12
 485              		.cfi_def_cfa_offset 16
 486 0004 00AF     		add	r7, sp, #0
 487              		.cfi_def_cfa_register 7
 488 0006 0346     		mov	r3, r0
 489 0008 FB71     		strb	r3, [r7, #7]
 686:.\Generated_Source\PSoC5/HC_PWM_S.c ****         CY_SET_REG8(HC_PWM_S_STATUS_MASK_PTR, interruptMode);
 490              		.loc 1 686 0
 491 000a 044B     		ldr	r3, .L34
 492 000c FA79     		ldrb	r2, [r7, #7]
 493 000e 1A70     		strb	r2, [r3]
 687:.\Generated_Source\PSoC5/HC_PWM_S.c ****     }
 494              		.loc 1 687 0
 495 0010 0C37     		adds	r7, r7, #12
 496 0012 BD46     		mov	sp, r7
 497              		@ sp needed
 498 0014 5DF8047B 		ldr	r7, [sp], #4
 499 0018 7047     		bx	lr
 500              	.L35:
 501 001a 00BF     		.align	2
 502              	.L34:
 503 001c 84650040 		.word	1073767812
 504              		.cfi_endproc
 505              	.LFE10:
 506              		.size	HC_PWM_S_SetInterruptMode, .-HC_PWM_S_SetInterruptMode
 507              		.section	.text.HC_PWM_S_ReadStatusRegister,"ax",%progbits
 508              		.align	2
 509              		.global	HC_PWM_S_ReadStatusRegister
ARM GAS  C:\Users\xavieran\AppData\Local\Temp\cc006O7W.s 			page 22


 510              		.thumb
 511              		.thumb_func
 512              		.type	HC_PWM_S_ReadStatusRegister, %function
 513              	HC_PWM_S_ReadStatusRegister:
 514              	.LFB11:
 688:.\Generated_Source\PSoC5/HC_PWM_S.c **** 
 689:.\Generated_Source\PSoC5/HC_PWM_S.c **** 
 690:.\Generated_Source\PSoC5/HC_PWM_S.c ****     /*******************************************************************************
 691:.\Generated_Source\PSoC5/HC_PWM_S.c ****     * Function Name: HC_PWM_S_ReadStatusRegister
 692:.\Generated_Source\PSoC5/HC_PWM_S.c ****     ********************************************************************************
 693:.\Generated_Source\PSoC5/HC_PWM_S.c ****     *
 694:.\Generated_Source\PSoC5/HC_PWM_S.c ****     * Summary:
 695:.\Generated_Source\PSoC5/HC_PWM_S.c ****     *  This function returns the current state of the status register.
 696:.\Generated_Source\PSoC5/HC_PWM_S.c ****     *
 697:.\Generated_Source\PSoC5/HC_PWM_S.c ****     * Parameters:
 698:.\Generated_Source\PSoC5/HC_PWM_S.c ****     *  None
 699:.\Generated_Source\PSoC5/HC_PWM_S.c ****     *
 700:.\Generated_Source\PSoC5/HC_PWM_S.c ****     * Return:
 701:.\Generated_Source\PSoC5/HC_PWM_S.c ****     *  uint8 : Current status register value. The status register bits are:
 702:.\Generated_Source\PSoC5/HC_PWM_S.c ****     *  [7:6] : Unused(0)
 703:.\Generated_Source\PSoC5/HC_PWM_S.c ****     *  [5]   : Kill event output
 704:.\Generated_Source\PSoC5/HC_PWM_S.c ****     *  [4]   : FIFO not empty
 705:.\Generated_Source\PSoC5/HC_PWM_S.c ****     *  [3]   : FIFO full
 706:.\Generated_Source\PSoC5/HC_PWM_S.c ****     *  [2]   : Terminal count
 707:.\Generated_Source\PSoC5/HC_PWM_S.c ****     *  [1]   : Compare output 2
 708:.\Generated_Source\PSoC5/HC_PWM_S.c ****     *  [0]   : Compare output 1
 709:.\Generated_Source\PSoC5/HC_PWM_S.c ****     *
 710:.\Generated_Source\PSoC5/HC_PWM_S.c ****     *******************************************************************************/
 711:.\Generated_Source\PSoC5/HC_PWM_S.c ****     uint8 HC_PWM_S_ReadStatusRegister(void) 
 712:.\Generated_Source\PSoC5/HC_PWM_S.c ****     {
 515              		.loc 1 712 0
 516              		.cfi_startproc
 517              		@ args = 0, pretend = 0, frame = 0
 518              		@ frame_needed = 1, uses_anonymous_args = 0
 519              		@ link register save eliminated.
 520 0000 80B4     		push	{r7}
 521              		.cfi_def_cfa_offset 4
 522              		.cfi_offset 7, -4
 523 0002 00AF     		add	r7, sp, #0
 524              		.cfi_def_cfa_register 7
 713:.\Generated_Source\PSoC5/HC_PWM_S.c ****         return (CY_GET_REG8(HC_PWM_S_STATUS_PTR));
 525              		.loc 1 713 0
 526 0004 034B     		ldr	r3, .L38
 527 0006 1B78     		ldrb	r3, [r3]
 528 0008 DBB2     		uxtb	r3, r3
 714:.\Generated_Source\PSoC5/HC_PWM_S.c ****     }
 529              		.loc 1 714 0
 530 000a 1846     		mov	r0, r3
 531 000c BD46     		mov	sp, r7
 532              		@ sp needed
 533 000e 5DF8047B 		ldr	r7, [sp], #4
 534 0012 7047     		bx	lr
 535              	.L39:
 536              		.align	2
 537              	.L38:
 538 0014 64650040 		.word	1073767780
 539              		.cfi_endproc
ARM GAS  C:\Users\xavieran\AppData\Local\Temp\cc006O7W.s 			page 23


 540              	.LFE11:
 541              		.size	HC_PWM_S_ReadStatusRegister, .-HC_PWM_S_ReadStatusRegister
 542              		.section	.text.HC_PWM_S_ReadControlRegister,"ax",%progbits
 543              		.align	2
 544              		.global	HC_PWM_S_ReadControlRegister
 545              		.thumb
 546              		.thumb_func
 547              		.type	HC_PWM_S_ReadControlRegister, %function
 548              	HC_PWM_S_ReadControlRegister:
 549              	.LFB12:
 715:.\Generated_Source\PSoC5/HC_PWM_S.c **** 
 716:.\Generated_Source\PSoC5/HC_PWM_S.c **** #endif /* (HC_PWM_S_UseStatus || HC_PWM_S_UsingFixedFunction) */
 717:.\Generated_Source\PSoC5/HC_PWM_S.c **** 
 718:.\Generated_Source\PSoC5/HC_PWM_S.c **** 
 719:.\Generated_Source\PSoC5/HC_PWM_S.c **** #if (HC_PWM_S_UseControl)
 720:.\Generated_Source\PSoC5/HC_PWM_S.c **** 
 721:.\Generated_Source\PSoC5/HC_PWM_S.c **** 
 722:.\Generated_Source\PSoC5/HC_PWM_S.c ****     /*******************************************************************************
 723:.\Generated_Source\PSoC5/HC_PWM_S.c ****     * Function Name: HC_PWM_S_ReadControlRegister
 724:.\Generated_Source\PSoC5/HC_PWM_S.c ****     ********************************************************************************
 725:.\Generated_Source\PSoC5/HC_PWM_S.c ****     *
 726:.\Generated_Source\PSoC5/HC_PWM_S.c ****     * Summary:
 727:.\Generated_Source\PSoC5/HC_PWM_S.c ****     *  Returns the current state of the control register. This API is available
 728:.\Generated_Source\PSoC5/HC_PWM_S.c ****     *  only if the control register is not removed.
 729:.\Generated_Source\PSoC5/HC_PWM_S.c ****     *
 730:.\Generated_Source\PSoC5/HC_PWM_S.c ****     * Parameters:
 731:.\Generated_Source\PSoC5/HC_PWM_S.c ****     *  None
 732:.\Generated_Source\PSoC5/HC_PWM_S.c ****     *
 733:.\Generated_Source\PSoC5/HC_PWM_S.c ****     * Return:
 734:.\Generated_Source\PSoC5/HC_PWM_S.c ****     *  uint8 : Current control register value
 735:.\Generated_Source\PSoC5/HC_PWM_S.c ****     *
 736:.\Generated_Source\PSoC5/HC_PWM_S.c ****     *******************************************************************************/
 737:.\Generated_Source\PSoC5/HC_PWM_S.c ****     uint8 HC_PWM_S_ReadControlRegister(void) 
 738:.\Generated_Source\PSoC5/HC_PWM_S.c ****     {
 550              		.loc 1 738 0
 551              		.cfi_startproc
 552              		@ args = 0, pretend = 0, frame = 8
 553              		@ frame_needed = 1, uses_anonymous_args = 0
 554              		@ link register save eliminated.
 555 0000 80B4     		push	{r7}
 556              		.cfi_def_cfa_offset 4
 557              		.cfi_offset 7, -4
 558 0002 83B0     		sub	sp, sp, #12
 559              		.cfi_def_cfa_offset 16
 560 0004 00AF     		add	r7, sp, #0
 561              		.cfi_def_cfa_register 7
 739:.\Generated_Source\PSoC5/HC_PWM_S.c ****         uint8 result;
 740:.\Generated_Source\PSoC5/HC_PWM_S.c **** 
 741:.\Generated_Source\PSoC5/HC_PWM_S.c ****         result = CY_GET_REG8(HC_PWM_S_CONTROL_PTR);
 562              		.loc 1 741 0
 563 0006 054B     		ldr	r3, .L42
 564 0008 1B78     		ldrb	r3, [r3]
 565 000a FB71     		strb	r3, [r7, #7]
 742:.\Generated_Source\PSoC5/HC_PWM_S.c ****         return (result);
 566              		.loc 1 742 0
 567 000c FB79     		ldrb	r3, [r7, #7]	@ zero_extendqisi2
 743:.\Generated_Source\PSoC5/HC_PWM_S.c ****     }
ARM GAS  C:\Users\xavieran\AppData\Local\Temp\cc006O7W.s 			page 24


 568              		.loc 1 743 0
 569 000e 1846     		mov	r0, r3
 570 0010 0C37     		adds	r7, r7, #12
 571 0012 BD46     		mov	sp, r7
 572              		@ sp needed
 573 0014 5DF8047B 		ldr	r7, [sp], #4
 574 0018 7047     		bx	lr
 575              	.L43:
 576 001a 00BF     		.align	2
 577              	.L42:
 578 001c 75650040 		.word	1073767797
 579              		.cfi_endproc
 580              	.LFE12:
 581              		.size	HC_PWM_S_ReadControlRegister, .-HC_PWM_S_ReadControlRegister
 582              		.section	.text.HC_PWM_S_WriteControlRegister,"ax",%progbits
 583              		.align	2
 584              		.global	HC_PWM_S_WriteControlRegister
 585              		.thumb
 586              		.thumb_func
 587              		.type	HC_PWM_S_WriteControlRegister, %function
 588              	HC_PWM_S_WriteControlRegister:
 589              	.LFB13:
 744:.\Generated_Source\PSoC5/HC_PWM_S.c **** 
 745:.\Generated_Source\PSoC5/HC_PWM_S.c **** 
 746:.\Generated_Source\PSoC5/HC_PWM_S.c ****     /*******************************************************************************
 747:.\Generated_Source\PSoC5/HC_PWM_S.c ****     * Function Name: HC_PWM_S_WriteControlRegister
 748:.\Generated_Source\PSoC5/HC_PWM_S.c ****     ********************************************************************************
 749:.\Generated_Source\PSoC5/HC_PWM_S.c ****     *
 750:.\Generated_Source\PSoC5/HC_PWM_S.c ****     * Summary:
 751:.\Generated_Source\PSoC5/HC_PWM_S.c ****     *  Sets the bit field of the control register. This API is available only if
 752:.\Generated_Source\PSoC5/HC_PWM_S.c ****     *  the control register is not removed.
 753:.\Generated_Source\PSoC5/HC_PWM_S.c ****     *
 754:.\Generated_Source\PSoC5/HC_PWM_S.c ****     * Parameters:
 755:.\Generated_Source\PSoC5/HC_PWM_S.c ****     *  uint8 control: Control register bit field, The status register bits are:
 756:.\Generated_Source\PSoC5/HC_PWM_S.c ****     *  [7]   : PWM Enable
 757:.\Generated_Source\PSoC5/HC_PWM_S.c ****     *  [6]   : Reset
 758:.\Generated_Source\PSoC5/HC_PWM_S.c ****     *  [5:3] : Compare Mode2
 759:.\Generated_Source\PSoC5/HC_PWM_S.c ****     *  [2:0] : Compare Mode2
 760:.\Generated_Source\PSoC5/HC_PWM_S.c ****     *
 761:.\Generated_Source\PSoC5/HC_PWM_S.c ****     * Return:
 762:.\Generated_Source\PSoC5/HC_PWM_S.c ****     *  None
 763:.\Generated_Source\PSoC5/HC_PWM_S.c ****     *
 764:.\Generated_Source\PSoC5/HC_PWM_S.c ****     *******************************************************************************/
 765:.\Generated_Source\PSoC5/HC_PWM_S.c ****     void HC_PWM_S_WriteControlRegister(uint8 control) 
 766:.\Generated_Source\PSoC5/HC_PWM_S.c ****     {
 590              		.loc 1 766 0
 591              		.cfi_startproc
 592              		@ args = 0, pretend = 0, frame = 8
 593              		@ frame_needed = 1, uses_anonymous_args = 0
 594              		@ link register save eliminated.
 595 0000 80B4     		push	{r7}
 596              		.cfi_def_cfa_offset 4
 597              		.cfi_offset 7, -4
 598 0002 83B0     		sub	sp, sp, #12
 599              		.cfi_def_cfa_offset 16
 600 0004 00AF     		add	r7, sp, #0
 601              		.cfi_def_cfa_register 7
ARM GAS  C:\Users\xavieran\AppData\Local\Temp\cc006O7W.s 			page 25


 602 0006 0346     		mov	r3, r0
 603 0008 FB71     		strb	r3, [r7, #7]
 767:.\Generated_Source\PSoC5/HC_PWM_S.c ****         CY_SET_REG8(HC_PWM_S_CONTROL_PTR, control);
 604              		.loc 1 767 0
 605 000a 044B     		ldr	r3, .L45
 606 000c FA79     		ldrb	r2, [r7, #7]
 607 000e 1A70     		strb	r2, [r3]
 768:.\Generated_Source\PSoC5/HC_PWM_S.c ****     }
 608              		.loc 1 768 0
 609 0010 0C37     		adds	r7, r7, #12
 610 0012 BD46     		mov	sp, r7
 611              		@ sp needed
 612 0014 5DF8047B 		ldr	r7, [sp], #4
 613 0018 7047     		bx	lr
 614              	.L46:
 615 001a 00BF     		.align	2
 616              	.L45:
 617 001c 75650040 		.word	1073767797
 618              		.cfi_endproc
 619              	.LFE13:
 620              		.size	HC_PWM_S_WriteControlRegister, .-HC_PWM_S_WriteControlRegister
 621              		.section	.text.HC_PWM_S_ReadCapture,"ax",%progbits
 622              		.align	2
 623              		.global	HC_PWM_S_ReadCapture
 624              		.thumb
 625              		.thumb_func
 626              		.type	HC_PWM_S_ReadCapture, %function
 627              	HC_PWM_S_ReadCapture:
 628              	.LFB14:
 769:.\Generated_Source\PSoC5/HC_PWM_S.c **** 
 770:.\Generated_Source\PSoC5/HC_PWM_S.c **** #endif /* (HC_PWM_S_UseControl) */
 771:.\Generated_Source\PSoC5/HC_PWM_S.c **** 
 772:.\Generated_Source\PSoC5/HC_PWM_S.c **** 
 773:.\Generated_Source\PSoC5/HC_PWM_S.c **** #if (!HC_PWM_S_UsingFixedFunction)
 774:.\Generated_Source\PSoC5/HC_PWM_S.c **** 
 775:.\Generated_Source\PSoC5/HC_PWM_S.c **** 
 776:.\Generated_Source\PSoC5/HC_PWM_S.c ****     /*******************************************************************************
 777:.\Generated_Source\PSoC5/HC_PWM_S.c ****     * Function Name: HC_PWM_S_ReadCapture
 778:.\Generated_Source\PSoC5/HC_PWM_S.c ****     ********************************************************************************
 779:.\Generated_Source\PSoC5/HC_PWM_S.c ****     *
 780:.\Generated_Source\PSoC5/HC_PWM_S.c ****     * Summary:
 781:.\Generated_Source\PSoC5/HC_PWM_S.c ****     *  Reads the capture value from the capture FIFO.
 782:.\Generated_Source\PSoC5/HC_PWM_S.c ****     *
 783:.\Generated_Source\PSoC5/HC_PWM_S.c ****     * Parameters:
 784:.\Generated_Source\PSoC5/HC_PWM_S.c ****     *  None
 785:.\Generated_Source\PSoC5/HC_PWM_S.c ****     *
 786:.\Generated_Source\PSoC5/HC_PWM_S.c ****     * Return:
 787:.\Generated_Source\PSoC5/HC_PWM_S.c ****     *  uint8/uint16: The current capture value
 788:.\Generated_Source\PSoC5/HC_PWM_S.c ****     *
 789:.\Generated_Source\PSoC5/HC_PWM_S.c ****     *******************************************************************************/
 790:.\Generated_Source\PSoC5/HC_PWM_S.c ****     uint16 HC_PWM_S_ReadCapture(void) 
 791:.\Generated_Source\PSoC5/HC_PWM_S.c ****     {
 629              		.loc 1 791 0
 630              		.cfi_startproc
 631              		@ args = 0, pretend = 0, frame = 0
 632              		@ frame_needed = 1, uses_anonymous_args = 0
 633              		@ link register save eliminated.
ARM GAS  C:\Users\xavieran\AppData\Local\Temp\cc006O7W.s 			page 26


 634 0000 80B4     		push	{r7}
 635              		.cfi_def_cfa_offset 4
 636              		.cfi_offset 7, -4
 637 0002 00AF     		add	r7, sp, #0
 638              		.cfi_def_cfa_register 7
 792:.\Generated_Source\PSoC5/HC_PWM_S.c ****         return (CY_GET_REG16(HC_PWM_S_CAPTURE_LSB_PTR));
 639              		.loc 1 792 0
 640 0004 034B     		ldr	r3, .L49
 641 0006 1B88     		ldrh	r3, [r3]	@ movhi
 642 0008 9BB2     		uxth	r3, r3
 793:.\Generated_Source\PSoC5/HC_PWM_S.c ****     }
 643              		.loc 1 793 0
 644 000a 1846     		mov	r0, r3
 645 000c BD46     		mov	sp, r7
 646              		@ sp needed
 647 000e 5DF8047B 		ldr	r7, [sp], #4
 648 0012 7047     		bx	lr
 649              	.L50:
 650              		.align	2
 651              	.L49:
 652 0014 AC680040 		.word	1073768620
 653              		.cfi_endproc
 654              	.LFE14:
 655              		.size	HC_PWM_S_ReadCapture, .-HC_PWM_S_ReadCapture
 656              		.section	.text.HC_PWM_S_ReadCompare1,"ax",%progbits
 657              		.align	2
 658              		.global	HC_PWM_S_ReadCompare1
 659              		.thumb
 660              		.thumb_func
 661              		.type	HC_PWM_S_ReadCompare1, %function
 662              	HC_PWM_S_ReadCompare1:
 663              	.LFB15:
 794:.\Generated_Source\PSoC5/HC_PWM_S.c **** 
 795:.\Generated_Source\PSoC5/HC_PWM_S.c **** #endif /* (!HC_PWM_S_UsingFixedFunction) */
 796:.\Generated_Source\PSoC5/HC_PWM_S.c **** 
 797:.\Generated_Source\PSoC5/HC_PWM_S.c **** 
 798:.\Generated_Source\PSoC5/HC_PWM_S.c **** #if (HC_PWM_S_UseOneCompareMode)
 799:.\Generated_Source\PSoC5/HC_PWM_S.c **** 
 800:.\Generated_Source\PSoC5/HC_PWM_S.c **** 
 801:.\Generated_Source\PSoC5/HC_PWM_S.c ****     /*******************************************************************************
 802:.\Generated_Source\PSoC5/HC_PWM_S.c ****     * Function Name: HC_PWM_S_ReadCompare
 803:.\Generated_Source\PSoC5/HC_PWM_S.c ****     ********************************************************************************
 804:.\Generated_Source\PSoC5/HC_PWM_S.c ****     *
 805:.\Generated_Source\PSoC5/HC_PWM_S.c ****     * Summary:
 806:.\Generated_Source\PSoC5/HC_PWM_S.c ****     *  Reads the compare value for the compare output when the PWM Mode parameter is
 807:.\Generated_Source\PSoC5/HC_PWM_S.c ****     *  set to Dither mode, Center Aligned mode, or One Output mode.
 808:.\Generated_Source\PSoC5/HC_PWM_S.c ****     *
 809:.\Generated_Source\PSoC5/HC_PWM_S.c ****     * Parameters:
 810:.\Generated_Source\PSoC5/HC_PWM_S.c ****     *  None
 811:.\Generated_Source\PSoC5/HC_PWM_S.c ****     *
 812:.\Generated_Source\PSoC5/HC_PWM_S.c ****     * Return:
 813:.\Generated_Source\PSoC5/HC_PWM_S.c ****     *  uint8/uint16: Current compare value
 814:.\Generated_Source\PSoC5/HC_PWM_S.c ****     *
 815:.\Generated_Source\PSoC5/HC_PWM_S.c ****     *******************************************************************************/
 816:.\Generated_Source\PSoC5/HC_PWM_S.c ****     uint16 HC_PWM_S_ReadCompare(void) 
 817:.\Generated_Source\PSoC5/HC_PWM_S.c ****     {
 818:.\Generated_Source\PSoC5/HC_PWM_S.c ****         #if(HC_PWM_S_UsingFixedFunction)
ARM GAS  C:\Users\xavieran\AppData\Local\Temp\cc006O7W.s 			page 27


 819:.\Generated_Source\PSoC5/HC_PWM_S.c ****             return ((uint16)CY_GET_REG16(HC_PWM_S_COMPARE1_LSB_PTR));
 820:.\Generated_Source\PSoC5/HC_PWM_S.c ****         #else
 821:.\Generated_Source\PSoC5/HC_PWM_S.c ****             return (CY_GET_REG16(HC_PWM_S_COMPARE1_LSB_PTR));
 822:.\Generated_Source\PSoC5/HC_PWM_S.c ****         #endif /* (HC_PWM_S_UsingFixedFunction) */
 823:.\Generated_Source\PSoC5/HC_PWM_S.c ****     }
 824:.\Generated_Source\PSoC5/HC_PWM_S.c **** 
 825:.\Generated_Source\PSoC5/HC_PWM_S.c **** #else
 826:.\Generated_Source\PSoC5/HC_PWM_S.c **** 
 827:.\Generated_Source\PSoC5/HC_PWM_S.c **** 
 828:.\Generated_Source\PSoC5/HC_PWM_S.c ****     /*******************************************************************************
 829:.\Generated_Source\PSoC5/HC_PWM_S.c ****     * Function Name: HC_PWM_S_ReadCompare1
 830:.\Generated_Source\PSoC5/HC_PWM_S.c ****     ********************************************************************************
 831:.\Generated_Source\PSoC5/HC_PWM_S.c ****     *
 832:.\Generated_Source\PSoC5/HC_PWM_S.c ****     * Summary:
 833:.\Generated_Source\PSoC5/HC_PWM_S.c ****     *  Reads the compare value for the compare1 output.
 834:.\Generated_Source\PSoC5/HC_PWM_S.c ****     *
 835:.\Generated_Source\PSoC5/HC_PWM_S.c ****     * Parameters:
 836:.\Generated_Source\PSoC5/HC_PWM_S.c ****     *  None
 837:.\Generated_Source\PSoC5/HC_PWM_S.c ****     *
 838:.\Generated_Source\PSoC5/HC_PWM_S.c ****     * Return:
 839:.\Generated_Source\PSoC5/HC_PWM_S.c ****     *  uint8/uint16: Current compare value.
 840:.\Generated_Source\PSoC5/HC_PWM_S.c ****     *
 841:.\Generated_Source\PSoC5/HC_PWM_S.c ****     *******************************************************************************/
 842:.\Generated_Source\PSoC5/HC_PWM_S.c ****     uint16 HC_PWM_S_ReadCompare1(void) 
 843:.\Generated_Source\PSoC5/HC_PWM_S.c ****     {
 664              		.loc 1 843 0
 665              		.cfi_startproc
 666              		@ args = 0, pretend = 0, frame = 0
 667              		@ frame_needed = 1, uses_anonymous_args = 0
 668              		@ link register save eliminated.
 669 0000 80B4     		push	{r7}
 670              		.cfi_def_cfa_offset 4
 671              		.cfi_offset 7, -4
 672 0002 00AF     		add	r7, sp, #0
 673              		.cfi_def_cfa_register 7
 844:.\Generated_Source\PSoC5/HC_PWM_S.c ****         return (CY_GET_REG16(HC_PWM_S_COMPARE1_LSB_PTR));
 674              		.loc 1 844 0
 675 0004 034B     		ldr	r3, .L53
 676 0006 1B88     		ldrh	r3, [r3]	@ movhi
 677 0008 9BB2     		uxth	r3, r3
 845:.\Generated_Source\PSoC5/HC_PWM_S.c ****     }
 678              		.loc 1 845 0
 679 000a 1846     		mov	r0, r3
 680 000c BD46     		mov	sp, r7
 681              		@ sp needed
 682 000e 5DF8047B 		ldr	r7, [sp], #4
 683 0012 7047     		bx	lr
 684              	.L54:
 685              		.align	2
 686              	.L53:
 687 0014 4C680040 		.word	1073768524
 688              		.cfi_endproc
 689              	.LFE15:
 690              		.size	HC_PWM_S_ReadCompare1, .-HC_PWM_S_ReadCompare1
 691              		.section	.text.HC_PWM_S_ReadCompare2,"ax",%progbits
 692              		.align	2
 693              		.global	HC_PWM_S_ReadCompare2
ARM GAS  C:\Users\xavieran\AppData\Local\Temp\cc006O7W.s 			page 28


 694              		.thumb
 695              		.thumb_func
 696              		.type	HC_PWM_S_ReadCompare2, %function
 697              	HC_PWM_S_ReadCompare2:
 698              	.LFB16:
 846:.\Generated_Source\PSoC5/HC_PWM_S.c **** 
 847:.\Generated_Source\PSoC5/HC_PWM_S.c **** 
 848:.\Generated_Source\PSoC5/HC_PWM_S.c ****     /*******************************************************************************
 849:.\Generated_Source\PSoC5/HC_PWM_S.c ****     * Function Name: HC_PWM_S_ReadCompare2
 850:.\Generated_Source\PSoC5/HC_PWM_S.c ****     ********************************************************************************
 851:.\Generated_Source\PSoC5/HC_PWM_S.c ****     *
 852:.\Generated_Source\PSoC5/HC_PWM_S.c ****     * Summary:
 853:.\Generated_Source\PSoC5/HC_PWM_S.c ****     *  Reads the compare value for the compare2 output.
 854:.\Generated_Source\PSoC5/HC_PWM_S.c ****     *
 855:.\Generated_Source\PSoC5/HC_PWM_S.c ****     * Parameters:
 856:.\Generated_Source\PSoC5/HC_PWM_S.c ****     *  None
 857:.\Generated_Source\PSoC5/HC_PWM_S.c ****     *
 858:.\Generated_Source\PSoC5/HC_PWM_S.c ****     * Return:
 859:.\Generated_Source\PSoC5/HC_PWM_S.c ****     *  uint8/uint16: Current compare value.
 860:.\Generated_Source\PSoC5/HC_PWM_S.c ****     *
 861:.\Generated_Source\PSoC5/HC_PWM_S.c ****     *******************************************************************************/
 862:.\Generated_Source\PSoC5/HC_PWM_S.c ****     uint16 HC_PWM_S_ReadCompare2(void) 
 863:.\Generated_Source\PSoC5/HC_PWM_S.c ****     {
 699              		.loc 1 863 0
 700              		.cfi_startproc
 701              		@ args = 0, pretend = 0, frame = 0
 702              		@ frame_needed = 1, uses_anonymous_args = 0
 703              		@ link register save eliminated.
 704 0000 80B4     		push	{r7}
 705              		.cfi_def_cfa_offset 4
 706              		.cfi_offset 7, -4
 707 0002 00AF     		add	r7, sp, #0
 708              		.cfi_def_cfa_register 7
 864:.\Generated_Source\PSoC5/HC_PWM_S.c ****         return (CY_GET_REG16(HC_PWM_S_COMPARE2_LSB_PTR));
 709              		.loc 1 864 0
 710 0004 034B     		ldr	r3, .L57
 711 0006 1B88     		ldrh	r3, [r3]	@ movhi
 712 0008 9BB2     		uxth	r3, r3
 865:.\Generated_Source\PSoC5/HC_PWM_S.c ****     }
 713              		.loc 1 865 0
 714 000a 1846     		mov	r0, r3
 715 000c BD46     		mov	sp, r7
 716              		@ sp needed
 717 000e 5DF8047B 		ldr	r7, [sp], #4
 718 0012 7047     		bx	lr
 719              	.L58:
 720              		.align	2
 721              	.L57:
 722 0014 6C680040 		.word	1073768556
 723              		.cfi_endproc
 724              	.LFE16:
 725              		.size	HC_PWM_S_ReadCompare2, .-HC_PWM_S_ReadCompare2
 726              		.section	.text.HC_PWM_S_ReadPeriod,"ax",%progbits
 727              		.align	2
 728              		.global	HC_PWM_S_ReadPeriod
 729              		.thumb
 730              		.thumb_func
ARM GAS  C:\Users\xavieran\AppData\Local\Temp\cc006O7W.s 			page 29


 731              		.type	HC_PWM_S_ReadPeriod, %function
 732              	HC_PWM_S_ReadPeriod:
 733              	.LFB17:
 866:.\Generated_Source\PSoC5/HC_PWM_S.c **** 
 867:.\Generated_Source\PSoC5/HC_PWM_S.c **** #endif /* (HC_PWM_S_UseOneCompareMode) */
 868:.\Generated_Source\PSoC5/HC_PWM_S.c **** 
 869:.\Generated_Source\PSoC5/HC_PWM_S.c **** 
 870:.\Generated_Source\PSoC5/HC_PWM_S.c **** /*******************************************************************************
 871:.\Generated_Source\PSoC5/HC_PWM_S.c **** * Function Name: HC_PWM_S_ReadPeriod
 872:.\Generated_Source\PSoC5/HC_PWM_S.c **** ********************************************************************************
 873:.\Generated_Source\PSoC5/HC_PWM_S.c **** *
 874:.\Generated_Source\PSoC5/HC_PWM_S.c **** * Summary:
 875:.\Generated_Source\PSoC5/HC_PWM_S.c **** *  Reads the period value used by the PWM hardware.
 876:.\Generated_Source\PSoC5/HC_PWM_S.c **** *
 877:.\Generated_Source\PSoC5/HC_PWM_S.c **** * Parameters:
 878:.\Generated_Source\PSoC5/HC_PWM_S.c **** *  None
 879:.\Generated_Source\PSoC5/HC_PWM_S.c **** *
 880:.\Generated_Source\PSoC5/HC_PWM_S.c **** * Return:
 881:.\Generated_Source\PSoC5/HC_PWM_S.c **** *  uint8/16: Period value
 882:.\Generated_Source\PSoC5/HC_PWM_S.c **** *
 883:.\Generated_Source\PSoC5/HC_PWM_S.c **** *******************************************************************************/
 884:.\Generated_Source\PSoC5/HC_PWM_S.c **** uint16 HC_PWM_S_ReadPeriod(void) 
 885:.\Generated_Source\PSoC5/HC_PWM_S.c **** {
 734              		.loc 1 885 0
 735              		.cfi_startproc
 736              		@ args = 0, pretend = 0, frame = 0
 737              		@ frame_needed = 1, uses_anonymous_args = 0
 738              		@ link register save eliminated.
 739 0000 80B4     		push	{r7}
 740              		.cfi_def_cfa_offset 4
 741              		.cfi_offset 7, -4
 742 0002 00AF     		add	r7, sp, #0
 743              		.cfi_def_cfa_register 7
 886:.\Generated_Source\PSoC5/HC_PWM_S.c ****     #if(HC_PWM_S_UsingFixedFunction)
 887:.\Generated_Source\PSoC5/HC_PWM_S.c ****         return ((uint16)CY_GET_REG16(HC_PWM_S_PERIOD_LSB_PTR));
 888:.\Generated_Source\PSoC5/HC_PWM_S.c ****     #else
 889:.\Generated_Source\PSoC5/HC_PWM_S.c ****         return (CY_GET_REG16(HC_PWM_S_PERIOD_LSB_PTR));
 744              		.loc 1 889 0
 745 0004 034B     		ldr	r3, .L61
 746 0006 1B88     		ldrh	r3, [r3]	@ movhi
 747 0008 9BB2     		uxth	r3, r3
 890:.\Generated_Source\PSoC5/HC_PWM_S.c ****     #endif /* (HC_PWM_S_UsingFixedFunction) */
 891:.\Generated_Source\PSoC5/HC_PWM_S.c **** }
 748              		.loc 1 891 0
 749 000a 1846     		mov	r0, r3
 750 000c BD46     		mov	sp, r7
 751              		@ sp needed
 752 000e 5DF8047B 		ldr	r7, [sp], #4
 753 0012 7047     		bx	lr
 754              	.L62:
 755              		.align	2
 756              	.L61:
 757 0014 8C680040 		.word	1073768588
 758              		.cfi_endproc
 759              	.LFE17:
 760              		.size	HC_PWM_S_ReadPeriod, .-HC_PWM_S_ReadPeriod
 761              		.text
ARM GAS  C:\Users\xavieran\AppData\Local\Temp\cc006O7W.s 			page 30


 762              	.Letext0:
 763              		.file 2 ".\\Generated_Source\\PSoC5\\cytypes.h"