ARM GAS  C:\Users\xavieran\AppData\Local\Temp\ccMErrRv.s 			page 1


   1              		.syntax unified
   2              		.cpu cortex-m3
   3              		.fpu softvfp
   4              		.eabi_attribute 20, 1
   5              		.eabi_attribute 21, 1
   6              		.eabi_attribute 23, 3
   7              		.eabi_attribute 24, 1
   8              		.eabi_attribute 25, 1
   9              		.eabi_attribute 26, 1
  10              		.eabi_attribute 30, 6
  11              		.eabi_attribute 34, 1
  12              		.eabi_attribute 18, 4
  13              		.thumb
  14              		.file	"I2C.c"
  15              		.text
  16              	.Ltext0:
  17              		.cfi_sections	.debug_frame
  18              		.global	I2C_initVar
  19              		.bss
  20              		.type	I2C_initVar, %object
  21              		.size	I2C_initVar, 1
  22              	I2C_initVar:
  23 0000 00       		.space	1
  24              		.comm	I2C_state,1,1
  25              		.section	.text.I2C_Init,"ax",%progbits
  26              		.align	2
  27              		.global	I2C_Init
  28              		.thumb
  29              		.thumb_func
  30              		.type	I2C_Init, %function
  31              	I2C_Init:
  32              	.LFB0:
  33              		.file 1 ".\\Generated_Source\\PSoC5\\I2C.c"
   1:.\Generated_Source\PSoC5/I2C.c **** /*******************************************************************************
   2:.\Generated_Source\PSoC5/I2C.c **** * File Name: I2C.c
   3:.\Generated_Source\PSoC5/I2C.c **** * Version 3.50
   4:.\Generated_Source\PSoC5/I2C.c **** *
   5:.\Generated_Source\PSoC5/I2C.c **** * Description:
   6:.\Generated_Source\PSoC5/I2C.c **** *  This file provides the source code of APIs for the I2C component.
   7:.\Generated_Source\PSoC5/I2C.c **** *  The actual protocol and operation code resides in the interrupt service
   8:.\Generated_Source\PSoC5/I2C.c **** *  routine file.
   9:.\Generated_Source\PSoC5/I2C.c **** *
  10:.\Generated_Source\PSoC5/I2C.c **** *******************************************************************************
  11:.\Generated_Source\PSoC5/I2C.c **** * Copyright 2008-2015, Cypress Semiconductor Corporation. All rights reserved.
  12:.\Generated_Source\PSoC5/I2C.c **** * You may use this file only in accordance with the license, terms, conditions,
  13:.\Generated_Source\PSoC5/I2C.c **** * disclaimers, and limitations in the end user license agreement accompanying
  14:.\Generated_Source\PSoC5/I2C.c **** * the software package with which this file was provided.
  15:.\Generated_Source\PSoC5/I2C.c **** *******************************************************************************/
  16:.\Generated_Source\PSoC5/I2C.c **** 
  17:.\Generated_Source\PSoC5/I2C.c **** #include "I2C_PVT.h"
  18:.\Generated_Source\PSoC5/I2C.c **** 
  19:.\Generated_Source\PSoC5/I2C.c **** 
  20:.\Generated_Source\PSoC5/I2C.c **** /**********************************
  21:.\Generated_Source\PSoC5/I2C.c **** *      System variables
  22:.\Generated_Source\PSoC5/I2C.c **** **********************************/
  23:.\Generated_Source\PSoC5/I2C.c **** 
  24:.\Generated_Source\PSoC5/I2C.c **** uint8 I2C_initVar = 0u; /* Defines if component was initialized */
ARM GAS  C:\Users\xavieran\AppData\Local\Temp\ccMErrRv.s 			page 2


  25:.\Generated_Source\PSoC5/I2C.c **** 
  26:.\Generated_Source\PSoC5/I2C.c **** volatile uint8 I2C_state;  /* Current state of I2C FSM */
  27:.\Generated_Source\PSoC5/I2C.c **** 
  28:.\Generated_Source\PSoC5/I2C.c **** 
  29:.\Generated_Source\PSoC5/I2C.c **** /*******************************************************************************
  30:.\Generated_Source\PSoC5/I2C.c **** * Function Name: I2C_Init
  31:.\Generated_Source\PSoC5/I2C.c **** ********************************************************************************
  32:.\Generated_Source\PSoC5/I2C.c **** *
  33:.\Generated_Source\PSoC5/I2C.c **** * Summary:
  34:.\Generated_Source\PSoC5/I2C.c **** *  Initializes I2C registers with initial values provided from customizer.
  35:.\Generated_Source\PSoC5/I2C.c **** *
  36:.\Generated_Source\PSoC5/I2C.c **** * Parameters:
  37:.\Generated_Source\PSoC5/I2C.c **** *  None.
  38:.\Generated_Source\PSoC5/I2C.c **** *
  39:.\Generated_Source\PSoC5/I2C.c **** * Return:
  40:.\Generated_Source\PSoC5/I2C.c **** *  None.
  41:.\Generated_Source\PSoC5/I2C.c **** *
  42:.\Generated_Source\PSoC5/I2C.c **** * Global variables:
  43:.\Generated_Source\PSoC5/I2C.c **** *  None.
  44:.\Generated_Source\PSoC5/I2C.c **** *
  45:.\Generated_Source\PSoC5/I2C.c **** * Reentrant:
  46:.\Generated_Source\PSoC5/I2C.c **** *  No.
  47:.\Generated_Source\PSoC5/I2C.c **** *
  48:.\Generated_Source\PSoC5/I2C.c **** *******************************************************************************/
  49:.\Generated_Source\PSoC5/I2C.c **** void I2C_Init(void) 
  50:.\Generated_Source\PSoC5/I2C.c **** {
  34              		.loc 1 50 0
  35              		.cfi_startproc
  36              		@ args = 0, pretend = 0, frame = 8
  37              		@ frame_needed = 1, uses_anonymous_args = 0
  38 0000 80B5     		push	{r7, lr}
  39              		.cfi_def_cfa_offset 8
  40              		.cfi_offset 7, -8
  41              		.cfi_offset 14, -4
  42 0002 82B0     		sub	sp, sp, #8
  43              		.cfi_def_cfa_offset 16
  44 0004 00AF     		add	r7, sp, #0
  45              		.cfi_def_cfa_register 7
  51:.\Generated_Source\PSoC5/I2C.c **** #if (I2C_FF_IMPLEMENTED)
  52:.\Generated_Source\PSoC5/I2C.c ****     /* Configure fixed function block */
  53:.\Generated_Source\PSoC5/I2C.c ****     I2C_CFG_REG  = I2C_DEFAULT_CFG;
  54:.\Generated_Source\PSoC5/I2C.c ****     I2C_XCFG_REG = I2C_DEFAULT_XCFG;
  55:.\Generated_Source\PSoC5/I2C.c ****     I2C_ADDR_REG = I2C_DEFAULT_ADDR;
  56:.\Generated_Source\PSoC5/I2C.c ****     I2C_CLKDIV1_REG = LO8(I2C_DEFAULT_DIVIDE_FACTOR);
  57:.\Generated_Source\PSoC5/I2C.c ****     I2C_CLKDIV2_REG = HI8(I2C_DEFAULT_DIVIDE_FACTOR);
  58:.\Generated_Source\PSoC5/I2C.c **** 
  59:.\Generated_Source\PSoC5/I2C.c **** #else
  60:.\Generated_Source\PSoC5/I2C.c ****     uint8 intState;
  61:.\Generated_Source\PSoC5/I2C.c **** 
  62:.\Generated_Source\PSoC5/I2C.c ****     /* Configure control and interrupt sources */
  63:.\Generated_Source\PSoC5/I2C.c ****     I2C_CFG_REG      = I2C_DEFAULT_CFG;
  46              		.loc 1 63 0
  47 0006 1B4B     		ldr	r3, .L2
  48 0008 0022     		movs	r2, #0
  49 000a 1A70     		strb	r2, [r3]
  64:.\Generated_Source\PSoC5/I2C.c ****     I2C_INT_MASK_REG = I2C_DEFAULT_INT_MASK;
  50              		.loc 1 64 0
ARM GAS  C:\Users\xavieran\AppData\Local\Temp\ccMErrRv.s 			page 3


  51 000c 1A4B     		ldr	r3, .L2+4
  52 000e 0122     		movs	r2, #1
  53 0010 1A70     		strb	r2, [r3]
  65:.\Generated_Source\PSoC5/I2C.c **** 
  66:.\Generated_Source\PSoC5/I2C.c ****     /* Enable interrupt generation in status */
  67:.\Generated_Source\PSoC5/I2C.c ****     intState = CyEnterCriticalSection();
  54              		.loc 1 67 0
  55 0012 FFF7FEFF 		bl	CyEnterCriticalSection
  56 0016 0346     		mov	r3, r0
  57 0018 FB71     		strb	r3, [r7, #7]
  68:.\Generated_Source\PSoC5/I2C.c ****     I2C_INT_ENABLE_REG |= I2C_INTR_ENABLE;
  58              		.loc 1 68 0
  59 001a 184B     		ldr	r3, .L2+8
  60 001c 174A     		ldr	r2, .L2+8
  61 001e 1278     		ldrb	r2, [r2]
  62 0020 D2B2     		uxtb	r2, r2
  63 0022 42F01002 		orr	r2, r2, #16
  64 0026 D2B2     		uxtb	r2, r2
  65 0028 1A70     		strb	r2, [r3]
  69:.\Generated_Source\PSoC5/I2C.c ****     CyExitCriticalSection(intState);
  66              		.loc 1 69 0
  67 002a FB79     		ldrb	r3, [r7, #7]	@ zero_extendqisi2
  68 002c 1846     		mov	r0, r3
  69 002e FFF7FEFF 		bl	CyExitCriticalSection
  70:.\Generated_Source\PSoC5/I2C.c **** 
  71:.\Generated_Source\PSoC5/I2C.c ****     /* Configure bit counter */
  72:.\Generated_Source\PSoC5/I2C.c ****     #if (I2C_MODE_SLAVE_ENABLED)
  73:.\Generated_Source\PSoC5/I2C.c ****         I2C_PERIOD_REG = I2C_DEFAULT_PERIOD;
  74:.\Generated_Source\PSoC5/I2C.c ****     #endif  /* (I2C_MODE_SLAVE_ENABLED) */
  75:.\Generated_Source\PSoC5/I2C.c **** 
  76:.\Generated_Source\PSoC5/I2C.c ****     /* Configure clock generator */
  77:.\Generated_Source\PSoC5/I2C.c ****     #if (I2C_MODE_MASTER_ENABLED)
  78:.\Generated_Source\PSoC5/I2C.c ****         I2C_MCLK_PRD_REG = I2C_DEFAULT_MCLK_PRD;
  70              		.loc 1 78 0
  71 0032 134B     		ldr	r3, .L2+12
  72 0034 0F22     		movs	r2, #15
  73 0036 1A70     		strb	r2, [r3]
  79:.\Generated_Source\PSoC5/I2C.c ****         I2C_MCLK_CMP_REG = I2C_DEFAULT_MCLK_CMP;
  74              		.loc 1 79 0
  75 0038 124B     		ldr	r3, .L2+16
  76 003a 0822     		movs	r2, #8
  77 003c 1A70     		strb	r2, [r3]
  80:.\Generated_Source\PSoC5/I2C.c ****     #endif /* (I2C_MODE_MASTER_ENABLED) */
  81:.\Generated_Source\PSoC5/I2C.c **** #endif /* (I2C_FF_IMPLEMENTED) */
  82:.\Generated_Source\PSoC5/I2C.c **** 
  83:.\Generated_Source\PSoC5/I2C.c **** #if (I2C_TIMEOUT_ENABLED)
  84:.\Generated_Source\PSoC5/I2C.c ****     I2C_TimeoutInit();
  85:.\Generated_Source\PSoC5/I2C.c **** #endif /* (I2C_TIMEOUT_ENABLED) */
  86:.\Generated_Source\PSoC5/I2C.c **** 
  87:.\Generated_Source\PSoC5/I2C.c ****     /* Configure internal interrupt */
  88:.\Generated_Source\PSoC5/I2C.c ****     CyIntDisable    (I2C_ISR_NUMBER);
  78              		.loc 1 88 0
  79 003e 124B     		ldr	r3, .L2+20
  80 0040 1022     		movs	r2, #16
  81 0042 1A60     		str	r2, [r3]
  89:.\Generated_Source\PSoC5/I2C.c ****     CyIntSetPriority(I2C_ISR_NUMBER, I2C_ISR_PRIORITY);
  82              		.loc 1 89 0
ARM GAS  C:\Users\xavieran\AppData\Local\Temp\ccMErrRv.s 			page 4


  83 0044 0420     		movs	r0, #4
  84 0046 0721     		movs	r1, #7
  85 0048 FFF7FEFF 		bl	CyIntSetPriority
  90:.\Generated_Source\PSoC5/I2C.c ****     #if (I2C_INTERN_I2C_INTR_HANDLER)
  91:.\Generated_Source\PSoC5/I2C.c ****         (void) CyIntSetVector(I2C_ISR_NUMBER, &I2C_ISR);
  86              		.loc 1 91 0
  87 004c 0420     		movs	r0, #4
  88 004e 0F49     		ldr	r1, .L2+24
  89 0050 FFF7FEFF 		bl	CyIntSetVector
  92:.\Generated_Source\PSoC5/I2C.c ****     #endif /* (I2C_INTERN_I2C_INTR_HANDLER) */
  93:.\Generated_Source\PSoC5/I2C.c **** 
  94:.\Generated_Source\PSoC5/I2C.c ****     /* Set FSM to default state */
  95:.\Generated_Source\PSoC5/I2C.c ****     I2C_state = I2C_SM_IDLE;
  90              		.loc 1 95 0
  91 0054 0E4B     		ldr	r3, .L2+28
  92 0056 1022     		movs	r2, #16
  93 0058 1A70     		strb	r2, [r3]
  96:.\Generated_Source\PSoC5/I2C.c **** 
  97:.\Generated_Source\PSoC5/I2C.c **** #if (I2C_MODE_SLAVE_ENABLED)
  98:.\Generated_Source\PSoC5/I2C.c ****     /* Clear status and buffers index */
  99:.\Generated_Source\PSoC5/I2C.c ****     I2C_slStatus = 0u;
 100:.\Generated_Source\PSoC5/I2C.c ****     I2C_slRdBufIndex = 0u;
 101:.\Generated_Source\PSoC5/I2C.c ****     I2C_slWrBufIndex = 0u;
 102:.\Generated_Source\PSoC5/I2C.c **** 
 103:.\Generated_Source\PSoC5/I2C.c ****     /* Configure matched address */
 104:.\Generated_Source\PSoC5/I2C.c ****     I2C_SlaveSetAddress(I2C_DEFAULT_ADDR);
 105:.\Generated_Source\PSoC5/I2C.c **** #endif /* (I2C_MODE_SLAVE_ENABLED) */
 106:.\Generated_Source\PSoC5/I2C.c **** 
 107:.\Generated_Source\PSoC5/I2C.c **** #if (I2C_MODE_MASTER_ENABLED)
 108:.\Generated_Source\PSoC5/I2C.c ****     /* Clear status and buffers index */
 109:.\Generated_Source\PSoC5/I2C.c ****     I2C_mstrStatus = 0u;
  94              		.loc 1 109 0
  95 005a 0E4B     		ldr	r3, .L2+32
  96 005c 0022     		movs	r2, #0
  97 005e 1A70     		strb	r2, [r3]
 110:.\Generated_Source\PSoC5/I2C.c ****     I2C_mstrRdBufIndex = 0u;
  98              		.loc 1 110 0
  99 0060 0D4B     		ldr	r3, .L2+36
 100 0062 0022     		movs	r2, #0
 101 0064 1A70     		strb	r2, [r3]
 111:.\Generated_Source\PSoC5/I2C.c ****     I2C_mstrWrBufIndex = 0u;
 102              		.loc 1 111 0
 103 0066 0D4B     		ldr	r3, .L2+40
 104 0068 0022     		movs	r2, #0
 105 006a 1A70     		strb	r2, [r3]
 112:.\Generated_Source\PSoC5/I2C.c **** #endif /* (I2C_MODE_MASTER_ENABLED) */
 113:.\Generated_Source\PSoC5/I2C.c **** }
 106              		.loc 1 113 0
 107 006c 0837     		adds	r7, r7, #8
 108 006e BD46     		mov	sp, r7
 109              		@ sp needed
 110 0070 80BD     		pop	{r7, pc}
 111              	.L3:
 112 0072 00BF     		.align	2
 113              	.L2:
 114 0074 73640040 		.word	1073767539
 115 0078 8B640040 		.word	1073767563
ARM GAS  C:\Users\xavieran\AppData\Local\Temp\ccMErrRv.s 			page 5


 116 007c 9B640040 		.word	1073767579
 117 0080 2B650040 		.word	1073767723
 118 0084 3B650040 		.word	1073767739
 119 0088 80E100E0 		.word	-536813184
 120 008c 00000000 		.word	I2C_ISR
 121 0090 00000000 		.word	I2C_state
 122 0094 00000000 		.word	I2C_mstrStatus
 123 0098 00000000 		.word	I2C_mstrRdBufIndex
 124 009c 00000000 		.word	I2C_mstrWrBufIndex
 125              		.cfi_endproc
 126              	.LFE0:
 127              		.size	I2C_Init, .-I2C_Init
 128              		.section	.text.I2C_Enable,"ax",%progbits
 129              		.align	2
 130              		.global	I2C_Enable
 131              		.thumb
 132              		.thumb_func
 133              		.type	I2C_Enable, %function
 134              	I2C_Enable:
 135              	.LFB1:
 114:.\Generated_Source\PSoC5/I2C.c **** 
 115:.\Generated_Source\PSoC5/I2C.c **** 
 116:.\Generated_Source\PSoC5/I2C.c **** /*******************************************************************************
 117:.\Generated_Source\PSoC5/I2C.c **** * Function Name: I2C_Enable
 118:.\Generated_Source\PSoC5/I2C.c **** ********************************************************************************
 119:.\Generated_Source\PSoC5/I2C.c **** *
 120:.\Generated_Source\PSoC5/I2C.c **** * Summary:
 121:.\Generated_Source\PSoC5/I2C.c **** *  Enables I2C operations.
 122:.\Generated_Source\PSoC5/I2C.c **** *
 123:.\Generated_Source\PSoC5/I2C.c **** * Parameters:
 124:.\Generated_Source\PSoC5/I2C.c **** *  None.
 125:.\Generated_Source\PSoC5/I2C.c **** *
 126:.\Generated_Source\PSoC5/I2C.c **** * Return:
 127:.\Generated_Source\PSoC5/I2C.c **** *  None.
 128:.\Generated_Source\PSoC5/I2C.c **** *
 129:.\Generated_Source\PSoC5/I2C.c **** * Global variables:
 130:.\Generated_Source\PSoC5/I2C.c **** *  None.
 131:.\Generated_Source\PSoC5/I2C.c **** *
 132:.\Generated_Source\PSoC5/I2C.c **** *******************************************************************************/
 133:.\Generated_Source\PSoC5/I2C.c **** void I2C_Enable(void) 
 134:.\Generated_Source\PSoC5/I2C.c **** {
 136              		.loc 1 134 0
 137              		.cfi_startproc
 138              		@ args = 0, pretend = 0, frame = 0
 139              		@ frame_needed = 1, uses_anonymous_args = 0
 140              		@ link register save eliminated.
 141 0000 80B4     		push	{r7}
 142              		.cfi_def_cfa_offset 4
 143              		.cfi_offset 7, -4
 144 0002 00AF     		add	r7, sp, #0
 145              		.cfi_def_cfa_register 7
 135:.\Generated_Source\PSoC5/I2C.c **** #if (I2C_FF_IMPLEMENTED)
 136:.\Generated_Source\PSoC5/I2C.c ****     uint8 intState;
 137:.\Generated_Source\PSoC5/I2C.c **** 
 138:.\Generated_Source\PSoC5/I2C.c ****     /* Enable power to block */
 139:.\Generated_Source\PSoC5/I2C.c ****     intState = CyEnterCriticalSection();
 140:.\Generated_Source\PSoC5/I2C.c ****     I2C_ACT_PWRMGR_REG  |= I2C_ACT_PWR_EN;
ARM GAS  C:\Users\xavieran\AppData\Local\Temp\ccMErrRv.s 			page 6


 141:.\Generated_Source\PSoC5/I2C.c ****     I2C_STBY_PWRMGR_REG |= I2C_STBY_PWR_EN;
 142:.\Generated_Source\PSoC5/I2C.c ****     CyExitCriticalSection(intState);
 143:.\Generated_Source\PSoC5/I2C.c **** #else
 144:.\Generated_Source\PSoC5/I2C.c ****     #if (I2C_MODE_SLAVE_ENABLED)
 145:.\Generated_Source\PSoC5/I2C.c ****         /* Enable bit counter */
 146:.\Generated_Source\PSoC5/I2C.c ****         uint8 intState = CyEnterCriticalSection();
 147:.\Generated_Source\PSoC5/I2C.c ****         I2C_COUNTER_AUX_CTL_REG |= I2C_CNT7_ENABLE;
 148:.\Generated_Source\PSoC5/I2C.c ****         CyExitCriticalSection(intState);
 149:.\Generated_Source\PSoC5/I2C.c ****     #endif /* (I2C_MODE_SLAVE_ENABLED) */
 150:.\Generated_Source\PSoC5/I2C.c **** 
 151:.\Generated_Source\PSoC5/I2C.c ****     /* Enable slave or master bits */
 152:.\Generated_Source\PSoC5/I2C.c ****     I2C_CFG_REG |= I2C_ENABLE_MS;
 146              		.loc 1 152 0
 147 0004 054B     		ldr	r3, .L5
 148 0006 054A     		ldr	r2, .L5
 149 0008 1278     		ldrb	r2, [r2]
 150 000a D2B2     		uxtb	r2, r2
 151 000c 42F00202 		orr	r2, r2, #2
 152 0010 D2B2     		uxtb	r2, r2
 153 0012 1A70     		strb	r2, [r3]
 153:.\Generated_Source\PSoC5/I2C.c **** #endif /* (I2C_FF_IMPLEMENTED) */
 154:.\Generated_Source\PSoC5/I2C.c **** 
 155:.\Generated_Source\PSoC5/I2C.c **** #if (I2C_TIMEOUT_ENABLED)
 156:.\Generated_Source\PSoC5/I2C.c ****     I2C_TimeoutEnable();
 157:.\Generated_Source\PSoC5/I2C.c **** #endif /* (I2C_TIMEOUT_ENABLED) */
 158:.\Generated_Source\PSoC5/I2C.c **** }
 154              		.loc 1 158 0
 155 0014 BD46     		mov	sp, r7
 156              		@ sp needed
 157 0016 5DF8047B 		ldr	r7, [sp], #4
 158 001a 7047     		bx	lr
 159              	.L6:
 160              		.align	2
 161              	.L5:
 162 001c 73640040 		.word	1073767539
 163              		.cfi_endproc
 164              	.LFE1:
 165              		.size	I2C_Enable, .-I2C_Enable
 166              		.section	.text.I2C_Start,"ax",%progbits
 167              		.align	2
 168              		.global	I2C_Start
 169              		.thumb
 170              		.thumb_func
 171              		.type	I2C_Start, %function
 172              	I2C_Start:
 173              	.LFB2:
 159:.\Generated_Source\PSoC5/I2C.c **** 
 160:.\Generated_Source\PSoC5/I2C.c **** 
 161:.\Generated_Source\PSoC5/I2C.c **** /*******************************************************************************
 162:.\Generated_Source\PSoC5/I2C.c **** * Function Name: I2C_Start
 163:.\Generated_Source\PSoC5/I2C.c **** ********************************************************************************
 164:.\Generated_Source\PSoC5/I2C.c **** *
 165:.\Generated_Source\PSoC5/I2C.c **** * Summary:
 166:.\Generated_Source\PSoC5/I2C.c **** *  Starts the I2C hardware. Enables Active mode power template bits or clock
 167:.\Generated_Source\PSoC5/I2C.c **** *  gating as appropriate. It is required to be executed before I2C bus
 168:.\Generated_Source\PSoC5/I2C.c **** *  operation.
 169:.\Generated_Source\PSoC5/I2C.c **** *
ARM GAS  C:\Users\xavieran\AppData\Local\Temp\ccMErrRv.s 			page 7


 170:.\Generated_Source\PSoC5/I2C.c **** * Parameters:
 171:.\Generated_Source\PSoC5/I2C.c **** *  None.
 172:.\Generated_Source\PSoC5/I2C.c **** *
 173:.\Generated_Source\PSoC5/I2C.c **** * Return:
 174:.\Generated_Source\PSoC5/I2C.c **** *  None.
 175:.\Generated_Source\PSoC5/I2C.c **** *
 176:.\Generated_Source\PSoC5/I2C.c **** * Side Effects:
 177:.\Generated_Source\PSoC5/I2C.c **** *  This component automatically enables its interrupt.  If I2C is enabled !
 178:.\Generated_Source\PSoC5/I2C.c **** *  without the interrupt enabled, it can lock up the I2C bus.
 179:.\Generated_Source\PSoC5/I2C.c **** *
 180:.\Generated_Source\PSoC5/I2C.c **** * Global variables:
 181:.\Generated_Source\PSoC5/I2C.c **** *  I2C_initVar - This variable is used to check the initial
 182:.\Generated_Source\PSoC5/I2C.c **** *                             configuration, modified on the first
 183:.\Generated_Source\PSoC5/I2C.c **** *                             function call.
 184:.\Generated_Source\PSoC5/I2C.c **** *
 185:.\Generated_Source\PSoC5/I2C.c **** * Reentrant:
 186:.\Generated_Source\PSoC5/I2C.c **** *  No.
 187:.\Generated_Source\PSoC5/I2C.c **** *
 188:.\Generated_Source\PSoC5/I2C.c **** *******************************************************************************/
 189:.\Generated_Source\PSoC5/I2C.c **** void I2C_Start(void) 
 190:.\Generated_Source\PSoC5/I2C.c **** {
 174              		.loc 1 190 0
 175              		.cfi_startproc
 176              		@ args = 0, pretend = 0, frame = 0
 177              		@ frame_needed = 1, uses_anonymous_args = 0
 178 0000 80B5     		push	{r7, lr}
 179              		.cfi_def_cfa_offset 8
 180              		.cfi_offset 7, -8
 181              		.cfi_offset 14, -4
 182 0002 00AF     		add	r7, sp, #0
 183              		.cfi_def_cfa_register 7
 191:.\Generated_Source\PSoC5/I2C.c ****     if (0u == I2C_initVar)
 184              		.loc 1 191 0
 185 0004 074B     		ldr	r3, .L9
 186 0006 1B78     		ldrb	r3, [r3]	@ zero_extendqisi2
 187 0008 002B     		cmp	r3, #0
 188 000a 04D1     		bne	.L8
 192:.\Generated_Source\PSoC5/I2C.c ****     {
 193:.\Generated_Source\PSoC5/I2C.c ****         I2C_Init();
 189              		.loc 1 193 0
 190 000c FFF7FEFF 		bl	I2C_Init
 194:.\Generated_Source\PSoC5/I2C.c ****         I2C_initVar = 1u; /* Component initialized */
 191              		.loc 1 194 0
 192 0010 044B     		ldr	r3, .L9
 193 0012 0122     		movs	r2, #1
 194 0014 1A70     		strb	r2, [r3]
 195              	.L8:
 195:.\Generated_Source\PSoC5/I2C.c ****     }
 196:.\Generated_Source\PSoC5/I2C.c **** 
 197:.\Generated_Source\PSoC5/I2C.c ****     I2C_Enable();
 196              		.loc 1 197 0
 197 0016 FFF7FEFF 		bl	I2C_Enable
 198:.\Generated_Source\PSoC5/I2C.c ****     I2C_EnableInt();
 198              		.loc 1 198 0
 199 001a 034B     		ldr	r3, .L9+4
 200 001c 1022     		movs	r2, #16
 201 001e 1A60     		str	r2, [r3]
ARM GAS  C:\Users\xavieran\AppData\Local\Temp\ccMErrRv.s 			page 8


 199:.\Generated_Source\PSoC5/I2C.c **** }
 202              		.loc 1 199 0
 203 0020 80BD     		pop	{r7, pc}
 204              	.L10:
 205 0022 00BF     		.align	2
 206              	.L9:
 207 0024 00000000 		.word	I2C_initVar
 208 0028 00E100E0 		.word	-536813312
 209              		.cfi_endproc
 210              	.LFE2:
 211              		.size	I2C_Start, .-I2C_Start
 212              		.section	.text.I2C_Stop,"ax",%progbits
 213              		.align	2
 214              		.global	I2C_Stop
 215              		.thumb
 216              		.thumb_func
 217              		.type	I2C_Stop, %function
 218              	I2C_Stop:
 219              	.LFB3:
 200:.\Generated_Source\PSoC5/I2C.c **** 
 201:.\Generated_Source\PSoC5/I2C.c **** 
 202:.\Generated_Source\PSoC5/I2C.c **** /*******************************************************************************
 203:.\Generated_Source\PSoC5/I2C.c **** * Function Name: I2C_Stop
 204:.\Generated_Source\PSoC5/I2C.c **** ********************************************************************************
 205:.\Generated_Source\PSoC5/I2C.c **** *
 206:.\Generated_Source\PSoC5/I2C.c **** * Summary:
 207:.\Generated_Source\PSoC5/I2C.c **** *  Disables I2C hardware and disables I2C interrupt. Disables Active mode power
 208:.\Generated_Source\PSoC5/I2C.c **** *  template bits or clock gating as appropriate.
 209:.\Generated_Source\PSoC5/I2C.c **** *
 210:.\Generated_Source\PSoC5/I2C.c **** * Parameters:
 211:.\Generated_Source\PSoC5/I2C.c **** *  None.
 212:.\Generated_Source\PSoC5/I2C.c **** *
 213:.\Generated_Source\PSoC5/I2C.c **** * Return:
 214:.\Generated_Source\PSoC5/I2C.c **** *  None.
 215:.\Generated_Source\PSoC5/I2C.c **** *
 216:.\Generated_Source\PSoC5/I2C.c **** *******************************************************************************/
 217:.\Generated_Source\PSoC5/I2C.c **** void I2C_Stop(void) 
 218:.\Generated_Source\PSoC5/I2C.c **** {
 220              		.loc 1 218 0
 221              		.cfi_startproc
 222              		@ args = 0, pretend = 0, frame = 0
 223              		@ frame_needed = 1, uses_anonymous_args = 0
 224              		@ link register save eliminated.
 225 0000 80B4     		push	{r7}
 226              		.cfi_def_cfa_offset 4
 227              		.cfi_offset 7, -4
 228 0002 00AF     		add	r7, sp, #0
 229              		.cfi_def_cfa_register 7
 219:.\Generated_Source\PSoC5/I2C.c ****     I2C_DisableInt();
 230              		.loc 1 219 0
 231 0004 0F4B     		ldr	r3, .L12
 232 0006 1022     		movs	r2, #16
 233 0008 1A60     		str	r2, [r3]
 220:.\Generated_Source\PSoC5/I2C.c **** 
 221:.\Generated_Source\PSoC5/I2C.c **** #if (I2C_TIMEOUT_ENABLED)
 222:.\Generated_Source\PSoC5/I2C.c ****     I2C_TimeoutStop();
 223:.\Generated_Source\PSoC5/I2C.c **** #endif  /* End (I2C_TIMEOUT_ENABLED) */
ARM GAS  C:\Users\xavieran\AppData\Local\Temp\ccMErrRv.s 			page 9


 224:.\Generated_Source\PSoC5/I2C.c **** 
 225:.\Generated_Source\PSoC5/I2C.c **** #if (I2C_FF_IMPLEMENTED)
 226:.\Generated_Source\PSoC5/I2C.c ****     {
 227:.\Generated_Source\PSoC5/I2C.c ****         uint8 intState;
 228:.\Generated_Source\PSoC5/I2C.c ****         uint16 blockResetCycles;
 229:.\Generated_Source\PSoC5/I2C.c **** 
 230:.\Generated_Source\PSoC5/I2C.c ****         /* Store registers effected by block disable */
 231:.\Generated_Source\PSoC5/I2C.c ****         I2C_backup.addr    = I2C_ADDR_REG;
 232:.\Generated_Source\PSoC5/I2C.c ****         I2C_backup.clkDiv1 = I2C_CLKDIV1_REG;
 233:.\Generated_Source\PSoC5/I2C.c ****         I2C_backup.clkDiv2 = I2C_CLKDIV2_REG;
 234:.\Generated_Source\PSoC5/I2C.c **** 
 235:.\Generated_Source\PSoC5/I2C.c ****         /* Calculate number of cycles to reset block */
 236:.\Generated_Source\PSoC5/I2C.c ****         blockResetCycles = ((uint16) ((uint16) I2C_CLKDIV2_REG << 8u) | I2C_CLKDIV1_REG) + 1u;
 237:.\Generated_Source\PSoC5/I2C.c **** 
 238:.\Generated_Source\PSoC5/I2C.c ****         /* Disable block */
 239:.\Generated_Source\PSoC5/I2C.c ****         I2C_CFG_REG &= (uint8) ~I2C_CFG_EN_SLAVE;
 240:.\Generated_Source\PSoC5/I2C.c ****         /* Wait for block reset before disable power */
 241:.\Generated_Source\PSoC5/I2C.c ****         CyDelayCycles((uint32) blockResetCycles);
 242:.\Generated_Source\PSoC5/I2C.c **** 
 243:.\Generated_Source\PSoC5/I2C.c ****         /* Disable power to block */
 244:.\Generated_Source\PSoC5/I2C.c ****         intState = CyEnterCriticalSection();
 245:.\Generated_Source\PSoC5/I2C.c ****         I2C_ACT_PWRMGR_REG  &= (uint8) ~I2C_ACT_PWR_EN;
 246:.\Generated_Source\PSoC5/I2C.c ****         I2C_STBY_PWRMGR_REG &= (uint8) ~I2C_STBY_PWR_EN;
 247:.\Generated_Source\PSoC5/I2C.c ****         CyExitCriticalSection(intState);
 248:.\Generated_Source\PSoC5/I2C.c **** 
 249:.\Generated_Source\PSoC5/I2C.c ****         /* Enable block */
 250:.\Generated_Source\PSoC5/I2C.c ****         I2C_CFG_REG |= (uint8) I2C_ENABLE_MS;
 251:.\Generated_Source\PSoC5/I2C.c **** 
 252:.\Generated_Source\PSoC5/I2C.c ****         /* Restore registers effected by block disable. Ticket ID#198004 */
 253:.\Generated_Source\PSoC5/I2C.c ****         I2C_ADDR_REG    = I2C_backup.addr;
 254:.\Generated_Source\PSoC5/I2C.c ****         I2C_ADDR_REG    = I2C_backup.addr;
 255:.\Generated_Source\PSoC5/I2C.c ****         I2C_CLKDIV1_REG = I2C_backup.clkDiv1;
 256:.\Generated_Source\PSoC5/I2C.c ****         I2C_CLKDIV2_REG = I2C_backup.clkDiv2;
 257:.\Generated_Source\PSoC5/I2C.c ****     }
 258:.\Generated_Source\PSoC5/I2C.c **** #else
 259:.\Generated_Source\PSoC5/I2C.c **** 
 260:.\Generated_Source\PSoC5/I2C.c ****     /* Disable slave or master bits */
 261:.\Generated_Source\PSoC5/I2C.c ****     I2C_CFG_REG &= (uint8) ~I2C_ENABLE_MS;
 234              		.loc 1 261 0
 235 000a 0F4B     		ldr	r3, .L12+4
 236 000c 0E4A     		ldr	r2, .L12+4
 237 000e 1278     		ldrb	r2, [r2]
 238 0010 D2B2     		uxtb	r2, r2
 239 0012 22F00202 		bic	r2, r2, #2
 240 0016 D2B2     		uxtb	r2, r2
 241 0018 1A70     		strb	r2, [r3]
 262:.\Generated_Source\PSoC5/I2C.c **** 
 263:.\Generated_Source\PSoC5/I2C.c **** #if (I2C_MODE_SLAVE_ENABLED)
 264:.\Generated_Source\PSoC5/I2C.c ****     {
 265:.\Generated_Source\PSoC5/I2C.c ****         /* Disable bit counter */
 266:.\Generated_Source\PSoC5/I2C.c ****         uint8 intState = CyEnterCriticalSection();
 267:.\Generated_Source\PSoC5/I2C.c ****         I2C_COUNTER_AUX_CTL_REG &= (uint8) ~I2C_CNT7_ENABLE;
 268:.\Generated_Source\PSoC5/I2C.c ****         CyExitCriticalSection(intState);
 269:.\Generated_Source\PSoC5/I2C.c ****     }
 270:.\Generated_Source\PSoC5/I2C.c **** #endif /* (I2C_MODE_SLAVE_ENABLED) */
 271:.\Generated_Source\PSoC5/I2C.c **** 
 272:.\Generated_Source\PSoC5/I2C.c ****     /* Clear interrupt source register */
ARM GAS  C:\Users\xavieran\AppData\Local\Temp\ccMErrRv.s 			page 10


 273:.\Generated_Source\PSoC5/I2C.c ****     (void) I2C_CSR_REG;
 242              		.loc 1 273 0
 243 001a 0C4B     		ldr	r3, .L12+8
 244 001c 1B78     		ldrb	r3, [r3]
 274:.\Generated_Source\PSoC5/I2C.c **** #endif /* (I2C_FF_IMPLEMENTED) */
 275:.\Generated_Source\PSoC5/I2C.c **** 
 276:.\Generated_Source\PSoC5/I2C.c ****     /* Disable interrupt on stop (enabled by write transaction) */
 277:.\Generated_Source\PSoC5/I2C.c ****     I2C_DISABLE_INT_ON_STOP;
 245              		.loc 1 277 0
 246 001e 0C4B     		ldr	r3, .L12+12
 247 0020 0B4A     		ldr	r2, .L12+12
 248 0022 1278     		ldrb	r2, [r2]
 249 0024 D2B2     		uxtb	r2, r2
 250 0026 22F02002 		bic	r2, r2, #32
 251 002a D2B2     		uxtb	r2, r2
 252 002c 1A70     		strb	r2, [r3]
 278:.\Generated_Source\PSoC5/I2C.c ****     I2C_ClearPendingInt();
 253              		.loc 1 278 0
 254 002e 094B     		ldr	r3, .L12+16
 255 0030 1022     		movs	r2, #16
 256 0032 1A60     		str	r2, [r3]
 279:.\Generated_Source\PSoC5/I2C.c **** 
 280:.\Generated_Source\PSoC5/I2C.c ****     /* Reset FSM to default state */
 281:.\Generated_Source\PSoC5/I2C.c ****     I2C_state = I2C_SM_IDLE;
 257              		.loc 1 281 0
 258 0034 084B     		ldr	r3, .L12+20
 259 0036 1022     		movs	r2, #16
 260 0038 1A70     		strb	r2, [r3]
 282:.\Generated_Source\PSoC5/I2C.c **** 
 283:.\Generated_Source\PSoC5/I2C.c ****     /* Clear busy statuses */
 284:.\Generated_Source\PSoC5/I2C.c **** #if (I2C_MODE_SLAVE_ENABLED)
 285:.\Generated_Source\PSoC5/I2C.c ****     I2C_slStatus &= (uint8) ~(I2C_SSTAT_RD_BUSY | I2C_SSTAT_WR_BUSY);
 286:.\Generated_Source\PSoC5/I2C.c **** #endif /* (I2C_MODE_SLAVE_ENABLED) */
 287:.\Generated_Source\PSoC5/I2C.c **** }
 261              		.loc 1 287 0
 262 003a BD46     		mov	sp, r7
 263              		@ sp needed
 264 003c 5DF8047B 		ldr	r7, [sp], #4
 265 0040 7047     		bx	lr
 266              	.L13:
 267 0042 00BF     		.align	2
 268              	.L12:
 269 0044 80E100E0 		.word	-536813184
 270 0048 73640040 		.word	1073767539
 271 004c 6B640040 		.word	1073767531
 272 0050 8B640040 		.word	1073767563
 273 0054 80E200E0 		.word	-536812928
 274 0058 00000000 		.word	I2C_state
 275              		.cfi_endproc
 276              	.LFE3:
 277              		.size	I2C_Stop, .-I2C_Stop
 278              		.text
 279              	.Letext0:
 280              		.file 2 ".\\Generated_Source\\PSoC5\\cytypes.h"
 281              		.file 3 ".\\Generated_Source\\PSoC5\\I2C_PVT.h"