ARM GAS  C:\Users\xavieran\AppData\Local\Temp\ccCIy8aA.s 			page 1


   1              		.syntax unified
   2              		.cpu cortex-m3
   3              		.fpu softvfp
   4              		.eabi_attribute 20, 1
   5              		.eabi_attribute 21, 1
   6              		.eabi_attribute 23, 3
   7              		.eabi_attribute 24, 1
   8              		.eabi_attribute 25, 1
   9              		.eabi_attribute 26, 1
  10              		.eabi_attribute 30, 6
  11              		.eabi_attribute 34, 1
  12              		.eabi_attribute 18, 4
  13              		.thumb
  14              		.file	"infrared_front.c"
  15              		.text
  16              	.Ltext0:
  17              		.cfi_sections	.debug_frame
  18              		.comm	Camera_framebuffer,50688,4
  19              		.comm	pulse_length_arr,6,4
  20              		.comm	max,2,2
  21              		.comm	arr_i,4,4
  22              		.comm	pulse_length_front,2,2
  23              		.section	.text.ir_front_isr,"ax",%progbits
  24              		.align	2
  25              		.global	ir_front_isr
  26              		.thumb
  27              		.thumb_func
  28              		.type	ir_front_isr, %function
  29              	ir_front_isr:
  30              	.LFB63:
  31              		.file 1 ".\\infrared_front.c"
   1:.\infrared_front.c **** /* ========================================
   2:.\infrared_front.c ****  *
   3:.\infrared_front.c ****  * Copyright YOUR COMPANY, THE YEAR
   4:.\infrared_front.c ****  * All Rights Reserved
   5:.\infrared_front.c ****  * UNPUBLISHED, LICENSED SOFTWARE.
   6:.\infrared_front.c ****  *
   7:.\infrared_front.c ****  * CONFIDENTIAL AND PROPRIETARY INFORMATION
   8:.\infrared_front.c ****  * WHICH IS THE PROPERTY OF your company.
   9:.\infrared_front.c ****  *
  10:.\infrared_front.c ****  * ========================================
  11:.\infrared_front.c **** */
  12:.\infrared_front.c **** 
  13:.\infrared_front.c **** #include <project.h>
  14:.\infrared_front.c **** 
  15:.\infrared_front.c **** volatile uint16 pulse_length_arr[3], max;
  16:.\infrared_front.c **** volatile int arr_i;
  17:.\infrared_front.c **** volatile uint16 pulse_length_front;
  18:.\infrared_front.c **** 
  19:.\infrared_front.c **** CY_ISR(ir_front_isr){
  32              		.loc 1 19 0
  33              		.cfi_startproc
  34              		@ args = 0, pretend = 0, frame = 8
  35              		@ frame_needed = 1, uses_anonymous_args = 0
  36 0000 80B5     		push	{r7, lr}
  37              		.cfi_def_cfa_offset 8
  38              		.cfi_offset 7, -8
ARM GAS  C:\Users\xavieran\AppData\Local\Temp\ccCIy8aA.s 			page 2


  39              		.cfi_offset 14, -4
  40 0002 82B0     		sub	sp, sp, #8
  41              		.cfi_def_cfa_offset 16
  42 0004 00AF     		add	r7, sp, #0
  43              		.cfi_def_cfa_register 7
  20:.\infrared_front.c ****     pulse_length_front = (65535 - IR_FRONT_Timer_ReadCounter()) / 100;
  44              		.loc 1 20 0
  45 0006 FFF7FEFF 		bl	IR_FRONT_Timer_ReadCounter
  46 000a 0346     		mov	r3, r0
  47 000c C3F57F43 		rsb	r3, r3, #65280
  48 0010 FF33     		adds	r3, r3, #255
  49 0012 234A     		ldr	r2, .L5
  50 0014 82FB0302 		smull	r0, r2, r2, r3
  51 0018 5211     		asrs	r2, r2, #5
  52 001a DB17     		asrs	r3, r3, #31
  53 001c D31A     		subs	r3, r2, r3
  54 001e 9AB2     		uxth	r2, r3
  55 0020 204B     		ldr	r3, .L5+4
  56 0022 1A80     		strh	r2, [r3]	@ movhi
  21:.\infrared_front.c ****     pulse_length_arr[arr_i] = pulse_length_front;
  57              		.loc 1 21 0
  58 0024 204B     		ldr	r3, .L5+8
  59 0026 1A68     		ldr	r2, [r3]
  60 0028 1E4B     		ldr	r3, .L5+4
  61 002a 1B88     		ldrh	r3, [r3]	@ movhi
  62 002c 99B2     		uxth	r1, r3
  63 002e 1F4B     		ldr	r3, .L5+12
  64 0030 23F81210 		strh	r1, [r3, r2, lsl #1]	@ movhi
  22:.\infrared_front.c ****     arr_i = (arr_i + 1) % 3;
  65              		.loc 1 22 0
  66 0034 1C4B     		ldr	r3, .L5+8
  67 0036 1B68     		ldr	r3, [r3]
  68 0038 591C     		adds	r1, r3, #1
  69 003a 1D4B     		ldr	r3, .L5+16
  70 003c 83FB0102 		smull	r0, r2, r3, r1
  71 0040 CB17     		asrs	r3, r1, #31
  72 0042 D21A     		subs	r2, r2, r3
  73 0044 1346     		mov	r3, r2
  74 0046 5B00     		lsls	r3, r3, #1
  75 0048 1344     		add	r3, r3, r2
  76 004a CA1A     		subs	r2, r1, r3
  77 004c 164B     		ldr	r3, .L5+8
  78 004e 1A60     		str	r2, [r3]
  23:.\infrared_front.c ****     
  24:.\infrared_front.c ****     int i;
  25:.\infrared_front.c ****     max = 0;
  79              		.loc 1 25 0
  80 0050 184B     		ldr	r3, .L5+20
  81 0052 0022     		movs	r2, #0
  82 0054 1A80     		strh	r2, [r3]	@ movhi
  26:.\infrared_front.c ****     for(i = 0; i < 3; i++)
  83              		.loc 1 26 0
  84 0056 0023     		movs	r3, #0
  85 0058 7B60     		str	r3, [r7, #4]
  86 005a 13E0     		b	.L2
  87              	.L4:
  27:.\infrared_front.c ****     {
ARM GAS  C:\Users\xavieran\AppData\Local\Temp\ccCIy8aA.s 			page 3


  28:.\infrared_front.c ****         if(pulse_length_arr[i] > max)
  88              		.loc 1 28 0
  89 005c 134B     		ldr	r3, .L5+12
  90 005e 7A68     		ldr	r2, [r7, #4]
  91 0060 33F81230 		ldrh	r3, [r3, r2, lsl #1]	@ movhi
  92 0064 9AB2     		uxth	r2, r3
  93 0066 134B     		ldr	r3, .L5+20
  94 0068 1B88     		ldrh	r3, [r3]	@ movhi
  95 006a 9BB2     		uxth	r3, r3
  96 006c 9A42     		cmp	r2, r3
  97 006e 06D9     		bls	.L3
  29:.\infrared_front.c ****         {
  30:.\infrared_front.c ****             max = pulse_length_arr[i];
  98              		.loc 1 30 0
  99 0070 0E4B     		ldr	r3, .L5+12
 100 0072 7A68     		ldr	r2, [r7, #4]
 101 0074 33F81230 		ldrh	r3, [r3, r2, lsl #1]	@ movhi
 102 0078 9AB2     		uxth	r2, r3
 103 007a 0E4B     		ldr	r3, .L5+20
 104 007c 1A80     		strh	r2, [r3]	@ movhi
 105              	.L3:
  26:.\infrared_front.c ****     for(i = 0; i < 3; i++)
 106              		.loc 1 26 0
 107 007e 7B68     		ldr	r3, [r7, #4]
 108 0080 0133     		adds	r3, r3, #1
 109 0082 7B60     		str	r3, [r7, #4]
 110              	.L2:
  26:.\infrared_front.c ****     for(i = 0; i < 3; i++)
 111              		.loc 1 26 0 is_stmt 0 discriminator 1
 112 0084 7B68     		ldr	r3, [r7, #4]
 113 0086 022B     		cmp	r3, #2
 114 0088 E8DD     		ble	.L4
  31:.\infrared_front.c ****         }
  32:.\infrared_front.c ****     }
  33:.\infrared_front.c ****     
  34:.\infrared_front.c ****     pulse_length_front = max;
 115              		.loc 1 34 0 is_stmt 1
 116 008a 0A4B     		ldr	r3, .L5+20
 117 008c 1B88     		ldrh	r3, [r3]	@ movhi
 118 008e 9AB2     		uxth	r2, r3
 119 0090 044B     		ldr	r3, .L5+4
 120 0092 1A80     		strh	r2, [r3]	@ movhi
  35:.\infrared_front.c ****     
  36:.\infrared_front.c ****     IR_FRONT_DONE_ClearPending();
 121              		.loc 1 36 0
 122 0094 FFF7FEFF 		bl	IR_FRONT_DONE_ClearPending
  37:.\infrared_front.c **** }
 123              		.loc 1 37 0
 124 0098 0837     		adds	r7, r7, #8
 125 009a BD46     		mov	sp, r7
 126              		@ sp needed
 127 009c 80BD     		pop	{r7, pc}
 128              	.L6:
 129 009e 00BF     		.align	2
 130              	.L5:
 131 00a0 1F85EB51 		.word	1374389535
 132 00a4 00000000 		.word	pulse_length_front
ARM GAS  C:\Users\xavieran\AppData\Local\Temp\ccCIy8aA.s 			page 4


 133 00a8 00000000 		.word	arr_i
 134 00ac 00000000 		.word	pulse_length_arr
 135 00b0 56555555 		.word	1431655766
 136 00b4 00000000 		.word	max
 137              		.cfi_endproc
 138              	.LFE63:
 139              		.size	ir_front_isr, .-ir_front_isr
 140              		.section	.text.get_front_ir,"ax",%progbits
 141              		.align	2
 142              		.global	get_front_ir
 143              		.thumb
 144              		.thumb_func
 145              		.type	get_front_ir, %function
 146              	get_front_ir:
 147              	.LFB64:
  38:.\infrared_front.c **** 
  39:.\infrared_front.c **** uint16 get_front_ir(){
 148              		.loc 1 39 0
 149              		.cfi_startproc
 150              		@ args = 0, pretend = 0, frame = 0
 151              		@ frame_needed = 1, uses_anonymous_args = 0
 152              		@ link register save eliminated.
 153 0000 80B4     		push	{r7}
 154              		.cfi_def_cfa_offset 4
 155              		.cfi_offset 7, -4
 156 0002 00AF     		add	r7, sp, #0
 157              		.cfi_def_cfa_register 7
  40:.\infrared_front.c ****     return pulse_length_front;
 158              		.loc 1 40 0
 159 0004 034B     		ldr	r3, .L9
 160 0006 1B88     		ldrh	r3, [r3]	@ movhi
 161 0008 9BB2     		uxth	r3, r3
  41:.\infrared_front.c **** }
 162              		.loc 1 41 0
 163 000a 1846     		mov	r0, r3
 164 000c BD46     		mov	sp, r7
 165              		@ sp needed
 166 000e 5DF8047B 		ldr	r7, [sp], #4
 167 0012 7047     		bx	lr
 168              	.L10:
 169              		.align	2
 170              	.L9:
 171 0014 00000000 		.word	pulse_length_front
 172              		.cfi_endproc
 173              	.LFE64:
 174              		.size	get_front_ir, .-get_front_ir
 175              		.section	.text.start_infrared_front,"ax",%progbits
 176              		.align	2
 177              		.global	start_infrared_front
 178              		.thumb
 179              		.thumb_func
 180              		.type	start_infrared_front, %function
 181              	start_infrared_front:
 182              	.LFB65:
  42:.\infrared_front.c **** 
  43:.\infrared_front.c **** void start_infrared_front(){
 183              		.loc 1 43 0
ARM GAS  C:\Users\xavieran\AppData\Local\Temp\ccCIy8aA.s 			page 5


 184              		.cfi_startproc
 185              		@ args = 0, pretend = 0, frame = 0
 186              		@ frame_needed = 1, uses_anonymous_args = 0
 187 0000 80B5     		push	{r7, lr}
 188              		.cfi_def_cfa_offset 8
 189              		.cfi_offset 7, -8
 190              		.cfi_offset 14, -4
 191 0002 00AF     		add	r7, sp, #0
 192              		.cfi_def_cfa_register 7
  44:.\infrared_front.c ****     IR_FRONT_PWM_Start();
 193              		.loc 1 44 0
 194 0004 FFF7FEFF 		bl	IR_FRONT_PWM_Start
  45:.\infrared_front.c ****     IR_FRONT_Timer_Start();
 195              		.loc 1 45 0
 196 0008 FFF7FEFF 		bl	IR_FRONT_Timer_Start
  46:.\infrared_front.c ****     IR_FRONT_DONE_StartEx(ir_front_isr);
 197              		.loc 1 46 0
 198 000c 0148     		ldr	r0, .L12
 199 000e FFF7FEFF 		bl	IR_FRONT_DONE_StartEx
  47:.\infrared_front.c **** }
 200              		.loc 1 47 0
 201 0012 80BD     		pop	{r7, pc}
 202              	.L13:
 203              		.align	2
 204              	.L12:
 205 0014 00000000 		.word	ir_front_isr
 206              		.cfi_endproc
 207              	.LFE65:
 208              		.size	start_infrared_front, .-start_infrared_front
 209              		.text
 210              	.Letext0:
 211              		.file 2 "c:\\program files (x86)\\cypress\\psoc creator\\3.2\\psoc creator\\import\\gnu\\arm\\4.8.
 212              		.file 3 "c:\\program files (x86)\\cypress\\psoc creator\\3.2\\psoc creator\\import\\gnu\\arm\\4.8.
 213              		.file 4 "Generated_Source\\PSoC5/cytypes.h"
 214              		.file 5 "Generated_Source\\PSoC5/core_cm3.h"
 215              		.file 6 "Generated_Source\\PSoC5/Camera.h"