ARM GAS  C:\Users\xavieran\AppData\Local\Temp\ccbNCT71.s 			page 1


   1              		.syntax unified
   2              		.cpu cortex-m3
   3              		.fpu softvfp
   4              		.eabi_attribute 20, 1
   5              		.eabi_attribute 21, 1
   6              		.eabi_attribute 23, 3
   7              		.eabi_attribute 24, 1
   8              		.eabi_attribute 25, 1
   9              		.eabi_attribute 26, 1
  10              		.eabi_attribute 30, 6
  11              		.eabi_attribute 34, 1
  12              		.eabi_attribute 18, 4
  13              		.thumb
  14              		.file	"infrared_left.c"
  15              		.text
  16              	.Ltext0:
  17              		.cfi_sections	.debug_frame
  18              		.comm	Camera_framebuffer,50688,4
  19              		.comm	pulse_length_left,2,2
  20              		.section	.text.ir_left_isr,"ax",%progbits
  21              		.align	2
  22              		.global	ir_left_isr
  23              		.thumb
  24              		.thumb_func
  25              		.type	ir_left_isr, %function
  26              	ir_left_isr:
  27              	.LFB63:
  28              		.file 1 ".\\infrared_left.c"
   1:.\infrared_left.c **** /* ========================================
   2:.\infrared_left.c ****  *
   3:.\infrared_left.c ****  * Copyright YOUR COMPANY, THE YEAR
   4:.\infrared_left.c ****  * All Rights Reserved
   5:.\infrared_left.c ****  * UNPUBLISHED, LICENSED SOFTWARE.
   6:.\infrared_left.c ****  *
   7:.\infrared_left.c ****  * CONFIDENTIAL AND PROPRIETARY INFORMATION
   8:.\infrared_left.c ****  * WHICH IS THE PROPERTY OF your company.
   9:.\infrared_left.c ****  *
  10:.\infrared_left.c ****  * ========================================
  11:.\infrared_left.c **** */
  12:.\infrared_left.c **** 
  13:.\infrared_left.c **** #include <project.h>
  14:.\infrared_left.c **** 
  15:.\infrared_left.c **** volatile uint16 pulse_length_left;
  16:.\infrared_left.c **** 
  17:.\infrared_left.c **** CY_ISR(ir_left_isr){
  29              		.loc 1 17 0
  30              		.cfi_startproc
  31              		@ args = 0, pretend = 0, frame = 0
  32              		@ frame_needed = 1, uses_anonymous_args = 0
  33 0000 80B5     		push	{r7, lr}
  34              		.cfi_def_cfa_offset 8
  35              		.cfi_offset 7, -8
  36              		.cfi_offset 14, -4
  37 0002 00AF     		add	r7, sp, #0
  38              		.cfi_def_cfa_register 7
  18:.\infrared_left.c ****     if (IR_LEFT_Timer_ReadCounter() != 65535){
  39              		.loc 1 18 0
ARM GAS  C:\Users\xavieran\AppData\Local\Temp\ccbNCT71.s 			page 2


  40 0004 FFF7FEFF 		bl	IR_LEFT_Timer_ReadCounter
  41 0008 0346     		mov	r3, r0
  42 000a 1A46     		mov	r2, r3
  43 000c 4FF6FF73 		movw	r3, #65535
  44 0010 9A42     		cmp	r2, r3
  45 0012 0ED0     		beq	.L2
  19:.\infrared_left.c ****         pulse_length_left = (65535 - IR_LEFT_Timer_ReadCounter()) / 100;
  46              		.loc 1 19 0
  47 0014 FFF7FEFF 		bl	IR_LEFT_Timer_ReadCounter
  48 0018 0346     		mov	r3, r0
  49 001a C3F57F43 		rsb	r3, r3, #65280
  50 001e FF33     		adds	r3, r3, #255
  51 0020 054A     		ldr	r2, .L3
  52 0022 82FB0312 		smull	r1, r2, r2, r3
  53 0026 5211     		asrs	r2, r2, #5
  54 0028 DB17     		asrs	r3, r3, #31
  55 002a D31A     		subs	r3, r2, r3
  56 002c 9AB2     		uxth	r2, r3
  57 002e 034B     		ldr	r3, .L3+4
  58 0030 1A80     		strh	r2, [r3]	@ movhi
  59              	.L2:
  20:.\infrared_left.c ****     }
  21:.\infrared_left.c ****     IR_LEFT_DONE_ClearPending();
  60              		.loc 1 21 0
  61 0032 FFF7FEFF 		bl	IR_LEFT_DONE_ClearPending
  22:.\infrared_left.c **** }
  62              		.loc 1 22 0
  63 0036 80BD     		pop	{r7, pc}
  64              	.L4:
  65              		.align	2
  66              	.L3:
  67 0038 1F85EB51 		.word	1374389535
  68 003c 00000000 		.word	pulse_length_left
  69              		.cfi_endproc
  70              	.LFE63:
  71              		.size	ir_left_isr, .-ir_left_isr
  72              		.section	.text.get_left_ir,"ax",%progbits
  73              		.align	2
  74              		.global	get_left_ir
  75              		.thumb
  76              		.thumb_func
  77              		.type	get_left_ir, %function
  78              	get_left_ir:
  79              	.LFB64:
  23:.\infrared_left.c **** 
  24:.\infrared_left.c **** uint16 get_left_ir(){
  80              		.loc 1 24 0
  81              		.cfi_startproc
  82              		@ args = 0, pretend = 0, frame = 0
  83              		@ frame_needed = 1, uses_anonymous_args = 0
  84              		@ link register save eliminated.
  85 0000 80B4     		push	{r7}
  86              		.cfi_def_cfa_offset 4
  87              		.cfi_offset 7, -4
  88 0002 00AF     		add	r7, sp, #0
  89              		.cfi_def_cfa_register 7
  25:.\infrared_left.c ****     return pulse_length_left;
ARM GAS  C:\Users\xavieran\AppData\Local\Temp\ccbNCT71.s 			page 3


  90              		.loc 1 25 0
  91 0004 034B     		ldr	r3, .L7
  92 0006 1B88     		ldrh	r3, [r3]	@ movhi
  93 0008 9BB2     		uxth	r3, r3
  26:.\infrared_left.c **** }
  94              		.loc 1 26 0
  95 000a 1846     		mov	r0, r3
  96 000c BD46     		mov	sp, r7
  97              		@ sp needed
  98 000e 5DF8047B 		ldr	r7, [sp], #4
  99 0012 7047     		bx	lr
 100              	.L8:
 101              		.align	2
 102              	.L7:
 103 0014 00000000 		.word	pulse_length_left
 104              		.cfi_endproc
 105              	.LFE64:
 106              		.size	get_left_ir, .-get_left_ir
 107              		.section	.text.start_infrared_left,"ax",%progbits
 108              		.align	2
 109              		.global	start_infrared_left
 110              		.thumb
 111              		.thumb_func
 112              		.type	start_infrared_left, %function
 113              	start_infrared_left:
 114              	.LFB65:
  27:.\infrared_left.c **** 
  28:.\infrared_left.c **** void start_infrared_left(){
 115              		.loc 1 28 0
 116              		.cfi_startproc
 117              		@ args = 0, pretend = 0, frame = 0
 118              		@ frame_needed = 1, uses_anonymous_args = 0
 119 0000 80B5     		push	{r7, lr}
 120              		.cfi_def_cfa_offset 8
 121              		.cfi_offset 7, -8
 122              		.cfi_offset 14, -4
 123 0002 00AF     		add	r7, sp, #0
 124              		.cfi_def_cfa_register 7
  29:.\infrared_left.c ****     IR_LEFT_PWM_Start();
 125              		.loc 1 29 0
 126 0004 FFF7FEFF 		bl	IR_LEFT_PWM_Start
  30:.\infrared_left.c ****     IR_LEFT_Timer_Start();
 127              		.loc 1 30 0
 128 0008 FFF7FEFF 		bl	IR_LEFT_Timer_Start
  31:.\infrared_left.c ****     IR_LEFT_DONE_StartEx(ir_left_isr);
 129              		.loc 1 31 0
 130 000c 0148     		ldr	r0, .L10
 131 000e FFF7FEFF 		bl	IR_LEFT_DONE_StartEx
  32:.\infrared_left.c **** }
 132              		.loc 1 32 0
 133 0012 80BD     		pop	{r7, pc}
 134              	.L11:
 135              		.align	2
 136              	.L10:
 137 0014 00000000 		.word	ir_left_isr
 138              		.cfi_endproc
 139              	.LFE65:
ARM GAS  C:\Users\xavieran\AppData\Local\Temp\ccbNCT71.s 			page 4


 140              		.size	start_infrared_left, .-start_infrared_left
 141              		.text
 142              	.Letext0:
 143              		.file 2 "c:\\program files (x86)\\cypress\\psoc creator\\3.2\\psoc creator\\import\\gnu\\arm\\4.8.
 144              		.file 3 "c:\\program files (x86)\\cypress\\psoc creator\\3.2\\psoc creator\\import\\gnu\\arm\\4.8.
 145              		.file 4 "Generated_Source\\PSoC5/cytypes.h"
 146              		.file 5 "Generated_Source\\PSoC5/core_cm3.h"
 147              		.file 6 "Generated_Source\\PSoC5/Camera.h"