ARM GAS  C:\Users\xavieran\AppData\Local\Temp\cctyv1P6.s 			page 1


   1              		.syntax unified
   2              		.cpu cortex-m3
   3              		.fpu softvfp
   4              		.eabi_attribute 20, 1
   5              		.eabi_attribute 21, 1
   6              		.eabi_attribute 23, 3
   7              		.eabi_attribute 24, 1
   8              		.eabi_attribute 25, 1
   9              		.eabi_attribute 26, 1
  10              		.eabi_attribute 30, 6
  11              		.eabi_attribute 34, 1
  12              		.eabi_attribute 18, 4
  13              		.thumb
  14              		.file	"LCD.c"
  15              		.text
  16              	.Ltext0:
  17              		.cfi_sections	.debug_frame
  18              		.global	LCD_enableState
  19              		.bss
  20              		.type	LCD_enableState, %object
  21              		.size	LCD_enableState, 1
  22              	LCD_enableState:
  23 0000 00       		.space	1
  24              		.global	LCD_initVar
  25              		.type	LCD_initVar, %object
  26              		.size	LCD_initVar, 1
  27              	LCD_initVar:
  28 0001 00       		.space	1
  29              		.section	.text.LCD_Init,"ax",%progbits
  30              		.align	2
  31              		.global	LCD_Init
  32              		.thumb
  33              		.thumb_func
  34              		.type	LCD_Init, %function
  35              	LCD_Init:
  36              	.LFB0:
  37              		.file 1 ".\\Generated_Source\\PSoC5\\LCD.c"
   1:.\Generated_Source\PSoC5/LCD.c **** /*******************************************************************************
   2:.\Generated_Source\PSoC5/LCD.c **** * File Name: LCD.c
   3:.\Generated_Source\PSoC5/LCD.c **** * Version 1.2
   4:.\Generated_Source\PSoC5/LCD.c **** *
   5:.\Generated_Source\PSoC5/LCD.c **** * Description:
   6:.\Generated_Source\PSoC5/LCD.c **** *  This file provides source code for the Character LCD component's API.
   7:.\Generated_Source\PSoC5/LCD.c **** *
   8:.\Generated_Source\PSoC5/LCD.c **** * Note:
   9:.\Generated_Source\PSoC5/LCD.c **** *
  10:.\Generated_Source\PSoC5/LCD.c **** ********************************************************************************
  11:.\Generated_Source\PSoC5/LCD.c **** * Copyright 2008-2012, Cypress Semiconductor Corporation.  All rights reserved.
  12:.\Generated_Source\PSoC5/LCD.c **** * You may use this file only in accordance with the license, terms, conditions,
  13:.\Generated_Source\PSoC5/LCD.c **** * disclaimers, and limitations in the end user license agreement accompanying
  14:.\Generated_Source\PSoC5/LCD.c **** * the software package with which this file was provided.
  15:.\Generated_Source\PSoC5/LCD.c **** *******************************************************************************/
  16:.\Generated_Source\PSoC5/LCD.c **** 
  17:.\Generated_Source\PSoC5/LCD.c **** #include "CyLib.h"
  18:.\Generated_Source\PSoC5/LCD.c **** #include "LCD.h"
  19:.\Generated_Source\PSoC5/LCD.c **** 
  20:.\Generated_Source\PSoC5/LCD.c **** 
ARM GAS  C:\Users\xavieran\AppData\Local\Temp\cctyv1P6.s 			page 2


  21:.\Generated_Source\PSoC5/LCD.c **** static void LCD_WrDatNib(uint8 nibble) ;
  22:.\Generated_Source\PSoC5/LCD.c **** static void LCD_WrCntrlNib(uint8 nibble) ;
  23:.\Generated_Source\PSoC5/LCD.c **** 
  24:.\Generated_Source\PSoC5/LCD.c **** /* Stores the state of conponent. Indicates wherewer component is 
  25:.\Generated_Source\PSoC5/LCD.c **** * in enable state or not.
  26:.\Generated_Source\PSoC5/LCD.c **** */
  27:.\Generated_Source\PSoC5/LCD.c **** uint8 LCD_enableState = 0u;
  28:.\Generated_Source\PSoC5/LCD.c **** 
  29:.\Generated_Source\PSoC5/LCD.c **** uint8 LCD_initVar = 0u;
  30:.\Generated_Source\PSoC5/LCD.c **** 
  31:.\Generated_Source\PSoC5/LCD.c **** 
  32:.\Generated_Source\PSoC5/LCD.c **** /*******************************************************************************
  33:.\Generated_Source\PSoC5/LCD.c **** * Function Name: LCD_Init
  34:.\Generated_Source\PSoC5/LCD.c **** ********************************************************************************
  35:.\Generated_Source\PSoC5/LCD.c **** *
  36:.\Generated_Source\PSoC5/LCD.c **** * Summary:
  37:.\Generated_Source\PSoC5/LCD.c **** *  Perform initialization required for components normal work.
  38:.\Generated_Source\PSoC5/LCD.c **** *  This function initializes the LCD hardware module as follows:
  39:.\Generated_Source\PSoC5/LCD.c **** *        Enable 4-bit interface
  40:.\Generated_Source\PSoC5/LCD.c **** *        Clear the display
  41:.\Generated_Source\PSoC5/LCD.c **** *        Enable auto cursor increment
  42:.\Generated_Source\PSoC5/LCD.c **** *        Resets the cursor to start position
  43:.\Generated_Source\PSoC5/LCD.c **** *  Also loads custom character set to LCD if it was defined in the customizer.
  44:.\Generated_Source\PSoC5/LCD.c **** *
  45:.\Generated_Source\PSoC5/LCD.c **** * Parameters:
  46:.\Generated_Source\PSoC5/LCD.c **** *  None.
  47:.\Generated_Source\PSoC5/LCD.c **** *
  48:.\Generated_Source\PSoC5/LCD.c **** * Return:
  49:.\Generated_Source\PSoC5/LCD.c **** *  None.
  50:.\Generated_Source\PSoC5/LCD.c **** *
  51:.\Generated_Source\PSoC5/LCD.c **** * Reentrant:
  52:.\Generated_Source\PSoC5/LCD.c **** *  No.
  53:.\Generated_Source\PSoC5/LCD.c **** *
  54:.\Generated_Source\PSoC5/LCD.c **** *******************************************************************************/
  55:.\Generated_Source\PSoC5/LCD.c **** void LCD_Init(void) 
  56:.\Generated_Source\PSoC5/LCD.c **** {
  38              		.loc 1 56 0
  39              		.cfi_startproc
  40              		@ args = 0, pretend = 0, frame = 0
  41              		@ frame_needed = 1, uses_anonymous_args = 0
  42 0000 80B5     		push	{r7, lr}
  43              		.cfi_def_cfa_offset 8
  44              		.cfi_offset 7, -8
  45              		.cfi_offset 14, -4
  46 0002 00AF     		add	r7, sp, #0
  47              		.cfi_def_cfa_register 7
  57:.\Generated_Source\PSoC5/LCD.c ****     /* INIT CODE */
  58:.\Generated_Source\PSoC5/LCD.c ****     CyDelay(40u);                                                        /* Delay 40 ms */
  48              		.loc 1 58 0
  49 0004 2820     		movs	r0, #40
  50 0006 FFF7FEFF 		bl	CyDelay
  59:.\Generated_Source\PSoC5/LCD.c ****     LCD_WrCntrlNib(LCD_DISPLAY_8_BIT_INIT);   /* Selects 8-bit mode */
  51              		.loc 1 59 0
  52 000a 0320     		movs	r0, #3
  53 000c FFF7FEFF 		bl	LCD_WrCntrlNib
  60:.\Generated_Source\PSoC5/LCD.c ****     CyDelay(5u);                                                         /* Delay 5 ms */
  54              		.loc 1 60 0
ARM GAS  C:\Users\xavieran\AppData\Local\Temp\cctyv1P6.s 			page 3


  55 0010 0520     		movs	r0, #5
  56 0012 FFF7FEFF 		bl	CyDelay
  61:.\Generated_Source\PSoC5/LCD.c ****     LCD_WrCntrlNib(LCD_DISPLAY_8_BIT_INIT);   /* Selects 8-bit mode */
  57              		.loc 1 61 0
  58 0016 0320     		movs	r0, #3
  59 0018 FFF7FEFF 		bl	LCD_WrCntrlNib
  62:.\Generated_Source\PSoC5/LCD.c ****     CyDelay(15u);                                                        /* Delay 15 ms */
  60              		.loc 1 62 0
  61 001c 0F20     		movs	r0, #15
  62 001e FFF7FEFF 		bl	CyDelay
  63:.\Generated_Source\PSoC5/LCD.c ****     LCD_WrCntrlNib(LCD_DISPLAY_8_BIT_INIT);   /* Selects 8-bit mode */
  63              		.loc 1 63 0
  64 0022 0320     		movs	r0, #3
  65 0024 FFF7FEFF 		bl	LCD_WrCntrlNib
  64:.\Generated_Source\PSoC5/LCD.c ****     CyDelay(1u);                                                         /* Delay 1 ms */
  66              		.loc 1 64 0
  67 0028 0120     		movs	r0, #1
  68 002a FFF7FEFF 		bl	CyDelay
  65:.\Generated_Source\PSoC5/LCD.c ****     LCD_WrCntrlNib(LCD_DISPLAY_4_BIT_INIT);   /* Selects 4-bit mode */
  69              		.loc 1 65 0
  70 002e 0220     		movs	r0, #2
  71 0030 FFF7FEFF 		bl	LCD_WrCntrlNib
  66:.\Generated_Source\PSoC5/LCD.c ****     CyDelay(5u);                                                         /* Delay 5 ms */
  72              		.loc 1 66 0
  73 0034 0520     		movs	r0, #5
  74 0036 FFF7FEFF 		bl	CyDelay
  67:.\Generated_Source\PSoC5/LCD.c **** 
  68:.\Generated_Source\PSoC5/LCD.c ****     LCD_WriteControl(LCD_CURSOR_AUTO_INCR_ON);    /* Incr Cursor After Writes */
  75              		.loc 1 68 0
  76 003a 0620     		movs	r0, #6
  77 003c FFF7FEFF 		bl	LCD_WriteControl
  69:.\Generated_Source\PSoC5/LCD.c ****     LCD_WriteControl(LCD_DISPLAY_CURSOR_ON);      /* Turn Display, Cursor ON */
  78              		.loc 1 69 0
  79 0040 0E20     		movs	r0, #14
  80 0042 FFF7FEFF 		bl	LCD_WriteControl
  70:.\Generated_Source\PSoC5/LCD.c ****     LCD_WriteControl(LCD_DISPLAY_2_LINES_5x10);   /* 2 Lines by 5x10 Characters */
  81              		.loc 1 70 0
  82 0046 2C20     		movs	r0, #44
  83 0048 FFF7FEFF 		bl	LCD_WriteControl
  71:.\Generated_Source\PSoC5/LCD.c ****     LCD_WriteControl(LCD_DISPLAY_CURSOR_OFF);     /* Turn Display, Cursor OFF */
  84              		.loc 1 71 0
  85 004c 0820     		movs	r0, #8
  86 004e FFF7FEFF 		bl	LCD_WriteControl
  72:.\Generated_Source\PSoC5/LCD.c ****     LCD_WriteControl(LCD_CLEAR_DISPLAY);          /* Clear LCD Screen */
  87              		.loc 1 72 0
  88 0052 0120     		movs	r0, #1
  89 0054 FFF7FEFF 		bl	LCD_WriteControl
  73:.\Generated_Source\PSoC5/LCD.c ****     LCD_WriteControl(LCD_DISPLAY_ON_CURSOR_OFF);  /* Turn Display ON, Cursor OFF */
  90              		.loc 1 73 0
  91 0058 0C20     		movs	r0, #12
  92 005a FFF7FEFF 		bl	LCD_WriteControl
  74:.\Generated_Source\PSoC5/LCD.c ****     LCD_WriteControl(LCD_RESET_CURSOR_POSITION);  /* Set Cursor to 0,0 */
  93              		.loc 1 74 0
  94 005e 0320     		movs	r0, #3
  95 0060 FFF7FEFF 		bl	LCD_WriteControl
  75:.\Generated_Source\PSoC5/LCD.c ****     CyDelay(5u);
  96              		.loc 1 75 0
ARM GAS  C:\Users\xavieran\AppData\Local\Temp\cctyv1P6.s 			page 4


  97 0064 0520     		movs	r0, #5
  98 0066 FFF7FEFF 		bl	CyDelay
  76:.\Generated_Source\PSoC5/LCD.c **** 
  77:.\Generated_Source\PSoC5/LCD.c ****     #if(LCD_CUSTOM_CHAR_SET != LCD_NONE)
  78:.\Generated_Source\PSoC5/LCD.c ****         LCD_LoadCustomFonts(LCD_customFonts);
  79:.\Generated_Source\PSoC5/LCD.c ****     #endif /* LCD_CUSTOM_CHAR_SET != LCD_NONE */
  80:.\Generated_Source\PSoC5/LCD.c **** }
  99              		.loc 1 80 0
 100 006a 80BD     		pop	{r7, pc}
 101              		.cfi_endproc
 102              	.LFE0:
 103              		.size	LCD_Init, .-LCD_Init
 104              		.section	.text.LCD_Enable,"ax",%progbits
 105              		.align	2
 106              		.global	LCD_Enable
 107              		.thumb
 108              		.thumb_func
 109              		.type	LCD_Enable, %function
 110              	LCD_Enable:
 111              	.LFB1:
  81:.\Generated_Source\PSoC5/LCD.c **** 
  82:.\Generated_Source\PSoC5/LCD.c **** 
  83:.\Generated_Source\PSoC5/LCD.c **** /*******************************************************************************
  84:.\Generated_Source\PSoC5/LCD.c **** * Function Name: LCD_Enable
  85:.\Generated_Source\PSoC5/LCD.c **** ********************************************************************************
  86:.\Generated_Source\PSoC5/LCD.c **** *
  87:.\Generated_Source\PSoC5/LCD.c **** * Summary:
  88:.\Generated_Source\PSoC5/LCD.c **** *  Turns on the display.
  89:.\Generated_Source\PSoC5/LCD.c **** *
  90:.\Generated_Source\PSoC5/LCD.c **** * Parameters:
  91:.\Generated_Source\PSoC5/LCD.c **** *  None.
  92:.\Generated_Source\PSoC5/LCD.c **** *
  93:.\Generated_Source\PSoC5/LCD.c **** * Return:
  94:.\Generated_Source\PSoC5/LCD.c **** *  None.
  95:.\Generated_Source\PSoC5/LCD.c **** *
  96:.\Generated_Source\PSoC5/LCD.c **** * Reentrant:
  97:.\Generated_Source\PSoC5/LCD.c **** *  No.
  98:.\Generated_Source\PSoC5/LCD.c **** *
  99:.\Generated_Source\PSoC5/LCD.c **** * Theory:
 100:.\Generated_Source\PSoC5/LCD.c **** *  This finction has no effect when it called first time as
 101:.\Generated_Source\PSoC5/LCD.c **** *  LCD_Init() turns on the LCD.
 102:.\Generated_Source\PSoC5/LCD.c **** *
 103:.\Generated_Source\PSoC5/LCD.c **** *******************************************************************************/
 104:.\Generated_Source\PSoC5/LCD.c **** void LCD_Enable(void) 
 105:.\Generated_Source\PSoC5/LCD.c **** {
 112              		.loc 1 105 0
 113              		.cfi_startproc
 114              		@ args = 0, pretend = 0, frame = 0
 115              		@ frame_needed = 1, uses_anonymous_args = 0
 116 0000 80B5     		push	{r7, lr}
 117              		.cfi_def_cfa_offset 8
 118              		.cfi_offset 7, -8
 119              		.cfi_offset 14, -4
 120 0002 00AF     		add	r7, sp, #0
 121              		.cfi_def_cfa_register 7
 106:.\Generated_Source\PSoC5/LCD.c ****     LCD_DisplayOn();
 122              		.loc 1 106 0
ARM GAS  C:\Users\xavieran\AppData\Local\Temp\cctyv1P6.s 			page 5


 123 0004 0C20     		movs	r0, #12
 124 0006 FFF7FEFF 		bl	LCD_WriteControl
 107:.\Generated_Source\PSoC5/LCD.c ****     LCD_enableState = 1u;
 125              		.loc 1 107 0
 126 000a 024B     		ldr	r3, .L3
 127 000c 0122     		movs	r2, #1
 128 000e 1A70     		strb	r2, [r3]
 108:.\Generated_Source\PSoC5/LCD.c **** }
 129              		.loc 1 108 0
 130 0010 80BD     		pop	{r7, pc}
 131              	.L4:
 132 0012 00BF     		.align	2
 133              	.L3:
 134 0014 00000000 		.word	LCD_enableState
 135              		.cfi_endproc
 136              	.LFE1:
 137              		.size	LCD_Enable, .-LCD_Enable
 138              		.section	.text.LCD_Start,"ax",%progbits
 139              		.align	2
 140              		.global	LCD_Start
 141              		.thumb
 142              		.thumb_func
 143              		.type	LCD_Start, %function
 144              	LCD_Start:
 145              	.LFB2:
 109:.\Generated_Source\PSoC5/LCD.c **** 
 110:.\Generated_Source\PSoC5/LCD.c **** 
 111:.\Generated_Source\PSoC5/LCD.c **** /*******************************************************************************
 112:.\Generated_Source\PSoC5/LCD.c **** * Function Name: LCD_Start
 113:.\Generated_Source\PSoC5/LCD.c **** ********************************************************************************
 114:.\Generated_Source\PSoC5/LCD.c **** *
 115:.\Generated_Source\PSoC5/LCD.c **** * Summary:
 116:.\Generated_Source\PSoC5/LCD.c **** *  Perform initialization required for components normal work.
 117:.\Generated_Source\PSoC5/LCD.c **** *  This function initializes the LCD hardware module as follows:
 118:.\Generated_Source\PSoC5/LCD.c **** *        Enable 4-bit interface
 119:.\Generated_Source\PSoC5/LCD.c **** *        Clear the display
 120:.\Generated_Source\PSoC5/LCD.c **** *        Enable auto cursor increment
 121:.\Generated_Source\PSoC5/LCD.c **** *        Resets the cursor to start position
 122:.\Generated_Source\PSoC5/LCD.c **** *  Also loads custom character set to LCD if it was defined in the customizer.
 123:.\Generated_Source\PSoC5/LCD.c **** *  If it was not the first call in this project then it just turns on the
 124:.\Generated_Source\PSoC5/LCD.c **** *  display
 125:.\Generated_Source\PSoC5/LCD.c **** *
 126:.\Generated_Source\PSoC5/LCD.c **** *
 127:.\Generated_Source\PSoC5/LCD.c **** * Parameters:
 128:.\Generated_Source\PSoC5/LCD.c **** *  LCD_initVar - global variable.
 129:.\Generated_Source\PSoC5/LCD.c **** *
 130:.\Generated_Source\PSoC5/LCD.c **** * Return:
 131:.\Generated_Source\PSoC5/LCD.c **** *  LCD_initVar - global variable.
 132:.\Generated_Source\PSoC5/LCD.c **** *
 133:.\Generated_Source\PSoC5/LCD.c **** * Reentrant:
 134:.\Generated_Source\PSoC5/LCD.c **** *  No.
 135:.\Generated_Source\PSoC5/LCD.c **** *
 136:.\Generated_Source\PSoC5/LCD.c **** *******************************************************************************/
 137:.\Generated_Source\PSoC5/LCD.c **** void LCD_Start(void) 
 138:.\Generated_Source\PSoC5/LCD.c **** {
 146              		.loc 1 138 0
 147              		.cfi_startproc
ARM GAS  C:\Users\xavieran\AppData\Local\Temp\cctyv1P6.s 			page 6


 148              		@ args = 0, pretend = 0, frame = 0
 149              		@ frame_needed = 1, uses_anonymous_args = 0
 150 0000 80B5     		push	{r7, lr}
 151              		.cfi_def_cfa_offset 8
 152              		.cfi_offset 7, -8
 153              		.cfi_offset 14, -4
 154 0002 00AF     		add	r7, sp, #0
 155              		.cfi_def_cfa_register 7
 139:.\Generated_Source\PSoC5/LCD.c ****     /* If not initialized then perform initialization */
 140:.\Generated_Source\PSoC5/LCD.c ****     if(LCD_initVar == 0u)
 156              		.loc 1 140 0
 157 0004 054B     		ldr	r3, .L7
 158 0006 1B78     		ldrb	r3, [r3]	@ zero_extendqisi2
 159 0008 002B     		cmp	r3, #0
 160 000a 04D1     		bne	.L6
 141:.\Generated_Source\PSoC5/LCD.c ****     {
 142:.\Generated_Source\PSoC5/LCD.c ****         LCD_Init();
 161              		.loc 1 142 0
 162 000c FFF7FEFF 		bl	LCD_Init
 143:.\Generated_Source\PSoC5/LCD.c ****         LCD_initVar = 1u;
 163              		.loc 1 143 0
 164 0010 024B     		ldr	r3, .L7
 165 0012 0122     		movs	r2, #1
 166 0014 1A70     		strb	r2, [r3]
 167              	.L6:
 144:.\Generated_Source\PSoC5/LCD.c ****     }
 145:.\Generated_Source\PSoC5/LCD.c **** 
 146:.\Generated_Source\PSoC5/LCD.c ****     /* Turn on the LCD */
 147:.\Generated_Source\PSoC5/LCD.c ****     LCD_Enable();
 168              		.loc 1 147 0
 169 0016 FFF7FEFF 		bl	LCD_Enable
 148:.\Generated_Source\PSoC5/LCD.c **** }
 170              		.loc 1 148 0
 171 001a 80BD     		pop	{r7, pc}
 172              	.L8:
 173              		.align	2
 174              	.L7:
 175 001c 00000000 		.word	LCD_initVar
 176              		.cfi_endproc
 177              	.LFE2:
 178              		.size	LCD_Start, .-LCD_Start
 179              		.section	.text.LCD_Stop,"ax",%progbits
 180              		.align	2
 181              		.global	LCD_Stop
 182              		.thumb
 183              		.thumb_func
 184              		.type	LCD_Stop, %function
 185              	LCD_Stop:
 186              	.LFB3:
 149:.\Generated_Source\PSoC5/LCD.c **** 
 150:.\Generated_Source\PSoC5/LCD.c **** 
 151:.\Generated_Source\PSoC5/LCD.c **** /*******************************************************************************
 152:.\Generated_Source\PSoC5/LCD.c **** * Function Name: LCD_Stop
 153:.\Generated_Source\PSoC5/LCD.c **** ********************************************************************************
 154:.\Generated_Source\PSoC5/LCD.c **** *
 155:.\Generated_Source\PSoC5/LCD.c **** * Summary:
 156:.\Generated_Source\PSoC5/LCD.c **** *  Turns off the display of the LCD screen.
ARM GAS  C:\Users\xavieran\AppData\Local\Temp\cctyv1P6.s 			page 7


 157:.\Generated_Source\PSoC5/LCD.c **** *
 158:.\Generated_Source\PSoC5/LCD.c **** * Parameters:
 159:.\Generated_Source\PSoC5/LCD.c **** *  None.
 160:.\Generated_Source\PSoC5/LCD.c **** *
 161:.\Generated_Source\PSoC5/LCD.c **** * Return:
 162:.\Generated_Source\PSoC5/LCD.c **** *  None.
 163:.\Generated_Source\PSoC5/LCD.c **** *
 164:.\Generated_Source\PSoC5/LCD.c **** * Reentrant:
 165:.\Generated_Source\PSoC5/LCD.c **** *  No.
 166:.\Generated_Source\PSoC5/LCD.c **** *
 167:.\Generated_Source\PSoC5/LCD.c **** *******************************************************************************/
 168:.\Generated_Source\PSoC5/LCD.c **** void LCD_Stop(void) 
 169:.\Generated_Source\PSoC5/LCD.c **** {
 187              		.loc 1 169 0
 188              		.cfi_startproc
 189              		@ args = 0, pretend = 0, frame = 0
 190              		@ frame_needed = 1, uses_anonymous_args = 0
 191 0000 80B5     		push	{r7, lr}
 192              		.cfi_def_cfa_offset 8
 193              		.cfi_offset 7, -8
 194              		.cfi_offset 14, -4
 195 0002 00AF     		add	r7, sp, #0
 196              		.cfi_def_cfa_register 7
 170:.\Generated_Source\PSoC5/LCD.c ****     /* Calls LCD Off Macro */
 171:.\Generated_Source\PSoC5/LCD.c ****     LCD_DisplayOff();
 197              		.loc 1 171 0
 198 0004 0820     		movs	r0, #8
 199 0006 FFF7FEFF 		bl	LCD_WriteControl
 172:.\Generated_Source\PSoC5/LCD.c ****     LCD_enableState = 0u;
 200              		.loc 1 172 0
 201 000a 024B     		ldr	r3, .L10
 202 000c 0022     		movs	r2, #0
 203 000e 1A70     		strb	r2, [r3]
 173:.\Generated_Source\PSoC5/LCD.c **** }
 204              		.loc 1 173 0
 205 0010 80BD     		pop	{r7, pc}
 206              	.L11:
 207 0012 00BF     		.align	2
 208              	.L10:
 209 0014 00000000 		.word	LCD_enableState
 210              		.cfi_endproc
 211              	.LFE3:
 212              		.size	LCD_Stop, .-LCD_Stop
 213              		.section	.text.LCD_Position,"ax",%progbits
 214              		.align	2
 215              		.global	LCD_Position
 216              		.thumb
 217              		.thumb_func
 218              		.type	LCD_Position, %function
 219              	LCD_Position:
 220              	.LFB4:
 174:.\Generated_Source\PSoC5/LCD.c **** 
 175:.\Generated_Source\PSoC5/LCD.c **** 
 176:.\Generated_Source\PSoC5/LCD.c **** /*******************************************************************************
 177:.\Generated_Source\PSoC5/LCD.c **** *  Function Name: LCD_Position
 178:.\Generated_Source\PSoC5/LCD.c **** ********************************************************************************
 179:.\Generated_Source\PSoC5/LCD.c **** *
ARM GAS  C:\Users\xavieran\AppData\Local\Temp\cctyv1P6.s 			page 8


 180:.\Generated_Source\PSoC5/LCD.c **** * Summary:
 181:.\Generated_Source\PSoC5/LCD.c **** *  Moves active cursor location to a point specified by the input arguments
 182:.\Generated_Source\PSoC5/LCD.c **** *
 183:.\Generated_Source\PSoC5/LCD.c **** * Parameters:
 184:.\Generated_Source\PSoC5/LCD.c **** *  row:     Specific row of LCD module to be written
 185:.\Generated_Source\PSoC5/LCD.c **** *  column:  Column of LCD module to be written
 186:.\Generated_Source\PSoC5/LCD.c **** *
 187:.\Generated_Source\PSoC5/LCD.c **** * Return:
 188:.\Generated_Source\PSoC5/LCD.c **** *  None.
 189:.\Generated_Source\PSoC5/LCD.c **** *
 190:.\Generated_Source\PSoC5/LCD.c **** * Note:
 191:.\Generated_Source\PSoC5/LCD.c **** *  This only applies for LCD displays which use the 2X40 address mode.
 192:.\Generated_Source\PSoC5/LCD.c **** *  This results in Row 2 offset from row one by 0x28.
 193:.\Generated_Source\PSoC5/LCD.c **** *  When there are more than 2 rows, each row must be fewer than 20 characters.
 194:.\Generated_Source\PSoC5/LCD.c **** *
 195:.\Generated_Source\PSoC5/LCD.c **** *******************************************************************************/
 196:.\Generated_Source\PSoC5/LCD.c **** void LCD_Position(uint8 row, uint8 column) 
 197:.\Generated_Source\PSoC5/LCD.c **** {
 221              		.loc 1 197 0
 222              		.cfi_startproc
 223              		@ args = 0, pretend = 0, frame = 8
 224              		@ frame_needed = 1, uses_anonymous_args = 0
 225 0000 80B5     		push	{r7, lr}
 226              		.cfi_def_cfa_offset 8
 227              		.cfi_offset 7, -8
 228              		.cfi_offset 14, -4
 229 0002 82B0     		sub	sp, sp, #8
 230              		.cfi_def_cfa_offset 16
 231 0004 00AF     		add	r7, sp, #0
 232              		.cfi_def_cfa_register 7
 233 0006 0246     		mov	r2, r0
 234 0008 0B46     		mov	r3, r1
 235 000a FA71     		strb	r2, [r7, #7]
 236 000c BB71     		strb	r3, [r7, #6]
 198:.\Generated_Source\PSoC5/LCD.c ****     switch (row)
 237              		.loc 1 198 0
 238 000e FB79     		ldrb	r3, [r7, #7]	@ zero_extendqisi2
 239 0010 032B     		cmp	r3, #3
 240 0012 27D8     		bhi	.L20
 241 0014 01A2     		adr	r2, .L15
 242 0016 52F823F0 		ldr	pc, [r2, r3, lsl #2]
 243 001a 00BF     		.p2align 2
 244              	.L15:
 245 001c 2D000000 		.word	.L14+1
 246 0020 3B000000 		.word	.L16+1
 247 0024 49000000 		.word	.L17+1
 248 0028 57000000 		.word	.L18+1
 249              		.p2align 1
 250              	.L14:
 199:.\Generated_Source\PSoC5/LCD.c ****     {
 200:.\Generated_Source\PSoC5/LCD.c ****         case (uint8)0:
 201:.\Generated_Source\PSoC5/LCD.c ****             LCD_WriteControl(LCD_ROW_0_START + column);
 251              		.loc 1 201 0
 252 002c BB79     		ldrb	r3, [r7, #6]
 253 002e 803B     		subs	r3, r3, #128
 254 0030 DBB2     		uxtb	r3, r3
 255 0032 1846     		mov	r0, r3
ARM GAS  C:\Users\xavieran\AppData\Local\Temp\cctyv1P6.s 			page 9


 256 0034 FFF7FEFF 		bl	LCD_WriteControl
 202:.\Generated_Source\PSoC5/LCD.c ****             break;
 257              		.loc 1 202 0
 258 0038 15E0     		b	.L12
 259              	.L16:
 203:.\Generated_Source\PSoC5/LCD.c ****         case (uint8) 1:
 204:.\Generated_Source\PSoC5/LCD.c ****             LCD_WriteControl(LCD_ROW_1_START + column);
 260              		.loc 1 204 0
 261 003a BB79     		ldrb	r3, [r7, #6]
 262 003c 403B     		subs	r3, r3, #64
 263 003e DBB2     		uxtb	r3, r3
 264 0040 1846     		mov	r0, r3
 265 0042 FFF7FEFF 		bl	LCD_WriteControl
 205:.\Generated_Source\PSoC5/LCD.c ****             break;
 266              		.loc 1 205 0
 267 0046 0EE0     		b	.L12
 268              	.L17:
 206:.\Generated_Source\PSoC5/LCD.c ****         case (uint8) 2:
 207:.\Generated_Source\PSoC5/LCD.c ****             LCD_WriteControl(LCD_ROW_2_START + column);
 269              		.loc 1 207 0
 270 0048 BB79     		ldrb	r3, [r7, #6]
 271 004a 6C3B     		subs	r3, r3, #108
 272 004c DBB2     		uxtb	r3, r3
 273 004e 1846     		mov	r0, r3
 274 0050 FFF7FEFF 		bl	LCD_WriteControl
 208:.\Generated_Source\PSoC5/LCD.c ****             break;
 275              		.loc 1 208 0
 276 0054 07E0     		b	.L12
 277              	.L18:
 209:.\Generated_Source\PSoC5/LCD.c ****         case (uint8) 3:
 210:.\Generated_Source\PSoC5/LCD.c ****             LCD_WriteControl(LCD_ROW_3_START + column);
 278              		.loc 1 210 0
 279 0056 BB79     		ldrb	r3, [r7, #6]
 280 0058 2C3B     		subs	r3, r3, #44
 281 005a DBB2     		uxtb	r3, r3
 282 005c 1846     		mov	r0, r3
 283 005e FFF7FEFF 		bl	LCD_WriteControl
 211:.\Generated_Source\PSoC5/LCD.c ****             break;
 284              		.loc 1 211 0
 285 0062 00E0     		b	.L12
 286              	.L20:
 212:.\Generated_Source\PSoC5/LCD.c ****         default:
 213:.\Generated_Source\PSoC5/LCD.c ****             /* if default case is hit, invalid row argument was passed.*/
 214:.\Generated_Source\PSoC5/LCD.c ****             break;
 287              		.loc 1 214 0
 288 0064 00BF     		nop
 289              	.L12:
 215:.\Generated_Source\PSoC5/LCD.c ****     }
 216:.\Generated_Source\PSoC5/LCD.c **** }
 290              		.loc 1 216 0
 291 0066 0837     		adds	r7, r7, #8
 292 0068 BD46     		mov	sp, r7
 293              		@ sp needed
 294 006a 80BD     		pop	{r7, pc}
 295              		.cfi_endproc
 296              	.LFE4:
 297              		.size	LCD_Position, .-LCD_Position
ARM GAS  C:\Users\xavieran\AppData\Local\Temp\cctyv1P6.s 			page 10


 298              		.section	.text.LCD_PrintString,"ax",%progbits
 299              		.align	2
 300              		.global	LCD_PrintString
 301              		.thumb
 302              		.thumb_func
 303              		.type	LCD_PrintString, %function
 304              	LCD_PrintString:
 305              	.LFB5:
 217:.\Generated_Source\PSoC5/LCD.c **** 
 218:.\Generated_Source\PSoC5/LCD.c **** 
 219:.\Generated_Source\PSoC5/LCD.c **** /*******************************************************************************
 220:.\Generated_Source\PSoC5/LCD.c **** * Function Name: LCD_PrintString
 221:.\Generated_Source\PSoC5/LCD.c **** ********************************************************************************
 222:.\Generated_Source\PSoC5/LCD.c **** *
 223:.\Generated_Source\PSoC5/LCD.c **** * Summary:
 224:.\Generated_Source\PSoC5/LCD.c **** *  Writes a zero terminated string to the LCD.
 225:.\Generated_Source\PSoC5/LCD.c **** *
 226:.\Generated_Source\PSoC5/LCD.c **** * Parameters:
 227:.\Generated_Source\PSoC5/LCD.c **** *  string:  pointer to head of char8 array to be written to the LCD module
 228:.\Generated_Source\PSoC5/LCD.c **** *
 229:.\Generated_Source\PSoC5/LCD.c **** * Return:
 230:.\Generated_Source\PSoC5/LCD.c **** *  None.
 231:.\Generated_Source\PSoC5/LCD.c **** *
 232:.\Generated_Source\PSoC5/LCD.c **** *******************************************************************************/
 233:.\Generated_Source\PSoC5/LCD.c **** void LCD_PrintString(char8 const string[]) 
 234:.\Generated_Source\PSoC5/LCD.c **** {
 306              		.loc 1 234 0
 307              		.cfi_startproc
 308              		@ args = 0, pretend = 0, frame = 16
 309              		@ frame_needed = 1, uses_anonymous_args = 0
 310 0000 80B5     		push	{r7, lr}
 311              		.cfi_def_cfa_offset 8
 312              		.cfi_offset 7, -8
 313              		.cfi_offset 14, -4
 314 0002 84B0     		sub	sp, sp, #16
 315              		.cfi_def_cfa_offset 24
 316 0004 00AF     		add	r7, sp, #0
 317              		.cfi_def_cfa_register 7
 318 0006 7860     		str	r0, [r7, #4]
 235:.\Generated_Source\PSoC5/LCD.c ****     uint8 indexU8 = 1u;
 319              		.loc 1 235 0
 320 0008 0123     		movs	r3, #1
 321 000a FB73     		strb	r3, [r7, #15]
 236:.\Generated_Source\PSoC5/LCD.c ****     char8 current = *string;
 322              		.loc 1 236 0
 323 000c 7B68     		ldr	r3, [r7, #4]
 324 000e 1B78     		ldrb	r3, [r3]
 325 0010 BB73     		strb	r3, [r7, #14]
 237:.\Generated_Source\PSoC5/LCD.c **** 
 238:.\Generated_Source\PSoC5/LCD.c ****     /* Until null is reached, print next character */
 239:.\Generated_Source\PSoC5/LCD.c ****     while((char8) '\0' != current)
 326              		.loc 1 239 0
 327 0012 0BE0     		b	.L22
 328              	.L23:
 240:.\Generated_Source\PSoC5/LCD.c ****     {
 241:.\Generated_Source\PSoC5/LCD.c ****         LCD_WriteData((uint8)current);
 329              		.loc 1 241 0
ARM GAS  C:\Users\xavieran\AppData\Local\Temp\cctyv1P6.s 			page 11


 330 0014 BB7B     		ldrb	r3, [r7, #14]	@ zero_extendqisi2
 331 0016 1846     		mov	r0, r3
 332 0018 FFF7FEFF 		bl	LCD_WriteData
 242:.\Generated_Source\PSoC5/LCD.c ****         current = string[indexU8];
 333              		.loc 1 242 0
 334 001c FB7B     		ldrb	r3, [r7, #15]	@ zero_extendqisi2
 335 001e 7A68     		ldr	r2, [r7, #4]
 336 0020 1344     		add	r3, r3, r2
 337 0022 1B78     		ldrb	r3, [r3]
 338 0024 BB73     		strb	r3, [r7, #14]
 243:.\Generated_Source\PSoC5/LCD.c ****         indexU8++;
 339              		.loc 1 243 0
 340 0026 FB7B     		ldrb	r3, [r7, #15]	@ zero_extendqisi2
 341 0028 0133     		adds	r3, r3, #1
 342 002a FB73     		strb	r3, [r7, #15]
 343              	.L22:
 239:.\Generated_Source\PSoC5/LCD.c ****     while((char8) '\0' != current)
 344              		.loc 1 239 0 discriminator 1
 345 002c BB7B     		ldrb	r3, [r7, #14]	@ zero_extendqisi2
 346 002e 002B     		cmp	r3, #0
 347 0030 F0D1     		bne	.L23
 244:.\Generated_Source\PSoC5/LCD.c ****     }
 245:.\Generated_Source\PSoC5/LCD.c **** }
 348              		.loc 1 245 0
 349 0032 1037     		adds	r7, r7, #16
 350 0034 BD46     		mov	sp, r7
 351              		@ sp needed
 352 0036 80BD     		pop	{r7, pc}
 353              		.cfi_endproc
 354              	.LFE5:
 355              		.size	LCD_PrintString, .-LCD_PrintString
 356              		.section	.text.LCD_PutChar,"ax",%progbits
 357              		.align	2
 358              		.global	LCD_PutChar
 359              		.thumb
 360              		.thumb_func
 361              		.type	LCD_PutChar, %function
 362              	LCD_PutChar:
 363              	.LFB6:
 246:.\Generated_Source\PSoC5/LCD.c **** 
 247:.\Generated_Source\PSoC5/LCD.c **** 
 248:.\Generated_Source\PSoC5/LCD.c **** /*******************************************************************************
 249:.\Generated_Source\PSoC5/LCD.c **** *  Function Name: LCD_PutChar
 250:.\Generated_Source\PSoC5/LCD.c **** ********************************************************************************
 251:.\Generated_Source\PSoC5/LCD.c **** *
 252:.\Generated_Source\PSoC5/LCD.c **** * Summary:
 253:.\Generated_Source\PSoC5/LCD.c **** *  Writes a single character to the current cursor position of the LCD module.
 254:.\Generated_Source\PSoC5/LCD.c **** *  Custom character names (_CUSTOM_0 through
 255:.\Generated_Source\PSoC5/LCD.c **** *  _CUSTOM_7) are acceptable as inputs.
 256:.\Generated_Source\PSoC5/LCD.c **** *
 257:.\Generated_Source\PSoC5/LCD.c **** * Parameters:
 258:.\Generated_Source\PSoC5/LCD.c **** *  character:  character to be written to the LCD
 259:.\Generated_Source\PSoC5/LCD.c **** *
 260:.\Generated_Source\PSoC5/LCD.c **** * Return:
 261:.\Generated_Source\PSoC5/LCD.c **** *  None.
 262:.\Generated_Source\PSoC5/LCD.c **** *
 263:.\Generated_Source\PSoC5/LCD.c **** *******************************************************************************/
ARM GAS  C:\Users\xavieran\AppData\Local\Temp\cctyv1P6.s 			page 12


 264:.\Generated_Source\PSoC5/LCD.c **** void LCD_PutChar(char8 character) 
 265:.\Generated_Source\PSoC5/LCD.c **** {
 364              		.loc 1 265 0
 365              		.cfi_startproc
 366              		@ args = 0, pretend = 0, frame = 8
 367              		@ frame_needed = 1, uses_anonymous_args = 0
 368 0000 80B5     		push	{r7, lr}
 369              		.cfi_def_cfa_offset 8
 370              		.cfi_offset 7, -8
 371              		.cfi_offset 14, -4
 372 0002 82B0     		sub	sp, sp, #8
 373              		.cfi_def_cfa_offset 16
 374 0004 00AF     		add	r7, sp, #0
 375              		.cfi_def_cfa_register 7
 376 0006 0346     		mov	r3, r0
 377 0008 FB71     		strb	r3, [r7, #7]
 266:.\Generated_Source\PSoC5/LCD.c ****     LCD_WriteData((uint8)character);
 378              		.loc 1 266 0
 379 000a FB79     		ldrb	r3, [r7, #7]	@ zero_extendqisi2
 380 000c 1846     		mov	r0, r3
 381 000e FFF7FEFF 		bl	LCD_WriteData
 267:.\Generated_Source\PSoC5/LCD.c **** }
 382              		.loc 1 267 0
 383 0012 0837     		adds	r7, r7, #8
 384 0014 BD46     		mov	sp, r7
 385              		@ sp needed
 386 0016 80BD     		pop	{r7, pc}
 387              		.cfi_endproc
 388              	.LFE6:
 389              		.size	LCD_PutChar, .-LCD_PutChar
 390              		.section	.text.LCD_WriteData,"ax",%progbits
 391              		.align	2
 392              		.global	LCD_WriteData
 393              		.thumb
 394              		.thumb_func
 395              		.type	LCD_WriteData, %function
 396              	LCD_WriteData:
 397              	.LFB7:
 268:.\Generated_Source\PSoC5/LCD.c **** 
 269:.\Generated_Source\PSoC5/LCD.c **** 
 270:.\Generated_Source\PSoC5/LCD.c **** /*******************************************************************************
 271:.\Generated_Source\PSoC5/LCD.c **** *  Function Name: LCD_WriteData
 272:.\Generated_Source\PSoC5/LCD.c **** ********************************************************************************
 273:.\Generated_Source\PSoC5/LCD.c **** *
 274:.\Generated_Source\PSoC5/LCD.c **** * Summary:
 275:.\Generated_Source\PSoC5/LCD.c **** *  Writes a data byte to the LCD module's Data Display RAM.
 276:.\Generated_Source\PSoC5/LCD.c **** *
 277:.\Generated_Source\PSoC5/LCD.c **** * Parameters:
 278:.\Generated_Source\PSoC5/LCD.c **** *  dByte:  byte to be written to LCD module.
 279:.\Generated_Source\PSoC5/LCD.c **** *
 280:.\Generated_Source\PSoC5/LCD.c **** * Return:
 281:.\Generated_Source\PSoC5/LCD.c **** *  None.
 282:.\Generated_Source\PSoC5/LCD.c **** *
 283:.\Generated_Source\PSoC5/LCD.c **** *******************************************************************************/
 284:.\Generated_Source\PSoC5/LCD.c **** void LCD_WriteData(uint8 dByte) 
 285:.\Generated_Source\PSoC5/LCD.c **** {
 398              		.loc 1 285 0
ARM GAS  C:\Users\xavieran\AppData\Local\Temp\cctyv1P6.s 			page 13


 399              		.cfi_startproc
 400              		@ args = 0, pretend = 0, frame = 16
 401              		@ frame_needed = 1, uses_anonymous_args = 0
 402 0000 80B5     		push	{r7, lr}
 403              		.cfi_def_cfa_offset 8
 404              		.cfi_offset 7, -8
 405              		.cfi_offset 14, -4
 406 0002 84B0     		sub	sp, sp, #16
 407              		.cfi_def_cfa_offset 24
 408 0004 00AF     		add	r7, sp, #0
 409              		.cfi_def_cfa_register 7
 410 0006 0346     		mov	r3, r0
 411 0008 FB71     		strb	r3, [r7, #7]
 286:.\Generated_Source\PSoC5/LCD.c ****     uint8 nibble;
 287:.\Generated_Source\PSoC5/LCD.c **** 
 288:.\Generated_Source\PSoC5/LCD.c ****     /* Write high nibble */
 289:.\Generated_Source\PSoC5/LCD.c **** 	nibble = dByte >> LCD_NIBBLE_SHIFT;
 412              		.loc 1 289 0
 413 000a FB79     		ldrb	r3, [r7, #7]	@ zero_extendqisi2
 414 000c 1B09     		lsrs	r3, r3, #4
 415 000e FB73     		strb	r3, [r7, #15]
 290:.\Generated_Source\PSoC5/LCD.c ****     LCD_WrDatNib(nibble);
 416              		.loc 1 290 0
 417 0010 FB7B     		ldrb	r3, [r7, #15]	@ zero_extendqisi2
 418 0012 1846     		mov	r0, r3
 419 0014 FFF7FEFF 		bl	LCD_WrDatNib
 291:.\Generated_Source\PSoC5/LCD.c **** 
 292:.\Generated_Source\PSoC5/LCD.c ****      CyDelayUs(LCD_NIB_DELAY_US);
 420              		.loc 1 292 0
 421 0018 6420     		movs	r0, #100
 422 001a FFF7FEFF 		bl	CyDelayUs
 293:.\Generated_Source\PSoC5/LCD.c **** 	 
 294:.\Generated_Source\PSoC5/LCD.c ****     /* Write low nibble */
 295:.\Generated_Source\PSoC5/LCD.c **** 	nibble = dByte & LCD_NIBBLE_MASK;
 423              		.loc 1 295 0
 424 001e FB79     		ldrb	r3, [r7, #7]
 425 0020 03F00F03 		and	r3, r3, #15
 426 0024 FB73     		strb	r3, [r7, #15]
 296:.\Generated_Source\PSoC5/LCD.c ****     LCD_WrDatNib(nibble);
 427              		.loc 1 296 0
 428 0026 FB7B     		ldrb	r3, [r7, #15]	@ zero_extendqisi2
 429 0028 1846     		mov	r0, r3
 430 002a FFF7FEFF 		bl	LCD_WrDatNib
 297:.\Generated_Source\PSoC5/LCD.c **** 	
 298:.\Generated_Source\PSoC5/LCD.c **** 	CyDelayUs(LCD_DATA_DELAY_US);
 431              		.loc 1 298 0
 432 002e 9620     		movs	r0, #150
 433 0030 FFF7FEFF 		bl	CyDelayUs
 299:.\Generated_Source\PSoC5/LCD.c **** 
 300:.\Generated_Source\PSoC5/LCD.c **** }
 434              		.loc 1 300 0
 435 0034 1037     		adds	r7, r7, #16
 436 0036 BD46     		mov	sp, r7
 437              		@ sp needed
 438 0038 80BD     		pop	{r7, pc}
 439              		.cfi_endproc
 440              	.LFE7:
ARM GAS  C:\Users\xavieran\AppData\Local\Temp\cctyv1P6.s 			page 14


 441              		.size	LCD_WriteData, .-LCD_WriteData
 442 003a 00BF     		.section	.text.LCD_WriteControl,"ax",%progbits
 443              		.align	2
 444              		.global	LCD_WriteControl
 445              		.thumb
 446              		.thumb_func
 447              		.type	LCD_WriteControl, %function
 448              	LCD_WriteControl:
 449              	.LFB8:
 301:.\Generated_Source\PSoC5/LCD.c **** 
 302:.\Generated_Source\PSoC5/LCD.c **** 
 303:.\Generated_Source\PSoC5/LCD.c **** /*******************************************************************************
 304:.\Generated_Source\PSoC5/LCD.c **** *  Function Name: LCD_WriteControl
 305:.\Generated_Source\PSoC5/LCD.c **** ********************************************************************************
 306:.\Generated_Source\PSoC5/LCD.c **** *
 307:.\Generated_Source\PSoC5/LCD.c **** * Summary:
 308:.\Generated_Source\PSoC5/LCD.c **** *  Writes a command byte to the LCD module.
 309:.\Generated_Source\PSoC5/LCD.c **** *
 310:.\Generated_Source\PSoC5/LCD.c **** * Parameters:
 311:.\Generated_Source\PSoC5/LCD.c **** *  cByte:   byte to be written to LCD module.
 312:.\Generated_Source\PSoC5/LCD.c **** *
 313:.\Generated_Source\PSoC5/LCD.c **** * Return:
 314:.\Generated_Source\PSoC5/LCD.c **** *  None.
 315:.\Generated_Source\PSoC5/LCD.c **** *
 316:.\Generated_Source\PSoC5/LCD.c **** *******************************************************************************/
 317:.\Generated_Source\PSoC5/LCD.c **** void LCD_WriteControl(uint8 cByte) 
 318:.\Generated_Source\PSoC5/LCD.c **** {
 450              		.loc 1 318 0
 451              		.cfi_startproc
 452              		@ args = 0, pretend = 0, frame = 16
 453              		@ frame_needed = 1, uses_anonymous_args = 0
 454 0000 80B5     		push	{r7, lr}
 455              		.cfi_def_cfa_offset 8
 456              		.cfi_offset 7, -8
 457              		.cfi_offset 14, -4
 458 0002 84B0     		sub	sp, sp, #16
 459              		.cfi_def_cfa_offset 24
 460 0004 00AF     		add	r7, sp, #0
 461              		.cfi_def_cfa_register 7
 462 0006 0346     		mov	r3, r0
 463 0008 FB71     		strb	r3, [r7, #7]
 319:.\Generated_Source\PSoC5/LCD.c ****     uint8 nibble;
 320:.\Generated_Source\PSoC5/LCD.c **** 
 321:.\Generated_Source\PSoC5/LCD.c ****     /* WrCntrlNib(High Nibble) */
 322:.\Generated_Source\PSoC5/LCD.c **** 	 nibble = cByte >> LCD_NIBBLE_SHIFT;
 464              		.loc 1 322 0
 465 000a FB79     		ldrb	r3, [r7, #7]	@ zero_extendqisi2
 466 000c 1B09     		lsrs	r3, r3, #4
 467 000e FB73     		strb	r3, [r7, #15]
 323:.\Generated_Source\PSoC5/LCD.c ****     LCD_WrCntrlNib(nibble);
 468              		.loc 1 323 0
 469 0010 FB7B     		ldrb	r3, [r7, #15]	@ zero_extendqisi2
 470 0012 1846     		mov	r0, r3
 471 0014 FFF7FEFF 		bl	LCD_WrCntrlNib
 324:.\Generated_Source\PSoC5/LCD.c **** 
 325:.\Generated_Source\PSoC5/LCD.c ****     CyDelayUs(LCD_NIB_DELAY_US);
 472              		.loc 1 325 0
ARM GAS  C:\Users\xavieran\AppData\Local\Temp\cctyv1P6.s 			page 15


 473 0018 6420     		movs	r0, #100
 474 001a FFF7FEFF 		bl	CyDelayUs
 326:.\Generated_Source\PSoC5/LCD.c **** 	
 327:.\Generated_Source\PSoC5/LCD.c ****     /* WrCntrlNib(Low Nibble) */
 328:.\Generated_Source\PSoC5/LCD.c **** 	nibble = cByte & LCD_NIBBLE_MASK;
 475              		.loc 1 328 0
 476 001e FB79     		ldrb	r3, [r7, #7]
 477 0020 03F00F03 		and	r3, r3, #15
 478 0024 FB73     		strb	r3, [r7, #15]
 329:.\Generated_Source\PSoC5/LCD.c ****     LCD_WrCntrlNib(nibble);
 479              		.loc 1 329 0
 480 0026 FB7B     		ldrb	r3, [r7, #15]	@ zero_extendqisi2
 481 0028 1846     		mov	r0, r3
 482 002a FFF7FEFF 		bl	LCD_WrCntrlNib
 330:.\Generated_Source\PSoC5/LCD.c **** 
 331:.\Generated_Source\PSoC5/LCD.c ****      CyDelayUs(LCD_CMD_DELAY_US);
 483              		.loc 1 331 0
 484 002e 40F6C410 		movw	r0, #2500
 485 0032 FFF7FEFF 		bl	CyDelayUs
 332:.\Generated_Source\PSoC5/LCD.c **** }
 486              		.loc 1 332 0
 487 0036 1037     		adds	r7, r7, #16
 488 0038 BD46     		mov	sp, r7
 489              		@ sp needed
 490 003a 80BD     		pop	{r7, pc}
 491              		.cfi_endproc
 492              	.LFE8:
 493              		.size	LCD_WriteControl, .-LCD_WriteControl
 494              		.section	.text.LCD_IsReady,"ax",%progbits
 495              		.align	2
 496              		.global	LCD_IsReady
 497              		.thumb
 498              		.thumb_func
 499              		.type	LCD_IsReady, %function
 500              	LCD_IsReady:
 501              	.LFB9:
 333:.\Generated_Source\PSoC5/LCD.c **** 
 334:.\Generated_Source\PSoC5/LCD.c **** 
 335:.\Generated_Source\PSoC5/LCD.c **** /*******************************************************************************
 336:.\Generated_Source\PSoC5/LCD.c **** * Function Name: LCD_IsReady
 337:.\Generated_Source\PSoC5/LCD.c **** ********************************************************************************
 338:.\Generated_Source\PSoC5/LCD.c **** *
 339:.\Generated_Source\PSoC5/LCD.c **** * Summary:
 340:.\Generated_Source\PSoC5/LCD.c **** *  Polls LCD until the ready bit is set.
 341:.\Generated_Source\PSoC5/LCD.c **** *
 342:.\Generated_Source\PSoC5/LCD.c **** * Parameters:
 343:.\Generated_Source\PSoC5/LCD.c **** *  None.
 344:.\Generated_Source\PSoC5/LCD.c **** *
 345:.\Generated_Source\PSoC5/LCD.c **** * Return:
 346:.\Generated_Source\PSoC5/LCD.c **** *  None.
 347:.\Generated_Source\PSoC5/LCD.c **** *
 348:.\Generated_Source\PSoC5/LCD.c **** * Note:
 349:.\Generated_Source\PSoC5/LCD.c **** *  Changes pins to High-Z.
 350:.\Generated_Source\PSoC5/LCD.c **** *
 351:.\Generated_Source\PSoC5/LCD.c **** *******************************************************************************/
 352:.\Generated_Source\PSoC5/LCD.c **** void LCD_IsReady(void) 
 353:.\Generated_Source\PSoC5/LCD.c **** {
ARM GAS  C:\Users\xavieran\AppData\Local\Temp\cctyv1P6.s 			page 16


 502              		.loc 1 353 0
 503              		.cfi_startproc
 504              		@ args = 0, pretend = 0, frame = 0
 505              		@ frame_needed = 1, uses_anonymous_args = 0
 506 0000 80B5     		push	{r7, lr}
 507              		.cfi_def_cfa_offset 8
 508              		.cfi_offset 7, -8
 509              		.cfi_offset 14, -4
 510 0002 00AF     		add	r7, sp, #0
 511              		.cfi_def_cfa_register 7
 354:.\Generated_Source\PSoC5/LCD.c ****    
 355:.\Generated_Source\PSoC5/LCD.c **** 	CyDelay(1u);
 512              		.loc 1 355 0
 513 0004 0120     		movs	r0, #1
 514 0006 FFF7FEFF 		bl	CyDelay
 356:.\Generated_Source\PSoC5/LCD.c **** 	
 357:.\Generated_Source\PSoC5/LCD.c **** }
 515              		.loc 1 357 0
 516 000a 80BD     		pop	{r7, pc}
 517              		.cfi_endproc
 518              	.LFE9:
 519              		.size	LCD_IsReady, .-LCD_IsReady
 520              		.section	.text.LCD_WrDatNib,"ax",%progbits
 521              		.align	2
 522              		.thumb
 523              		.thumb_func
 524              		.type	LCD_WrDatNib, %function
 525              	LCD_WrDatNib:
 526              	.LFB10:
 358:.\Generated_Source\PSoC5/LCD.c **** 
 359:.\Generated_Source\PSoC5/LCD.c **** 
 360:.\Generated_Source\PSoC5/LCD.c **** /*******************************************************************************
 361:.\Generated_Source\PSoC5/LCD.c **** *  Function Name: LCD_WrDatNib
 362:.\Generated_Source\PSoC5/LCD.c **** ********************************************************************************
 363:.\Generated_Source\PSoC5/LCD.c **** *
 364:.\Generated_Source\PSoC5/LCD.c **** * Summary:
 365:.\Generated_Source\PSoC5/LCD.c **** *  Writes a data nibble to the LCD module.
 366:.\Generated_Source\PSoC5/LCD.c **** *
 367:.\Generated_Source\PSoC5/LCD.c **** * Parameters:
 368:.\Generated_Source\PSoC5/LCD.c **** *  nibble:  byte containing nibble in least significant nibble to be written
 369:.\Generated_Source\PSoC5/LCD.c **** *           to LCD module.
 370:.\Generated_Source\PSoC5/LCD.c **** *
 371:.\Generated_Source\PSoC5/LCD.c **** * Return:
 372:.\Generated_Source\PSoC5/LCD.c **** *  None.
 373:.\Generated_Source\PSoC5/LCD.c **** *
 374:.\Generated_Source\PSoC5/LCD.c **** *******************************************************************************/
 375:.\Generated_Source\PSoC5/LCD.c **** static void LCD_WrDatNib(uint8 nibble) 
 376:.\Generated_Source\PSoC5/LCD.c **** {
 527              		.loc 1 376 0
 528              		.cfi_startproc
 529              		@ args = 0, pretend = 0, frame = 8
 530              		@ frame_needed = 1, uses_anonymous_args = 0
 531 0000 80B5     		push	{r7, lr}
 532              		.cfi_def_cfa_offset 8
 533              		.cfi_offset 7, -8
 534              		.cfi_offset 14, -4
 535 0002 82B0     		sub	sp, sp, #8
ARM GAS  C:\Users\xavieran\AppData\Local\Temp\cctyv1P6.s 			page 17


 536              		.cfi_def_cfa_offset 16
 537 0004 00AF     		add	r7, sp, #0
 538              		.cfi_def_cfa_register 7
 539 0006 0346     		mov	r3, r0
 540 0008 FB71     		strb	r3, [r7, #7]
 377:.\Generated_Source\PSoC5/LCD.c **** 
 378:.\Generated_Source\PSoC5/LCD.c ****     /* RS shoul be low to select data register */
 379:.\Generated_Source\PSoC5/LCD.c ****     LCD_CNTL_REG |= LCD_RS;
 541              		.loc 1 379 0
 542 000a 184B     		ldr	r3, .L29
 543 000c 174A     		ldr	r2, .L29
 544 000e 1278     		ldrb	r2, [r2]
 545 0010 D2B2     		uxtb	r2, r2
 546 0012 42F02002 		orr	r2, r2, #32
 547 0016 D2B2     		uxtb	r2, r2
 548 0018 1A70     		strb	r2, [r3]
 380:.\Generated_Source\PSoC5/LCD.c ****     /* Reset RW for write operation */
 381:.\Generated_Source\PSoC5/LCD.c ****     LCD_CNTL_REG &= ~LCD_RW;
 549              		.loc 1 381 0
 550 001a 144B     		ldr	r3, .L29
 551 001c 134A     		ldr	r2, .L29
 552 001e 1278     		ldrb	r2, [r2]
 553 0020 D2B2     		uxtb	r2, r2
 554 0022 22F04002 		bic	r2, r2, #64
 555 0026 D2B2     		uxtb	r2, r2
 556 0028 1A70     		strb	r2, [r3]
 382:.\Generated_Source\PSoC5/LCD.c **** 
 383:.\Generated_Source\PSoC5/LCD.c ****     /* Two following lines of code will provide us with 40ns delay */
 384:.\Generated_Source\PSoC5/LCD.c ****     /* Clear data pins */
 385:.\Generated_Source\PSoC5/LCD.c ****     LCD_CNTL_REG &= ~LCD_DATA_MASK;
 557              		.loc 1 385 0
 558 002a 104B     		ldr	r3, .L29
 559 002c 0F4A     		ldr	r2, .L29
 560 002e 1278     		ldrb	r2, [r2]
 561 0030 D2B2     		uxtb	r2, r2
 562 0032 22F00F02 		bic	r2, r2, #15
 563 0036 D2B2     		uxtb	r2, r2
 564 0038 1A70     		strb	r2, [r3]
 386:.\Generated_Source\PSoC5/LCD.c **** 
 387:.\Generated_Source\PSoC5/LCD.c ****     /* Write in data, bring E high*/
 388:.\Generated_Source\PSoC5/LCD.c ****     LCD_CNTL_REG |= (LCD_E | nibble);
 565              		.loc 1 388 0
 566 003a 0C4B     		ldr	r3, .L29
 567 003c 0B4A     		ldr	r2, .L29
 568 003e 1278     		ldrb	r2, [r2]
 569 0040 D1B2     		uxtb	r1, r2
 570 0042 FA79     		ldrb	r2, [r7, #7]
 571 0044 0A43     		orrs	r2, r2, r1
 572 0046 D2B2     		uxtb	r2, r2
 573 0048 42F01002 		orr	r2, r2, #16
 574 004c D2B2     		uxtb	r2, r2
 575 004e 1A70     		strb	r2, [r3]
 389:.\Generated_Source\PSoC5/LCD.c **** 
 390:.\Generated_Source\PSoC5/LCD.c ****     /* Minimum of 230 ns delay */
 391:.\Generated_Source\PSoC5/LCD.c ****     CyDelayUs(1u);
 576              		.loc 1 391 0
 577 0050 0120     		movs	r0, #1
ARM GAS  C:\Users\xavieran\AppData\Local\Temp\cctyv1P6.s 			page 18


 578 0052 FFF7FEFF 		bl	CyDelayUs
 392:.\Generated_Source\PSoC5/LCD.c **** 
 393:.\Generated_Source\PSoC5/LCD.c ****     LCD_CNTL_REG &= ~LCD_E;
 579              		.loc 1 393 0
 580 0056 054B     		ldr	r3, .L29
 581 0058 044A     		ldr	r2, .L29
 582 005a 1278     		ldrb	r2, [r2]
 583 005c D2B2     		uxtb	r2, r2
 584 005e 22F01002 		bic	r2, r2, #16
 585 0062 D2B2     		uxtb	r2, r2
 586 0064 1A70     		strb	r2, [r3]
 394:.\Generated_Source\PSoC5/LCD.c **** 	
 395:.\Generated_Source\PSoC5/LCD.c **** }
 587              		.loc 1 395 0
 588 0066 0837     		adds	r7, r7, #8
 589 0068 BD46     		mov	sp, r7
 590              		@ sp needed
 591 006a 80BD     		pop	{r7, pc}
 592              	.L30:
 593              		.align	2
 594              	.L29:
 595 006c 71640040 		.word	1073767537
 596              		.cfi_endproc
 597              	.LFE10:
 598              		.size	LCD_WrDatNib, .-LCD_WrDatNib
 599              		.section	.text.LCD_WrCntrlNib,"ax",%progbits
 600              		.align	2
 601              		.thumb
 602              		.thumb_func
 603              		.type	LCD_WrCntrlNib, %function
 604              	LCD_WrCntrlNib:
 605              	.LFB11:
 396:.\Generated_Source\PSoC5/LCD.c **** 
 397:.\Generated_Source\PSoC5/LCD.c **** 
 398:.\Generated_Source\PSoC5/LCD.c **** /*******************************************************************************
 399:.\Generated_Source\PSoC5/LCD.c **** *  Function Name: LCD_WrCntrlNib
 400:.\Generated_Source\PSoC5/LCD.c **** ********************************************************************************
 401:.\Generated_Source\PSoC5/LCD.c **** *
 402:.\Generated_Source\PSoC5/LCD.c **** * Summary:
 403:.\Generated_Source\PSoC5/LCD.c **** *  Writes a control nibble to the LCD module.
 404:.\Generated_Source\PSoC5/LCD.c **** *
 405:.\Generated_Source\PSoC5/LCD.c **** * Parameters:
 406:.\Generated_Source\PSoC5/LCD.c **** *  nibble:  byte containing nibble in least significant nibble to be written
 407:.\Generated_Source\PSoC5/LCD.c **** *           to LCD module.
 408:.\Generated_Source\PSoC5/LCD.c **** *
 409:.\Generated_Source\PSoC5/LCD.c **** * Return:
 410:.\Generated_Source\PSoC5/LCD.c **** *  None.
 411:.\Generated_Source\PSoC5/LCD.c **** *
 412:.\Generated_Source\PSoC5/LCD.c **** *******************************************************************************/
 413:.\Generated_Source\PSoC5/LCD.c **** static void LCD_WrCntrlNib(uint8 nibble) 
 414:.\Generated_Source\PSoC5/LCD.c **** {
 606              		.loc 1 414 0
 607              		.cfi_startproc
 608              		@ args = 0, pretend = 0, frame = 8
 609              		@ frame_needed = 1, uses_anonymous_args = 0
 610 0000 80B5     		push	{r7, lr}
 611              		.cfi_def_cfa_offset 8
ARM GAS  C:\Users\xavieran\AppData\Local\Temp\cctyv1P6.s 			page 19


 612              		.cfi_offset 7, -8
 613              		.cfi_offset 14, -4
 614 0002 82B0     		sub	sp, sp, #8
 615              		.cfi_def_cfa_offset 16
 616 0004 00AF     		add	r7, sp, #0
 617              		.cfi_def_cfa_register 7
 618 0006 0346     		mov	r3, r0
 619 0008 FB71     		strb	r3, [r7, #7]
 415:.\Generated_Source\PSoC5/LCD.c **** 	
 416:.\Generated_Source\PSoC5/LCD.c **** 	/* RS and RW shoul be low to select instruction register and  write operation respectively */
 417:.\Generated_Source\PSoC5/LCD.c ****     LCD_CNTL_REG &= ~(LCD_RS | LCD_RW);
 620              		.loc 1 417 0
 621 000a 144B     		ldr	r3, .L32
 622 000c 134A     		ldr	r2, .L32
 623 000e 1278     		ldrb	r2, [r2]
 624 0010 D2B2     		uxtb	r2, r2
 625 0012 22F06002 		bic	r2, r2, #96
 626 0016 D2B2     		uxtb	r2, r2
 627 0018 1A70     		strb	r2, [r3]
 418:.\Generated_Source\PSoC5/LCD.c **** 
 419:.\Generated_Source\PSoC5/LCD.c ****     /* Two following lines of code will give provide ua with 40ns delay */
 420:.\Generated_Source\PSoC5/LCD.c ****     /* Clear data pins */
 421:.\Generated_Source\PSoC5/LCD.c ****     LCD_CNTL_REG &= ~LCD_DATA_MASK;
 628              		.loc 1 421 0
 629 001a 104B     		ldr	r3, .L32
 630 001c 0F4A     		ldr	r2, .L32
 631 001e 1278     		ldrb	r2, [r2]
 632 0020 D2B2     		uxtb	r2, r2
 633 0022 22F00F02 		bic	r2, r2, #15
 634 0026 D2B2     		uxtb	r2, r2
 635 0028 1A70     		strb	r2, [r3]
 422:.\Generated_Source\PSoC5/LCD.c **** 
 423:.\Generated_Source\PSoC5/LCD.c ****     /* Write control data and set enable signal */
 424:.\Generated_Source\PSoC5/LCD.c ****     LCD_CNTL_REG |= (LCD_E | nibble);
 636              		.loc 1 424 0
 637 002a 0C4B     		ldr	r3, .L32
 638 002c 0B4A     		ldr	r2, .L32
 639 002e 1278     		ldrb	r2, [r2]
 640 0030 D1B2     		uxtb	r1, r2
 641 0032 FA79     		ldrb	r2, [r7, #7]
 642 0034 0A43     		orrs	r2, r2, r1
 643 0036 D2B2     		uxtb	r2, r2
 644 0038 42F01002 		orr	r2, r2, #16
 645 003c D2B2     		uxtb	r2, r2
 646 003e 1A70     		strb	r2, [r3]
 425:.\Generated_Source\PSoC5/LCD.c **** 
 426:.\Generated_Source\PSoC5/LCD.c ****     /* Minimum of 230 ns delay */
 427:.\Generated_Source\PSoC5/LCD.c ****     CyDelayUs(1u);
 647              		.loc 1 427 0
 648 0040 0120     		movs	r0, #1
 649 0042 FFF7FEFF 		bl	CyDelayUs
 428:.\Generated_Source\PSoC5/LCD.c **** 
 429:.\Generated_Source\PSoC5/LCD.c ****     LCD_CNTL_REG &= ~LCD_E;
 650              		.loc 1 429 0
 651 0046 054B     		ldr	r3, .L32
 652 0048 044A     		ldr	r2, .L32
 653 004a 1278     		ldrb	r2, [r2]
ARM GAS  C:\Users\xavieran\AppData\Local\Temp\cctyv1P6.s 			page 20


 654 004c D2B2     		uxtb	r2, r2
 655 004e 22F01002 		bic	r2, r2, #16
 656 0052 D2B2     		uxtb	r2, r2
 657 0054 1A70     		strb	r2, [r3]
 430:.\Generated_Source\PSoC5/LCD.c **** }
 658              		.loc 1 430 0
 659 0056 0837     		adds	r7, r7, #8
 660 0058 BD46     		mov	sp, r7
 661              		@ sp needed
 662 005a 80BD     		pop	{r7, pc}
 663              	.L33:
 664              		.align	2
 665              	.L32:
 666 005c 71640040 		.word	1073767537
 667              		.cfi_endproc
 668              	.LFE11:
 669              		.size	LCD_WrCntrlNib, .-LCD_WrCntrlNib
 670              		.section	.text.LCD_PrintInt8,"ax",%progbits
 671              		.align	2
 672              		.global	LCD_PrintInt8
 673              		.thumb
 674              		.thumb_func
 675              		.type	LCD_PrintInt8, %function
 676              	LCD_PrintInt8:
 677              	.LFB12:
 431:.\Generated_Source\PSoC5/LCD.c **** 
 432:.\Generated_Source\PSoC5/LCD.c **** 
 433:.\Generated_Source\PSoC5/LCD.c **** #if(LCD_CONVERSION_ROUTINES == 1u)
 434:.\Generated_Source\PSoC5/LCD.c **** 
 435:.\Generated_Source\PSoC5/LCD.c ****     /*******************************************************************************
 436:.\Generated_Source\PSoC5/LCD.c ****     *  Function Name: LCD_PrintInt8
 437:.\Generated_Source\PSoC5/LCD.c ****     ********************************************************************************
 438:.\Generated_Source\PSoC5/LCD.c ****     *
 439:.\Generated_Source\PSoC5/LCD.c ****     * Summary:
 440:.\Generated_Source\PSoC5/LCD.c ****     *  Print a byte as two ASCII characters.
 441:.\Generated_Source\PSoC5/LCD.c ****     *
 442:.\Generated_Source\PSoC5/LCD.c ****     * Parameters:
 443:.\Generated_Source\PSoC5/LCD.c ****     *  value:  The byte to be printed out as ASCII characters.
 444:.\Generated_Source\PSoC5/LCD.c ****     *
 445:.\Generated_Source\PSoC5/LCD.c ****     * Return:
 446:.\Generated_Source\PSoC5/LCD.c ****     *  None.
 447:.\Generated_Source\PSoC5/LCD.c ****     *
 448:.\Generated_Source\PSoC5/LCD.c ****     *******************************************************************************/
 449:.\Generated_Source\PSoC5/LCD.c ****     void LCD_PrintInt8(uint8 value) 
 450:.\Generated_Source\PSoC5/LCD.c ****     {
 678              		.loc 1 450 0
 679              		.cfi_startproc
 680              		@ args = 0, pretend = 0, frame = 8
 681              		@ frame_needed = 1, uses_anonymous_args = 0
 682 0000 80B5     		push	{r7, lr}
 683              		.cfi_def_cfa_offset 8
 684              		.cfi_offset 7, -8
 685              		.cfi_offset 14, -4
 686 0002 82B0     		sub	sp, sp, #8
 687              		.cfi_def_cfa_offset 16
 688 0004 00AF     		add	r7, sp, #0
 689              		.cfi_def_cfa_register 7
ARM GAS  C:\Users\xavieran\AppData\Local\Temp\cctyv1P6.s 			page 21


 690 0006 0346     		mov	r3, r0
 691 0008 FB71     		strb	r3, [r7, #7]
 451:.\Generated_Source\PSoC5/LCD.c ****         static char8 const CYCODE LCD_hex[16u] = "0123456789ABCDEF";
 452:.\Generated_Source\PSoC5/LCD.c ****         
 453:.\Generated_Source\PSoC5/LCD.c ****         LCD_PutChar((char8) LCD_hex[value >> LCD_BYTE_UPPER_NIBBLE_SHIFT]);
 692              		.loc 1 453 0
 693 000a FB79     		ldrb	r3, [r7, #7]	@ zero_extendqisi2
 694 000c 1B09     		lsrs	r3, r3, #4
 695 000e DBB2     		uxtb	r3, r3
 696 0010 074A     		ldr	r2, .L35
 697 0012 D35C     		ldrb	r3, [r2, r3]	@ zero_extendqisi2
 698 0014 1846     		mov	r0, r3
 699 0016 FFF7FEFF 		bl	LCD_PutChar
 454:.\Generated_Source\PSoC5/LCD.c ****         LCD_PutChar((char8) LCD_hex[value & LCD_BYTE_LOWER_NIBBLE_MASK]);
 700              		.loc 1 454 0
 701 001a FB79     		ldrb	r3, [r7, #7]	@ zero_extendqisi2
 702 001c 03F00F03 		and	r3, r3, #15
 703 0020 034A     		ldr	r2, .L35
 704 0022 D35C     		ldrb	r3, [r2, r3]	@ zero_extendqisi2
 705 0024 1846     		mov	r0, r3
 706 0026 FFF7FEFF 		bl	LCD_PutChar
 455:.\Generated_Source\PSoC5/LCD.c ****     }
 707              		.loc 1 455 0
 708 002a 0837     		adds	r7, r7, #8
 709 002c BD46     		mov	sp, r7
 710              		@ sp needed
 711 002e 80BD     		pop	{r7, pc}
 712              	.L36:
 713              		.align	2
 714              	.L35:
 715 0030 00000000 		.word	LCD_hex.4900
 716              		.cfi_endproc
 717              	.LFE12:
 718              		.size	LCD_PrintInt8, .-LCD_PrintInt8
 719              		.section	.text.LCD_PrintInt16,"ax",%progbits
 720              		.align	2
 721              		.global	LCD_PrintInt16
 722              		.thumb
 723              		.thumb_func
 724              		.type	LCD_PrintInt16, %function
 725              	LCD_PrintInt16:
 726              	.LFB13:
 456:.\Generated_Source\PSoC5/LCD.c **** 
 457:.\Generated_Source\PSoC5/LCD.c **** 
 458:.\Generated_Source\PSoC5/LCD.c ****     /*******************************************************************************
 459:.\Generated_Source\PSoC5/LCD.c ****     *  Function Name: LCD_PrintInt16
 460:.\Generated_Source\PSoC5/LCD.c ****     ********************************************************************************
 461:.\Generated_Source\PSoC5/LCD.c ****     *
 462:.\Generated_Source\PSoC5/LCD.c ****     * Summary:
 463:.\Generated_Source\PSoC5/LCD.c ****     *  Print a uint16 as four ASCII characters.
 464:.\Generated_Source\PSoC5/LCD.c ****     *
 465:.\Generated_Source\PSoC5/LCD.c ****     * Parameters:
 466:.\Generated_Source\PSoC5/LCD.c ****     *  value:   The uint16 to be printed out as ASCII characters.
 467:.\Generated_Source\PSoC5/LCD.c ****     *
 468:.\Generated_Source\PSoC5/LCD.c ****     * Return:
 469:.\Generated_Source\PSoC5/LCD.c ****     *  None.
 470:.\Generated_Source\PSoC5/LCD.c ****     *
ARM GAS  C:\Users\xavieran\AppData\Local\Temp\cctyv1P6.s 			page 22


 471:.\Generated_Source\PSoC5/LCD.c ****     *******************************************************************************/
 472:.\Generated_Source\PSoC5/LCD.c ****     void LCD_PrintInt16(uint16 value) 
 473:.\Generated_Source\PSoC5/LCD.c ****     {
 727              		.loc 1 473 0
 728              		.cfi_startproc
 729              		@ args = 0, pretend = 0, frame = 8
 730              		@ frame_needed = 1, uses_anonymous_args = 0
 731 0000 80B5     		push	{r7, lr}
 732              		.cfi_def_cfa_offset 8
 733              		.cfi_offset 7, -8
 734              		.cfi_offset 14, -4
 735 0002 82B0     		sub	sp, sp, #8
 736              		.cfi_def_cfa_offset 16
 737 0004 00AF     		add	r7, sp, #0
 738              		.cfi_def_cfa_register 7
 739 0006 0346     		mov	r3, r0
 740 0008 FB80     		strh	r3, [r7, #6]	@ movhi
 474:.\Generated_Source\PSoC5/LCD.c ****         LCD_PrintInt8((uint8)(value >> LCD_U16_UPPER_BYTE_SHIFT));
 741              		.loc 1 474 0
 742 000a FB88     		ldrh	r3, [r7, #6]
 743 000c 1B0A     		lsrs	r3, r3, #8
 744 000e 9BB2     		uxth	r3, r3
 745 0010 DBB2     		uxtb	r3, r3
 746 0012 1846     		mov	r0, r3
 747 0014 FFF7FEFF 		bl	LCD_PrintInt8
 475:.\Generated_Source\PSoC5/LCD.c ****         LCD_PrintInt8((uint8)(value & LCD_U16_LOWER_BYTE_MASK));
 748              		.loc 1 475 0
 749 0018 FB88     		ldrh	r3, [r7, #6]	@ movhi
 750 001a DBB2     		uxtb	r3, r3
 751 001c 1846     		mov	r0, r3
 752 001e FFF7FEFF 		bl	LCD_PrintInt8
 476:.\Generated_Source\PSoC5/LCD.c ****     }
 753              		.loc 1 476 0
 754 0022 0837     		adds	r7, r7, #8
 755 0024 BD46     		mov	sp, r7
 756              		@ sp needed
 757 0026 80BD     		pop	{r7, pc}
 758              		.cfi_endproc
 759              	.LFE13:
 760              		.size	LCD_PrintInt16, .-LCD_PrintInt16
 761              		.section	.text.LCD_PrintNumber,"ax",%progbits
 762              		.align	2
 763              		.global	LCD_PrintNumber
 764              		.thumb
 765              		.thumb_func
 766              		.type	LCD_PrintNumber, %function
 767              	LCD_PrintNumber:
 768              	.LFB14:
 477:.\Generated_Source\PSoC5/LCD.c **** 
 478:.\Generated_Source\PSoC5/LCD.c **** 
 479:.\Generated_Source\PSoC5/LCD.c ****     /*******************************************************************************
 480:.\Generated_Source\PSoC5/LCD.c ****     *  Function Name: LCD_PrintNumber
 481:.\Generated_Source\PSoC5/LCD.c ****     ********************************************************************************
 482:.\Generated_Source\PSoC5/LCD.c ****     *
 483:.\Generated_Source\PSoC5/LCD.c ****     * Summary:
 484:.\Generated_Source\PSoC5/LCD.c ****     *  Print an uint32 value as a left-justified decimal value.
 485:.\Generated_Source\PSoC5/LCD.c ****     *
ARM GAS  C:\Users\xavieran\AppData\Local\Temp\cctyv1P6.s 			page 23


 486:.\Generated_Source\PSoC5/LCD.c ****     * Parameters:
 487:.\Generated_Source\PSoC5/LCD.c ****     *  value:  The byte to be printed out as ASCII characters.
 488:.\Generated_Source\PSoC5/LCD.c ****     *
 489:.\Generated_Source\PSoC5/LCD.c ****     * Return:
 490:.\Generated_Source\PSoC5/LCD.c ****     *  None.
 491:.\Generated_Source\PSoC5/LCD.c ****     *
 492:.\Generated_Source\PSoC5/LCD.c ****     *******************************************************************************/
 493:.\Generated_Source\PSoC5/LCD.c ****     void LCD_PrintNumber(uint16 value) 
 494:.\Generated_Source\PSoC5/LCD.c ****     {
 769              		.loc 1 494 0
 770              		.cfi_startproc
 771              		@ args = 0, pretend = 0, frame = 24
 772              		@ frame_needed = 1, uses_anonymous_args = 0
 773 0000 80B5     		push	{r7, lr}
 774              		.cfi_def_cfa_offset 8
 775              		.cfi_offset 7, -8
 776              		.cfi_offset 14, -4
 777 0002 86B0     		sub	sp, sp, #24
 778              		.cfi_def_cfa_offset 32
 779 0004 00AF     		add	r7, sp, #0
 780              		.cfi_def_cfa_register 7
 781 0006 0346     		mov	r3, r0
 782 0008 FB80     		strh	r3, [r7, #6]	@ movhi
 495:.\Generated_Source\PSoC5/LCD.c **** 
 496:.\Generated_Source\PSoC5/LCD.c ****         char8 number[LCD_NUMBER_OF_REMAINDERS];
 497:.\Generated_Source\PSoC5/LCD.c ****         char8 temp[LCD_NUMBER_OF_REMAINDERS];
 498:.\Generated_Source\PSoC5/LCD.c **** 
 499:.\Generated_Source\PSoC5/LCD.c ****         uint8 digIndex = 0u;
 783              		.loc 1 499 0
 784 000a 0023     		movs	r3, #0
 785 000c FB75     		strb	r3, [r7, #23]
 500:.\Generated_Source\PSoC5/LCD.c ****         uint8 numDigits;
 501:.\Generated_Source\PSoC5/LCD.c **** 
 502:.\Generated_Source\PSoC5/LCD.c ****         /* Load these in reverse order */
 503:.\Generated_Source\PSoC5/LCD.c ****         while(value >= LCD_TEN)
 786              		.loc 1 503 0
 787 000e 1CE0     		b	.L39
 788              	.L40:
 504:.\Generated_Source\PSoC5/LCD.c ****         {
 505:.\Generated_Source\PSoC5/LCD.c ****             temp[digIndex] = (value % LCD_TEN) + '0';
 789              		.loc 1 505 0
 790 0010 F87D     		ldrb	r0, [r7, #23]	@ zero_extendqisi2
 791 0012 FA88     		ldrh	r2, [r7, #6]
 792 0014 2F4B     		ldr	r3, .L43
 793 0016 A3FB0213 		umull	r1, r3, r3, r2
 794 001a D908     		lsrs	r1, r3, #3
 795 001c 0B46     		mov	r3, r1
 796 001e 9B00     		lsls	r3, r3, #2
 797 0020 0B44     		add	r3, r3, r1
 798 0022 5B00     		lsls	r3, r3, #1
 799 0024 D31A     		subs	r3, r2, r3
 800 0026 9BB2     		uxth	r3, r3
 801 0028 DBB2     		uxtb	r3, r3
 802 002a 3033     		adds	r3, r3, #48
 803 002c DAB2     		uxtb	r2, r3
 804 002e 07F11803 		add	r3, r7, #24
 805 0032 0344     		add	r3, r3, r0
ARM GAS  C:\Users\xavieran\AppData\Local\Temp\cctyv1P6.s 			page 24


 806 0034 03F8102C 		strb	r2, [r3, #-16]
 506:.\Generated_Source\PSoC5/LCD.c ****             value /= LCD_TEN;
 807              		.loc 1 506 0
 808 0038 FA88     		ldrh	r2, [r7, #6]
 809 003a 264B     		ldr	r3, .L43
 810 003c A3FB0213 		umull	r1, r3, r3, r2
 811 0040 DB08     		lsrs	r3, r3, #3
 812 0042 FB80     		strh	r3, [r7, #6]	@ movhi
 507:.\Generated_Source\PSoC5/LCD.c ****             digIndex++;
 813              		.loc 1 507 0
 814 0044 FB7D     		ldrb	r3, [r7, #23]	@ zero_extendqisi2
 815 0046 0133     		adds	r3, r3, #1
 816 0048 FB75     		strb	r3, [r7, #23]
 817              	.L39:
 503:.\Generated_Source\PSoC5/LCD.c ****         while(value >= LCD_TEN)
 818              		.loc 1 503 0 discriminator 1
 819 004a FB88     		ldrh	r3, [r7, #6]
 820 004c 092B     		cmp	r3, #9
 821 004e DFD8     		bhi	.L40
 508:.\Generated_Source\PSoC5/LCD.c ****         }
 509:.\Generated_Source\PSoC5/LCD.c **** 
 510:.\Generated_Source\PSoC5/LCD.c ****         temp[digIndex] = (value % LCD_TEN) + '0';
 822              		.loc 1 510 0
 823 0050 F87D     		ldrb	r0, [r7, #23]	@ zero_extendqisi2
 824 0052 FA88     		ldrh	r2, [r7, #6]
 825 0054 1F4B     		ldr	r3, .L43
 826 0056 A3FB0213 		umull	r1, r3, r3, r2
 827 005a D908     		lsrs	r1, r3, #3
 828 005c 0B46     		mov	r3, r1
 829 005e 9B00     		lsls	r3, r3, #2
 830 0060 0B44     		add	r3, r3, r1
 831 0062 5B00     		lsls	r3, r3, #1
 832 0064 D31A     		subs	r3, r2, r3
 833 0066 9BB2     		uxth	r3, r3
 834 0068 DBB2     		uxtb	r3, r3
 835 006a 3033     		adds	r3, r3, #48
 836 006c DAB2     		uxtb	r2, r3
 837 006e 07F11803 		add	r3, r7, #24
 838 0072 0344     		add	r3, r3, r0
 839 0074 03F8102C 		strb	r2, [r3, #-16]
 511:.\Generated_Source\PSoC5/LCD.c ****         numDigits = digIndex;
 840              		.loc 1 511 0
 841 0078 FB7D     		ldrb	r3, [r7, #23]
 842 007a BB75     		strb	r3, [r7, #22]
 512:.\Generated_Source\PSoC5/LCD.c **** 
 513:.\Generated_Source\PSoC5/LCD.c ****         /* While index is greater than or equal to zero copy number
 514:.\Generated_Source\PSoC5/LCD.c ****         * from temporary array to number[].
 515:.\Generated_Source\PSoC5/LCD.c ****         */
 516:.\Generated_Source\PSoC5/LCD.c ****         while (digIndex != 0u)
 843              		.loc 1 516 0
 844 007c 10E0     		b	.L41
 845              	.L42:
 517:.\Generated_Source\PSoC5/LCD.c ****         {
 518:.\Generated_Source\PSoC5/LCD.c ****             number[numDigits - digIndex] = temp[digIndex];
 846              		.loc 1 518 0
 847 007e BA7D     		ldrb	r2, [r7, #22]	@ zero_extendqisi2
 848 0080 FB7D     		ldrb	r3, [r7, #23]	@ zero_extendqisi2
ARM GAS  C:\Users\xavieran\AppData\Local\Temp\cctyv1P6.s 			page 25


 849 0082 D31A     		subs	r3, r2, r3
 850 0084 FA7D     		ldrb	r2, [r7, #23]	@ zero_extendqisi2
 851 0086 07F11801 		add	r1, r7, #24
 852 008a 0A44     		add	r2, r2, r1
 853 008c 12F8102C 		ldrb	r2, [r2, #-16]	@ zero_extendqisi2
 854 0090 07F11801 		add	r1, r7, #24
 855 0094 0B44     		add	r3, r3, r1
 856 0096 03F8082C 		strb	r2, [r3, #-8]
 519:.\Generated_Source\PSoC5/LCD.c ****             digIndex--;
 857              		.loc 1 519 0
 858 009a FB7D     		ldrb	r3, [r7, #23]	@ zero_extendqisi2
 859 009c 013B     		subs	r3, r3, #1
 860 009e FB75     		strb	r3, [r7, #23]
 861              	.L41:
 516:.\Generated_Source\PSoC5/LCD.c ****         while (digIndex != 0u)
 862              		.loc 1 516 0 discriminator 1
 863 00a0 FB7D     		ldrb	r3, [r7, #23]	@ zero_extendqisi2
 864 00a2 002B     		cmp	r3, #0
 865 00a4 EBD1     		bne	.L42
 520:.\Generated_Source\PSoC5/LCD.c ****         }
 521:.\Generated_Source\PSoC5/LCD.c ****         
 522:.\Generated_Source\PSoC5/LCD.c ****         /* Copy last digit */
 523:.\Generated_Source\PSoC5/LCD.c ****         number[numDigits] = temp[0u];
 866              		.loc 1 523 0
 867 00a6 BB7D     		ldrb	r3, [r7, #22]	@ zero_extendqisi2
 868 00a8 3A7A     		ldrb	r2, [r7, #8]	@ zero_extendqisi2
 869 00aa 07F11801 		add	r1, r7, #24
 870 00ae 0B44     		add	r3, r3, r1
 871 00b0 03F8082C 		strb	r2, [r3, #-8]
 524:.\Generated_Source\PSoC5/LCD.c **** 
 525:.\Generated_Source\PSoC5/LCD.c ****         /* Null Termination */
 526:.\Generated_Source\PSoC5/LCD.c ****         number[numDigits + 1u] = (char8) '\0';
 872              		.loc 1 526 0
 873 00b4 BB7D     		ldrb	r3, [r7, #22]	@ zero_extendqisi2
 874 00b6 0133     		adds	r3, r3, #1
 875 00b8 07F11802 		add	r2, r7, #24
 876 00bc 1344     		add	r3, r3, r2
 877 00be 0022     		movs	r2, #0
 878 00c0 03F8082C 		strb	r2, [r3, #-8]
 527:.\Generated_Source\PSoC5/LCD.c **** 
 528:.\Generated_Source\PSoC5/LCD.c ****         /* Print out number */
 529:.\Generated_Source\PSoC5/LCD.c ****         LCD_PrintString(&number[0u]);
 879              		.loc 1 529 0
 880 00c4 07F11003 		add	r3, r7, #16
 881 00c8 1846     		mov	r0, r3
 882 00ca FFF7FEFF 		bl	LCD_PrintString
 530:.\Generated_Source\PSoC5/LCD.c ****     }
 883              		.loc 1 530 0
 884 00ce 1837     		adds	r7, r7, #24
 885 00d0 BD46     		mov	sp, r7
 886              		@ sp needed
 887 00d2 80BD     		pop	{r7, pc}
 888              	.L44:
 889              		.align	2
 890              	.L43:
 891 00d4 CDCCCCCC 		.word	-858993459
 892              		.cfi_endproc
ARM GAS  C:\Users\xavieran\AppData\Local\Temp\cctyv1P6.s 			page 26


 893              	.LFE14:
 894              		.size	LCD_PrintNumber, .-LCD_PrintNumber
 895              		.section	.rodata
 896              		.align	2
 897              		.type	LCD_hex.4900, %object
 898              		.size	LCD_hex.4900, 16
 899              	LCD_hex.4900:
 900 0000 30313233 		.ascii	"0123456789ABCDEF"
 900      34353637 
 900      38394142 
 900      43444546 
 901              		.text
 902              	.Letext0:
 903              		.file 2 ".\\Generated_Source\\PSoC5\\cytypes.h"