ARM GAS  C:\Users\xavieran\AppData\Local\Temp\cco2bJR3.s 			page 1


   1              		.syntax unified
   2              		.cpu cortex-m3
   3              		.fpu softvfp
   4              		.eabi_attribute 20, 1
   5              		.eabi_attribute 21, 1
   6              		.eabi_attribute 23, 3
   7              		.eabi_attribute 24, 1
   8              		.eabi_attribute 25, 1
   9              		.eabi_attribute 26, 1
  10              		.eabi_attribute 30, 6
  11              		.eabi_attribute 34, 1
  12              		.eabi_attribute 18, 4
  13              		.thumb
  14              		.file	"main.c"
  15              		.text
  16              	.Ltext0:
  17              		.cfi_sections	.debug_frame
  18              		.comm	Camera_framebuffer,50688,4
  19              		.comm	stack,16,4
  20              		.comm	outString,25,4
  21              		.section	.text.print,"ax",%progbits
  22              		.align	2
  23              		.global	print
  24              		.thumb
  25              		.thumb_func
  26              		.type	print, %function
  27              	print:
  28              	.LFB63:
  29              		.file 1 ".\\main.c"
   1:.\main.c      **** /* ========================================
   2:.\main.c      ****  *
   3:.\main.c      ****  * Copyright YOUR COMPANY, THE YEAR
   4:.\main.c      ****  * All Rights Reserved
   5:.\main.c      ****  * UNPUBLISHED, LICENSED SOFTWARE.
   6:.\main.c      ****  *
   7:.\main.c      ****  * CONFIDENTIAL AND PROPRIETARY INFORMATION
   8:.\main.c      ****  * WHICH IS THE PROPERTY OF your company.
   9:.\main.c      ****  *
  10:.\main.c      ****  * ========================================
  11:.\main.c      **** */
  12:.\main.c      **** /* TODO ***
  13:.\main.c      ****  * GET ALL THE COLORS
  14:.\main.c      ****  * Work on reading instructions
  15:.\main.c      ****  * Put the beacon at the beginning 
  16:.\main.c      ****  * Improve search strategy
  17:.\main.c      ****  * Make it run around faster
  18:.\main.c      ****  * Check the compass orientations
  19:.\main.c      ****  * Fix magnet
  20:.\main.c      ****  * Check second ultrasonic
  21:.\main.c      ****  * Corner handling
  22:.\main.c      ****  * Collision handling
  23:.\main.c      ****  * Timeouts
  24:.\main.c      ****  * Counter for homing on puck
  25:.\main.c      ****  */
  26:.\main.c      **** 
  27:.\main.c      **** 
  28:.\main.c      **** #include <project.h>
ARM GAS  C:\Users\xavieran\AppData\Local\Temp\cco2bJR3.s 			page 2


  29:.\main.c      **** #include <stdio.h>
  30:.\main.c      **** #include <stdarg.h>
  31:.\main.c      **** #include <math.h>
  32:.\main.c      **** #include <stdlib.h>
  33:.\main.c      **** 
  34:.\main.c      **** #include <infrared.h>
  35:.\main.c      **** #include <motor.h>
  36:.\main.c      **** #include <buttons.h>
  37:.\main.c      **** #include <compass.h>
  38:.\main.c      **** #include <ultrasonic.h>
  39:.\main.c      **** #include <ultrasonic_s.h>
  40:.\main.c      **** 
  41:.\main.c      **** #include <gripper.h>
  42:.\main.c      **** #include <arm.h>
  43:.\main.c      **** #include <my_camera_functions.h>
  44:.\main.c      **** #include <blob_stats.h>
  45:.\main.c      **** #include <beam.h>
  46:.\main.c      **** 
  47:.\main.c      **** extern blob blobs[255];
  48:.\main.c      **** //motor.c
  49:.\main.c      **** extern uint8 HEADING_ERROR_LIMIT;
  50:.\main.c      **** extern uint8 STALL_SPEED;
  51:.\main.c      **** //these are in button.c
  52:.\main.c      **** extern volatile uint8 but0_b;
  53:.\main.c      **** extern volatile uint8 but1_b;
  54:.\main.c      **** 
  55:.\main.c      **** //These are in compass.c
  56:.\main.c      **** extern int16 compass_x;
  57:.\main.c      **** extern int16 compass_y;
  58:.\main.c      **** extern int16 compass_z;
  59:.\main.c      **** extern int16 compass_heading;
  60:.\main.c      **** extern volatile uint8 compass_ready;
  61:.\main.c      **** extern int16 original_compass_heading; //We set this to make the angles relative
  62:.\main.c      **** 
  63:.\main.c      **** //This is in ultrasonic.c
  64:.\main.c      **** extern volatile uint16 ultra_distance;
  65:.\main.c      **** 
  66:.\main.c      **** char outString[25];
  67:.\main.c      **** void calibrate_compass();
  68:.\main.c      **** 
  69:.\main.c      **** #define POS_PRINTF(R,C,X,...) \
  70:.\main.c      ****  {sprintf(outString, X, ##__VA_ARGS__); LCD_Position(R, C); LCD_PrintString(outString);}
  71:.\main.c      **** 
  72:.\main.c      **** 
  73:.\main.c      **** // print() function, works like snprintf(). See: http://www.cplusplus.com/reference/cstdio/snprintf
  74:.\main.c      **** void print(const char *fmt, ...)
  75:.\main.c      **** {
  30              		.loc 1 75 0
  31              		.cfi_startproc
  32              		@ args = 4, pretend = 16, frame = 72
  33              		@ frame_needed = 1, uses_anonymous_args = 1
  34 0000 0FB4     		push	{r0, r1, r2, r3}
  35              		.cfi_def_cfa_offset 16
  36              		.cfi_offset 0, -16
  37              		.cfi_offset 1, -12
  38              		.cfi_offset 2, -8
  39              		.cfi_offset 3, -4
ARM GAS  C:\Users\xavieran\AppData\Local\Temp\cco2bJR3.s 			page 3


  40 0002 80B5     		push	{r7, lr}
  41              		.cfi_def_cfa_offset 24
  42              		.cfi_offset 7, -24
  43              		.cfi_offset 14, -20
  44 0004 92B0     		sub	sp, sp, #72
  45              		.cfi_def_cfa_offset 96
  46 0006 00AF     		add	r7, sp, #0
  47              		.cfi_def_cfa_register 7
  76:.\main.c      ****    if(!USB_GetConfiguration()) return;  // Do nothing if the USB cable is not connected.
  48              		.loc 1 76 0
  49 0008 FFF7FEFF 		bl	USB_GetConfiguration
  50 000c 0346     		mov	r3, r0
  51 000e 002B     		cmp	r3, #0
  52 0010 15D0     		beq	.L1
  77:.\main.c      ****    char buffer[64];
  78:.\main.c      ****    va_list args;
  79:.\main.c      ****    va_start(args, fmt);
  53              		.loc 1 79 0
  54 0012 07F15403 		add	r3, r7, #84
  55 0016 7B60     		str	r3, [r7, #4]
  80:.\main.c      ****    vsnprintf(buffer, sizeof(buffer), fmt, args);
  56              		.loc 1 80 0
  57 0018 07F10803 		add	r3, r7, #8
  58 001c 1846     		mov	r0, r3
  59 001e 4021     		movs	r1, #64
  60 0020 3A6D     		ldr	r2, [r7, #80]
  61 0022 7B68     		ldr	r3, [r7, #4]
  62 0024 FFF7FEFF 		bl	vsnprintf
  81:.\main.c      ****    va_end(args);
  82:.\main.c      ****    while(!USB_CDCIsReady());
  63              		.loc 1 82 0
  64 0028 00BF     		nop
  65              	.L4:
  66              		.loc 1 82 0 is_stmt 0 discriminator 1
  67 002a FFF7FEFF 		bl	USB_CDCIsReady
  68 002e 0346     		mov	r3, r0
  69 0030 002B     		cmp	r3, #0
  70 0032 FAD0     		beq	.L4
  83:.\main.c      ****    USB_PutString(buffer);
  71              		.loc 1 83 0 is_stmt 1
  72 0034 07F10803 		add	r3, r7, #8
  73 0038 1846     		mov	r0, r3
  74 003a FFF7FEFF 		bl	USB_PutString
  75              	.L1:
  84:.\main.c      **** }
  76              		.loc 1 84 0
  77 003e 4837     		adds	r7, r7, #72
  78 0040 BD46     		mov	sp, r7
  79              		@ sp needed
  80 0042 BDE88040 		pop	{r7, lr}
  81 0046 04B0     		add	sp, sp, #16
  82 0048 7047     		bx	lr
  83              		.cfi_endproc
  84              	.LFE63:
  85              		.size	print, .-print
  86 004a 00BF     		.section	.text.within_range,"ax",%progbits
  87              		.align	2
ARM GAS  C:\Users\xavieran\AppData\Local\Temp\cco2bJR3.s 			page 4


  88              		.global	within_range
  89              		.thumb
  90              		.thumb_func
  91              		.type	within_range, %function
  92              	within_range:
  93              	.LFB64:
  85:.\main.c      **** 
  86:.\main.c      **** int within_range(int lower, int val, int upper){
  94              		.loc 1 86 0
  95              		.cfi_startproc
  96              		@ args = 0, pretend = 0, frame = 16
  97              		@ frame_needed = 1, uses_anonymous_args = 0
  98              		@ link register save eliminated.
  99 0000 80B4     		push	{r7}
 100              		.cfi_def_cfa_offset 4
 101              		.cfi_offset 7, -4
 102 0002 85B0     		sub	sp, sp, #20
 103              		.cfi_def_cfa_offset 24
 104 0004 00AF     		add	r7, sp, #0
 105              		.cfi_def_cfa_register 7
 106 0006 F860     		str	r0, [r7, #12]
 107 0008 B960     		str	r1, [r7, #8]
 108 000a 7A60     		str	r2, [r7, #4]
  87:.\main.c      ****     return val >= lower && val <= upper;
 109              		.loc 1 87 0
 110 000c BA68     		ldr	r2, [r7, #8]
 111 000e FB68     		ldr	r3, [r7, #12]
 112 0010 9A42     		cmp	r2, r3
 113 0012 05DB     		blt	.L6
 114              		.loc 1 87 0 is_stmt 0 discriminator 1
 115 0014 BA68     		ldr	r2, [r7, #8]
 116 0016 7B68     		ldr	r3, [r7, #4]
 117 0018 9A42     		cmp	r2, r3
 118 001a 01DC     		bgt	.L6
 119              		.loc 1 87 0 discriminator 3
 120 001c 0123     		movs	r3, #1
 121 001e 00E0     		b	.L7
 122              	.L6:
 123              		.loc 1 87 0 discriminator 2
 124 0020 0023     		movs	r3, #0
 125              	.L7:
  88:.\main.c      **** }
 126              		.loc 1 88 0 is_stmt 1 discriminator 4
 127 0022 1846     		mov	r0, r3
 128 0024 1437     		adds	r7, r7, #20
 129 0026 BD46     		mov	sp, r7
 130              		@ sp needed
 131 0028 5DF8047B 		ldr	r7, [sp], #4
 132 002c 7047     		bx	lr
 133              		.cfi_endproc
 134              	.LFE64:
 135              		.size	within_range, .-within_range
 136 002e 00BF     		.section	.rodata
 137              		.align	2
 138              	.LC0:
 139 0000 44524F50 		.ascii	"DROPPED BEACON\000"
 139      50454420 
ARM GAS  C:\Users\xavieran\AppData\Local\Temp\cco2bJR3.s 			page 5


 139      42454143 
 139      4F4E00
 140 000f 00       		.align	2
 141              	.LC1:
 142 0010 53544152 		.ascii	"STARTING CAM\000"
 142      54494E47 
 142      2043414D 
 142      00
 143 001d 000000   		.align	2
 144              	.LC2:
 145 0020 43414D45 		.ascii	"CAMERA STARTED!!!\000"
 145      52412053 
 145      54415254 
 145      45442121 
 145      2100
 146 0032 0000     		.align	2
 147              	.LC3:
 148 0034 25642025 		.ascii	"%d %d %d %d\000"
 148      64202564 
 148      20256400 
 149              		.align	2
 150              	.LC4:
 151 0040 46494E44 		.ascii	"FIND %d of %d\000"
 151      20256420 
 151      6F662025 
 151      6400
 152 004e 0000     		.align	2
 153              	.LC5:
 154 0050 53454520 		.ascii	"SEE C: %d\000"
 154      433A2025 
 154      6400
 155 005a 0000     		.align	2
 156              	.LC6:
 157 005c 4C454654 		.ascii	"LEFT to: %d\000"
 157      20746F3A 
 157      20256400 
 158              		.align	2
 159              	.LC7:
 160 0068 52494748 		.ascii	"RIGHT to: %d\000"
 160      5420746F 
 160      3A202564 
 160      00
 161 0075 000000   		.align	2
 162              	.LC8:
 163 0078 494E2047 		.ascii	"IN GO HOME I:%d U%d\000"
 163      4F20484F 
 163      4D452049 
 163      3A256420 
 163      55256400 
 164              		.align	2
 165              	.LC9:
 166 008c 474F494E 		.ascii	"GOING HOME CHECK IR\000"
 166      4720484F 
 166      4D452043 
 166      4845434B 
 166      20495200 
 167              		.align	2
ARM GAS  C:\Users\xavieran\AppData\Local\Temp\cco2bJR3.s 			page 6


 168              	.LC10:
 169 00a0 49202564 		.ascii	"I %d\000"
 169      00
 170 00a5 000000   		.align	2
 171              	.LC11:
 172 00a8 63656E74 		.ascii	"center\000"
 172      657200
 173 00af 00       		.align	2
 174              	.LC12:
 175 00b0 6C656674 		.ascii	"left\000"
 175      00
 176 00b5 000000   		.align	2
 177              	.LC13:
 178 00b8 72696768 		.ascii	"right\000"
 178      7400
 179 00be 0000     		.align	2
 180              	.LC14:
 181 00c0 736F6D65 		.ascii	"something else\000"
 181      7468696E 
 181      6720656C 
 181      736500
 182 00cf 00       		.align	2
 183              	.LC15:
 184 00d0 4E454152 		.ascii	"NEAR HOME FIND 100\000"
 184      20484F4D 
 184      45204649 
 184      4E442031 
 184      303000
 185 00e3 00       		.align	2
 186              	.LC16:
 187 00e4 69202564 		.ascii	"i %d\000"
 187      00
 188 00e9 000000   		.align	2
 189              	.LC17:
 190 00ec 7420256C 		.ascii	"t %ld\000"
 190      6400
 191 00f2 0000     		.align	2
 192              	.LC18:
 193 00f4 4E454152 		.ascii	"NEAR HOME SAW 30\000"
 193      20484F4D 
 193      45205341 
 193      57203330 
 193      00
 194 0105 000000   		.align	2
 195              	.LC19:
 196 0108 69722564 		.ascii	"ir%d\000"
 196      00
 197 010d 000000   		.align	2
 198              	.LC20:
 199 0110 4E454152 		.ascii	"NEAR HOME FIND 60\000"
 199      20484F4D 
 199      45204649 
 199      4E442036 
 199      3000
 200 0122 0000     		.align	2
 201              	.LC21:
 202 0124 43454E54 		.ascii	"CENTERED ON BASE\000"
ARM GAS  C:\Users\xavieran\AppData\Local\Temp\cco2bJR3.s 			page 7


 202      45524544 
 202      204F4E20 
 202      42415345 
 202      00
 203 0135 000000   		.align	2
 204              	.LC22:
 205 0138 554C5452 		.ascii	"ULTRA: %d\000"
 205      413A2025 
 205      6400
 206 0142 0000     		.align	2
 207              	.LC23:
 208 0144 53544143 		.ascii	"STACKING!\000"
 208      4B494E47 
 208      2100
 209 014e 0000     		.align	2
 210              	.LC24:
 211 0150 42256420 		.ascii	"B%d SU%d\000"
 211      53552564 
 211      00
 212 0159 000000   		.align	2
 213              	.LC25:
 214 015c 474F5420 		.ascii	"GOT HOME\000"
 214      484F4D45 
 214      00
 215 0165 000000   		.align	2
 216              	.LC26:
 217 0168 56494354 		.ascii	"VICTORY!!!\000"
 217      4F525921 
 217      212100
 218              		.section	.text.main,"ax",%progbits
 219              		.align	2
 220              		.global	main
 221              		.thumb
 222              		.thumb_func
 223              		.type	main, %function
 224              	main:
 225              	.LFB65:
  89:.\main.c      **** 
  90:.\main.c      **** #define NP_AHEAD 0
  91:.\main.c      **** #define NP_TURNED_RIGHT 1
  92:.\main.c      **** #define NP_TURNED_LEFT 2
  93:.\main.c      **** 
  94:.\main.c      **** enum State {
  95:.\main.c      ****     S_START = 0,
  96:.\main.c      ****     S_LEAVE_BASE,
  97:.\main.c      ****     S_LEFT_BASE,
  98:.\main.c      ****     S_FIND_PUCK,
  99:.\main.c      ****     S_GO_HOME,
 100:.\main.c      ****     S_FACE_HOME,
 101:.\main.c      ****     S_GOT_HOME,
 102:.\main.c      ****     S_IN_CORNER,
 103:.\main.c      ****     S_GOING_HOME_CHECK_IR,
 104:.\main.c      ****     S_NEAR_HOME_FIND_100,
 105:.\main.c      ****     S_NEAR_HOME_FIND_60,
 106:.\main.c      ****     S_CENTERED_ON_BASE,
 107:.\main.c      ****     S_PLACE_PUCK,
 108:.\main.c      ****     S_NEAR_HOME_SAW_30,
ARM GAS  C:\Users\xavieran\AppData\Local\Temp\cco2bJR3.s 			page 8


 109:.\main.c      ****     S_GRAB_BEACON
 110:.\main.c      **** };
 111:.\main.c      **** 
 112:.\main.c      **** int main()
 113:.\main.c      **** {
 226              		.loc 1 113 0
 227              		.cfi_startproc
 228              		@ args = 0, pretend = 0, frame = 80
 229              		@ frame_needed = 1, uses_anonymous_args = 0
 230 0000 B0B5     		push	{r4, r5, r7, lr}
 231              		.cfi_def_cfa_offset 16
 232              		.cfi_offset 4, -16
 233              		.cfi_offset 5, -12
 234              		.cfi_offset 7, -8
 235              		.cfi_offset 14, -4
 236 0002 96B0     		sub	sp, sp, #88
 237              		.cfi_def_cfa_offset 104
 238 0004 02AF     		add	r7, sp, #8
 239              		.cfi_def_cfa 7, 96
 114:.\main.c      ****     RED_Write(1);
 240              		.loc 1 114 0
 241 0006 0120     		movs	r0, #1
 242 0008 FFF7FEFF 		bl	RED_Write
 115:.\main.c      ****     CYGlobalIntEnable;
 243              		.loc 1 115 0
 244              	@ 115 ".\main.c" 1
 245 000c 62B6     		CPSIE   i
 246              	@ 0 "" 2
 116:.\main.c      ****     
 117:.\main.c      ****     /**** INITIALIZE COMPONENTS ****/
 118:.\main.c      ****     LCD_Start();
 247              		.loc 1 118 0
 248              		.thumb
 249 000e FFF7FEFF 		bl	LCD_Start
 119:.\main.c      ****     //USB_Start(0, USB_DWR_VDDD_OPERATION);
 120:.\main.c      ****     
 121:.\main.c      ****     Timer_Start();
 250              		.loc 1 121 0
 251 0012 FFF7FEFF 		bl	Timer_Start
 122:.\main.c      ****     start_buttons();
 252              		.loc 1 122 0
 253 0016 FFF7FEFF 		bl	start_buttons
 123:.\main.c      ****     start_compass();
 254              		.loc 1 123 0
 255 001a FFF7FEFF 		bl	start_compass
 124:.\main.c      ****     while (!compass_ready){;}
 256              		.loc 1 124 0
 257 001e 00BF     		nop
 258              	.L10:
 259              		.loc 1 124 0 is_stmt 0 discriminator 1
 260 0020 D54B     		ldr	r3, .L107
 261 0022 1B78     		ldrb	r3, [r3]
 262 0024 DBB2     		uxtb	r3, r3
 263 0026 002B     		cmp	r3, #0
 264 0028 FAD0     		beq	.L10
 125:.\main.c      ****     compass_read();
 265              		.loc 1 125 0 is_stmt 1
ARM GAS  C:\Users\xavieran\AppData\Local\Temp\cco2bJR3.s 			page 9


 266 002a FFF7FEFF 		bl	compass_read
 126:.\main.c      ****     original_compass_heading = compass_heading;
 267              		.loc 1 126 0
 268 002e D34B     		ldr	r3, .L107+4
 269 0030 1A88     		ldrh	r2, [r3]
 270 0032 D34B     		ldr	r3, .L107+8
 271 0034 1A80     		strh	r2, [r3]	@ movhi
 127:.\main.c      ****     
 128:.\main.c      ****     start_motors();
 272              		.loc 1 128 0
 273 0036 FFF7FEFF 		bl	start_motors
 129:.\main.c      ****     start_gripper();
 274              		.loc 1 129 0
 275 003a FFF7FEFF 		bl	start_gripper
 130:.\main.c      ****     drop_puck();
 276              		.loc 1 130 0
 277 003e FFF7FEFF 		bl	drop_puck
 131:.\main.c      ****     start_arm();
 278              		.loc 1 131 0
 279 0042 FFF7FEFF 		bl	start_arm
 132:.\main.c      ****     arm_set_level(0);
 280              		.loc 1 132 0
 281 0046 0020     		movs	r0, #0
 282 0048 FFF7FEFF 		bl	arm_set_level
 133:.\main.c      ****     start_ultrasonic();
 283              		.loc 1 133 0
 284 004c FFF7FEFF 		bl	start_ultrasonic
 134:.\main.c      ****     start_ultrasonic_s();
 285              		.loc 1 134 0
 286 0050 FFF7FEFF 		bl	start_ultrasonic_s
 135:.\main.c      ****     start_infrared();
 287              		.loc 1 135 0
 288 0054 FFF7FEFF 		bl	start_infrared
 136:.\main.c      ****     beam_broken();
 289              		.loc 1 136 0
 290 0058 FFF7FEFF 		bl	beam_broken
 137:.\main.c      ****     
 138:.\main.c      ****     /*
 139:.\main.c      ****     while (1){
 140:.\main.c      ****         if (compass_ready){
 141:.\main.c      ****             compass_read();
 142:.\main.c      ****             print("%d %d\n", compass_x, compass_y);
 143:.\main.c      ****             POS_PRINTF(0,0,"%d %d %d", compass_heading, compass_x, compass_y);
 144:.\main.c      ****         }
 145:.\main.c      ****     }
 146:.\main.c      ****     */
 147:.\main.c      **** 
 148:.\main.c      ****     //calibrate_compass();
 149:.\main.c      ****     
 150:.\main.c      ****     /*
 151:.\main.c      ****     int arm_height = 1;
 152:.\main.c      ****     while (1){
 153:.\main.c      ****         LCD_ClearDisplay();
 154:.\main.c      ****         POS_PRINTF(0,0,"R %d S %d", get_mean_ultra(), get_mean_ultra_s());
 155:.\main.c      ****         POS_PRINTF(1,0,"B %d P %d", beam_broken(), arm_height);
 156:.\main.c      ****         if (but0_b){
 157:.\main.c      ****             but0_b = 0;
ARM GAS  C:\Users\xavieran\AppData\Local\Temp\cco2bJR3.s 			page 10


 158:.\main.c      ****             if (arm_height){
 159:.\main.c      ****                 select_left();
 160:.\main.c      ****             } else {
 161:.\main.c      ****                 select_stack();
 162:.\main.c      ****             }
 163:.\main.c      ****         } else if (but1_b){
 164:.\main.c      ****             but1_b = 0;
 165:.\main.c      ****         }
 166:.\main.c      ****         CyDelay(50);   
 167:.\main.c      ****     }*/
 168:.\main.c      ****     
 169:.\main.c      ****     /*
 170:.\main.c      ****     while (1){
 171:.\main.c      ****         LCD_ClearDisplay();
 172:.\main.c      ****         POS_PRINTF(0,0,"F %d L %d", get_front_ir(), get_left_ir());
 173:.\main.c      ****         POS_PRINTF(1,0,"U %d V %d", get_mean_ultra(), get_var_ultra());
 174:.\main.c      ****         CyDelay(50);
 175:.\main.c      ****     }*/
 176:.\main.c      **** 
 177:.\main.c      ****     /**** Declare Variables ****/
 178:.\main.c      ****     
 179:.\main.c      ****     uint16 ir_result;
 180:.\main.c      ****     uint16 state;
 181:.\main.c      ****     int pucks_gotten = 0;
 291              		.loc 1 181 0
 292 005c 0023     		movs	r3, #0
 293 005e BB64     		str	r3, [r7, #72]
 182:.\main.c      ****     int near_base = 70;
 294              		.loc 1 182 0
 295 0060 4623     		movs	r3, #70
 296 0062 3B61     		str	r3, [r7, #16]
 183:.\main.c      ****     int current_color = RED;
 297              		.loc 1 183 0
 298 0064 0123     		movs	r3, #1
 299 0066 7B64     		str	r3, [r7, #68]
 184:.\main.c      ****     long start_time_find100;
 185:.\main.c      ****     long start_time_find_puck;
 186:.\main.c      ****     int no_puck_state = 0;
 300              		.loc 1 186 0
 301 0068 0023     		movs	r3, #0
 302 006a BB63     		str	r3, [r7, #56]
 187:.\main.c      ****     state = S_START;
 303              		.loc 1 187 0
 304 006c 0023     		movs	r3, #0
 305 006e A7F84E30 		strh	r3, [r7, #78]	@ movhi
 306 0072 00E0     		b	.L102
 307              	.L103:
 188:.\main.c      ****      
 189:.\main.c      ****     
 190:.\main.c      ****     
 191:.\main.c      ****     /*
 192:.\main.c      ****     while (1){
 193:.\main.c      ****         LCD_ClearDisplay();
 194:.\main.c      ****         POS_PRINTF(0,0,"u%d i%d", get_mean_ultra(), get_front_ir());
 195:.\main.c      ****         CyDelay(50);
 196:.\main.c      ****     }*/
 197:.\main.c      ****     
ARM GAS  C:\Users\xavieran\AppData\Local\Temp\cco2bJR3.s 			page 11


 198:.\main.c      ****     while (1){
 199:.\main.c      ****         switch(state){
 200:.\main.c      ****             case S_START:
 201:.\main.c      ****                 pickup_angled_puck();
 202:.\main.c      ****                 CyDelay(500);
 203:.\main.c      ****                 arm_set_level(6);
 204:.\main.c      ****                 CyDelay(1000);
 205:.\main.c      ****                 go_forward(1600, 200);
 206:.\main.c      ****                 CyDelay(300);
 207:.\main.c      ****                 pickup_puck();
 208:.\main.c      ****                 CyDelay(500);
 209:.\main.c      ****                 drop_puck();
 210:.\main.c      ****                 CyDelay(500);
 211:.\main.c      ****                 go_backward_ultra(10, 180);
 212:.\main.c      ****                 POS_PRINTF(0,0,"DROPPED BEACON");
 213:.\main.c      ****                 int i;
 214:.\main.c      ****                 arm_set_level(1);
 215:.\main.c      ****                 CyDelay(500);
 216:.\main.c      ****                 LCD_PosPrintString(0,0,"STARTING CAM");
 217:.\main.c      ****                 init_camera();
 218:.\main.c      ****                 LCD_PosPrintString(0,0, "CAMERA STARTED!!!");
 219:.\main.c      ****                 arm_inbetween_level(0,1);
 220:.\main.c      ****                 CyDelay(500);
 221:.\main.c      ****                 set_gain_exposure(2);
 222:.\main.c      ****                 capture_thresh_image();
 223:.\main.c      ****                 sideways_instruction_read();
 224:.\main.c      ****                 set_gain_exposure(1);
 225:.\main.c      ****                 POS_PRINTF(1,0,"%d %d %d %d", stack[3], stack[2], stack[1], stack[0]);
 226:.\main.c      ****                 state = S_LEAVE_BASE;
 227:.\main.c      ****                 break;
 228:.\main.c      ****                 
 229:.\main.c      ****             case S_LEAVE_BASE:
 230:.\main.c      ****                 arm_set_level(0);
 231:.\main.c      ****                 go_backward_ultra(60, 255);
 232:.\main.c      ****                 state = S_LEFT_BASE;
 233:.\main.c      ****                 current_color = stack[(4 - pucks_gotten) - 1];
 234:.\main.c      ****                 STALL_SPEED = ARENA_STALL_SPEED;
 235:.\main.c      ****                 break;
 236:.\main.c      ****             case S_LEFT_BASE:
 237:.\main.c      ****                 set_heading(90);
 238:.\main.c      ****                 rotate_degrees(0);
 239:.\main.c      ****                 CyDelay(500);
 240:.\main.c      ****                 go_backward(1400, 255);
 241:.\main.c      ****                 CyDelay(500);
 242:.\main.c      ****                 set_heading(180);
 243:.\main.c      ****                 rotate_degrees(0);
 244:.\main.c      ****                 CyDelay(500);
 245:.\main.c      ****                 start_time_find_puck = Timer_ReadCounter();
 246:.\main.c      ****                 state = S_FIND_PUCK;
 247:.\main.c      ****                 break;
 248:.\main.c      ****             case S_FIND_PUCK:
 249:.\main.c      ****                 POS_PRINTF(1,0,"FIND %d of %d", current_color, pucks_gotten);
 250:.\main.c      ****                 if (start_time_find_puck - Timer_ReadCounter() > 10 * 35000){
 251:.\main.c      ****                     set_heading(180);
 252:.\main.c      ****                     go_backward(4000, 255);
 253:.\main.c      ****                     start_time_find_puck = Timer_ReadCounter();
 254:.\main.c      ****                 }
ARM GAS  C:\Users\xavieran\AppData\Local\Temp\cco2bJR3.s 			page 12


 255:.\main.c      ****                 CyDelay(300);
 256:.\main.c      ****                 capture_thresh_image();
 257:.\main.c      ****                 int pucks = to_nearest_blob(current_color, 30, 10);
 258:.\main.c      ****                 
 259:.\main.c      ****                 if (pucks == 0){
 260:.\main.c      ****                     //Red puck is centered, so we check our beam break and drive forward a bit.
 261:.\main.c      ****                     go_forward(1000, 255);
 262:.\main.c      ****                     if (beam_broken()){
 263:.\main.c      ****                         go_forward(300, 255);
 264:.\main.c      ****                         pickup_puck();
 265:.\main.c      ****                         CyDelay(100);
 266:.\main.c      ****                         int old_heading = compass_heading;
 267:.\main.c      ****                         
 268:.\main.c      ****                         arm_carry_home();
 269:.\main.c      ****                         set_heading(90);
 270:.\main.c      ****                         rotate_degrees(0);
 271:.\main.c      ****                         arm_set_level(0);
 272:.\main.c      ****                         CyDelay(300);
 273:.\main.c      ****                         capture_thresh_image();
 274:.\main.c      ****                         int color = identify_colour_gripper();
 275:.\main.c      ****                         POS_PRINTF(0,0,"SEE C: %d", color);
 276:.\main.c      ****                         CyDelay(3000);
 277:.\main.c      ****                         if (color != current_color){
 278:.\main.c      ****                             go_forward(500, 255);
 279:.\main.c      ****                             drop_puck();
 280:.\main.c      ****                             go_backward(500, 255);
 281:.\main.c      ****                             arm_set_level(0);
 282:.\main.c      ****                             CyDelay(100);
 283:.\main.c      ****                             set_heading(old_heading);
 284:.\main.c      ****                             rotate_degrees(0);
 285:.\main.c      ****                         } else {
 286:.\main.c      ****                             start_time_find_puck = Timer_ReadCounter();
 287:.\main.c      ****                             arm_carry_home();
 288:.\main.c      ****                             set_heading(180);
 289:.\main.c      ****                             rotate_degrees(0);
 290:.\main.c      ****                             go_backward(1500, 255);
 291:.\main.c      ****                             pucks_gotten++;
 292:.\main.c      ****                             state = S_FACE_HOME;
 293:.\main.c      ****                             break;
 294:.\main.c      ****                         }
 295:.\main.c      ****                     }                
 296:.\main.c      ****                 } else if (pucks < 0){
 297:.\main.c      ****                     rotate_degrees(-6);
 298:.\main.c      ****                 } else if (pucks > 0){
 299:.\main.c      ****                     rotate_degrees(6);
 300:.\main.c      ****                 } else if (pucks == -1){
 301:.\main.c      ****                     switch (no_puck_state){
 302:.\main.c      ****                         case NP_AHEAD:
 303:.\main.c      ****                             for (i = 1; i < 8; i++){
 304:.\main.c      ****                                 set_heading(180 - i*10);
 305:.\main.c      ****                                 rotate_degrees(0);
 306:.\main.c      ****                                 POS_PRINTF(0,0,"LEFT to: %d", 180 - i*10);
 307:.\main.c      ****                                 CyDelay(500);
 308:.\main.c      ****                                 capture_thresh_image();
 309:.\main.c      ****                                 pucks = to_nearest_blob(current_color, 30, 10);
 310:.\main.c      ****                                 if (pucks != -1){
 311:.\main.c      ****                                     break;
ARM GAS  C:\Users\xavieran\AppData\Local\Temp\cco2bJR3.s 			page 13


 312:.\main.c      ****                                 }
 313:.\main.c      ****                             }
 314:.\main.c      ****                             if (pucks != -1){
 315:.\main.c      ****                                 break;
 316:.\main.c      ****                             }
 317:.\main.c      ****                             set_heading(180);
 318:.\main.c      ****                             rotate_degrees(0);
 319:.\main.c      ****                             no_puck_state = NP_TURNED_LEFT;
 320:.\main.c      ****                             break;
 321:.\main.c      ****                         case NP_TURNED_LEFT:
 322:.\main.c      ****                             for (i = 1; i < 6; i++){
 323:.\main.c      ****                                 set_heading(180 + i*10);
 324:.\main.c      ****                                 rotate_degrees(0);
 325:.\main.c      ****                                 POS_PRINTF(0,0,"RIGHT to: %d", 180 - i*10);
 326:.\main.c      ****                                 CyDelay(500);
 327:.\main.c      ****                                 capture_thresh_image();
 328:.\main.c      ****                                 pucks = to_nearest_blob(current_color, 30, 10);
 329:.\main.c      ****                                 if (pucks != -1){
 330:.\main.c      ****                                     break;
 331:.\main.c      ****                                 }
 332:.\main.c      ****                             }
 333:.\main.c      ****                             if (pucks != -1){
 334:.\main.c      ****                                 break;
 335:.\main.c      ****                             }
 336:.\main.c      ****                             set_heading(180);
 337:.\main.c      ****                             rotate_degrees(0);
 338:.\main.c      ****                             no_puck_state = NP_TURNED_RIGHT;
 339:.\main.c      ****                             break;
 340:.\main.c      ****                         case NP_TURNED_RIGHT:
 341:.\main.c      ****                             go_forward(1000, 255);
 342:.\main.c      ****                             no_puck_state = NP_AHEAD;
 343:.\main.c      ****                             break;
 344:.\main.c      ****                     }
 345:.\main.c      ****                 }
 346:.\main.c      ****                 break;
 347:.\main.c      ****             case S_FACE_HOME:
 348:.\main.c      ****                 set_heading(90);
 349:.\main.c      ****                 rotate_degrees(0);
 350:.\main.c      ****                 set_heading(0);
 351:.\main.c      ****                 rotate_degrees(0);
 352:.\main.c      ****                 state = S_GO_HOME;
 353:.\main.c      ****                 break;
 354:.\main.c      ****             case S_GO_HOME:
 355:.\main.c      ****                 select_front();
 356:.\main.c      ****                 CyDelay(300);
 357:.\main.c      ****                 ir_result = get_ir_val();
 358:.\main.c      ****                 LCD_ClearDisplay();
 359:.\main.c      ****                 POS_PRINTF(0,0,"IN GO HOME I:%d U%d", ir_result, get_mean_ultra());
 360:.\main.c      ****                 //!!!!!!!!!!!
 361:.\main.c      ****                 //!!!!!!!!!!! CHECK AGAIN TO MAKE SURE IT WASNT JUST A PUCK BLOCKING the US
 362:.\main.c      ****                 //!!!!!!!!!!!
 363:.\main.c      ****                 if (get_mean_ultra() < near_base){ 
 364:.\main.c      ****                     state = S_NEAR_HOME_FIND_100;
 365:.\main.c      ****                     break;
 366:.\main.c      ****                 }
 367:.\main.c      ****                 
 368:.\main.c      ****                 state = S_GOING_HOME_CHECK_IR;
ARM GAS  C:\Users\xavieran\AppData\Local\Temp\cco2bJR3.s 			page 14


 369:.\main.c      ****                 set_heading(0);
 370:.\main.c      ****                 rotate_degrees(0);
 371:.\main.c      ****                 break;
 372:.\main.c      ****                 
 373:.\main.c      ****             case S_GOING_HOME_CHECK_IR:
 374:.\main.c      ****                 
 375:.\main.c      ****                 POS_PRINTF(0,0,"GOING HOME CHECK IR");
 376:.\main.c      ****                 select_front();
 377:.\main.c      ****                 ir_result = get_ir_val();
 378:.\main.c      ****                 POS_PRINTF(1,0,"I %d", ir_result);
 379:.\main.c      ****                 if (ir_result < 10){//IR INVALID
 380:.\main.c      ****                     go_forward(500, 255);
 381:.\main.c      ****                 } else if (within_range(57, ir_result, 60)){
 382:.\main.c      ****                     POS_PRINTF(1,5, "center");
 383:.\main.c      ****                     set_heading(0);
 384:.\main.c      ****                     go_forward(500, 255);
 385:.\main.c      ****                     break;
 386:.\main.c      ****                 } else if (within_range(95, ir_result, 105)){
 387:.\main.c      ****                     POS_PRINTF(1,5, "left");
 388:.\main.c      ****                     set_heading(0);
 389:.\main.c      ****                     go_forward(500, 255);
 390:.\main.c      ****                     break;
 391:.\main.c      ****                 } else if (within_range(25, ir_result,35)){
 392:.\main.c      ****                     POS_PRINTF(1,5, "right");
 393:.\main.c      ****                     set_heading(0);
 394:.\main.c      ****                     go_forward(500, 255);
 395:.\main.c      ****                     break;
 396:.\main.c      ****                 } else {
 397:.\main.c      ****                     POS_PRINTF(0,0,"something else");
 398:.\main.c      ****                     set_heading(0);
 399:.\main.c      ****                     go_forward(500,255);
 400:.\main.c      ****                 }
 401:.\main.c      ****                 CyDelay(500);
 402:.\main.c      ****                 if (get_mean_ultra() <= near_base){
 403:.\main.c      ****                     state = S_NEAR_HOME_FIND_100;
 404:.\main.c      ****                     start_time_find100 = Timer_ReadCounter();
 405:.\main.c      ****                 }
 406:.\main.c      ****                 
 407:.\main.c      ****                 break;
 408:.\main.c      ****             case S_NEAR_HOME_FIND_100:
 409:.\main.c      ****                 if (start_time_find100 - Timer_ReadCounter() >  10 * 20000){//We must be too far le
 410:.\main.c      ****                     go_backward(4000, 255);
 411:.\main.c      ****                     start_time_find100 = Timer_ReadCounter();
 412:.\main.c      ****                 }
 413:.\main.c      ****                 
 414:.\main.c      ****                 POS_PRINTF(0,0,"NEAR HOME FIND 100");
 415:.\main.c      ****                 //while (!but0_b){;}but0_b = 0;
 416:.\main.c      ****                 set_heading(90);
 417:.\main.c      ****                 rotate_degrees(0);
 418:.\main.c      ****                 CyDelay(300);
 419:.\main.c      ****                 select_right();
 420:.\main.c      ****                 ir_result = get_ir_val();
 421:.\main.c      ****                 POS_PRINTF(1,0,"i %d", ir_result);
 422:.\main.c      ****                 POS_PRINTF(1,5,"t %ld", Timer_ReadCounter());
 423:.\main.c      ****                 //while (!but0_b){;}but0_b = 0;
 424:.\main.c      ****                 
 425:.\main.c      ****                 if (within_range(96, ir_result, 105)){
ARM GAS  C:\Users\xavieran\AppData\Local\Temp\cco2bJR3.s 			page 15


 426:.\main.c      ****                     int i;
 427:.\main.c      ****                     int good_val = 1;
 428:.\main.c      ****                     for (i = 0; i < 3; i++){
 429:.\main.c      ****                         CyDelay(300);
 430:.\main.c      ****                         if (!within_range(96, get_ir_val(), 105)){
 431:.\main.c      ****                             good_val = 0;
 432:.\main.c      ****                             break;
 433:.\main.c      ****                         }
 434:.\main.c      ****                     }
 435:.\main.c      ****                     if (good_val){
 436:.\main.c      ****                         state = S_NEAR_HOME_FIND_60;
 437:.\main.c      ****                     }
 438:.\main.c      ****                     break;
 439:.\main.c      ****                 } else if (within_range(25, ir_result, 35)){
 440:.\main.c      ****                     go_forward(1000, 255);
 441:.\main.c      ****                 }
 442:.\main.c      ****                 go_forward(400, 255);
 443:.\main.c      ****                 break;
 444:.\main.c      ****                 
 445:.\main.c      ****             case S_NEAR_HOME_SAW_30:
 446:.\main.c      ****                 POS_PRINTF(0,0,"NEAR HOME SAW 30");
 447:.\main.c      ****                 CyDelay(300);
 448:.\main.c      ****                 select_right();
 449:.\main.c      ****                 ir_result = get_ir_val();
 450:.\main.c      ****                 POS_PRINTF(1,0,"ir%d", ir_result);
 451:.\main.c      ****                 
 452:.\main.c      ****                 if (within_range(57, ir_result, 65)){
 453:.\main.c      ****                     go_forward(1500, 255);
 454:.\main.c      ****                     set_heading(0);
 455:.\main.c      ****                     rotate_degrees(0);
 456:.\main.c      ****                     state = S_CENTERED_ON_BASE;
 457:.\main.c      ****                     break;
 458:.\main.c      ****                 }
 459:.\main.c      ****                 go_forward(400, 255);
 460:.\main.c      ****                 break;
 461:.\main.c      ****                 
 462:.\main.c      ****             case S_NEAR_HOME_FIND_60:
 463:.\main.c      ****                 POS_PRINTF(0,0,"NEAR HOME FIND 60");
 464:.\main.c      ****                 //while (!but0_b){;}but0_b = 0;
 465:.\main.c      ****                 CyDelay(500);
 466:.\main.c      ****                 select_right();
 467:.\main.c      ****                 ir_result = get_ir_val();
 468:.\main.c      ****                 POS_PRINTF(1,0,"ir%d", ir_result);
 469:.\main.c      ****                 //while (!but0_b){;}but0_b = 0;
 470:.\main.c      ****                 if (within_range(57, ir_result, 65)){
 471:.\main.c      ****                     set_heading(0);
 472:.\main.c      ****                     rotate_degrees(0);
 473:.\main.c      ****                     state = S_CENTERED_ON_BASE;
 474:.\main.c      ****                     break;
 475:.\main.c      ****                 } else if (within_range(27, ir_result, 33)){
 476:.\main.c      ****                     state = S_NEAR_HOME_SAW_30;
 477:.\main.c      ****                     break;
 478:.\main.c      ****                 }
 479:.\main.c      ****                 
 480:.\main.c      ****                 go_backward(250, 255);
 481:.\main.c      ****                 break;
 482:.\main.c      ****                 
ARM GAS  C:\Users\xavieran\AppData\Local\Temp\cco2bJR3.s 			page 16


 483:.\main.c      ****             case S_CENTERED_ON_BASE:
 484:.\main.c      ****                 POS_PRINTF(0,0,"CENTERED ON BASE");
 485:.\main.c      ****                 arm_inbetween_level(0,1);
 486:.\main.c      ****                 CyDelay(200);
 487:.\main.c      ****                 arm_set_level(0);
 488:.\main.c      ****                 CyDelay(200);
 489:.\main.c      ****                 drop_puck();
 490:.\main.c      ****                 go_forward(300, 255);
 491:.\main.c      ****                 pickup_puck();
 492:.\main.c      ****                 CyDelay(200);
 493:.\main.c      ****                 
 494:.\main.c      ****                 arm_set_level(4);
 495:.\main.c      ****                 
 496:.\main.c      ****                 while (get_mean_ultra() > 24){
 497:.\main.c      ****                     go_forward(500, 255);
 498:.\main.c      ****                     CyDelay(300);
 499:.\main.c      ****                 }
 500:.\main.c      ****                 int ultra = get_mean_ultra();
 501:.\main.c      ****                 int stackable = 0;
 502:.\main.c      ****                 while (!within_range(14,ultra,15) && !stackable){
 503:.\main.c      ****                     ultra = get_mean_ultra();
 504:.\main.c      ****                     POS_PRINTF(1,0,"ULTRA: %d", ultra);
 505:.\main.c      ****                     if (ultra > 15){
 506:.\main.c      ****                         go_forward(250, 200);
 507:.\main.c      ****                         rotate_degrees(0);
 508:.\main.c      ****                         CyDelay(300);
 509:.\main.c      ****                     } else if (ultra < 14){
 510:.\main.c      ****                         go_backward(200,200);
 511:.\main.c      ****                         rotate_degrees(0);
 512:.\main.c      ****                         CyDelay(300);
 513:.\main.c      ****                     } else if (ultra == 14){
 514:.\main.c      ****                         stackable = 1;
 515:.\main.c      ****                     }
 516:.\main.c      ****                 }
 517:.\main.c      ****                 STALL_SPEED = BASE_STALL_SPEED;
 518:.\main.c      ****                 set_heading(270);
 519:.\main.c      ****                 rotate_degrees(0);
 520:.\main.c      ****                 
 521:.\main.c      ****                 state = S_PLACE_PUCK;
 522:.\main.c      ****                 break;
 523:.\main.c      ****                 
 524:.\main.c      ****             case S_PLACE_PUCK:
 525:.\main.c      ****                 //FIRST PUCK EVER!
 526:.\main.c      ****                 HEADING_ERROR_LIMIT = 2;
 527:.\main.c      ****                 if (pucks_gotten == 1){
 528:.\main.c      ****                     for (i = 0; i < 3; i++){
 529:.\main.c      ****                         go_forward(500, 200);
 530:.\main.c      ****                         CyDelay(600);
 531:.\main.c      ****                     }
 532:.\main.c      ****                     CyDelay(300);
 533:.\main.c      ****                     set_heading(270);
 534:.\main.c      ****                     rotate_degrees(0);
 535:.\main.c      ****                     arm_inbetween_level(0,1);
 536:.\main.c      ****                     CyDelay(300);
 537:.\main.c      ****                     drop_puck();
 538:.\main.c      ****                     CyDelay(200);
 539:.\main.c      ****                     go_backward(2000, 255);
ARM GAS  C:\Users\xavieran\AppData\Local\Temp\cco2bJR3.s 			page 17


 540:.\main.c      ****                 } else {
 541:.\main.c      ****                     arm_set_level(pucks_gotten + 1);
 542:.\main.c      ****                     go_forward(500, 200);
 543:.\main.c      ****                     int on_stack = 0;
 544:.\main.c      ****                     
 545:.\main.c      ****                     while (!on_stack){
 546:.\main.c      ****                         POS_PRINTF(0,0,"STACKING!");
 547:.\main.c      ****                         POS_PRINTF(1, 0, "B%d SU%d", beam_broken(), get_mean_ultra_s());
 548:.\main.c      ****                         if (beam_broken()){
 549:.\main.c      ****                             on_stack = 1;
 550:.\main.c      ****                         } else if (get_mean_ultra_s() < 10){
 551:.\main.c      ****                             go_backward(200, 255);
 552:.\main.c      ****                             on_stack = 1;
 553:.\main.c      ****                         } else if (get_mean_ultra_s() > 17) {
 554:.\main.c      ****                             go_forward(300, 255);
 555:.\main.c      ****                             rotate_degrees(0);
 556:.\main.c      ****                         } else {
 557:.\main.c      ****                             go_forward(200, 255);
 558:.\main.c      ****                             rotate_degrees(0);
 559:.\main.c      ****                         }
 560:.\main.c      ****                     }
 561:.\main.c      ****                     
 562:.\main.c      ****                     #define LEVEL_1_DIST 14
 563:.\main.c      ****                     #define LEVEL_2_DIST 15
 564:.\main.c      ****                     #define LEVEL_3_DIST 16
 565:.\main.c      ****                     
 566:.\main.c      ****                     int ultra = get_mean_ultra_s();
 567:.\main.c      ****                     int stackable = 0;
 568:.\main.c      ****                     switch (pucks_gotten){
 569:.\main.c      ****                         case 2:
 570:.\main.c      ****                             while (!within_range(LEVEL_1_DIST,ultra,LEVEL_1_DIST + 1) && !stackable
 571:.\main.c      ****                                 ultra = get_mean_ultra_s();
 572:.\main.c      ****                                 POS_PRINTF(1,0,"ULTRA: %d", ultra);
 573:.\main.c      ****                                 if (ultra > LEVEL_1_DIST + 1){
 574:.\main.c      ****                                     go_forward(300, 140);
 575:.\main.c      ****                                     rotate_degrees(0);
 576:.\main.c      ****                                     CyDelay(300);
 577:.\main.c      ****                                 } else if (ultra < LEVEL_1_DIST){
 578:.\main.c      ****                                     go_backward(140,140);
 579:.\main.c      ****                                     rotate_degrees(0);
 580:.\main.c      ****                                     CyDelay(300);
 581:.\main.c      ****                                 } else if (ultra == LEVEL_1_DIST){
 582:.\main.c      ****                                     stackable = 1;
 583:.\main.c      ****                                 }
 584:.\main.c      ****                             }
 585:.\main.c      ****                             break;   
 586:.\main.c      ****                         case 3:
 587:.\main.c      ****                             while (!within_range(LEVEL_2_DIST,ultra,LEVEL_2_DIST+1) && !stackable){
 588:.\main.c      ****                                 ultra = get_mean_ultra_s();
 589:.\main.c      ****                                 POS_PRINTF(1,0,"ULTRA: %d", ultra);
 590:.\main.c      ****                                 if (ultra > LEVEL_2_DIST + 1){
 591:.\main.c      ****                                     go_forward(300, 140);
 592:.\main.c      ****                                     rotate_degrees(0);
 593:.\main.c      ****                                     CyDelay(300);
 594:.\main.c      ****                                 } else if (ultra < LEVEL_2_DIST){
 595:.\main.c      ****                                     go_backward(140,140);
 596:.\main.c      ****                                     rotate_degrees(0);
ARM GAS  C:\Users\xavieran\AppData\Local\Temp\cco2bJR3.s 			page 18


 597:.\main.c      ****                                     CyDelay(300);
 598:.\main.c      ****                                 } else if (ultra == LEVEL_2_DIST){
 599:.\main.c      ****                                     stackable = 1;
 600:.\main.c      ****                                 }
 601:.\main.c      ****                             }
 602:.\main.c      ****                             break;
 603:.\main.c      ****                         case 4:
 604:.\main.c      ****                             while (!within_range(LEVEL_3_DIST,ultra,LEVEL_3_DIST+10) && !stackable)
 605:.\main.c      ****                                 ultra = get_mean_ultra_s();
 606:.\main.c      ****                                 POS_PRINTF(1,0,"ULTRA: %d", ultra);
 607:.\main.c      ****                                 if (ultra > LEVEL_3_DIST + 1){
 608:.\main.c      ****                                     go_forward(300, 140);
 609:.\main.c      ****                                     rotate_degrees(0);
 610:.\main.c      ****                                     CyDelay(300);
 611:.\main.c      ****                                 } else if (ultra < LEVEL_3_DIST){
 612:.\main.c      ****                                     go_backward(140,140);
 613:.\main.c      ****                                     rotate_degrees(0);
 614:.\main.c      ****                                     CyDelay(300);
 615:.\main.c      ****                                 } else if (ultra == LEVEL_3_DIST){
 616:.\main.c      ****                                     stackable = 1;
 617:.\main.c      ****                                 }
 618:.\main.c      ****                             }
 619:.\main.c      ****                             break;
 620:.\main.c      ****                     }
 621:.\main.c      ****                     arm_inbetween_level(pucks_gotten - 1, pucks_gotten);
 622:.\main.c      ****                     CyDelay(800);
 623:.\main.c      ****                     drop_puck();
 624:.\main.c      ****                     CyDelay(200);
 625:.\main.c      ****                     go_backward(1400, 255);
 626:.\main.c      ****                     arm_carry_home();
 627:.\main.c      ****                     arm_set_level(0);
 628:.\main.c      ****                     CyDelay(200);
 629:.\main.c      ****                 }
 630:.\main.c      ****                 
 631:.\main.c      ****                 HEADING_ERROR_LIMIT = 3;
 632:.\main.c      ****                 set_heading(0);
 633:.\main.c      ****                 rotate_degrees(0);
 634:.\main.c      ****                 go_backward(1500, 255);
 635:.\main.c      ****                 
 636:.\main.c      ****                 if (pucks_gotten == 4){
 637:.\main.c      ****                     state = S_GRAB_BEACON;
 638:.\main.c      ****                 } else {
 639:.\main.c      ****                     state = S_LEAVE_BASE;
 640:.\main.c      ****                 }
 641:.\main.c      ****                 break;
 642:.\main.c      ****                     
 643:.\main.c      ****             case S_GRAB_BEACON:
 644:.\main.c      ****                 POS_PRINTF(0,0,"GOT HOME");
 645:.\main.c      ****                 set_heading(0);
 646:.\main.c      ****                 rotate_degrees(0);
 647:.\main.c      ****                 arm_set_level(6);
 648:.\main.c      ****                 go_forward(500, 255);
 649:.\main.c      ****                 pickup_angled_puck();
 650:.\main.c      ****                 break;
 651:.\main.c      ****             case S_GOT_HOME:
 652:.\main.c      ****                 POS_PRINTF(0,0,"VICTORY!!!");
 653:.\main.c      ****                 break;
ARM GAS  C:\Users\xavieran\AppData\Local\Temp\cco2bJR3.s 			page 19


 654:.\main.c      ****         }
 655:.\main.c      ****         
 656:.\main.c      ****         /*
 657:.\main.c      ****         LCD_ClearDisplay();
 658:.\main.c      ****         sprintf(outString, "u %d ic %d", ultra_distance, ir_result);
 659:.\main.c      ****         LCD_PosPrintString(0,0,outString);
 660:.\main.c      ****         sprintf(outString, "s%d c%d vu %d", state, compass_heading, get_var_ultra());
 661:.\main.c      ****         LCD_PosPrintString(1,0,outString);
 662:.\main.c      ****         CyDelay(50);*/
 663:.\main.c      ****     }
 308              		.loc 1 663 0
 309 0074 00BF     		nop
 310              	.L102:
 199:.\main.c      ****         switch(state){
 311              		.loc 1 199 0
 312 0076 B7F84E30 		ldrh	r3, [r7, #78]
 313 007a 0E2B     		cmp	r3, #14
 314 007c FAD8     		bhi	.L103
 315 007e 01A2     		adr	r2, .L13
 316 0080 52F823F0 		ldr	pc, [r2, r3, lsl #2]
 317              		.p2align 2
 318              	.L13:
 319 0084 C1000000 		.word	.L12+1
 320 0088 B3010000 		.word	.L14+1
 321 008c DF010000 		.word	.L15+1
 322 0090 2B020000 		.word	.L16+1
 323 0094 51050000 		.word	.L17+1
 324 0098 2F050000 		.word	.L18+1
 325 009c 5D0E0000 		.word	.L19+1
 326 00a0 75000000 		.word	.L103+1
 327 00a4 B9050000 		.word	.L20+1
 328 00a8 55070000 		.word	.L21+1
 329 00ac 01090000 		.word	.L22+1
 330 00b0 97090000 		.word	.L23+1
 331 00b4 DB0A0000 		.word	.L24+1
 332 00b8 79080000 		.word	.L25+1
 333 00bc 230E0000 		.word	.L26+1
 334              		.p2align 1
 335              	.L12:
 336              	.LBB2:
 201:.\main.c      ****                 pickup_angled_puck();
 337              		.loc 1 201 0
 338 00c0 FFF7FEFF 		bl	pickup_angled_puck
 202:.\main.c      ****                 CyDelay(500);
 339              		.loc 1 202 0
 340 00c4 4FF4FA70 		mov	r0, #500
 341 00c8 FFF7FEFF 		bl	CyDelay
 203:.\main.c      ****                 arm_set_level(6);
 342              		.loc 1 203 0
 343 00cc 0620     		movs	r0, #6
 344 00ce FFF7FEFF 		bl	arm_set_level
 204:.\main.c      ****                 CyDelay(1000);
 345              		.loc 1 204 0
 346 00d2 4FF47A70 		mov	r0, #1000
 347 00d6 FFF7FEFF 		bl	CyDelay
 205:.\main.c      ****                 go_forward(1600, 200);
 348              		.loc 1 205 0
ARM GAS  C:\Users\xavieran\AppData\Local\Temp\cco2bJR3.s 			page 20


 349 00da 4FF4C860 		mov	r0, #1600
 350 00de C821     		movs	r1, #200
 351 00e0 FFF7FEFF 		bl	go_forward
 206:.\main.c      ****                 CyDelay(300);
 352              		.loc 1 206 0
 353 00e4 4FF49670 		mov	r0, #300
 354 00e8 FFF7FEFF 		bl	CyDelay
 207:.\main.c      ****                 pickup_puck();
 355              		.loc 1 207 0
 356 00ec FFF7FEFF 		bl	pickup_puck
 208:.\main.c      ****                 CyDelay(500);
 357              		.loc 1 208 0
 358 00f0 4FF4FA70 		mov	r0, #500
 359 00f4 FFF7FEFF 		bl	CyDelay
 209:.\main.c      ****                 drop_puck();
 360              		.loc 1 209 0
 361 00f8 FFF7FEFF 		bl	drop_puck
 210:.\main.c      ****                 CyDelay(500);
 362              		.loc 1 210 0
 363 00fc 4FF4FA70 		mov	r0, #500
 364 0100 FFF7FEFF 		bl	CyDelay
 211:.\main.c      ****                 go_backward_ultra(10, 180);
 365              		.loc 1 211 0
 366 0104 0A20     		movs	r0, #10
 367 0106 B421     		movs	r1, #180
 368 0108 FFF7FEFF 		bl	go_backward_ultra
 212:.\main.c      ****                 POS_PRINTF(0,0,"DROPPED BEACON");
 369              		.loc 1 212 0
 370 010c 9D4A     		ldr	r2, .L107+12
 371 010e 9E4B     		ldr	r3, .L107+16
 372 0110 1446     		mov	r4, r2
 373 0112 0FCB     		ldmia	r3, {r0, r1, r2, r3}
 374 0114 07C4     		stmia	r4!, {r0, r1, r2}
 375 0116 2380     		strh	r3, [r4]	@ movhi
 376 0118 0234     		adds	r4, r4, #2
 377 011a 1B0C     		lsrs	r3, r3, #16
 378 011c 2370     		strb	r3, [r4]
 379 011e 0020     		movs	r0, #0
 380 0120 0021     		movs	r1, #0
 381 0122 FFF7FEFF 		bl	LCD_Position
 382 0126 9748     		ldr	r0, .L107+12
 383 0128 FFF7FEFF 		bl	LCD_PrintString
 214:.\main.c      ****                 arm_set_level(1);
 384              		.loc 1 214 0
 385 012c 0120     		movs	r0, #1
 386 012e FFF7FEFF 		bl	arm_set_level
 215:.\main.c      ****                 CyDelay(500);
 387              		.loc 1 215 0
 388 0132 4FF4FA70 		mov	r0, #500
 389 0136 FFF7FEFF 		bl	CyDelay
 216:.\main.c      ****                 LCD_PosPrintString(0,0,"STARTING CAM");
 390              		.loc 1 216 0
 391 013a 0020     		movs	r0, #0
 392 013c 0021     		movs	r1, #0
 393 013e FFF7FEFF 		bl	LCD_Position
 394 0142 9248     		ldr	r0, .L107+20
 395 0144 FFF7FEFF 		bl	LCD_PrintString
ARM GAS  C:\Users\xavieran\AppData\Local\Temp\cco2bJR3.s 			page 21


 217:.\main.c      ****                 init_camera();
 396              		.loc 1 217 0
 397 0148 FFF7FEFF 		bl	init_camera
 218:.\main.c      ****                 LCD_PosPrintString(0,0, "CAMERA STARTED!!!");
 398              		.loc 1 218 0
 399 014c 0020     		movs	r0, #0
 400 014e 0021     		movs	r1, #0
 401 0150 FFF7FEFF 		bl	LCD_Position
 402 0154 8E48     		ldr	r0, .L107+24
 403 0156 FFF7FEFF 		bl	LCD_PrintString
 219:.\main.c      ****                 arm_inbetween_level(0,1);
 404              		.loc 1 219 0
 405 015a 0020     		movs	r0, #0
 406 015c 0121     		movs	r1, #1
 407 015e FFF7FEFF 		bl	arm_inbetween_level
 220:.\main.c      ****                 CyDelay(500);
 408              		.loc 1 220 0
 409 0162 4FF4FA70 		mov	r0, #500
 410 0166 FFF7FEFF 		bl	CyDelay
 221:.\main.c      ****                 set_gain_exposure(2);
 411              		.loc 1 221 0
 412 016a 0220     		movs	r0, #2
 413 016c FFF7FEFF 		bl	set_gain_exposure
 222:.\main.c      ****                 capture_thresh_image();
 414              		.loc 1 222 0
 415 0170 FFF7FEFF 		bl	capture_thresh_image
 223:.\main.c      ****                 sideways_instruction_read();
 416              		.loc 1 223 0
 417 0174 FFF7FEFF 		bl	sideways_instruction_read
 224:.\main.c      ****                 set_gain_exposure(1);
 418              		.loc 1 224 0
 419 0178 0120     		movs	r0, #1
 420 017a FFF7FEFF 		bl	set_gain_exposure
 225:.\main.c      ****                 POS_PRINTF(1,0,"%d %d %d %d", stack[3], stack[2], stack[1], stack[0]);
 421              		.loc 1 225 0
 422 017e 854B     		ldr	r3, .L107+28
 423 0180 DA68     		ldr	r2, [r3, #12]
 424 0182 844B     		ldr	r3, .L107+28
 425 0184 9B68     		ldr	r3, [r3, #8]
 426 0186 8349     		ldr	r1, .L107+28
 427 0188 4868     		ldr	r0, [r1, #4]
 428 018a 8249     		ldr	r1, .L107+28
 429 018c 0968     		ldr	r1, [r1]
 430 018e 0090     		str	r0, [sp]
 431 0190 0191     		str	r1, [sp, #4]
 432 0192 7C48     		ldr	r0, .L107+12
 433 0194 8049     		ldr	r1, .L107+32
 434 0196 FFF7FEFF 		bl	sprintf
 435 019a 0120     		movs	r0, #1
 436 019c 0021     		movs	r1, #0
 437 019e FFF7FEFF 		bl	LCD_Position
 438 01a2 7848     		ldr	r0, .L107+12
 439 01a4 FFF7FEFF 		bl	LCD_PrintString
 226:.\main.c      ****                 state = S_LEAVE_BASE;
 440              		.loc 1 226 0
 441 01a8 0123     		movs	r3, #1
 442 01aa A7F84E30 		strh	r3, [r7, #78]	@ movhi
ARM GAS  C:\Users\xavieran\AppData\Local\Temp\cco2bJR3.s 			page 22


 227:.\main.c      ****                 break;
 443              		.loc 1 227 0
 444 01ae 00F065BE 		b	.L11
 445              	.L14:
 230:.\main.c      ****                 arm_set_level(0);
 446              		.loc 1 230 0
 447 01b2 0020     		movs	r0, #0
 448 01b4 FFF7FEFF 		bl	arm_set_level
 231:.\main.c      ****                 go_backward_ultra(60, 255);
 449              		.loc 1 231 0
 450 01b8 3C20     		movs	r0, #60
 451 01ba FF21     		movs	r1, #255
 452 01bc FFF7FEFF 		bl	go_backward_ultra
 232:.\main.c      ****                 state = S_LEFT_BASE;
 453              		.loc 1 232 0
 454 01c0 0223     		movs	r3, #2
 455 01c2 A7F84E30 		strh	r3, [r7, #78]	@ movhi
 233:.\main.c      ****                 current_color = stack[(4 - pucks_gotten) - 1];
 456              		.loc 1 233 0
 457 01c6 BB6C     		ldr	r3, [r7, #72]
 458 01c8 C3F10302 		rsb	r2, r3, #3
 459 01cc 714B     		ldr	r3, .L107+28
 460 01ce 53F82230 		ldr	r3, [r3, r2, lsl #2]
 461 01d2 7B64     		str	r3, [r7, #68]
 234:.\main.c      ****                 STALL_SPEED = ARENA_STALL_SPEED;
 462              		.loc 1 234 0
 463 01d4 714B     		ldr	r3, .L107+36
 464 01d6 8C22     		movs	r2, #140
 465 01d8 1A70     		strb	r2, [r3]
 235:.\main.c      ****                 break;
 466              		.loc 1 235 0
 467 01da 00F04FBE 		b	.L11
 468              	.L15:
 237:.\main.c      ****                 set_heading(90);
 469              		.loc 1 237 0
 470 01de 5A20     		movs	r0, #90
 471 01e0 FFF7FEFF 		bl	set_heading
 238:.\main.c      ****                 rotate_degrees(0);
 472              		.loc 1 238 0
 473 01e4 0020     		movs	r0, #0
 474 01e6 FFF7FEFF 		bl	rotate_degrees
 239:.\main.c      ****                 CyDelay(500);
 475              		.loc 1 239 0
 476 01ea 4FF4FA70 		mov	r0, #500
 477 01ee FFF7FEFF 		bl	CyDelay
 240:.\main.c      ****                 go_backward(1400, 255);
 478              		.loc 1 240 0
 479 01f2 4FF4AF60 		mov	r0, #1400
 480 01f6 FF21     		movs	r1, #255
 481 01f8 FFF7FEFF 		bl	go_backward
 241:.\main.c      ****                 CyDelay(500);
 482              		.loc 1 241 0
 483 01fc 4FF4FA70 		mov	r0, #500
 484 0200 FFF7FEFF 		bl	CyDelay
 242:.\main.c      ****                 set_heading(180);
 485              		.loc 1 242 0
 486 0204 B420     		movs	r0, #180
ARM GAS  C:\Users\xavieran\AppData\Local\Temp\cco2bJR3.s 			page 23


 487 0206 FFF7FEFF 		bl	set_heading
 243:.\main.c      ****                 rotate_degrees(0);
 488              		.loc 1 243 0
 489 020a 0020     		movs	r0, #0
 490 020c FFF7FEFF 		bl	rotate_degrees
 244:.\main.c      ****                 CyDelay(500);
 491              		.loc 1 244 0
 492 0210 4FF4FA70 		mov	r0, #500
 493 0214 FFF7FEFF 		bl	CyDelay
 245:.\main.c      ****                 start_time_find_puck = Timer_ReadCounter();
 494              		.loc 1 245 0
 495 0218 FFF7FEFF 		bl	Timer_ReadCounter
 496 021c 0346     		mov	r3, r0
 497 021e FB63     		str	r3, [r7, #60]
 246:.\main.c      ****                 state = S_FIND_PUCK;
 498              		.loc 1 246 0
 499 0220 0323     		movs	r3, #3
 500 0222 A7F84E30 		strh	r3, [r7, #78]	@ movhi
 247:.\main.c      ****                 break;
 501              		.loc 1 247 0
 502 0226 00F029BE 		b	.L11
 503              	.L16:
 249:.\main.c      ****                 POS_PRINTF(1,0,"FIND %d of %d", current_color, pucks_gotten);
 504              		.loc 1 249 0
 505 022a 5648     		ldr	r0, .L107+12
 506 022c 5C49     		ldr	r1, .L107+40
 507 022e 7A6C     		ldr	r2, [r7, #68]
 508 0230 BB6C     		ldr	r3, [r7, #72]
 509 0232 FFF7FEFF 		bl	sprintf
 510 0236 0120     		movs	r0, #1
 511 0238 0021     		movs	r1, #0
 512 023a FFF7FEFF 		bl	LCD_Position
 513 023e 5148     		ldr	r0, .L107+12
 514 0240 FFF7FEFF 		bl	LCD_PrintString
 250:.\main.c      ****                 if (start_time_find_puck - Timer_ReadCounter() > 10 * 35000){
 515              		.loc 1 250 0
 516 0244 FC6B     		ldr	r4, [r7, #60]
 517 0246 FFF7FEFF 		bl	Timer_ReadCounter
 518 024a 0346     		mov	r3, r0
 519 024c E21A     		subs	r2, r4, r3
 520 024e 554B     		ldr	r3, .L107+44
 521 0250 9A42     		cmp	r2, r3
 522 0252 0BD9     		bls	.L27
 251:.\main.c      ****                     set_heading(180);
 523              		.loc 1 251 0
 524 0254 B420     		movs	r0, #180
 525 0256 FFF7FEFF 		bl	set_heading
 252:.\main.c      ****                     go_backward(4000, 255);
 526              		.loc 1 252 0
 527 025a 4FF47A60 		mov	r0, #4000
 528 025e FF21     		movs	r1, #255
 529 0260 FFF7FEFF 		bl	go_backward
 253:.\main.c      ****                     start_time_find_puck = Timer_ReadCounter();
 530              		.loc 1 253 0
 531 0264 FFF7FEFF 		bl	Timer_ReadCounter
 532 0268 0346     		mov	r3, r0
 533 026a FB63     		str	r3, [r7, #60]
ARM GAS  C:\Users\xavieran\AppData\Local\Temp\cco2bJR3.s 			page 24


 534              	.L27:
 255:.\main.c      ****                 CyDelay(300);
 535              		.loc 1 255 0
 536 026c 4FF49670 		mov	r0, #300
 537 0270 FFF7FEFF 		bl	CyDelay
 256:.\main.c      ****                 capture_thresh_image();
 538              		.loc 1 256 0
 539 0274 FFF7FEFF 		bl	capture_thresh_image
 257:.\main.c      ****                 int pucks = to_nearest_blob(current_color, 30, 10);
 540              		.loc 1 257 0
 541 0278 786C     		ldr	r0, [r7, #68]
 542 027a 1E21     		movs	r1, #30
 543 027c 0A22     		movs	r2, #10
 544 027e FFF7FEFF 		bl	to_nearest_blob
 545 0282 3863     		str	r0, [r7, #48]
 259:.\main.c      ****                 if (pucks == 0){
 546              		.loc 1 259 0
 547 0284 3B6B     		ldr	r3, [r7, #48]
 548 0286 002B     		cmp	r3, #0
 549 0288 40F09180 		bne	.L28
 261:.\main.c      ****                     go_forward(1000, 255);
 550              		.loc 1 261 0
 551 028c 4FF47A70 		mov	r0, #1000
 552 0290 FF21     		movs	r1, #255
 553 0292 FFF7FEFF 		bl	go_forward
 262:.\main.c      ****                     if (beam_broken()){
 554              		.loc 1 262 0
 555 0296 FFF7FEFF 		bl	beam_broken
 556 029a 0346     		mov	r3, r0
 557 029c 002B     		cmp	r3, #0
 558 029e 00F08580 		beq	.L29
 559              	.LBB3:
 263:.\main.c      ****                         go_forward(300, 255);
 560              		.loc 1 263 0
 561 02a2 4FF49670 		mov	r0, #300
 562 02a6 FF21     		movs	r1, #255
 563 02a8 FFF7FEFF 		bl	go_forward
 264:.\main.c      ****                         pickup_puck();
 564              		.loc 1 264 0
 565 02ac FFF7FEFF 		bl	pickup_puck
 265:.\main.c      ****                         CyDelay(100);
 566              		.loc 1 265 0
 567 02b0 6420     		movs	r0, #100
 568 02b2 FFF7FEFF 		bl	CyDelay
 266:.\main.c      ****                         int old_heading = compass_heading;
 569              		.loc 1 266 0
 570 02b6 314B     		ldr	r3, .L107+4
 571 02b8 1B88     		ldrh	r3, [r3]
 572 02ba 1BB2     		sxth	r3, r3
 573 02bc FB60     		str	r3, [r7, #12]
 268:.\main.c      ****                         arm_carry_home();
 574              		.loc 1 268 0
 575 02be FFF7FEFF 		bl	arm_carry_home
 269:.\main.c      ****                         set_heading(90);
 576              		.loc 1 269 0
 577 02c2 5A20     		movs	r0, #90
 578 02c4 FFF7FEFF 		bl	set_heading
ARM GAS  C:\Users\xavieran\AppData\Local\Temp\cco2bJR3.s 			page 25


 270:.\main.c      ****                         rotate_degrees(0);
 579              		.loc 1 270 0
 580 02c8 0020     		movs	r0, #0
 581 02ca FFF7FEFF 		bl	rotate_degrees
 271:.\main.c      ****                         arm_set_level(0);
 582              		.loc 1 271 0
 583 02ce 0020     		movs	r0, #0
 584 02d0 FFF7FEFF 		bl	arm_set_level
 272:.\main.c      ****                         CyDelay(300);
 585              		.loc 1 272 0
 586 02d4 4FF49670 		mov	r0, #300
 587 02d8 FFF7FEFF 		bl	CyDelay
 273:.\main.c      ****                         capture_thresh_image();
 588              		.loc 1 273 0
 589 02dc FFF7FEFF 		bl	capture_thresh_image
 274:.\main.c      ****                         int color = identify_colour_gripper();
 590              		.loc 1 274 0
 591 02e0 FFF7FEFF 		bl	identify_colour_gripper
 592 02e4 B860     		str	r0, [r7, #8]
 275:.\main.c      ****                         POS_PRINTF(0,0,"SEE C: %d", color);
 593              		.loc 1 275 0
 594 02e6 2748     		ldr	r0, .L107+12
 595 02e8 2F49     		ldr	r1, .L107+48
 596 02ea BA68     		ldr	r2, [r7, #8]
 597 02ec FFF7FEFF 		bl	sprintf
 598 02f0 0020     		movs	r0, #0
 599 02f2 0021     		movs	r1, #0
 600 02f4 FFF7FEFF 		bl	LCD_Position
 601 02f8 2248     		ldr	r0, .L107+12
 602 02fa FFF7FEFF 		bl	LCD_PrintString
 276:.\main.c      ****                         CyDelay(3000);
 603              		.loc 1 276 0
 604 02fe 40F6B830 		movw	r0, #3000
 605 0302 FFF7FEFF 		bl	CyDelay
 277:.\main.c      ****                         if (color != current_color){
 606              		.loc 1 277 0
 607 0306 BA68     		ldr	r2, [r7, #8]
 608 0308 7B6C     		ldr	r3, [r7, #68]
 609 030a 9A42     		cmp	r2, r3
 610 030c 1BD0     		beq	.L30
 278:.\main.c      ****                             go_forward(500, 255);
 611              		.loc 1 278 0
 612 030e 4FF4FA70 		mov	r0, #500
 613 0312 FF21     		movs	r1, #255
 614 0314 FFF7FEFF 		bl	go_forward
 279:.\main.c      ****                             drop_puck();
 615              		.loc 1 279 0
 616 0318 FFF7FEFF 		bl	drop_puck
 280:.\main.c      ****                             go_backward(500, 255);
 617              		.loc 1 280 0
 618 031c 4FF4FA70 		mov	r0, #500
 619 0320 FF21     		movs	r1, #255
 620 0322 FFF7FEFF 		bl	go_backward
 281:.\main.c      ****                             arm_set_level(0);
 621              		.loc 1 281 0
 622 0326 0020     		movs	r0, #0
 623 0328 FFF7FEFF 		bl	arm_set_level
ARM GAS  C:\Users\xavieran\AppData\Local\Temp\cco2bJR3.s 			page 26


 282:.\main.c      ****                             CyDelay(100);
 624              		.loc 1 282 0
 625 032c 6420     		movs	r0, #100
 626 032e FFF7FEFF 		bl	CyDelay
 283:.\main.c      ****                             set_heading(old_heading);
 627              		.loc 1 283 0
 628 0332 FB68     		ldr	r3, [r7, #12]
 629 0334 9BB2     		uxth	r3, r3
 630 0336 1BB2     		sxth	r3, r3
 631 0338 1846     		mov	r0, r3
 632 033a FFF7FEFF 		bl	set_heading
 284:.\main.c      ****                             rotate_degrees(0);
 633              		.loc 1 284 0
 634 033e 0020     		movs	r0, #0
 635 0340 FFF7FEFF 		bl	rotate_degrees
 636 0344 32E0     		b	.L29
 637              	.L30:
 286:.\main.c      ****                             start_time_find_puck = Timer_ReadCounter();
 638              		.loc 1 286 0
 639 0346 FFF7FEFF 		bl	Timer_ReadCounter
 640 034a 0346     		mov	r3, r0
 641 034c FB63     		str	r3, [r7, #60]
 287:.\main.c      ****                             arm_carry_home();
 642              		.loc 1 287 0
 643 034e FFF7FEFF 		bl	arm_carry_home
 288:.\main.c      ****                             set_heading(180);
 644              		.loc 1 288 0
 645 0352 B420     		movs	r0, #180
 646 0354 FFF7FEFF 		bl	set_heading
 289:.\main.c      ****                             rotate_degrees(0);
 647              		.loc 1 289 0
 648 0358 0020     		movs	r0, #0
 649 035a FFF7FEFF 		bl	rotate_degrees
 290:.\main.c      ****                             go_backward(1500, 255);
 650              		.loc 1 290 0
 651 035e 40F2DC50 		movw	r0, #1500
 652 0362 FF21     		movs	r1, #255
 653 0364 FFF7FEFF 		bl	go_backward
 291:.\main.c      ****                             pucks_gotten++;
 654              		.loc 1 291 0
 655 0368 BB6C     		ldr	r3, [r7, #72]
 656 036a 0133     		adds	r3, r3, #1
 657 036c BB64     		str	r3, [r7, #72]
 292:.\main.c      ****                             state = S_FACE_HOME;
 658              		.loc 1 292 0
 659 036e 0523     		movs	r3, #5
 660 0370 A7F84E30 		strh	r3, [r7, #78]	@ movhi
 293:.\main.c      ****                             break;
 661              		.loc 1 293 0
 662 0374 00F082BD 		b	.L11
 663              	.L108:
 664              		.align	2
 665              	.L107:
 666 0378 00000000 		.word	compass_ready
 667 037c 00000000 		.word	compass_heading
 668 0380 00000000 		.word	original_compass_heading
 669 0384 00000000 		.word	outString
ARM GAS  C:\Users\xavieran\AppData\Local\Temp\cco2bJR3.s 			page 27


 670 0388 00000000 		.word	.LC0
 671 038c 10000000 		.word	.LC1
 672 0390 20000000 		.word	.LC2
 673 0394 00000000 		.word	stack
 674 0398 34000000 		.word	.LC3
 675 039c 00000000 		.word	STALL_SPEED
 676 03a0 40000000 		.word	.LC4
 677 03a4 30570500 		.word	350000
 678 03a8 50000000 		.word	.LC5
 679              	.L29:
 680              	.LBE3:
 681 03ac BDE0     		b	.L31
 682              	.L28:
 296:.\main.c      ****                 } else if (pucks < 0){
 683              		.loc 1 296 0
 684 03ae 3B6B     		ldr	r3, [r7, #48]
 685 03b0 002B     		cmp	r3, #0
 686 03b2 04DA     		bge	.L32
 297:.\main.c      ****                     rotate_degrees(-6);
 687              		.loc 1 297 0
 688 03b4 6FF00500 		mvn	r0, #5
 689 03b8 FFF7FEFF 		bl	rotate_degrees
 690 03bc B5E0     		b	.L31
 691              	.L32:
 298:.\main.c      ****                 } else if (pucks > 0){
 692              		.loc 1 298 0
 693 03be 3B6B     		ldr	r3, [r7, #48]
 694 03c0 002B     		cmp	r3, #0
 695 03c2 03DD     		ble	.L33
 299:.\main.c      ****                     rotate_degrees(6);
 696              		.loc 1 299 0
 697 03c4 0620     		movs	r0, #6
 698 03c6 FFF7FEFF 		bl	rotate_degrees
 699 03ca AEE0     		b	.L31
 700              	.L33:
 300:.\main.c      ****                 } else if (pucks == -1){
 701              		.loc 1 300 0
 702 03cc 3B6B     		ldr	r3, [r7, #48]
 703 03ce B3F1FF3F 		cmp	r3, #-1
 704 03d2 40F0AA80 		bne	.L31
 301:.\main.c      ****                     switch (no_puck_state){
 705              		.loc 1 301 0
 706 03d6 BB6B     		ldr	r3, [r7, #56]
 707 03d8 012B     		cmp	r3, #1
 708 03da 00F09E80 		beq	.L34
 709 03de 022B     		cmp	r3, #2
 710 03e0 50D0     		beq	.L35
 711 03e2 002B     		cmp	r3, #0
 712 03e4 01D0     		beq	.L36
 346:.\main.c      ****                 break;
 713              		.loc 1 346 0
 714 03e6 00F049BD 		b	.L11
 715              	.L36:
 303:.\main.c      ****                             for (i = 1; i < 8; i++){
 716              		.loc 1 303 0
 717 03ea 0123     		movs	r3, #1
 718 03ec 7B63     		str	r3, [r7, #52]
ARM GAS  C:\Users\xavieran\AppData\Local\Temp\cco2bJR3.s 			page 28


 719 03ee 38E0     		b	.L37
 720              	.L40:
 304:.\main.c      ****                                 set_heading(180 - i*10);
 721              		.loc 1 304 0
 722 03f0 7B6B     		ldr	r3, [r7, #52]
 723 03f2 9BB2     		uxth	r3, r3
 724 03f4 1A46     		mov	r2, r3	@ movhi
 725 03f6 5203     		lsls	r2, r2, #13
 726 03f8 D21A     		subs	r2, r2, r3
 727 03fa 9200     		lsls	r2, r2, #2
 728 03fc D31A     		subs	r3, r2, r3
 729 03fe 5B00     		lsls	r3, r3, #1
 730 0400 9BB2     		uxth	r3, r3
 731 0402 B433     		adds	r3, r3, #180
 732 0404 9BB2     		uxth	r3, r3
 733 0406 9BB2     		uxth	r3, r3
 734 0408 1BB2     		sxth	r3, r3
 735 040a 1846     		mov	r0, r3
 736 040c FFF7FEFF 		bl	set_heading
 305:.\main.c      ****                                 rotate_degrees(0);
 737              		.loc 1 305 0
 738 0410 0020     		movs	r0, #0
 739 0412 FFF7FEFF 		bl	rotate_degrees
 306:.\main.c      ****                                 POS_PRINTF(0,0,"LEFT to: %d", 180 - i*10);
 740              		.loc 1 306 0
 741 0416 7B6B     		ldr	r3, [r7, #52]
 742 0418 6FF00902 		mvn	r2, #9
 743 041c 02FB03F3 		mul	r3, r2, r3
 744 0420 B433     		adds	r3, r3, #180
 745 0422 AD48     		ldr	r0, .L109
 746 0424 AD49     		ldr	r1, .L109+4
 747 0426 1A46     		mov	r2, r3
 748 0428 FFF7FEFF 		bl	sprintf
 749 042c 0020     		movs	r0, #0
 750 042e 0021     		movs	r1, #0
 751 0430 FFF7FEFF 		bl	LCD_Position
 752 0434 A848     		ldr	r0, .L109
 753 0436 FFF7FEFF 		bl	LCD_PrintString
 307:.\main.c      ****                                 CyDelay(500);
 754              		.loc 1 307 0
 755 043a 4FF4FA70 		mov	r0, #500
 756 043e FFF7FEFF 		bl	CyDelay
 308:.\main.c      ****                                 capture_thresh_image();
 757              		.loc 1 308 0
 758 0442 FFF7FEFF 		bl	capture_thresh_image
 309:.\main.c      ****                                 pucks = to_nearest_blob(current_color, 30, 10);
 759              		.loc 1 309 0
 760 0446 786C     		ldr	r0, [r7, #68]
 761 0448 1E21     		movs	r1, #30
 762 044a 0A22     		movs	r2, #10
 763 044c FFF7FEFF 		bl	to_nearest_blob
 764 0450 3863     		str	r0, [r7, #48]
 310:.\main.c      ****                                 if (pucks != -1){
 765              		.loc 1 310 0
 766 0452 3B6B     		ldr	r3, [r7, #48]
 767 0454 B3F1FF3F 		cmp	r3, #-1
 768 0458 00D0     		beq	.L38
ARM GAS  C:\Users\xavieran\AppData\Local\Temp\cco2bJR3.s 			page 29


 311:.\main.c      ****                                     break;
 769              		.loc 1 311 0
 770 045a 05E0     		b	.L39
 771              	.L38:
 303:.\main.c      ****                             for (i = 1; i < 8; i++){
 772              		.loc 1 303 0
 773 045c 7B6B     		ldr	r3, [r7, #52]
 774 045e 0133     		adds	r3, r3, #1
 775 0460 7B63     		str	r3, [r7, #52]
 776              	.L37:
 303:.\main.c      ****                             for (i = 1; i < 8; i++){
 777              		.loc 1 303 0 is_stmt 0 discriminator 1
 778 0462 7B6B     		ldr	r3, [r7, #52]
 779 0464 072B     		cmp	r3, #7
 780 0466 C3DD     		ble	.L40
 781              	.L39:
 314:.\main.c      ****                             if (pucks != -1){
 782              		.loc 1 314 0 is_stmt 1
 783 0468 3B6B     		ldr	r3, [r7, #48]
 784 046a B3F1FF3F 		cmp	r3, #-1
 785 046e 00D0     		beq	.L41
 315:.\main.c      ****                                 break;
 786              		.loc 1 315 0
 787 0470 5BE0     		b	.L31
 788              	.L41:
 317:.\main.c      ****                             set_heading(180);
 789              		.loc 1 317 0
 790 0472 B420     		movs	r0, #180
 791 0474 FFF7FEFF 		bl	set_heading
 318:.\main.c      ****                             rotate_degrees(0);
 792              		.loc 1 318 0
 793 0478 0020     		movs	r0, #0
 794 047a FFF7FEFF 		bl	rotate_degrees
 319:.\main.c      ****                             no_puck_state = NP_TURNED_LEFT;
 795              		.loc 1 319 0
 796 047e 0223     		movs	r3, #2
 797 0480 BB63     		str	r3, [r7, #56]
 320:.\main.c      ****                             break;
 798              		.loc 1 320 0
 799 0482 52E0     		b	.L31
 800              	.L35:
 322:.\main.c      ****                             for (i = 1; i < 6; i++){
 801              		.loc 1 322 0
 802 0484 0123     		movs	r3, #1
 803 0486 7B63     		str	r3, [r7, #52]
 804 0488 36E0     		b	.L42
 805              	.L45:
 323:.\main.c      ****                                 set_heading(180 + i*10);
 806              		.loc 1 323 0
 807 048a 7B6B     		ldr	r3, [r7, #52]
 808 048c 9BB2     		uxth	r3, r3
 809 048e 1A46     		mov	r2, r3	@ movhi
 810 0490 9200     		lsls	r2, r2, #2
 811 0492 1344     		add	r3, r3, r2
 812 0494 5B00     		lsls	r3, r3, #1
 813 0496 9BB2     		uxth	r3, r3
 814 0498 B433     		adds	r3, r3, #180
ARM GAS  C:\Users\xavieran\AppData\Local\Temp\cco2bJR3.s 			page 30


 815 049a 9BB2     		uxth	r3, r3
 816 049c 9BB2     		uxth	r3, r3
 817 049e 1BB2     		sxth	r3, r3
 818 04a0 1846     		mov	r0, r3
 819 04a2 FFF7FEFF 		bl	set_heading
 324:.\main.c      ****                                 rotate_degrees(0);
 820              		.loc 1 324 0
 821 04a6 0020     		movs	r0, #0
 822 04a8 FFF7FEFF 		bl	rotate_degrees
 325:.\main.c      ****                                 POS_PRINTF(0,0,"RIGHT to: %d", 180 - i*10);
 823              		.loc 1 325 0
 824 04ac 7B6B     		ldr	r3, [r7, #52]
 825 04ae 6FF00902 		mvn	r2, #9
 826 04b2 02FB03F3 		mul	r3, r2, r3
 827 04b6 B433     		adds	r3, r3, #180
 828 04b8 8748     		ldr	r0, .L109
 829 04ba 8949     		ldr	r1, .L109+8
 830 04bc 1A46     		mov	r2, r3
 831 04be FFF7FEFF 		bl	sprintf
 832 04c2 0020     		movs	r0, #0
 833 04c4 0021     		movs	r1, #0
 834 04c6 FFF7FEFF 		bl	LCD_Position
 835 04ca 8348     		ldr	r0, .L109
 836 04cc FFF7FEFF 		bl	LCD_PrintString
 326:.\main.c      ****                                 CyDelay(500);
 837              		.loc 1 326 0
 838 04d0 4FF4FA70 		mov	r0, #500
 839 04d4 FFF7FEFF 		bl	CyDelay
 327:.\main.c      ****                                 capture_thresh_image();
 840              		.loc 1 327 0
 841 04d8 FFF7FEFF 		bl	capture_thresh_image
 328:.\main.c      ****                                 pucks = to_nearest_blob(current_color, 30, 10);
 842              		.loc 1 328 0
 843 04dc 786C     		ldr	r0, [r7, #68]
 844 04de 1E21     		movs	r1, #30
 845 04e0 0A22     		movs	r2, #10
 846 04e2 FFF7FEFF 		bl	to_nearest_blob
 847 04e6 3863     		str	r0, [r7, #48]
 329:.\main.c      ****                                 if (pucks != -1){
 848              		.loc 1 329 0
 849 04e8 3B6B     		ldr	r3, [r7, #48]
 850 04ea B3F1FF3F 		cmp	r3, #-1
 851 04ee 00D0     		beq	.L43
 330:.\main.c      ****                                     break;
 852              		.loc 1 330 0
 853 04f0 05E0     		b	.L44
 854              	.L43:
 322:.\main.c      ****                             for (i = 1; i < 6; i++){
 855              		.loc 1 322 0
 856 04f2 7B6B     		ldr	r3, [r7, #52]
 857 04f4 0133     		adds	r3, r3, #1
 858 04f6 7B63     		str	r3, [r7, #52]
 859              	.L42:
 322:.\main.c      ****                             for (i = 1; i < 6; i++){
 860              		.loc 1 322 0 is_stmt 0 discriminator 1
 861 04f8 7B6B     		ldr	r3, [r7, #52]
 862 04fa 052B     		cmp	r3, #5
ARM GAS  C:\Users\xavieran\AppData\Local\Temp\cco2bJR3.s 			page 31


 863 04fc C5DD     		ble	.L45
 864              	.L44:
 333:.\main.c      ****                             if (pucks != -1){
 865              		.loc 1 333 0 is_stmt 1
 866 04fe 3B6B     		ldr	r3, [r7, #48]
 867 0500 B3F1FF3F 		cmp	r3, #-1
 868 0504 00D0     		beq	.L46
 334:.\main.c      ****                                 break;
 869              		.loc 1 334 0
 870 0506 10E0     		b	.L31
 871              	.L46:
 336:.\main.c      ****                             set_heading(180);
 872              		.loc 1 336 0
 873 0508 B420     		movs	r0, #180
 874 050a FFF7FEFF 		bl	set_heading
 337:.\main.c      ****                             rotate_degrees(0);
 875              		.loc 1 337 0
 876 050e 0020     		movs	r0, #0
 877 0510 FFF7FEFF 		bl	rotate_degrees
 338:.\main.c      ****                             no_puck_state = NP_TURNED_RIGHT;
 878              		.loc 1 338 0
 879 0514 0123     		movs	r3, #1
 880 0516 BB63     		str	r3, [r7, #56]
 339:.\main.c      ****                             break;
 881              		.loc 1 339 0
 882 0518 07E0     		b	.L31
 883              	.L34:
 341:.\main.c      ****                             go_forward(1000, 255);
 884              		.loc 1 341 0
 885 051a 4FF47A70 		mov	r0, #1000
 886 051e FF21     		movs	r1, #255
 887 0520 FFF7FEFF 		bl	go_forward
 342:.\main.c      ****                             no_puck_state = NP_AHEAD;
 888              		.loc 1 342 0
 889 0524 0023     		movs	r3, #0
 890 0526 BB63     		str	r3, [r7, #56]
 343:.\main.c      ****                             break;
 891              		.loc 1 343 0
 892 0528 00BF     		nop
 893              	.L31:
 346:.\main.c      ****                 break;
 894              		.loc 1 346 0
 895 052a 00F0A7BC 		b	.L11
 896              	.L18:
 348:.\main.c      ****                 set_heading(90);
 897              		.loc 1 348 0
 898 052e 5A20     		movs	r0, #90
 899 0530 FFF7FEFF 		bl	set_heading
 349:.\main.c      ****                 rotate_degrees(0);
 900              		.loc 1 349 0
 901 0534 0020     		movs	r0, #0
 902 0536 FFF7FEFF 		bl	rotate_degrees
 350:.\main.c      ****                 set_heading(0);
 903              		.loc 1 350 0
 904 053a 0020     		movs	r0, #0
 905 053c FFF7FEFF 		bl	set_heading
 351:.\main.c      ****                 rotate_degrees(0);
ARM GAS  C:\Users\xavieran\AppData\Local\Temp\cco2bJR3.s 			page 32


 906              		.loc 1 351 0
 907 0540 0020     		movs	r0, #0
 908 0542 FFF7FEFF 		bl	rotate_degrees
 352:.\main.c      ****                 state = S_GO_HOME;
 909              		.loc 1 352 0
 910 0546 0423     		movs	r3, #4
 911 0548 A7F84E30 		strh	r3, [r7, #78]	@ movhi
 353:.\main.c      ****                 break;
 912              		.loc 1 353 0
 913 054c 00F096BC 		b	.L11
 914              	.L17:
 355:.\main.c      ****                 select_front();
 915              		.loc 1 355 0
 916 0550 FFF7FEFF 		bl	select_front
 356:.\main.c      ****                 CyDelay(300);
 917              		.loc 1 356 0
 918 0554 4FF49670 		mov	r0, #300
 919 0558 FFF7FEFF 		bl	CyDelay
 357:.\main.c      ****                 ir_result = get_ir_val();
 920              		.loc 1 357 0
 921 055c FFF7FEFF 		bl	get_ir_val
 922 0560 0346     		mov	r3, r0
 923 0562 FB80     		strh	r3, [r7, #6]	@ movhi
 358:.\main.c      ****                 LCD_ClearDisplay();
 924              		.loc 1 358 0
 925 0564 0120     		movs	r0, #1
 926 0566 FFF7FEFF 		bl	LCD_WriteControl
 359:.\main.c      ****                 POS_PRINTF(0,0,"IN GO HOME I:%d U%d", ir_result, get_mean_ultra());
 927              		.loc 1 359 0
 928 056a FC88     		ldrh	r4, [r7, #6]
 929 056c FFF7FEFF 		bl	get_mean_ultra
 930 0570 0346     		mov	r3, r0
 931 0572 5948     		ldr	r0, .L109
 932 0574 5B49     		ldr	r1, .L109+12
 933 0576 2246     		mov	r2, r4
 934 0578 FFF7FEFF 		bl	sprintf
 935 057c 0020     		movs	r0, #0
 936 057e 0021     		movs	r1, #0
 937 0580 FFF7FEFF 		bl	LCD_Position
 938 0584 5448     		ldr	r0, .L109
 939 0586 FFF7FEFF 		bl	LCD_PrintString
 363:.\main.c      ****                 if (get_mean_ultra() < near_base){ 
 940              		.loc 1 363 0
 941 058a FFF7FEFF 		bl	get_mean_ultra
 942 058e 0346     		mov	r3, r0
 943 0590 1A46     		mov	r2, r3
 944 0592 3B69     		ldr	r3, [r7, #16]
 945 0594 9A42     		cmp	r2, r3
 946 0596 04DA     		bge	.L47
 364:.\main.c      ****                     state = S_NEAR_HOME_FIND_100;
 947              		.loc 1 364 0
 948 0598 0923     		movs	r3, #9
 949 059a A7F84E30 		strh	r3, [r7, #78]	@ movhi
 365:.\main.c      ****                     break;
 950              		.loc 1 365 0
 951 059e 00F06DBC 		b	.L11
 952              	.L47:
ARM GAS  C:\Users\xavieran\AppData\Local\Temp\cco2bJR3.s 			page 33


 368:.\main.c      ****                 state = S_GOING_HOME_CHECK_IR;
 953              		.loc 1 368 0
 954 05a2 0823     		movs	r3, #8
 955 05a4 A7F84E30 		strh	r3, [r7, #78]	@ movhi
 369:.\main.c      ****                 set_heading(0);
 956              		.loc 1 369 0
 957 05a8 0020     		movs	r0, #0
 958 05aa FFF7FEFF 		bl	set_heading
 370:.\main.c      ****                 rotate_degrees(0);
 959              		.loc 1 370 0
 960 05ae 0020     		movs	r0, #0
 961 05b0 FFF7FEFF 		bl	rotate_degrees
 371:.\main.c      ****                 break;
 962              		.loc 1 371 0
 963 05b4 00F062BC 		b	.L11
 964              	.L20:
 375:.\main.c      ****                 POS_PRINTF(0,0,"GOING HOME CHECK IR");
 965              		.loc 1 375 0
 966 05b8 474A     		ldr	r2, .L109
 967 05ba 4B4B     		ldr	r3, .L109+16
 968 05bc 1446     		mov	r4, r2
 969 05be 1D46     		mov	r5, r3
 970 05c0 0FCD     		ldmia	r5!, {r0, r1, r2, r3}
 971 05c2 0FC4     		stmia	r4!, {r0, r1, r2, r3}
 972 05c4 2B68     		ldr	r3, [r5]
 973 05c6 2360     		str	r3, [r4]
 974 05c8 0020     		movs	r0, #0
 975 05ca 0021     		movs	r1, #0
 976 05cc FFF7FEFF 		bl	LCD_Position
 977 05d0 4148     		ldr	r0, .L109
 978 05d2 FFF7FEFF 		bl	LCD_PrintString
 376:.\main.c      ****                 select_front();
 979              		.loc 1 376 0
 980 05d6 FFF7FEFF 		bl	select_front
 377:.\main.c      ****                 ir_result = get_ir_val();
 981              		.loc 1 377 0
 982 05da FFF7FEFF 		bl	get_ir_val
 983 05de 0346     		mov	r3, r0
 984 05e0 FB80     		strh	r3, [r7, #6]	@ movhi
 378:.\main.c      ****                 POS_PRINTF(1,0,"I %d", ir_result);
 985              		.loc 1 378 0
 986 05e2 FB88     		ldrh	r3, [r7, #6]
 987 05e4 3C48     		ldr	r0, .L109
 988 05e6 4149     		ldr	r1, .L109+20
 989 05e8 1A46     		mov	r2, r3
 990 05ea FFF7FEFF 		bl	sprintf
 991 05ee 0120     		movs	r0, #1
 992 05f0 0021     		movs	r1, #0
 993 05f2 FFF7FEFF 		bl	LCD_Position
 994 05f6 3848     		ldr	r0, .L109
 995 05f8 FFF7FEFF 		bl	LCD_PrintString
 379:.\main.c      ****                 if (ir_result < 10){//IR INVALID
 996              		.loc 1 379 0
 997 05fc FB88     		ldrh	r3, [r7, #6]
 998 05fe 092B     		cmp	r3, #9
 999 0600 05D8     		bhi	.L48
 380:.\main.c      ****                     go_forward(500, 255);
ARM GAS  C:\Users\xavieran\AppData\Local\Temp\cco2bJR3.s 			page 34


 1000              		.loc 1 380 0
 1001 0602 4FF4FA70 		mov	r0, #500
 1002 0606 FF21     		movs	r1, #255
 1003 0608 FFF7FEFF 		bl	go_forward
 1004 060c 8EE0     		b	.L49
 1005              	.L48:
 381:.\main.c      ****                 } else if (within_range(57, ir_result, 60)){
 1006              		.loc 1 381 0
 1007 060e FB88     		ldrh	r3, [r7, #6]
 1008 0610 3920     		movs	r0, #57
 1009 0612 1946     		mov	r1, r3
 1010 0614 3C22     		movs	r2, #60
 1011 0616 FFF7FEFF 		bl	within_range
 1012 061a 0346     		mov	r3, r0
 1013 061c 002B     		cmp	r3, #0
 1014 061e 1AD0     		beq	.L50
 382:.\main.c      ****                     POS_PRINTF(1,5, "center");
 1015              		.loc 1 382 0
 1016 0620 2D4B     		ldr	r3, .L109
 1017 0622 334A     		ldr	r2, .L109+24
 1018 0624 92E80300 		ldmia	r2, {r0, r1}
 1019 0628 1860     		str	r0, [r3]
 1020 062a 0433     		adds	r3, r3, #4
 1021 062c 1980     		strh	r1, [r3]	@ movhi
 1022 062e 0233     		adds	r3, r3, #2
 1023 0630 0A0C     		lsrs	r2, r1, #16
 1024 0632 1A70     		strb	r2, [r3]
 1025 0634 0120     		movs	r0, #1
 1026 0636 0521     		movs	r1, #5
 1027 0638 FFF7FEFF 		bl	LCD_Position
 1028 063c 2648     		ldr	r0, .L109
 1029 063e FFF7FEFF 		bl	LCD_PrintString
 383:.\main.c      ****                     set_heading(0);
 1030              		.loc 1 383 0
 1031 0642 0020     		movs	r0, #0
 1032 0644 FFF7FEFF 		bl	set_heading
 384:.\main.c      ****                     go_forward(500, 255);
 1033              		.loc 1 384 0
 1034 0648 4FF4FA70 		mov	r0, #500
 1035 064c FF21     		movs	r1, #255
 1036 064e FFF7FEFF 		bl	go_forward
 385:.\main.c      ****                     break;
 1037              		.loc 1 385 0
 1038 0652 00F013BC 		b	.L11
 1039              	.L50:
 386:.\main.c      ****                 } else if (within_range(95, ir_result, 105)){
 1040              		.loc 1 386 0
 1041 0656 FB88     		ldrh	r3, [r7, #6]
 1042 0658 5F20     		movs	r0, #95
 1043 065a 1946     		mov	r1, r3
 1044 065c 6922     		movs	r2, #105
 1045 065e FFF7FEFF 		bl	within_range
 1046 0662 0346     		mov	r3, r0
 1047 0664 002B     		cmp	r3, #0
 1048 0666 16D0     		beq	.L51
 387:.\main.c      ****                     POS_PRINTF(1,5, "left");
 1049              		.loc 1 387 0
ARM GAS  C:\Users\xavieran\AppData\Local\Temp\cco2bJR3.s 			page 35


 1050 0668 1B4B     		ldr	r3, .L109
 1051 066a 224A     		ldr	r2, .L109+28
 1052 066c 92E80300 		ldmia	r2, {r0, r1}
 1053 0670 1860     		str	r0, [r3]
 1054 0672 0433     		adds	r3, r3, #4
 1055 0674 1970     		strb	r1, [r3]
 1056 0676 0120     		movs	r0, #1
 1057 0678 0521     		movs	r1, #5
 1058 067a FFF7FEFF 		bl	LCD_Position
 1059 067e 1648     		ldr	r0, .L109
 1060 0680 FFF7FEFF 		bl	LCD_PrintString
 388:.\main.c      ****                     set_heading(0);
 1061              		.loc 1 388 0
 1062 0684 0020     		movs	r0, #0
 1063 0686 FFF7FEFF 		bl	set_heading
 389:.\main.c      ****                     go_forward(500, 255);
 1064              		.loc 1 389 0
 1065 068a 4FF4FA70 		mov	r0, #500
 1066 068e FF21     		movs	r1, #255
 1067 0690 FFF7FEFF 		bl	go_forward
 390:.\main.c      ****                     break;
 1068              		.loc 1 390 0
 1069 0694 F2E3     		b	.L11
 1070              	.L51:
 391:.\main.c      ****                 } else if (within_range(25, ir_result,35)){
 1071              		.loc 1 391 0
 1072 0696 FB88     		ldrh	r3, [r7, #6]
 1073 0698 1920     		movs	r0, #25
 1074 069a 1946     		mov	r1, r3
 1075 069c 2322     		movs	r2, #35
 1076 069e FFF7FEFF 		bl	within_range
 1077 06a2 0346     		mov	r3, r0
 1078 06a4 002B     		cmp	r3, #0
 1079 06a6 29D0     		beq	.L52
 392:.\main.c      ****                     POS_PRINTF(1,5, "right");
 1080              		.loc 1 392 0
 1081 06a8 0B4B     		ldr	r3, .L109
 1082 06aa 134A     		ldr	r2, .L109+32
 1083 06ac 92E80300 		ldmia	r2, {r0, r1}
 1084 06b0 1860     		str	r0, [r3]
 1085 06b2 0433     		adds	r3, r3, #4
 1086 06b4 1980     		strh	r1, [r3]	@ movhi
 1087 06b6 0120     		movs	r0, #1
 1088 06b8 0521     		movs	r1, #5
 1089 06ba FFF7FEFF 		bl	LCD_Position
 1090 06be 0648     		ldr	r0, .L109
 1091 06c0 FFF7FEFF 		bl	LCD_PrintString
 393:.\main.c      ****                     set_heading(0);
 1092              		.loc 1 393 0
 1093 06c4 0020     		movs	r0, #0
 1094 06c6 FFF7FEFF 		bl	set_heading
 394:.\main.c      ****                     go_forward(500, 255);
 1095              		.loc 1 394 0
 1096 06ca 4FF4FA70 		mov	r0, #500
 1097 06ce FF21     		movs	r1, #255
 1098 06d0 FFF7FEFF 		bl	go_forward
 395:.\main.c      ****                     break;
ARM GAS  C:\Users\xavieran\AppData\Local\Temp\cco2bJR3.s 			page 36


 1099              		.loc 1 395 0
 1100 06d4 D2E3     		b	.L11
 1101              	.L110:
 1102 06d6 00BF     		.align	2
 1103              	.L109:
 1104 06d8 00000000 		.word	outString
 1105 06dc 5C000000 		.word	.LC6
 1106 06e0 68000000 		.word	.LC7
 1107 06e4 78000000 		.word	.LC8
 1108 06e8 8C000000 		.word	.LC9
 1109 06ec A0000000 		.word	.LC10
 1110 06f0 A8000000 		.word	.LC11
 1111 06f4 B0000000 		.word	.LC12
 1112 06f8 B8000000 		.word	.LC13
 1113              	.L52:
 397:.\main.c      ****                     POS_PRINTF(0,0,"something else");
 1114              		.loc 1 397 0
 1115 06fc BC4A     		ldr	r2, .L111
 1116 06fe BD4B     		ldr	r3, .L111+4
 1117 0700 1446     		mov	r4, r2
 1118 0702 0FCB     		ldmia	r3, {r0, r1, r2, r3}
 1119 0704 07C4     		stmia	r4!, {r0, r1, r2}
 1120 0706 2380     		strh	r3, [r4]	@ movhi
 1121 0708 0234     		adds	r4, r4, #2
 1122 070a 1B0C     		lsrs	r3, r3, #16
 1123 070c 2370     		strb	r3, [r4]
 1124 070e 0020     		movs	r0, #0
 1125 0710 0021     		movs	r1, #0
 1126 0712 FFF7FEFF 		bl	LCD_Position
 1127 0716 B648     		ldr	r0, .L111
 1128 0718 FFF7FEFF 		bl	LCD_PrintString
 398:.\main.c      ****                     set_heading(0);
 1129              		.loc 1 398 0
 1130 071c 0020     		movs	r0, #0
 1131 071e FFF7FEFF 		bl	set_heading
 399:.\main.c      ****                     go_forward(500,255);
 1132              		.loc 1 399 0
 1133 0722 4FF4FA70 		mov	r0, #500
 1134 0726 FF21     		movs	r1, #255
 1135 0728 FFF7FEFF 		bl	go_forward
 1136              	.L49:
 401:.\main.c      ****                 CyDelay(500);
 1137              		.loc 1 401 0
 1138 072c 4FF4FA70 		mov	r0, #500
 1139 0730 FFF7FEFF 		bl	CyDelay
 402:.\main.c      ****                 if (get_mean_ultra() <= near_base){
 1140              		.loc 1 402 0
 1141 0734 FFF7FEFF 		bl	get_mean_ultra
 1142 0738 0346     		mov	r3, r0
 1143 073a 1A46     		mov	r2, r3
 1144 073c 3B69     		ldr	r3, [r7, #16]
 1145 073e 9A42     		cmp	r2, r3
 1146 0740 07DC     		bgt	.L53
 403:.\main.c      ****                     state = S_NEAR_HOME_FIND_100;
 1147              		.loc 1 403 0
 1148 0742 0923     		movs	r3, #9
 1149 0744 A7F84E30 		strh	r3, [r7, #78]	@ movhi
ARM GAS  C:\Users\xavieran\AppData\Local\Temp\cco2bJR3.s 			page 37


 404:.\main.c      ****                     start_time_find100 = Timer_ReadCounter();
 1150              		.loc 1 404 0
 1151 0748 FFF7FEFF 		bl	Timer_ReadCounter
 1152 074c 0346     		mov	r3, r0
 1153 074e 3B64     		str	r3, [r7, #64]
 407:.\main.c      ****                 break;
 1154              		.loc 1 407 0
 1155 0750 94E3     		b	.L11
 1156              	.L53:
 1157 0752 93E3     		b	.L11
 1158              	.L21:
 409:.\main.c      ****                 if (start_time_find100 - Timer_ReadCounter() >  10 * 20000){//We must be too far le
 1159              		.loc 1 409 0
 1160 0754 3C6C     		ldr	r4, [r7, #64]
 1161 0756 FFF7FEFF 		bl	Timer_ReadCounter
 1162 075a 0346     		mov	r3, r0
 1163 075c E21A     		subs	r2, r4, r3
 1164 075e A64B     		ldr	r3, .L111+8
 1165 0760 9A42     		cmp	r2, r3
 1166 0762 08D9     		bls	.L54
 410:.\main.c      ****                     go_backward(4000, 255);
 1167              		.loc 1 410 0
 1168 0764 4FF47A60 		mov	r0, #4000
 1169 0768 FF21     		movs	r1, #255
 1170 076a FFF7FEFF 		bl	go_backward
 411:.\main.c      ****                     start_time_find100 = Timer_ReadCounter();
 1171              		.loc 1 411 0
 1172 076e FFF7FEFF 		bl	Timer_ReadCounter
 1173 0772 0346     		mov	r3, r0
 1174 0774 3B64     		str	r3, [r7, #64]
 1175              	.L54:
 414:.\main.c      ****                 POS_PRINTF(0,0,"NEAR HOME FIND 100");
 1176              		.loc 1 414 0
 1177 0776 9E4A     		ldr	r2, .L111
 1178 0778 A04B     		ldr	r3, .L111+12
 1179 077a 1446     		mov	r4, r2
 1180 077c 1D46     		mov	r5, r3
 1181 077e 0FCD     		ldmia	r5!, {r0, r1, r2, r3}
 1182 0780 0FC4     		stmia	r4!, {r0, r1, r2, r3}
 1183 0782 2B68     		ldr	r3, [r5]
 1184 0784 1A46     		mov	r2, r3	@ movhi
 1185 0786 2280     		strh	r2, [r4]	@ movhi
 1186 0788 0234     		adds	r4, r4, #2
 1187 078a 1B0C     		lsrs	r3, r3, #16
 1188 078c 2370     		strb	r3, [r4]
 1189 078e 0020     		movs	r0, #0
 1190 0790 0021     		movs	r1, #0
 1191 0792 FFF7FEFF 		bl	LCD_Position
 1192 0796 9648     		ldr	r0, .L111
 1193 0798 FFF7FEFF 		bl	LCD_PrintString
 416:.\main.c      ****                 set_heading(90);
 1194              		.loc 1 416 0
 1195 079c 5A20     		movs	r0, #90
 1196 079e FFF7FEFF 		bl	set_heading
 417:.\main.c      ****                 rotate_degrees(0);
 1197              		.loc 1 417 0
 1198 07a2 0020     		movs	r0, #0
ARM GAS  C:\Users\xavieran\AppData\Local\Temp\cco2bJR3.s 			page 38


 1199 07a4 FFF7FEFF 		bl	rotate_degrees
 418:.\main.c      ****                 CyDelay(300);
 1200              		.loc 1 418 0
 1201 07a8 4FF49670 		mov	r0, #300
 1202 07ac FFF7FEFF 		bl	CyDelay
 419:.\main.c      ****                 select_right();
 1203              		.loc 1 419 0
 1204 07b0 FFF7FEFF 		bl	select_right
 420:.\main.c      ****                 ir_result = get_ir_val();
 1205              		.loc 1 420 0
 1206 07b4 FFF7FEFF 		bl	get_ir_val
 1207 07b8 0346     		mov	r3, r0
 1208 07ba FB80     		strh	r3, [r7, #6]	@ movhi
 421:.\main.c      ****                 POS_PRINTF(1,0,"i %d", ir_result);
 1209              		.loc 1 421 0
 1210 07bc FB88     		ldrh	r3, [r7, #6]
 1211 07be 8C48     		ldr	r0, .L111
 1212 07c0 8F49     		ldr	r1, .L111+16
 1213 07c2 1A46     		mov	r2, r3
 1214 07c4 FFF7FEFF 		bl	sprintf
 1215 07c8 0120     		movs	r0, #1
 1216 07ca 0021     		movs	r1, #0
 1217 07cc FFF7FEFF 		bl	LCD_Position
 1218 07d0 8748     		ldr	r0, .L111
 1219 07d2 FFF7FEFF 		bl	LCD_PrintString
 422:.\main.c      ****                 POS_PRINTF(1,5,"t %ld", Timer_ReadCounter());
 1220              		.loc 1 422 0
 1221 07d6 FFF7FEFF 		bl	Timer_ReadCounter
 1222 07da 0346     		mov	r3, r0
 1223 07dc 8448     		ldr	r0, .L111
 1224 07de 8949     		ldr	r1, .L111+20
 1225 07e0 1A46     		mov	r2, r3
 1226 07e2 FFF7FEFF 		bl	sprintf
 1227 07e6 0120     		movs	r0, #1
 1228 07e8 0521     		movs	r1, #5
 1229 07ea FFF7FEFF 		bl	LCD_Position
 1230 07ee 8048     		ldr	r0, .L111
 1231 07f0 FFF7FEFF 		bl	LCD_PrintString
 425:.\main.c      ****                 if (within_range(96, ir_result, 105)){
 1232              		.loc 1 425 0
 1233 07f4 FB88     		ldrh	r3, [r7, #6]
 1234 07f6 6020     		movs	r0, #96
 1235 07f8 1946     		mov	r1, r3
 1236 07fa 6922     		movs	r2, #105
 1237 07fc FFF7FEFF 		bl	within_range
 1238 0800 0346     		mov	r3, r0
 1239 0802 002B     		cmp	r3, #0
 1240 0804 24D0     		beq	.L55
 1241              	.LBB4:
 427:.\main.c      ****                     int good_val = 1;
 1242              		.loc 1 427 0
 1243 0806 0123     		movs	r3, #1
 1244 0808 BB62     		str	r3, [r7, #40]
 428:.\main.c      ****                     for (i = 0; i < 3; i++){
 1245              		.loc 1 428 0
 1246 080a 0023     		movs	r3, #0
 1247 080c FB62     		str	r3, [r7, #44]
ARM GAS  C:\Users\xavieran\AppData\Local\Temp\cco2bJR3.s 			page 39


 1248 080e 14E0     		b	.L56
 1249              	.L59:
 429:.\main.c      ****                         CyDelay(300);
 1250              		.loc 1 429 0
 1251 0810 4FF49670 		mov	r0, #300
 1252 0814 FFF7FEFF 		bl	CyDelay
 430:.\main.c      ****                         if (!within_range(96, get_ir_val(), 105)){
 1253              		.loc 1 430 0
 1254 0818 FFF7FEFF 		bl	get_ir_val
 1255 081c 0346     		mov	r3, r0
 1256 081e 6020     		movs	r0, #96
 1257 0820 1946     		mov	r1, r3
 1258 0822 6922     		movs	r2, #105
 1259 0824 FFF7FEFF 		bl	within_range
 1260 0828 0346     		mov	r3, r0
 1261 082a 002B     		cmp	r3, #0
 1262 082c 02D1     		bne	.L57
 431:.\main.c      ****                             good_val = 0;
 1263              		.loc 1 431 0
 1264 082e 0023     		movs	r3, #0
 1265 0830 BB62     		str	r3, [r7, #40]
 432:.\main.c      ****                             break;
 1266              		.loc 1 432 0
 1267 0832 05E0     		b	.L58
 1268              	.L57:
 428:.\main.c      ****                     for (i = 0; i < 3; i++){
 1269              		.loc 1 428 0
 1270 0834 FB6A     		ldr	r3, [r7, #44]
 1271 0836 0133     		adds	r3, r3, #1
 1272 0838 FB62     		str	r3, [r7, #44]
 1273              	.L56:
 428:.\main.c      ****                     for (i = 0; i < 3; i++){
 1274              		.loc 1 428 0 is_stmt 0 discriminator 1
 1275 083a FB6A     		ldr	r3, [r7, #44]
 1276 083c 022B     		cmp	r3, #2
 1277 083e E7DD     		ble	.L59
 1278              	.L58:
 435:.\main.c      ****                     if (good_val){
 1279              		.loc 1 435 0 is_stmt 1
 1280 0840 BB6A     		ldr	r3, [r7, #40]
 1281 0842 002B     		cmp	r3, #0
 1282 0844 03D0     		beq	.L60
 436:.\main.c      ****                         state = S_NEAR_HOME_FIND_60;
 1283              		.loc 1 436 0
 1284 0846 0A23     		movs	r3, #10
 1285 0848 A7F84E30 		strh	r3, [r7, #78]	@ movhi
 438:.\main.c      ****                     break;
 1286              		.loc 1 438 0
 1287 084c 16E3     		b	.L11
 1288              	.L60:
 1289 084e 15E3     		b	.L11
 1290              	.L55:
 1291              	.LBE4:
 439:.\main.c      ****                 } else if (within_range(25, ir_result, 35)){
 1292              		.loc 1 439 0
 1293 0850 FB88     		ldrh	r3, [r7, #6]
 1294 0852 1920     		movs	r0, #25
ARM GAS  C:\Users\xavieran\AppData\Local\Temp\cco2bJR3.s 			page 40


 1295 0854 1946     		mov	r1, r3
 1296 0856 2322     		movs	r2, #35
 1297 0858 FFF7FEFF 		bl	within_range
 1298 085c 0346     		mov	r3, r0
 1299 085e 002B     		cmp	r3, #0
 1300 0860 04D0     		beq	.L61
 440:.\main.c      ****                     go_forward(1000, 255);
 1301              		.loc 1 440 0
 1302 0862 4FF47A70 		mov	r0, #1000
 1303 0866 FF21     		movs	r1, #255
 1304 0868 FFF7FEFF 		bl	go_forward
 1305              	.L61:
 442:.\main.c      ****                 go_forward(400, 255);
 1306              		.loc 1 442 0
 1307 086c 4FF4C870 		mov	r0, #400
 1308 0870 FF21     		movs	r1, #255
 1309 0872 FFF7FEFF 		bl	go_forward
 443:.\main.c      ****                 break;
 1310              		.loc 1 443 0
 1311 0876 01E3     		b	.L11
 1312              	.L25:
 446:.\main.c      ****                 POS_PRINTF(0,0,"NEAR HOME SAW 30");
 1313              		.loc 1 446 0
 1314 0878 5D4A     		ldr	r2, .L111
 1315 087a 634B     		ldr	r3, .L111+24
 1316 087c 1446     		mov	r4, r2
 1317 087e 1D46     		mov	r5, r3
 1318 0880 0FCD     		ldmia	r5!, {r0, r1, r2, r3}
 1319 0882 0FC4     		stmia	r4!, {r0, r1, r2, r3}
 1320 0884 2B68     		ldr	r3, [r5]
 1321 0886 2370     		strb	r3, [r4]
 1322 0888 0020     		movs	r0, #0
 1323 088a 0021     		movs	r1, #0
 1324 088c FFF7FEFF 		bl	LCD_Position
 1325 0890 5748     		ldr	r0, .L111
 1326 0892 FFF7FEFF 		bl	LCD_PrintString
 447:.\main.c      ****                 CyDelay(300);
 1327              		.loc 1 447 0
 1328 0896 4FF49670 		mov	r0, #300
 1329 089a FFF7FEFF 		bl	CyDelay
 448:.\main.c      ****                 select_right();
 1330              		.loc 1 448 0
 1331 089e FFF7FEFF 		bl	select_right
 449:.\main.c      ****                 ir_result = get_ir_val();
 1332              		.loc 1 449 0
 1333 08a2 FFF7FEFF 		bl	get_ir_val
 1334 08a6 0346     		mov	r3, r0
 1335 08a8 FB80     		strh	r3, [r7, #6]	@ movhi
 450:.\main.c      ****                 POS_PRINTF(1,0,"ir%d", ir_result);
 1336              		.loc 1 450 0
 1337 08aa FB88     		ldrh	r3, [r7, #6]
 1338 08ac 5048     		ldr	r0, .L111
 1339 08ae 5749     		ldr	r1, .L111+28
 1340 08b0 1A46     		mov	r2, r3
 1341 08b2 FFF7FEFF 		bl	sprintf
 1342 08b6 0120     		movs	r0, #1
 1343 08b8 0021     		movs	r1, #0
ARM GAS  C:\Users\xavieran\AppData\Local\Temp\cco2bJR3.s 			page 41


 1344 08ba FFF7FEFF 		bl	LCD_Position
 1345 08be 4C48     		ldr	r0, .L111
 1346 08c0 FFF7FEFF 		bl	LCD_PrintString
 452:.\main.c      ****                 if (within_range(57, ir_result, 65)){
 1347              		.loc 1 452 0
 1348 08c4 FB88     		ldrh	r3, [r7, #6]
 1349 08c6 3920     		movs	r0, #57
 1350 08c8 1946     		mov	r1, r3
 1351 08ca 4122     		movs	r2, #65
 1352 08cc FFF7FEFF 		bl	within_range
 1353 08d0 0346     		mov	r3, r0
 1354 08d2 002B     		cmp	r3, #0
 1355 08d4 0ED0     		beq	.L62
 453:.\main.c      ****                     go_forward(1500, 255);
 1356              		.loc 1 453 0
 1357 08d6 40F2DC50 		movw	r0, #1500
 1358 08da FF21     		movs	r1, #255
 1359 08dc FFF7FEFF 		bl	go_forward
 454:.\main.c      ****                     set_heading(0);
 1360              		.loc 1 454 0
 1361 08e0 0020     		movs	r0, #0
 1362 08e2 FFF7FEFF 		bl	set_heading
 455:.\main.c      ****                     rotate_degrees(0);
 1363              		.loc 1 455 0
 1364 08e6 0020     		movs	r0, #0
 1365 08e8 FFF7FEFF 		bl	rotate_degrees
 456:.\main.c      ****                     state = S_CENTERED_ON_BASE;
 1366              		.loc 1 456 0
 1367 08ec 0B23     		movs	r3, #11
 1368 08ee A7F84E30 		strh	r3, [r7, #78]	@ movhi
 457:.\main.c      ****                     break;
 1369              		.loc 1 457 0
 1370 08f2 C3E2     		b	.L11
 1371              	.L62:
 459:.\main.c      ****                 go_forward(400, 255);
 1372              		.loc 1 459 0
 1373 08f4 4FF4C870 		mov	r0, #400
 1374 08f8 FF21     		movs	r1, #255
 1375 08fa FFF7FEFF 		bl	go_forward
 460:.\main.c      ****                 break;
 1376              		.loc 1 460 0
 1377 08fe BDE2     		b	.L11
 1378              	.L22:
 463:.\main.c      ****                 POS_PRINTF(0,0,"NEAR HOME FIND 60");
 1379              		.loc 1 463 0
 1380 0900 3B4A     		ldr	r2, .L111
 1381 0902 434B     		ldr	r3, .L111+32
 1382 0904 1446     		mov	r4, r2
 1383 0906 1D46     		mov	r5, r3
 1384 0908 0FCD     		ldmia	r5!, {r0, r1, r2, r3}
 1385 090a 0FC4     		stmia	r4!, {r0, r1, r2, r3}
 1386 090c 2B68     		ldr	r3, [r5]
 1387 090e 2380     		strh	r3, [r4]	@ movhi
 1388 0910 0020     		movs	r0, #0
 1389 0912 0021     		movs	r1, #0
 1390 0914 FFF7FEFF 		bl	LCD_Position
 1391 0918 3548     		ldr	r0, .L111
ARM GAS  C:\Users\xavieran\AppData\Local\Temp\cco2bJR3.s 			page 42


 1392 091a FFF7FEFF 		bl	LCD_PrintString
 465:.\main.c      ****                 CyDelay(500);
 1393              		.loc 1 465 0
 1394 091e 4FF4FA70 		mov	r0, #500
 1395 0922 FFF7FEFF 		bl	CyDelay
 466:.\main.c      ****                 select_right();
 1396              		.loc 1 466 0
 1397 0926 FFF7FEFF 		bl	select_right
 467:.\main.c      ****                 ir_result = get_ir_val();
 1398              		.loc 1 467 0
 1399 092a FFF7FEFF 		bl	get_ir_val
 1400 092e 0346     		mov	r3, r0
 1401 0930 FB80     		strh	r3, [r7, #6]	@ movhi
 468:.\main.c      ****                 POS_PRINTF(1,0,"ir%d", ir_result);
 1402              		.loc 1 468 0
 1403 0932 FB88     		ldrh	r3, [r7, #6]
 1404 0934 2E48     		ldr	r0, .L111
 1405 0936 3549     		ldr	r1, .L111+28
 1406 0938 1A46     		mov	r2, r3
 1407 093a FFF7FEFF 		bl	sprintf
 1408 093e 0120     		movs	r0, #1
 1409 0940 0021     		movs	r1, #0
 1410 0942 FFF7FEFF 		bl	LCD_Position
 1411 0946 2A48     		ldr	r0, .L111
 1412 0948 FFF7FEFF 		bl	LCD_PrintString
 470:.\main.c      ****                 if (within_range(57, ir_result, 65)){
 1413              		.loc 1 470 0
 1414 094c FB88     		ldrh	r3, [r7, #6]
 1415 094e 3920     		movs	r0, #57
 1416 0950 1946     		mov	r1, r3
 1417 0952 4122     		movs	r2, #65
 1418 0954 FFF7FEFF 		bl	within_range
 1419 0958 0346     		mov	r3, r0
 1420 095a 002B     		cmp	r3, #0
 1421 095c 09D0     		beq	.L63
 471:.\main.c      ****                     set_heading(0);
 1422              		.loc 1 471 0
 1423 095e 0020     		movs	r0, #0
 1424 0960 FFF7FEFF 		bl	set_heading
 472:.\main.c      ****                     rotate_degrees(0);
 1425              		.loc 1 472 0
 1426 0964 0020     		movs	r0, #0
 1427 0966 FFF7FEFF 		bl	rotate_degrees
 473:.\main.c      ****                     state = S_CENTERED_ON_BASE;
 1428              		.loc 1 473 0
 1429 096a 0B23     		movs	r3, #11
 1430 096c A7F84E30 		strh	r3, [r7, #78]	@ movhi
 474:.\main.c      ****                     break;
 1431              		.loc 1 474 0
 1432 0970 84E2     		b	.L11
 1433              	.L63:
 475:.\main.c      ****                 } else if (within_range(27, ir_result, 33)){
 1434              		.loc 1 475 0
 1435 0972 FB88     		ldrh	r3, [r7, #6]
 1436 0974 1B20     		movs	r0, #27
 1437 0976 1946     		mov	r1, r3
 1438 0978 2122     		movs	r2, #33
ARM GAS  C:\Users\xavieran\AppData\Local\Temp\cco2bJR3.s 			page 43


 1439 097a FFF7FEFF 		bl	within_range
 1440 097e 0346     		mov	r3, r0
 1441 0980 002B     		cmp	r3, #0
 1442 0982 03D0     		beq	.L64
 476:.\main.c      ****                     state = S_NEAR_HOME_SAW_30;
 1443              		.loc 1 476 0
 1444 0984 0D23     		movs	r3, #13
 1445 0986 A7F84E30 		strh	r3, [r7, #78]	@ movhi
 477:.\main.c      ****                     break;
 1446              		.loc 1 477 0
 1447 098a 77E2     		b	.L11
 1448              	.L64:
 480:.\main.c      ****                 go_backward(250, 255);
 1449              		.loc 1 480 0
 1450 098c FA20     		movs	r0, #250
 1451 098e FF21     		movs	r1, #255
 1452 0990 FFF7FEFF 		bl	go_backward
 481:.\main.c      ****                 break;
 1453              		.loc 1 481 0
 1454 0994 72E2     		b	.L11
 1455              	.L23:
 484:.\main.c      ****                 POS_PRINTF(0,0,"CENTERED ON BASE");
 1456              		.loc 1 484 0
 1457 0996 164A     		ldr	r2, .L111
 1458 0998 1E4B     		ldr	r3, .L111+36
 1459 099a 1446     		mov	r4, r2
 1460 099c 1D46     		mov	r5, r3
 1461 099e 0FCD     		ldmia	r5!, {r0, r1, r2, r3}
 1462 09a0 0FC4     		stmia	r4!, {r0, r1, r2, r3}
 1463 09a2 2B68     		ldr	r3, [r5]
 1464 09a4 2370     		strb	r3, [r4]
 1465 09a6 0020     		movs	r0, #0
 1466 09a8 0021     		movs	r1, #0
 1467 09aa FFF7FEFF 		bl	LCD_Position
 1468 09ae 1048     		ldr	r0, .L111
 1469 09b0 FFF7FEFF 		bl	LCD_PrintString
 485:.\main.c      ****                 arm_inbetween_level(0,1);
 1470              		.loc 1 485 0
 1471 09b4 0020     		movs	r0, #0
 1472 09b6 0121     		movs	r1, #1
 1473 09b8 FFF7FEFF 		bl	arm_inbetween_level
 486:.\main.c      ****                 CyDelay(200);
 1474              		.loc 1 486 0
 1475 09bc C820     		movs	r0, #200
 1476 09be FFF7FEFF 		bl	CyDelay
 487:.\main.c      ****                 arm_set_level(0);
 1477              		.loc 1 487 0
 1478 09c2 0020     		movs	r0, #0
 1479 09c4 FFF7FEFF 		bl	arm_set_level
 488:.\main.c      ****                 CyDelay(200);
 1480              		.loc 1 488 0
 1481 09c8 C820     		movs	r0, #200
 1482 09ca FFF7FEFF 		bl	CyDelay
 489:.\main.c      ****                 drop_puck();
 1483              		.loc 1 489 0
 1484 09ce FFF7FEFF 		bl	drop_puck
 490:.\main.c      ****                 go_forward(300, 255);
ARM GAS  C:\Users\xavieran\AppData\Local\Temp\cco2bJR3.s 			page 44


 1485              		.loc 1 490 0
 1486 09d2 4FF49670 		mov	r0, #300
 1487 09d6 FF21     		movs	r1, #255
 1488 09d8 FFF7FEFF 		bl	go_forward
 491:.\main.c      ****                 pickup_puck();
 1489              		.loc 1 491 0
 1490 09dc FFF7FEFF 		bl	pickup_puck
 492:.\main.c      ****                 CyDelay(200);
 1491              		.loc 1 492 0
 1492 09e0 C820     		movs	r0, #200
 1493 09e2 FFF7FEFF 		bl	CyDelay
 494:.\main.c      ****                 arm_set_level(4);
 1494              		.loc 1 494 0
 1495 09e6 0420     		movs	r0, #4
 1496 09e8 FFF7FEFF 		bl	arm_set_level
 496:.\main.c      ****                 while (get_mean_ultra() > 24){
 1497              		.loc 1 496 0
 1498 09ec 1DE0     		b	.L65
 1499              	.L112:
 1500 09ee 00BF     		.align	2
 1501              	.L111:
 1502 09f0 00000000 		.word	outString
 1503 09f4 C0000000 		.word	.LC14
 1504 09f8 400D0300 		.word	200000
 1505 09fc D0000000 		.word	.LC15
 1506 0a00 E4000000 		.word	.LC16
 1507 0a04 EC000000 		.word	.LC17
 1508 0a08 F4000000 		.word	.LC18
 1509 0a0c 08010000 		.word	.LC19
 1510 0a10 10010000 		.word	.LC20
 1511 0a14 24010000 		.word	.LC21
 1512              	.L66:
 497:.\main.c      ****                     go_forward(500, 255);
 1513              		.loc 1 497 0
 1514 0a18 4FF4FA70 		mov	r0, #500
 1515 0a1c FF21     		movs	r1, #255
 1516 0a1e FFF7FEFF 		bl	go_forward
 498:.\main.c      ****                     CyDelay(300);
 1517              		.loc 1 498 0
 1518 0a22 4FF49670 		mov	r0, #300
 1519 0a26 FFF7FEFF 		bl	CyDelay
 1520              	.L65:
 496:.\main.c      ****                 while (get_mean_ultra() > 24){
 1521              		.loc 1 496 0 discriminator 1
 1522 0a2a FFF7FEFF 		bl	get_mean_ultra
 1523 0a2e 0346     		mov	r3, r0
 1524 0a30 182B     		cmp	r3, #24
 1525 0a32 F1D8     		bhi	.L66
 500:.\main.c      ****                 int ultra = get_mean_ultra();
 1526              		.loc 1 500 0
 1527 0a34 FFF7FEFF 		bl	get_mean_ultra
 1528 0a38 0346     		mov	r3, r0
 1529 0a3a 7B62     		str	r3, [r7, #36]
 501:.\main.c      ****                 int stackable = 0;
 1530              		.loc 1 501 0
 1531 0a3c 0023     		movs	r3, #0
 1532 0a3e 3B62     		str	r3, [r7, #32]
ARM GAS  C:\Users\xavieran\AppData\Local\Temp\cco2bJR3.s 			page 45


 502:.\main.c      ****                 while (!within_range(14,ultra,15) && !stackable){
 1533              		.loc 1 502 0
 1534 0a40 32E0     		b	.L67
 1535              	.L71:
 503:.\main.c      ****                     ultra = get_mean_ultra();
 1536              		.loc 1 503 0
 1537 0a42 FFF7FEFF 		bl	get_mean_ultra
 1538 0a46 0346     		mov	r3, r0
 1539 0a48 7B62     		str	r3, [r7, #36]
 504:.\main.c      ****                     POS_PRINTF(1,0,"ULTRA: %d", ultra);
 1540              		.loc 1 504 0
 1541 0a4a B448     		ldr	r0, .L113
 1542 0a4c B449     		ldr	r1, .L113+4
 1543 0a4e 7A6A     		ldr	r2, [r7, #36]
 1544 0a50 FFF7FEFF 		bl	sprintf
 1545 0a54 0120     		movs	r0, #1
 1546 0a56 0021     		movs	r1, #0
 1547 0a58 FFF7FEFF 		bl	LCD_Position
 1548 0a5c AF48     		ldr	r0, .L113
 1549 0a5e FFF7FEFF 		bl	LCD_PrintString
 505:.\main.c      ****                     if (ultra > 15){
 1550              		.loc 1 505 0
 1551 0a62 7B6A     		ldr	r3, [r7, #36]
 1552 0a64 0F2B     		cmp	r3, #15
 1553 0a66 0BDD     		ble	.L68
 506:.\main.c      ****                         go_forward(250, 200);
 1554              		.loc 1 506 0
 1555 0a68 FA20     		movs	r0, #250
 1556 0a6a C821     		movs	r1, #200
 1557 0a6c FFF7FEFF 		bl	go_forward
 507:.\main.c      ****                         rotate_degrees(0);
 1558              		.loc 1 507 0
 1559 0a70 0020     		movs	r0, #0
 1560 0a72 FFF7FEFF 		bl	rotate_degrees
 508:.\main.c      ****                         CyDelay(300);
 1561              		.loc 1 508 0
 1562 0a76 4FF49670 		mov	r0, #300
 1563 0a7a FFF7FEFF 		bl	CyDelay
 1564 0a7e 13E0     		b	.L67
 1565              	.L68:
 509:.\main.c      ****                     } else if (ultra < 14){
 1566              		.loc 1 509 0
 1567 0a80 7B6A     		ldr	r3, [r7, #36]
 1568 0a82 0D2B     		cmp	r3, #13
 1569 0a84 0BDC     		bgt	.L69
 510:.\main.c      ****                         go_backward(200,200);
 1570              		.loc 1 510 0
 1571 0a86 C820     		movs	r0, #200
 1572 0a88 C821     		movs	r1, #200
 1573 0a8a FFF7FEFF 		bl	go_backward
 511:.\main.c      ****                         rotate_degrees(0);
 1574              		.loc 1 511 0
 1575 0a8e 0020     		movs	r0, #0
 1576 0a90 FFF7FEFF 		bl	rotate_degrees
 512:.\main.c      ****                         CyDelay(300);
 1577              		.loc 1 512 0
 1578 0a94 4FF49670 		mov	r0, #300
ARM GAS  C:\Users\xavieran\AppData\Local\Temp\cco2bJR3.s 			page 46


 1579 0a98 FFF7FEFF 		bl	CyDelay
 1580 0a9c 04E0     		b	.L67
 1581              	.L69:
 513:.\main.c      ****                     } else if (ultra == 14){
 1582              		.loc 1 513 0
 1583 0a9e 7B6A     		ldr	r3, [r7, #36]
 1584 0aa0 0E2B     		cmp	r3, #14
 1585 0aa2 01D1     		bne	.L67
 514:.\main.c      ****                         stackable = 1;
 1586              		.loc 1 514 0
 1587 0aa4 0123     		movs	r3, #1
 1588 0aa6 3B62     		str	r3, [r7, #32]
 1589              	.L67:
 502:.\main.c      ****                 while (!within_range(14,ultra,15) && !stackable){
 1590              		.loc 1 502 0 discriminator 1
 1591 0aa8 0E20     		movs	r0, #14
 1592 0aaa 796A     		ldr	r1, [r7, #36]
 1593 0aac 0F22     		movs	r2, #15
 1594 0aae FFF7FEFF 		bl	within_range
 1595 0ab2 0346     		mov	r3, r0
 1596 0ab4 002B     		cmp	r3, #0
 1597 0ab6 02D1     		bne	.L70
 502:.\main.c      ****                 while (!within_range(14,ultra,15) && !stackable){
 1598              		.loc 1 502 0 is_stmt 0 discriminator 2
 1599 0ab8 3B6A     		ldr	r3, [r7, #32]
 1600 0aba 002B     		cmp	r3, #0
 1601 0abc C1D0     		beq	.L71
 1602              	.L70:
 517:.\main.c      ****                 STALL_SPEED = BASE_STALL_SPEED;
 1603              		.loc 1 517 0 is_stmt 1
 1604 0abe 994B     		ldr	r3, .L113+8
 1605 0ac0 B422     		movs	r2, #180
 1606 0ac2 1A70     		strb	r2, [r3]
 518:.\main.c      ****                 set_heading(270);
 1607              		.loc 1 518 0
 1608 0ac4 4FF48770 		mov	r0, #270
 1609 0ac8 FFF7FEFF 		bl	set_heading
 519:.\main.c      ****                 rotate_degrees(0);
 1610              		.loc 1 519 0
 1611 0acc 0020     		movs	r0, #0
 1612 0ace FFF7FEFF 		bl	rotate_degrees
 521:.\main.c      ****                 state = S_PLACE_PUCK;
 1613              		.loc 1 521 0
 1614 0ad2 0C23     		movs	r3, #12
 1615 0ad4 A7F84E30 		strh	r3, [r7, #78]	@ movhi
 522:.\main.c      ****                 break;
 1616              		.loc 1 522 0
 1617 0ad8 D0E1     		b	.L11
 1618              	.L24:
 526:.\main.c      ****                 HEADING_ERROR_LIMIT = 2;
 1619              		.loc 1 526 0
 1620 0ada 934B     		ldr	r3, .L113+12
 1621 0adc 0222     		movs	r2, #2
 1622 0ade 1A70     		strb	r2, [r3]
 527:.\main.c      ****                 if (pucks_gotten == 1){
 1623              		.loc 1 527 0
 1624 0ae0 BB6C     		ldr	r3, [r7, #72]
ARM GAS  C:\Users\xavieran\AppData\Local\Temp\cco2bJR3.s 			page 47


 1625 0ae2 012B     		cmp	r3, #1
 1626 0ae4 2FD1     		bne	.L72
 528:.\main.c      ****                     for (i = 0; i < 3; i++){
 1627              		.loc 1 528 0
 1628 0ae6 0023     		movs	r3, #0
 1629 0ae8 7B63     		str	r3, [r7, #52]
 1630 0aea 0BE0     		b	.L73
 1631              	.L74:
 529:.\main.c      ****                         go_forward(500, 200);
 1632              		.loc 1 529 0 discriminator 2
 1633 0aec 4FF4FA70 		mov	r0, #500
 1634 0af0 C821     		movs	r1, #200
 1635 0af2 FFF7FEFF 		bl	go_forward
 530:.\main.c      ****                         CyDelay(600);
 1636              		.loc 1 530 0 discriminator 2
 1637 0af6 4FF41670 		mov	r0, #600
 1638 0afa FFF7FEFF 		bl	CyDelay
 528:.\main.c      ****                     for (i = 0; i < 3; i++){
 1639              		.loc 1 528 0 discriminator 2
 1640 0afe 7B6B     		ldr	r3, [r7, #52]
 1641 0b00 0133     		adds	r3, r3, #1
 1642 0b02 7B63     		str	r3, [r7, #52]
 1643              	.L73:
 528:.\main.c      ****                     for (i = 0; i < 3; i++){
 1644              		.loc 1 528 0 is_stmt 0 discriminator 1
 1645 0b04 7B6B     		ldr	r3, [r7, #52]
 1646 0b06 022B     		cmp	r3, #2
 1647 0b08 F0DD     		ble	.L74
 532:.\main.c      ****                     CyDelay(300);
 1648              		.loc 1 532 0 is_stmt 1
 1649 0b0a 4FF49670 		mov	r0, #300
 1650 0b0e FFF7FEFF 		bl	CyDelay
 533:.\main.c      ****                     set_heading(270);
 1651              		.loc 1 533 0
 1652 0b12 4FF48770 		mov	r0, #270
 1653 0b16 FFF7FEFF 		bl	set_heading
 534:.\main.c      ****                     rotate_degrees(0);
 1654              		.loc 1 534 0
 1655 0b1a 0020     		movs	r0, #0
 1656 0b1c FFF7FEFF 		bl	rotate_degrees
 535:.\main.c      ****                     arm_inbetween_level(0,1);
 1657              		.loc 1 535 0
 1658 0b20 0020     		movs	r0, #0
 1659 0b22 0121     		movs	r1, #1
 1660 0b24 FFF7FEFF 		bl	arm_inbetween_level
 536:.\main.c      ****                     CyDelay(300);
 1661              		.loc 1 536 0
 1662 0b28 4FF49670 		mov	r0, #300
 1663 0b2c FFF7FEFF 		bl	CyDelay
 537:.\main.c      ****                     drop_puck();
 1664              		.loc 1 537 0
 1665 0b30 FFF7FEFF 		bl	drop_puck
 538:.\main.c      ****                     CyDelay(200);
 1666              		.loc 1 538 0
 1667 0b34 C820     		movs	r0, #200
 1668 0b36 FFF7FEFF 		bl	CyDelay
 539:.\main.c      ****                     go_backward(2000, 255);
ARM GAS  C:\Users\xavieran\AppData\Local\Temp\cco2bJR3.s 			page 48


 1669              		.loc 1 539 0
 1670 0b3a 4FF4FA60 		mov	r0, #2000
 1671 0b3e FF21     		movs	r1, #255
 1672 0b40 FFF7FEFF 		bl	go_backward
 1673 0b44 54E1     		b	.L75
 1674              	.L72:
 1675              	.LBB5:
 541:.\main.c      ****                     arm_set_level(pucks_gotten + 1);
 1676              		.loc 1 541 0
 1677 0b46 BB6C     		ldr	r3, [r7, #72]
 1678 0b48 0133     		adds	r3, r3, #1
 1679 0b4a 1846     		mov	r0, r3
 1680 0b4c FFF7FEFF 		bl	arm_set_level
 542:.\main.c      ****                     go_forward(500, 200);
 1681              		.loc 1 542 0
 1682 0b50 4FF4FA70 		mov	r0, #500
 1683 0b54 C821     		movs	r1, #200
 1684 0b56 FFF7FEFF 		bl	go_forward
 543:.\main.c      ****                     int on_stack = 0;
 1685              		.loc 1 543 0
 1686 0b5a 0023     		movs	r3, #0
 1687 0b5c FB61     		str	r3, [r7, #28]
 545:.\main.c      ****                     while (!on_stack){
 1688              		.loc 1 545 0
 1689 0b5e 47E0     		b	.L76
 1690              	.L80:
 546:.\main.c      ****                         POS_PRINTF(0,0,"STACKING!");
 1691              		.loc 1 546 0
 1692 0b60 6E4B     		ldr	r3, .L113
 1693 0b62 724A     		ldr	r2, .L113+16
 1694 0b64 07CA     		ldmia	r2, {r0, r1, r2}
 1695 0b66 03C3     		stmia	r3!, {r0, r1}
 1696 0b68 1A80     		strh	r2, [r3]	@ movhi
 1697 0b6a 0020     		movs	r0, #0
 1698 0b6c 0021     		movs	r1, #0
 1699 0b6e FFF7FEFF 		bl	LCD_Position
 1700 0b72 6A48     		ldr	r0, .L113
 1701 0b74 FFF7FEFF 		bl	LCD_PrintString
 547:.\main.c      ****                         POS_PRINTF(1, 0, "B%d SU%d", beam_broken(), get_mean_ultra_s());
 1702              		.loc 1 547 0
 1703 0b78 FFF7FEFF 		bl	beam_broken
 1704 0b7c 0346     		mov	r3, r0
 1705 0b7e 1C46     		mov	r4, r3
 1706 0b80 FFF7FEFF 		bl	get_mean_ultra_s
 1707 0b84 0346     		mov	r3, r0
 1708 0b86 6548     		ldr	r0, .L113
 1709 0b88 6949     		ldr	r1, .L113+20
 1710 0b8a 2246     		mov	r2, r4
 1711 0b8c FFF7FEFF 		bl	sprintf
 1712 0b90 0120     		movs	r0, #1
 1713 0b92 0021     		movs	r1, #0
 1714 0b94 FFF7FEFF 		bl	LCD_Position
 1715 0b98 6048     		ldr	r0, .L113
 1716 0b9a FFF7FEFF 		bl	LCD_PrintString
 548:.\main.c      ****                         if (beam_broken()){
 1717              		.loc 1 548 0
 1718 0b9e FFF7FEFF 		bl	beam_broken
ARM GAS  C:\Users\xavieran\AppData\Local\Temp\cco2bJR3.s 			page 49


 1719 0ba2 0346     		mov	r3, r0
 1720 0ba4 002B     		cmp	r3, #0
 1721 0ba6 02D0     		beq	.L77
 549:.\main.c      ****                             on_stack = 1;
 1722              		.loc 1 549 0
 1723 0ba8 0123     		movs	r3, #1
 1724 0baa FB61     		str	r3, [r7, #28]
 1725 0bac 20E0     		b	.L76
 1726              	.L77:
 550:.\main.c      ****                         } else if (get_mean_ultra_s() < 10){
 1727              		.loc 1 550 0
 1728 0bae FFF7FEFF 		bl	get_mean_ultra_s
 1729 0bb2 0346     		mov	r3, r0
 1730 0bb4 092B     		cmp	r3, #9
 1731 0bb6 06D8     		bhi	.L78
 551:.\main.c      ****                             go_backward(200, 255);
 1732              		.loc 1 551 0
 1733 0bb8 C820     		movs	r0, #200
 1734 0bba FF21     		movs	r1, #255
 1735 0bbc FFF7FEFF 		bl	go_backward
 552:.\main.c      ****                             on_stack = 1;
 1736              		.loc 1 552 0
 1737 0bc0 0123     		movs	r3, #1
 1738 0bc2 FB61     		str	r3, [r7, #28]
 1739 0bc4 14E0     		b	.L76
 1740              	.L78:
 553:.\main.c      ****                         } else if (get_mean_ultra_s() > 17) {
 1741              		.loc 1 553 0
 1742 0bc6 FFF7FEFF 		bl	get_mean_ultra_s
 1743 0bca 0346     		mov	r3, r0
 1744 0bcc 112B     		cmp	r3, #17
 1745 0bce 08D9     		bls	.L79
 554:.\main.c      ****                             go_forward(300, 255);
 1746              		.loc 1 554 0
 1747 0bd0 4FF49670 		mov	r0, #300
 1748 0bd4 FF21     		movs	r1, #255
 1749 0bd6 FFF7FEFF 		bl	go_forward
 555:.\main.c      ****                             rotate_degrees(0);
 1750              		.loc 1 555 0
 1751 0bda 0020     		movs	r0, #0
 1752 0bdc FFF7FEFF 		bl	rotate_degrees
 1753 0be0 06E0     		b	.L76
 1754              	.L79:
 557:.\main.c      ****                             go_forward(200, 255);
 1755              		.loc 1 557 0
 1756 0be2 C820     		movs	r0, #200
 1757 0be4 FF21     		movs	r1, #255
 1758 0be6 FFF7FEFF 		bl	go_forward
 558:.\main.c      ****                             rotate_degrees(0);
 1759              		.loc 1 558 0
 1760 0bea 0020     		movs	r0, #0
 1761 0bec FFF7FEFF 		bl	rotate_degrees
 1762              	.L76:
 545:.\main.c      ****                     while (!on_stack){
 1763              		.loc 1 545 0 discriminator 1
 1764 0bf0 FB69     		ldr	r3, [r7, #28]
 1765 0bf2 002B     		cmp	r3, #0
ARM GAS  C:\Users\xavieran\AppData\Local\Temp\cco2bJR3.s 			page 50


 1766 0bf4 B4D0     		beq	.L80
 566:.\main.c      ****                     int ultra = get_mean_ultra_s();
 1767              		.loc 1 566 0
 1768 0bf6 FFF7FEFF 		bl	get_mean_ultra_s
 1769 0bfa 0346     		mov	r3, r0
 1770 0bfc BB61     		str	r3, [r7, #24]
 567:.\main.c      ****                     int stackable = 0;
 1771              		.loc 1 567 0
 1772 0bfe 0023     		movs	r3, #0
 1773 0c00 7B61     		str	r3, [r7, #20]
 568:.\main.c      ****                     switch (pucks_gotten){
 1774              		.loc 1 568 0
 1775 0c02 BB6C     		ldr	r3, [r7, #72]
 1776 0c04 032B     		cmp	r3, #3
 1777 0c06 7CD0     		beq	.L104
 1778 0c08 042B     		cmp	r3, #4
 1779 0c0a 00F0C880 		beq	.L105
 1780 0c0e 022B     		cmp	r3, #2
 1781 0c10 35D0     		beq	.L106
 1782 0c12 D1E0     		b	.L81
 1783              	.L89:
 571:.\main.c      ****                                 ultra = get_mean_ultra_s();
 1784              		.loc 1 571 0
 1785 0c14 FFF7FEFF 		bl	get_mean_ultra_s
 1786 0c18 0346     		mov	r3, r0
 1787 0c1a BB61     		str	r3, [r7, #24]
 572:.\main.c      ****                                 POS_PRINTF(1,0,"ULTRA: %d", ultra);
 1788              		.loc 1 572 0
 1789 0c1c 3F48     		ldr	r0, .L113
 1790 0c1e 4049     		ldr	r1, .L113+4
 1791 0c20 BA69     		ldr	r2, [r7, #24]
 1792 0c22 FFF7FEFF 		bl	sprintf
 1793 0c26 0120     		movs	r0, #1
 1794 0c28 0021     		movs	r1, #0
 1795 0c2a FFF7FEFF 		bl	LCD_Position
 1796 0c2e 3B48     		ldr	r0, .L113
 1797 0c30 FFF7FEFF 		bl	LCD_PrintString
 573:.\main.c      ****                                 if (ultra > LEVEL_1_DIST + 1){
 1798              		.loc 1 573 0
 1799 0c34 BB69     		ldr	r3, [r7, #24]
 1800 0c36 0F2B     		cmp	r3, #15
 1801 0c38 0CDD     		ble	.L86
 574:.\main.c      ****                                     go_forward(300, 140);
 1802              		.loc 1 574 0
 1803 0c3a 4FF49670 		mov	r0, #300
 1804 0c3e 8C21     		movs	r1, #140
 1805 0c40 FFF7FEFF 		bl	go_forward
 575:.\main.c      ****                                     rotate_degrees(0);
 1806              		.loc 1 575 0
 1807 0c44 0020     		movs	r0, #0
 1808 0c46 FFF7FEFF 		bl	rotate_degrees
 576:.\main.c      ****                                     CyDelay(300);
 1809              		.loc 1 576 0
 1810 0c4a 4FF49670 		mov	r0, #300
 1811 0c4e FFF7FEFF 		bl	CyDelay
 1812 0c52 15E0     		b	.L85
 1813              	.L86:
ARM GAS  C:\Users\xavieran\AppData\Local\Temp\cco2bJR3.s 			page 51


 577:.\main.c      ****                                 } else if (ultra < LEVEL_1_DIST){
 1814              		.loc 1 577 0
 1815 0c54 BB69     		ldr	r3, [r7, #24]
 1816 0c56 0D2B     		cmp	r3, #13
 1817 0c58 0BDC     		bgt	.L87
 578:.\main.c      ****                                     go_backward(140,140);
 1818              		.loc 1 578 0
 1819 0c5a 8C20     		movs	r0, #140
 1820 0c5c 8C21     		movs	r1, #140
 1821 0c5e FFF7FEFF 		bl	go_backward
 579:.\main.c      ****                                     rotate_degrees(0);
 1822              		.loc 1 579 0
 1823 0c62 0020     		movs	r0, #0
 1824 0c64 FFF7FEFF 		bl	rotate_degrees
 580:.\main.c      ****                                     CyDelay(300);
 1825              		.loc 1 580 0
 1826 0c68 4FF49670 		mov	r0, #300
 1827 0c6c FFF7FEFF 		bl	CyDelay
 1828 0c70 06E0     		b	.L85
 1829              	.L87:
 581:.\main.c      ****                                 } else if (ultra == LEVEL_1_DIST){
 1830              		.loc 1 581 0
 1831 0c72 BB69     		ldr	r3, [r7, #24]
 1832 0c74 0E2B     		cmp	r3, #14
 1833 0c76 03D1     		bne	.L85
 582:.\main.c      ****                                     stackable = 1;
 1834              		.loc 1 582 0
 1835 0c78 0123     		movs	r3, #1
 1836 0c7a 7B61     		str	r3, [r7, #20]
 1837 0c7c 00E0     		b	.L85
 1838              	.L106:
 570:.\main.c      ****                             while (!within_range(LEVEL_1_DIST,ultra,LEVEL_1_DIST + 1) && !stackable
 1839              		.loc 1 570 0
 1840 0c7e 00BF     		nop
 1841              	.L85:
 570:.\main.c      ****                             while (!within_range(LEVEL_1_DIST,ultra,LEVEL_1_DIST + 1) && !stackable
 1842              		.loc 1 570 0 is_stmt 0 discriminator 1
 1843 0c80 0E20     		movs	r0, #14
 1844 0c82 B969     		ldr	r1, [r7, #24]
 1845 0c84 0F22     		movs	r2, #15
 1846 0c86 FFF7FEFF 		bl	within_range
 1847 0c8a 0346     		mov	r3, r0
 1848 0c8c 002B     		cmp	r3, #0
 1849 0c8e 02D1     		bne	.L88
 570:.\main.c      ****                             while (!within_range(LEVEL_1_DIST,ultra,LEVEL_1_DIST + 1) && !stackable
 1850              		.loc 1 570 0 discriminator 2
 1851 0c90 7B69     		ldr	r3, [r7, #20]
 1852 0c92 002B     		cmp	r3, #0
 1853 0c94 BED0     		beq	.L89
 1854              	.L88:
 585:.\main.c      ****                             break;   
 1855              		.loc 1 585 0 is_stmt 1
 1856 0c96 8FE0     		b	.L81
 1857              	.L94:
 588:.\main.c      ****                                 ultra = get_mean_ultra_s();
 1858              		.loc 1 588 0
 1859 0c98 FFF7FEFF 		bl	get_mean_ultra_s
ARM GAS  C:\Users\xavieran\AppData\Local\Temp\cco2bJR3.s 			page 52


 1860 0c9c 0346     		mov	r3, r0
 1861 0c9e BB61     		str	r3, [r7, #24]
 589:.\main.c      ****                                 POS_PRINTF(1,0,"ULTRA: %d", ultra);
 1862              		.loc 1 589 0
 1863 0ca0 1E48     		ldr	r0, .L113
 1864 0ca2 1F49     		ldr	r1, .L113+4
 1865 0ca4 BA69     		ldr	r2, [r7, #24]
 1866 0ca6 FFF7FEFF 		bl	sprintf
 1867 0caa 0120     		movs	r0, #1
 1868 0cac 0021     		movs	r1, #0
 1869 0cae FFF7FEFF 		bl	LCD_Position
 1870 0cb2 1A48     		ldr	r0, .L113
 1871 0cb4 FFF7FEFF 		bl	LCD_PrintString
 590:.\main.c      ****                                 if (ultra > LEVEL_2_DIST + 1){
 1872              		.loc 1 590 0
 1873 0cb8 BB69     		ldr	r3, [r7, #24]
 1874 0cba 102B     		cmp	r3, #16
 1875 0cbc 0CDD     		ble	.L91
 591:.\main.c      ****                                     go_forward(300, 140);
 1876              		.loc 1 591 0
 1877 0cbe 4FF49670 		mov	r0, #300
 1878 0cc2 8C21     		movs	r1, #140
 1879 0cc4 FFF7FEFF 		bl	go_forward
 592:.\main.c      ****                                     rotate_degrees(0);
 1880              		.loc 1 592 0
 1881 0cc8 0020     		movs	r0, #0
 1882 0cca FFF7FEFF 		bl	rotate_degrees
 593:.\main.c      ****                                     CyDelay(300);
 1883              		.loc 1 593 0
 1884 0cce 4FF49670 		mov	r0, #300
 1885 0cd2 FFF7FEFF 		bl	CyDelay
 1886 0cd6 15E0     		b	.L90
 1887              	.L91:
 594:.\main.c      ****                                 } else if (ultra < LEVEL_2_DIST){
 1888              		.loc 1 594 0
 1889 0cd8 BB69     		ldr	r3, [r7, #24]
 1890 0cda 0E2B     		cmp	r3, #14
 1891 0cdc 0BDC     		bgt	.L92
 595:.\main.c      ****                                     go_backward(140,140);
 1892              		.loc 1 595 0
 1893 0cde 8C20     		movs	r0, #140
 1894 0ce0 8C21     		movs	r1, #140
 1895 0ce2 FFF7FEFF 		bl	go_backward
 596:.\main.c      ****                                     rotate_degrees(0);
 1896              		.loc 1 596 0
 1897 0ce6 0020     		movs	r0, #0
 1898 0ce8 FFF7FEFF 		bl	rotate_degrees
 597:.\main.c      ****                                     CyDelay(300);
 1899              		.loc 1 597 0
 1900 0cec 4FF49670 		mov	r0, #300
 1901 0cf0 FFF7FEFF 		bl	CyDelay
 1902 0cf4 06E0     		b	.L90
 1903              	.L92:
 598:.\main.c      ****                                 } else if (ultra == LEVEL_2_DIST){
 1904              		.loc 1 598 0
 1905 0cf6 BB69     		ldr	r3, [r7, #24]
 1906 0cf8 0F2B     		cmp	r3, #15
ARM GAS  C:\Users\xavieran\AppData\Local\Temp\cco2bJR3.s 			page 53


 1907 0cfa 03D1     		bne	.L90
 599:.\main.c      ****                                     stackable = 1;
 1908              		.loc 1 599 0
 1909 0cfc 0123     		movs	r3, #1
 1910 0cfe 7B61     		str	r3, [r7, #20]
 1911 0d00 00E0     		b	.L90
 1912              	.L104:
 587:.\main.c      ****                             while (!within_range(LEVEL_2_DIST,ultra,LEVEL_2_DIST+1) && !stackable){
 1913              		.loc 1 587 0
 1914 0d02 00BF     		nop
 1915              	.L90:
 587:.\main.c      ****                             while (!within_range(LEVEL_2_DIST,ultra,LEVEL_2_DIST+1) && !stackable){
 1916              		.loc 1 587 0 is_stmt 0 discriminator 1
 1917 0d04 0F20     		movs	r0, #15
 1918 0d06 B969     		ldr	r1, [r7, #24]
 1919 0d08 1022     		movs	r2, #16
 1920 0d0a FFF7FEFF 		bl	within_range
 1921 0d0e 0346     		mov	r3, r0
 1922 0d10 002B     		cmp	r3, #0
 1923 0d12 02D1     		bne	.L93
 587:.\main.c      ****                             while (!within_range(LEVEL_2_DIST,ultra,LEVEL_2_DIST+1) && !stackable){
 1924              		.loc 1 587 0 discriminator 2
 1925 0d14 7B69     		ldr	r3, [r7, #20]
 1926 0d16 002B     		cmp	r3, #0
 1927 0d18 BED0     		beq	.L94
 1928              	.L93:
 602:.\main.c      ****                             break;
 1929              		.loc 1 602 0 is_stmt 1
 1930 0d1a 4DE0     		b	.L81
 1931              	.L114:
 1932              		.align	2
 1933              	.L113:
 1934 0d1c 00000000 		.word	outString
 1935 0d20 38010000 		.word	.LC22
 1936 0d24 00000000 		.word	STALL_SPEED
 1937 0d28 00000000 		.word	HEADING_ERROR_LIMIT
 1938 0d2c 44010000 		.word	.LC23
 1939 0d30 50010000 		.word	.LC24
 1940              	.L99:
 605:.\main.c      ****                                 ultra = get_mean_ultra_s();
 1941              		.loc 1 605 0
 1942 0d34 FFF7FEFF 		bl	get_mean_ultra_s
 1943 0d38 0346     		mov	r3, r0
 1944 0d3a BB61     		str	r3, [r7, #24]
 606:.\main.c      ****                                 POS_PRINTF(1,0,"ULTRA: %d", ultra);
 1945              		.loc 1 606 0
 1946 0d3c 5048     		ldr	r0, .L115
 1947 0d3e 5149     		ldr	r1, .L115+4
 1948 0d40 BA69     		ldr	r2, [r7, #24]
 1949 0d42 FFF7FEFF 		bl	sprintf
 1950 0d46 0120     		movs	r0, #1
 1951 0d48 0021     		movs	r1, #0
 1952 0d4a FFF7FEFF 		bl	LCD_Position
 1953 0d4e 4C48     		ldr	r0, .L115
 1954 0d50 FFF7FEFF 		bl	LCD_PrintString
 607:.\main.c      ****                                 if (ultra > LEVEL_3_DIST + 1){
 1955              		.loc 1 607 0
ARM GAS  C:\Users\xavieran\AppData\Local\Temp\cco2bJR3.s 			page 54


 1956 0d54 BB69     		ldr	r3, [r7, #24]
 1957 0d56 112B     		cmp	r3, #17
 1958 0d58 0CDD     		ble	.L96
 608:.\main.c      ****                                     go_forward(300, 140);
 1959              		.loc 1 608 0
 1960 0d5a 4FF49670 		mov	r0, #300
 1961 0d5e 8C21     		movs	r1, #140
 1962 0d60 FFF7FEFF 		bl	go_forward
 609:.\main.c      ****                                     rotate_degrees(0);
 1963              		.loc 1 609 0
 1964 0d64 0020     		movs	r0, #0
 1965 0d66 FFF7FEFF 		bl	rotate_degrees
 610:.\main.c      ****                                     CyDelay(300);
 1966              		.loc 1 610 0
 1967 0d6a 4FF49670 		mov	r0, #300
 1968 0d6e FFF7FEFF 		bl	CyDelay
 1969 0d72 15E0     		b	.L95
 1970              	.L96:
 611:.\main.c      ****                                 } else if (ultra < LEVEL_3_DIST){
 1971              		.loc 1 611 0
 1972 0d74 BB69     		ldr	r3, [r7, #24]
 1973 0d76 0F2B     		cmp	r3, #15
 1974 0d78 0BDC     		bgt	.L97
 612:.\main.c      ****                                     go_backward(140,140);
 1975              		.loc 1 612 0
 1976 0d7a 8C20     		movs	r0, #140
 1977 0d7c 8C21     		movs	r1, #140
 1978 0d7e FFF7FEFF 		bl	go_backward
 613:.\main.c      ****                                     rotate_degrees(0);
 1979              		.loc 1 613 0
 1980 0d82 0020     		movs	r0, #0
 1981 0d84 FFF7FEFF 		bl	rotate_degrees
 614:.\main.c      ****                                     CyDelay(300);
 1982              		.loc 1 614 0
 1983 0d88 4FF49670 		mov	r0, #300
 1984 0d8c FFF7FEFF 		bl	CyDelay
 1985 0d90 06E0     		b	.L95
 1986              	.L97:
 615:.\main.c      ****                                 } else if (ultra == LEVEL_3_DIST){
 1987              		.loc 1 615 0
 1988 0d92 BB69     		ldr	r3, [r7, #24]
 1989 0d94 102B     		cmp	r3, #16
 1990 0d96 03D1     		bne	.L95
 616:.\main.c      ****                                     stackable = 1;
 1991              		.loc 1 616 0
 1992 0d98 0123     		movs	r3, #1
 1993 0d9a 7B61     		str	r3, [r7, #20]
 1994 0d9c 00E0     		b	.L95
 1995              	.L105:
 604:.\main.c      ****                             while (!within_range(LEVEL_3_DIST,ultra,LEVEL_3_DIST+10) && !stackable)
 1996              		.loc 1 604 0
 1997 0d9e 00BF     		nop
 1998              	.L95:
 604:.\main.c      ****                             while (!within_range(LEVEL_3_DIST,ultra,LEVEL_3_DIST+10) && !stackable)
 1999              		.loc 1 604 0 is_stmt 0 discriminator 1
 2000 0da0 1020     		movs	r0, #16
 2001 0da2 B969     		ldr	r1, [r7, #24]
ARM GAS  C:\Users\xavieran\AppData\Local\Temp\cco2bJR3.s 			page 55


 2002 0da4 1A22     		movs	r2, #26
 2003 0da6 FFF7FEFF 		bl	within_range
 2004 0daa 0346     		mov	r3, r0
 2005 0dac 002B     		cmp	r3, #0
 2006 0dae 02D1     		bne	.L98
 604:.\main.c      ****                             while (!within_range(LEVEL_3_DIST,ultra,LEVEL_3_DIST+10) && !stackable)
 2007              		.loc 1 604 0 discriminator 2
 2008 0db0 7B69     		ldr	r3, [r7, #20]
 2009 0db2 002B     		cmp	r3, #0
 2010 0db4 BED0     		beq	.L99
 2011              	.L98:
 619:.\main.c      ****                             break;
 2012              		.loc 1 619 0 is_stmt 1
 2013 0db6 00BF     		nop
 2014              	.L81:
 621:.\main.c      ****                     arm_inbetween_level(pucks_gotten - 1, pucks_gotten);
 2015              		.loc 1 621 0
 2016 0db8 BB6C     		ldr	r3, [r7, #72]
 2017 0dba 013B     		subs	r3, r3, #1
 2018 0dbc 1846     		mov	r0, r3
 2019 0dbe B96C     		ldr	r1, [r7, #72]
 2020 0dc0 FFF7FEFF 		bl	arm_inbetween_level
 622:.\main.c      ****                     CyDelay(800);
 2021              		.loc 1 622 0
 2022 0dc4 4FF44870 		mov	r0, #800
 2023 0dc8 FFF7FEFF 		bl	CyDelay
 623:.\main.c      ****                     drop_puck();
 2024              		.loc 1 623 0
 2025 0dcc FFF7FEFF 		bl	drop_puck
 624:.\main.c      ****                     CyDelay(200);
 2026              		.loc 1 624 0
 2027 0dd0 C820     		movs	r0, #200
 2028 0dd2 FFF7FEFF 		bl	CyDelay
 625:.\main.c      ****                     go_backward(1400, 255);
 2029              		.loc 1 625 0
 2030 0dd6 4FF4AF60 		mov	r0, #1400
 2031 0dda FF21     		movs	r1, #255
 2032 0ddc FFF7FEFF 		bl	go_backward
 626:.\main.c      ****                     arm_carry_home();
 2033              		.loc 1 626 0
 2034 0de0 FFF7FEFF 		bl	arm_carry_home
 627:.\main.c      ****                     arm_set_level(0);
 2035              		.loc 1 627 0
 2036 0de4 0020     		movs	r0, #0
 2037 0de6 FFF7FEFF 		bl	arm_set_level
 628:.\main.c      ****                     CyDelay(200);
 2038              		.loc 1 628 0
 2039 0dea C820     		movs	r0, #200
 2040 0dec FFF7FEFF 		bl	CyDelay
 2041              	.L75:
 2042              	.LBE5:
 631:.\main.c      ****                 HEADING_ERROR_LIMIT = 3;
 2043              		.loc 1 631 0
 2044 0df0 254B     		ldr	r3, .L115+8
 2045 0df2 0322     		movs	r2, #3
 2046 0df4 1A70     		strb	r2, [r3]
 632:.\main.c      ****                 set_heading(0);
ARM GAS  C:\Users\xavieran\AppData\Local\Temp\cco2bJR3.s 			page 56


 2047              		.loc 1 632 0
 2048 0df6 0020     		movs	r0, #0
 2049 0df8 FFF7FEFF 		bl	set_heading
 633:.\main.c      ****                 rotate_degrees(0);
 2050              		.loc 1 633 0
 2051 0dfc 0020     		movs	r0, #0
 2052 0dfe FFF7FEFF 		bl	rotate_degrees
 634:.\main.c      ****                 go_backward(1500, 255);
 2053              		.loc 1 634 0
 2054 0e02 40F2DC50 		movw	r0, #1500
 2055 0e06 FF21     		movs	r1, #255
 2056 0e08 FFF7FEFF 		bl	go_backward
 636:.\main.c      ****                 if (pucks_gotten == 4){
 2057              		.loc 1 636 0
 2058 0e0c BB6C     		ldr	r3, [r7, #72]
 2059 0e0e 042B     		cmp	r3, #4
 2060 0e10 03D1     		bne	.L100
 637:.\main.c      ****                     state = S_GRAB_BEACON;
 2061              		.loc 1 637 0
 2062 0e12 0E23     		movs	r3, #14
 2063 0e14 A7F84E30 		strh	r3, [r7, #78]	@ movhi
 641:.\main.c      ****                 break;
 2064              		.loc 1 641 0
 2065 0e18 30E0     		b	.L11
 2066              	.L100:
 639:.\main.c      ****                     state = S_LEAVE_BASE;
 2067              		.loc 1 639 0
 2068 0e1a 0123     		movs	r3, #1
 2069 0e1c A7F84E30 		strh	r3, [r7, #78]	@ movhi
 641:.\main.c      ****                 break;
 2070              		.loc 1 641 0
 2071 0e20 2CE0     		b	.L11
 2072              	.L26:
 644:.\main.c      ****                 POS_PRINTF(0,0,"GOT HOME");
 2073              		.loc 1 644 0
 2074 0e22 174B     		ldr	r3, .L115
 2075 0e24 194A     		ldr	r2, .L115+12
 2076 0e26 07CA     		ldmia	r2, {r0, r1, r2}
 2077 0e28 03C3     		stmia	r3!, {r0, r1}
 2078 0e2a 1A70     		strb	r2, [r3]
 2079 0e2c 0020     		movs	r0, #0
 2080 0e2e 0021     		movs	r1, #0
 2081 0e30 FFF7FEFF 		bl	LCD_Position
 2082 0e34 1248     		ldr	r0, .L115
 2083 0e36 FFF7FEFF 		bl	LCD_PrintString
 645:.\main.c      ****                 set_heading(0);
 2084              		.loc 1 645 0
 2085 0e3a 0020     		movs	r0, #0
 2086 0e3c FFF7FEFF 		bl	set_heading
 646:.\main.c      ****                 rotate_degrees(0);
 2087              		.loc 1 646 0
 2088 0e40 0020     		movs	r0, #0
 2089 0e42 FFF7FEFF 		bl	rotate_degrees
 647:.\main.c      ****                 arm_set_level(6);
 2090              		.loc 1 647 0
 2091 0e46 0620     		movs	r0, #6
 2092 0e48 FFF7FEFF 		bl	arm_set_level
ARM GAS  C:\Users\xavieran\AppData\Local\Temp\cco2bJR3.s 			page 57


 648:.\main.c      ****                 go_forward(500, 255);
 2093              		.loc 1 648 0
 2094 0e4c 4FF4FA70 		mov	r0, #500
 2095 0e50 FF21     		movs	r1, #255
 2096 0e52 FFF7FEFF 		bl	go_forward
 649:.\main.c      ****                 pickup_angled_puck();
 2097              		.loc 1 649 0
 2098 0e56 FFF7FEFF 		bl	pickup_angled_puck
 650:.\main.c      ****                 break;
 2099              		.loc 1 650 0
 2100 0e5a 0FE0     		b	.L11
 2101              	.L19:
 652:.\main.c      ****                 POS_PRINTF(0,0,"VICTORY!!!");
 2102              		.loc 1 652 0
 2103 0e5c 084B     		ldr	r3, .L115
 2104 0e5e 0C4A     		ldr	r2, .L115+16
 2105 0e60 07CA     		ldmia	r2, {r0, r1, r2}
 2106 0e62 03C3     		stmia	r3!, {r0, r1}
 2107 0e64 1A80     		strh	r2, [r3]	@ movhi
 2108 0e66 0233     		adds	r3, r3, #2
 2109 0e68 120C     		lsrs	r2, r2, #16
 2110 0e6a 1A70     		strb	r2, [r3]
 2111 0e6c 0020     		movs	r0, #0
 2112 0e6e 0021     		movs	r1, #0
 2113 0e70 FFF7FEFF 		bl	LCD_Position
 2114 0e74 0248     		ldr	r0, .L115
 2115 0e76 FFF7FEFF 		bl	LCD_PrintString
 653:.\main.c      ****                 break;
 2116              		.loc 1 653 0
 2117 0e7a 00BF     		nop
 2118              	.L11:
 2119              	.LBE2:
 2120              		.loc 1 663 0
 2121 0e7c FFF7FAB8 		b	.L103
 2122              	.L116:
 2123              		.align	2
 2124              	.L115:
 2125 0e80 00000000 		.word	outString
 2126 0e84 38010000 		.word	.LC22
 2127 0e88 00000000 		.word	HEADING_ERROR_LIMIT
 2128 0e8c 5C010000 		.word	.LC25
 2129 0e90 68010000 		.word	.LC26
 2130              		.cfi_endproc
 2131              	.LFE65:
 2132              		.size	main, .-main
 2133              		.section	.rodata
 2134 0173 00       		.align	2
 2135              	.LC27:
 2136 0174 583A256C 		.ascii	"X:%ld Y:%ld\000"
 2136      6420593A 
 2136      256C6400 
 2137              		.align	2
 2138              	.LC28:
 2139 0180 543A256C 		.ascii	"T:%ld/%ld\000"
 2139      642F256C 
 2139      6400
 2140              		.global	__aeabi_i2d
ARM GAS  C:\Users\xavieran\AppData\Local\Temp\cco2bJR3.s 			page 58


 2141              		.global	__aeabi_d2f
 2142              		.global	__aeabi_f2d
 2143              		.global	__aeabi_d2iz
 2144 018a 0000     		.align	2
 2145              	.LC29:
 2146 018c 583A2564 		.ascii	"X:%d Y:%d\000"
 2146      20593A25 
 2146      6400
 2147 0196 0000     		.section	.text.calibrate_compass,"ax",%progbits
 2148              		.align	2
 2149              		.global	calibrate_compass
 2150              		.thumb
 2151              		.thumb_func
 2152              		.type	calibrate_compass, %function
 2153              	calibrate_compass:
 2154              	.LFB66:
 664:.\main.c      **** }
 665:.\main.c      **** 
 666:.\main.c      **** void calibrate_compass()
 667:.\main.c      **** {
 2155              		.loc 1 667 0
 2156              		.cfi_startproc
 2157              		@ args = 0, pretend = 0, frame = 56
 2158              		@ frame_needed = 1, uses_anonymous_args = 0
 2159 0000 80B5     		push	{r7, lr}
 2160              		.cfi_def_cfa_offset 8
 2161              		.cfi_offset 7, -8
 2162              		.cfi_offset 14, -4
 2163 0002 8EB0     		sub	sp, sp, #56
 2164              		.cfi_def_cfa_offset 64
 2165 0004 00AF     		add	r7, sp, #0
 2166              		.cfi_def_cfa_register 7
 668:.\main.c      ****     char outString[25];
 669:.\main.c      ****     float avx = 0,avy = 0;
 2167              		.loc 1 669 0
 2168 0006 4FF00003 		mov	r3, #0
 2169 000a BB62     		str	r3, [r7, #40]	@ float
 2170 000c 4FF00003 		mov	r3, #0
 2171 0010 7B62     		str	r3, [r7, #36]	@ float
 670:.\main.c      ****     int trials = 2000;
 2172              		.loc 1 670 0
 2173 0012 4FF4FA63 		mov	r3, #2000
 2174 0016 3B62     		str	r3, [r7, #32]
 671:.\main.c      ****     int32 x = 0,y = 0;
 2175              		.loc 1 671 0
 2176 0018 0023     		movs	r3, #0
 2177 001a 7B63     		str	r3, [r7, #52]
 2178 001c 0023     		movs	r3, #0
 2179 001e 3B63     		str	r3, [r7, #48]
 672:.\main.c      ****     int i;
 673:.\main.c      ****     rotate_left(130);
 2180              		.loc 1 673 0
 2181 0020 8220     		movs	r0, #130
 2182 0022 FFF7FEFF 		bl	rotate_left
 674:.\main.c      ****     for(i = 0; i < trials; i++)
 2183              		.loc 1 674 0
 2184 0026 0023     		movs	r3, #0
ARM GAS  C:\Users\xavieran\AppData\Local\Temp\cco2bJR3.s 			page 59


 2185 0028 FB62     		str	r3, [r7, #44]
 2186 002a 3DE0     		b	.L118
 2187              	.L120:
 675:.\main.c      ****     {
 676:.\main.c      ****         while(!compass_ready){}
 2188              		.loc 1 676 0
 2189 002c 00BF     		nop
 2190              	.L119:
 2191              		.loc 1 676 0 is_stmt 0 discriminator 1
 2192 002e 464B     		ldr	r3, .L122
 2193 0030 1B78     		ldrb	r3, [r3]
 2194 0032 DBB2     		uxtb	r3, r3
 2195 0034 002B     		cmp	r3, #0
 2196 0036 FAD0     		beq	.L119
 677:.\main.c      ****         compass_read();
 2197              		.loc 1 677 0 is_stmt 1
 2198 0038 FFF7FEFF 		bl	compass_read
 678:.\main.c      ****         x += compass_x;
 2199              		.loc 1 678 0
 2200 003c 434B     		ldr	r3, .L122+4
 2201 003e 1B88     		ldrh	r3, [r3]
 2202 0040 1BB2     		sxth	r3, r3
 2203 0042 7A6B     		ldr	r2, [r7, #52]
 2204 0044 1344     		add	r3, r3, r2
 2205 0046 7B63     		str	r3, [r7, #52]
 679:.\main.c      ****         y += compass_y;
 2206              		.loc 1 679 0
 2207 0048 414B     		ldr	r3, .L122+8
 2208 004a 1B88     		ldrh	r3, [r3]
 2209 004c 1BB2     		sxth	r3, r3
 2210 004e 3A6B     		ldr	r2, [r7, #48]
 2211 0050 1344     		add	r3, r3, r2
 2212 0052 3B63     		str	r3, [r7, #48]
 680:.\main.c      ****         LCD_ClearDisplay();
 2213              		.loc 1 680 0
 2214 0054 0120     		movs	r0, #1
 2215 0056 FFF7FEFF 		bl	LCD_WriteControl
 681:.\main.c      ****         //POS_PRINTF(0,0,"X:%ld Y:%ld",(int) round(avx),(int) round(avy));
 682:.\main.c      ****         //POS_PRINTF(1,0,"C:%ld/%ld",i,(int) round(trials));
 683:.\main.c      ****         POS_PRINTF(0,0,"X:%ld Y:%ld",x/i,y/i);
 2216              		.loc 1 683 0
 2217 005a 7A6B     		ldr	r2, [r7, #52]
 2218 005c FB6A     		ldr	r3, [r7, #44]
 2219 005e 92FBF3F2 		sdiv	r2, r2, r3
 2220 0062 396B     		ldr	r1, [r7, #48]
 2221 0064 FB6A     		ldr	r3, [r7, #44]
 2222 0066 91FBF3F3 		sdiv	r3, r1, r3
 2223 006a 391D     		adds	r1, r7, #4
 2224 006c 0846     		mov	r0, r1
 2225 006e 3949     		ldr	r1, .L122+12
 2226 0070 FFF7FEFF 		bl	sprintf
 2227 0074 0020     		movs	r0, #0
 2228 0076 0021     		movs	r1, #0
 2229 0078 FFF7FEFF 		bl	LCD_Position
 2230 007c 3B1D     		adds	r3, r7, #4
 2231 007e 1846     		mov	r0, r3
 2232 0080 FFF7FEFF 		bl	LCD_PrintString
ARM GAS  C:\Users\xavieran\AppData\Local\Temp\cco2bJR3.s 			page 60


 684:.\main.c      ****         POS_PRINTF(1,0,"T:%ld/%ld",i,trials);
 2233              		.loc 1 684 0
 2234 0084 3B1D     		adds	r3, r7, #4
 2235 0086 1846     		mov	r0, r3
 2236 0088 3349     		ldr	r1, .L122+16
 2237 008a FA6A     		ldr	r2, [r7, #44]
 2238 008c 3B6A     		ldr	r3, [r7, #32]
 2239 008e FFF7FEFF 		bl	sprintf
 2240 0092 0120     		movs	r0, #1
 2241 0094 0021     		movs	r1, #0
 2242 0096 FFF7FEFF 		bl	LCD_Position
 2243 009a 3B1D     		adds	r3, r7, #4
 2244 009c 1846     		mov	r0, r3
 2245 009e FFF7FEFF 		bl	LCD_PrintString
 674:.\main.c      ****     for(i = 0; i < trials; i++)
 2246              		.loc 1 674 0
 2247 00a2 FB6A     		ldr	r3, [r7, #44]
 2248 00a4 0133     		adds	r3, r3, #1
 2249 00a6 FB62     		str	r3, [r7, #44]
 2250              	.L118:
 674:.\main.c      ****     for(i = 0; i < trials; i++)
 2251              		.loc 1 674 0 is_stmt 0 discriminator 1
 2252 00a8 FA6A     		ldr	r2, [r7, #44]
 2253 00aa 3B6A     		ldr	r3, [r7, #32]
 2254 00ac 9A42     		cmp	r2, r3
 2255 00ae BDDB     		blt	.L120
 685:.\main.c      ****     }
 686:.\main.c      ****     setCoast(MBOTH);
 2256              		.loc 1 686 0 is_stmt 1
 2257 00b0 0320     		movs	r0, #3
 2258 00b2 FFF7FEFF 		bl	setCoast
 687:.\main.c      ****     avx = x/(1.0);
 2259              		.loc 1 687 0
 2260 00b6 786B     		ldr	r0, [r7, #52]
 2261 00b8 FFF7FEFF 		bl	__aeabi_i2d
 2262 00bc 0246     		mov	r2, r0
 2263 00be 0B46     		mov	r3, r1
 2264 00c0 1046     		mov	r0, r2
 2265 00c2 1946     		mov	r1, r3
 2266 00c4 FFF7FEFF 		bl	__aeabi_d2f
 2267 00c8 0346     		mov	r3, r0
 2268 00ca BB62     		str	r3, [r7, #40]	@ float
 688:.\main.c      ****     avy = y/(1.0);
 2269              		.loc 1 688 0
 2270 00cc 386B     		ldr	r0, [r7, #48]
 2271 00ce FFF7FEFF 		bl	__aeabi_i2d
 2272 00d2 0246     		mov	r2, r0
 2273 00d4 0B46     		mov	r3, r1
 2274 00d6 1046     		mov	r0, r2
 2275 00d8 1946     		mov	r1, r3
 2276 00da FFF7FEFF 		bl	__aeabi_d2f
 2277 00de 0346     		mov	r3, r0
 2278 00e0 7B62     		str	r3, [r7, #36]	@ float
 689:.\main.c      ****     x = round(avx);
 2279              		.loc 1 689 0
 2280 00e2 B86A     		ldr	r0, [r7, #40]	@ float
 2281 00e4 FFF7FEFF 		bl	__aeabi_f2d
ARM GAS  C:\Users\xavieran\AppData\Local\Temp\cco2bJR3.s 			page 61


 2282 00e8 0246     		mov	r2, r0
 2283 00ea 0B46     		mov	r3, r1
 2284 00ec 1046     		mov	r0, r2
 2285 00ee 1946     		mov	r1, r3
 2286 00f0 FFF7FEFF 		bl	round
 2287 00f4 0246     		mov	r2, r0
 2288 00f6 0B46     		mov	r3, r1
 2289 00f8 1046     		mov	r0, r2
 2290 00fa 1946     		mov	r1, r3
 2291 00fc FFF7FEFF 		bl	__aeabi_d2iz
 2292 0100 0346     		mov	r3, r0
 2293 0102 7B63     		str	r3, [r7, #52]
 690:.\main.c      ****     y = round(avy);
 2294              		.loc 1 690 0
 2295 0104 786A     		ldr	r0, [r7, #36]	@ float
 2296 0106 FFF7FEFF 		bl	__aeabi_f2d
 2297 010a 0246     		mov	r2, r0
 2298 010c 0B46     		mov	r3, r1
 2299 010e 1046     		mov	r0, r2
 2300 0110 1946     		mov	r1, r3
 2301 0112 FFF7FEFF 		bl	round
 2302 0116 0246     		mov	r2, r0
 2303 0118 0B46     		mov	r3, r1
 2304 011a 1046     		mov	r0, r2
 2305 011c 1946     		mov	r1, r3
 2306 011e FFF7FEFF 		bl	__aeabi_d2iz
 2307 0122 0346     		mov	r3, r0
 2308 0124 3B63     		str	r3, [r7, #48]
 691:.\main.c      ****     //EEPROM1_Write(&xHIGH,0);
 692:.\main.c      ****     //EEPROM1_Write(&xLOW,1);
 693:.\main.c      ****     //EEPROM1_Write(&yHIGH,2);
 694:.\main.c      ****     //EEPROM1_Write(&yLOW,3);
 695:.\main.c      ****     sprintf(outString,"X:%d Y:%d",x,y); 
 2309              		.loc 1 695 0
 2310 0126 3B1D     		adds	r3, r7, #4
 2311 0128 1846     		mov	r0, r3
 2312 012a 0C49     		ldr	r1, .L122+20
 2313 012c 7A6B     		ldr	r2, [r7, #52]
 2314 012e 3B6B     		ldr	r3, [r7, #48]
 2315 0130 FFF7FEFF 		bl	sprintf
 696:.\main.c      ****     LCD_PosPrintString(0,0,outString);
 2316              		.loc 1 696 0
 2317 0134 0020     		movs	r0, #0
 2318 0136 0021     		movs	r1, #0
 2319 0138 FFF7FEFF 		bl	LCD_Position
 2320 013c 3B1D     		adds	r3, r7, #4
 2321 013e 1846     		mov	r0, r3
 2322 0140 FFF7FEFF 		bl	LCD_PrintString
 2323              	.L121:
 697:.\main.c      ****     while(1)
 698:.\main.c      ****     {
 699:.\main.c      ****     }
 2324              		.loc 1 699 0 discriminator 1
 2325 0144 FEE7     		b	.L121
 2326              	.L123:
 2327 0146 00BF     		.align	2
 2328              	.L122:
ARM GAS  C:\Users\xavieran\AppData\Local\Temp\cco2bJR3.s 			page 62


 2329 0148 00000000 		.word	compass_ready
 2330 014c 00000000 		.word	compass_x
 2331 0150 00000000 		.word	compass_y
 2332 0154 74010000 		.word	.LC27
 2333 0158 80010000 		.word	.LC28
 2334 015c 8C010000 		.word	.LC29
 2335              		.cfi_endproc
 2336              	.LFE66:
 2337              		.size	calibrate_compass, .-calibrate_compass
 2338              		.text
 2339              	.Letext0:
 2340              		.file 2 "c:\\program files (x86)\\cypress\\psoc creator\\3.2\\psoc creator\\import\\gnu\\arm\\4.8.
 2341              		.file 3 "c:\\program files (x86)\\cypress\\psoc creator\\3.2\\psoc creator\\import\\gnu\\arm\\4.8.
 2342              		.file 4 "Generated_Source\\PSoC5/cytypes.h"
 2343              		.file 5 "c:\\program files (x86)\\cypress\\psoc creator\\3.2\\psoc creator\\import\\gnu\\arm\\4.8.
 2344              		.file 6 "Generated_Source\\PSoC5/core_cm3.h"
 2345              		.file 7 "Generated_Source\\PSoC5/Camera.h"
 2346              		.file 8 "./my_camera_functions.h"
 2347              		.file 9 "<built-in>"
 2348              		.section	.debug_info,"",%progbits
 2349              	.Ldebug_info0:
 2350 0000 D3040000 		.4byte	0x4d3
 2351 0004 0400     		.2byte	0x4
 2352 0006 00000000 		.4byte	.Ldebug_abbrev0
 2353 000a 04       		.byte	0x4
 2354 000b 01       		.uleb128 0x1
 2355 000c 85000000 		.4byte	.LASF73
 2356 0010 01       		.byte	0x1
 2357 0011 45030000 		.4byte	.LASF74
 2358 0015 C6030000 		.4byte	.LASF75
 2359 0019 00000000 		.4byte	.Ldebug_ranges0+0
 2360 001d 00000000 		.4byte	0
 2361 0021 00000000 		.4byte	.Ldebug_line0
 2362 0025 02       		.uleb128 0x2
 2363 0026 01       		.byte	0x1
 2364 0027 06       		.byte	0x6
 2365 0028 ED010000 		.4byte	.LASF0
 2366 002c 02       		.uleb128 0x2
 2367 002d 01       		.byte	0x1
 2368 002e 08       		.byte	0x8
 2369 002f D2010000 		.4byte	.LASF1
 2370 0033 02       		.uleb128 0x2
 2371 0034 02       		.byte	0x2
 2372 0035 05       		.byte	0x5
 2373 0036 18000000 		.4byte	.LASF2
 2374 003a 02       		.uleb128 0x2
 2375 003b 02       		.byte	0x2
 2376 003c 07       		.byte	0x7
 2377 003d 53020000 		.4byte	.LASF3
 2378 0041 03       		.uleb128 0x3
 2379 0042 4E030000 		.4byte	.LASF9
 2380 0046 02       		.byte	0x2
 2381 0047 37       		.byte	0x37
 2382 0048 4C000000 		.4byte	0x4c
 2383 004c 02       		.uleb128 0x2
 2384 004d 04       		.byte	0x4
 2385 004e 05       		.byte	0x5
ARM GAS  C:\Users\xavieran\AppData\Local\Temp\cco2bJR3.s 			page 63


 2386 004f 6A010000 		.4byte	.LASF4
 2387 0053 02       		.uleb128 0x2
 2388 0054 04       		.byte	0x4
 2389 0055 07       		.byte	0x7
 2390 0056 EF020000 		.4byte	.LASF5
 2391 005a 02       		.uleb128 0x2
 2392 005b 08       		.byte	0x8
 2393 005c 05       		.byte	0x5
 2394 005d 34010000 		.4byte	.LASF6
 2395 0061 02       		.uleb128 0x2
 2396 0062 08       		.byte	0x8
 2397 0063 07       		.byte	0x7
 2398 0064 01020000 		.4byte	.LASF7
 2399 0068 04       		.uleb128 0x4
 2400 0069 04       		.byte	0x4
 2401 006a 05       		.byte	0x5
 2402 006b 696E7400 		.ascii	"int\000"
 2403 006f 02       		.uleb128 0x2
 2404 0070 04       		.byte	0x4
 2405 0071 07       		.byte	0x7
 2406 0072 2E020000 		.4byte	.LASF8
 2407 0076 03       		.uleb128 0x3
 2408 0077 F9010000 		.4byte	.LASF10
 2409 007b 03       		.byte	0x3
 2410 007c 41       		.byte	0x41
 2411 007d 41000000 		.4byte	0x41
 2412 0081 03       		.uleb128 0x3
 2413 0082 0E010000 		.4byte	.LASF11
 2414 0086 04       		.byte	0x4
 2415 0087 B3       		.byte	0xb3
 2416 0088 2C000000 		.4byte	0x2c
 2417 008c 03       		.uleb128 0x3
 2418 008d 01010000 		.4byte	.LASF12
 2419 0091 04       		.byte	0x4
 2420 0092 B4       		.byte	0xb4
 2421 0093 3A000000 		.4byte	0x3a
 2422 0097 03       		.uleb128 0x3
 2423 0098 08010000 		.4byte	.LASF13
 2424 009c 04       		.byte	0x4
 2425 009d B7       		.byte	0xb7
 2426 009e 33000000 		.4byte	0x33
 2427 00a2 03       		.uleb128 0x3
 2428 00a3 01030000 		.4byte	.LASF14
 2429 00a7 04       		.byte	0x4
 2430 00a8 B8       		.byte	0xb8
 2431 00a9 4C000000 		.4byte	0x4c
 2432 00ad 02       		.uleb128 0x2
 2433 00ae 04       		.byte	0x4
 2434 00af 04       		.byte	0x4
 2435 00b0 1B010000 		.4byte	.LASF15
 2436 00b4 02       		.uleb128 0x2
 2437 00b5 08       		.byte	0x8
 2438 00b6 04       		.byte	0x4
 2439 00b7 07030000 		.4byte	.LASF16
 2440 00bb 02       		.uleb128 0x2
 2441 00bc 01       		.byte	0x1
 2442 00bd 08       		.byte	0x8
ARM GAS  C:\Users\xavieran\AppData\Local\Temp\cco2bJR3.s 			page 64


 2443 00be 7F020000 		.4byte	.LASF17
 2444 00c2 05       		.uleb128 0x5
 2445 00c3 81000000 		.4byte	0x81
 2446 00c7 02       		.uleb128 0x2
 2447 00c8 04       		.byte	0x4
 2448 00c9 07       		.byte	0x7
 2449 00ca 6C030000 		.4byte	.LASF18
 2450 00ce 06       		.uleb128 0x6
 2451 00cf 04       		.byte	0x4
 2452 00d0 07       		.uleb128 0x7
 2453 00d1 04       		.byte	0x4
 2454 00d2 D6000000 		.4byte	0xd6
 2455 00d6 08       		.uleb128 0x8
 2456 00d7 BB000000 		.4byte	0xbb
 2457 00db 09       		.uleb128 0x9
 2458 00dc BB000000 		.4byte	0xbb
 2459 00e0 EB000000 		.4byte	0xeb
 2460 00e4 0A       		.uleb128 0xa
 2461 00e5 C7000000 		.4byte	0xc7
 2462 00e9 18       		.byte	0x18
 2463 00ea 00       		.byte	0
 2464 00eb 03       		.uleb128 0x3
 2465 00ec 75030000 		.4byte	.LASF19
 2466 00f0 05       		.byte	0x5
 2467 00f1 28       		.byte	0x28
 2468 00f2 F6000000 		.4byte	0xf6
 2469 00f6 0B       		.uleb128 0xb
 2470 00f7 73010000 		.4byte	.LASF76
 2471 00fb 04       		.byte	0x4
 2472 00fc 09       		.byte	0x9
 2473 00fd 00       		.byte	0
 2474 00fe 0D010000 		.4byte	0x10d
 2475 0102 0C       		.uleb128 0xc
 2476 0103 7A020000 		.4byte	.LASF77
 2477 0107 CE000000 		.4byte	0xce
 2478 010b 00       		.byte	0
 2479 010c 00       		.byte	0
 2480 010d 03       		.uleb128 0x3
 2481 010e 54000000 		.4byte	.LASF20
 2482 0112 05       		.byte	0x5
 2483 0113 62       		.byte	0x62
 2484 0114 EB000000 		.4byte	0xeb
 2485 0118 02       		.uleb128 0x2
 2486 0119 08       		.byte	0x8
 2487 011a 04       		.byte	0x4
 2488 011b B3010000 		.4byte	.LASF21
 2489 011f 0D       		.uleb128 0xd
 2490 0120 01       		.byte	0x1
 2491 0121 08       		.byte	0x8
 2492 0122 21       		.byte	0x21
 2493 0123 40010000 		.4byte	0x140
 2494 0127 0E       		.uleb128 0xe
 2495 0128 58030000 		.4byte	.LASF22
 2496 012c 00       		.sleb128 0
 2497 012d 0F       		.uleb128 0xf
 2498 012e 52454400 		.ascii	"RED\000"
 2499 0132 01       		.sleb128 1
ARM GAS  C:\Users\xavieran\AppData\Local\Temp\cco2bJR3.s 			page 65


 2500 0133 0E       		.uleb128 0xe
 2501 0134 C0030000 		.4byte	.LASF23
 2502 0138 02       		.sleb128 2
 2503 0139 0E       		.uleb128 0xe
 2504 013a C9020000 		.4byte	.LASF24
 2505 013e 03       		.sleb128 3
 2506 013f 00       		.byte	0
 2507 0140 10       		.uleb128 0x10
 2508 0141 64010000 		.4byte	.LASF78
 2509 0145 01       		.byte	0x1
 2510 0146 01       		.byte	0x1
 2511 0147 5E       		.byte	0x5e
 2512 0148 A7010000 		.4byte	0x1a7
 2513 014c 0E       		.uleb128 0xe
 2514 014d 41040000 		.4byte	.LASF25
 2515 0151 00       		.sleb128 0
 2516 0152 0E       		.uleb128 0xe
 2517 0153 21010000 		.4byte	.LASF26
 2518 0157 01       		.sleb128 1
 2519 0158 0E       		.uleb128 0xe
 2520 0159 00000000 		.4byte	.LASF27
 2521 015d 02       		.sleb128 2
 2522 015e 0E       		.uleb128 0xe
 2523 015f 18020000 		.4byte	.LASF28
 2524 0163 03       		.sleb128 3
 2525 0164 0E       		.uleb128 0xe
 2526 0165 87010000 		.4byte	.LASF29
 2527 0169 04       		.sleb128 4
 2528 016a 0E       		.uleb128 0xe
 2529 016b 39030000 		.4byte	.LASF30
 2530 016f 05       		.sleb128 5
 2531 0170 0E       		.uleb128 0xe
 2532 0171 21040000 		.4byte	.LASF31
 2533 0175 06       		.sleb128 6
 2534 0176 0E       		.uleb128 0xe
 2535 0177 CE020000 		.4byte	.LASF32
 2536 017b 07       		.sleb128 7
 2537 017c 0E       		.uleb128 0xe
 2538 017d 4E010000 		.4byte	.LASF33
 2539 0181 08       		.sleb128 8
 2540 0182 0E       		.uleb128 0xe
 2541 0183 A6020000 		.4byte	.LASF34
 2542 0187 09       		.sleb128 9
 2543 0188 0E       		.uleb128 0xe
 2544 0189 1B030000 		.4byte	.LASF35
 2545 018d 0A       		.sleb128 10
 2546 018e 0E       		.uleb128 0xe
 2547 018f A0030000 		.4byte	.LASF36
 2548 0193 0B       		.sleb128 11
 2549 0194 0E       		.uleb128 0xe
 2550 0195 B3030000 		.4byte	.LASF37
 2551 0199 0C       		.sleb128 12
 2552 019a 0E       		.uleb128 0xe
 2553 019b BF010000 		.4byte	.LASF38
 2554 019f 0D       		.sleb128 13
 2555 01a0 0E       		.uleb128 0xe
 2556 01a1 91010000 		.4byte	.LASF39
ARM GAS  C:\Users\xavieran\AppData\Local\Temp\cco2bJR3.s 			page 66


 2557 01a5 0E       		.sleb128 14
 2558 01a6 00       		.byte	0
 2559 01a7 11       		.uleb128 0x11
 2560 01a8 5D030000 		.4byte	.LASF44
 2561 01ac 01       		.byte	0x1
 2562 01ad 4A       		.byte	0x4a
 2563 01ae 00000000 		.4byte	.LFB63
 2564 01b2 4A000000 		.4byte	.LFE63-.LFB63
 2565 01b6 01       		.uleb128 0x1
 2566 01b7 9C       		.byte	0x9c
 2567 01b8 EA010000 		.4byte	0x1ea
 2568 01bc 12       		.uleb128 0x12
 2569 01bd 666D7400 		.ascii	"fmt\000"
 2570 01c1 01       		.byte	0x1
 2571 01c2 4A       		.byte	0x4a
 2572 01c3 D0000000 		.4byte	0xd0
 2573 01c7 02       		.uleb128 0x2
 2574 01c8 91       		.byte	0x91
 2575 01c9 70       		.sleb128 -16
 2576 01ca 13       		.uleb128 0x13
 2577 01cb 14       		.uleb128 0x14
 2578 01cc DA020000 		.4byte	.LASF40
 2579 01d0 01       		.byte	0x1
 2580 01d1 4D       		.byte	0x4d
 2581 01d2 EA010000 		.4byte	0x1ea
 2582 01d6 03       		.uleb128 0x3
 2583 01d7 91       		.byte	0x91
 2584 01d8 A87F     		.sleb128 -88
 2585 01da 14       		.uleb128 0x14
 2586 01db 41020000 		.4byte	.LASF41
 2587 01df 01       		.byte	0x1
 2588 01e0 4E       		.byte	0x4e
 2589 01e1 0D010000 		.4byte	0x10d
 2590 01e5 03       		.uleb128 0x3
 2591 01e6 91       		.byte	0x91
 2592 01e7 A47F     		.sleb128 -92
 2593 01e9 00       		.byte	0
 2594 01ea 09       		.uleb128 0x9
 2595 01eb BB000000 		.4byte	0xbb
 2596 01ef FA010000 		.4byte	0x1fa
 2597 01f3 0A       		.uleb128 0xa
 2598 01f4 C7000000 		.4byte	0xc7
 2599 01f8 3F       		.byte	0x3f
 2600 01f9 00       		.byte	0
 2601 01fa 15       		.uleb128 0x15
 2602 01fb 46020000 		.4byte	.LASF79
 2603 01ff 01       		.byte	0x1
 2604 0200 56       		.byte	0x56
 2605 0201 68000000 		.4byte	0x68
 2606 0205 00000000 		.4byte	.LFB64
 2607 0209 2E000000 		.4byte	.LFE64-.LFB64
 2608 020d 01       		.uleb128 0x1
 2609 020e 9C       		.byte	0x9c
 2610 020f 3E020000 		.4byte	0x23e
 2611 0213 16       		.uleb128 0x16
 2612 0214 2E010000 		.4byte	.LASF42
 2613 0218 01       		.byte	0x1
ARM GAS  C:\Users\xavieran\AppData\Local\Temp\cco2bJR3.s 			page 67


 2614 0219 56       		.byte	0x56
 2615 021a 68000000 		.4byte	0x68
 2616 021e 02       		.uleb128 0x2
 2617 021f 91       		.byte	0x91
 2618 0220 74       		.sleb128 -12
 2619 0221 12       		.uleb128 0x12
 2620 0222 76616C00 		.ascii	"val\000"
 2621 0226 01       		.byte	0x1
 2622 0227 56       		.byte	0x56
 2623 0228 68000000 		.4byte	0x68
 2624 022c 02       		.uleb128 0x2
 2625 022d 91       		.byte	0x91
 2626 022e 70       		.sleb128 -16
 2627 022f 16       		.uleb128 0x16
 2628 0230 0C000000 		.4byte	.LASF43
 2629 0234 01       		.byte	0x1
 2630 0235 56       		.byte	0x56
 2631 0236 68000000 		.4byte	0x68
 2632 023a 02       		.uleb128 0x2
 2633 023b 91       		.byte	0x91
 2634 023c 6C       		.sleb128 -20
 2635 023d 00       		.byte	0
 2636 023e 17       		.uleb128 0x17
 2637 023f 28000000 		.4byte	.LASF45
 2638 0243 01       		.byte	0x1
 2639 0244 70       		.byte	0x70
 2640 0245 68000000 		.4byte	0x68
 2641 0249 00000000 		.4byte	.LFB65
 2642 024d 940E0000 		.4byte	.LFE65-.LFB65
 2643 0251 01       		.uleb128 0x1
 2644 0252 9C       		.byte	0x9c
 2645 0253 9F030000 		.4byte	0x39f
 2646 0257 14       		.uleb128 0x14
 2647 0258 2F030000 		.4byte	.LASF46
 2648 025c 01       		.byte	0x1
 2649 025d B3       		.byte	0xb3
 2650 025e 8C000000 		.4byte	0x8c
 2651 0262 03       		.uleb128 0x3
 2652 0263 91       		.byte	0x91
 2653 0264 A67F     		.sleb128 -90
 2654 0266 14       		.uleb128 0x14
 2655 0267 12000000 		.4byte	.LASF47
 2656 026b 01       		.byte	0x1
 2657 026c B4       		.byte	0xb4
 2658 026d 8C000000 		.4byte	0x8c
 2659 0271 02       		.uleb128 0x2
 2660 0272 91       		.byte	0x91
 2661 0273 6E       		.sleb128 -18
 2662 0274 14       		.uleb128 0x14
 2663 0275 0E030000 		.4byte	.LASF48
 2664 0279 01       		.byte	0x1
 2665 027a B5       		.byte	0xb5
 2666 027b 68000000 		.4byte	0x68
 2667 027f 02       		.uleb128 0x2
 2668 0280 91       		.byte	0x91
 2669 0281 68       		.sleb128 -24
 2670 0282 14       		.uleb128 0x14
ARM GAS  C:\Users\xavieran\AppData\Local\Temp\cco2bJR3.s 			page 68


 2671 0283 7B000000 		.4byte	.LASF49
 2672 0287 01       		.byte	0x1
 2673 0288 B6       		.byte	0xb6
 2674 0289 68000000 		.4byte	0x68
 2675 028d 03       		.uleb128 0x3
 2676 028e 91       		.byte	0x91
 2677 028f B07F     		.sleb128 -80
 2678 0291 14       		.uleb128 0x14
 2679 0292 66020000 		.4byte	.LASF50
 2680 0296 01       		.byte	0x1
 2681 0297 B7       		.byte	0xb7
 2682 0298 68000000 		.4byte	0x68
 2683 029c 02       		.uleb128 0x2
 2684 029d 91       		.byte	0x91
 2685 029e 64       		.sleb128 -28
 2686 029f 14       		.uleb128 0x14
 2687 02a0 41000000 		.4byte	.LASF51
 2688 02a4 01       		.byte	0x1
 2689 02a5 B8       		.byte	0xb8
 2690 02a6 4C000000 		.4byte	0x4c
 2691 02aa 02       		.uleb128 0x2
 2692 02ab 91       		.byte	0x91
 2693 02ac 60       		.sleb128 -32
 2694 02ad 14       		.uleb128 0x14
 2695 02ae 2C040000 		.4byte	.LASF52
 2696 02b2 01       		.byte	0x1
 2697 02b3 B9       		.byte	0xb9
 2698 02b4 4C000000 		.4byte	0x4c
 2699 02b8 02       		.uleb128 0x2
 2700 02b9 91       		.byte	0x91
 2701 02ba 5C       		.sleb128 -36
 2702 02bb 14       		.uleb128 0x14
 2703 02bc E1020000 		.4byte	.LASF53
 2704 02c0 01       		.byte	0x1
 2705 02c1 BA       		.byte	0xba
 2706 02c2 68000000 		.4byte	0x68
 2707 02c6 02       		.uleb128 0x2
 2708 02c7 91       		.byte	0x91
 2709 02c8 58       		.sleb128 -40
 2710 02c9 18       		.uleb128 0x18
 2711 02ca C0000000 		.4byte	.LBB2
 2712 02ce BC0D0000 		.4byte	.LBE2-.LBB2
 2713 02d2 19       		.uleb128 0x19
 2714 02d3 6900     		.ascii	"i\000"
 2715 02d5 01       		.byte	0x1
 2716 02d6 D5       		.byte	0xd5
 2717 02d7 68000000 		.4byte	0x68
 2718 02db 02       		.uleb128 0x2
 2719 02dc 91       		.byte	0x91
 2720 02dd 54       		.sleb128 -44
 2721 02de 1A       		.uleb128 0x1a
 2722 02df 5C000000 		.4byte	.LASF54
 2723 02e3 01       		.byte	0x1
 2724 02e4 0101     		.2byte	0x101
 2725 02e6 68000000 		.4byte	0x68
 2726 02ea 02       		.uleb128 0x2
 2727 02eb 91       		.byte	0x91
ARM GAS  C:\Users\xavieran\AppData\Local\Temp\cco2bJR3.s 			page 69


 2728 02ec 50       		.sleb128 -48
 2729 02ed 1A       		.uleb128 0x1a
 2730 02ee 74020000 		.4byte	.LASF55
 2731 02f2 01       		.byte	0x1
 2732 02f3 F401     		.2byte	0x1f4
 2733 02f5 68000000 		.4byte	0x68
 2734 02f9 02       		.uleb128 0x2
 2735 02fa 91       		.byte	0x91
 2736 02fb 44       		.sleb128 -60
 2737 02fc 1A       		.uleb128 0x1a
 2738 02fd 37000000 		.4byte	.LASF56
 2739 0301 01       		.byte	0x1
 2740 0302 F501     		.2byte	0x1f5
 2741 0304 68000000 		.4byte	0x68
 2742 0308 02       		.uleb128 0x2
 2743 0309 91       		.byte	0x91
 2744 030a 40       		.sleb128 -64
 2745 030b 1B       		.uleb128 0x1b
 2746 030c A2020000 		.4byte	.LBB3
 2747 0310 0A010000 		.4byte	.LBE3-.LBB3
 2748 0314 39030000 		.4byte	0x339
 2749 0318 1A       		.uleb128 0x1a
 2750 0319 42010000 		.4byte	.LASF57
 2751 031d 01       		.byte	0x1
 2752 031e 0A01     		.2byte	0x10a
 2753 0320 68000000 		.4byte	0x68
 2754 0324 03       		.uleb128 0x3
 2755 0325 91       		.byte	0x91
 2756 0326 AC7F     		.sleb128 -84
 2757 0328 1A       		.uleb128 0x1a
 2758 0329 22000000 		.4byte	.LASF58
 2759 032d 01       		.byte	0x1
 2760 032e 1201     		.2byte	0x112
 2761 0330 68000000 		.4byte	0x68
 2762 0334 03       		.uleb128 0x3
 2763 0335 91       		.byte	0x91
 2764 0336 A87F     		.sleb128 -88
 2765 0338 00       		.byte	0
 2766 0339 1B       		.uleb128 0x1b
 2767 033a 06080000 		.4byte	.LBB4
 2768 033e 4A000000 		.4byte	.LBE4-.LBB4
 2769 0342 63030000 		.4byte	0x363
 2770 0346 1C       		.uleb128 0x1c
 2771 0347 6900     		.ascii	"i\000"
 2772 0349 01       		.byte	0x1
 2773 034a AA01     		.2byte	0x1aa
 2774 034c 68000000 		.4byte	0x68
 2775 0350 02       		.uleb128 0x2
 2776 0351 91       		.byte	0x91
 2777 0352 4C       		.sleb128 -52
 2778 0353 1A       		.uleb128 0x1a
 2779 0354 84030000 		.4byte	.LASF59
 2780 0358 01       		.byte	0x1
 2781 0359 AB01     		.2byte	0x1ab
 2782 035b 68000000 		.4byte	0x68
 2783 035f 02       		.uleb128 0x2
 2784 0360 91       		.byte	0x91
ARM GAS  C:\Users\xavieran\AppData\Local\Temp\cco2bJR3.s 			page 70


 2785 0361 48       		.sleb128 -56
 2786 0362 00       		.byte	0
 2787 0363 18       		.uleb128 0x18
 2788 0364 460B0000 		.4byte	.LBB5
 2789 0368 AA020000 		.4byte	.LBE5-.LBB5
 2790 036c 1A       		.uleb128 0x1a
 2791 036d 63030000 		.4byte	.LASF60
 2792 0371 01       		.byte	0x1
 2793 0372 1F02     		.2byte	0x21f
 2794 0374 68000000 		.4byte	0x68
 2795 0378 03       		.uleb128 0x3
 2796 0379 91       		.byte	0x91
 2797 037a BC7F     		.sleb128 -68
 2798 037c 1A       		.uleb128 0x1a
 2799 037d 74020000 		.4byte	.LASF55
 2800 0381 01       		.byte	0x1
 2801 0382 3602     		.2byte	0x236
 2802 0384 68000000 		.4byte	0x68
 2803 0388 03       		.uleb128 0x3
 2804 0389 91       		.byte	0x91
 2805 038a B87F     		.sleb128 -72
 2806 038c 1A       		.uleb128 0x1a
 2807 038d 37000000 		.4byte	.LASF56
 2808 0391 01       		.byte	0x1
 2809 0392 3702     		.2byte	0x237
 2810 0394 68000000 		.4byte	0x68
 2811 0398 03       		.uleb128 0x3
 2812 0399 91       		.byte	0x91
 2813 039a B47F     		.sleb128 -76
 2814 039c 00       		.byte	0
 2815 039d 00       		.byte	0
 2816 039e 00       		.byte	0
 2817 039f 1D       		.uleb128 0x1d
 2818 03a0 84020000 		.4byte	.LASF80
 2819 03a4 01       		.byte	0x1
 2820 03a5 9A02     		.2byte	0x29a
 2821 03a7 00000000 		.4byte	.LFB66
 2822 03ab 60010000 		.4byte	.LFE66-.LFB66
 2823 03af 01       		.uleb128 0x1
 2824 03b0 9C       		.byte	0x9c
 2825 03b1 19040000 		.4byte	0x419
 2826 03b5 1A       		.uleb128 0x1a
 2827 03b6 2D000000 		.4byte	.LASF61
 2828 03ba 01       		.byte	0x1
 2829 03bb 9C02     		.2byte	0x29c
 2830 03bd DB000000 		.4byte	0xdb
 2831 03c1 02       		.uleb128 0x2
 2832 03c2 91       		.byte	0x91
 2833 03c3 44       		.sleb128 -60
 2834 03c4 1C       		.uleb128 0x1c
 2835 03c5 61767800 		.ascii	"avx\000"
 2836 03c9 01       		.byte	0x1
 2837 03ca 9D02     		.2byte	0x29d
 2838 03cc AD000000 		.4byte	0xad
 2839 03d0 02       		.uleb128 0x2
 2840 03d1 91       		.byte	0x91
 2841 03d2 68       		.sleb128 -24
ARM GAS  C:\Users\xavieran\AppData\Local\Temp\cco2bJR3.s 			page 71


 2842 03d3 1C       		.uleb128 0x1c
 2843 03d4 61767900 		.ascii	"avy\000"
 2844 03d8 01       		.byte	0x1
 2845 03d9 9D02     		.2byte	0x29d
 2846 03db AD000000 		.4byte	0xad
 2847 03df 02       		.uleb128 0x2
 2848 03e0 91       		.byte	0x91
 2849 03e1 64       		.sleb128 -28
 2850 03e2 1A       		.uleb128 0x1a
 2851 03e3 14010000 		.4byte	.LASF62
 2852 03e7 01       		.byte	0x1
 2853 03e8 9E02     		.2byte	0x29e
 2854 03ea 68000000 		.4byte	0x68
 2855 03ee 02       		.uleb128 0x2
 2856 03ef 91       		.byte	0x91
 2857 03f0 60       		.sleb128 -32
 2858 03f1 1C       		.uleb128 0x1c
 2859 03f2 7800     		.ascii	"x\000"
 2860 03f4 01       		.byte	0x1
 2861 03f5 9F02     		.2byte	0x29f
 2862 03f7 A2000000 		.4byte	0xa2
 2863 03fb 02       		.uleb128 0x2
 2864 03fc 91       		.byte	0x91
 2865 03fd 74       		.sleb128 -12
 2866 03fe 1C       		.uleb128 0x1c
 2867 03ff 7900     		.ascii	"y\000"
 2868 0401 01       		.byte	0x1
 2869 0402 9F02     		.2byte	0x29f
 2870 0404 A2000000 		.4byte	0xa2
 2871 0408 02       		.uleb128 0x2
 2872 0409 91       		.byte	0x91
 2873 040a 70       		.sleb128 -16
 2874 040b 1C       		.uleb128 0x1c
 2875 040c 6900     		.ascii	"i\000"
 2876 040e 01       		.byte	0x1
 2877 040f A002     		.2byte	0x2a0
 2878 0411 68000000 		.4byte	0x68
 2879 0415 02       		.uleb128 0x2
 2880 0416 91       		.byte	0x91
 2881 0417 6C       		.sleb128 -20
 2882 0418 00       		.byte	0
 2883 0419 1E       		.uleb128 0x1e
 2884 041a E0010000 		.4byte	.LASF63
 2885 041e 06       		.byte	0x6
 2886 041f 2A06     		.2byte	0x62a
 2887 0421 25040000 		.4byte	0x425
 2888 0425 05       		.uleb128 0x5
 2889 0426 76000000 		.4byte	0x76
 2890 042a 09       		.uleb128 0x9
 2891 042b 81000000 		.4byte	0x81
 2892 042f 46040000 		.4byte	0x446
 2893 0433 0A       		.uleb128 0xa
 2894 0434 C7000000 		.4byte	0xc7
 2895 0438 8F       		.byte	0x8f
 2896 0439 0A       		.uleb128 0xa
 2897 043a C7000000 		.4byte	0xc7
 2898 043e 57       		.byte	0x57
ARM GAS  C:\Users\xavieran\AppData\Local\Temp\cco2bJR3.s 			page 72


 2899 043f 0A       		.uleb128 0xa
 2900 0440 C7000000 		.4byte	0xc7
 2901 0444 03       		.byte	0x3
 2902 0445 00       		.byte	0
 2903 0446 1F       		.uleb128 0x1f
 2904 0447 8D030000 		.4byte	.LASF64
 2905 044b 07       		.byte	0x7
 2906 044c 08       		.byte	0x8
 2907 044d 2A040000 		.4byte	0x42a
 2908 0451 05       		.uleb128 0x5
 2909 0452 03       		.byte	0x3
 2910 0453 00000000 		.4byte	Camera_framebuffer
 2911 0457 09       		.uleb128 0x9
 2912 0458 68000000 		.4byte	0x68
 2913 045c 67040000 		.4byte	0x467
 2914 0460 0A       		.uleb128 0xa
 2915 0461 C7000000 		.4byte	0xc7
 2916 0465 03       		.byte	0x3
 2917 0466 00       		.byte	0
 2918 0467 1F       		.uleb128 0x1f
 2919 0468 3B020000 		.4byte	.LASF65
 2920 046c 08       		.byte	0x8
 2921 046d 1F       		.byte	0x1f
 2922 046e 57040000 		.4byte	0x457
 2923 0472 05       		.uleb128 0x5
 2924 0473 03       		.byte	0x3
 2925 0474 00000000 		.4byte	stack
 2926 0478 20       		.uleb128 0x20
 2927 0479 9F010000 		.4byte	.LASF66
 2928 047d 01       		.byte	0x1
 2929 047e 31       		.byte	0x31
 2930 047f 81000000 		.4byte	0x81
 2931 0483 20       		.uleb128 0x20
 2932 0484 15040000 		.4byte	.LASF67
 2933 0488 01       		.byte	0x1
 2934 0489 32       		.byte	0x32
 2935 048a 81000000 		.4byte	0x81
 2936 048e 20       		.uleb128 0x20
 2937 048f 24020000 		.4byte	.LASF68
 2938 0493 01       		.byte	0x1
 2939 0494 38       		.byte	0x38
 2940 0495 97000000 		.4byte	0x97
 2941 0499 20       		.uleb128 0x20
 2942 049a 7D010000 		.4byte	.LASF69
 2943 049e 01       		.byte	0x1
 2944 049f 39       		.byte	0x39
 2945 04a0 97000000 		.4byte	0x97
 2946 04a4 20       		.uleb128 0x20
 2947 04a5 96020000 		.4byte	.LASF70
 2948 04a9 01       		.byte	0x1
 2949 04aa 3B       		.byte	0x3b
 2950 04ab 97000000 		.4byte	0x97
 2951 04af 20       		.uleb128 0x20
 2952 04b0 BB020000 		.4byte	.LASF71
 2953 04b4 01       		.byte	0x1
 2954 04b5 3C       		.byte	0x3c
 2955 04b6 C2000000 		.4byte	0xc2
ARM GAS  C:\Users\xavieran\AppData\Local\Temp\cco2bJR3.s 			page 73


 2956 04ba 20       		.uleb128 0x20
 2957 04bb 62000000 		.4byte	.LASF72
 2958 04bf 01       		.byte	0x1
 2959 04c0 3D       		.byte	0x3d
 2960 04c1 97000000 		.4byte	0x97
 2961 04c5 1F       		.uleb128 0x1f
 2962 04c6 2D000000 		.4byte	.LASF61
 2963 04ca 01       		.byte	0x1
 2964 04cb 42       		.byte	0x42
 2965 04cc DB000000 		.4byte	0xdb
 2966 04d0 05       		.uleb128 0x5
 2967 04d1 03       		.byte	0x3
 2968 04d2 00000000 		.4byte	outString
 2969 04d6 00       		.byte	0
 2970              		.section	.debug_abbrev,"",%progbits
 2971              	.Ldebug_abbrev0:
 2972 0000 01       		.uleb128 0x1
 2973 0001 11       		.uleb128 0x11
 2974 0002 01       		.byte	0x1
 2975 0003 25       		.uleb128 0x25
 2976 0004 0E       		.uleb128 0xe
 2977 0005 13       		.uleb128 0x13
 2978 0006 0B       		.uleb128 0xb
 2979 0007 03       		.uleb128 0x3
 2980 0008 0E       		.uleb128 0xe
 2981 0009 1B       		.uleb128 0x1b
 2982 000a 0E       		.uleb128 0xe
 2983 000b 55       		.uleb128 0x55
 2984 000c 17       		.uleb128 0x17
 2985 000d 11       		.uleb128 0x11
 2986 000e 01       		.uleb128 0x1
 2987 000f 10       		.uleb128 0x10
 2988 0010 17       		.uleb128 0x17
 2989 0011 00       		.byte	0
 2990 0012 00       		.byte	0
 2991 0013 02       		.uleb128 0x2
 2992 0014 24       		.uleb128 0x24
 2993 0015 00       		.byte	0
 2994 0016 0B       		.uleb128 0xb
 2995 0017 0B       		.uleb128 0xb
 2996 0018 3E       		.uleb128 0x3e
 2997 0019 0B       		.uleb128 0xb
 2998 001a 03       		.uleb128 0x3
 2999 001b 0E       		.uleb128 0xe
 3000 001c 00       		.byte	0
 3001 001d 00       		.byte	0
 3002 001e 03       		.uleb128 0x3
 3003 001f 16       		.uleb128 0x16
 3004 0020 00       		.byte	0
 3005 0021 03       		.uleb128 0x3
 3006 0022 0E       		.uleb128 0xe
 3007 0023 3A       		.uleb128 0x3a
 3008 0024 0B       		.uleb128 0xb
 3009 0025 3B       		.uleb128 0x3b
 3010 0026 0B       		.uleb128 0xb
 3011 0027 49       		.uleb128 0x49
 3012 0028 13       		.uleb128 0x13
ARM GAS  C:\Users\xavieran\AppData\Local\Temp\cco2bJR3.s 			page 74


 3013 0029 00       		.byte	0
 3014 002a 00       		.byte	0
 3015 002b 04       		.uleb128 0x4
 3016 002c 24       		.uleb128 0x24
 3017 002d 00       		.byte	0
 3018 002e 0B       		.uleb128 0xb
 3019 002f 0B       		.uleb128 0xb
 3020 0030 3E       		.uleb128 0x3e
 3021 0031 0B       		.uleb128 0xb
 3022 0032 03       		.uleb128 0x3
 3023 0033 08       		.uleb128 0x8
 3024 0034 00       		.byte	0
 3025 0035 00       		.byte	0
 3026 0036 05       		.uleb128 0x5
 3027 0037 35       		.uleb128 0x35
 3028 0038 00       		.byte	0
 3029 0039 49       		.uleb128 0x49
 3030 003a 13       		.uleb128 0x13
 3031 003b 00       		.byte	0
 3032 003c 00       		.byte	0
 3033 003d 06       		.uleb128 0x6
 3034 003e 0F       		.uleb128 0xf
 3035 003f 00       		.byte	0
 3036 0040 0B       		.uleb128 0xb
 3037 0041 0B       		.uleb128 0xb
 3038 0042 00       		.byte	0
 3039 0043 00       		.byte	0
 3040 0044 07       		.uleb128 0x7
 3041 0045 0F       		.uleb128 0xf
 3042 0046 00       		.byte	0
 3043 0047 0B       		.uleb128 0xb
 3044 0048 0B       		.uleb128 0xb
 3045 0049 49       		.uleb128 0x49
 3046 004a 13       		.uleb128 0x13
 3047 004b 00       		.byte	0
 3048 004c 00       		.byte	0
 3049 004d 08       		.uleb128 0x8
 3050 004e 26       		.uleb128 0x26
 3051 004f 00       		.byte	0
 3052 0050 49       		.uleb128 0x49
 3053 0051 13       		.uleb128 0x13
 3054 0052 00       		.byte	0
 3055 0053 00       		.byte	0
 3056 0054 09       		.uleb128 0x9
 3057 0055 01       		.uleb128 0x1
 3058 0056 01       		.byte	0x1
 3059 0057 49       		.uleb128 0x49
 3060 0058 13       		.uleb128 0x13
 3061 0059 01       		.uleb128 0x1
 3062 005a 13       		.uleb128 0x13
 3063 005b 00       		.byte	0
 3064 005c 00       		.byte	0
 3065 005d 0A       		.uleb128 0xa
 3066 005e 21       		.uleb128 0x21
 3067 005f 00       		.byte	0
 3068 0060 49       		.uleb128 0x49
 3069 0061 13       		.uleb128 0x13
ARM GAS  C:\Users\xavieran\AppData\Local\Temp\cco2bJR3.s 			page 75


 3070 0062 2F       		.uleb128 0x2f
 3071 0063 0B       		.uleb128 0xb
 3072 0064 00       		.byte	0
 3073 0065 00       		.byte	0
 3074 0066 0B       		.uleb128 0xb
 3075 0067 13       		.uleb128 0x13
 3076 0068 01       		.byte	0x1
 3077 0069 03       		.uleb128 0x3
 3078 006a 0E       		.uleb128 0xe
 3079 006b 0B       		.uleb128 0xb
 3080 006c 0B       		.uleb128 0xb
 3081 006d 3A       		.uleb128 0x3a
 3082 006e 0B       		.uleb128 0xb
 3083 006f 3B       		.uleb128 0x3b
 3084 0070 0B       		.uleb128 0xb
 3085 0071 01       		.uleb128 0x1
 3086 0072 13       		.uleb128 0x13
 3087 0073 00       		.byte	0
 3088 0074 00       		.byte	0
 3089 0075 0C       		.uleb128 0xc
 3090 0076 0D       		.uleb128 0xd
 3091 0077 00       		.byte	0
 3092 0078 03       		.uleb128 0x3
 3093 0079 0E       		.uleb128 0xe
 3094 007a 49       		.uleb128 0x49
 3095 007b 13       		.uleb128 0x13
 3096 007c 38       		.uleb128 0x38
 3097 007d 0B       		.uleb128 0xb
 3098 007e 34       		.uleb128 0x34
 3099 007f 19       		.uleb128 0x19
 3100 0080 00       		.byte	0
 3101 0081 00       		.byte	0
 3102 0082 0D       		.uleb128 0xd
 3103 0083 04       		.uleb128 0x4
 3104 0084 01       		.byte	0x1
 3105 0085 0B       		.uleb128 0xb
 3106 0086 0B       		.uleb128 0xb
 3107 0087 3A       		.uleb128 0x3a
 3108 0088 0B       		.uleb128 0xb
 3109 0089 3B       		.uleb128 0x3b
 3110 008a 0B       		.uleb128 0xb
 3111 008b 01       		.uleb128 0x1
 3112 008c 13       		.uleb128 0x13
 3113 008d 00       		.byte	0
 3114 008e 00       		.byte	0
 3115 008f 0E       		.uleb128 0xe
 3116 0090 28       		.uleb128 0x28
 3117 0091 00       		.byte	0
 3118 0092 03       		.uleb128 0x3
 3119 0093 0E       		.uleb128 0xe
 3120 0094 1C       		.uleb128 0x1c
 3121 0095 0D       		.uleb128 0xd
 3122 0096 00       		.byte	0
 3123 0097 00       		.byte	0
 3124 0098 0F       		.uleb128 0xf
 3125 0099 28       		.uleb128 0x28
 3126 009a 00       		.byte	0
ARM GAS  C:\Users\xavieran\AppData\Local\Temp\cco2bJR3.s 			page 76


 3127 009b 03       		.uleb128 0x3
 3128 009c 08       		.uleb128 0x8
 3129 009d 1C       		.uleb128 0x1c
 3130 009e 0D       		.uleb128 0xd
 3131 009f 00       		.byte	0
 3132 00a0 00       		.byte	0
 3133 00a1 10       		.uleb128 0x10
 3134 00a2 04       		.uleb128 0x4
 3135 00a3 01       		.byte	0x1
 3136 00a4 03       		.uleb128 0x3
 3137 00a5 0E       		.uleb128 0xe
 3138 00a6 0B       		.uleb128 0xb
 3139 00a7 0B       		.uleb128 0xb
 3140 00a8 3A       		.uleb128 0x3a
 3141 00a9 0B       		.uleb128 0xb
 3142 00aa 3B       		.uleb128 0x3b
 3143 00ab 0B       		.uleb128 0xb
 3144 00ac 01       		.uleb128 0x1
 3145 00ad 13       		.uleb128 0x13
 3146 00ae 00       		.byte	0
 3147 00af 00       		.byte	0
 3148 00b0 11       		.uleb128 0x11
 3149 00b1 2E       		.uleb128 0x2e
 3150 00b2 01       		.byte	0x1
 3151 00b3 3F       		.uleb128 0x3f
 3152 00b4 19       		.uleb128 0x19
 3153 00b5 03       		.uleb128 0x3
 3154 00b6 0E       		.uleb128 0xe
 3155 00b7 3A       		.uleb128 0x3a
 3156 00b8 0B       		.uleb128 0xb
 3157 00b9 3B       		.uleb128 0x3b
 3158 00ba 0B       		.uleb128 0xb
 3159 00bb 27       		.uleb128 0x27
 3160 00bc 19       		.uleb128 0x19
 3161 00bd 11       		.uleb128 0x11
 3162 00be 01       		.uleb128 0x1
 3163 00bf 12       		.uleb128 0x12
 3164 00c0 06       		.uleb128 0x6
 3165 00c1 40       		.uleb128 0x40
 3166 00c2 18       		.uleb128 0x18
 3167 00c3 9642     		.uleb128 0x2116
 3168 00c5 19       		.uleb128 0x19
 3169 00c6 01       		.uleb128 0x1
 3170 00c7 13       		.uleb128 0x13
 3171 00c8 00       		.byte	0
 3172 00c9 00       		.byte	0
 3173 00ca 12       		.uleb128 0x12
 3174 00cb 05       		.uleb128 0x5
 3175 00cc 00       		.byte	0
 3176 00cd 03       		.uleb128 0x3
 3177 00ce 08       		.uleb128 0x8
 3178 00cf 3A       		.uleb128 0x3a
 3179 00d0 0B       		.uleb128 0xb
 3180 00d1 3B       		.uleb128 0x3b
 3181 00d2 0B       		.uleb128 0xb
 3182 00d3 49       		.uleb128 0x49
 3183 00d4 13       		.uleb128 0x13
ARM GAS  C:\Users\xavieran\AppData\Local\Temp\cco2bJR3.s 			page 77


 3184 00d5 02       		.uleb128 0x2
 3185 00d6 18       		.uleb128 0x18
 3186 00d7 00       		.byte	0
 3187 00d8 00       		.byte	0
 3188 00d9 13       		.uleb128 0x13
 3189 00da 18       		.uleb128 0x18
 3190 00db 00       		.byte	0
 3191 00dc 00       		.byte	0
 3192 00dd 00       		.byte	0
 3193 00de 14       		.uleb128 0x14
 3194 00df 34       		.uleb128 0x34
 3195 00e0 00       		.byte	0
 3196 00e1 03       		.uleb128 0x3
 3197 00e2 0E       		.uleb128 0xe
 3198 00e3 3A       		.uleb128 0x3a
 3199 00e4 0B       		.uleb128 0xb
 3200 00e5 3B       		.uleb128 0x3b
 3201 00e6 0B       		.uleb128 0xb
 3202 00e7 49       		.uleb128 0x49
 3203 00e8 13       		.uleb128 0x13
 3204 00e9 02       		.uleb128 0x2
 3205 00ea 18       		.uleb128 0x18
 3206 00eb 00       		.byte	0
 3207 00ec 00       		.byte	0
 3208 00ed 15       		.uleb128 0x15
 3209 00ee 2E       		.uleb128 0x2e
 3210 00ef 01       		.byte	0x1
 3211 00f0 3F       		.uleb128 0x3f
 3212 00f1 19       		.uleb128 0x19
 3213 00f2 03       		.uleb128 0x3
 3214 00f3 0E       		.uleb128 0xe
 3215 00f4 3A       		.uleb128 0x3a
 3216 00f5 0B       		.uleb128 0xb
 3217 00f6 3B       		.uleb128 0x3b
 3218 00f7 0B       		.uleb128 0xb
 3219 00f8 27       		.uleb128 0x27
 3220 00f9 19       		.uleb128 0x19
 3221 00fa 49       		.uleb128 0x49
 3222 00fb 13       		.uleb128 0x13
 3223 00fc 11       		.uleb128 0x11
 3224 00fd 01       		.uleb128 0x1
 3225 00fe 12       		.uleb128 0x12
 3226 00ff 06       		.uleb128 0x6
 3227 0100 40       		.uleb128 0x40
 3228 0101 18       		.uleb128 0x18
 3229 0102 9742     		.uleb128 0x2117
 3230 0104 19       		.uleb128 0x19
 3231 0105 01       		.uleb128 0x1
 3232 0106 13       		.uleb128 0x13
 3233 0107 00       		.byte	0
 3234 0108 00       		.byte	0
 3235 0109 16       		.uleb128 0x16
 3236 010a 05       		.uleb128 0x5
 3237 010b 00       		.byte	0
 3238 010c 03       		.uleb128 0x3
 3239 010d 0E       		.uleb128 0xe
 3240 010e 3A       		.uleb128 0x3a
ARM GAS  C:\Users\xavieran\AppData\Local\Temp\cco2bJR3.s 			page 78


 3241 010f 0B       		.uleb128 0xb
 3242 0110 3B       		.uleb128 0x3b
 3243 0111 0B       		.uleb128 0xb
 3244 0112 49       		.uleb128 0x49
 3245 0113 13       		.uleb128 0x13
 3246 0114 02       		.uleb128 0x2
 3247 0115 18       		.uleb128 0x18
 3248 0116 00       		.byte	0
 3249 0117 00       		.byte	0
 3250 0118 17       		.uleb128 0x17
 3251 0119 2E       		.uleb128 0x2e
 3252 011a 01       		.byte	0x1
 3253 011b 3F       		.uleb128 0x3f
 3254 011c 19       		.uleb128 0x19
 3255 011d 03       		.uleb128 0x3
 3256 011e 0E       		.uleb128 0xe
 3257 011f 3A       		.uleb128 0x3a
 3258 0120 0B       		.uleb128 0xb
 3259 0121 3B       		.uleb128 0x3b
 3260 0122 0B       		.uleb128 0xb
 3261 0123 49       		.uleb128 0x49
 3262 0124 13       		.uleb128 0x13
 3263 0125 11       		.uleb128 0x11
 3264 0126 01       		.uleb128 0x1
 3265 0127 12       		.uleb128 0x12
 3266 0128 06       		.uleb128 0x6
 3267 0129 40       		.uleb128 0x40
 3268 012a 18       		.uleb128 0x18
 3269 012b 9642     		.uleb128 0x2116
 3270 012d 19       		.uleb128 0x19
 3271 012e 01       		.uleb128 0x1
 3272 012f 13       		.uleb128 0x13
 3273 0130 00       		.byte	0
 3274 0131 00       		.byte	0
 3275 0132 18       		.uleb128 0x18
 3276 0133 0B       		.uleb128 0xb
 3277 0134 01       		.byte	0x1
 3278 0135 11       		.uleb128 0x11
 3279 0136 01       		.uleb128 0x1
 3280 0137 12       		.uleb128 0x12
 3281 0138 06       		.uleb128 0x6
 3282 0139 00       		.byte	0
 3283 013a 00       		.byte	0
 3284 013b 19       		.uleb128 0x19
 3285 013c 34       		.uleb128 0x34
 3286 013d 00       		.byte	0
 3287 013e 03       		.uleb128 0x3
 3288 013f 08       		.uleb128 0x8
 3289 0140 3A       		.uleb128 0x3a
 3290 0141 0B       		.uleb128 0xb
 3291 0142 3B       		.uleb128 0x3b
 3292 0143 0B       		.uleb128 0xb
 3293 0144 49       		.uleb128 0x49
 3294 0145 13       		.uleb128 0x13
 3295 0146 02       		.uleb128 0x2
 3296 0147 18       		.uleb128 0x18
 3297 0148 00       		.byte	0
ARM GAS  C:\Users\xavieran\AppData\Local\Temp\cco2bJR3.s 			page 79


 3298 0149 00       		.byte	0
 3299 014a 1A       		.uleb128 0x1a
 3300 014b 34       		.uleb128 0x34
 3301 014c 00       		.byte	0
 3302 014d 03       		.uleb128 0x3
 3303 014e 0E       		.uleb128 0xe
 3304 014f 3A       		.uleb128 0x3a
 3305 0150 0B       		.uleb128 0xb
 3306 0151 3B       		.uleb128 0x3b
 3307 0152 05       		.uleb128 0x5
 3308 0153 49       		.uleb128 0x49
 3309 0154 13       		.uleb128 0x13
 3310 0155 02       		.uleb128 0x2
 3311 0156 18       		.uleb128 0x18
 3312 0157 00       		.byte	0
 3313 0158 00       		.byte	0
 3314 0159 1B       		.uleb128 0x1b
 3315 015a 0B       		.uleb128 0xb
 3316 015b 01       		.byte	0x1
 3317 015c 11       		.uleb128 0x11
 3318 015d 01       		.uleb128 0x1
 3319 015e 12       		.uleb128 0x12
 3320 015f 06       		.uleb128 0x6
 3321 0160 01       		.uleb128 0x1
 3322 0161 13       		.uleb128 0x13
 3323 0162 00       		.byte	0
 3324 0163 00       		.byte	0
 3325 0164 1C       		.uleb128 0x1c
 3326 0165 34       		.uleb128 0x34
 3327 0166 00       		.byte	0
 3328 0167 03       		.uleb128 0x3
 3329 0168 08       		.uleb128 0x8
 3330 0169 3A       		.uleb128 0x3a
 3331 016a 0B       		.uleb128 0xb
 3332 016b 3B       		.uleb128 0x3b
 3333 016c 05       		.uleb128 0x5
 3334 016d 49       		.uleb128 0x49
 3335 016e 13       		.uleb128 0x13
 3336 016f 02       		.uleb128 0x2
 3337 0170 18       		.uleb128 0x18
 3338 0171 00       		.byte	0
 3339 0172 00       		.byte	0
 3340 0173 1D       		.uleb128 0x1d
 3341 0174 2E       		.uleb128 0x2e
 3342 0175 01       		.byte	0x1
 3343 0176 3F       		.uleb128 0x3f
 3344 0177 19       		.uleb128 0x19
 3345 0178 03       		.uleb128 0x3
 3346 0179 0E       		.uleb128 0xe
 3347 017a 3A       		.uleb128 0x3a
 3348 017b 0B       		.uleb128 0xb
 3349 017c 3B       		.uleb128 0x3b
 3350 017d 05       		.uleb128 0x5
 3351 017e 11       		.uleb128 0x11
 3352 017f 01       		.uleb128 0x1
 3353 0180 12       		.uleb128 0x12
 3354 0181 06       		.uleb128 0x6
ARM GAS  C:\Users\xavieran\AppData\Local\Temp\cco2bJR3.s 			page 80


 3355 0182 40       		.uleb128 0x40
 3356 0183 18       		.uleb128 0x18
 3357 0184 9642     		.uleb128 0x2116
 3358 0186 19       		.uleb128 0x19
 3359 0187 01       		.uleb128 0x1
 3360 0188 13       		.uleb128 0x13
 3361 0189 00       		.byte	0
 3362 018a 00       		.byte	0
 3363 018b 1E       		.uleb128 0x1e
 3364 018c 34       		.uleb128 0x34
 3365 018d 00       		.byte	0
 3366 018e 03       		.uleb128 0x3
 3367 018f 0E       		.uleb128 0xe
 3368 0190 3A       		.uleb128 0x3a
 3369 0191 0B       		.uleb128 0xb
 3370 0192 3B       		.uleb128 0x3b
 3371 0193 05       		.uleb128 0x5
 3372 0194 49       		.uleb128 0x49
 3373 0195 13       		.uleb128 0x13
 3374 0196 3F       		.uleb128 0x3f
 3375 0197 19       		.uleb128 0x19
 3376 0198 3C       		.uleb128 0x3c
 3377 0199 19       		.uleb128 0x19
 3378 019a 00       		.byte	0
 3379 019b 00       		.byte	0
 3380 019c 1F       		.uleb128 0x1f
 3381 019d 34       		.uleb128 0x34
 3382 019e 00       		.byte	0
 3383 019f 03       		.uleb128 0x3
 3384 01a0 0E       		.uleb128 0xe
 3385 01a1 3A       		.uleb128 0x3a
 3386 01a2 0B       		.uleb128 0xb
 3387 01a3 3B       		.uleb128 0x3b
 3388 01a4 0B       		.uleb128 0xb
 3389 01a5 49       		.uleb128 0x49
 3390 01a6 13       		.uleb128 0x13
 3391 01a7 3F       		.uleb128 0x3f
 3392 01a8 19       		.uleb128 0x19
 3393 01a9 02       		.uleb128 0x2
 3394 01aa 18       		.uleb128 0x18
 3395 01ab 00       		.byte	0
 3396 01ac 00       		.byte	0
 3397 01ad 20       		.uleb128 0x20
 3398 01ae 34       		.uleb128 0x34
 3399 01af 00       		.byte	0
 3400 01b0 03       		.uleb128 0x3
 3401 01b1 0E       		.uleb128 0xe
 3402 01b2 3A       		.uleb128 0x3a
 3403 01b3 0B       		.uleb128 0xb
 3404 01b4 3B       		.uleb128 0x3b
 3405 01b5 0B       		.uleb128 0xb
 3406 01b6 49       		.uleb128 0x49
 3407 01b7 13       		.uleb128 0x13
 3408 01b8 3F       		.uleb128 0x3f
 3409 01b9 19       		.uleb128 0x19
 3410 01ba 3C       		.uleb128 0x3c
 3411 01bb 19       		.uleb128 0x19
ARM GAS  C:\Users\xavieran\AppData\Local\Temp\cco2bJR3.s 			page 81


 3412 01bc 00       		.byte	0
 3413 01bd 00       		.byte	0
 3414 01be 00       		.byte	0
 3415              		.section	.debug_aranges,"",%progbits
 3416 0000 34000000 		.4byte	0x34
 3417 0004 0200     		.2byte	0x2
 3418 0006 00000000 		.4byte	.Ldebug_info0
 3419 000a 04       		.byte	0x4
 3420 000b 00       		.byte	0
 3421 000c 0000     		.2byte	0
 3422 000e 0000     		.2byte	0
 3423 0010 00000000 		.4byte	.LFB63
 3424 0014 4A000000 		.4byte	.LFE63-.LFB63
 3425 0018 00000000 		.4byte	.LFB64
 3426 001c 2E000000 		.4byte	.LFE64-.LFB64
 3427 0020 00000000 		.4byte	.LFB65
 3428 0024 940E0000 		.4byte	.LFE65-.LFB65
 3429 0028 00000000 		.4byte	.LFB66
 3430 002c 60010000 		.4byte	.LFE66-.LFB66
 3431 0030 00000000 		.4byte	0
 3432 0034 00000000 		.4byte	0
 3433              		.section	.debug_ranges,"",%progbits
 3434              	.Ldebug_ranges0:
 3435 0000 00000000 		.4byte	.LFB63
 3436 0004 4A000000 		.4byte	.LFE63
 3437 0008 00000000 		.4byte	.LFB64
 3438 000c 2E000000 		.4byte	.LFE64
 3439 0010 00000000 		.4byte	.LFB65
 3440 0014 940E0000 		.4byte	.LFE65
 3441 0018 00000000 		.4byte	.LFB66
 3442 001c 60010000 		.4byte	.LFE66
 3443 0020 00000000 		.4byte	0
 3444 0024 00000000 		.4byte	0
 3445              		.section	.debug_line,"",%progbits
 3446              	.Ldebug_line0:
 3447 0000 B9040000 		.section	.debug_str,"MS",%progbits,1
 3447      02000002 
 3447      00000201 
 3447      FB0E0D00 
 3447      01010101 
 3448              	.LASF27:
 3449 0000 535F4C45 		.ascii	"S_LEFT_BASE\000"
 3449      46545F42 
 3449      41534500 
 3450              	.LASF43:
 3451 000c 75707065 		.ascii	"upper\000"
 3451      7200
 3452              	.LASF47:
 3453 0012 73746174 		.ascii	"state\000"
 3453      6500
 3454              	.LASF2:
 3455 0018 73686F72 		.ascii	"short int\000"
 3455      7420696E 
 3455      7400
 3456              	.LASF58:
 3457 0022 636F6C6F 		.ascii	"color\000"
 3457      7200
ARM GAS  C:\Users\xavieran\AppData\Local\Temp\cco2bJR3.s 			page 82


 3458              	.LASF45:
 3459 0028 6D61696E 		.ascii	"main\000"
 3459      00
 3460              	.LASF61:
 3461 002d 6F757453 		.ascii	"outString\000"
 3461      7472696E 
 3461      6700
 3462              	.LASF56:
 3463 0037 73746163 		.ascii	"stackable\000"
 3463      6B61626C 
 3463      6500
 3464              	.LASF51:
 3465 0041 73746172 		.ascii	"start_time_find100\000"
 3465      745F7469 
 3465      6D655F66 
 3465      696E6431 
 3465      303000
 3466              	.LASF20:
 3467 0054 76615F6C 		.ascii	"va_list\000"
 3467      69737400 
 3468              	.LASF54:
 3469 005c 7075636B 		.ascii	"pucks\000"
 3469      7300
 3470              	.LASF72:
 3471 0062 6F726967 		.ascii	"original_compass_heading\000"
 3471      696E616C 
 3471      5F636F6D 
 3471      70617373 
 3471      5F686561 
 3472              	.LASF49:
 3473 007b 6E656172 		.ascii	"near_base\000"
 3473      5F626173 
 3473      6500
 3474              	.LASF73:
 3475 0085 474E5520 		.ascii	"GNU C 4.8.4 20140526 (release) [ARM/embedded-4_8-br"
 3475      4320342E 
 3475      382E3420 
 3475      32303134 
 3475      30353236 
 3476 00b8 616E6368 		.ascii	"anch revision 211358] -mcpu=cortex-m3 -mthumb -g -O"
 3476      20726576 
 3476      6973696F 
 3476      6E203231 
 3476      31333538 
 3477 00eb 30202D66 		.ascii	"0 -ffunction-sections\000"
 3477      66756E63 
 3477      74696F6E 
 3477      2D736563 
 3477      74696F6E 
 3478              	.LASF12:
 3479 0101 75696E74 		.ascii	"uint16\000"
 3479      313600
 3480              	.LASF13:
 3481 0108 696E7431 		.ascii	"int16\000"
 3481      3600
 3482              	.LASF11:
 3483 010e 75696E74 		.ascii	"uint8\000"
ARM GAS  C:\Users\xavieran\AppData\Local\Temp\cco2bJR3.s 			page 83


 3483      3800
 3484              	.LASF62:
 3485 0114 74726961 		.ascii	"trials\000"
 3485      6C7300
 3486              	.LASF15:
 3487 011b 666C6F61 		.ascii	"float\000"
 3487      7400
 3488              	.LASF26:
 3489 0121 535F4C45 		.ascii	"S_LEAVE_BASE\000"
 3489      4156455F 
 3489      42415345 
 3489      00
 3490              	.LASF42:
 3491 012e 6C6F7765 		.ascii	"lower\000"
 3491      7200
 3492              	.LASF6:
 3493 0134 6C6F6E67 		.ascii	"long long int\000"
 3493      206C6F6E 
 3493      6720696E 
 3493      7400
 3494              	.LASF57:
 3495 0142 6F6C645F 		.ascii	"old_heading\000"
 3495      68656164 
 3495      696E6700 
 3496              	.LASF33:
 3497 014e 535F474F 		.ascii	"S_GOING_HOME_CHECK_IR\000"
 3497      494E475F 
 3497      484F4D45 
 3497      5F434845 
 3497      434B5F49 
 3498              	.LASF78:
 3499 0164 53746174 		.ascii	"State\000"
 3499      6500
 3500              	.LASF4:
 3501 016a 6C6F6E67 		.ascii	"long int\000"
 3501      20696E74 
 3501      00
 3502              	.LASF76:
 3503 0173 5F5F7661 		.ascii	"__va_list\000"
 3503      5F6C6973 
 3503      7400
 3504              	.LASF69:
 3505 017d 636F6D70 		.ascii	"compass_y\000"
 3505      6173735F 
 3505      7900
 3506              	.LASF29:
 3507 0187 535F474F 		.ascii	"S_GO_HOME\000"
 3507      5F484F4D 
 3507      4500
 3508              	.LASF39:
 3509 0191 535F4752 		.ascii	"S_GRAB_BEACON\000"
 3509      41425F42 
 3509      4541434F 
 3509      4E00
 3510              	.LASF66:
 3511 019f 48454144 		.ascii	"HEADING_ERROR_LIMIT\000"
 3511      494E475F 
ARM GAS  C:\Users\xavieran\AppData\Local\Temp\cco2bJR3.s 			page 84


 3511      4552524F 
 3511      525F4C49 
 3511      4D495400 
 3512              	.LASF21:
 3513 01b3 6C6F6E67 		.ascii	"long double\000"
 3513      20646F75 
 3513      626C6500 
 3514              	.LASF38:
 3515 01bf 535F4E45 		.ascii	"S_NEAR_HOME_SAW_30\000"
 3515      41525F48 
 3515      4F4D455F 
 3515      5341575F 
 3515      333000
 3516              	.LASF1:
 3517 01d2 756E7369 		.ascii	"unsigned char\000"
 3517      676E6564 
 3517      20636861 
 3517      7200
 3518              	.LASF63:
 3519 01e0 49544D5F 		.ascii	"ITM_RxBuffer\000"
 3519      52784275 
 3519      66666572 
 3519      00
 3520              	.LASF0:
 3521 01ed 7369676E 		.ascii	"signed char\000"
 3521      65642063 
 3521      68617200 
 3522              	.LASF10:
 3523 01f9 696E7433 		.ascii	"int32_t\000"
 3523      325F7400 
 3524              	.LASF7:
 3525 0201 6C6F6E67 		.ascii	"long long unsigned int\000"
 3525      206C6F6E 
 3525      6720756E 
 3525      7369676E 
 3525      65642069 
 3526              	.LASF28:
 3527 0218 535F4649 		.ascii	"S_FIND_PUCK\000"
 3527      4E445F50 
 3527      55434B00 
 3528              	.LASF68:
 3529 0224 636F6D70 		.ascii	"compass_x\000"
 3529      6173735F 
 3529      7800
 3530              	.LASF8:
 3531 022e 756E7369 		.ascii	"unsigned int\000"
 3531      676E6564 
 3531      20696E74 
 3531      00
 3532              	.LASF65:
 3533 023b 73746163 		.ascii	"stack\000"
 3533      6B00
 3534              	.LASF41:
 3535 0241 61726773 		.ascii	"args\000"
 3535      00
 3536              	.LASF79:
 3537 0246 77697468 		.ascii	"within_range\000"
ARM GAS  C:\Users\xavieran\AppData\Local\Temp\cco2bJR3.s 			page 85


 3537      696E5F72 
 3537      616E6765 
 3537      00
 3538              	.LASF3:
 3539 0253 73686F72 		.ascii	"short unsigned int\000"
 3539      7420756E 
 3539      7369676E 
 3539      65642069 
 3539      6E7400
 3540              	.LASF50:
 3541 0266 63757272 		.ascii	"current_color\000"
 3541      656E745F 
 3541      636F6C6F 
 3541      7200
 3542              	.LASF55:
 3543 0274 756C7472 		.ascii	"ultra\000"
 3543      6100
 3544              	.LASF77:
 3545 027a 5F5F6170 		.ascii	"__ap\000"
 3545      00
 3546              	.LASF17:
 3547 027f 63686172 		.ascii	"char\000"
 3547      00
 3548              	.LASF80:
 3549 0284 63616C69 		.ascii	"calibrate_compass\000"
 3549      62726174 
 3549      655F636F 
 3549      6D706173 
 3549      7300
 3550              	.LASF70:
 3551 0296 636F6D70 		.ascii	"compass_heading\000"
 3551      6173735F 
 3551      68656164 
 3551      696E6700 
 3552              	.LASF34:
 3553 02a6 535F4E45 		.ascii	"S_NEAR_HOME_FIND_100\000"
 3553      41525F48 
 3553      4F4D455F 
 3553      46494E44 
 3553      5F313030 
 3554              	.LASF71:
 3555 02bb 636F6D70 		.ascii	"compass_ready\000"
 3555      6173735F 
 3555      72656164 
 3555      7900
 3556              	.LASF24:
 3557 02c9 424C5545 		.ascii	"BLUE\000"
 3557      00
 3558              	.LASF32:
 3559 02ce 535F494E 		.ascii	"S_IN_CORNER\000"
 3559      5F434F52 
 3559      4E455200 
 3560              	.LASF40:
 3561 02da 62756666 		.ascii	"buffer\000"
 3561      657200
 3562              	.LASF53:
 3563 02e1 6E6F5F70 		.ascii	"no_puck_state\000"
ARM GAS  C:\Users\xavieran\AppData\Local\Temp\cco2bJR3.s 			page 86


 3563      75636B5F 
 3563      73746174 
 3563      6500
 3564              	.LASF5:
 3565 02ef 6C6F6E67 		.ascii	"long unsigned int\000"
 3565      20756E73 
 3565      69676E65 
 3565      6420696E 
 3565      7400
 3566              	.LASF14:
 3567 0301 696E7433 		.ascii	"int32\000"
 3567      3200
 3568              	.LASF16:
 3569 0307 646F7562 		.ascii	"double\000"
 3569      6C6500
 3570              	.LASF48:
 3571 030e 7075636B 		.ascii	"pucks_gotten\000"
 3571      735F676F 
 3571      7474656E 
 3571      00
 3572              	.LASF35:
 3573 031b 535F4E45 		.ascii	"S_NEAR_HOME_FIND_60\000"
 3573      41525F48 
 3573      4F4D455F 
 3573      46494E44 
 3573      5F363000 
 3574              	.LASF46:
 3575 032f 69725F72 		.ascii	"ir_result\000"
 3575      6573756C 
 3575      7400
 3576              	.LASF30:
 3577 0339 535F4641 		.ascii	"S_FACE_HOME\000"
 3577      43455F48 
 3577      4F4D4500 
 3578              	.LASF74:
 3579 0345 2E5C6D61 		.ascii	".\\main.c\000"
 3579      696E2E63 
 3579      00
 3580              	.LASF9:
 3581 034e 5F5F696E 		.ascii	"__int32_t\000"
 3581      7433325F 
 3581      7400
 3582              	.LASF22:
 3583 0358 4E4F4E45 		.ascii	"NONE\000"
 3583      00
 3584              	.LASF44:
 3585 035d 7072696E 		.ascii	"print\000"
 3585      7400
 3586              	.LASF60:
 3587 0363 6F6E5F73 		.ascii	"on_stack\000"
 3587      7461636B 
 3587      00
 3588              	.LASF18:
 3589 036c 73697A65 		.ascii	"sizetype\000"
 3589      74797065 
 3589      00
 3590              	.LASF19:
ARM GAS  C:\Users\xavieran\AppData\Local\Temp\cco2bJR3.s 			page 87


 3591 0375 5F5F676E 		.ascii	"__gnuc_va_list\000"
 3591      75635F76 
 3591      615F6C69 
 3591      737400
 3592              	.LASF59:
 3593 0384 676F6F64 		.ascii	"good_val\000"
 3593      5F76616C 
 3593      00
 3594              	.LASF64:
 3595 038d 43616D65 		.ascii	"Camera_framebuffer\000"
 3595      72615F66 
 3595      72616D65 
 3595      62756666 
 3595      657200
 3596              	.LASF36:
 3597 03a0 535F4345 		.ascii	"S_CENTERED_ON_BASE\000"
 3597      4E544552 
 3597      45445F4F 
 3597      4E5F4241 
 3597      534500
 3598              	.LASF37:
 3599 03b3 535F504C 		.ascii	"S_PLACE_PUCK\000"
 3599      4143455F 
 3599      5055434B 
 3599      00
 3600              	.LASF23:
 3601 03c0 47524545 		.ascii	"GREEN\000"
 3601      4E00
 3602              	.LASF75:
 3603 03c6 433A5C55 		.ascii	"C:\\Users\\xavieran\\Desktop\\ECE3091\\PSOCProjects"
 3603      73657273 
 3603      5C786176 
 3603      69657261 
 3603      6E5C4465 
 3604 03f4 5C454E47 		.ascii	"\\ENG3091_MandM\\camera_test.cydsn\000"
 3604      33303931 
 3604      5F4D616E 
 3604      644D5C63 
 3604      616D6572 
 3605              	.LASF67:
 3606 0415 5354414C 		.ascii	"STALL_SPEED\000"
 3606      4C5F5350 
 3606      45454400 
 3607              	.LASF31:
 3608 0421 535F474F 		.ascii	"S_GOT_HOME\000"
 3608      545F484F 
 3608      4D4500
 3609              	.LASF52:
 3610 042c 73746172 		.ascii	"start_time_find_puck\000"
 3610      745F7469 
 3610      6D655F66 
 3610      696E645F 
 3610      7075636B 
 3611              	.LASF25:
 3612 0441 535F5354 		.ascii	"S_START\000"
 3612      41525400 
 3613              		.ident	"GCC: (GNU Tools for ARM Embedded Processors) 4.8.4 20140526 (release) [ARM/embedded-4_8-br
ARM GAS  C:\Users\xavieran\AppData\Local\Temp\cco2bJR3.s 			page 88


