ARM GAS  C:\Users\xavieran\AppData\Local\Temp\ccJy6OMN.s 			page 1


   1              		.syntax unified
   2              		.cpu cortex-m3
   3              		.fpu softvfp
   4              		.eabi_attribute 20, 1
   5              		.eabi_attribute 21, 1
   6              		.eabi_attribute 23, 3
   7              		.eabi_attribute 24, 1
   8              		.eabi_attribute 25, 1
   9              		.eabi_attribute 26, 1
  10              		.eabi_attribute 30, 6
  11              		.eabi_attribute 34, 1
  12              		.eabi_attribute 18, 4
  13              		.thumb
  14              		.file	"main.c"
  15              		.text
  16              	.Ltext0:
  17              		.cfi_sections	.debug_frame
  18              		.comm	Camera_framebuffer,50688,4
  19              		.comm	stack,16,4
  20              		.comm	outString,25,4
  21              		.section	.text.print,"ax",%progbits
  22              		.align	2
  23              		.global	print
  24              		.thumb
  25              		.thumb_func
  26              		.type	print, %function
  27              	print:
  28              	.LFB63:
  29              		.file 1 ".\\main.c"
   1:.\main.c      **** /* ========================================
   2:.\main.c      ****  *
   3:.\main.c      ****  * Copyright YOUR COMPANY, THE YEAR
   4:.\main.c      ****  * All Rights Reserved
   5:.\main.c      ****  * UNPUBLISHED, LICENSED SOFTWARE.
   6:.\main.c      ****  *
   7:.\main.c      ****  * CONFIDENTIAL AND PROPRIETARY INFORMATION
   8:.\main.c      ****  * WHICH IS THE PROPERTY OF your company.
   9:.\main.c      ****  *
  10:.\main.c      ****  * ========================================
  11:.\main.c      **** */
  12:.\main.c      **** /* TODO ***
  13:.\main.c      ****  * GET ALL THE COLORS
  14:.\main.c      ****  * Work on reading instructions
  15:.\main.c      ****  * Put the beacon at the beginning 
  16:.\main.c      ****  * Improve search strategy
  17:.\main.c      ****  * Make it run around faster
  18:.\main.c      ****  * Check the compass orientations
  19:.\main.c      ****  * Fix magnet
  20:.\main.c      ****  * Check second ultrasonic
  21:.\main.c      ****  * Corner handling
  22:.\main.c      ****  * Collision handling
  23:.\main.c      ****  * Timeouts
  24:.\main.c      ****  * Counter for homing on puck
  25:.\main.c      ****  */
  26:.\main.c      **** 
  27:.\main.c      **** 
  28:.\main.c      **** #include <project.h>
ARM GAS  C:\Users\xavieran\AppData\Local\Temp\ccJy6OMN.s 			page 2


  29:.\main.c      **** #include <stdio.h>
  30:.\main.c      **** #include <stdarg.h>
  31:.\main.c      **** #include <math.h>
  32:.\main.c      **** #include <stdlib.h>
  33:.\main.c      **** 
  34:.\main.c      **** #include <infrared.h>
  35:.\main.c      **** #include <motor.h>
  36:.\main.c      **** #include <buttons.h>
  37:.\main.c      **** #include <compass.h>
  38:.\main.c      **** #include <ultrasonic.h>
  39:.\main.c      **** #include <ultrasonic_s.h>
  40:.\main.c      **** 
  41:.\main.c      **** #include <gripper.h>
  42:.\main.c      **** #include <arm.h>
  43:.\main.c      **** #include <my_camera_functions.h>
  44:.\main.c      **** #include <blob_stats.h>
  45:.\main.c      **** #include <beam.h>
  46:.\main.c      **** 
  47:.\main.c      **** extern blob blobs[255];
  48:.\main.c      **** //motor.c
  49:.\main.c      **** extern uint8 HEADING_ERROR_LIMIT;
  50:.\main.c      **** extern uint8 STALL_SPEED;
  51:.\main.c      **** //these are in button.c
  52:.\main.c      **** extern volatile uint8 but0_b;
  53:.\main.c      **** extern volatile uint8 but1_b;
  54:.\main.c      **** 
  55:.\main.c      **** //These are in compass.c
  56:.\main.c      **** extern int16 compass_x;
  57:.\main.c      **** extern int16 compass_y;
  58:.\main.c      **** extern int16 compass_z;
  59:.\main.c      **** extern int16 compass_heading;
  60:.\main.c      **** extern volatile uint8 compass_ready;
  61:.\main.c      **** extern int16 original_compass_heading; //We set this to make the angles relative
  62:.\main.c      **** 
  63:.\main.c      **** //This is in ultrasonic.c
  64:.\main.c      **** extern volatile uint16 ultra_distance;
  65:.\main.c      **** 
  66:.\main.c      **** char outString[25];
  67:.\main.c      **** void calibrate_compass();
  68:.\main.c      **** 
  69:.\main.c      **** #define POS_PRINTF(R,C,X,...) \
  70:.\main.c      ****  {sprintf(outString, X, ##__VA_ARGS__); LCD_Position(R, C); LCD_PrintString(outString);}
  71:.\main.c      **** 
  72:.\main.c      **** 
  73:.\main.c      **** // print() function, works like snprintf(). See: http://www.cplusplus.com/reference/cstdio/snprintf
  74:.\main.c      **** void print(const char *fmt, ...)
  75:.\main.c      **** {
  30              		.loc 1 75 0
  31              		.cfi_startproc
  32              		@ args = 4, pretend = 16, frame = 72
  33              		@ frame_needed = 1, uses_anonymous_args = 1
  34 0000 0FB4     		push	{r0, r1, r2, r3}
  35              		.cfi_def_cfa_offset 16
  36              		.cfi_offset 0, -16
  37              		.cfi_offset 1, -12
  38              		.cfi_offset 2, -8
  39              		.cfi_offset 3, -4
ARM GAS  C:\Users\xavieran\AppData\Local\Temp\ccJy6OMN.s 			page 3


  40 0002 80B5     		push	{r7, lr}
  41              		.cfi_def_cfa_offset 24
  42              		.cfi_offset 7, -24
  43              		.cfi_offset 14, -20
  44 0004 92B0     		sub	sp, sp, #72
  45              		.cfi_def_cfa_offset 96
  46 0006 00AF     		add	r7, sp, #0
  47              		.cfi_def_cfa_register 7
  76:.\main.c      ****    if(!USB_GetConfiguration()) return;  // Do nothing if the USB cable is not connected.
  48              		.loc 1 76 0
  49 0008 FFF7FEFF 		bl	USB_GetConfiguration
  50 000c 0346     		mov	r3, r0
  51 000e 002B     		cmp	r3, #0
  52 0010 15D0     		beq	.L1
  77:.\main.c      ****    char buffer[64];
  78:.\main.c      ****    va_list args;
  79:.\main.c      ****    va_start(args, fmt);
  53              		.loc 1 79 0
  54 0012 07F15403 		add	r3, r7, #84
  55 0016 7B60     		str	r3, [r7, #4]
  80:.\main.c      ****    vsnprintf(buffer, sizeof(buffer), fmt, args);
  56              		.loc 1 80 0
  57 0018 07F10803 		add	r3, r7, #8
  58 001c 1846     		mov	r0, r3
  59 001e 4021     		movs	r1, #64
  60 0020 3A6D     		ldr	r2, [r7, #80]
  61 0022 7B68     		ldr	r3, [r7, #4]
  62 0024 FFF7FEFF 		bl	vsnprintf
  81:.\main.c      ****    va_end(args);
  82:.\main.c      ****    while(!USB_CDCIsReady());
  63              		.loc 1 82 0
  64 0028 00BF     		nop
  65              	.L4:
  66              		.loc 1 82 0 is_stmt 0 discriminator 1
  67 002a FFF7FEFF 		bl	USB_CDCIsReady
  68 002e 0346     		mov	r3, r0
  69 0030 002B     		cmp	r3, #0
  70 0032 FAD0     		beq	.L4
  83:.\main.c      ****    USB_PutString(buffer);
  71              		.loc 1 83 0 is_stmt 1
  72 0034 07F10803 		add	r3, r7, #8
  73 0038 1846     		mov	r0, r3
  74 003a FFF7FEFF 		bl	USB_PutString
  75              	.L1:
  84:.\main.c      **** }
  76              		.loc 1 84 0
  77 003e 4837     		adds	r7, r7, #72
  78 0040 BD46     		mov	sp, r7
  79              		@ sp needed
  80 0042 BDE88040 		pop	{r7, lr}
  81 0046 04B0     		add	sp, sp, #16
  82 0048 7047     		bx	lr
  83              		.cfi_endproc
  84              	.LFE63:
  85              		.size	print, .-print
  86 004a 00BF     		.section	.text.within_range,"ax",%progbits
  87              		.align	2
ARM GAS  C:\Users\xavieran\AppData\Local\Temp\ccJy6OMN.s 			page 4


  88              		.global	within_range
  89              		.thumb
  90              		.thumb_func
  91              		.type	within_range, %function
  92              	within_range:
  93              	.LFB64:
  85:.\main.c      **** 
  86:.\main.c      **** int within_range(int lower, int val, int upper){
  94              		.loc 1 86 0
  95              		.cfi_startproc
  96              		@ args = 0, pretend = 0, frame = 16
  97              		@ frame_needed = 1, uses_anonymous_args = 0
  98              		@ link register save eliminated.
  99 0000 80B4     		push	{r7}
 100              		.cfi_def_cfa_offset 4
 101              		.cfi_offset 7, -4
 102 0002 85B0     		sub	sp, sp, #20
 103              		.cfi_def_cfa_offset 24
 104 0004 00AF     		add	r7, sp, #0
 105              		.cfi_def_cfa_register 7
 106 0006 F860     		str	r0, [r7, #12]
 107 0008 B960     		str	r1, [r7, #8]
 108 000a 7A60     		str	r2, [r7, #4]
  87:.\main.c      ****     return val >= lower && val <= upper;
 109              		.loc 1 87 0
 110 000c BA68     		ldr	r2, [r7, #8]
 111 000e FB68     		ldr	r3, [r7, #12]
 112 0010 9A42     		cmp	r2, r3
 113 0012 05DB     		blt	.L6
 114              		.loc 1 87 0 is_stmt 0 discriminator 1
 115 0014 BA68     		ldr	r2, [r7, #8]
 116 0016 7B68     		ldr	r3, [r7, #4]
 117 0018 9A42     		cmp	r2, r3
 118 001a 01DC     		bgt	.L6
 119              		.loc 1 87 0 discriminator 3
 120 001c 0123     		movs	r3, #1
 121 001e 00E0     		b	.L7
 122              	.L6:
 123              		.loc 1 87 0 discriminator 2
 124 0020 0023     		movs	r3, #0
 125              	.L7:
  88:.\main.c      **** }
 126              		.loc 1 88 0 is_stmt 1 discriminator 4
 127 0022 1846     		mov	r0, r3
 128 0024 1437     		adds	r7, r7, #20
 129 0026 BD46     		mov	sp, r7
 130              		@ sp needed
 131 0028 5DF8047B 		ldr	r7, [sp], #4
 132 002c 7047     		bx	lr
 133              		.cfi_endproc
 134              	.LFE64:
 135              		.size	within_range, .-within_range
 136 002e 00BF     		.section	.rodata
 137              		.align	2
 138              	.LC0:
 139 0000 52535420 		.ascii	"RST TO LEAVE BASE\000"
 139      544F204C 
ARM GAS  C:\Users\xavieran\AppData\Local\Temp\ccJy6OMN.s 			page 5


 139      45415645 
 139      20424153 
 139      4500
 140 0012 0000     		.align	2
 141              	.LC1:
 142 0014 44524F50 		.ascii	"DROPPED BEACON\000"
 142      50454420 
 142      42454143 
 142      4F4E00
 143 0023 00       		.align	2
 144              	.LC2:
 145 0024 53544152 		.ascii	"STARTING CAM\000"
 145      54494E47 
 145      2043414D 
 145      00
 146 0031 000000   		.align	2
 147              	.LC3:
 148 0034 43414D45 		.ascii	"CAMERA STARTED!!!\000"
 148      52412053 
 148      54415254 
 148      45442121 
 148      2100
 149 0046 0000     		.align	2
 150              	.LC4:
 151 0048 52656164 		.ascii	"Read Instructions\000"
 151      20496E73 
 151      74727563 
 151      74696F6E 
 151      7300
 152 005a 0000     		.align	2
 153              	.LC5:
 154 005c 25642025 		.ascii	"%d %d %d %d\000"
 154      64202564 
 154      20256400 
 155              		.align	2
 156              	.LC6:
 157 0068 46494E44 		.ascii	"FIND %d of %d\000"
 157      20256420 
 157      6F662025 
 157      6400
 158 0076 0000     		.align	2
 159              	.LC7:
 160 0078 53454520 		.ascii	"SEE C: %d\000"
 160      433A2025 
 160      6400
 161 0082 0000     		.align	2
 162              	.LC8:
 163 0084 494E2047 		.ascii	"IN GO HOME I:%d U%d\000"
 163      4F20484F 
 163      4D452049 
 163      3A256420 
 163      55256400 
 164              		.align	2
 165              	.LC9:
 166 0098 474F494E 		.ascii	"GOING HOME CHECK IR\000"
 166      4720484F 
 166      4D452043 
ARM GAS  C:\Users\xavieran\AppData\Local\Temp\ccJy6OMN.s 			page 6


 166      4845434B 
 166      20495200 
 167              		.align	2
 168              	.LC10:
 169 00ac 54494D45 		.ascii	"TIMEOUT 100!!!\000"
 169      4F555420 
 169      31303021 
 169      212100
 170 00bb 00       		.align	2
 171              	.LC11:
 172 00bc 4E454152 		.ascii	"NEAR HOME FIND 100\000"
 172      20484F4D 
 172      45204649 
 172      4E442031 
 172      303000
 173 00cf 00       		.align	2
 174              	.LC12:
 175 00d0 46697273 		.ascii	"First Turn\000"
 175      74205475 
 175      726E00
 176 00db 00       		.align	2
 177              	.LC13:
 178 00dc 69202564 		.ascii	"i %d\000"
 178      00
 179 00e1 000000   		.align	2
 180              	.LC14:
 181 00e4 7420256C 		.ascii	"t %ld\000"
 181      6400
 182 00ea 0000     		.align	2
 183              	.LC15:
 184 00ec 52494748 		.ascii	"RIGHT ULTRA\000"
 184      5420554C 
 184      54524100 
 185              		.align	2
 186              	.LC16:
 187 00f8 2564202D 		.ascii	"%d - %d\000"
 187      20256400 
 188              		.align	2
 189              	.LC17:
 190 0100 5475726E 		.ascii	"Turn 2 Possible\000"
 190      20322050 
 190      6F737369 
 190      626C6500 
 191              		.align	2
 192              	.LC18:
 193 0110 43553A20 		.ascii	"CU: %d\000"
 193      256400
 194 0117 00       		.align	2
 195              	.LC19:
 196 0118 5475726E 		.ascii	"Turn 3 Possible\000"
 196      20332050 
 196      6F737369 
 196      626C6500 
 197              		.align	2
 198              	.LC20:
 199 0128 4E454152 		.ascii	"NEAR HOME SAW 30\000"
 199      20484F4D 
ARM GAS  C:\Users\xavieran\AppData\Local\Temp\ccJy6OMN.s 			page 7


 199      45205341 
 199      57203330 
 199      00
 200 0139 000000   		.align	2
 201              	.LC21:
 202 013c 69722564 		.ascii	"ir%d\000"
 202      00
 203 0141 000000   		.align	2
 204              	.LC22:
 205 0144 4E454152 		.ascii	"NEAR HOME FIND 60\000"
 205      20484F4D 
 205      45204649 
 205      4E442036 
 205      3000
 206 0156 0000     		.align	2
 207              	.LC23:
 208 0158 43454E54 		.ascii	"CENTERED ON BASE\000"
 208      45524544 
 208      204F4E20 
 208      42415345 
 208      00
 209 0169 000000   		.align	2
 210              	.LC24:
 211 016c 554C5452 		.ascii	"ULTRA: %d\000"
 211      413A2025 
 211      6400
 212 0176 0000     		.align	2
 213              	.LC25:
 214 0178 504C4143 		.ascii	"PLACING PUCK\000"
 214      494E4720 
 214      5055434B 
 214      00
 215 0185 000000   		.align	2
 216              	.LC26:
 217 0188 53544143 		.ascii	"STACKING!\000"
 217      4B494E47 
 217      2100
 218 0192 0000     		.align	2
 219              	.LC27:
 220 0194 42256420 		.ascii	"B%d SU%d\000"
 220      53552564 
 220      00
 221 019d 000000   		.align	2
 222              	.LC28:
 223 01a0 4245414D 		.ascii	"BEAM BROKEN\000"
 223      2042524F 
 223      4B454E00 
 224              		.align	2
 225              	.LC29:
 226 01ac 436C6F73 		.ascii	"Close to stack\000"
 226      6520746F 
 226      20737461 
 226      636B00
 227 01bb 00       		.align	2
 228              	.LC30:
 229 01bc 46415220 		.ascii	"FAR FROM STACK\000"
 229      46524F4D 
ARM GAS  C:\Users\xavieran\AppData\Local\Temp\ccJy6OMN.s 			page 8


 229      20535441 
 229      434B00
 230 01cb 00       		.align	2
 231              	.LC31:
 232 01cc 62657477 		.ascii	"between 12 and 17\000"
 232      65656E20 
 232      31322061 
 232      6E642031 
 232      3700
 233 01de 0000     		.align	2
 234              	.LC32:
 235 01e0 474F5420 		.ascii	"GOT HOME\000"
 235      484F4D45 
 235      00
 236 01e9 000000   		.align	2
 237              	.LC33:
 238 01ec 56494354 		.ascii	"VICTORY!!!\000"
 238      4F525921 
 238      212100
 239              		.section	.text.main,"ax",%progbits
 240              		.align	2
 241              		.global	main
 242              		.thumb
 243              		.thumb_func
 244              		.type	main, %function
 245              	main:
 246              	.LFB65:
  89:.\main.c      **** 
  90:.\main.c      **** #define NP_AHEAD 0
  91:.\main.c      **** #define NP_TURNED_RIGHT 1
  92:.\main.c      **** #define NP_TURNED_LEFT 2
  93:.\main.c      **** 
  94:.\main.c      **** enum State {
  95:.\main.c      ****     S_START = 0,
  96:.\main.c      ****     S_LEAVE_BASE,
  97:.\main.c      ****     S_LEFT_BASE,
  98:.\main.c      ****     S_FIND_PUCK,
  99:.\main.c      ****     S_GO_HOME,
 100:.\main.c      ****     S_FACE_HOME,
 101:.\main.c      ****     S_GOT_HOME,
 102:.\main.c      ****     S_IN_CORNER,
 103:.\main.c      ****     S_GOING_HOME_CHECK_IR,
 104:.\main.c      ****     S_NEAR_HOME_FIND_100,
 105:.\main.c      ****     S_NEAR_HOME_FIND_60,
 106:.\main.c      ****     S_CENTERED_ON_BASE,
 107:.\main.c      ****     S_PLACE_PUCK,
 108:.\main.c      ****     S_NEAR_HOME_SAW_30,
 109:.\main.c      ****     S_GRAB_BEACON
 110:.\main.c      **** };
 111:.\main.c      **** 
 112:.\main.c      **** int main()
 113:.\main.c      **** {
 247              		.loc 1 113 0
 248              		.cfi_startproc
 249              		@ args = 0, pretend = 0, frame = 88
 250              		@ frame_needed = 1, uses_anonymous_args = 0
 251 0000 B0B5     		push	{r4, r5, r7, lr}
ARM GAS  C:\Users\xavieran\AppData\Local\Temp\ccJy6OMN.s 			page 9


 252              		.cfi_def_cfa_offset 16
 253              		.cfi_offset 4, -16
 254              		.cfi_offset 5, -12
 255              		.cfi_offset 7, -8
 256              		.cfi_offset 14, -4
 257 0002 98B0     		sub	sp, sp, #96
 258              		.cfi_def_cfa_offset 112
 259 0004 02AF     		add	r7, sp, #8
 260              		.cfi_def_cfa 7, 104
 114:.\main.c      ****     RED_Write(1);
 261              		.loc 1 114 0
 262 0006 0120     		movs	r0, #1
 263 0008 FFF7FEFF 		bl	RED_Write
 115:.\main.c      ****     CYGlobalIntEnable;
 264              		.loc 1 115 0
 265              	@ 115 ".\main.c" 1
 266 000c 62B6     		CPSIE   i
 267              	@ 0 "" 2
 116:.\main.c      ****     
 117:.\main.c      ****     /**** INITIALIZE COMPONENTS ****/
 118:.\main.c      ****     LCD_Start();
 268              		.loc 1 118 0
 269              		.thumb
 270 000e FFF7FEFF 		bl	LCD_Start
 119:.\main.c      ****     //USB_Start(0, USB_DWR_VDDD_OPERATION);
 120:.\main.c      ****         
 121:.\main.c      ****     Timer_Start();
 271              		.loc 1 121 0
 272 0012 FFF7FEFF 		bl	Timer_Start
 122:.\main.c      ****     start_buttons();
 273              		.loc 1 122 0
 274 0016 FFF7FEFF 		bl	start_buttons
 123:.\main.c      ****     start_compass();
 275              		.loc 1 123 0
 276 001a FFF7FEFF 		bl	start_compass
 124:.\main.c      ****     while (!compass_ready){;}
 277              		.loc 1 124 0
 278 001e 00BF     		nop
 279              	.L10:
 280              		.loc 1 124 0 is_stmt 0 discriminator 1
 281 0020 C64B     		ldr	r3, .L108
 282 0022 1B78     		ldrb	r3, [r3]
 283 0024 DBB2     		uxtb	r3, r3
 284 0026 002B     		cmp	r3, #0
 285 0028 FAD0     		beq	.L10
 125:.\main.c      ****     compass_read();
 286              		.loc 1 125 0 is_stmt 1
 287 002a FFF7FEFF 		bl	compass_read
 126:.\main.c      ****     original_compass_heading = compass_heading;
 288              		.loc 1 126 0
 289 002e C44B     		ldr	r3, .L108+4
 290 0030 1A88     		ldrh	r2, [r3]
 291 0032 C44B     		ldr	r3, .L108+8
 292 0034 1A80     		strh	r2, [r3]	@ movhi
 127:.\main.c      ****     
 128:.\main.c      ****     start_motors();
 293              		.loc 1 128 0
ARM GAS  C:\Users\xavieran\AppData\Local\Temp\ccJy6OMN.s 			page 10


 294 0036 FFF7FEFF 		bl	start_motors
 129:.\main.c      ****     start_gripper();
 295              		.loc 1 129 0
 296 003a FFF7FEFF 		bl	start_gripper
 130:.\main.c      ****     drop_puck();
 297              		.loc 1 130 0
 298 003e FFF7FEFF 		bl	drop_puck
 131:.\main.c      ****     start_arm();
 299              		.loc 1 131 0
 300 0042 FFF7FEFF 		bl	start_arm
 132:.\main.c      ****     arm_set_level(0);
 301              		.loc 1 132 0
 302 0046 0020     		movs	r0, #0
 303 0048 FFF7FEFF 		bl	arm_set_level
 133:.\main.c      ****     start_ultrasonic();
 304              		.loc 1 133 0
 305 004c FFF7FEFF 		bl	start_ultrasonic
 134:.\main.c      ****     start_ultrasonic_s();
 306              		.loc 1 134 0
 307 0050 FFF7FEFF 		bl	start_ultrasonic_s
 135:.\main.c      ****     start_infrared();
 308              		.loc 1 135 0
 309 0054 FFF7FEFF 		bl	start_infrared
 136:.\main.c      ****     beam_broken();
 310              		.loc 1 136 0
 311 0058 FFF7FEFF 		bl	beam_broken
 137:.\main.c      ****     
 138:.\main.c      ****     //calibrate_compass();
 139:.\main.c      ****     /*
 140:.\main.c      ****     while (1){
 141:.\main.c      ****         if (compass_ready){
 142:.\main.c      ****             compass_read();
 143:.\main.c      ****             print("%d %d\n", compass_x, compass_y);
 144:.\main.c      ****             POS_PRINTF(0,0,"%d %d %d", compass_heading, compass_x, compass_y);
 145:.\main.c      ****         }
 146:.\main.c      ****     }*/
 147:.\main.c      ****     
 148:.\main.c      **** 
 149:.\main.c      ****     //calibrate_compass();
 150:.\main.c      ****     
 151:.\main.c      ****     /*
 152:.\main.c      ****     int arm_height = 1;
 153:.\main.c      ****     while (1){
 154:.\main.c      ****         LCD_ClearDisplay();
 155:.\main.c      ****         POS_PRINTF(0,0,"R %d S %d", get_mean_ultra(), get_mean_ultra_s());
 156:.\main.c      ****         POS_PRINTF(1,0,"B %d P %d", beam_broken(), arm_height);
 157:.\main.c      ****         if (but0_b){
 158:.\main.c      ****             but0_b = 0;
 159:.\main.c      ****             if (arm_height){
 160:.\main.c      ****                 select_left();
 161:.\main.c      ****             } else {
 162:.\main.c      ****                 select_stack();
 163:.\main.c      ****             }
 164:.\main.c      ****         } else if (but1_b){
 165:.\main.c      ****             but1_b = 0;
 166:.\main.c      ****         }
 167:.\main.c      ****         CyDelay(50);   
ARM GAS  C:\Users\xavieran\AppData\Local\Temp\ccJy6OMN.s 			page 11


 168:.\main.c      ****     }*/
 169:.\main.c      ****     
 170:.\main.c      ****     
 171:.\main.c      **** //    while (1){
 172:.\main.c      **** //        LCD_ClearDisplay();
 173:.\main.c      **** //        POS_PRINTF(0,0,"US %d LS %d", get_mean_ultra_s(), get_var_ultra_s());
 174:.\main.c      **** //        POS_PRINTF(1,0," %d V %d", get_mean_ultra(), get_var_ultra());
 175:.\main.c      **** //        CyDelay(50);
 176:.\main.c      **** //    }
 177:.\main.c      **** 
 178:.\main.c      ****     /**** Declare Variables ****/
 179:.\main.c      ****     
 180:.\main.c      ****     uint16 ir_result;
 181:.\main.c      ****     uint16 state;
 182:.\main.c      ****     int pucks_gotten = 0;
 312              		.loc 1 182 0
 313 005c 0023     		movs	r3, #0
 314 005e 3B65     		str	r3, [r7, #80]
 183:.\main.c      ****     int near_base = 70;
 315              		.loc 1 183 0
 316 0060 4623     		movs	r3, #70
 317 0062 7B61     		str	r3, [r7, #20]
 184:.\main.c      ****     int current_color = RED;
 318              		.loc 1 184 0
 319 0064 0123     		movs	r3, #1
 320 0066 FB64     		str	r3, [r7, #76]
 185:.\main.c      ****     long start_time_find100;
 186:.\main.c      ****     long start_time_find_puck;
 187:.\main.c      ****     int twitching_l = 0;
 321              		.loc 1 187 0
 322 0068 0023     		movs	r3, #0
 323 006a 3B64     		str	r3, [r7, #64]
 188:.\main.c      ****     int twitching_r = 0;
 324              		.loc 1 188 0
 325 006c 0023     		movs	r3, #0
 326 006e FB63     		str	r3, [r7, #60]
 189:.\main.c      ****     state = S_START;
 327              		.loc 1 189 0
 328 0070 0023     		movs	r3, #0
 329 0072 A7F85630 		strh	r3, [r7, #86]	@ movhi
 190:.\main.c      ****     int h_left = 0; 
 330              		.loc 1 190 0
 331 0076 0023     		movs	r3, #0
 332 0078 BB63     		str	r3, [r7, #56]
 333 007a 00E0     		b	.L103
 334              	.L104:
 191:.\main.c      ****     int ultra;
 192:.\main.c      ****     /*
 193:.\main.c      ****     int abc = 0;
 194:.\main.c      ****     while (1){
 195:.\main.c      ****         LCD_ClearDisplay();
 196:.\main.c      ****         POS_PRINTF(0,0,"ur%d", get_mean_ultra());
 197:.\main.c      ****         POS_PRINTF(1,0,"ul%d", get_mean_ultra_s());
 198:.\main.c      ****         if (but0_b){
 199:.\main.c      ****             if (abc){
 200:.\main.c      ****                 select_left();
 201:.\main.c      ****                 stop_ultrasonic();
ARM GAS  C:\Users\xavieran\AppData\Local\Temp\ccJy6OMN.s 			page 12


 202:.\main.c      ****                 abc = 0;
 203:.\main.c      ****             } else {
 204:.\main.c      ****                 start_ultrasonic();
 205:.\main.c      ****                 select_stack();
 206:.\main.c      ****                 abc = 1;
 207:.\main.c      ****             }
 208:.\main.c      ****             but0_b = 0;
 209:.\main.c      ****         }
 210:.\main.c      ****         CyDelay(50);
 211:.\main.c      ****     }*/
 212:.\main.c      ****     
 213:.\main.c      **** 
 214:.\main.c      ****     
 215:.\main.c      ****     while (1){
 216:.\main.c      ****         if (but0_b){
 217:.\main.c      ****             if (state > S_FIND_PUCK){
 218:.\main.c      ****                 pucks_gotten--;
 219:.\main.c      ****             }
 220:.\main.c      ****             state = S_LEAVE_BASE;
 221:.\main.c      ****             POS_PRINTF(0,0,"RST TO LEAVE BASE");
 222:.\main.c      ****             but0_b = 0;
 223:.\main.c      ****         
 224:.\main.c      ****             while (!but0_b){;}
 225:.\main.c      ****             but0_b = 0;
 226:.\main.c      ****         }
 227:.\main.c      ****         
 228:.\main.c      ****         switch(state){
 229:.\main.c      ****             case S_START:
 230:.\main.c      ****                 pickup_angled_puck();
 231:.\main.c      ****                 CyDelay(1000);
 232:.\main.c      ****                 go_backward(250, 255);
 233:.\main.c      ****                 arm_set_level(6);
 234:.\main.c      ****                 CyDelay(1000);
 235:.\main.c      ****                 setForward(MBOTH);
 236:.\main.c      ****                 setSpeed(MBOTH, 200);
 237:.\main.c      ****                 CyDelay(1000);
 238:.\main.c      ****                 setCoast(MBOTH);
 239:.\main.c      ****                 pickup_puck();
 240:.\main.c      ****                 CyDelay(500);
 241:.\main.c      ****                 drop_puck();
 242:.\main.c      ****                 CyDelay(500);
 243:.\main.c      ****                 go_backward_blind(280, 180);
 244:.\main.c      ****                 POS_PRINTF(0,0,"DROPPED BEACON");
 245:.\main.c      ****                 int i;
 246:.\main.c      ****                 arm_set_level(1);
 247:.\main.c      ****                 CyDelay(500);
 248:.\main.c      ****                 LCD_PosPrintString(0,0,"STARTING CAM");
 249:.\main.c      ****                 init_camera();
 250:.\main.c      ****                 LCD_PosPrintString(0,0, "CAMERA STARTED!!!");
 251:.\main.c      ****                 //arm_inbetween_level(0,1);
 252:.\main.c      ****                 arm_set_level(0);
 253:.\main.c      ****                 CyDelay(500);
 254:.\main.c      ****                 set_gain_exposure(2);
 255:.\main.c      ****                 capture_thresh_image();
 256:.\main.c      ****                 sideways_instruction_read();
 257:.\main.c      ****                 set_gain_exposure(1);
 258:.\main.c      ****                 POS_PRINTF(0,0,"Read Instructions");
ARM GAS  C:\Users\xavieran\AppData\Local\Temp\ccJy6OMN.s 			page 13


 259:.\main.c      ****                 POS_PRINTF(1,0,"%d %d %d %d", stack[3], stack[2], stack[1], stack[0]);
 260:.\main.c      ****                 CyDelay(1000);
 261:.\main.c      ****                 state = S_LEAVE_BASE;
 262:.\main.c      ****                 break;
 263:.\main.c      ****                 
 264:.\main.c      ****             case S_LEAVE_BASE:
 265:.\main.c      ****                 arm_set_level(0);
 266:.\main.c      ****                 go_backward_ultra(60, 255);
 267:.\main.c      ****                 state = S_LEFT_BASE;
 268:.\main.c      ****                 current_color = stack[(4 - pucks_gotten) - 1];
 269:.\main.c      ****                 if (current_color == 0){
 270:.\main.c      ****                     current_color = RED;
 271:.\main.c      ****                 } else if (current_color == 839192){
 272:.\main.c      ****                     current_color = RED;
 273:.\main.c      ****                 }
 274:.\main.c      ****                 STALL_SPEED = ARENA_STALL_SPEED;
 275:.\main.c      ****                 break;
 276:.\main.c      ****                 
 277:.\main.c      ****             case S_LEFT_BASE:
 278:.\main.c      ****                 set_heading(90);
 279:.\main.c      ****                 rotate_degrees(0);
 280:.\main.c      ****                 CyDelay(500);
 281:.\main.c      ****                 go_backward(1200, 255);
 282:.\main.c      ****                 CyDelay(500);
 283:.\main.c      ****                 //Give the rotation a kick in the right direction
 284:.\main.c      ****                 rotate_right(255);
 285:.\main.c      ****                 CyDelay(300);
 286:.\main.c      ****                 setCoast(MBOTH);
 287:.\main.c      ****                 set_heading(180);
 288:.\main.c      ****                 rotate_degrees(0);
 289:.\main.c      ****                 CyDelay(500);
 290:.\main.c      ****                 start_time_find_puck = Timer_ReadCounter();
 291:.\main.c      ****                 state = S_FIND_PUCK;
 292:.\main.c      ****                 twitching_l = 0;
 293:.\main.c      ****                 twitching_r =0;
 294:.\main.c      ****                 break;
 295:.\main.c      ****                 
 296:.\main.c      ****             case S_FIND_PUCK:
 297:.\main.c      ****                 POS_PRINTF(1,0,"FIND %d of %d", current_color, pucks_gotten);
 298:.\main.c      ****                 if (start_time_find_puck - Timer_ReadCounter() > 10 * 35000){
 299:.\main.c      ****                     set_heading(180);
 300:.\main.c      ****                     go_backward_blind(1000, 255);
 301:.\main.c      ****                     CyDelay(100);
 302:.\main.c      ****                     set_heading(0);
 303:.\main.c      ****                     while (get_mean_ultra() > 80){
 304:.\main.c      ****                         go_forward(700, 255);
 305:.\main.c      ****                         CyDelay(300);
 306:.\main.c      ****                     }
 307:.\main.c      ****                     set_heading(180);
 308:.\main.c      ****                     rotate_degrees(0);
 309:.\main.c      ****                     start_time_find_puck = Timer_ReadCounter();
 310:.\main.c      ****                 }
 311:.\main.c      ****                 CyDelay(300);
 312:.\main.c      ****                 capture_thresh_image();
 313:.\main.c      ****                 int pucks = to_nearest_blob(current_color, 30, 10);
 314:.\main.c      ****                 
 315:.\main.c      ****                 if (pucks == 0){
ARM GAS  C:\Users\xavieran\AppData\Local\Temp\ccJy6OMN.s 			page 14


 316:.\main.c      ****                     h_left = 0;
 317:.\main.c      ****                     twitching_r = 0;
 318:.\main.c      ****                     twitching_l = 0;
 319:.\main.c      ****                     //A puck is centered, so we check our beam break and drive forward a bit.
 320:.\main.c      ****                     go_forward(1000, 255);
 321:.\main.c      ****                     pickup_angled_puck();
 322:.\main.c      ****                     CyDelay(200);
 323:.\main.c      ****                     drop_puck();
 324:.\main.c      ****                     CyDelay(200);
 325:.\main.c      ****                     if (beam_broken()){
 326:.\main.c      ****                         go_forward(300, 255);
 327:.\main.c      ****                         pickup_puck();
 328:.\main.c      ****                         CyDelay(100);
 329:.\main.c      ****                         
 330:.\main.c      ****                         arm_carry_home();
 331:.\main.c      ****                         
 332:.\main.c      ****                         arm_set_level(0);
 333:.\main.c      ****                         CyDelay(300);
 334:.\main.c      ****                         set_gain_exposure(2);
 335:.\main.c      ****                         capture_thresh_image();
 336:.\main.c      ****                         int color = identify_colour_gripper();
 337:.\main.c      ****                         set_gain_exposure(1);
 338:.\main.c      ****                         POS_PRINTF(0,0,"SEE C: %d", color);
 339:.\main.c      ****                         if (color != current_color){
 340:.\main.c      ****                             int old_heading = compass_heading;
 341:.\main.c      ****                             rotate_degrees(45);
 342:.\main.c      ****                             go_forward(500, 255);
 343:.\main.c      ****                             drop_puck();
 344:.\main.c      ****                             go_backward(500, 255);
 345:.\main.c      ****                             arm_set_level(0);
 346:.\main.c      ****                             CyDelay(100);
 347:.\main.c      ****                             set_heading(old_heading);
 348:.\main.c      ****                             rotate_degrees(0);
 349:.\main.c      ****                         } else {
 350:.\main.c      ****                             arm_carry_home();
 351:.\main.c      ****                             set_heading(180);
 352:.\main.c      ****                             rotate_degrees(0);
 353:.\main.c      ****                             go_backward(1500, 255);
 354:.\main.c      ****                             pucks_gotten++;
 355:.\main.c      ****                             start_time_find_puck = Timer_ReadCounter();
 356:.\main.c      ****                             state = S_FACE_HOME;
 357:.\main.c      ****                             break;
 358:.\main.c      ****                         }
 359:.\main.c      ****                     }                
 360:.\main.c      ****                 } else if (pucks == -1){
 361:.\main.c      ****                     twitching_l = 0;
 362:.\main.c      ****                     twitching_r = 0;
 363:.\main.c      ****                     if(h_left == 0)
 364:.\main.c      ****                     {
 365:.\main.c      ****                         h_left = 1;
 366:.\main.c      ****                         rotate_degrees(25);
 367:.\main.c      ****                     }
 368:.\main.c      ****                     else if(h_left == 1)
 369:.\main.c      ****                     {
 370:.\main.c      ****                         h_left = 2;
 371:.\main.c      ****                         rotate_degrees(-50);
 372:.\main.c      ****                     }
ARM GAS  C:\Users\xavieran\AppData\Local\Temp\ccJy6OMN.s 			page 15


 373:.\main.c      ****                     else
 374:.\main.c      ****                     {
 375:.\main.c      ****                         h_left = 0;
 376:.\main.c      ****                         set_heading(180);
 377:.\main.c      ****                         rotate_degrees(0);
 378:.\main.c      ****                         go_forward(800,250);
 379:.\main.c      ****                     }
 380:.\main.c      ****                 } else if (pucks < 0){
 381:.\main.c      ****                     if (twitching_l >= 2 && twitching_r > 2){
 382:.\main.c      ****                         twitching_r = 0;
 383:.\main.c      ****                         twitching_l = 0;
 384:.\main.c      ****                         go_forward(500, 255);
 385:.\main.c      ****                     } else {
 386:.\main.c      ****                         rotate_degrees(-4);
 387:.\main.c      ****                         twitching_l++;
 388:.\main.c      ****                     }
 389:.\main.c      ****                 } else if (pucks > 0){
 390:.\main.c      ****                     if (twitching_l >= 2 && twitching_r >= 2){
 391:.\main.c      ****                         twitching_r = 0;
 392:.\main.c      ****                         twitching_l = 0;
 393:.\main.c      ****                         go_forward_blind(600, 255);
 394:.\main.c      ****                     } else {
 395:.\main.c      ****                         rotate_degrees(4);
 396:.\main.c      ****                         twitching_r++;
 397:.\main.c      ****                     }
 398:.\main.c      ****                 } 
 399:.\main.c      ****                 break;
 400:.\main.c      ****             case S_FACE_HOME:
 401:.\main.c      ****                 //Shake off any extra pucks
 402:.\main.c      ****                 set_heading(90);
 403:.\main.c      ****                 rotate_degrees(0);
 404:.\main.c      ****                 set_heading(0);
 405:.\main.c      ****                 rotate_degrees(0);
 406:.\main.c      ****                 state = S_GO_HOME;
 407:.\main.c      ****                 break;
 408:.\main.c      ****             case S_GO_HOME:
 409:.\main.c      ****                 select_front();
 410:.\main.c      ****                 CyDelay(300);
 411:.\main.c      ****                 ir_result = get_ir_val();
 412:.\main.c      ****                 LCD_ClearDisplay();
 413:.\main.c      ****                 POS_PRINTF(0,0,"IN GO HOME I:%d U%d", ir_result, get_mean_ultra());
 414:.\main.c      ****                 //!!!!!!!!!!!
 415:.\main.c      ****                 //!!!!!!!!!!! CHECK AGAIN TO MAKE SURE IT WASNT JUST A PUCK BLOCKING the US
 416:.\main.c      ****                 //!!!!!!!!!!!
 417:.\main.c      ****                 if (get_mean_ultra() < near_base){
 418:.\main.c      ****                     start_time_find100 = Timer_ReadCounter();
 419:.\main.c      ****                     state = S_NEAR_HOME_FIND_100;
 420:.\main.c      ****                     break;
 421:.\main.c      ****                 } else {
 422:.\main.c      ****                     state = S_GOING_HOME_CHECK_IR;
 423:.\main.c      ****                 }
 424:.\main.c      ****                 break;
 425:.\main.c      ****             case S_GOING_HOME_CHECK_IR:
 426:.\main.c      ****                 POS_PRINTF(0,0,"GOING HOME CHECK IR");
 427:.\main.c      ****                 ultra = get_mean_ultra(); 
 428:.\main.c      ****                 if (ultra <= near_base){
 429:.\main.c      ****                     state = S_NEAR_HOME_FIND_100;
ARM GAS  C:\Users\xavieran\AppData\Local\Temp\ccJy6OMN.s 			page 16


 430:.\main.c      ****                     start_time_find100 = Timer_ReadCounter();
 431:.\main.c      ****                 }
 432:.\main.c      ****                 
 433:.\main.c      ****                 if (ultra > near_base + 20){
 434:.\main.c      ****                     go_forward(1000,255);
 435:.\main.c      ****                 } else {
 436:.\main.c      ****                     go_forward(400, 255);
 437:.\main.c      ****                 }
 438:.\main.c      ****                 CyDelay(300);                
 439:.\main.c      ****                 break;
 440:.\main.c      ****             case S_NEAR_HOME_FIND_100:
 441:.\main.c      ****                 if (start_time_find100 - Timer_ReadCounter() >  10 * 25000){//We must be too far le
 442:.\main.c      ****                     POS_PRINTF(1,0,"TIMEOUT 100!!!");
 443:.\main.c      ****                     set_heading(90);
 444:.\main.c      ****                     rotate_degrees(0);
 445:.\main.c      ****                     go_backward(4000, 255);
 446:.\main.c      ****                     start_time_find100 = Timer_ReadCounter();
 447:.\main.c      ****                 }
 448:.\main.c      ****                 
 449:.\main.c      ****                 POS_PRINTF(0,0,"NEAR HOME FIND 100");
 450:.\main.c      ****                 POS_PRINTF(1,0,"First Turn");
 451:.\main.c      ****                 set_heading(88);
 452:.\main.c      ****                 rotate_degrees(0);
 453:.\main.c      ****                 CyDelay(300);
 454:.\main.c      ****                 
 455:.\main.c      ****                 go_forward(300, 255);
 456:.\main.c      ****                 
 457:.\main.c      ****                 select_right();
 458:.\main.c      ****                 ir_result = get_ir_val();
 459:.\main.c      ****                 POS_PRINTF(1,0,"i %d", ir_result);
 460:.\main.c      ****                 POS_PRINTF(1,5,"t %ld", Timer_ReadCounter());
 461:.\main.c      ****                 //while (!but0_b){;}but0_b = 0;
 462:.\main.c      ****                 int good_val = 0;
 463:.\main.c      ****                 if (within_range(96, ir_result, 105)){
 464:.\main.c      ****                     int i;
 465:.\main.c      ****                     good_val = 1;
 466:.\main.c      ****                     for (i = 0; i < 3; i++){
 467:.\main.c      ****                         CyDelay(300);
 468:.\main.c      ****                         if (!within_range(96, get_ir_val(), 105)){
 469:.\main.c      ****                             good_val = 0;
 470:.\main.c      ****                             break;
 471:.\main.c      ****                         }
 472:.\main.c      ****                     }
 473:.\main.c      ****                     if (good_val){
 474:.\main.c      ****                         state = S_NEAR_HOME_FIND_60;
 475:.\main.c      ****                         break;
 476:.\main.c      ****                     }
 477:.\main.c      ****                 }
 478:.\main.c      ****                 select_left();
 479:.\main.c      ****                 POS_PRINTF(0,0,"RIGHT ULTRA");
 480:.\main.c      ****                 CyDelay(100);
 481:.\main.c      ****                 ultra = get_mean_ultra_s();
 482:.\main.c      ****                 POS_PRINTF(1,0,"%d - %d", ultra, near_base);
 483:.\main.c      ****                 if (ultra > near_base && get_var_ultra_s() < 200){
 484:.\main.c      ****                     go_forward(300, 255);
 485:.\main.c      ****                     POS_PRINTF(1,0,"Turn 2 Possible");
 486:.\main.c      ****                     rotate_right(255);
ARM GAS  C:\Users\xavieran\AppData\Local\Temp\ccJy6OMN.s 			page 17


 487:.\main.c      ****                     CyDelay(200);
 488:.\main.c      ****                     setCoast(MBOTH);
 489:.\main.c      ****                     set_heading(0);
 490:.\main.c      ****                     rotate_degrees(0);
 491:.\main.c      ****                     
 492:.\main.c      ****                     CyDelay(600);
 493:.\main.c      ****                     ultra = get_mean_ultra();
 494:.\main.c      ****                     
 495:.\main.c      ****                     if (ultra > near_base){
 496:.\main.c      ****                         go_forward(500, 255);
 497:.\main.c      ****                     }
 498:.\main.c      ****                     CyDelay(600);
 499:.\main.c      ****                     ultra = get_mean_ultra();
 500:.\main.c      ****                     while (ultra > near_base){
 501:.\main.c      ****                         POS_PRINTF(1,0,"CU: %d", ultra);
 502:.\main.c      ****                         go_forward(700, 255);
 503:.\main.c      ****                         CyDelay(300);
 504:.\main.c      ****                         ultra = get_mean_ultra();
 505:.\main.c      ****                     } 
 506:.\main.c      ****                     POS_PRINTF(1,0,"Turn 3 Possible");
 507:.\main.c      ****                     rotate_left(255);
 508:.\main.c      ****                     CyDelay(200);
 509:.\main.c      ****                     set_heading(90);
 510:.\main.c      ****                     rotate_degrees(0);
 511:.\main.c      ****                     start_time_find100 = Timer_ReadCounter();   
 512:.\main.c      ****                 }
 513:.\main.c      ****                 break;
 514:.\main.c      ****                 
 515:.\main.c      ****             case S_NEAR_HOME_SAW_30:
 516:.\main.c      ****                 POS_PRINTF(0,0,"NEAR HOME SAW 30");
 517:.\main.c      ****                 CyDelay(300);
 518:.\main.c      ****                 select_right();
 519:.\main.c      ****                 ir_result = get_ir_val();
 520:.\main.c      ****                 POS_PRINTF(1,0,"ir%d", ir_result);
 521:.\main.c      ****                 
 522:.\main.c      ****                 if (within_range(57, ir_result, 65)){
 523:.\main.c      ****                     go_forward(500, 255);
 524:.\main.c      ****                     set_heading(0);
 525:.\main.c      ****                     rotate_degrees(0);
 526:.\main.c      ****                     state = S_CENTERED_ON_BASE;
 527:.\main.c      ****                     start_ultrasonic();
 528:.\main.c      ****                     break;
 529:.\main.c      ****                 }
 530:.\main.c      ****                 go_forward(250, 255);
 531:.\main.c      ****                 break;
 532:.\main.c      ****                 
 533:.\main.c      ****             case S_NEAR_HOME_FIND_60:
 534:.\main.c      ****                 POS_PRINTF(0,0,"NEAR HOME FIND 60");
 535:.\main.c      ****                 //while (!but0_b){;}but0_b = 0;
 536:.\main.c      ****                 CyDelay(500);
 537:.\main.c      ****                 select_right();
 538:.\main.c      ****                 ir_result = get_ir_val();
 539:.\main.c      ****                 POS_PRINTF(1,0,"ir%d", ir_result);
 540:.\main.c      ****                 //while (!but0_b){;}but0_b = 0;
 541:.\main.c      ****                 if (within_range(57, ir_result, 65)){
 542:.\main.c      ****                     set_heading(0);
 543:.\main.c      ****                     rotate_degrees(0);
ARM GAS  C:\Users\xavieran\AppData\Local\Temp\ccJy6OMN.s 			page 18


 544:.\main.c      ****                     state = S_CENTERED_ON_BASE;
 545:.\main.c      ****                     start_ultrasonic();
 546:.\main.c      ****                     break;
 547:.\main.c      ****                 } else if (within_range(27, ir_result, 33)){
 548:.\main.c      ****                     CyDelay(300);
 549:.\main.c      ****                     ir_result = get_ir_val();
 550:.\main.c      ****                     CyDelay(300);
 551:.\main.c      ****                     if (within_range(27, ir_result, 33) && within_range(27,get_ir_val(),33)){
 552:.\main.c      ****                         state = S_NEAR_HOME_SAW_30;
 553:.\main.c      ****                     }
 554:.\main.c      ****                     break;
 555:.\main.c      ****                 }
 556:.\main.c      ****                 go_backward(250, 255);
 557:.\main.c      ****                 break;
 558:.\main.c      ****                 
 559:.\main.c      ****             case S_CENTERED_ON_BASE:
 560:.\main.c      ****                 select_stack();
 561:.\main.c      ****                 POS_PRINTF(0,0,"CENTERED ON BASE");
 562:.\main.c      ****                 HEADING_ERROR_LIMIT = 1;
 563:.\main.c      ****                 CyDelay(200);
 564:.\main.c      ****                 arm_set_level(0);
 565:.\main.c      ****                 CyDelay(200);
 566:.\main.c      ****                 drop_puck();
 567:.\main.c      ****                 go_forward_blind(200, 220);
 568:.\main.c      ****                 pickup_puck();
 569:.\main.c      ****                 CyDelay(200);
 570:.\main.c      ****                 arm_inbetween_level(1,2);
 571:.\main.c      ****                 while (get_mean_ultra() > 24){
 572:.\main.c      ****                     go_forward(400, 255);
 573:.\main.c      ****                     rotate_degrees(0);
 574:.\main.c      ****                     CyDelay(300);
 575:.\main.c      ****                 }
 576:.\main.c      ****                 ultra = get_mean_ultra();
 577:.\main.c      ****                 int stackable = 0;
 578:.\main.c      ****                 while (!within_range(14,ultra,15) && !stackable){
 579:.\main.c      ****                     ultra = get_mean_ultra();
 580:.\main.c      ****                     POS_PRINTF(1,0,"ULTRA: %d", ultra);
 581:.\main.c      ****                     if (ultra > 15){
 582:.\main.c      ****                         go_forward(200, 255);
 583:.\main.c      ****                         rotate_degrees(0);
 584:.\main.c      ****                         CyDelay(300);
 585:.\main.c      ****                     } else if (ultra < 14){
 586:.\main.c      ****                         go_backward(150,255);
 587:.\main.c      ****                         rotate_degrees(0);
 588:.\main.c      ****                         CyDelay(300);
 589:.\main.c      ****                     } else if (ultra == 14){
 590:.\main.c      ****                         stackable = 1;
 591:.\main.c      ****                     }
 592:.\main.c      ****                 }
 593:.\main.c      ****                 
 594:.\main.c      ****                 STALL_SPEED = BASE_STALL_SPEED;
 595:.\main.c      ****                 
 596:.\main.c      ****                 rotate_left(200);
 597:.\main.c      ****                 CyDelay(400);
 598:.\main.c      ****                 
 599:.\main.c      ****                 set_heading(271);
 600:.\main.c      ****                 rotate_degrees(0);
ARM GAS  C:\Users\xavieran\AppData\Local\Temp\ccJy6OMN.s 			page 19


 601:.\main.c      ****                 
 602:.\main.c      ****                 state = S_PLACE_PUCK;
 603:.\main.c      ****                 break;
 604:.\main.c      ****                 
 605:.\main.c      ****             case S_PLACE_PUCK:
 606:.\main.c      ****                 POS_PRINTF(0,0,"PLACING PUCK");
 607:.\main.c      ****                 //FIRST PUCK EVER!
 608:.\main.c      ****                 arm_set_level(4);
 609:.\main.c      ****                 
 610:.\main.c      ****                 if (pucks_gotten == 1){
 611:.\main.c      ****                     for (i = 0; i < 3; i++){
 612:.\main.c      ****                         go_forward_blind(300, 210);
 613:.\main.c      ****                         //rotate_degrees(0);
 614:.\main.c      ****                         CyDelay(600);
 615:.\main.c      ****                     }
 616:.\main.c      ****                     CyDelay(300);
 617:.\main.c      ****                     arm_inbetween_level(0,1);
 618:.\main.c      ****                     CyDelay(300);
 619:.\main.c      ****                     drop_puck();
 620:.\main.c      ****                     CyDelay(200);
 621:.\main.c      ****                     go_backward(1200, 255);
 622:.\main.c      ****                 } else {
 623:.\main.c      ****                     arm_set_level(pucks_gotten + 1);
 624:.\main.c      ****                     go_forward_blind(300, 200);
 625:.\main.c      ****                     //rotate_degrees(0);
 626:.\main.c      ****                     int on_stack = 0;
 627:.\main.c      ****                     while (!on_stack){
 628:.\main.c      ****                         POS_PRINTF(0,0,"STACKING!");
 629:.\main.c      ****                         POS_PRINTF(1, 0, "B%d SU%d", beam_broken(), get_mean_ultra_s());
 630:.\main.c      ****                         if (beam_broken()){
 631:.\main.c      ****                             POS_PRINTF(0,0,"BEAM BROKEN");
 632:.\main.c      ****                             on_stack = 1;
 633:.\main.c      ****                         } else if (get_mean_ultra_s() < 12){
 634:.\main.c      ****                             POS_PRINTF(0,0,"Close to stack");
 635:.\main.c      ****                             go_backward_blind(160, 170);
 636:.\main.c      ****                             //rotate_degrees(0);
 637:.\main.c      ****                             on_stack = 1;
 638:.\main.c      ****                         } else if (get_mean_ultra_s() > 17) {
 639:.\main.c      ****                             POS_PRINTF(0,0,"FAR FROM STACK");
 640:.\main.c      ****                             go_forward_blind(160, 170);
 641:.\main.c      ****                             //rotate_degrees(0);
 642:.\main.c      ****                         } else {
 643:.\main.c      ****                             POS_PRINTF(0,0,"between 12 and 17");
 644:.\main.c      ****                             go_forward_blind(160, 170);
 645:.\main.c      ****                             //rotate_degrees(0);
 646:.\main.c      ****                         }
 647:.\main.c      ****                         CyDelay(300);
 648:.\main.c      ****                     }
 649:.\main.c      ****                     
 650:.\main.c      ****                     #define LEVEL_1_DIST 14
 651:.\main.c      ****                     #define LEVEL_2_DIST 15
 652:.\main.c      ****                     #define LEVEL_3_DIST 16
 653:.\main.c      ****                     
 654:.\main.c      ****                     int ultra = get_mean_ultra_s();
 655:.\main.c      ****                     int stackable = 0;
 656:.\main.c      ****                     switch (pucks_gotten){
 657:.\main.c      ****                         case 2:
ARM GAS  C:\Users\xavieran\AppData\Local\Temp\ccJy6OMN.s 			page 20


 658:.\main.c      ****                             while (!within_range(LEVEL_1_DIST,ultra,LEVEL_1_DIST + 1) && !stackable
 659:.\main.c      ****                                 ultra = get_mean_ultra_s();
 660:.\main.c      ****                                 POS_PRINTF(1,0,"ULTRA: %d", ultra);
 661:.\main.c      ****                                 if (ultra > LEVEL_1_DIST + 1){
 662:.\main.c      ****                                     go_forward_blind(160, 160);
 663:.\main.c      ****                                     //rotate_degrees(0);
 664:.\main.c      ****                                     CyDelay(300);
 665:.\main.c      ****                                 } else if (ultra < LEVEL_1_DIST){
 666:.\main.c      ****                                     go_backward_blind(150,160);
 667:.\main.c      ****                                     //rotate_degrees(0);
 668:.\main.c      ****                                     CyDelay(300);
 669:.\main.c      ****                                 } else if (ultra == LEVEL_1_DIST){
 670:.\main.c      ****                                     stackable = 1;
 671:.\main.c      ****                                 }
 672:.\main.c      ****                             }
 673:.\main.c      ****                             break;   
 674:.\main.c      ****                         case 3:
 675:.\main.c      ****                             while (!within_range(LEVEL_2_DIST,ultra,LEVEL_2_DIST+1) && !stackable){
 676:.\main.c      ****                                 ultra = get_mean_ultra_s();
 677:.\main.c      ****                                 POS_PRINTF(1,0,"ULTRA: %d", ultra);
 678:.\main.c      ****                                 if (ultra > LEVEL_2_DIST + 1){
 679:.\main.c      ****                                     go_forward_blind(160, 160);
 680:.\main.c      ****                                     //rotate_degrees(0);
 681:.\main.c      ****                                     CyDelay(300);
 682:.\main.c      ****                                 } else if (ultra < LEVEL_2_DIST){
 683:.\main.c      ****                                     go_backward_blind(150,160);
 684:.\main.c      ****                                     //rotate_degrees(0);
 685:.\main.c      ****                                     CyDelay(300);
 686:.\main.c      ****                                 } else if (ultra == LEVEL_2_DIST){
 687:.\main.c      ****                                     stackable = 1;
 688:.\main.c      ****                                 }
 689:.\main.c      ****                             }
 690:.\main.c      ****                             break;
 691:.\main.c      ****                         case 4:
 692:.\main.c      ****                             while (!within_range(LEVEL_3_DIST,ultra,LEVEL_3_DIST+10) && !stackable)
 693:.\main.c      ****                                 ultra = get_mean_ultra_s();
 694:.\main.c      ****                                 POS_PRINTF(1,0,"ULTRA: %d", ultra);
 695:.\main.c      ****                                 if (ultra > LEVEL_3_DIST + 1){
 696:.\main.c      ****                                     go_forward_blind(200, 170);
 697:.\main.c      ****                                     //rotate_degrees(0);
 698:.\main.c      ****                                     CyDelay(300);
 699:.\main.c      ****                                 } else if (ultra < LEVEL_3_DIST){
 700:.\main.c      ****                                     go_backward_blind(200,170);
 701:.\main.c      ****                                     //rotate_degrees(0);
 702:.\main.c      ****                                     CyDelay(300);
 703:.\main.c      ****                                 } else if (ultra == LEVEL_3_DIST){
 704:.\main.c      ****                                     stackable = 1;
 705:.\main.c      ****                                 }
 706:.\main.c      ****                             }
 707:.\main.c      ****                             break;
 708:.\main.c      ****                     }
 709:.\main.c      ****                     arm_inbetween_level(pucks_gotten - 1, pucks_gotten);
 710:.\main.c      ****                     CyDelay(800);
 711:.\main.c      ****                     drop_puck();
 712:.\main.c      ****                     CyDelay(200);
 713:.\main.c      ****                     go_backward(1200, 255);
 714:.\main.c      ****                     arm_carry_home();
ARM GAS  C:\Users\xavieran\AppData\Local\Temp\ccJy6OMN.s 			page 21


 715:.\main.c      ****                     arm_set_level(0);
 716:.\main.c      ****                     CyDelay(200);
 717:.\main.c      ****                 }
 718:.\main.c      ****                 
 719:.\main.c      ****                 HEADING_ERROR_LIMIT = 3;
 720:.\main.c      ****                 set_heading(0);
 721:.\main.c      ****                 rotate_degrees(0);
 722:.\main.c      ****                 go_backward(1500, 255);
 723:.\main.c      ****                 
 724:.\main.c      ****                 if (pucks_gotten == 4){
 725:.\main.c      ****                     state = S_GRAB_BEACON;
 726:.\main.c      ****                 } else {
 727:.\main.c      ****                     state = S_LEAVE_BASE;
 728:.\main.c      ****                 }
 729:.\main.c      ****                 break;
 730:.\main.c      ****             case S_GRAB_BEACON:
 731:.\main.c      ****                 POS_PRINTF(0,0,"GOT HOME");
 732:.\main.c      ****                 set_heading(0);
 733:.\main.c      ****                 rotate_degrees(0);
 734:.\main.c      ****                 arm_set_level(6);
 735:.\main.c      ****                 go_forward(500, 255);
 736:.\main.c      ****                 CyDelay(500);
 737:.\main.c      ****                 pickup_angled_puck();
 738:.\main.c      ****                 go_backward(300, 255);
 739:.\main.c      ****                 break;
 740:.\main.c      ****             case S_GOT_HOME:
 741:.\main.c      ****                 POS_PRINTF(0,0,"VICTORY!!!");
 742:.\main.c      ****                 break;
 743:.\main.c      ****         }
 744:.\main.c      ****     }
 335              		.loc 1 744 0
 336 007c 00BF     		nop
 337              	.L103:
 216:.\main.c      ****         if (but0_b){
 338              		.loc 1 216 0
 339 007e B24B     		ldr	r3, .L108+12
 340 0080 1B78     		ldrb	r3, [r3]
 341 0082 DBB2     		uxtb	r3, r3
 342 0084 002B     		cmp	r3, #0
 343 0086 24D0     		beq	.L11
 217:.\main.c      ****             if (state > S_FIND_PUCK){
 344              		.loc 1 217 0
 345 0088 B7F85630 		ldrh	r3, [r7, #86]
 346 008c 032B     		cmp	r3, #3
 347 008e 02D9     		bls	.L12
 218:.\main.c      ****                 pucks_gotten--;
 348              		.loc 1 218 0
 349 0090 3B6D     		ldr	r3, [r7, #80]
 350 0092 013B     		subs	r3, r3, #1
 351 0094 3B65     		str	r3, [r7, #80]
 352              	.L12:
 220:.\main.c      ****             state = S_LEAVE_BASE;
 353              		.loc 1 220 0
 354 0096 0123     		movs	r3, #1
 355 0098 A7F85630 		strh	r3, [r7, #86]	@ movhi
 221:.\main.c      ****             POS_PRINTF(0,0,"RST TO LEAVE BASE");
 356              		.loc 1 221 0
ARM GAS  C:\Users\xavieran\AppData\Local\Temp\ccJy6OMN.s 			page 22


 357 009c AB4A     		ldr	r2, .L108+16
 358 009e AC4B     		ldr	r3, .L108+20
 359 00a0 1446     		mov	r4, r2
 360 00a2 1D46     		mov	r5, r3
 361 00a4 0FCD     		ldmia	r5!, {r0, r1, r2, r3}
 362 00a6 0FC4     		stmia	r4!, {r0, r1, r2, r3}
 363 00a8 2B68     		ldr	r3, [r5]
 364 00aa 2380     		strh	r3, [r4]	@ movhi
 365 00ac 0020     		movs	r0, #0
 366 00ae 0021     		movs	r1, #0
 367 00b0 FFF7FEFF 		bl	LCD_Position
 368 00b4 A548     		ldr	r0, .L108+16
 369 00b6 FFF7FEFF 		bl	LCD_PrintString
 222:.\main.c      ****             but0_b = 0;
 370              		.loc 1 222 0
 371 00ba A34B     		ldr	r3, .L108+12
 372 00bc 0022     		movs	r2, #0
 373 00be 1A70     		strb	r2, [r3]
 224:.\main.c      ****             while (!but0_b){;}
 374              		.loc 1 224 0
 375 00c0 00BF     		nop
 376              	.L13:
 224:.\main.c      ****             while (!but0_b){;}
 377              		.loc 1 224 0 is_stmt 0 discriminator 1
 378 00c2 A14B     		ldr	r3, .L108+12
 379 00c4 1B78     		ldrb	r3, [r3]
 380 00c6 DBB2     		uxtb	r3, r3
 381 00c8 002B     		cmp	r3, #0
 382 00ca FAD0     		beq	.L13
 225:.\main.c      ****             but0_b = 0;
 383              		.loc 1 225 0 is_stmt 1
 384 00cc 9E4B     		ldr	r3, .L108+12
 385 00ce 0022     		movs	r2, #0
 386 00d0 1A70     		strb	r2, [r3]
 387              	.L11:
 228:.\main.c      ****         switch(state){
 388              		.loc 1 228 0
 389 00d2 B7F85630 		ldrh	r3, [r7, #86]
 390 00d6 0E2B     		cmp	r3, #14
 391 00d8 D0D8     		bhi	.L104
 392 00da 01A2     		adr	r2, .L16
 393 00dc 52F823F0 		ldr	pc, [r2, r3, lsl #2]
 394              		.p2align 2
 395              	.L16:
 396 00e0 1D010000 		.word	.L15+1
 397 00e4 47020000 		.word	.L17+1
 398 00e8 8B020000 		.word	.L18+1
 399 00ec F3020000 		.word	.L19+1
 400 00f0 BD050000 		.word	.L20+1
 401 00f4 9B050000 		.word	.L21+1
 402 00f8 19100000 		.word	.L22+1
 403 00fc 7D000000 		.word	.L104+1
 404 0100 21060000 		.word	.L23+1
 405 0104 A1060000 		.word	.L24+1
 406 0108 F3090000 		.word	.L25+1
 407 010c CF0A0000 		.word	.L26+1
 408 0110 FF0B0000 		.word	.L27+1
ARM GAS  C:\Users\xavieran\AppData\Local\Temp\ccJy6OMN.s 			page 23


 409 0114 69090000 		.word	.L28+1
 410 0118 CD0F0000 		.word	.L29+1
 411              		.p2align 1
 412              	.L15:
 413              	.LBB2:
 230:.\main.c      ****                 pickup_angled_puck();
 414              		.loc 1 230 0
 415 011c FFF7FEFF 		bl	pickup_angled_puck
 231:.\main.c      ****                 CyDelay(1000);
 416              		.loc 1 231 0
 417 0120 4FF47A70 		mov	r0, #1000
 418 0124 FFF7FEFF 		bl	CyDelay
 232:.\main.c      ****                 go_backward(250, 255);
 419              		.loc 1 232 0
 420 0128 FA20     		movs	r0, #250
 421 012a FF21     		movs	r1, #255
 422 012c FFF7FEFF 		bl	go_backward
 233:.\main.c      ****                 arm_set_level(6);
 423              		.loc 1 233 0
 424 0130 0620     		movs	r0, #6
 425 0132 FFF7FEFF 		bl	arm_set_level
 234:.\main.c      ****                 CyDelay(1000);
 426              		.loc 1 234 0
 427 0136 4FF47A70 		mov	r0, #1000
 428 013a FFF7FEFF 		bl	CyDelay
 235:.\main.c      ****                 setForward(MBOTH);
 429              		.loc 1 235 0
 430 013e 0320     		movs	r0, #3
 431 0140 FFF7FEFF 		bl	setForward
 236:.\main.c      ****                 setSpeed(MBOTH, 200);
 432              		.loc 1 236 0
 433 0144 0320     		movs	r0, #3
 434 0146 C821     		movs	r1, #200
 435 0148 FFF7FEFF 		bl	setSpeed
 237:.\main.c      ****                 CyDelay(1000);
 436              		.loc 1 237 0
 437 014c 4FF47A70 		mov	r0, #1000
 438 0150 FFF7FEFF 		bl	CyDelay
 238:.\main.c      ****                 setCoast(MBOTH);
 439              		.loc 1 238 0
 440 0154 0320     		movs	r0, #3
 441 0156 FFF7FEFF 		bl	setCoast
 239:.\main.c      ****                 pickup_puck();
 442              		.loc 1 239 0
 443 015a FFF7FEFF 		bl	pickup_puck
 240:.\main.c      ****                 CyDelay(500);
 444              		.loc 1 240 0
 445 015e 4FF4FA70 		mov	r0, #500
 446 0162 FFF7FEFF 		bl	CyDelay
 241:.\main.c      ****                 drop_puck();
 447              		.loc 1 241 0
 448 0166 FFF7FEFF 		bl	drop_puck
 242:.\main.c      ****                 CyDelay(500);
 449              		.loc 1 242 0
 450 016a 4FF4FA70 		mov	r0, #500
 451 016e FFF7FEFF 		bl	CyDelay
 243:.\main.c      ****                 go_backward_blind(280, 180);
ARM GAS  C:\Users\xavieran\AppData\Local\Temp\ccJy6OMN.s 			page 24


 452              		.loc 1 243 0
 453 0172 4FF48C70 		mov	r0, #280
 454 0176 B421     		movs	r1, #180
 455 0178 FFF7FEFF 		bl	go_backward_blind
 244:.\main.c      ****                 POS_PRINTF(0,0,"DROPPED BEACON");
 456              		.loc 1 244 0
 457 017c 734A     		ldr	r2, .L108+16
 458 017e 754B     		ldr	r3, .L108+24
 459 0180 1446     		mov	r4, r2
 460 0182 0FCB     		ldmia	r3, {r0, r1, r2, r3}
 461 0184 07C4     		stmia	r4!, {r0, r1, r2}
 462 0186 2380     		strh	r3, [r4]	@ movhi
 463 0188 0234     		adds	r4, r4, #2
 464 018a 1B0C     		lsrs	r3, r3, #16
 465 018c 2370     		strb	r3, [r4]
 466 018e 0020     		movs	r0, #0
 467 0190 0021     		movs	r1, #0
 468 0192 FFF7FEFF 		bl	LCD_Position
 469 0196 6D48     		ldr	r0, .L108+16
 470 0198 FFF7FEFF 		bl	LCD_PrintString
 246:.\main.c      ****                 arm_set_level(1);
 471              		.loc 1 246 0
 472 019c 0120     		movs	r0, #1
 473 019e FFF7FEFF 		bl	arm_set_level
 247:.\main.c      ****                 CyDelay(500);
 474              		.loc 1 247 0
 475 01a2 4FF4FA70 		mov	r0, #500
 476 01a6 FFF7FEFF 		bl	CyDelay
 248:.\main.c      ****                 LCD_PosPrintString(0,0,"STARTING CAM");
 477              		.loc 1 248 0
 478 01aa 0020     		movs	r0, #0
 479 01ac 0021     		movs	r1, #0
 480 01ae FFF7FEFF 		bl	LCD_Position
 481 01b2 6948     		ldr	r0, .L108+28
 482 01b4 FFF7FEFF 		bl	LCD_PrintString
 249:.\main.c      ****                 init_camera();
 483              		.loc 1 249 0
 484 01b8 FFF7FEFF 		bl	init_camera
 250:.\main.c      ****                 LCD_PosPrintString(0,0, "CAMERA STARTED!!!");
 485              		.loc 1 250 0
 486 01bc 0020     		movs	r0, #0
 487 01be 0021     		movs	r1, #0
 488 01c0 FFF7FEFF 		bl	LCD_Position
 489 01c4 6548     		ldr	r0, .L108+32
 490 01c6 FFF7FEFF 		bl	LCD_PrintString
 252:.\main.c      ****                 arm_set_level(0);
 491              		.loc 1 252 0
 492 01ca 0020     		movs	r0, #0
 493 01cc FFF7FEFF 		bl	arm_set_level
 253:.\main.c      ****                 CyDelay(500);
 494              		.loc 1 253 0
 495 01d0 4FF4FA70 		mov	r0, #500
 496 01d4 FFF7FEFF 		bl	CyDelay
 254:.\main.c      ****                 set_gain_exposure(2);
 497              		.loc 1 254 0
 498 01d8 0220     		movs	r0, #2
 499 01da FFF7FEFF 		bl	set_gain_exposure
ARM GAS  C:\Users\xavieran\AppData\Local\Temp\ccJy6OMN.s 			page 25


 255:.\main.c      ****                 capture_thresh_image();
 500              		.loc 1 255 0
 501 01de FFF7FEFF 		bl	capture_thresh_image
 256:.\main.c      ****                 sideways_instruction_read();
 502              		.loc 1 256 0
 503 01e2 FFF7FEFF 		bl	sideways_instruction_read
 257:.\main.c      ****                 set_gain_exposure(1);
 504              		.loc 1 257 0
 505 01e6 0120     		movs	r0, #1
 506 01e8 FFF7FEFF 		bl	set_gain_exposure
 258:.\main.c      ****                 POS_PRINTF(0,0,"Read Instructions");
 507              		.loc 1 258 0
 508 01ec 574A     		ldr	r2, .L108+16
 509 01ee 5C4B     		ldr	r3, .L108+36
 510 01f0 1446     		mov	r4, r2
 511 01f2 1D46     		mov	r5, r3
 512 01f4 0FCD     		ldmia	r5!, {r0, r1, r2, r3}
 513 01f6 0FC4     		stmia	r4!, {r0, r1, r2, r3}
 514 01f8 2B68     		ldr	r3, [r5]
 515 01fa 2380     		strh	r3, [r4]	@ movhi
 516 01fc 0020     		movs	r0, #0
 517 01fe 0021     		movs	r1, #0
 518 0200 FFF7FEFF 		bl	LCD_Position
 519 0204 5148     		ldr	r0, .L108+16
 520 0206 FFF7FEFF 		bl	LCD_PrintString
 259:.\main.c      ****                 POS_PRINTF(1,0,"%d %d %d %d", stack[3], stack[2], stack[1], stack[0]);
 521              		.loc 1 259 0
 522 020a 564B     		ldr	r3, .L108+40
 523 020c DA68     		ldr	r2, [r3, #12]
 524 020e 554B     		ldr	r3, .L108+40
 525 0210 9B68     		ldr	r3, [r3, #8]
 526 0212 5449     		ldr	r1, .L108+40
 527 0214 4868     		ldr	r0, [r1, #4]
 528 0216 5349     		ldr	r1, .L108+40
 529 0218 0968     		ldr	r1, [r1]
 530 021a 0090     		str	r0, [sp]
 531 021c 0191     		str	r1, [sp, #4]
 532 021e 4B48     		ldr	r0, .L108+16
 533 0220 5149     		ldr	r1, .L108+44
 534 0222 FFF7FEFF 		bl	sprintf
 535 0226 0120     		movs	r0, #1
 536 0228 0021     		movs	r1, #0
 537 022a FFF7FEFF 		bl	LCD_Position
 538 022e 4748     		ldr	r0, .L108+16
 539 0230 FFF7FEFF 		bl	LCD_PrintString
 260:.\main.c      ****                 CyDelay(1000);
 540              		.loc 1 260 0
 541 0234 4FF47A70 		mov	r0, #1000
 542 0238 FFF7FEFF 		bl	CyDelay
 261:.\main.c      ****                 state = S_LEAVE_BASE;
 543              		.loc 1 261 0
 544 023c 0123     		movs	r3, #1
 545 023e A7F85630 		strh	r3, [r7, #86]	@ movhi
 262:.\main.c      ****                 break;
 546              		.loc 1 262 0
 547 0242 00F0F9BE 		b	.L14
 548              	.L17:
ARM GAS  C:\Users\xavieran\AppData\Local\Temp\ccJy6OMN.s 			page 26


 265:.\main.c      ****                 arm_set_level(0);
 549              		.loc 1 265 0
 550 0246 0020     		movs	r0, #0
 551 0248 FFF7FEFF 		bl	arm_set_level
 266:.\main.c      ****                 go_backward_ultra(60, 255);
 552              		.loc 1 266 0
 553 024c 3C20     		movs	r0, #60
 554 024e FF21     		movs	r1, #255
 555 0250 FFF7FEFF 		bl	go_backward_ultra
 267:.\main.c      ****                 state = S_LEFT_BASE;
 556              		.loc 1 267 0
 557 0254 0223     		movs	r3, #2
 558 0256 A7F85630 		strh	r3, [r7, #86]	@ movhi
 268:.\main.c      ****                 current_color = stack[(4 - pucks_gotten) - 1];
 559              		.loc 1 268 0
 560 025a 3B6D     		ldr	r3, [r7, #80]
 561 025c C3F10302 		rsb	r2, r3, #3
 562 0260 404B     		ldr	r3, .L108+40
 563 0262 53F82230 		ldr	r3, [r3, r2, lsl #2]
 564 0266 FB64     		str	r3, [r7, #76]
 269:.\main.c      ****                 if (current_color == 0){
 565              		.loc 1 269 0
 566 0268 FB6C     		ldr	r3, [r7, #76]
 567 026a 002B     		cmp	r3, #0
 568 026c 02D1     		bne	.L30
 270:.\main.c      ****                     current_color = RED;
 569              		.loc 1 270 0
 570 026e 0123     		movs	r3, #1
 571 0270 FB64     		str	r3, [r7, #76]
 572 0272 05E0     		b	.L31
 573              	.L30:
 271:.\main.c      ****                 } else if (current_color == 839192){
 574              		.loc 1 271 0
 575 0274 FA6C     		ldr	r2, [r7, #76]
 576 0276 3D4B     		ldr	r3, .L108+48
 577 0278 9A42     		cmp	r2, r3
 578 027a 01D1     		bne	.L31
 272:.\main.c      ****                     current_color = RED;
 579              		.loc 1 272 0
 580 027c 0123     		movs	r3, #1
 581 027e FB64     		str	r3, [r7, #76]
 582              	.L31:
 274:.\main.c      ****                 STALL_SPEED = ARENA_STALL_SPEED;
 583              		.loc 1 274 0
 584 0280 3B4B     		ldr	r3, .L108+52
 585 0282 9622     		movs	r2, #150
 586 0284 1A70     		strb	r2, [r3]
 275:.\main.c      ****                 break;
 587              		.loc 1 275 0
 588 0286 00F0D7BE 		b	.L14
 589              	.L18:
 278:.\main.c      ****                 set_heading(90);
 590              		.loc 1 278 0
 591 028a 5A20     		movs	r0, #90
 592 028c FFF7FEFF 		bl	set_heading
 279:.\main.c      ****                 rotate_degrees(0);
 593              		.loc 1 279 0
ARM GAS  C:\Users\xavieran\AppData\Local\Temp\ccJy6OMN.s 			page 27


 594 0290 0020     		movs	r0, #0
 595 0292 FFF7FEFF 		bl	rotate_degrees
 280:.\main.c      ****                 CyDelay(500);
 596              		.loc 1 280 0
 597 0296 4FF4FA70 		mov	r0, #500
 598 029a FFF7FEFF 		bl	CyDelay
 281:.\main.c      ****                 go_backward(1200, 255);
 599              		.loc 1 281 0
 600 029e 4FF49660 		mov	r0, #1200
 601 02a2 FF21     		movs	r1, #255
 602 02a4 FFF7FEFF 		bl	go_backward
 282:.\main.c      ****                 CyDelay(500);
 603              		.loc 1 282 0
 604 02a8 4FF4FA70 		mov	r0, #500
 605 02ac FFF7FEFF 		bl	CyDelay
 284:.\main.c      ****                 rotate_right(255);
 606              		.loc 1 284 0
 607 02b0 FF20     		movs	r0, #255
 608 02b2 FFF7FEFF 		bl	rotate_right
 285:.\main.c      ****                 CyDelay(300);
 609              		.loc 1 285 0
 610 02b6 4FF49670 		mov	r0, #300
 611 02ba FFF7FEFF 		bl	CyDelay
 286:.\main.c      ****                 setCoast(MBOTH);
 612              		.loc 1 286 0
 613 02be 0320     		movs	r0, #3
 614 02c0 FFF7FEFF 		bl	setCoast
 287:.\main.c      ****                 set_heading(180);
 615              		.loc 1 287 0
 616 02c4 B420     		movs	r0, #180
 617 02c6 FFF7FEFF 		bl	set_heading
 288:.\main.c      ****                 rotate_degrees(0);
 618              		.loc 1 288 0
 619 02ca 0020     		movs	r0, #0
 620 02cc FFF7FEFF 		bl	rotate_degrees
 289:.\main.c      ****                 CyDelay(500);
 621              		.loc 1 289 0
 622 02d0 4FF4FA70 		mov	r0, #500
 623 02d4 FFF7FEFF 		bl	CyDelay
 290:.\main.c      ****                 start_time_find_puck = Timer_ReadCounter();
 624              		.loc 1 290 0
 625 02d8 FFF7FEFF 		bl	Timer_ReadCounter
 626 02dc 0346     		mov	r3, r0
 627 02de 7B64     		str	r3, [r7, #68]
 291:.\main.c      ****                 state = S_FIND_PUCK;
 628              		.loc 1 291 0
 629 02e0 0323     		movs	r3, #3
 630 02e2 A7F85630 		strh	r3, [r7, #86]	@ movhi
 292:.\main.c      ****                 twitching_l = 0;
 631              		.loc 1 292 0
 632 02e6 0023     		movs	r3, #0
 633 02e8 3B64     		str	r3, [r7, #64]
 293:.\main.c      ****                 twitching_r =0;
 634              		.loc 1 293 0
 635 02ea 0023     		movs	r3, #0
 636 02ec FB63     		str	r3, [r7, #60]
 294:.\main.c      ****                 break;
ARM GAS  C:\Users\xavieran\AppData\Local\Temp\ccJy6OMN.s 			page 28


 637              		.loc 1 294 0
 638 02ee 00F0A3BE 		b	.L14
 639              	.L19:
 297:.\main.c      ****                 POS_PRINTF(1,0,"FIND %d of %d", current_color, pucks_gotten);
 640              		.loc 1 297 0
 641 02f2 1648     		ldr	r0, .L108+16
 642 02f4 1F49     		ldr	r1, .L108+56
 643 02f6 FA6C     		ldr	r2, [r7, #76]
 644 02f8 3B6D     		ldr	r3, [r7, #80]
 645 02fa FFF7FEFF 		bl	sprintf
 646 02fe 0120     		movs	r0, #1
 647 0300 0021     		movs	r1, #0
 648 0302 FFF7FEFF 		bl	LCD_Position
 649 0306 1148     		ldr	r0, .L108+16
 650 0308 FFF7FEFF 		bl	LCD_PrintString
 298:.\main.c      ****                 if (start_time_find_puck - Timer_ReadCounter() > 10 * 35000){
 651              		.loc 1 298 0
 652 030c 7C6C     		ldr	r4, [r7, #68]
 653 030e FFF7FEFF 		bl	Timer_ReadCounter
 654 0312 0346     		mov	r3, r0
 655 0314 E21A     		subs	r2, r4, r3
 656 0316 184B     		ldr	r3, .L108+60
 657 0318 9A42     		cmp	r2, r3
 658 031a 47D9     		bls	.L32
 299:.\main.c      ****                     set_heading(180);
 659              		.loc 1 299 0
 660 031c B420     		movs	r0, #180
 661 031e FFF7FEFF 		bl	set_heading
 300:.\main.c      ****                     go_backward_blind(1000, 255);
 662              		.loc 1 300 0
 663 0322 4FF47A70 		mov	r0, #1000
 664 0326 FF21     		movs	r1, #255
 665 0328 FFF7FEFF 		bl	go_backward_blind
 301:.\main.c      ****                     CyDelay(100);
 666              		.loc 1 301 0
 667 032c 6420     		movs	r0, #100
 668 032e FFF7FEFF 		bl	CyDelay
 302:.\main.c      ****                     set_heading(0);
 669              		.loc 1 302 0
 670 0332 0020     		movs	r0, #0
 671 0334 FFF7FEFF 		bl	set_heading
 303:.\main.c      ****                     while (get_mean_ultra() > 80){
 672              		.loc 1 303 0
 673 0338 29E0     		b	.L33
 674              	.L109:
 675 033a 00BF     		.align	2
 676              	.L108:
 677 033c 00000000 		.word	compass_ready
 678 0340 00000000 		.word	compass_heading
 679 0344 00000000 		.word	original_compass_heading
 680 0348 00000000 		.word	but0_b
 681 034c 00000000 		.word	outString
 682 0350 00000000 		.word	.LC0
 683 0354 14000000 		.word	.LC1
 684 0358 24000000 		.word	.LC2
 685 035c 34000000 		.word	.LC3
 686 0360 48000000 		.word	.LC4
ARM GAS  C:\Users\xavieran\AppData\Local\Temp\ccJy6OMN.s 			page 29


 687 0364 00000000 		.word	stack
 688 0368 5C000000 		.word	.LC5
 689 036c 18CE0C00 		.word	839192
 690 0370 00000000 		.word	STALL_SPEED
 691 0374 68000000 		.word	.LC6
 692 0378 30570500 		.word	350000
 693              	.L34:
 304:.\main.c      ****                         go_forward(700, 255);
 694              		.loc 1 304 0
 695 037c 4FF42F70 		mov	r0, #700
 696 0380 FF21     		movs	r1, #255
 697 0382 FFF7FEFF 		bl	go_forward
 305:.\main.c      ****                         CyDelay(300);
 698              		.loc 1 305 0
 699 0386 4FF49670 		mov	r0, #300
 700 038a FFF7FEFF 		bl	CyDelay
 701              	.L33:
 303:.\main.c      ****                     while (get_mean_ultra() > 80){
 702              		.loc 1 303 0 discriminator 1
 703 038e FFF7FEFF 		bl	get_mean_ultra
 704 0392 0346     		mov	r3, r0
 705 0394 502B     		cmp	r3, #80
 706 0396 F1D8     		bhi	.L34
 307:.\main.c      ****                     set_heading(180);
 707              		.loc 1 307 0
 708 0398 B420     		movs	r0, #180
 709 039a FFF7FEFF 		bl	set_heading
 308:.\main.c      ****                     rotate_degrees(0);
 710              		.loc 1 308 0
 711 039e 0020     		movs	r0, #0
 712 03a0 FFF7FEFF 		bl	rotate_degrees
 309:.\main.c      ****                     start_time_find_puck = Timer_ReadCounter();
 713              		.loc 1 309 0
 714 03a4 FFF7FEFF 		bl	Timer_ReadCounter
 715 03a8 0346     		mov	r3, r0
 716 03aa 7B64     		str	r3, [r7, #68]
 717              	.L32:
 311:.\main.c      ****                 CyDelay(300);
 718              		.loc 1 311 0
 719 03ac 4FF49670 		mov	r0, #300
 720 03b0 FFF7FEFF 		bl	CyDelay
 312:.\main.c      ****                 capture_thresh_image();
 721              		.loc 1 312 0
 722 03b4 FFF7FEFF 		bl	capture_thresh_image
 313:.\main.c      ****                 int pucks = to_nearest_blob(current_color, 30, 10);
 723              		.loc 1 313 0
 724 03b8 F86C     		ldr	r0, [r7, #76]
 725 03ba 1E21     		movs	r1, #30
 726 03bc 0A22     		movs	r2, #10
 727 03be FFF7FEFF 		bl	to_nearest_blob
 728 03c2 3861     		str	r0, [r7, #16]
 315:.\main.c      ****                 if (pucks == 0){
 729              		.loc 1 315 0
 730 03c4 3B69     		ldr	r3, [r7, #16]
 731 03c6 002B     		cmp	r3, #0
 732 03c8 40F08580 		bne	.L35
 316:.\main.c      ****                     h_left = 0;
ARM GAS  C:\Users\xavieran\AppData\Local\Temp\ccJy6OMN.s 			page 30


 733              		.loc 1 316 0
 734 03cc 0023     		movs	r3, #0
 735 03ce BB63     		str	r3, [r7, #56]
 317:.\main.c      ****                     twitching_r = 0;
 736              		.loc 1 317 0
 737 03d0 0023     		movs	r3, #0
 738 03d2 FB63     		str	r3, [r7, #60]
 318:.\main.c      ****                     twitching_l = 0;
 739              		.loc 1 318 0
 740 03d4 0023     		movs	r3, #0
 741 03d6 3B64     		str	r3, [r7, #64]
 320:.\main.c      ****                     go_forward(1000, 255);
 742              		.loc 1 320 0
 743 03d8 4FF47A70 		mov	r0, #1000
 744 03dc FF21     		movs	r1, #255
 745 03de FFF7FEFF 		bl	go_forward
 321:.\main.c      ****                     pickup_angled_puck();
 746              		.loc 1 321 0
 747 03e2 FFF7FEFF 		bl	pickup_angled_puck
 322:.\main.c      ****                     CyDelay(200);
 748              		.loc 1 322 0
 749 03e6 C820     		movs	r0, #200
 750 03e8 FFF7FEFF 		bl	CyDelay
 323:.\main.c      ****                     drop_puck();
 751              		.loc 1 323 0
 752 03ec FFF7FEFF 		bl	drop_puck
 324:.\main.c      ****                     CyDelay(200);
 753              		.loc 1 324 0
 754 03f0 C820     		movs	r0, #200
 755 03f2 FFF7FEFF 		bl	CyDelay
 325:.\main.c      ****                     if (beam_broken()){
 756              		.loc 1 325 0
 757 03f6 FFF7FEFF 		bl	beam_broken
 758 03fa 0346     		mov	r3, r0
 759 03fc 002B     		cmp	r3, #0
 760 03fe 69D0     		beq	.L36
 761              	.LBB3:
 326:.\main.c      ****                         go_forward(300, 255);
 762              		.loc 1 326 0
 763 0400 4FF49670 		mov	r0, #300
 764 0404 FF21     		movs	r1, #255
 765 0406 FFF7FEFF 		bl	go_forward
 327:.\main.c      ****                         pickup_puck();
 766              		.loc 1 327 0
 767 040a FFF7FEFF 		bl	pickup_puck
 328:.\main.c      ****                         CyDelay(100);
 768              		.loc 1 328 0
 769 040e 6420     		movs	r0, #100
 770 0410 FFF7FEFF 		bl	CyDelay
 330:.\main.c      ****                         arm_carry_home();
 771              		.loc 1 330 0
 772 0414 FFF7FEFF 		bl	arm_carry_home
 332:.\main.c      ****                         arm_set_level(0);
 773              		.loc 1 332 0
 774 0418 0020     		movs	r0, #0
 775 041a FFF7FEFF 		bl	arm_set_level
 333:.\main.c      ****                         CyDelay(300);
ARM GAS  C:\Users\xavieran\AppData\Local\Temp\ccJy6OMN.s 			page 31


 776              		.loc 1 333 0
 777 041e 4FF49670 		mov	r0, #300
 778 0422 FFF7FEFF 		bl	CyDelay
 334:.\main.c      ****                         set_gain_exposure(2);
 779              		.loc 1 334 0
 780 0426 0220     		movs	r0, #2
 781 0428 FFF7FEFF 		bl	set_gain_exposure
 335:.\main.c      ****                         capture_thresh_image();
 782              		.loc 1 335 0
 783 042c FFF7FEFF 		bl	capture_thresh_image
 336:.\main.c      ****                         int color = identify_colour_gripper();
 784              		.loc 1 336 0
 785 0430 FFF7FEFF 		bl	identify_colour_gripper
 786 0434 F860     		str	r0, [r7, #12]
 337:.\main.c      ****                         set_gain_exposure(1);
 787              		.loc 1 337 0
 788 0436 0120     		movs	r0, #1
 789 0438 FFF7FEFF 		bl	set_gain_exposure
 338:.\main.c      ****                         POS_PRINTF(0,0,"SEE C: %d", color);
 790              		.loc 1 338 0
 791 043c 9348     		ldr	r0, .L110
 792 043e 9449     		ldr	r1, .L110+4
 793 0440 FA68     		ldr	r2, [r7, #12]
 794 0442 FFF7FEFF 		bl	sprintf
 795 0446 0020     		movs	r0, #0
 796 0448 0021     		movs	r1, #0
 797 044a FFF7FEFF 		bl	LCD_Position
 798 044e 8F48     		ldr	r0, .L110
 799 0450 FFF7FEFF 		bl	LCD_PrintString
 339:.\main.c      ****                         if (color != current_color){
 800              		.loc 1 339 0
 801 0454 FA68     		ldr	r2, [r7, #12]
 802 0456 FB6C     		ldr	r3, [r7, #76]
 803 0458 9A42     		cmp	r2, r3
 804 045a 22D0     		beq	.L37
 805              	.LBB4:
 340:.\main.c      ****                             int old_heading = compass_heading;
 806              		.loc 1 340 0
 807 045c 8D4B     		ldr	r3, .L110+8
 808 045e 1B88     		ldrh	r3, [r3]
 809 0460 1BB2     		sxth	r3, r3
 810 0462 BB60     		str	r3, [r7, #8]
 341:.\main.c      ****                             rotate_degrees(45);
 811              		.loc 1 341 0
 812 0464 2D20     		movs	r0, #45
 813 0466 FFF7FEFF 		bl	rotate_degrees
 342:.\main.c      ****                             go_forward(500, 255);
 814              		.loc 1 342 0
 815 046a 4FF4FA70 		mov	r0, #500
 816 046e FF21     		movs	r1, #255
 817 0470 FFF7FEFF 		bl	go_forward
 343:.\main.c      ****                             drop_puck();
 818              		.loc 1 343 0
 819 0474 FFF7FEFF 		bl	drop_puck
 344:.\main.c      ****                             go_backward(500, 255);
 820              		.loc 1 344 0
 821 0478 4FF4FA70 		mov	r0, #500
ARM GAS  C:\Users\xavieran\AppData\Local\Temp\ccJy6OMN.s 			page 32


 822 047c FF21     		movs	r1, #255
 823 047e FFF7FEFF 		bl	go_backward
 345:.\main.c      ****                             arm_set_level(0);
 824              		.loc 1 345 0
 825 0482 0020     		movs	r0, #0
 826 0484 FFF7FEFF 		bl	arm_set_level
 346:.\main.c      ****                             CyDelay(100);
 827              		.loc 1 346 0
 828 0488 6420     		movs	r0, #100
 829 048a FFF7FEFF 		bl	CyDelay
 347:.\main.c      ****                             set_heading(old_heading);
 830              		.loc 1 347 0
 831 048e BB68     		ldr	r3, [r7, #8]
 832 0490 9BB2     		uxth	r3, r3
 833 0492 1BB2     		sxth	r3, r3
 834 0494 1846     		mov	r0, r3
 835 0496 FFF7FEFF 		bl	set_heading
 348:.\main.c      ****                             rotate_degrees(0);
 836              		.loc 1 348 0
 837 049a 0020     		movs	r0, #0
 838 049c FFF7FEFF 		bl	rotate_degrees
 839              	.LBE4:
 840 04a0 18E0     		b	.L36
 841              	.L37:
 350:.\main.c      ****                             arm_carry_home();
 842              		.loc 1 350 0
 843 04a2 FFF7FEFF 		bl	arm_carry_home
 351:.\main.c      ****                             set_heading(180);
 844              		.loc 1 351 0
 845 04a6 B420     		movs	r0, #180
 846 04a8 FFF7FEFF 		bl	set_heading
 352:.\main.c      ****                             rotate_degrees(0);
 847              		.loc 1 352 0
 848 04ac 0020     		movs	r0, #0
 849 04ae FFF7FEFF 		bl	rotate_degrees
 353:.\main.c      ****                             go_backward(1500, 255);
 850              		.loc 1 353 0
 851 04b2 40F2DC50 		movw	r0, #1500
 852 04b6 FF21     		movs	r1, #255
 853 04b8 FFF7FEFF 		bl	go_backward
 354:.\main.c      ****                             pucks_gotten++;
 854              		.loc 1 354 0
 855 04bc 3B6D     		ldr	r3, [r7, #80]
 856 04be 0133     		adds	r3, r3, #1
 857 04c0 3B65     		str	r3, [r7, #80]
 355:.\main.c      ****                             start_time_find_puck = Timer_ReadCounter();
 858              		.loc 1 355 0
 859 04c2 FFF7FEFF 		bl	Timer_ReadCounter
 860 04c6 0346     		mov	r3, r0
 861 04c8 7B64     		str	r3, [r7, #68]
 356:.\main.c      ****                             state = S_FACE_HOME;
 862              		.loc 1 356 0
 863 04ca 0523     		movs	r3, #5
 864 04cc A7F85630 		strh	r3, [r7, #86]	@ movhi
 357:.\main.c      ****                             break;
 865              		.loc 1 357 0
 866 04d0 00F0B2BD 		b	.L14
ARM GAS  C:\Users\xavieran\AppData\Local\Temp\ccJy6OMN.s 			page 33


 867              	.L36:
 868              	.LBE3:
 869 04d4 5FE0     		b	.L38
 870              	.L35:
 360:.\main.c      ****                 } else if (pucks == -1){
 871              		.loc 1 360 0
 872 04d6 3B69     		ldr	r3, [r7, #16]
 873 04d8 B3F1FF3F 		cmp	r3, #-1
 874 04dc 25D1     		bne	.L39
 361:.\main.c      ****                     twitching_l = 0;
 875              		.loc 1 361 0
 876 04de 0023     		movs	r3, #0
 877 04e0 3B64     		str	r3, [r7, #64]
 362:.\main.c      ****                     twitching_r = 0;
 878              		.loc 1 362 0
 879 04e2 0023     		movs	r3, #0
 880 04e4 FB63     		str	r3, [r7, #60]
 363:.\main.c      ****                     if(h_left == 0)
 881              		.loc 1 363 0
 882 04e6 BB6B     		ldr	r3, [r7, #56]
 883 04e8 002B     		cmp	r3, #0
 884 04ea 05D1     		bne	.L40
 365:.\main.c      ****                         h_left = 1;
 885              		.loc 1 365 0
 886 04ec 0123     		movs	r3, #1
 887 04ee BB63     		str	r3, [r7, #56]
 366:.\main.c      ****                         rotate_degrees(25);
 888              		.loc 1 366 0
 889 04f0 1920     		movs	r0, #25
 890 04f2 FFF7FEFF 		bl	rotate_degrees
 891 04f6 4EE0     		b	.L38
 892              	.L40:
 368:.\main.c      ****                     else if(h_left == 1)
 893              		.loc 1 368 0
 894 04f8 BB6B     		ldr	r3, [r7, #56]
 895 04fa 012B     		cmp	r3, #1
 896 04fc 06D1     		bne	.L42
 370:.\main.c      ****                         h_left = 2;
 897              		.loc 1 370 0
 898 04fe 0223     		movs	r3, #2
 899 0500 BB63     		str	r3, [r7, #56]
 371:.\main.c      ****                         rotate_degrees(-50);
 900              		.loc 1 371 0
 901 0502 6FF03100 		mvn	r0, #49
 902 0506 FFF7FEFF 		bl	rotate_degrees
 903 050a 44E0     		b	.L38
 904              	.L42:
 375:.\main.c      ****                         h_left = 0;
 905              		.loc 1 375 0
 906 050c 0023     		movs	r3, #0
 907 050e BB63     		str	r3, [r7, #56]
 376:.\main.c      ****                         set_heading(180);
 908              		.loc 1 376 0
 909 0510 B420     		movs	r0, #180
 910 0512 FFF7FEFF 		bl	set_heading
 377:.\main.c      ****                         rotate_degrees(0);
 911              		.loc 1 377 0
ARM GAS  C:\Users\xavieran\AppData\Local\Temp\ccJy6OMN.s 			page 34


 912 0516 0020     		movs	r0, #0
 913 0518 FFF7FEFF 		bl	rotate_degrees
 378:.\main.c      ****                         go_forward(800,250);
 914              		.loc 1 378 0
 915 051c 4FF44870 		mov	r0, #800
 916 0520 FA21     		movs	r1, #250
 917 0522 FFF7FEFF 		bl	go_forward
 399:.\main.c      ****                 break;
 918              		.loc 1 399 0
 919 0526 00F087BD 		b	.L14
 920              	.L39:
 380:.\main.c      ****                 } else if (pucks < 0){
 921              		.loc 1 380 0
 922 052a 3B69     		ldr	r3, [r7, #16]
 923 052c 002B     		cmp	r3, #0
 924 052e 17DA     		bge	.L43
 381:.\main.c      ****                     if (twitching_l >= 2 && twitching_r > 2){
 925              		.loc 1 381 0
 926 0530 3B6C     		ldr	r3, [r7, #64]
 927 0532 012B     		cmp	r3, #1
 928 0534 0CDD     		ble	.L44
 381:.\main.c      ****                     if (twitching_l >= 2 && twitching_r > 2){
 929              		.loc 1 381 0 is_stmt 0 discriminator 1
 930 0536 FB6B     		ldr	r3, [r7, #60]
 931 0538 022B     		cmp	r3, #2
 932 053a 09DD     		ble	.L44
 382:.\main.c      ****                         twitching_r = 0;
 933              		.loc 1 382 0 is_stmt 1
 934 053c 0023     		movs	r3, #0
 935 053e FB63     		str	r3, [r7, #60]
 383:.\main.c      ****                         twitching_l = 0;
 936              		.loc 1 383 0
 937 0540 0023     		movs	r3, #0
 938 0542 3B64     		str	r3, [r7, #64]
 384:.\main.c      ****                         go_forward(500, 255);
 939              		.loc 1 384 0
 940 0544 4FF4FA70 		mov	r0, #500
 941 0548 FF21     		movs	r1, #255
 942 054a FFF7FEFF 		bl	go_forward
 943 054e 22E0     		b	.L38
 944              	.L44:
 386:.\main.c      ****                         rotate_degrees(-4);
 945              		.loc 1 386 0
 946 0550 6FF00300 		mvn	r0, #3
 947 0554 FFF7FEFF 		bl	rotate_degrees
 387:.\main.c      ****                         twitching_l++;
 948              		.loc 1 387 0
 949 0558 3B6C     		ldr	r3, [r7, #64]
 950 055a 0133     		adds	r3, r3, #1
 951 055c 3B64     		str	r3, [r7, #64]
 952 055e 1AE0     		b	.L38
 953              	.L43:
 389:.\main.c      ****                 } else if (pucks > 0){
 954              		.loc 1 389 0
 955 0560 3B69     		ldr	r3, [r7, #16]
 956 0562 002B     		cmp	r3, #0
 957 0564 17DD     		ble	.L38
ARM GAS  C:\Users\xavieran\AppData\Local\Temp\ccJy6OMN.s 			page 35


 390:.\main.c      ****                     if (twitching_l >= 2 && twitching_r >= 2){
 958              		.loc 1 390 0
 959 0566 3B6C     		ldr	r3, [r7, #64]
 960 0568 012B     		cmp	r3, #1
 961 056a 0CDD     		ble	.L46
 390:.\main.c      ****                     if (twitching_l >= 2 && twitching_r >= 2){
 962              		.loc 1 390 0 is_stmt 0 discriminator 1
 963 056c FB6B     		ldr	r3, [r7, #60]
 964 056e 012B     		cmp	r3, #1
 965 0570 09DD     		ble	.L46
 391:.\main.c      ****                         twitching_r = 0;
 966              		.loc 1 391 0 is_stmt 1
 967 0572 0023     		movs	r3, #0
 968 0574 FB63     		str	r3, [r7, #60]
 392:.\main.c      ****                         twitching_l = 0;
 969              		.loc 1 392 0
 970 0576 0023     		movs	r3, #0
 971 0578 3B64     		str	r3, [r7, #64]
 393:.\main.c      ****                         go_forward_blind(600, 255);
 972              		.loc 1 393 0
 973 057a 4FF41670 		mov	r0, #600
 974 057e FF21     		movs	r1, #255
 975 0580 FFF7FEFF 		bl	go_forward_blind
 976 0584 07E0     		b	.L38
 977              	.L46:
 395:.\main.c      ****                         rotate_degrees(4);
 978              		.loc 1 395 0
 979 0586 0420     		movs	r0, #4
 980 0588 FFF7FEFF 		bl	rotate_degrees
 396:.\main.c      ****                         twitching_r++;
 981              		.loc 1 396 0
 982 058c FB6B     		ldr	r3, [r7, #60]
 983 058e 0133     		adds	r3, r3, #1
 984 0590 FB63     		str	r3, [r7, #60]
 399:.\main.c      ****                 break;
 985              		.loc 1 399 0
 986 0592 00F051BD 		b	.L14
 987              	.L38:
 988 0596 00F04FBD 		b	.L14
 989              	.L21:
 402:.\main.c      ****                 set_heading(90);
 990              		.loc 1 402 0
 991 059a 5A20     		movs	r0, #90
 992 059c FFF7FEFF 		bl	set_heading
 403:.\main.c      ****                 rotate_degrees(0);
 993              		.loc 1 403 0
 994 05a0 0020     		movs	r0, #0
 995 05a2 FFF7FEFF 		bl	rotate_degrees
 404:.\main.c      ****                 set_heading(0);
 996              		.loc 1 404 0
 997 05a6 0020     		movs	r0, #0
 998 05a8 FFF7FEFF 		bl	set_heading
 405:.\main.c      ****                 rotate_degrees(0);
 999              		.loc 1 405 0
 1000 05ac 0020     		movs	r0, #0
 1001 05ae FFF7FEFF 		bl	rotate_degrees
 406:.\main.c      ****                 state = S_GO_HOME;
ARM GAS  C:\Users\xavieran\AppData\Local\Temp\ccJy6OMN.s 			page 36


 1002              		.loc 1 406 0
 1003 05b2 0423     		movs	r3, #4
 1004 05b4 A7F85630 		strh	r3, [r7, #86]	@ movhi
 407:.\main.c      ****                 break;
 1005              		.loc 1 407 0
 1006 05b8 00F03EBD 		b	.L14
 1007              	.L20:
 409:.\main.c      ****                 select_front();
 1008              		.loc 1 409 0
 1009 05bc FFF7FEFF 		bl	select_front
 410:.\main.c      ****                 CyDelay(300);
 1010              		.loc 1 410 0
 1011 05c0 4FF49670 		mov	r0, #300
 1012 05c4 FFF7FEFF 		bl	CyDelay
 411:.\main.c      ****                 ir_result = get_ir_val();
 1013              		.loc 1 411 0
 1014 05c8 FFF7FEFF 		bl	get_ir_val
 1015 05cc 0346     		mov	r3, r0
 1016 05ce FB80     		strh	r3, [r7, #6]	@ movhi
 412:.\main.c      ****                 LCD_ClearDisplay();
 1017              		.loc 1 412 0
 1018 05d0 0120     		movs	r0, #1
 1019 05d2 FFF7FEFF 		bl	LCD_WriteControl
 413:.\main.c      ****                 POS_PRINTF(0,0,"IN GO HOME I:%d U%d", ir_result, get_mean_ultra());
 1020              		.loc 1 413 0
 1021 05d6 FC88     		ldrh	r4, [r7, #6]
 1022 05d8 FFF7FEFF 		bl	get_mean_ultra
 1023 05dc 0346     		mov	r3, r0
 1024 05de 2B48     		ldr	r0, .L110
 1025 05e0 2D49     		ldr	r1, .L110+12
 1026 05e2 2246     		mov	r2, r4
 1027 05e4 FFF7FEFF 		bl	sprintf
 1028 05e8 0020     		movs	r0, #0
 1029 05ea 0021     		movs	r1, #0
 1030 05ec FFF7FEFF 		bl	LCD_Position
 1031 05f0 2648     		ldr	r0, .L110
 1032 05f2 FFF7FEFF 		bl	LCD_PrintString
 417:.\main.c      ****                 if (get_mean_ultra() < near_base){
 1033              		.loc 1 417 0
 1034 05f6 FFF7FEFF 		bl	get_mean_ultra
 1035 05fa 0346     		mov	r3, r0
 1036 05fc 1A46     		mov	r2, r3
 1037 05fe 7B69     		ldr	r3, [r7, #20]
 1038 0600 9A42     		cmp	r2, r3
 1039 0602 08DA     		bge	.L47
 418:.\main.c      ****                     start_time_find100 = Timer_ReadCounter();
 1040              		.loc 1 418 0
 1041 0604 FFF7FEFF 		bl	Timer_ReadCounter
 1042 0608 0346     		mov	r3, r0
 1043 060a BB64     		str	r3, [r7, #72]
 419:.\main.c      ****                     state = S_NEAR_HOME_FIND_100;
 1044              		.loc 1 419 0
 1045 060c 0923     		movs	r3, #9
 1046 060e A7F85630 		strh	r3, [r7, #86]	@ movhi
 420:.\main.c      ****                     break;
 1047              		.loc 1 420 0
 1048 0612 00F011BD 		b	.L14
ARM GAS  C:\Users\xavieran\AppData\Local\Temp\ccJy6OMN.s 			page 37


 1049              	.L47:
 422:.\main.c      ****                     state = S_GOING_HOME_CHECK_IR;
 1050              		.loc 1 422 0
 1051 0616 0823     		movs	r3, #8
 1052 0618 A7F85630 		strh	r3, [r7, #86]	@ movhi
 424:.\main.c      ****                 break;
 1053              		.loc 1 424 0
 1054 061c 00F00CBD 		b	.L14
 1055              	.L23:
 426:.\main.c      ****                 POS_PRINTF(0,0,"GOING HOME CHECK IR");
 1056              		.loc 1 426 0
 1057 0620 1A4A     		ldr	r2, .L110
 1058 0622 1E4B     		ldr	r3, .L110+16
 1059 0624 1446     		mov	r4, r2
 1060 0626 1D46     		mov	r5, r3
 1061 0628 0FCD     		ldmia	r5!, {r0, r1, r2, r3}
 1062 062a 0FC4     		stmia	r4!, {r0, r1, r2, r3}
 1063 062c 2B68     		ldr	r3, [r5]
 1064 062e 2360     		str	r3, [r4]
 1065 0630 0020     		movs	r0, #0
 1066 0632 0021     		movs	r1, #0
 1067 0634 FFF7FEFF 		bl	LCD_Position
 1068 0638 1448     		ldr	r0, .L110
 1069 063a FFF7FEFF 		bl	LCD_PrintString
 427:.\main.c      ****                 ultra = get_mean_ultra(); 
 1070              		.loc 1 427 0
 1071 063e FFF7FEFF 		bl	get_mean_ultra
 1072 0642 0346     		mov	r3, r0
 1073 0644 7B63     		str	r3, [r7, #52]
 428:.\main.c      ****                 if (ultra <= near_base){
 1074              		.loc 1 428 0
 1075 0646 7A6B     		ldr	r2, [r7, #52]
 1076 0648 7B69     		ldr	r3, [r7, #20]
 1077 064a 9A42     		cmp	r2, r3
 1078 064c 06DC     		bgt	.L48
 429:.\main.c      ****                     state = S_NEAR_HOME_FIND_100;
 1079              		.loc 1 429 0
 1080 064e 0923     		movs	r3, #9
 1081 0650 A7F85630 		strh	r3, [r7, #86]	@ movhi
 430:.\main.c      ****                     start_time_find100 = Timer_ReadCounter();
 1082              		.loc 1 430 0
 1083 0654 FFF7FEFF 		bl	Timer_ReadCounter
 1084 0658 0346     		mov	r3, r0
 1085 065a BB64     		str	r3, [r7, #72]
 1086              	.L48:
 433:.\main.c      ****                 if (ultra > near_base + 20){
 1087              		.loc 1 433 0
 1088 065c 7B69     		ldr	r3, [r7, #20]
 1089 065e 03F11402 		add	r2, r3, #20
 1090 0662 7B6B     		ldr	r3, [r7, #52]
 1091 0664 9A42     		cmp	r2, r3
 1092 0666 05DA     		bge	.L49
 434:.\main.c      ****                     go_forward(1000,255);
 1093              		.loc 1 434 0
 1094 0668 4FF47A70 		mov	r0, #1000
 1095 066c FF21     		movs	r1, #255
 1096 066e FFF7FEFF 		bl	go_forward
ARM GAS  C:\Users\xavieran\AppData\Local\Temp\ccJy6OMN.s 			page 38


 1097 0672 04E0     		b	.L50
 1098              	.L49:
 436:.\main.c      ****                     go_forward(400, 255);
 1099              		.loc 1 436 0
 1100 0674 4FF4C870 		mov	r0, #400
 1101 0678 FF21     		movs	r1, #255
 1102 067a FFF7FEFF 		bl	go_forward
 1103              	.L50:
 438:.\main.c      ****                 CyDelay(300);                
 1104              		.loc 1 438 0
 1105 067e 4FF49670 		mov	r0, #300
 1106 0682 FFF7FEFF 		bl	CyDelay
 439:.\main.c      ****                 break;
 1107              		.loc 1 439 0
 1108 0686 00F0D7BC 		b	.L14
 1109              	.L111:
 1110 068a 00BF     		.align	2
 1111              	.L110:
 1112 068c 00000000 		.word	outString
 1113 0690 78000000 		.word	.LC7
 1114 0694 00000000 		.word	compass_heading
 1115 0698 84000000 		.word	.LC8
 1116 069c 98000000 		.word	.LC9
 1117              	.L24:
 441:.\main.c      ****                 if (start_time_find100 - Timer_ReadCounter() >  10 * 25000){//We must be too far le
 1118              		.loc 1 441 0
 1119 06a0 BC6C     		ldr	r4, [r7, #72]
 1120 06a2 FFF7FEFF 		bl	Timer_ReadCounter
 1121 06a6 0346     		mov	r3, r0
 1122 06a8 E21A     		subs	r2, r4, r3
 1123 06aa A34B     		ldr	r3, .L112
 1124 06ac 9A42     		cmp	r2, r3
 1125 06ae 1ED9     		bls	.L51
 442:.\main.c      ****                     POS_PRINTF(1,0,"TIMEOUT 100!!!");
 1126              		.loc 1 442 0
 1127 06b0 A24A     		ldr	r2, .L112+4
 1128 06b2 A34B     		ldr	r3, .L112+8
 1129 06b4 1446     		mov	r4, r2
 1130 06b6 0FCB     		ldmia	r3, {r0, r1, r2, r3}
 1131 06b8 07C4     		stmia	r4!, {r0, r1, r2}
 1132 06ba 2380     		strh	r3, [r4]	@ movhi
 1133 06bc 0234     		adds	r4, r4, #2
 1134 06be 1B0C     		lsrs	r3, r3, #16
 1135 06c0 2370     		strb	r3, [r4]
 1136 06c2 0120     		movs	r0, #1
 1137 06c4 0021     		movs	r1, #0
 1138 06c6 FFF7FEFF 		bl	LCD_Position
 1139 06ca 9C48     		ldr	r0, .L112+4
 1140 06cc FFF7FEFF 		bl	LCD_PrintString
 443:.\main.c      ****                     set_heading(90);
 1141              		.loc 1 443 0
 1142 06d0 5A20     		movs	r0, #90
 1143 06d2 FFF7FEFF 		bl	set_heading
 444:.\main.c      ****                     rotate_degrees(0);
 1144              		.loc 1 444 0
 1145 06d6 0020     		movs	r0, #0
 1146 06d8 FFF7FEFF 		bl	rotate_degrees
ARM GAS  C:\Users\xavieran\AppData\Local\Temp\ccJy6OMN.s 			page 39


 445:.\main.c      ****                     go_backward(4000, 255);
 1147              		.loc 1 445 0
 1148 06dc 4FF47A60 		mov	r0, #4000
 1149 06e0 FF21     		movs	r1, #255
 1150 06e2 FFF7FEFF 		bl	go_backward
 446:.\main.c      ****                     start_time_find100 = Timer_ReadCounter();
 1151              		.loc 1 446 0
 1152 06e6 FFF7FEFF 		bl	Timer_ReadCounter
 1153 06ea 0346     		mov	r3, r0
 1154 06ec BB64     		str	r3, [r7, #72]
 1155              	.L51:
 449:.\main.c      ****                 POS_PRINTF(0,0,"NEAR HOME FIND 100");
 1156              		.loc 1 449 0
 1157 06ee 934A     		ldr	r2, .L112+4
 1158 06f0 944B     		ldr	r3, .L112+12
 1159 06f2 1446     		mov	r4, r2
 1160 06f4 1D46     		mov	r5, r3
 1161 06f6 0FCD     		ldmia	r5!, {r0, r1, r2, r3}
 1162 06f8 0FC4     		stmia	r4!, {r0, r1, r2, r3}
 1163 06fa 2B68     		ldr	r3, [r5]
 1164 06fc 1A46     		mov	r2, r3	@ movhi
 1165 06fe 2280     		strh	r2, [r4]	@ movhi
 1166 0700 0234     		adds	r4, r4, #2
 1167 0702 1B0C     		lsrs	r3, r3, #16
 1168 0704 2370     		strb	r3, [r4]
 1169 0706 0020     		movs	r0, #0
 1170 0708 0021     		movs	r1, #0
 1171 070a FFF7FEFF 		bl	LCD_Position
 1172 070e 8B48     		ldr	r0, .L112+4
 1173 0710 FFF7FEFF 		bl	LCD_PrintString
 450:.\main.c      ****                 POS_PRINTF(1,0,"First Turn");
 1174              		.loc 1 450 0
 1175 0714 894B     		ldr	r3, .L112+4
 1176 0716 8C4A     		ldr	r2, .L112+16
 1177 0718 07CA     		ldmia	r2, {r0, r1, r2}
 1178 071a 03C3     		stmia	r3!, {r0, r1}
 1179 071c 1A80     		strh	r2, [r3]	@ movhi
 1180 071e 0233     		adds	r3, r3, #2
 1181 0720 120C     		lsrs	r2, r2, #16
 1182 0722 1A70     		strb	r2, [r3]
 1183 0724 0120     		movs	r0, #1
 1184 0726 0021     		movs	r1, #0
 1185 0728 FFF7FEFF 		bl	LCD_Position
 1186 072c 8348     		ldr	r0, .L112+4
 1187 072e FFF7FEFF 		bl	LCD_PrintString
 451:.\main.c      ****                 set_heading(88);
 1188              		.loc 1 451 0
 1189 0732 5820     		movs	r0, #88
 1190 0734 FFF7FEFF 		bl	set_heading
 452:.\main.c      ****                 rotate_degrees(0);
 1191              		.loc 1 452 0
 1192 0738 0020     		movs	r0, #0
 1193 073a FFF7FEFF 		bl	rotate_degrees
 453:.\main.c      ****                 CyDelay(300);
 1194              		.loc 1 453 0
 1195 073e 4FF49670 		mov	r0, #300
 1196 0742 FFF7FEFF 		bl	CyDelay
ARM GAS  C:\Users\xavieran\AppData\Local\Temp\ccJy6OMN.s 			page 40


 455:.\main.c      ****                 go_forward(300, 255);
 1197              		.loc 1 455 0
 1198 0746 4FF49670 		mov	r0, #300
 1199 074a FF21     		movs	r1, #255
 1200 074c FFF7FEFF 		bl	go_forward
 457:.\main.c      ****                 select_right();
 1201              		.loc 1 457 0
 1202 0750 FFF7FEFF 		bl	select_right
 458:.\main.c      ****                 ir_result = get_ir_val();
 1203              		.loc 1 458 0
 1204 0754 FFF7FEFF 		bl	get_ir_val
 1205 0758 0346     		mov	r3, r0
 1206 075a FB80     		strh	r3, [r7, #6]	@ movhi
 459:.\main.c      ****                 POS_PRINTF(1,0,"i %d", ir_result);
 1207              		.loc 1 459 0
 1208 075c FB88     		ldrh	r3, [r7, #6]
 1209 075e 7748     		ldr	r0, .L112+4
 1210 0760 7A49     		ldr	r1, .L112+20
 1211 0762 1A46     		mov	r2, r3
 1212 0764 FFF7FEFF 		bl	sprintf
 1213 0768 0120     		movs	r0, #1
 1214 076a 0021     		movs	r1, #0
 1215 076c FFF7FEFF 		bl	LCD_Position
 1216 0770 7248     		ldr	r0, .L112+4
 1217 0772 FFF7FEFF 		bl	LCD_PrintString
 460:.\main.c      ****                 POS_PRINTF(1,5,"t %ld", Timer_ReadCounter());
 1218              		.loc 1 460 0
 1219 0776 FFF7FEFF 		bl	Timer_ReadCounter
 1220 077a 0346     		mov	r3, r0
 1221 077c 6F48     		ldr	r0, .L112+4
 1222 077e 7449     		ldr	r1, .L112+24
 1223 0780 1A46     		mov	r2, r3
 1224 0782 FFF7FEFF 		bl	sprintf
 1225 0786 0120     		movs	r0, #1
 1226 0788 0521     		movs	r1, #5
 1227 078a FFF7FEFF 		bl	LCD_Position
 1228 078e 6B48     		ldr	r0, .L112+4
 1229 0790 FFF7FEFF 		bl	LCD_PrintString
 462:.\main.c      ****                 int good_val = 0;
 1230              		.loc 1 462 0
 1231 0794 0023     		movs	r3, #0
 1232 0796 FB62     		str	r3, [r7, #44]
 463:.\main.c      ****                 if (within_range(96, ir_result, 105)){
 1233              		.loc 1 463 0
 1234 0798 FB88     		ldrh	r3, [r7, #6]
 1235 079a 6020     		movs	r0, #96
 1236 079c 1946     		mov	r1, r3
 1237 079e 6922     		movs	r2, #105
 1238 07a0 FFF7FEFF 		bl	within_range
 1239 07a4 0346     		mov	r3, r0
 1240 07a6 002B     		cmp	r3, #0
 1241 07a8 24D0     		beq	.L52
 1242              	.LBB5:
 465:.\main.c      ****                     good_val = 1;
 1243              		.loc 1 465 0
 1244 07aa 0123     		movs	r3, #1
 1245 07ac FB62     		str	r3, [r7, #44]
ARM GAS  C:\Users\xavieran\AppData\Local\Temp\ccJy6OMN.s 			page 41


 466:.\main.c      ****                     for (i = 0; i < 3; i++){
 1246              		.loc 1 466 0
 1247 07ae 0023     		movs	r3, #0
 1248 07b0 BB62     		str	r3, [r7, #40]
 1249 07b2 14E0     		b	.L53
 1250              	.L56:
 467:.\main.c      ****                         CyDelay(300);
 1251              		.loc 1 467 0
 1252 07b4 4FF49670 		mov	r0, #300
 1253 07b8 FFF7FEFF 		bl	CyDelay
 468:.\main.c      ****                         if (!within_range(96, get_ir_val(), 105)){
 1254              		.loc 1 468 0
 1255 07bc FFF7FEFF 		bl	get_ir_val
 1256 07c0 0346     		mov	r3, r0
 1257 07c2 6020     		movs	r0, #96
 1258 07c4 1946     		mov	r1, r3
 1259 07c6 6922     		movs	r2, #105
 1260 07c8 FFF7FEFF 		bl	within_range
 1261 07cc 0346     		mov	r3, r0
 1262 07ce 002B     		cmp	r3, #0
 1263 07d0 02D1     		bne	.L54
 469:.\main.c      ****                             good_val = 0;
 1264              		.loc 1 469 0
 1265 07d2 0023     		movs	r3, #0
 1266 07d4 FB62     		str	r3, [r7, #44]
 470:.\main.c      ****                             break;
 1267              		.loc 1 470 0
 1268 07d6 05E0     		b	.L55
 1269              	.L54:
 466:.\main.c      ****                     for (i = 0; i < 3; i++){
 1270              		.loc 1 466 0
 1271 07d8 BB6A     		ldr	r3, [r7, #40]
 1272 07da 0133     		adds	r3, r3, #1
 1273 07dc BB62     		str	r3, [r7, #40]
 1274              	.L53:
 466:.\main.c      ****                     for (i = 0; i < 3; i++){
 1275              		.loc 1 466 0 is_stmt 0 discriminator 1
 1276 07de BB6A     		ldr	r3, [r7, #40]
 1277 07e0 022B     		cmp	r3, #2
 1278 07e2 E7DD     		ble	.L56
 1279              	.L55:
 473:.\main.c      ****                     if (good_val){
 1280              		.loc 1 473 0 is_stmt 1
 1281 07e4 FB6A     		ldr	r3, [r7, #44]
 1282 07e6 002B     		cmp	r3, #0
 1283 07e8 04D0     		beq	.L52
 474:.\main.c      ****                         state = S_NEAR_HOME_FIND_60;
 1284              		.loc 1 474 0
 1285 07ea 0A23     		movs	r3, #10
 1286 07ec A7F85630 		strh	r3, [r7, #86]	@ movhi
 475:.\main.c      ****                         break;
 1287              		.loc 1 475 0
 1288 07f0 00F022BC 		b	.L14
 1289              	.L52:
 1290              	.LBE5:
 478:.\main.c      ****                 select_left();
 1291              		.loc 1 478 0
ARM GAS  C:\Users\xavieran\AppData\Local\Temp\ccJy6OMN.s 			page 42


 1292 07f4 FFF7FEFF 		bl	select_left
 479:.\main.c      ****                 POS_PRINTF(0,0,"RIGHT ULTRA");
 1293              		.loc 1 479 0
 1294 07f8 504B     		ldr	r3, .L112+4
 1295 07fa 564A     		ldr	r2, .L112+28
 1296 07fc 07CA     		ldmia	r2, {r0, r1, r2}
 1297 07fe 83E80700 		stmia	r3, {r0, r1, r2}
 1298 0802 0020     		movs	r0, #0
 1299 0804 0021     		movs	r1, #0
 1300 0806 FFF7FEFF 		bl	LCD_Position
 1301 080a 4C48     		ldr	r0, .L112+4
 1302 080c FFF7FEFF 		bl	LCD_PrintString
 480:.\main.c      ****                 CyDelay(100);
 1303              		.loc 1 480 0
 1304 0810 6420     		movs	r0, #100
 1305 0812 FFF7FEFF 		bl	CyDelay
 481:.\main.c      ****                 ultra = get_mean_ultra_s();
 1306              		.loc 1 481 0
 1307 0816 FFF7FEFF 		bl	get_mean_ultra_s
 1308 081a 0346     		mov	r3, r0
 1309 081c 7B63     		str	r3, [r7, #52]
 482:.\main.c      ****                 POS_PRINTF(1,0,"%d - %d", ultra, near_base);
 1310              		.loc 1 482 0
 1311 081e 4748     		ldr	r0, .L112+4
 1312 0820 4D49     		ldr	r1, .L112+32
 1313 0822 7A6B     		ldr	r2, [r7, #52]
 1314 0824 7B69     		ldr	r3, [r7, #20]
 1315 0826 FFF7FEFF 		bl	sprintf
 1316 082a 0120     		movs	r0, #1
 1317 082c 0021     		movs	r1, #0
 1318 082e FFF7FEFF 		bl	LCD_Position
 1319 0832 4248     		ldr	r0, .L112+4
 1320 0834 FFF7FEFF 		bl	LCD_PrintString
 483:.\main.c      ****                 if (ultra > near_base && get_var_ultra_s() < 200){
 1321              		.loc 1 483 0
 1322 0838 7A6B     		ldr	r2, [r7, #52]
 1323 083a 7B69     		ldr	r3, [r7, #20]
 1324 083c 9A42     		cmp	r2, r3
 1325 083e 7ADD     		ble	.L57
 483:.\main.c      ****                 if (ultra > near_base && get_var_ultra_s() < 200){
 1326              		.loc 1 483 0 is_stmt 0 discriminator 1
 1327 0840 FFF7FEFF 		bl	get_var_ultra_s
 1328 0844 0346     		mov	r3, r0
 1329 0846 C72B     		cmp	r3, #199
 1330 0848 75D8     		bhi	.L57
 484:.\main.c      ****                     go_forward(300, 255);
 1331              		.loc 1 484 0 is_stmt 1
 1332 084a 4FF49670 		mov	r0, #300
 1333 084e FF21     		movs	r1, #255
 1334 0850 FFF7FEFF 		bl	go_forward
 485:.\main.c      ****                     POS_PRINTF(1,0,"Turn 2 Possible");
 1335              		.loc 1 485 0
 1336 0854 394A     		ldr	r2, .L112+4
 1337 0856 414B     		ldr	r3, .L112+36
 1338 0858 1446     		mov	r4, r2
 1339 085a 0FCB     		ldmia	r3, {r0, r1, r2, r3}
 1340 085c 84E80F00 		stmia	r4, {r0, r1, r2, r3}
ARM GAS  C:\Users\xavieran\AppData\Local\Temp\ccJy6OMN.s 			page 43


 1341 0860 0120     		movs	r0, #1
 1342 0862 0021     		movs	r1, #0
 1343 0864 FFF7FEFF 		bl	LCD_Position
 1344 0868 3448     		ldr	r0, .L112+4
 1345 086a FFF7FEFF 		bl	LCD_PrintString
 486:.\main.c      ****                     rotate_right(255);
 1346              		.loc 1 486 0
 1347 086e FF20     		movs	r0, #255
 1348 0870 FFF7FEFF 		bl	rotate_right
 487:.\main.c      ****                     CyDelay(200);
 1349              		.loc 1 487 0
 1350 0874 C820     		movs	r0, #200
 1351 0876 FFF7FEFF 		bl	CyDelay
 488:.\main.c      ****                     setCoast(MBOTH);
 1352              		.loc 1 488 0
 1353 087a 0320     		movs	r0, #3
 1354 087c FFF7FEFF 		bl	setCoast
 489:.\main.c      ****                     set_heading(0);
 1355              		.loc 1 489 0
 1356 0880 0020     		movs	r0, #0
 1357 0882 FFF7FEFF 		bl	set_heading
 490:.\main.c      ****                     rotate_degrees(0);
 1358              		.loc 1 490 0
 1359 0886 0020     		movs	r0, #0
 1360 0888 FFF7FEFF 		bl	rotate_degrees
 492:.\main.c      ****                     CyDelay(600);
 1361              		.loc 1 492 0
 1362 088c 4FF41670 		mov	r0, #600
 1363 0890 FFF7FEFF 		bl	CyDelay
 493:.\main.c      ****                     ultra = get_mean_ultra();
 1364              		.loc 1 493 0
 1365 0894 FFF7FEFF 		bl	get_mean_ultra
 1366 0898 0346     		mov	r3, r0
 1367 089a 7B63     		str	r3, [r7, #52]
 495:.\main.c      ****                     if (ultra > near_base){
 1368              		.loc 1 495 0
 1369 089c 7A6B     		ldr	r2, [r7, #52]
 1370 089e 7B69     		ldr	r3, [r7, #20]
 1371 08a0 9A42     		cmp	r2, r3
 1372 08a2 04DD     		ble	.L58
 496:.\main.c      ****                         go_forward(500, 255);
 1373              		.loc 1 496 0
 1374 08a4 4FF4FA70 		mov	r0, #500
 1375 08a8 FF21     		movs	r1, #255
 1376 08aa FFF7FEFF 		bl	go_forward
 1377              	.L58:
 498:.\main.c      ****                     CyDelay(600);
 1378              		.loc 1 498 0
 1379 08ae 4FF41670 		mov	r0, #600
 1380 08b2 FFF7FEFF 		bl	CyDelay
 499:.\main.c      ****                     ultra = get_mean_ultra();
 1381              		.loc 1 499 0
 1382 08b6 FFF7FEFF 		bl	get_mean_ultra
 1383 08ba 0346     		mov	r3, r0
 1384 08bc 7B63     		str	r3, [r7, #52]
 500:.\main.c      ****                     while (ultra > near_base){
 1385              		.loc 1 500 0
ARM GAS  C:\Users\xavieran\AppData\Local\Temp\ccJy6OMN.s 			page 44


 1386 08be 18E0     		b	.L59
 1387              	.L60:
 501:.\main.c      ****                         POS_PRINTF(1,0,"CU: %d", ultra);
 1388              		.loc 1 501 0
 1389 08c0 1E48     		ldr	r0, .L112+4
 1390 08c2 2749     		ldr	r1, .L112+40
 1391 08c4 7A6B     		ldr	r2, [r7, #52]
 1392 08c6 FFF7FEFF 		bl	sprintf
 1393 08ca 0120     		movs	r0, #1
 1394 08cc 0021     		movs	r1, #0
 1395 08ce FFF7FEFF 		bl	LCD_Position
 1396 08d2 1A48     		ldr	r0, .L112+4
 1397 08d4 FFF7FEFF 		bl	LCD_PrintString
 502:.\main.c      ****                         go_forward(700, 255);
 1398              		.loc 1 502 0
 1399 08d8 4FF42F70 		mov	r0, #700
 1400 08dc FF21     		movs	r1, #255
 1401 08de FFF7FEFF 		bl	go_forward
 503:.\main.c      ****                         CyDelay(300);
 1402              		.loc 1 503 0
 1403 08e2 4FF49670 		mov	r0, #300
 1404 08e6 FFF7FEFF 		bl	CyDelay
 504:.\main.c      ****                         ultra = get_mean_ultra();
 1405              		.loc 1 504 0
 1406 08ea FFF7FEFF 		bl	get_mean_ultra
 1407 08ee 0346     		mov	r3, r0
 1408 08f0 7B63     		str	r3, [r7, #52]
 1409              	.L59:
 500:.\main.c      ****                     while (ultra > near_base){
 1410              		.loc 1 500 0 discriminator 1
 1411 08f2 7A6B     		ldr	r2, [r7, #52]
 1412 08f4 7B69     		ldr	r3, [r7, #20]
 1413 08f6 9A42     		cmp	r2, r3
 1414 08f8 E2DC     		bgt	.L60
 506:.\main.c      ****                     POS_PRINTF(1,0,"Turn 3 Possible");
 1415              		.loc 1 506 0
 1416 08fa 104A     		ldr	r2, .L112+4
 1417 08fc 194B     		ldr	r3, .L112+44
 1418 08fe 1446     		mov	r4, r2
 1419 0900 0FCB     		ldmia	r3, {r0, r1, r2, r3}
 1420 0902 84E80F00 		stmia	r4, {r0, r1, r2, r3}
 1421 0906 0120     		movs	r0, #1
 1422 0908 0021     		movs	r1, #0
 1423 090a FFF7FEFF 		bl	LCD_Position
 1424 090e 0B48     		ldr	r0, .L112+4
 1425 0910 FFF7FEFF 		bl	LCD_PrintString
 507:.\main.c      ****                     rotate_left(255);
 1426              		.loc 1 507 0
 1427 0914 FF20     		movs	r0, #255
 1428 0916 FFF7FEFF 		bl	rotate_left
 508:.\main.c      ****                     CyDelay(200);
 1429              		.loc 1 508 0
 1430 091a C820     		movs	r0, #200
 1431 091c FFF7FEFF 		bl	CyDelay
 509:.\main.c      ****                     set_heading(90);
 1432              		.loc 1 509 0
 1433 0920 5A20     		movs	r0, #90
ARM GAS  C:\Users\xavieran\AppData\Local\Temp\ccJy6OMN.s 			page 45


 1434 0922 FFF7FEFF 		bl	set_heading
 510:.\main.c      ****                     rotate_degrees(0);
 1435              		.loc 1 510 0
 1436 0926 0020     		movs	r0, #0
 1437 0928 FFF7FEFF 		bl	rotate_degrees
 511:.\main.c      ****                     start_time_find100 = Timer_ReadCounter();   
 1438              		.loc 1 511 0
 1439 092c FFF7FEFF 		bl	Timer_ReadCounter
 1440 0930 0346     		mov	r3, r0
 1441 0932 BB64     		str	r3, [r7, #72]
 513:.\main.c      ****                 break;
 1442              		.loc 1 513 0
 1443 0934 80E3     		b	.L14
 1444              	.L57:
 1445 0936 7FE3     		b	.L14
 1446              	.L113:
 1447              		.align	2
 1448              	.L112:
 1449 0938 90D00300 		.word	250000
 1450 093c 00000000 		.word	outString
 1451 0940 AC000000 		.word	.LC10
 1452 0944 BC000000 		.word	.LC11
 1453 0948 D0000000 		.word	.LC12
 1454 094c DC000000 		.word	.LC13
 1455 0950 E4000000 		.word	.LC14
 1456 0954 EC000000 		.word	.LC15
 1457 0958 F8000000 		.word	.LC16
 1458 095c 00010000 		.word	.LC17
 1459 0960 10010000 		.word	.LC18
 1460 0964 18010000 		.word	.LC19
 1461              	.L28:
 516:.\main.c      ****                 POS_PRINTF(0,0,"NEAR HOME SAW 30");
 1462              		.loc 1 516 0
 1463 0968 C34A     		ldr	r2, .L114
 1464 096a C44B     		ldr	r3, .L114+4
 1465 096c 1446     		mov	r4, r2
 1466 096e 1D46     		mov	r5, r3
 1467 0970 0FCD     		ldmia	r5!, {r0, r1, r2, r3}
 1468 0972 0FC4     		stmia	r4!, {r0, r1, r2, r3}
 1469 0974 2B68     		ldr	r3, [r5]
 1470 0976 2370     		strb	r3, [r4]
 1471 0978 0020     		movs	r0, #0
 1472 097a 0021     		movs	r1, #0
 1473 097c FFF7FEFF 		bl	LCD_Position
 1474 0980 BD48     		ldr	r0, .L114
 1475 0982 FFF7FEFF 		bl	LCD_PrintString
 517:.\main.c      ****                 CyDelay(300);
 1476              		.loc 1 517 0
 1477 0986 4FF49670 		mov	r0, #300
 1478 098a FFF7FEFF 		bl	CyDelay
 518:.\main.c      ****                 select_right();
 1479              		.loc 1 518 0
 1480 098e FFF7FEFF 		bl	select_right
 519:.\main.c      ****                 ir_result = get_ir_val();
 1481              		.loc 1 519 0
 1482 0992 FFF7FEFF 		bl	get_ir_val
 1483 0996 0346     		mov	r3, r0
ARM GAS  C:\Users\xavieran\AppData\Local\Temp\ccJy6OMN.s 			page 46


 1484 0998 FB80     		strh	r3, [r7, #6]	@ movhi
 520:.\main.c      ****                 POS_PRINTF(1,0,"ir%d", ir_result);
 1485              		.loc 1 520 0
 1486 099a FB88     		ldrh	r3, [r7, #6]
 1487 099c B648     		ldr	r0, .L114
 1488 099e B849     		ldr	r1, .L114+8
 1489 09a0 1A46     		mov	r2, r3
 1490 09a2 FFF7FEFF 		bl	sprintf
 1491 09a6 0120     		movs	r0, #1
 1492 09a8 0021     		movs	r1, #0
 1493 09aa FFF7FEFF 		bl	LCD_Position
 1494 09ae B248     		ldr	r0, .L114
 1495 09b0 FFF7FEFF 		bl	LCD_PrintString
 522:.\main.c      ****                 if (within_range(57, ir_result, 65)){
 1496              		.loc 1 522 0
 1497 09b4 FB88     		ldrh	r3, [r7, #6]
 1498 09b6 3920     		movs	r0, #57
 1499 09b8 1946     		mov	r1, r3
 1500 09ba 4122     		movs	r2, #65
 1501 09bc FFF7FEFF 		bl	within_range
 1502 09c0 0346     		mov	r3, r0
 1503 09c2 002B     		cmp	r3, #0
 1504 09c4 10D0     		beq	.L61
 523:.\main.c      ****                     go_forward(500, 255);
 1505              		.loc 1 523 0
 1506 09c6 4FF4FA70 		mov	r0, #500
 1507 09ca FF21     		movs	r1, #255
 1508 09cc FFF7FEFF 		bl	go_forward
 524:.\main.c      ****                     set_heading(0);
 1509              		.loc 1 524 0
 1510 09d0 0020     		movs	r0, #0
 1511 09d2 FFF7FEFF 		bl	set_heading
 525:.\main.c      ****                     rotate_degrees(0);
 1512              		.loc 1 525 0
 1513 09d6 0020     		movs	r0, #0
 1514 09d8 FFF7FEFF 		bl	rotate_degrees
 526:.\main.c      ****                     state = S_CENTERED_ON_BASE;
 1515              		.loc 1 526 0
 1516 09dc 0B23     		movs	r3, #11
 1517 09de A7F85630 		strh	r3, [r7, #86]	@ movhi
 527:.\main.c      ****                     start_ultrasonic();
 1518              		.loc 1 527 0
 1519 09e2 FFF7FEFF 		bl	start_ultrasonic
 528:.\main.c      ****                     break;
 1520              		.loc 1 528 0
 1521 09e6 27E3     		b	.L14
 1522              	.L61:
 530:.\main.c      ****                 go_forward(250, 255);
 1523              		.loc 1 530 0
 1524 09e8 FA20     		movs	r0, #250
 1525 09ea FF21     		movs	r1, #255
 1526 09ec FFF7FEFF 		bl	go_forward
 531:.\main.c      ****                 break;
 1527              		.loc 1 531 0
 1528 09f0 22E3     		b	.L14
 1529              	.L25:
 534:.\main.c      ****                 POS_PRINTF(0,0,"NEAR HOME FIND 60");
ARM GAS  C:\Users\xavieran\AppData\Local\Temp\ccJy6OMN.s 			page 47


 1530              		.loc 1 534 0
 1531 09f2 A14A     		ldr	r2, .L114
 1532 09f4 A34B     		ldr	r3, .L114+12
 1533 09f6 1446     		mov	r4, r2
 1534 09f8 1D46     		mov	r5, r3
 1535 09fa 0FCD     		ldmia	r5!, {r0, r1, r2, r3}
 1536 09fc 0FC4     		stmia	r4!, {r0, r1, r2, r3}
 1537 09fe 2B68     		ldr	r3, [r5]
 1538 0a00 2380     		strh	r3, [r4]	@ movhi
 1539 0a02 0020     		movs	r0, #0
 1540 0a04 0021     		movs	r1, #0
 1541 0a06 FFF7FEFF 		bl	LCD_Position
 1542 0a0a 9B48     		ldr	r0, .L114
 1543 0a0c FFF7FEFF 		bl	LCD_PrintString
 536:.\main.c      ****                 CyDelay(500);
 1544              		.loc 1 536 0
 1545 0a10 4FF4FA70 		mov	r0, #500
 1546 0a14 FFF7FEFF 		bl	CyDelay
 537:.\main.c      ****                 select_right();
 1547              		.loc 1 537 0
 1548 0a18 FFF7FEFF 		bl	select_right
 538:.\main.c      ****                 ir_result = get_ir_val();
 1549              		.loc 1 538 0
 1550 0a1c FFF7FEFF 		bl	get_ir_val
 1551 0a20 0346     		mov	r3, r0
 1552 0a22 FB80     		strh	r3, [r7, #6]	@ movhi
 539:.\main.c      ****                 POS_PRINTF(1,0,"ir%d", ir_result);
 1553              		.loc 1 539 0
 1554 0a24 FB88     		ldrh	r3, [r7, #6]
 1555 0a26 9448     		ldr	r0, .L114
 1556 0a28 9549     		ldr	r1, .L114+8
 1557 0a2a 1A46     		mov	r2, r3
 1558 0a2c FFF7FEFF 		bl	sprintf
 1559 0a30 0120     		movs	r0, #1
 1560 0a32 0021     		movs	r1, #0
 1561 0a34 FFF7FEFF 		bl	LCD_Position
 1562 0a38 8F48     		ldr	r0, .L114
 1563 0a3a FFF7FEFF 		bl	LCD_PrintString
 541:.\main.c      ****                 if (within_range(57, ir_result, 65)){
 1564              		.loc 1 541 0
 1565 0a3e FB88     		ldrh	r3, [r7, #6]
 1566 0a40 3920     		movs	r0, #57
 1567 0a42 1946     		mov	r1, r3
 1568 0a44 4122     		movs	r2, #65
 1569 0a46 FFF7FEFF 		bl	within_range
 1570 0a4a 0346     		mov	r3, r0
 1571 0a4c 002B     		cmp	r3, #0
 1572 0a4e 0BD0     		beq	.L62
 542:.\main.c      ****                     set_heading(0);
 1573              		.loc 1 542 0
 1574 0a50 0020     		movs	r0, #0
 1575 0a52 FFF7FEFF 		bl	set_heading
 543:.\main.c      ****                     rotate_degrees(0);
 1576              		.loc 1 543 0
 1577 0a56 0020     		movs	r0, #0
 1578 0a58 FFF7FEFF 		bl	rotate_degrees
 544:.\main.c      ****                     state = S_CENTERED_ON_BASE;
ARM GAS  C:\Users\xavieran\AppData\Local\Temp\ccJy6OMN.s 			page 48


 1579              		.loc 1 544 0
 1580 0a5c 0B23     		movs	r3, #11
 1581 0a5e A7F85630 		strh	r3, [r7, #86]	@ movhi
 545:.\main.c      ****                     start_ultrasonic();
 1582              		.loc 1 545 0
 1583 0a62 FFF7FEFF 		bl	start_ultrasonic
 546:.\main.c      ****                     break;
 1584              		.loc 1 546 0
 1585 0a66 E7E2     		b	.L14
 1586              	.L62:
 547:.\main.c      ****                 } else if (within_range(27, ir_result, 33)){
 1587              		.loc 1 547 0
 1588 0a68 FB88     		ldrh	r3, [r7, #6]
 1589 0a6a 1B20     		movs	r0, #27
 1590 0a6c 1946     		mov	r1, r3
 1591 0a6e 2122     		movs	r2, #33
 1592 0a70 FFF7FEFF 		bl	within_range
 1593 0a74 0346     		mov	r3, r0
 1594 0a76 002B     		cmp	r3, #0
 1595 0a78 24D0     		beq	.L63
 548:.\main.c      ****                     CyDelay(300);
 1596              		.loc 1 548 0
 1597 0a7a 4FF49670 		mov	r0, #300
 1598 0a7e FFF7FEFF 		bl	CyDelay
 549:.\main.c      ****                     ir_result = get_ir_val();
 1599              		.loc 1 549 0
 1600 0a82 FFF7FEFF 		bl	get_ir_val
 1601 0a86 0346     		mov	r3, r0
 1602 0a88 FB80     		strh	r3, [r7, #6]	@ movhi
 550:.\main.c      ****                     CyDelay(300);
 1603              		.loc 1 550 0
 1604 0a8a 4FF49670 		mov	r0, #300
 1605 0a8e FFF7FEFF 		bl	CyDelay
 551:.\main.c      ****                     if (within_range(27, ir_result, 33) && within_range(27,get_ir_val(),33)){
 1606              		.loc 1 551 0
 1607 0a92 FB88     		ldrh	r3, [r7, #6]
 1608 0a94 1B20     		movs	r0, #27
 1609 0a96 1946     		mov	r1, r3
 1610 0a98 2122     		movs	r2, #33
 1611 0a9a FFF7FEFF 		bl	within_range
 1612 0a9e 0346     		mov	r3, r0
 1613 0aa0 002B     		cmp	r3, #0
 1614 0aa2 0ED0     		beq	.L64
 551:.\main.c      ****                     if (within_range(27, ir_result, 33) && within_range(27,get_ir_val(),33)){
 1615              		.loc 1 551 0 is_stmt 0 discriminator 1
 1616 0aa4 FFF7FEFF 		bl	get_ir_val
 1617 0aa8 0346     		mov	r3, r0
 1618 0aaa 1B20     		movs	r0, #27
 1619 0aac 1946     		mov	r1, r3
 1620 0aae 2122     		movs	r2, #33
 1621 0ab0 FFF7FEFF 		bl	within_range
 1622 0ab4 0346     		mov	r3, r0
 1623 0ab6 002B     		cmp	r3, #0
 1624 0ab8 03D0     		beq	.L64
 552:.\main.c      ****                         state = S_NEAR_HOME_SAW_30;
 1625              		.loc 1 552 0 is_stmt 1
 1626 0aba 0D23     		movs	r3, #13
ARM GAS  C:\Users\xavieran\AppData\Local\Temp\ccJy6OMN.s 			page 49


 1627 0abc A7F85630 		strh	r3, [r7, #86]	@ movhi
 554:.\main.c      ****                     break;
 1628              		.loc 1 554 0
 1629 0ac0 BAE2     		b	.L14
 1630              	.L64:
 1631 0ac2 B9E2     		b	.L14
 1632              	.L63:
 556:.\main.c      ****                 go_backward(250, 255);
 1633              		.loc 1 556 0
 1634 0ac4 FA20     		movs	r0, #250
 1635 0ac6 FF21     		movs	r1, #255
 1636 0ac8 FFF7FEFF 		bl	go_backward
 557:.\main.c      ****                 break;
 1637              		.loc 1 557 0
 1638 0acc B4E2     		b	.L14
 1639              	.L26:
 560:.\main.c      ****                 select_stack();
 1640              		.loc 1 560 0
 1641 0ace FFF7FEFF 		bl	select_stack
 561:.\main.c      ****                 POS_PRINTF(0,0,"CENTERED ON BASE");
 1642              		.loc 1 561 0
 1643 0ad2 694A     		ldr	r2, .L114
 1644 0ad4 6C4B     		ldr	r3, .L114+16
 1645 0ad6 1446     		mov	r4, r2
 1646 0ad8 1D46     		mov	r5, r3
 1647 0ada 0FCD     		ldmia	r5!, {r0, r1, r2, r3}
 1648 0adc 0FC4     		stmia	r4!, {r0, r1, r2, r3}
 1649 0ade 2B68     		ldr	r3, [r5]
 1650 0ae0 2370     		strb	r3, [r4]
 1651 0ae2 0020     		movs	r0, #0
 1652 0ae4 0021     		movs	r1, #0
 1653 0ae6 FFF7FEFF 		bl	LCD_Position
 1654 0aea 6348     		ldr	r0, .L114
 1655 0aec FFF7FEFF 		bl	LCD_PrintString
 562:.\main.c      ****                 HEADING_ERROR_LIMIT = 1;
 1656              		.loc 1 562 0
 1657 0af0 664B     		ldr	r3, .L114+20
 1658 0af2 0122     		movs	r2, #1
 1659 0af4 1A70     		strb	r2, [r3]
 563:.\main.c      ****                 CyDelay(200);
 1660              		.loc 1 563 0
 1661 0af6 C820     		movs	r0, #200
 1662 0af8 FFF7FEFF 		bl	CyDelay
 564:.\main.c      ****                 arm_set_level(0);
 1663              		.loc 1 564 0
 1664 0afc 0020     		movs	r0, #0
 1665 0afe FFF7FEFF 		bl	arm_set_level
 565:.\main.c      ****                 CyDelay(200);
 1666              		.loc 1 565 0
 1667 0b02 C820     		movs	r0, #200
 1668 0b04 FFF7FEFF 		bl	CyDelay
 566:.\main.c      ****                 drop_puck();
 1669              		.loc 1 566 0
 1670 0b08 FFF7FEFF 		bl	drop_puck
 567:.\main.c      ****                 go_forward_blind(200, 220);
 1671              		.loc 1 567 0
 1672 0b0c C820     		movs	r0, #200
ARM GAS  C:\Users\xavieran\AppData\Local\Temp\ccJy6OMN.s 			page 50


 1673 0b0e DC21     		movs	r1, #220
 1674 0b10 FFF7FEFF 		bl	go_forward_blind
 568:.\main.c      ****                 pickup_puck();
 1675              		.loc 1 568 0
 1676 0b14 FFF7FEFF 		bl	pickup_puck
 569:.\main.c      ****                 CyDelay(200);
 1677              		.loc 1 569 0
 1678 0b18 C820     		movs	r0, #200
 1679 0b1a FFF7FEFF 		bl	CyDelay
 570:.\main.c      ****                 arm_inbetween_level(1,2);
 1680              		.loc 1 570 0
 1681 0b1e 0120     		movs	r0, #1
 1682 0b20 0221     		movs	r1, #2
 1683 0b22 FFF7FEFF 		bl	arm_inbetween_level
 571:.\main.c      ****                 while (get_mean_ultra() > 24){
 1684              		.loc 1 571 0
 1685 0b26 0BE0     		b	.L65
 1686              	.L66:
 572:.\main.c      ****                     go_forward(400, 255);
 1687              		.loc 1 572 0
 1688 0b28 4FF4C870 		mov	r0, #400
 1689 0b2c FF21     		movs	r1, #255
 1690 0b2e FFF7FEFF 		bl	go_forward
 573:.\main.c      ****                     rotate_degrees(0);
 1691              		.loc 1 573 0
 1692 0b32 0020     		movs	r0, #0
 1693 0b34 FFF7FEFF 		bl	rotate_degrees
 574:.\main.c      ****                     CyDelay(300);
 1694              		.loc 1 574 0
 1695 0b38 4FF49670 		mov	r0, #300
 1696 0b3c FFF7FEFF 		bl	CyDelay
 1697              	.L65:
 571:.\main.c      ****                 while (get_mean_ultra() > 24){
 1698              		.loc 1 571 0 discriminator 1
 1699 0b40 FFF7FEFF 		bl	get_mean_ultra
 1700 0b44 0346     		mov	r3, r0
 1701 0b46 182B     		cmp	r3, #24
 1702 0b48 EED8     		bhi	.L66
 576:.\main.c      ****                 ultra = get_mean_ultra();
 1703              		.loc 1 576 0
 1704 0b4a FFF7FEFF 		bl	get_mean_ultra
 1705 0b4e 0346     		mov	r3, r0
 1706 0b50 7B63     		str	r3, [r7, #52]
 577:.\main.c      ****                 int stackable = 0;
 1707              		.loc 1 577 0
 1708 0b52 0023     		movs	r3, #0
 1709 0b54 7B62     		str	r3, [r7, #36]
 578:.\main.c      ****                 while (!within_range(14,ultra,15) && !stackable){
 1710              		.loc 1 578 0
 1711 0b56 32E0     		b	.L67
 1712              	.L71:
 579:.\main.c      ****                     ultra = get_mean_ultra();
 1713              		.loc 1 579 0
 1714 0b58 FFF7FEFF 		bl	get_mean_ultra
 1715 0b5c 0346     		mov	r3, r0
 1716 0b5e 7B63     		str	r3, [r7, #52]
 580:.\main.c      ****                     POS_PRINTF(1,0,"ULTRA: %d", ultra);
ARM GAS  C:\Users\xavieran\AppData\Local\Temp\ccJy6OMN.s 			page 51


 1717              		.loc 1 580 0
 1718 0b60 4548     		ldr	r0, .L114
 1719 0b62 4B49     		ldr	r1, .L114+24
 1720 0b64 7A6B     		ldr	r2, [r7, #52]
 1721 0b66 FFF7FEFF 		bl	sprintf
 1722 0b6a 0120     		movs	r0, #1
 1723 0b6c 0021     		movs	r1, #0
 1724 0b6e FFF7FEFF 		bl	LCD_Position
 1725 0b72 4148     		ldr	r0, .L114
 1726 0b74 FFF7FEFF 		bl	LCD_PrintString
 581:.\main.c      ****                     if (ultra > 15){
 1727              		.loc 1 581 0
 1728 0b78 7B6B     		ldr	r3, [r7, #52]
 1729 0b7a 0F2B     		cmp	r3, #15
 1730 0b7c 0BDD     		ble	.L68
 582:.\main.c      ****                         go_forward(200, 255);
 1731              		.loc 1 582 0
 1732 0b7e C820     		movs	r0, #200
 1733 0b80 FF21     		movs	r1, #255
 1734 0b82 FFF7FEFF 		bl	go_forward
 583:.\main.c      ****                         rotate_degrees(0);
 1735              		.loc 1 583 0
 1736 0b86 0020     		movs	r0, #0
 1737 0b88 FFF7FEFF 		bl	rotate_degrees
 584:.\main.c      ****                         CyDelay(300);
 1738              		.loc 1 584 0
 1739 0b8c 4FF49670 		mov	r0, #300
 1740 0b90 FFF7FEFF 		bl	CyDelay
 1741 0b94 13E0     		b	.L67
 1742              	.L68:
 585:.\main.c      ****                     } else if (ultra < 14){
 1743              		.loc 1 585 0
 1744 0b96 7B6B     		ldr	r3, [r7, #52]
 1745 0b98 0D2B     		cmp	r3, #13
 1746 0b9a 0BDC     		bgt	.L69
 586:.\main.c      ****                         go_backward(150,255);
 1747              		.loc 1 586 0
 1748 0b9c 9620     		movs	r0, #150
 1749 0b9e FF21     		movs	r1, #255
 1750 0ba0 FFF7FEFF 		bl	go_backward
 587:.\main.c      ****                         rotate_degrees(0);
 1751              		.loc 1 587 0
 1752 0ba4 0020     		movs	r0, #0
 1753 0ba6 FFF7FEFF 		bl	rotate_degrees
 588:.\main.c      ****                         CyDelay(300);
 1754              		.loc 1 588 0
 1755 0baa 4FF49670 		mov	r0, #300
 1756 0bae FFF7FEFF 		bl	CyDelay
 1757 0bb2 04E0     		b	.L67
 1758              	.L69:
 589:.\main.c      ****                     } else if (ultra == 14){
 1759              		.loc 1 589 0
 1760 0bb4 7B6B     		ldr	r3, [r7, #52]
 1761 0bb6 0E2B     		cmp	r3, #14
 1762 0bb8 01D1     		bne	.L67
 590:.\main.c      ****                         stackable = 1;
 1763              		.loc 1 590 0
ARM GAS  C:\Users\xavieran\AppData\Local\Temp\ccJy6OMN.s 			page 52


 1764 0bba 0123     		movs	r3, #1
 1765 0bbc 7B62     		str	r3, [r7, #36]
 1766              	.L67:
 578:.\main.c      ****                 while (!within_range(14,ultra,15) && !stackable){
 1767              		.loc 1 578 0 discriminator 1
 1768 0bbe 0E20     		movs	r0, #14
 1769 0bc0 796B     		ldr	r1, [r7, #52]
 1770 0bc2 0F22     		movs	r2, #15
 1771 0bc4 FFF7FEFF 		bl	within_range
 1772 0bc8 0346     		mov	r3, r0
 1773 0bca 002B     		cmp	r3, #0
 1774 0bcc 02D1     		bne	.L70
 578:.\main.c      ****                 while (!within_range(14,ultra,15) && !stackable){
 1775              		.loc 1 578 0 is_stmt 0 discriminator 2
 1776 0bce 7B6A     		ldr	r3, [r7, #36]
 1777 0bd0 002B     		cmp	r3, #0
 1778 0bd2 C1D0     		beq	.L71
 1779              	.L70:
 594:.\main.c      ****                 STALL_SPEED = BASE_STALL_SPEED;
 1780              		.loc 1 594 0 is_stmt 1
 1781 0bd4 2F4B     		ldr	r3, .L114+28
 1782 0bd6 BE22     		movs	r2, #190
 1783 0bd8 1A70     		strb	r2, [r3]
 596:.\main.c      ****                 rotate_left(200);
 1784              		.loc 1 596 0
 1785 0bda C820     		movs	r0, #200
 1786 0bdc FFF7FEFF 		bl	rotate_left
 597:.\main.c      ****                 CyDelay(400);
 1787              		.loc 1 597 0
 1788 0be0 4FF4C870 		mov	r0, #400
 1789 0be4 FFF7FEFF 		bl	CyDelay
 599:.\main.c      ****                 set_heading(271);
 1790              		.loc 1 599 0
 1791 0be8 40F20F10 		movw	r0, #271
 1792 0bec FFF7FEFF 		bl	set_heading
 600:.\main.c      ****                 rotate_degrees(0);
 1793              		.loc 1 600 0
 1794 0bf0 0020     		movs	r0, #0
 1795 0bf2 FFF7FEFF 		bl	rotate_degrees
 602:.\main.c      ****                 state = S_PLACE_PUCK;
 1796              		.loc 1 602 0
 1797 0bf6 0C23     		movs	r3, #12
 1798 0bf8 A7F85630 		strh	r3, [r7, #86]	@ movhi
 603:.\main.c      ****                 break;
 1799              		.loc 1 603 0
 1800 0bfc 1CE2     		b	.L14
 1801              	.L27:
 606:.\main.c      ****                 POS_PRINTF(0,0,"PLACING PUCK");
 1802              		.loc 1 606 0
 1803 0bfe 1E4A     		ldr	r2, .L114
 1804 0c00 254B     		ldr	r3, .L114+32
 1805 0c02 1446     		mov	r4, r2
 1806 0c04 0FCB     		ldmia	r3, {r0, r1, r2, r3}
 1807 0c06 07C4     		stmia	r4!, {r0, r1, r2}
 1808 0c08 2370     		strb	r3, [r4]
 1809 0c0a 0020     		movs	r0, #0
 1810 0c0c 0021     		movs	r1, #0
ARM GAS  C:\Users\xavieran\AppData\Local\Temp\ccJy6OMN.s 			page 53


 1811 0c0e FFF7FEFF 		bl	LCD_Position
 1812 0c12 1948     		ldr	r0, .L114
 1813 0c14 FFF7FEFF 		bl	LCD_PrintString
 608:.\main.c      ****                 arm_set_level(4);
 1814              		.loc 1 608 0
 1815 0c18 0420     		movs	r0, #4
 1816 0c1a FFF7FEFF 		bl	arm_set_level
 610:.\main.c      ****                 if (pucks_gotten == 1){
 1817              		.loc 1 610 0
 1818 0c1e 3B6D     		ldr	r3, [r7, #80]
 1819 0c20 012B     		cmp	r3, #1
 1820 0c22 3BD1     		bne	.L72
 611:.\main.c      ****                     for (i = 0; i < 3; i++){
 1821              		.loc 1 611 0
 1822 0c24 0023     		movs	r3, #0
 1823 0c26 3B63     		str	r3, [r7, #48]
 1824 0c28 0BE0     		b	.L73
 1825              	.L74:
 612:.\main.c      ****                         go_forward_blind(300, 210);
 1826              		.loc 1 612 0 discriminator 2
 1827 0c2a 4FF49670 		mov	r0, #300
 1828 0c2e D221     		movs	r1, #210
 1829 0c30 FFF7FEFF 		bl	go_forward_blind
 614:.\main.c      ****                         CyDelay(600);
 1830              		.loc 1 614 0 discriminator 2
 1831 0c34 4FF41670 		mov	r0, #600
 1832 0c38 FFF7FEFF 		bl	CyDelay
 611:.\main.c      ****                     for (i = 0; i < 3; i++){
 1833              		.loc 1 611 0 discriminator 2
 1834 0c3c 3B6B     		ldr	r3, [r7, #48]
 1835 0c3e 0133     		adds	r3, r3, #1
 1836 0c40 3B63     		str	r3, [r7, #48]
 1837              	.L73:
 611:.\main.c      ****                     for (i = 0; i < 3; i++){
 1838              		.loc 1 611 0 is_stmt 0 discriminator 1
 1839 0c42 3B6B     		ldr	r3, [r7, #48]
 1840 0c44 022B     		cmp	r3, #2
 1841 0c46 F0DD     		ble	.L74
 616:.\main.c      ****                     CyDelay(300);
 1842              		.loc 1 616 0 is_stmt 1
 1843 0c48 4FF49670 		mov	r0, #300
 1844 0c4c FFF7FEFF 		bl	CyDelay
 617:.\main.c      ****                     arm_inbetween_level(0,1);
 1845              		.loc 1 617 0
 1846 0c50 0020     		movs	r0, #0
 1847 0c52 0121     		movs	r1, #1
 1848 0c54 FFF7FEFF 		bl	arm_inbetween_level
 618:.\main.c      ****                     CyDelay(300);
 1849              		.loc 1 618 0
 1850 0c58 4FF49670 		mov	r0, #300
 1851 0c5c FFF7FEFF 		bl	CyDelay
 619:.\main.c      ****                     drop_puck();
 1852              		.loc 1 619 0
 1853 0c60 FFF7FEFF 		bl	drop_puck
 620:.\main.c      ****                     CyDelay(200);
 1854              		.loc 1 620 0
 1855 0c64 C820     		movs	r0, #200
ARM GAS  C:\Users\xavieran\AppData\Local\Temp\ccJy6OMN.s 			page 54


 1856 0c66 FFF7FEFF 		bl	CyDelay
 621:.\main.c      ****                     go_backward(1200, 255);
 1857              		.loc 1 621 0
 1858 0c6a 4FF49660 		mov	r0, #1200
 1859 0c6e FF21     		movs	r1, #255
 1860 0c70 FFF7FEFF 		bl	go_backward
 1861 0c74 7FE1     		b	.L75
 1862              	.L115:
 1863 0c76 00BF     		.align	2
 1864              	.L114:
 1865 0c78 00000000 		.word	outString
 1866 0c7c 28010000 		.word	.LC20
 1867 0c80 3C010000 		.word	.LC21
 1868 0c84 44010000 		.word	.LC22
 1869 0c88 58010000 		.word	.LC23
 1870 0c8c 00000000 		.word	HEADING_ERROR_LIMIT
 1871 0c90 6C010000 		.word	.LC24
 1872 0c94 00000000 		.word	STALL_SPEED
 1873 0c98 78010000 		.word	.LC25
 1874              	.L72:
 1875              	.LBB6:
 623:.\main.c      ****                     arm_set_level(pucks_gotten + 1);
 1876              		.loc 1 623 0
 1877 0c9c 3B6D     		ldr	r3, [r7, #80]
 1878 0c9e 0133     		adds	r3, r3, #1
 1879 0ca0 1846     		mov	r0, r3
 1880 0ca2 FFF7FEFF 		bl	arm_set_level
 624:.\main.c      ****                     go_forward_blind(300, 200);
 1881              		.loc 1 624 0
 1882 0ca6 4FF49670 		mov	r0, #300
 1883 0caa C821     		movs	r1, #200
 1884 0cac FFF7FEFF 		bl	go_forward_blind
 626:.\main.c      ****                     int on_stack = 0;
 1885              		.loc 1 626 0
 1886 0cb0 0023     		movs	r3, #0
 1887 0cb2 3B62     		str	r3, [r7, #32]
 627:.\main.c      ****                     while (!on_stack){
 1888              		.loc 1 627 0
 1889 0cb4 7FE0     		b	.L76
 1890              	.L81:
 628:.\main.c      ****                         POS_PRINTF(0,0,"STACKING!");
 1891              		.loc 1 628 0
 1892 0cb6 BA4B     		ldr	r3, .L116
 1893 0cb8 BA4A     		ldr	r2, .L116+4
 1894 0cba 07CA     		ldmia	r2, {r0, r1, r2}
 1895 0cbc 03C3     		stmia	r3!, {r0, r1}
 1896 0cbe 1A80     		strh	r2, [r3]	@ movhi
 1897 0cc0 0020     		movs	r0, #0
 1898 0cc2 0021     		movs	r1, #0
 1899 0cc4 FFF7FEFF 		bl	LCD_Position
 1900 0cc8 B548     		ldr	r0, .L116
 1901 0cca FFF7FEFF 		bl	LCD_PrintString
 629:.\main.c      ****                         POS_PRINTF(1, 0, "B%d SU%d", beam_broken(), get_mean_ultra_s());
 1902              		.loc 1 629 0
 1903 0cce FFF7FEFF 		bl	beam_broken
 1904 0cd2 0346     		mov	r3, r0
 1905 0cd4 1C46     		mov	r4, r3
ARM GAS  C:\Users\xavieran\AppData\Local\Temp\ccJy6OMN.s 			page 55


 1906 0cd6 FFF7FEFF 		bl	get_mean_ultra_s
 1907 0cda 0346     		mov	r3, r0
 1908 0cdc B048     		ldr	r0, .L116
 1909 0cde B249     		ldr	r1, .L116+8
 1910 0ce0 2246     		mov	r2, r4
 1911 0ce2 FFF7FEFF 		bl	sprintf
 1912 0ce6 0120     		movs	r0, #1
 1913 0ce8 0021     		movs	r1, #0
 1914 0cea FFF7FEFF 		bl	LCD_Position
 1915 0cee AC48     		ldr	r0, .L116
 1916 0cf0 FFF7FEFF 		bl	LCD_PrintString
 630:.\main.c      ****                         if (beam_broken()){
 1917              		.loc 1 630 0
 1918 0cf4 FFF7FEFF 		bl	beam_broken
 1919 0cf8 0346     		mov	r3, r0
 1920 0cfa 002B     		cmp	r3, #0
 1921 0cfc 0ED0     		beq	.L77
 631:.\main.c      ****                             POS_PRINTF(0,0,"BEAM BROKEN");
 1922              		.loc 1 631 0
 1923 0cfe A84B     		ldr	r3, .L116
 1924 0d00 AA4A     		ldr	r2, .L116+12
 1925 0d02 07CA     		ldmia	r2, {r0, r1, r2}
 1926 0d04 83E80700 		stmia	r3, {r0, r1, r2}
 1927 0d08 0020     		movs	r0, #0
 1928 0d0a 0021     		movs	r1, #0
 1929 0d0c FFF7FEFF 		bl	LCD_Position
 1930 0d10 A348     		ldr	r0, .L116
 1931 0d12 FFF7FEFF 		bl	LCD_PrintString
 632:.\main.c      ****                             on_stack = 1;
 1932              		.loc 1 632 0
 1933 0d16 0123     		movs	r3, #1
 1934 0d18 3B62     		str	r3, [r7, #32]
 1935 0d1a 48E0     		b	.L78
 1936              	.L77:
 633:.\main.c      ****                         } else if (get_mean_ultra_s() < 12){
 1937              		.loc 1 633 0
 1938 0d1c FFF7FEFF 		bl	get_mean_ultra_s
 1939 0d20 0346     		mov	r3, r0
 1940 0d22 0B2B     		cmp	r3, #11
 1941 0d24 16D8     		bhi	.L79
 634:.\main.c      ****                             POS_PRINTF(0,0,"Close to stack");
 1942              		.loc 1 634 0
 1943 0d26 9E4A     		ldr	r2, .L116
 1944 0d28 A14B     		ldr	r3, .L116+16
 1945 0d2a 1446     		mov	r4, r2
 1946 0d2c 0FCB     		ldmia	r3, {r0, r1, r2, r3}
 1947 0d2e 07C4     		stmia	r4!, {r0, r1, r2}
 1948 0d30 2380     		strh	r3, [r4]	@ movhi
 1949 0d32 0234     		adds	r4, r4, #2
 1950 0d34 1B0C     		lsrs	r3, r3, #16
 1951 0d36 2370     		strb	r3, [r4]
 1952 0d38 0020     		movs	r0, #0
 1953 0d3a 0021     		movs	r1, #0
 1954 0d3c FFF7FEFF 		bl	LCD_Position
 1955 0d40 9748     		ldr	r0, .L116
 1956 0d42 FFF7FEFF 		bl	LCD_PrintString
 635:.\main.c      ****                             go_backward_blind(160, 170);
ARM GAS  C:\Users\xavieran\AppData\Local\Temp\ccJy6OMN.s 			page 56


 1957              		.loc 1 635 0
 1958 0d46 A020     		movs	r0, #160
 1959 0d48 AA21     		movs	r1, #170
 1960 0d4a FFF7FEFF 		bl	go_backward_blind
 637:.\main.c      ****                             on_stack = 1;
 1961              		.loc 1 637 0
 1962 0d4e 0123     		movs	r3, #1
 1963 0d50 3B62     		str	r3, [r7, #32]
 1964 0d52 2CE0     		b	.L78
 1965              	.L79:
 638:.\main.c      ****                         } else if (get_mean_ultra_s() > 17) {
 1966              		.loc 1 638 0
 1967 0d54 FFF7FEFF 		bl	get_mean_ultra_s
 1968 0d58 0346     		mov	r3, r0
 1969 0d5a 112B     		cmp	r3, #17
 1970 0d5c 14D9     		bls	.L80
 639:.\main.c      ****                             POS_PRINTF(0,0,"FAR FROM STACK");
 1971              		.loc 1 639 0
 1972 0d5e 904A     		ldr	r2, .L116
 1973 0d60 944B     		ldr	r3, .L116+20
 1974 0d62 1446     		mov	r4, r2
 1975 0d64 0FCB     		ldmia	r3, {r0, r1, r2, r3}
 1976 0d66 07C4     		stmia	r4!, {r0, r1, r2}
 1977 0d68 2380     		strh	r3, [r4]	@ movhi
 1978 0d6a 0234     		adds	r4, r4, #2
 1979 0d6c 1B0C     		lsrs	r3, r3, #16
 1980 0d6e 2370     		strb	r3, [r4]
 1981 0d70 0020     		movs	r0, #0
 1982 0d72 0021     		movs	r1, #0
 1983 0d74 FFF7FEFF 		bl	LCD_Position
 1984 0d78 8948     		ldr	r0, .L116
 1985 0d7a FFF7FEFF 		bl	LCD_PrintString
 640:.\main.c      ****                             go_forward_blind(160, 170);
 1986              		.loc 1 640 0
 1987 0d7e A020     		movs	r0, #160
 1988 0d80 AA21     		movs	r1, #170
 1989 0d82 FFF7FEFF 		bl	go_forward_blind
 1990 0d86 12E0     		b	.L78
 1991              	.L80:
 643:.\main.c      ****                             POS_PRINTF(0,0,"between 12 and 17");
 1992              		.loc 1 643 0
 1993 0d88 854A     		ldr	r2, .L116
 1994 0d8a 8B4B     		ldr	r3, .L116+24
 1995 0d8c 1446     		mov	r4, r2
 1996 0d8e 1D46     		mov	r5, r3
 1997 0d90 0FCD     		ldmia	r5!, {r0, r1, r2, r3}
 1998 0d92 0FC4     		stmia	r4!, {r0, r1, r2, r3}
 1999 0d94 2B68     		ldr	r3, [r5]
 2000 0d96 2380     		strh	r3, [r4]	@ movhi
 2001 0d98 0020     		movs	r0, #0
 2002 0d9a 0021     		movs	r1, #0
 2003 0d9c FFF7FEFF 		bl	LCD_Position
 2004 0da0 7F48     		ldr	r0, .L116
 2005 0da2 FFF7FEFF 		bl	LCD_PrintString
 644:.\main.c      ****                             go_forward_blind(160, 170);
 2006              		.loc 1 644 0
 2007 0da6 A020     		movs	r0, #160
ARM GAS  C:\Users\xavieran\AppData\Local\Temp\ccJy6OMN.s 			page 57


 2008 0da8 AA21     		movs	r1, #170
 2009 0daa FFF7FEFF 		bl	go_forward_blind
 2010              	.L78:
 647:.\main.c      ****                         CyDelay(300);
 2011              		.loc 1 647 0
 2012 0dae 4FF49670 		mov	r0, #300
 2013 0db2 FFF7FEFF 		bl	CyDelay
 2014              	.L76:
 627:.\main.c      ****                     while (!on_stack){
 2015              		.loc 1 627 0 discriminator 1
 2016 0db6 3B6A     		ldr	r3, [r7, #32]
 2017 0db8 002B     		cmp	r3, #0
 2018 0dba 3FF47CAF 		beq	.L81
 654:.\main.c      ****                     int ultra = get_mean_ultra_s();
 2019              		.loc 1 654 0
 2020 0dbe FFF7FEFF 		bl	get_mean_ultra_s
 2021 0dc2 0346     		mov	r3, r0
 2022 0dc4 FB61     		str	r3, [r7, #28]
 655:.\main.c      ****                     int stackable = 0;
 2023              		.loc 1 655 0
 2024 0dc6 0023     		movs	r3, #0
 2025 0dc8 BB61     		str	r3, [r7, #24]
 656:.\main.c      ****                     switch (pucks_gotten){
 2026              		.loc 1 656 0
 2027 0dca 3B6D     		ldr	r3, [r7, #80]
 2028 0dcc 032B     		cmp	r3, #3
 2029 0dce 6ED0     		beq	.L105
 2030 0dd0 042B     		cmp	r3, #4
 2031 0dd2 00F0A780 		beq	.L106
 2032 0dd6 022B     		cmp	r3, #2
 2033 0dd8 2ED0     		beq	.L107
 2034 0dda B0E0     		b	.L82
 2035              	.L90:
 659:.\main.c      ****                                 ultra = get_mean_ultra_s();
 2036              		.loc 1 659 0
 2037 0ddc FFF7FEFF 		bl	get_mean_ultra_s
 2038 0de0 0346     		mov	r3, r0
 2039 0de2 FB61     		str	r3, [r7, #28]
 660:.\main.c      ****                                 POS_PRINTF(1,0,"ULTRA: %d", ultra);
 2040              		.loc 1 660 0
 2041 0de4 6E48     		ldr	r0, .L116
 2042 0de6 7549     		ldr	r1, .L116+28
 2043 0de8 FA69     		ldr	r2, [r7, #28]
 2044 0dea FFF7FEFF 		bl	sprintf
 2045 0dee 0120     		movs	r0, #1
 2046 0df0 0021     		movs	r1, #0
 2047 0df2 FFF7FEFF 		bl	LCD_Position
 2048 0df6 6A48     		ldr	r0, .L116
 2049 0df8 FFF7FEFF 		bl	LCD_PrintString
 661:.\main.c      ****                                 if (ultra > LEVEL_1_DIST + 1){
 2050              		.loc 1 661 0
 2051 0dfc FB69     		ldr	r3, [r7, #28]
 2052 0dfe 0F2B     		cmp	r3, #15
 2053 0e00 08DD     		ble	.L87
 662:.\main.c      ****                                     go_forward_blind(160, 160);
 2054              		.loc 1 662 0
 2055 0e02 A020     		movs	r0, #160
ARM GAS  C:\Users\xavieran\AppData\Local\Temp\ccJy6OMN.s 			page 58


 2056 0e04 A021     		movs	r1, #160
 2057 0e06 FFF7FEFF 		bl	go_forward_blind
 664:.\main.c      ****                                     CyDelay(300);
 2058              		.loc 1 664 0
 2059 0e0a 4FF49670 		mov	r0, #300
 2060 0e0e FFF7FEFF 		bl	CyDelay
 2061 0e12 12E0     		b	.L86
 2062              	.L87:
 665:.\main.c      ****                                 } else if (ultra < LEVEL_1_DIST){
 2063              		.loc 1 665 0
 2064 0e14 FB69     		ldr	r3, [r7, #28]
 2065 0e16 0D2B     		cmp	r3, #13
 2066 0e18 08DC     		bgt	.L88
 666:.\main.c      ****                                     go_backward_blind(150,160);
 2067              		.loc 1 666 0
 2068 0e1a 9620     		movs	r0, #150
 2069 0e1c A021     		movs	r1, #160
 2070 0e1e FFF7FEFF 		bl	go_backward_blind
 668:.\main.c      ****                                     CyDelay(300);
 2071              		.loc 1 668 0
 2072 0e22 4FF49670 		mov	r0, #300
 2073 0e26 FFF7FEFF 		bl	CyDelay
 2074 0e2a 06E0     		b	.L86
 2075              	.L88:
 669:.\main.c      ****                                 } else if (ultra == LEVEL_1_DIST){
 2076              		.loc 1 669 0
 2077 0e2c FB69     		ldr	r3, [r7, #28]
 2078 0e2e 0E2B     		cmp	r3, #14
 2079 0e30 03D1     		bne	.L86
 670:.\main.c      ****                                     stackable = 1;
 2080              		.loc 1 670 0
 2081 0e32 0123     		movs	r3, #1
 2082 0e34 BB61     		str	r3, [r7, #24]
 2083 0e36 00E0     		b	.L86
 2084              	.L107:
 658:.\main.c      ****                             while (!within_range(LEVEL_1_DIST,ultra,LEVEL_1_DIST + 1) && !stackable
 2085              		.loc 1 658 0
 2086 0e38 00BF     		nop
 2087              	.L86:
 658:.\main.c      ****                             while (!within_range(LEVEL_1_DIST,ultra,LEVEL_1_DIST + 1) && !stackable
 2088              		.loc 1 658 0 is_stmt 0 discriminator 1
 2089 0e3a 0E20     		movs	r0, #14
 2090 0e3c F969     		ldr	r1, [r7, #28]
 2091 0e3e 0F22     		movs	r2, #15
 2092 0e40 FFF7FEFF 		bl	within_range
 2093 0e44 0346     		mov	r3, r0
 2094 0e46 002B     		cmp	r3, #0
 2095 0e48 02D1     		bne	.L89
 658:.\main.c      ****                             while (!within_range(LEVEL_1_DIST,ultra,LEVEL_1_DIST + 1) && !stackable
 2096              		.loc 1 658 0 discriminator 2
 2097 0e4a BB69     		ldr	r3, [r7, #24]
 2098 0e4c 002B     		cmp	r3, #0
 2099 0e4e C5D0     		beq	.L90
 2100              	.L89:
 673:.\main.c      ****                             break;   
 2101              		.loc 1 673 0 is_stmt 1
 2102 0e50 75E0     		b	.L82
ARM GAS  C:\Users\xavieran\AppData\Local\Temp\ccJy6OMN.s 			page 59


 2103              	.L95:
 676:.\main.c      ****                                 ultra = get_mean_ultra_s();
 2104              		.loc 1 676 0
 2105 0e52 FFF7FEFF 		bl	get_mean_ultra_s
 2106 0e56 0346     		mov	r3, r0
 2107 0e58 FB61     		str	r3, [r7, #28]
 677:.\main.c      ****                                 POS_PRINTF(1,0,"ULTRA: %d", ultra);
 2108              		.loc 1 677 0
 2109 0e5a 5148     		ldr	r0, .L116
 2110 0e5c 5749     		ldr	r1, .L116+28
 2111 0e5e FA69     		ldr	r2, [r7, #28]
 2112 0e60 FFF7FEFF 		bl	sprintf
 2113 0e64 0120     		movs	r0, #1
 2114 0e66 0021     		movs	r1, #0
 2115 0e68 FFF7FEFF 		bl	LCD_Position
 2116 0e6c 4C48     		ldr	r0, .L116
 2117 0e6e FFF7FEFF 		bl	LCD_PrintString
 678:.\main.c      ****                                 if (ultra > LEVEL_2_DIST + 1){
 2118              		.loc 1 678 0
 2119 0e72 FB69     		ldr	r3, [r7, #28]
 2120 0e74 102B     		cmp	r3, #16
 2121 0e76 08DD     		ble	.L92
 679:.\main.c      ****                                     go_forward_blind(160, 160);
 2122              		.loc 1 679 0
 2123 0e78 A020     		movs	r0, #160
 2124 0e7a A021     		movs	r1, #160
 2125 0e7c FFF7FEFF 		bl	go_forward_blind
 681:.\main.c      ****                                     CyDelay(300);
 2126              		.loc 1 681 0
 2127 0e80 4FF49670 		mov	r0, #300
 2128 0e84 FFF7FEFF 		bl	CyDelay
 2129 0e88 12E0     		b	.L91
 2130              	.L92:
 682:.\main.c      ****                                 } else if (ultra < LEVEL_2_DIST){
 2131              		.loc 1 682 0
 2132 0e8a FB69     		ldr	r3, [r7, #28]
 2133 0e8c 0E2B     		cmp	r3, #14
 2134 0e8e 08DC     		bgt	.L93
 683:.\main.c      ****                                     go_backward_blind(150,160);
 2135              		.loc 1 683 0
 2136 0e90 9620     		movs	r0, #150
 2137 0e92 A021     		movs	r1, #160
 2138 0e94 FFF7FEFF 		bl	go_backward_blind
 685:.\main.c      ****                                     CyDelay(300);
 2139              		.loc 1 685 0
 2140 0e98 4FF49670 		mov	r0, #300
 2141 0e9c FFF7FEFF 		bl	CyDelay
 2142 0ea0 06E0     		b	.L91
 2143              	.L93:
 686:.\main.c      ****                                 } else if (ultra == LEVEL_2_DIST){
 2144              		.loc 1 686 0
 2145 0ea2 FB69     		ldr	r3, [r7, #28]
 2146 0ea4 0F2B     		cmp	r3, #15
 2147 0ea6 03D1     		bne	.L91
 687:.\main.c      ****                                     stackable = 1;
 2148              		.loc 1 687 0
 2149 0ea8 0123     		movs	r3, #1
ARM GAS  C:\Users\xavieran\AppData\Local\Temp\ccJy6OMN.s 			page 60


 2150 0eaa BB61     		str	r3, [r7, #24]
 2151 0eac 00E0     		b	.L91
 2152              	.L105:
 675:.\main.c      ****                             while (!within_range(LEVEL_2_DIST,ultra,LEVEL_2_DIST+1) && !stackable){
 2153              		.loc 1 675 0
 2154 0eae 00BF     		nop
 2155              	.L91:
 675:.\main.c      ****                             while (!within_range(LEVEL_2_DIST,ultra,LEVEL_2_DIST+1) && !stackable){
 2156              		.loc 1 675 0 is_stmt 0 discriminator 1
 2157 0eb0 0F20     		movs	r0, #15
 2158 0eb2 F969     		ldr	r1, [r7, #28]
 2159 0eb4 1022     		movs	r2, #16
 2160 0eb6 FFF7FEFF 		bl	within_range
 2161 0eba 0346     		mov	r3, r0
 2162 0ebc 002B     		cmp	r3, #0
 2163 0ebe 02D1     		bne	.L94
 675:.\main.c      ****                             while (!within_range(LEVEL_2_DIST,ultra,LEVEL_2_DIST+1) && !stackable){
 2164              		.loc 1 675 0 discriminator 2
 2165 0ec0 BB69     		ldr	r3, [r7, #24]
 2166 0ec2 002B     		cmp	r3, #0
 2167 0ec4 C5D0     		beq	.L95
 2168              	.L94:
 690:.\main.c      ****                             break;
 2169              		.loc 1 690 0 is_stmt 1
 2170 0ec6 3AE0     		b	.L82
 2171              	.L100:
 693:.\main.c      ****                                 ultra = get_mean_ultra_s();
 2172              		.loc 1 693 0
 2173 0ec8 FFF7FEFF 		bl	get_mean_ultra_s
 2174 0ecc 0346     		mov	r3, r0
 2175 0ece FB61     		str	r3, [r7, #28]
 694:.\main.c      ****                                 POS_PRINTF(1,0,"ULTRA: %d", ultra);
 2176              		.loc 1 694 0
 2177 0ed0 3348     		ldr	r0, .L116
 2178 0ed2 3A49     		ldr	r1, .L116+28
 2179 0ed4 FA69     		ldr	r2, [r7, #28]
 2180 0ed6 FFF7FEFF 		bl	sprintf
 2181 0eda 0120     		movs	r0, #1
 2182 0edc 0021     		movs	r1, #0
 2183 0ede FFF7FEFF 		bl	LCD_Position
 2184 0ee2 2F48     		ldr	r0, .L116
 2185 0ee4 FFF7FEFF 		bl	LCD_PrintString
 695:.\main.c      ****                                 if (ultra > LEVEL_3_DIST + 1){
 2186              		.loc 1 695 0
 2187 0ee8 FB69     		ldr	r3, [r7, #28]
 2188 0eea 112B     		cmp	r3, #17
 2189 0eec 08DD     		ble	.L97
 696:.\main.c      ****                                     go_forward_blind(200, 170);
 2190              		.loc 1 696 0
 2191 0eee C820     		movs	r0, #200
 2192 0ef0 AA21     		movs	r1, #170
 2193 0ef2 FFF7FEFF 		bl	go_forward_blind
 698:.\main.c      ****                                     CyDelay(300);
 2194              		.loc 1 698 0
 2195 0ef6 4FF49670 		mov	r0, #300
 2196 0efa FFF7FEFF 		bl	CyDelay
 2197 0efe 12E0     		b	.L96
ARM GAS  C:\Users\xavieran\AppData\Local\Temp\ccJy6OMN.s 			page 61


 2198              	.L97:
 699:.\main.c      ****                                 } else if (ultra < LEVEL_3_DIST){
 2199              		.loc 1 699 0
 2200 0f00 FB69     		ldr	r3, [r7, #28]
 2201 0f02 0F2B     		cmp	r3, #15
 2202 0f04 08DC     		bgt	.L98
 700:.\main.c      ****                                     go_backward_blind(200,170);
 2203              		.loc 1 700 0
 2204 0f06 C820     		movs	r0, #200
 2205 0f08 AA21     		movs	r1, #170
 2206 0f0a FFF7FEFF 		bl	go_backward_blind
 702:.\main.c      ****                                     CyDelay(300);
 2207              		.loc 1 702 0
 2208 0f0e 4FF49670 		mov	r0, #300
 2209 0f12 FFF7FEFF 		bl	CyDelay
 2210 0f16 06E0     		b	.L96
 2211              	.L98:
 703:.\main.c      ****                                 } else if (ultra == LEVEL_3_DIST){
 2212              		.loc 1 703 0
 2213 0f18 FB69     		ldr	r3, [r7, #28]
 2214 0f1a 102B     		cmp	r3, #16
 2215 0f1c 03D1     		bne	.L96
 704:.\main.c      ****                                     stackable = 1;
 2216              		.loc 1 704 0
 2217 0f1e 0123     		movs	r3, #1
 2218 0f20 BB61     		str	r3, [r7, #24]
 2219 0f22 00E0     		b	.L96
 2220              	.L106:
 692:.\main.c      ****                             while (!within_range(LEVEL_3_DIST,ultra,LEVEL_3_DIST+10) && !stackable)
 2221              		.loc 1 692 0
 2222 0f24 00BF     		nop
 2223              	.L96:
 692:.\main.c      ****                             while (!within_range(LEVEL_3_DIST,ultra,LEVEL_3_DIST+10) && !stackable)
 2224              		.loc 1 692 0 is_stmt 0 discriminator 1
 2225 0f26 1020     		movs	r0, #16
 2226 0f28 F969     		ldr	r1, [r7, #28]
 2227 0f2a 1A22     		movs	r2, #26
 2228 0f2c FFF7FEFF 		bl	within_range
 2229 0f30 0346     		mov	r3, r0
 2230 0f32 002B     		cmp	r3, #0
 2231 0f34 02D1     		bne	.L99
 692:.\main.c      ****                             while (!within_range(LEVEL_3_DIST,ultra,LEVEL_3_DIST+10) && !stackable)
 2232              		.loc 1 692 0 discriminator 2
 2233 0f36 BB69     		ldr	r3, [r7, #24]
 2234 0f38 002B     		cmp	r3, #0
 2235 0f3a C5D0     		beq	.L100
 2236              	.L99:
 707:.\main.c      ****                             break;
 2237              		.loc 1 707 0 is_stmt 1
 2238 0f3c 00BF     		nop
 2239              	.L82:
 709:.\main.c      ****                     arm_inbetween_level(pucks_gotten - 1, pucks_gotten);
 2240              		.loc 1 709 0
 2241 0f3e 3B6D     		ldr	r3, [r7, #80]
 2242 0f40 013B     		subs	r3, r3, #1
 2243 0f42 1846     		mov	r0, r3
 2244 0f44 396D     		ldr	r1, [r7, #80]
ARM GAS  C:\Users\xavieran\AppData\Local\Temp\ccJy6OMN.s 			page 62


 2245 0f46 FFF7FEFF 		bl	arm_inbetween_level
 710:.\main.c      ****                     CyDelay(800);
 2246              		.loc 1 710 0
 2247 0f4a 4FF44870 		mov	r0, #800
 2248 0f4e FFF7FEFF 		bl	CyDelay
 711:.\main.c      ****                     drop_puck();
 2249              		.loc 1 711 0
 2250 0f52 FFF7FEFF 		bl	drop_puck
 712:.\main.c      ****                     CyDelay(200);
 2251              		.loc 1 712 0
 2252 0f56 C820     		movs	r0, #200
 2253 0f58 FFF7FEFF 		bl	CyDelay
 713:.\main.c      ****                     go_backward(1200, 255);
 2254              		.loc 1 713 0
 2255 0f5c 4FF49660 		mov	r0, #1200
 2256 0f60 FF21     		movs	r1, #255
 2257 0f62 FFF7FEFF 		bl	go_backward
 714:.\main.c      ****                     arm_carry_home();
 2258              		.loc 1 714 0
 2259 0f66 FFF7FEFF 		bl	arm_carry_home
 715:.\main.c      ****                     arm_set_level(0);
 2260              		.loc 1 715 0
 2261 0f6a 0020     		movs	r0, #0
 2262 0f6c FFF7FEFF 		bl	arm_set_level
 716:.\main.c      ****                     CyDelay(200);
 2263              		.loc 1 716 0
 2264 0f70 C820     		movs	r0, #200
 2265 0f72 FFF7FEFF 		bl	CyDelay
 2266              	.L75:
 2267              	.LBE6:
 719:.\main.c      ****                 HEADING_ERROR_LIMIT = 3;
 2268              		.loc 1 719 0
 2269 0f76 124B     		ldr	r3, .L116+32
 2270 0f78 0322     		movs	r2, #3
 2271 0f7a 1A70     		strb	r2, [r3]
 720:.\main.c      ****                 set_heading(0);
 2272              		.loc 1 720 0
 2273 0f7c 0020     		movs	r0, #0
 2274 0f7e FFF7FEFF 		bl	set_heading
 721:.\main.c      ****                 rotate_degrees(0);
 2275              		.loc 1 721 0
 2276 0f82 0020     		movs	r0, #0
 2277 0f84 FFF7FEFF 		bl	rotate_degrees
 722:.\main.c      ****                 go_backward(1500, 255);
 2278              		.loc 1 722 0
 2279 0f88 40F2DC50 		movw	r0, #1500
 2280 0f8c FF21     		movs	r1, #255
 2281 0f8e FFF7FEFF 		bl	go_backward
 724:.\main.c      ****                 if (pucks_gotten == 4){
 2282              		.loc 1 724 0
 2283 0f92 3B6D     		ldr	r3, [r7, #80]
 2284 0f94 042B     		cmp	r3, #4
 2285 0f96 15D1     		bne	.L101
 725:.\main.c      ****                     state = S_GRAB_BEACON;
 2286              		.loc 1 725 0
 2287 0f98 0E23     		movs	r3, #14
 2288 0f9a A7F85630 		strh	r3, [r7, #86]	@ movhi
ARM GAS  C:\Users\xavieran\AppData\Local\Temp\ccJy6OMN.s 			page 63


 729:.\main.c      ****                 break;
 2289              		.loc 1 729 0
 2290 0f9e 4BE0     		b	.L14
 2291              	.L117:
 2292              		.align	2
 2293              	.L116:
 2294 0fa0 00000000 		.word	outString
 2295 0fa4 88010000 		.word	.LC26
 2296 0fa8 94010000 		.word	.LC27
 2297 0fac A0010000 		.word	.LC28
 2298 0fb0 AC010000 		.word	.LC29
 2299 0fb4 BC010000 		.word	.LC30
 2300 0fb8 CC010000 		.word	.LC31
 2301 0fbc 6C010000 		.word	.LC24
 2302 0fc0 00000000 		.word	HEADING_ERROR_LIMIT
 2303              	.L101:
 727:.\main.c      ****                     state = S_LEAVE_BASE;
 2304              		.loc 1 727 0
 2305 0fc4 0123     		movs	r3, #1
 2306 0fc6 A7F85630 		strh	r3, [r7, #86]	@ movhi
 729:.\main.c      ****                 break;
 2307              		.loc 1 729 0
 2308 0fca 35E0     		b	.L14
 2309              	.L29:
 731:.\main.c      ****                 POS_PRINTF(0,0,"GOT HOME");
 2310              		.loc 1 731 0
 2311 0fcc 1B4B     		ldr	r3, .L118
 2312 0fce 1C4A     		ldr	r2, .L118+4
 2313 0fd0 07CA     		ldmia	r2, {r0, r1, r2}
 2314 0fd2 03C3     		stmia	r3!, {r0, r1}
 2315 0fd4 1A70     		strb	r2, [r3]
 2316 0fd6 0020     		movs	r0, #0
 2317 0fd8 0021     		movs	r1, #0
 2318 0fda FFF7FEFF 		bl	LCD_Position
 2319 0fde 1748     		ldr	r0, .L118
 2320 0fe0 FFF7FEFF 		bl	LCD_PrintString
 732:.\main.c      ****                 set_heading(0);
 2321              		.loc 1 732 0
 2322 0fe4 0020     		movs	r0, #0
 2323 0fe6 FFF7FEFF 		bl	set_heading
 733:.\main.c      ****                 rotate_degrees(0);
 2324              		.loc 1 733 0
 2325 0fea 0020     		movs	r0, #0
 2326 0fec FFF7FEFF 		bl	rotate_degrees
 734:.\main.c      ****                 arm_set_level(6);
 2327              		.loc 1 734 0
 2328 0ff0 0620     		movs	r0, #6
 2329 0ff2 FFF7FEFF 		bl	arm_set_level
 735:.\main.c      ****                 go_forward(500, 255);
 2330              		.loc 1 735 0
 2331 0ff6 4FF4FA70 		mov	r0, #500
 2332 0ffa FF21     		movs	r1, #255
 2333 0ffc FFF7FEFF 		bl	go_forward
 736:.\main.c      ****                 CyDelay(500);
 2334              		.loc 1 736 0
 2335 1000 4FF4FA70 		mov	r0, #500
 2336 1004 FFF7FEFF 		bl	CyDelay
ARM GAS  C:\Users\xavieran\AppData\Local\Temp\ccJy6OMN.s 			page 64


 737:.\main.c      ****                 pickup_angled_puck();
 2337              		.loc 1 737 0
 2338 1008 FFF7FEFF 		bl	pickup_angled_puck
 738:.\main.c      ****                 go_backward(300, 255);
 2339              		.loc 1 738 0
 2340 100c 4FF49670 		mov	r0, #300
 2341 1010 FF21     		movs	r1, #255
 2342 1012 FFF7FEFF 		bl	go_backward
 739:.\main.c      ****                 break;
 2343              		.loc 1 739 0
 2344 1016 0FE0     		b	.L14
 2345              	.L22:
 741:.\main.c      ****                 POS_PRINTF(0,0,"VICTORY!!!");
 2346              		.loc 1 741 0
 2347 1018 084B     		ldr	r3, .L118
 2348 101a 0A4A     		ldr	r2, .L118+8
 2349 101c 07CA     		ldmia	r2, {r0, r1, r2}
 2350 101e 03C3     		stmia	r3!, {r0, r1}
 2351 1020 1A80     		strh	r2, [r3]	@ movhi
 2352 1022 0233     		adds	r3, r3, #2
 2353 1024 120C     		lsrs	r2, r2, #16
 2354 1026 1A70     		strb	r2, [r3]
 2355 1028 0020     		movs	r0, #0
 2356 102a 0021     		movs	r1, #0
 2357 102c FFF7FEFF 		bl	LCD_Position
 2358 1030 0248     		ldr	r0, .L118
 2359 1032 FFF7FEFF 		bl	LCD_PrintString
 742:.\main.c      ****                 break;
 2360              		.loc 1 742 0
 2361 1036 00BF     		nop
 2362              	.L14:
 2363              	.LBE2:
 2364              		.loc 1 744 0
 2365 1038 FFF720B8 		b	.L104
 2366              	.L119:
 2367              		.align	2
 2368              	.L118:
 2369 103c 00000000 		.word	outString
 2370 1040 E0010000 		.word	.LC32
 2371 1044 EC010000 		.word	.LC33
 2372              		.cfi_endproc
 2373              	.LFE65:
 2374              		.size	main, .-main
 2375              		.section	.rodata
 2376 01f7 00       		.align	2
 2377              	.LC34:
 2378 01f8 583A256C 		.ascii	"X:%ld Y:%ld\000"
 2378      6420593A 
 2378      256C6400 
 2379              		.align	2
 2380              	.LC35:
 2381 0204 543A256C 		.ascii	"T:%ld/%ld\000"
 2381      642F256C 
 2381      6400
 2382              		.global	__aeabi_i2d
 2383              		.global	__aeabi_d2f
 2384              		.global	__aeabi_f2d
ARM GAS  C:\Users\xavieran\AppData\Local\Temp\ccJy6OMN.s 			page 65


 2385              		.global	__aeabi_d2iz
 2386 020e 0000     		.align	2
 2387              	.LC36:
 2388 0210 583A2564 		.ascii	"X:%d Y:%d\000"
 2388      20593A25 
 2388      6400
 2389 021a 0000     		.section	.text.calibrate_compass,"ax",%progbits
 2390              		.align	2
 2391              		.global	calibrate_compass
 2392              		.thumb
 2393              		.thumb_func
 2394              		.type	calibrate_compass, %function
 2395              	calibrate_compass:
 2396              	.LFB66:
 745:.\main.c      **** }
 746:.\main.c      **** 
 747:.\main.c      **** void calibrate_compass()
 748:.\main.c      **** {
 2397              		.loc 1 748 0
 2398              		.cfi_startproc
 2399              		@ args = 0, pretend = 0, frame = 56
 2400              		@ frame_needed = 1, uses_anonymous_args = 0
 2401 0000 80B5     		push	{r7, lr}
 2402              		.cfi_def_cfa_offset 8
 2403              		.cfi_offset 7, -8
 2404              		.cfi_offset 14, -4
 2405 0002 8EB0     		sub	sp, sp, #56
 2406              		.cfi_def_cfa_offset 64
 2407 0004 00AF     		add	r7, sp, #0
 2408              		.cfi_def_cfa_register 7
 749:.\main.c      ****     char outString[25];
 750:.\main.c      ****     float avx = 0,avy = 0;
 2409              		.loc 1 750 0
 2410 0006 4FF00003 		mov	r3, #0
 2411 000a BB62     		str	r3, [r7, #40]	@ float
 2412 000c 4FF00003 		mov	r3, #0
 2413 0010 7B62     		str	r3, [r7, #36]	@ float
 751:.\main.c      ****     int trials = 2000;
 2414              		.loc 1 751 0
 2415 0012 4FF4FA63 		mov	r3, #2000
 2416 0016 3B62     		str	r3, [r7, #32]
 752:.\main.c      ****     int32 x = 0,y = 0;
 2417              		.loc 1 752 0
 2418 0018 0023     		movs	r3, #0
 2419 001a 7B63     		str	r3, [r7, #52]
 2420 001c 0023     		movs	r3, #0
 2421 001e 3B63     		str	r3, [r7, #48]
 753:.\main.c      ****     int i;
 754:.\main.c      ****     rotate_left(130);
 2422              		.loc 1 754 0
 2423 0020 8220     		movs	r0, #130
 2424 0022 FFF7FEFF 		bl	rotate_left
 755:.\main.c      ****     for(i = 0; i < trials; i++)
 2425              		.loc 1 755 0
 2426 0026 0023     		movs	r3, #0
 2427 0028 FB62     		str	r3, [r7, #44]
 2428 002a 3DE0     		b	.L121
ARM GAS  C:\Users\xavieran\AppData\Local\Temp\ccJy6OMN.s 			page 66


 2429              	.L123:
 756:.\main.c      ****     {
 757:.\main.c      ****         while(!compass_ready){}
 2430              		.loc 1 757 0
 2431 002c 00BF     		nop
 2432              	.L122:
 2433              		.loc 1 757 0 is_stmt 0 discriminator 1
 2434 002e 464B     		ldr	r3, .L125
 2435 0030 1B78     		ldrb	r3, [r3]
 2436 0032 DBB2     		uxtb	r3, r3
 2437 0034 002B     		cmp	r3, #0
 2438 0036 FAD0     		beq	.L122
 758:.\main.c      ****         compass_read();
 2439              		.loc 1 758 0 is_stmt 1
 2440 0038 FFF7FEFF 		bl	compass_read
 759:.\main.c      ****         x += compass_x;
 2441              		.loc 1 759 0
 2442 003c 434B     		ldr	r3, .L125+4
 2443 003e 1B88     		ldrh	r3, [r3]
 2444 0040 1BB2     		sxth	r3, r3
 2445 0042 7A6B     		ldr	r2, [r7, #52]
 2446 0044 1344     		add	r3, r3, r2
 2447 0046 7B63     		str	r3, [r7, #52]
 760:.\main.c      ****         y += compass_y;
 2448              		.loc 1 760 0
 2449 0048 414B     		ldr	r3, .L125+8
 2450 004a 1B88     		ldrh	r3, [r3]
 2451 004c 1BB2     		sxth	r3, r3
 2452 004e 3A6B     		ldr	r2, [r7, #48]
 2453 0050 1344     		add	r3, r3, r2
 2454 0052 3B63     		str	r3, [r7, #48]
 761:.\main.c      ****         LCD_ClearDisplay();
 2455              		.loc 1 761 0
 2456 0054 0120     		movs	r0, #1
 2457 0056 FFF7FEFF 		bl	LCD_WriteControl
 762:.\main.c      ****         //POS_PRINTF(0,0,"X:%ld Y:%ld",(int) round(avx),(int) round(avy));
 763:.\main.c      ****         //POS_PRINTF(1,0,"C:%ld/%ld",i,(int) round(trials));
 764:.\main.c      ****         POS_PRINTF(0,0,"X:%ld Y:%ld",x/i,y/i);
 2458              		.loc 1 764 0
 2459 005a 7A6B     		ldr	r2, [r7, #52]
 2460 005c FB6A     		ldr	r3, [r7, #44]
 2461 005e 92FBF3F2 		sdiv	r2, r2, r3
 2462 0062 396B     		ldr	r1, [r7, #48]
 2463 0064 FB6A     		ldr	r3, [r7, #44]
 2464 0066 91FBF3F3 		sdiv	r3, r1, r3
 2465 006a 391D     		adds	r1, r7, #4
 2466 006c 0846     		mov	r0, r1
 2467 006e 3949     		ldr	r1, .L125+12
 2468 0070 FFF7FEFF 		bl	sprintf
 2469 0074 0020     		movs	r0, #0
 2470 0076 0021     		movs	r1, #0
 2471 0078 FFF7FEFF 		bl	LCD_Position
 2472 007c 3B1D     		adds	r3, r7, #4
 2473 007e 1846     		mov	r0, r3
 2474 0080 FFF7FEFF 		bl	LCD_PrintString
 765:.\main.c      ****         POS_PRINTF(1,0,"T:%ld/%ld",i,trials);
 2475              		.loc 1 765 0
ARM GAS  C:\Users\xavieran\AppData\Local\Temp\ccJy6OMN.s 			page 67


 2476 0084 3B1D     		adds	r3, r7, #4
 2477 0086 1846     		mov	r0, r3
 2478 0088 3349     		ldr	r1, .L125+16
 2479 008a FA6A     		ldr	r2, [r7, #44]
 2480 008c 3B6A     		ldr	r3, [r7, #32]
 2481 008e FFF7FEFF 		bl	sprintf
 2482 0092 0120     		movs	r0, #1
 2483 0094 0021     		movs	r1, #0
 2484 0096 FFF7FEFF 		bl	LCD_Position
 2485 009a 3B1D     		adds	r3, r7, #4
 2486 009c 1846     		mov	r0, r3
 2487 009e FFF7FEFF 		bl	LCD_PrintString
 755:.\main.c      ****     for(i = 0; i < trials; i++)
 2488              		.loc 1 755 0
 2489 00a2 FB6A     		ldr	r3, [r7, #44]
 2490 00a4 0133     		adds	r3, r3, #1
 2491 00a6 FB62     		str	r3, [r7, #44]
 2492              	.L121:
 755:.\main.c      ****     for(i = 0; i < trials; i++)
 2493              		.loc 1 755 0 is_stmt 0 discriminator 1
 2494 00a8 FA6A     		ldr	r2, [r7, #44]
 2495 00aa 3B6A     		ldr	r3, [r7, #32]
 2496 00ac 9A42     		cmp	r2, r3
 2497 00ae BDDB     		blt	.L123
 766:.\main.c      ****     }
 767:.\main.c      ****     setCoast(MBOTH);
 2498              		.loc 1 767 0 is_stmt 1
 2499 00b0 0320     		movs	r0, #3
 2500 00b2 FFF7FEFF 		bl	setCoast
 768:.\main.c      ****     avx = x/(1.0);
 2501              		.loc 1 768 0
 2502 00b6 786B     		ldr	r0, [r7, #52]
 2503 00b8 FFF7FEFF 		bl	__aeabi_i2d
 2504 00bc 0246     		mov	r2, r0
 2505 00be 0B46     		mov	r3, r1
 2506 00c0 1046     		mov	r0, r2
 2507 00c2 1946     		mov	r1, r3
 2508 00c4 FFF7FEFF 		bl	__aeabi_d2f
 2509 00c8 0346     		mov	r3, r0
 2510 00ca BB62     		str	r3, [r7, #40]	@ float
 769:.\main.c      ****     avy = y/(1.0);
 2511              		.loc 1 769 0
 2512 00cc 386B     		ldr	r0, [r7, #48]
 2513 00ce FFF7FEFF 		bl	__aeabi_i2d
 2514 00d2 0246     		mov	r2, r0
 2515 00d4 0B46     		mov	r3, r1
 2516 00d6 1046     		mov	r0, r2
 2517 00d8 1946     		mov	r1, r3
 2518 00da FFF7FEFF 		bl	__aeabi_d2f
 2519 00de 0346     		mov	r3, r0
 2520 00e0 7B62     		str	r3, [r7, #36]	@ float
 770:.\main.c      ****     x = round(avx);
 2521              		.loc 1 770 0
 2522 00e2 B86A     		ldr	r0, [r7, #40]	@ float
 2523 00e4 FFF7FEFF 		bl	__aeabi_f2d
 2524 00e8 0246     		mov	r2, r0
 2525 00ea 0B46     		mov	r3, r1
ARM GAS  C:\Users\xavieran\AppData\Local\Temp\ccJy6OMN.s 			page 68


 2526 00ec 1046     		mov	r0, r2
 2527 00ee 1946     		mov	r1, r3
 2528 00f0 FFF7FEFF 		bl	round
 2529 00f4 0246     		mov	r2, r0
 2530 00f6 0B46     		mov	r3, r1
 2531 00f8 1046     		mov	r0, r2
 2532 00fa 1946     		mov	r1, r3
 2533 00fc FFF7FEFF 		bl	__aeabi_d2iz
 2534 0100 0346     		mov	r3, r0
 2535 0102 7B63     		str	r3, [r7, #52]
 771:.\main.c      ****     y = round(avy);
 2536              		.loc 1 771 0
 2537 0104 786A     		ldr	r0, [r7, #36]	@ float
 2538 0106 FFF7FEFF 		bl	__aeabi_f2d
 2539 010a 0246     		mov	r2, r0
 2540 010c 0B46     		mov	r3, r1
 2541 010e 1046     		mov	r0, r2
 2542 0110 1946     		mov	r1, r3
 2543 0112 FFF7FEFF 		bl	round
 2544 0116 0246     		mov	r2, r0
 2545 0118 0B46     		mov	r3, r1
 2546 011a 1046     		mov	r0, r2
 2547 011c 1946     		mov	r1, r3
 2548 011e FFF7FEFF 		bl	__aeabi_d2iz
 2549 0122 0346     		mov	r3, r0
 2550 0124 3B63     		str	r3, [r7, #48]
 772:.\main.c      ****     //EEPROM1_Write(&xHIGH,0);
 773:.\main.c      ****     //EEPROM1_Write(&xLOW,1);
 774:.\main.c      ****     //EEPROM1_Write(&yHIGH,2);
 775:.\main.c      ****     //EEPROM1_Write(&yLOW,3);
 776:.\main.c      ****     sprintf(outString,"X:%d Y:%d",x,y); 
 2551              		.loc 1 776 0
 2552 0126 3B1D     		adds	r3, r7, #4
 2553 0128 1846     		mov	r0, r3
 2554 012a 0C49     		ldr	r1, .L125+20
 2555 012c 7A6B     		ldr	r2, [r7, #52]
 2556 012e 3B6B     		ldr	r3, [r7, #48]
 2557 0130 FFF7FEFF 		bl	sprintf
 777:.\main.c      ****     LCD_PosPrintString(0,0,outString);
 2558              		.loc 1 777 0
 2559 0134 0020     		movs	r0, #0
 2560 0136 0021     		movs	r1, #0
 2561 0138 FFF7FEFF 		bl	LCD_Position
 2562 013c 3B1D     		adds	r3, r7, #4
 2563 013e 1846     		mov	r0, r3
 2564 0140 FFF7FEFF 		bl	LCD_PrintString
 2565              	.L124:
 778:.\main.c      ****     while(1)
 779:.\main.c      ****     {
 780:.\main.c      ****     }
 2566              		.loc 1 780 0 discriminator 1
 2567 0144 FEE7     		b	.L124
 2568              	.L126:
 2569 0146 00BF     		.align	2
 2570              	.L125:
 2571 0148 00000000 		.word	compass_ready
 2572 014c 00000000 		.word	compass_x
ARM GAS  C:\Users\xavieran\AppData\Local\Temp\ccJy6OMN.s 			page 69


 2573 0150 00000000 		.word	compass_y
 2574 0154 F8010000 		.word	.LC34
 2575 0158 04020000 		.word	.LC35
 2576 015c 10020000 		.word	.LC36
 2577              		.cfi_endproc
 2578              	.LFE66:
 2579              		.size	calibrate_compass, .-calibrate_compass
 2580              		.text
 2581              	.Letext0:
 2582              		.file 2 "c:\\program files (x86)\\cypress\\psoc creator\\3.2\\psoc creator\\import\\gnu\\arm\\4.8.
 2583              		.file 3 "c:\\program files (x86)\\cypress\\psoc creator\\3.2\\psoc creator\\import\\gnu\\arm\\4.8.
 2584              		.file 4 "Generated_Source\\PSoC5/cytypes.h"
 2585              		.file 5 "c:\\program files (x86)\\cypress\\psoc creator\\3.2\\psoc creator\\import\\gnu\\arm\\4.8.
 2586              		.file 6 "Generated_Source\\PSoC5/core_cm3.h"
 2587              		.file 7 "Generated_Source\\PSoC5/Camera.h"
 2588              		.file 8 "./my_camera_functions.h"
 2589              		.file 9 "<built-in>"
 2590              		.section	.debug_info,"",%progbits
 2591              	.Ldebug_info0:
 2592 0000 05050000 		.4byte	0x505
 2593 0004 0400     		.2byte	0x4
 2594 0006 00000000 		.4byte	.Ldebug_abbrev0
 2595 000a 04       		.byte	0x4
 2596 000b 01       		.uleb128 0x1
 2597 000c 97000000 		.4byte	.LASF76
 2598 0010 01       		.byte	0x1
 2599 0011 4F030000 		.4byte	.LASF77
 2600 0015 DE030000 		.4byte	.LASF78
 2601 0019 00000000 		.4byte	.Ldebug_ranges0+0
 2602 001d 00000000 		.4byte	0
 2603 0021 00000000 		.4byte	.Ldebug_line0
 2604 0025 02       		.uleb128 0x2
 2605 0026 01       		.byte	0x1
 2606 0027 06       		.byte	0x6
 2607 0028 05020000 		.4byte	.LASF0
 2608 002c 02       		.uleb128 0x2
 2609 002d 01       		.byte	0x1
 2610 002e 08       		.byte	0x8
 2611 002f EA010000 		.4byte	.LASF1
 2612 0033 02       		.uleb128 0x2
 2613 0034 02       		.byte	0x2
 2614 0035 05       		.byte	0x5
 2615 0036 1E000000 		.4byte	.LASF2
 2616 003a 02       		.uleb128 0x2
 2617 003b 02       		.byte	0x2
 2618 003c 07       		.byte	0x7
 2619 003d 6B020000 		.4byte	.LASF3
 2620 0041 03       		.uleb128 0x3
 2621 0042 58030000 		.4byte	.LASF9
 2622 0046 02       		.byte	0x2
 2623 0047 37       		.byte	0x37
 2624 0048 4C000000 		.4byte	0x4c
 2625 004c 02       		.uleb128 0x2
 2626 004d 04       		.byte	0x4
 2627 004e 05       		.byte	0x5
 2628 004f 7C010000 		.4byte	.LASF4
 2629 0053 02       		.uleb128 0x2
ARM GAS  C:\Users\xavieran\AppData\Local\Temp\ccJy6OMN.s 			page 70


 2630 0054 04       		.byte	0x4
 2631 0055 07       		.byte	0x7
 2632 0056 05030000 		.4byte	.LASF5
 2633 005a 02       		.uleb128 0x2
 2634 005b 08       		.byte	0x8
 2635 005c 05       		.byte	0x5
 2636 005d 46010000 		.4byte	.LASF6
 2637 0061 02       		.uleb128 0x2
 2638 0062 08       		.byte	0x8
 2639 0063 07       		.byte	0x7
 2640 0064 19020000 		.4byte	.LASF7
 2641 0068 04       		.uleb128 0x4
 2642 0069 04       		.byte	0x4
 2643 006a 05       		.byte	0x5
 2644 006b 696E7400 		.ascii	"int\000"
 2645 006f 02       		.uleb128 0x2
 2646 0070 04       		.byte	0x4
 2647 0071 07       		.byte	0x7
 2648 0072 46020000 		.4byte	.LASF8
 2649 0076 03       		.uleb128 0x3
 2650 0077 11020000 		.4byte	.LASF10
 2651 007b 03       		.byte	0x3
 2652 007c 41       		.byte	0x41
 2653 007d 41000000 		.4byte	0x41
 2654 0081 03       		.uleb128 0x3
 2655 0082 20010000 		.4byte	.LASF11
 2656 0086 04       		.byte	0x4
 2657 0087 B3       		.byte	0xb3
 2658 0088 2C000000 		.4byte	0x2c
 2659 008c 03       		.uleb128 0x3
 2660 008d 13010000 		.4byte	.LASF12
 2661 0091 04       		.byte	0x4
 2662 0092 B4       		.byte	0xb4
 2663 0093 3A000000 		.4byte	0x3a
 2664 0097 03       		.uleb128 0x3
 2665 0098 1A010000 		.4byte	.LASF13
 2666 009c 04       		.byte	0x4
 2667 009d B7       		.byte	0xb7
 2668 009e 33000000 		.4byte	0x33
 2669 00a2 03       		.uleb128 0x3
 2670 00a3 17030000 		.4byte	.LASF14
 2671 00a7 04       		.byte	0x4
 2672 00a8 B8       		.byte	0xb8
 2673 00a9 4C000000 		.4byte	0x4c
 2674 00ad 02       		.uleb128 0x2
 2675 00ae 04       		.byte	0x4
 2676 00af 04       		.byte	0x4
 2677 00b0 2D010000 		.4byte	.LASF15
 2678 00b4 02       		.uleb128 0x2
 2679 00b5 08       		.byte	0x8
 2680 00b6 04       		.byte	0x4
 2681 00b7 1D030000 		.4byte	.LASF16
 2682 00bb 02       		.uleb128 0x2
 2683 00bc 01       		.byte	0x1
 2684 00bd 08       		.byte	0x8
 2685 00be 97020000 		.4byte	.LASF17
 2686 00c2 05       		.uleb128 0x5
ARM GAS  C:\Users\xavieran\AppData\Local\Temp\ccJy6OMN.s 			page 71


 2687 00c3 81000000 		.4byte	0x81
 2688 00c7 02       		.uleb128 0x2
 2689 00c8 04       		.byte	0x4
 2690 00c9 07       		.byte	0x7
 2691 00ca 76030000 		.4byte	.LASF18
 2692 00ce 06       		.uleb128 0x6
 2693 00cf 04       		.byte	0x4
 2694 00d0 07       		.uleb128 0x7
 2695 00d1 04       		.byte	0x4
 2696 00d2 D6000000 		.4byte	0xd6
 2697 00d6 08       		.uleb128 0x8
 2698 00d7 BB000000 		.4byte	0xbb
 2699 00db 09       		.uleb128 0x9
 2700 00dc BB000000 		.4byte	0xbb
 2701 00e0 EB000000 		.4byte	0xeb
 2702 00e4 0A       		.uleb128 0xa
 2703 00e5 C7000000 		.4byte	0xc7
 2704 00e9 18       		.byte	0x18
 2705 00ea 00       		.byte	0
 2706 00eb 03       		.uleb128 0x3
 2707 00ec 7F030000 		.4byte	.LASF19
 2708 00f0 05       		.byte	0x5
 2709 00f1 28       		.byte	0x28
 2710 00f2 F6000000 		.4byte	0xf6
 2711 00f6 0B       		.uleb128 0xb
 2712 00f7 85010000 		.4byte	.LASF79
 2713 00fb 04       		.byte	0x4
 2714 00fc 09       		.byte	0x9
 2715 00fd 00       		.byte	0
 2716 00fe 0D010000 		.4byte	0x10d
 2717 0102 0C       		.uleb128 0xc
 2718 0103 92020000 		.4byte	.LASF80
 2719 0107 CE000000 		.4byte	0xce
 2720 010b 00       		.byte	0
 2721 010c 00       		.byte	0
 2722 010d 03       		.uleb128 0x3
 2723 010e 66000000 		.4byte	.LASF20
 2724 0112 05       		.byte	0x5
 2725 0113 62       		.byte	0x62
 2726 0114 EB000000 		.4byte	0xeb
 2727 0118 02       		.uleb128 0x2
 2728 0119 08       		.byte	0x8
 2729 011a 04       		.byte	0x4
 2730 011b CB010000 		.4byte	.LASF21
 2731 011f 0D       		.uleb128 0xd
 2732 0120 01       		.byte	0x1
 2733 0121 08       		.byte	0x8
 2734 0122 21       		.byte	0x21
 2735 0123 40010000 		.4byte	0x140
 2736 0127 0E       		.uleb128 0xe
 2737 0128 62030000 		.4byte	.LASF22
 2738 012c 00       		.sleb128 0
 2739 012d 0F       		.uleb128 0xf
 2740 012e 52454400 		.ascii	"RED\000"
 2741 0132 01       		.sleb128 1
 2742 0133 0E       		.uleb128 0xe
 2743 0134 D1030000 		.4byte	.LASF23
ARM GAS  C:\Users\xavieran\AppData\Local\Temp\ccJy6OMN.s 			page 72


 2744 0138 02       		.sleb128 2
 2745 0139 0E       		.uleb128 0xe
 2746 013a E1020000 		.4byte	.LASF24
 2747 013e 03       		.sleb128 3
 2748 013f 00       		.byte	0
 2749 0140 10       		.uleb128 0x10
 2750 0141 76010000 		.4byte	.LASF81
 2751 0145 01       		.byte	0x1
 2752 0146 01       		.byte	0x1
 2753 0147 5E       		.byte	0x5e
 2754 0148 A7010000 		.4byte	0x1a7
 2755 014c 0E       		.uleb128 0xe
 2756 014d 59040000 		.4byte	.LASF25
 2757 0151 00       		.sleb128 0
 2758 0152 0E       		.uleb128 0xe
 2759 0153 33010000 		.4byte	.LASF26
 2760 0157 01       		.sleb128 1
 2761 0158 0E       		.uleb128 0xe
 2762 0159 00000000 		.4byte	.LASF27
 2763 015d 02       		.sleb128 2
 2764 015e 0E       		.uleb128 0xe
 2765 015f 30020000 		.4byte	.LASF28
 2766 0163 03       		.sleb128 3
 2767 0164 0E       		.uleb128 0xe
 2768 0165 99010000 		.4byte	.LASF29
 2769 0169 04       		.sleb128 4
 2770 016a 0E       		.uleb128 0xe
 2771 016b F9020000 		.4byte	.LASF30
 2772 016f 05       		.sleb128 5
 2773 0170 0E       		.uleb128 0xe
 2774 0171 39040000 		.4byte	.LASF31
 2775 0175 06       		.sleb128 6
 2776 0176 0E       		.uleb128 0xe
 2777 0177 E6020000 		.4byte	.LASF32
 2778 017b 07       		.sleb128 7
 2779 017c 0E       		.uleb128 0xe
 2780 017d 60010000 		.4byte	.LASF33
 2781 0181 08       		.sleb128 8
 2782 0182 0E       		.uleb128 0xe
 2783 0183 BE020000 		.4byte	.LASF34
 2784 0187 09       		.sleb128 9
 2785 0188 0E       		.uleb128 0xe
 2786 0189 31030000 		.4byte	.LASF35
 2787 018d 0A       		.sleb128 10
 2788 018e 0E       		.uleb128 0xe
 2789 018f AA030000 		.4byte	.LASF36
 2790 0193 0B       		.sleb128 11
 2791 0194 0E       		.uleb128 0xe
 2792 0195 C4030000 		.4byte	.LASF37
 2793 0199 0C       		.sleb128 12
 2794 019a 0E       		.uleb128 0xe
 2795 019b D7010000 		.4byte	.LASF38
 2796 019f 0D       		.sleb128 13
 2797 01a0 0E       		.uleb128 0xe
 2798 01a1 A3010000 		.4byte	.LASF39
 2799 01a5 0E       		.sleb128 14
 2800 01a6 00       		.byte	0
ARM GAS  C:\Users\xavieran\AppData\Local\Temp\ccJy6OMN.s 			page 73


 2801 01a7 11       		.uleb128 0x11
 2802 01a8 67030000 		.4byte	.LASF44
 2803 01ac 01       		.byte	0x1
 2804 01ad 4A       		.byte	0x4a
 2805 01ae 00000000 		.4byte	.LFB63
 2806 01b2 4A000000 		.4byte	.LFE63-.LFB63
 2807 01b6 01       		.uleb128 0x1
 2808 01b7 9C       		.byte	0x9c
 2809 01b8 EA010000 		.4byte	0x1ea
 2810 01bc 12       		.uleb128 0x12
 2811 01bd 666D7400 		.ascii	"fmt\000"
 2812 01c1 01       		.byte	0x1
 2813 01c2 4A       		.byte	0x4a
 2814 01c3 D0000000 		.4byte	0xd0
 2815 01c7 02       		.uleb128 0x2
 2816 01c8 91       		.byte	0x91
 2817 01c9 70       		.sleb128 -16
 2818 01ca 13       		.uleb128 0x13
 2819 01cb 14       		.uleb128 0x14
 2820 01cc F2020000 		.4byte	.LASF40
 2821 01d0 01       		.byte	0x1
 2822 01d1 4D       		.byte	0x4d
 2823 01d2 EA010000 		.4byte	0x1ea
 2824 01d6 03       		.uleb128 0x3
 2825 01d7 91       		.byte	0x91
 2826 01d8 A87F     		.sleb128 -88
 2827 01da 14       		.uleb128 0x14
 2828 01db 59020000 		.4byte	.LASF41
 2829 01df 01       		.byte	0x1
 2830 01e0 4E       		.byte	0x4e
 2831 01e1 0D010000 		.4byte	0x10d
 2832 01e5 03       		.uleb128 0x3
 2833 01e6 91       		.byte	0x91
 2834 01e7 A47F     		.sleb128 -92
 2835 01e9 00       		.byte	0
 2836 01ea 09       		.uleb128 0x9
 2837 01eb BB000000 		.4byte	0xbb
 2838 01ef FA010000 		.4byte	0x1fa
 2839 01f3 0A       		.uleb128 0xa
 2840 01f4 C7000000 		.4byte	0xc7
 2841 01f8 3F       		.byte	0x3f
 2842 01f9 00       		.byte	0
 2843 01fa 15       		.uleb128 0x15
 2844 01fb 5E020000 		.4byte	.LASF82
 2845 01ff 01       		.byte	0x1
 2846 0200 56       		.byte	0x56
 2847 0201 68000000 		.4byte	0x68
 2848 0205 00000000 		.4byte	.LFB64
 2849 0209 2E000000 		.4byte	.LFE64-.LFB64
 2850 020d 01       		.uleb128 0x1
 2851 020e 9C       		.byte	0x9c
 2852 020f 3E020000 		.4byte	0x23e
 2853 0213 16       		.uleb128 0x16
 2854 0214 40010000 		.4byte	.LASF42
 2855 0218 01       		.byte	0x1
 2856 0219 56       		.byte	0x56
 2857 021a 68000000 		.4byte	0x68
ARM GAS  C:\Users\xavieran\AppData\Local\Temp\ccJy6OMN.s 			page 74


 2858 021e 02       		.uleb128 0x2
 2859 021f 91       		.byte	0x91
 2860 0220 74       		.sleb128 -12
 2861 0221 12       		.uleb128 0x12
 2862 0222 76616C00 		.ascii	"val\000"
 2863 0226 01       		.byte	0x1
 2864 0227 56       		.byte	0x56
 2865 0228 68000000 		.4byte	0x68
 2866 022c 02       		.uleb128 0x2
 2867 022d 91       		.byte	0x91
 2868 022e 70       		.sleb128 -16
 2869 022f 16       		.uleb128 0x16
 2870 0230 0C000000 		.4byte	.LASF43
 2871 0234 01       		.byte	0x1
 2872 0235 56       		.byte	0x56
 2873 0236 68000000 		.4byte	0x68
 2874 023a 02       		.uleb128 0x2
 2875 023b 91       		.byte	0x91
 2876 023c 6C       		.sleb128 -20
 2877 023d 00       		.byte	0
 2878 023e 17       		.uleb128 0x17
 2879 023f 3A000000 		.4byte	.LASF45
 2880 0243 01       		.byte	0x1
 2881 0244 70       		.byte	0x70
 2882 0245 68000000 		.4byte	0x68
 2883 0249 00000000 		.4byte	.LFB65
 2884 024d 48100000 		.4byte	.LFE65-.LFB65
 2885 0251 01       		.uleb128 0x1
 2886 0252 9C       		.byte	0x9c
 2887 0253 C6030000 		.4byte	0x3c6
 2888 0257 14       		.uleb128 0x14
 2889 0258 45030000 		.4byte	.LASF46
 2890 025c 01       		.byte	0x1
 2891 025d B4       		.byte	0xb4
 2892 025e 8C000000 		.4byte	0x8c
 2893 0262 03       		.uleb128 0x3
 2894 0263 91       		.byte	0x91
 2895 0264 9E7F     		.sleb128 -98
 2896 0266 14       		.uleb128 0x14
 2897 0267 C5010000 		.4byte	.LASF47
 2898 026b 01       		.byte	0x1
 2899 026c B5       		.byte	0xb5
 2900 026d 8C000000 		.4byte	0x8c
 2901 0271 02       		.uleb128 0x2
 2902 0272 91       		.byte	0x91
 2903 0273 6E       		.sleb128 -18
 2904 0274 14       		.uleb128 0x14
 2905 0275 24030000 		.4byte	.LASF48
 2906 0279 01       		.byte	0x1
 2907 027a B6       		.byte	0xb6
 2908 027b 68000000 		.4byte	0x68
 2909 027f 02       		.uleb128 0x2
 2910 0280 91       		.byte	0x91
 2911 0281 68       		.sleb128 -24
 2912 0282 14       		.uleb128 0x14
 2913 0283 8D000000 		.4byte	.LASF49
 2914 0287 01       		.byte	0x1
ARM GAS  C:\Users\xavieran\AppData\Local\Temp\ccJy6OMN.s 			page 75


 2915 0288 B7       		.byte	0xb7
 2916 0289 68000000 		.4byte	0x68
 2917 028d 03       		.uleb128 0x3
 2918 028e 91       		.byte	0x91
 2919 028f AC7F     		.sleb128 -84
 2920 0291 14       		.uleb128 0x14
 2921 0292 7E020000 		.4byte	.LASF50
 2922 0296 01       		.byte	0x1
 2923 0297 B8       		.byte	0xb8
 2924 0298 68000000 		.4byte	0x68
 2925 029c 02       		.uleb128 0x2
 2926 029d 91       		.byte	0x91
 2927 029e 64       		.sleb128 -28
 2928 029f 14       		.uleb128 0x14
 2929 02a0 53000000 		.4byte	.LASF51
 2930 02a4 01       		.byte	0x1
 2931 02a5 B9       		.byte	0xb9
 2932 02a6 4C000000 		.4byte	0x4c
 2933 02aa 02       		.uleb128 0x2
 2934 02ab 91       		.byte	0x91
 2935 02ac 60       		.sleb128 -32
 2936 02ad 14       		.uleb128 0x14
 2937 02ae 44040000 		.4byte	.LASF52
 2938 02b2 01       		.byte	0x1
 2939 02b3 BA       		.byte	0xba
 2940 02b4 4C000000 		.4byte	0x4c
 2941 02b8 02       		.uleb128 0x2
 2942 02b9 91       		.byte	0x91
 2943 02ba 5C       		.sleb128 -36
 2944 02bb 14       		.uleb128 0x14
 2945 02bc 12000000 		.4byte	.LASF53
 2946 02c0 01       		.byte	0x1
 2947 02c1 BB       		.byte	0xbb
 2948 02c2 68000000 		.4byte	0x68
 2949 02c6 02       		.uleb128 0x2
 2950 02c7 91       		.byte	0x91
 2951 02c8 58       		.sleb128 -40
 2952 02c9 14       		.uleb128 0x14
 2953 02ca 28000000 		.4byte	.LASF54
 2954 02ce 01       		.byte	0x1
 2955 02cf BC       		.byte	0xbc
 2956 02d0 68000000 		.4byte	0x68
 2957 02d4 02       		.uleb128 0x2
 2958 02d5 91       		.byte	0x91
 2959 02d6 54       		.sleb128 -44
 2960 02d7 14       		.uleb128 0x14
 2961 02d8 D7030000 		.4byte	.LASF55
 2962 02dc 01       		.byte	0x1
 2963 02dd BE       		.byte	0xbe
 2964 02de 68000000 		.4byte	0x68
 2965 02e2 02       		.uleb128 0x2
 2966 02e3 91       		.byte	0x91
 2967 02e4 50       		.sleb128 -48
 2968 02e5 14       		.uleb128 0x14
 2969 02e6 8C020000 		.4byte	.LASF56
 2970 02ea 01       		.byte	0x1
 2971 02eb BF       		.byte	0xbf
ARM GAS  C:\Users\xavieran\AppData\Local\Temp\ccJy6OMN.s 			page 76


 2972 02ec 68000000 		.4byte	0x68
 2973 02f0 02       		.uleb128 0x2
 2974 02f1 91       		.byte	0x91
 2975 02f2 4C       		.sleb128 -52
 2976 02f3 18       		.uleb128 0x18
 2977 02f4 1C010000 		.4byte	.LBB2
 2978 02f8 1C0F0000 		.4byte	.LBE2-.LBB2
 2979 02fc 19       		.uleb128 0x19
 2980 02fd 6900     		.ascii	"i\000"
 2981 02ff 01       		.byte	0x1
 2982 0300 F5       		.byte	0xf5
 2983 0301 68000000 		.4byte	0x68
 2984 0305 02       		.uleb128 0x2
 2985 0306 91       		.byte	0x91
 2986 0307 48       		.sleb128 -56
 2987 0308 1A       		.uleb128 0x1a
 2988 0309 6E000000 		.4byte	.LASF57
 2989 030d 01       		.byte	0x1
 2990 030e 3901     		.2byte	0x139
 2991 0310 68000000 		.4byte	0x68
 2992 0314 03       		.uleb128 0x3
 2993 0315 91       		.byte	0x91
 2994 0316 A87F     		.sleb128 -88
 2995 0318 1A       		.uleb128 0x1a
 2996 0319 8E030000 		.4byte	.LASF58
 2997 031d 01       		.byte	0x1
 2998 031e CE01     		.2byte	0x1ce
 2999 0320 68000000 		.4byte	0x68
 3000 0324 02       		.uleb128 0x2
 3001 0325 91       		.byte	0x91
 3002 0326 44       		.sleb128 -60
 3003 0327 1A       		.uleb128 0x1a
 3004 0328 49000000 		.4byte	.LASF59
 3005 032c 01       		.byte	0x1
 3006 032d 4102     		.2byte	0x241
 3007 032f 68000000 		.4byte	0x68
 3008 0333 03       		.uleb128 0x3
 3009 0334 91       		.byte	0x91
 3010 0335 BC7F     		.sleb128 -68
 3011 0337 1B       		.uleb128 0x1b
 3012 0338 00040000 		.4byte	.LBB3
 3013 033c D4000000 		.4byte	.LBE3-.LBB3
 3014 0340 6F030000 		.4byte	0x36f
 3015 0344 1A       		.uleb128 0x1a
 3016 0345 34000000 		.4byte	.LASF60
 3017 0349 01       		.byte	0x1
 3018 034a 5001     		.2byte	0x150
 3019 034c 68000000 		.4byte	0x68
 3020 0350 03       		.uleb128 0x3
 3021 0351 91       		.byte	0x91
 3022 0352 A47F     		.sleb128 -92
 3023 0354 18       		.uleb128 0x18
 3024 0355 5C040000 		.4byte	.LBB4
 3025 0359 44000000 		.4byte	.LBE4-.LBB4
 3026 035d 1A       		.uleb128 0x1a
 3027 035e 54010000 		.4byte	.LASF61
 3028 0362 01       		.byte	0x1
ARM GAS  C:\Users\xavieran\AppData\Local\Temp\ccJy6OMN.s 			page 77


 3029 0363 5401     		.2byte	0x154
 3030 0365 68000000 		.4byte	0x68
 3031 0369 03       		.uleb128 0x3
 3032 036a 91       		.byte	0x91
 3033 036b A07F     		.sleb128 -96
 3034 036d 00       		.byte	0
 3035 036e 00       		.byte	0
 3036 036f 1B       		.uleb128 0x1b
 3037 0370 AA070000 		.4byte	.LBB5
 3038 0374 4A000000 		.4byte	.LBE5-.LBB5
 3039 0378 8A030000 		.4byte	0x38a
 3040 037c 1C       		.uleb128 0x1c
 3041 037d 6900     		.ascii	"i\000"
 3042 037f 01       		.byte	0x1
 3043 0380 D001     		.2byte	0x1d0
 3044 0382 68000000 		.4byte	0x68
 3045 0386 02       		.uleb128 0x2
 3046 0387 91       		.byte	0x91
 3047 0388 40       		.sleb128 -64
 3048 0389 00       		.byte	0
 3049 038a 18       		.uleb128 0x18
 3050 038b 9C0C0000 		.4byte	.LBB6
 3051 038f DA020000 		.4byte	.LBE6-.LBB6
 3052 0393 1A       		.uleb128 0x1a
 3053 0394 6D030000 		.4byte	.LASF62
 3054 0398 01       		.byte	0x1
 3055 0399 7202     		.2byte	0x272
 3056 039b 68000000 		.4byte	0x68
 3057 039f 03       		.uleb128 0x3
 3058 03a0 91       		.byte	0x91
 3059 03a1 B87F     		.sleb128 -72
 3060 03a3 1A       		.uleb128 0x1a
 3061 03a4 8C020000 		.4byte	.LASF56
 3062 03a8 01       		.byte	0x1
 3063 03a9 8E02     		.2byte	0x28e
 3064 03ab 68000000 		.4byte	0x68
 3065 03af 03       		.uleb128 0x3
 3066 03b0 91       		.byte	0x91
 3067 03b1 B47F     		.sleb128 -76
 3068 03b3 1A       		.uleb128 0x1a
 3069 03b4 49000000 		.4byte	.LASF59
 3070 03b8 01       		.byte	0x1
 3071 03b9 8F02     		.2byte	0x28f
 3072 03bb 68000000 		.4byte	0x68
 3073 03bf 03       		.uleb128 0x3
 3074 03c0 91       		.byte	0x91
 3075 03c1 B07F     		.sleb128 -80
 3076 03c3 00       		.byte	0
 3077 03c4 00       		.byte	0
 3078 03c5 00       		.byte	0
 3079 03c6 1D       		.uleb128 0x1d
 3080 03c7 9C020000 		.4byte	.LASF83
 3081 03cb 01       		.byte	0x1
 3082 03cc EB02     		.2byte	0x2eb
 3083 03ce 00000000 		.4byte	.LFB66
 3084 03d2 60010000 		.4byte	.LFE66-.LFB66
 3085 03d6 01       		.uleb128 0x1
ARM GAS  C:\Users\xavieran\AppData\Local\Temp\ccJy6OMN.s 			page 78


 3086 03d7 9C       		.byte	0x9c
 3087 03d8 40040000 		.4byte	0x440
 3088 03dc 1A       		.uleb128 0x1a
 3089 03dd 3F000000 		.4byte	.LASF63
 3090 03e1 01       		.byte	0x1
 3091 03e2 ED02     		.2byte	0x2ed
 3092 03e4 DB000000 		.4byte	0xdb
 3093 03e8 02       		.uleb128 0x2
 3094 03e9 91       		.byte	0x91
 3095 03ea 44       		.sleb128 -60
 3096 03eb 1C       		.uleb128 0x1c
 3097 03ec 61767800 		.ascii	"avx\000"
 3098 03f0 01       		.byte	0x1
 3099 03f1 EE02     		.2byte	0x2ee
 3100 03f3 AD000000 		.4byte	0xad
 3101 03f7 02       		.uleb128 0x2
 3102 03f8 91       		.byte	0x91
 3103 03f9 68       		.sleb128 -24
 3104 03fa 1C       		.uleb128 0x1c
 3105 03fb 61767900 		.ascii	"avy\000"
 3106 03ff 01       		.byte	0x1
 3107 0400 EE02     		.2byte	0x2ee
 3108 0402 AD000000 		.4byte	0xad
 3109 0406 02       		.uleb128 0x2
 3110 0407 91       		.byte	0x91
 3111 0408 64       		.sleb128 -28
 3112 0409 1A       		.uleb128 0x1a
 3113 040a 26010000 		.4byte	.LASF64
 3114 040e 01       		.byte	0x1
 3115 040f EF02     		.2byte	0x2ef
 3116 0411 68000000 		.4byte	0x68
 3117 0415 02       		.uleb128 0x2
 3118 0416 91       		.byte	0x91
 3119 0417 60       		.sleb128 -32
 3120 0418 1C       		.uleb128 0x1c
 3121 0419 7800     		.ascii	"x\000"
 3122 041b 01       		.byte	0x1
 3123 041c F002     		.2byte	0x2f0
 3124 041e A2000000 		.4byte	0xa2
 3125 0422 02       		.uleb128 0x2
 3126 0423 91       		.byte	0x91
 3127 0424 74       		.sleb128 -12
 3128 0425 1C       		.uleb128 0x1c
 3129 0426 7900     		.ascii	"y\000"
 3130 0428 01       		.byte	0x1
 3131 0429 F002     		.2byte	0x2f0
 3132 042b A2000000 		.4byte	0xa2
 3133 042f 02       		.uleb128 0x2
 3134 0430 91       		.byte	0x91
 3135 0431 70       		.sleb128 -16
 3136 0432 1C       		.uleb128 0x1c
 3137 0433 6900     		.ascii	"i\000"
 3138 0435 01       		.byte	0x1
 3139 0436 F102     		.2byte	0x2f1
 3140 0438 68000000 		.4byte	0x68
 3141 043c 02       		.uleb128 0x2
 3142 043d 91       		.byte	0x91
ARM GAS  C:\Users\xavieran\AppData\Local\Temp\ccJy6OMN.s 			page 79


 3143 043e 6C       		.sleb128 -20
 3144 043f 00       		.byte	0
 3145 0440 1E       		.uleb128 0x1e
 3146 0441 F8010000 		.4byte	.LASF65
 3147 0445 06       		.byte	0x6
 3148 0446 2A06     		.2byte	0x62a
 3149 0448 4C040000 		.4byte	0x44c
 3150 044c 05       		.uleb128 0x5
 3151 044d 76000000 		.4byte	0x76
 3152 0451 09       		.uleb128 0x9
 3153 0452 81000000 		.4byte	0x81
 3154 0456 6D040000 		.4byte	0x46d
 3155 045a 0A       		.uleb128 0xa
 3156 045b C7000000 		.4byte	0xc7
 3157 045f 8F       		.byte	0x8f
 3158 0460 0A       		.uleb128 0xa
 3159 0461 C7000000 		.4byte	0xc7
 3160 0465 57       		.byte	0x57
 3161 0466 0A       		.uleb128 0xa
 3162 0467 C7000000 		.4byte	0xc7
 3163 046b 03       		.byte	0x3
 3164 046c 00       		.byte	0
 3165 046d 1F       		.uleb128 0x1f
 3166 046e 97030000 		.4byte	.LASF66
 3167 0472 07       		.byte	0x7
 3168 0473 08       		.byte	0x8
 3169 0474 51040000 		.4byte	0x451
 3170 0478 05       		.uleb128 0x5
 3171 0479 03       		.byte	0x3
 3172 047a 00000000 		.4byte	Camera_framebuffer
 3173 047e 09       		.uleb128 0x9
 3174 047f 68000000 		.4byte	0x68
 3175 0483 8E040000 		.4byte	0x48e
 3176 0487 0A       		.uleb128 0xa
 3177 0488 C7000000 		.4byte	0xc7
 3178 048c 03       		.byte	0x3
 3179 048d 00       		.byte	0
 3180 048e 1F       		.uleb128 0x1f
 3181 048f 53020000 		.4byte	.LASF67
 3182 0493 08       		.byte	0x8
 3183 0494 1F       		.byte	0x1f
 3184 0495 7E040000 		.4byte	0x47e
 3185 0499 05       		.uleb128 0x5
 3186 049a 03       		.byte	0x3
 3187 049b 00000000 		.4byte	stack
 3188 049f 20       		.uleb128 0x20
 3189 04a0 B1010000 		.4byte	.LASF68
 3190 04a4 01       		.byte	0x1
 3191 04a5 31       		.byte	0x31
 3192 04a6 81000000 		.4byte	0x81
 3193 04aa 20       		.uleb128 0x20
 3194 04ab 2D040000 		.4byte	.LASF69
 3195 04af 01       		.byte	0x1
 3196 04b0 32       		.byte	0x32
 3197 04b1 81000000 		.4byte	0x81
 3198 04b5 20       		.uleb128 0x20
 3199 04b6 BD030000 		.4byte	.LASF70
ARM GAS  C:\Users\xavieran\AppData\Local\Temp\ccJy6OMN.s 			page 80


 3200 04ba 01       		.byte	0x1
 3201 04bb 34       		.byte	0x34
 3202 04bc C2000000 		.4byte	0xc2
 3203 04c0 20       		.uleb128 0x20
 3204 04c1 3C020000 		.4byte	.LASF71
 3205 04c5 01       		.byte	0x1
 3206 04c6 38       		.byte	0x38
 3207 04c7 97000000 		.4byte	0x97
 3208 04cb 20       		.uleb128 0x20
 3209 04cc 8F010000 		.4byte	.LASF72
 3210 04d0 01       		.byte	0x1
 3211 04d1 39       		.byte	0x39
 3212 04d2 97000000 		.4byte	0x97
 3213 04d6 20       		.uleb128 0x20
 3214 04d7 AE020000 		.4byte	.LASF73
 3215 04db 01       		.byte	0x1
 3216 04dc 3B       		.byte	0x3b
 3217 04dd 97000000 		.4byte	0x97
 3218 04e1 20       		.uleb128 0x20
 3219 04e2 D3020000 		.4byte	.LASF74
 3220 04e6 01       		.byte	0x1
 3221 04e7 3C       		.byte	0x3c
 3222 04e8 C2000000 		.4byte	0xc2
 3223 04ec 20       		.uleb128 0x20
 3224 04ed 74000000 		.4byte	.LASF75
 3225 04f1 01       		.byte	0x1
 3226 04f2 3D       		.byte	0x3d
 3227 04f3 97000000 		.4byte	0x97
 3228 04f7 1F       		.uleb128 0x1f
 3229 04f8 3F000000 		.4byte	.LASF63
 3230 04fc 01       		.byte	0x1
 3231 04fd 42       		.byte	0x42
 3232 04fe DB000000 		.4byte	0xdb
 3233 0502 05       		.uleb128 0x5
 3234 0503 03       		.byte	0x3
 3235 0504 00000000 		.4byte	outString
 3236 0508 00       		.byte	0
 3237              		.section	.debug_abbrev,"",%progbits
 3238              	.Ldebug_abbrev0:
 3239 0000 01       		.uleb128 0x1
 3240 0001 11       		.uleb128 0x11
 3241 0002 01       		.byte	0x1
 3242 0003 25       		.uleb128 0x25
 3243 0004 0E       		.uleb128 0xe
 3244 0005 13       		.uleb128 0x13
 3245 0006 0B       		.uleb128 0xb
 3246 0007 03       		.uleb128 0x3
 3247 0008 0E       		.uleb128 0xe
 3248 0009 1B       		.uleb128 0x1b
 3249 000a 0E       		.uleb128 0xe
 3250 000b 55       		.uleb128 0x55
 3251 000c 17       		.uleb128 0x17
 3252 000d 11       		.uleb128 0x11
 3253 000e 01       		.uleb128 0x1
 3254 000f 10       		.uleb128 0x10
 3255 0010 17       		.uleb128 0x17
 3256 0011 00       		.byte	0
ARM GAS  C:\Users\xavieran\AppData\Local\Temp\ccJy6OMN.s 			page 81


 3257 0012 00       		.byte	0
 3258 0013 02       		.uleb128 0x2
 3259 0014 24       		.uleb128 0x24
 3260 0015 00       		.byte	0
 3261 0016 0B       		.uleb128 0xb
 3262 0017 0B       		.uleb128 0xb
 3263 0018 3E       		.uleb128 0x3e
 3264 0019 0B       		.uleb128 0xb
 3265 001a 03       		.uleb128 0x3
 3266 001b 0E       		.uleb128 0xe
 3267 001c 00       		.byte	0
 3268 001d 00       		.byte	0
 3269 001e 03       		.uleb128 0x3
 3270 001f 16       		.uleb128 0x16
 3271 0020 00       		.byte	0
 3272 0021 03       		.uleb128 0x3
 3273 0022 0E       		.uleb128 0xe
 3274 0023 3A       		.uleb128 0x3a
 3275 0024 0B       		.uleb128 0xb
 3276 0025 3B       		.uleb128 0x3b
 3277 0026 0B       		.uleb128 0xb
 3278 0027 49       		.uleb128 0x49
 3279 0028 13       		.uleb128 0x13
 3280 0029 00       		.byte	0
 3281 002a 00       		.byte	0
 3282 002b 04       		.uleb128 0x4
 3283 002c 24       		.uleb128 0x24
 3284 002d 00       		.byte	0
 3285 002e 0B       		.uleb128 0xb
 3286 002f 0B       		.uleb128 0xb
 3287 0030 3E       		.uleb128 0x3e
 3288 0031 0B       		.uleb128 0xb
 3289 0032 03       		.uleb128 0x3
 3290 0033 08       		.uleb128 0x8
 3291 0034 00       		.byte	0
 3292 0035 00       		.byte	0
 3293 0036 05       		.uleb128 0x5
 3294 0037 35       		.uleb128 0x35
 3295 0038 00       		.byte	0
 3296 0039 49       		.uleb128 0x49
 3297 003a 13       		.uleb128 0x13
 3298 003b 00       		.byte	0
 3299 003c 00       		.byte	0
 3300 003d 06       		.uleb128 0x6
 3301 003e 0F       		.uleb128 0xf
 3302 003f 00       		.byte	0
 3303 0040 0B       		.uleb128 0xb
 3304 0041 0B       		.uleb128 0xb
 3305 0042 00       		.byte	0
 3306 0043 00       		.byte	0
 3307 0044 07       		.uleb128 0x7
 3308 0045 0F       		.uleb128 0xf
 3309 0046 00       		.byte	0
 3310 0047 0B       		.uleb128 0xb
 3311 0048 0B       		.uleb128 0xb
 3312 0049 49       		.uleb128 0x49
 3313 004a 13       		.uleb128 0x13
ARM GAS  C:\Users\xavieran\AppData\Local\Temp\ccJy6OMN.s 			page 82


 3314 004b 00       		.byte	0
 3315 004c 00       		.byte	0
 3316 004d 08       		.uleb128 0x8
 3317 004e 26       		.uleb128 0x26
 3318 004f 00       		.byte	0
 3319 0050 49       		.uleb128 0x49
 3320 0051 13       		.uleb128 0x13
 3321 0052 00       		.byte	0
 3322 0053 00       		.byte	0
 3323 0054 09       		.uleb128 0x9
 3324 0055 01       		.uleb128 0x1
 3325 0056 01       		.byte	0x1
 3326 0057 49       		.uleb128 0x49
 3327 0058 13       		.uleb128 0x13
 3328 0059 01       		.uleb128 0x1
 3329 005a 13       		.uleb128 0x13
 3330 005b 00       		.byte	0
 3331 005c 00       		.byte	0
 3332 005d 0A       		.uleb128 0xa
 3333 005e 21       		.uleb128 0x21
 3334 005f 00       		.byte	0
 3335 0060 49       		.uleb128 0x49
 3336 0061 13       		.uleb128 0x13
 3337 0062 2F       		.uleb128 0x2f
 3338 0063 0B       		.uleb128 0xb
 3339 0064 00       		.byte	0
 3340 0065 00       		.byte	0
 3341 0066 0B       		.uleb128 0xb
 3342 0067 13       		.uleb128 0x13
 3343 0068 01       		.byte	0x1
 3344 0069 03       		.uleb128 0x3
 3345 006a 0E       		.uleb128 0xe
 3346 006b 0B       		.uleb128 0xb
 3347 006c 0B       		.uleb128 0xb
 3348 006d 3A       		.uleb128 0x3a
 3349 006e 0B       		.uleb128 0xb
 3350 006f 3B       		.uleb128 0x3b
 3351 0070 0B       		.uleb128 0xb
 3352 0071 01       		.uleb128 0x1
 3353 0072 13       		.uleb128 0x13
 3354 0073 00       		.byte	0
 3355 0074 00       		.byte	0
 3356 0075 0C       		.uleb128 0xc
 3357 0076 0D       		.uleb128 0xd
 3358 0077 00       		.byte	0
 3359 0078 03       		.uleb128 0x3
 3360 0079 0E       		.uleb128 0xe
 3361 007a 49       		.uleb128 0x49
 3362 007b 13       		.uleb128 0x13
 3363 007c 38       		.uleb128 0x38
 3364 007d 0B       		.uleb128 0xb
 3365 007e 34       		.uleb128 0x34
 3366 007f 19       		.uleb128 0x19
 3367 0080 00       		.byte	0
 3368 0081 00       		.byte	0
 3369 0082 0D       		.uleb128 0xd
 3370 0083 04       		.uleb128 0x4
ARM GAS  C:\Users\xavieran\AppData\Local\Temp\ccJy6OMN.s 			page 83


 3371 0084 01       		.byte	0x1
 3372 0085 0B       		.uleb128 0xb
 3373 0086 0B       		.uleb128 0xb
 3374 0087 3A       		.uleb128 0x3a
 3375 0088 0B       		.uleb128 0xb
 3376 0089 3B       		.uleb128 0x3b
 3377 008a 0B       		.uleb128 0xb
 3378 008b 01       		.uleb128 0x1
 3379 008c 13       		.uleb128 0x13
 3380 008d 00       		.byte	0
 3381 008e 00       		.byte	0
 3382 008f 0E       		.uleb128 0xe
 3383 0090 28       		.uleb128 0x28
 3384 0091 00       		.byte	0
 3385 0092 03       		.uleb128 0x3
 3386 0093 0E       		.uleb128 0xe
 3387 0094 1C       		.uleb128 0x1c
 3388 0095 0D       		.uleb128 0xd
 3389 0096 00       		.byte	0
 3390 0097 00       		.byte	0
 3391 0098 0F       		.uleb128 0xf
 3392 0099 28       		.uleb128 0x28
 3393 009a 00       		.byte	0
 3394 009b 03       		.uleb128 0x3
 3395 009c 08       		.uleb128 0x8
 3396 009d 1C       		.uleb128 0x1c
 3397 009e 0D       		.uleb128 0xd
 3398 009f 00       		.byte	0
 3399 00a0 00       		.byte	0
 3400 00a1 10       		.uleb128 0x10
 3401 00a2 04       		.uleb128 0x4
 3402 00a3 01       		.byte	0x1
 3403 00a4 03       		.uleb128 0x3
 3404 00a5 0E       		.uleb128 0xe
 3405 00a6 0B       		.uleb128 0xb
 3406 00a7 0B       		.uleb128 0xb
 3407 00a8 3A       		.uleb128 0x3a
 3408 00a9 0B       		.uleb128 0xb
 3409 00aa 3B       		.uleb128 0x3b
 3410 00ab 0B       		.uleb128 0xb
 3411 00ac 01       		.uleb128 0x1
 3412 00ad 13       		.uleb128 0x13
 3413 00ae 00       		.byte	0
 3414 00af 00       		.byte	0
 3415 00b0 11       		.uleb128 0x11
 3416 00b1 2E       		.uleb128 0x2e
 3417 00b2 01       		.byte	0x1
 3418 00b3 3F       		.uleb128 0x3f
 3419 00b4 19       		.uleb128 0x19
 3420 00b5 03       		.uleb128 0x3
 3421 00b6 0E       		.uleb128 0xe
 3422 00b7 3A       		.uleb128 0x3a
 3423 00b8 0B       		.uleb128 0xb
 3424 00b9 3B       		.uleb128 0x3b
 3425 00ba 0B       		.uleb128 0xb
 3426 00bb 27       		.uleb128 0x27
 3427 00bc 19       		.uleb128 0x19
ARM GAS  C:\Users\xavieran\AppData\Local\Temp\ccJy6OMN.s 			page 84


 3428 00bd 11       		.uleb128 0x11
 3429 00be 01       		.uleb128 0x1
 3430 00bf 12       		.uleb128 0x12
 3431 00c0 06       		.uleb128 0x6
 3432 00c1 40       		.uleb128 0x40
 3433 00c2 18       		.uleb128 0x18
 3434 00c3 9642     		.uleb128 0x2116
 3435 00c5 19       		.uleb128 0x19
 3436 00c6 01       		.uleb128 0x1
 3437 00c7 13       		.uleb128 0x13
 3438 00c8 00       		.byte	0
 3439 00c9 00       		.byte	0
 3440 00ca 12       		.uleb128 0x12
 3441 00cb 05       		.uleb128 0x5
 3442 00cc 00       		.byte	0
 3443 00cd 03       		.uleb128 0x3
 3444 00ce 08       		.uleb128 0x8
 3445 00cf 3A       		.uleb128 0x3a
 3446 00d0 0B       		.uleb128 0xb
 3447 00d1 3B       		.uleb128 0x3b
 3448 00d2 0B       		.uleb128 0xb
 3449 00d3 49       		.uleb128 0x49
 3450 00d4 13       		.uleb128 0x13
 3451 00d5 02       		.uleb128 0x2
 3452 00d6 18       		.uleb128 0x18
 3453 00d7 00       		.byte	0
 3454 00d8 00       		.byte	0
 3455 00d9 13       		.uleb128 0x13
 3456 00da 18       		.uleb128 0x18
 3457 00db 00       		.byte	0
 3458 00dc 00       		.byte	0
 3459 00dd 00       		.byte	0
 3460 00de 14       		.uleb128 0x14
 3461 00df 34       		.uleb128 0x34
 3462 00e0 00       		.byte	0
 3463 00e1 03       		.uleb128 0x3
 3464 00e2 0E       		.uleb128 0xe
 3465 00e3 3A       		.uleb128 0x3a
 3466 00e4 0B       		.uleb128 0xb
 3467 00e5 3B       		.uleb128 0x3b
 3468 00e6 0B       		.uleb128 0xb
 3469 00e7 49       		.uleb128 0x49
 3470 00e8 13       		.uleb128 0x13
 3471 00e9 02       		.uleb128 0x2
 3472 00ea 18       		.uleb128 0x18
 3473 00eb 00       		.byte	0
 3474 00ec 00       		.byte	0
 3475 00ed 15       		.uleb128 0x15
 3476 00ee 2E       		.uleb128 0x2e
 3477 00ef 01       		.byte	0x1
 3478 00f0 3F       		.uleb128 0x3f
 3479 00f1 19       		.uleb128 0x19
 3480 00f2 03       		.uleb128 0x3
 3481 00f3 0E       		.uleb128 0xe
 3482 00f4 3A       		.uleb128 0x3a
 3483 00f5 0B       		.uleb128 0xb
 3484 00f6 3B       		.uleb128 0x3b
ARM GAS  C:\Users\xavieran\AppData\Local\Temp\ccJy6OMN.s 			page 85


 3485 00f7 0B       		.uleb128 0xb
 3486 00f8 27       		.uleb128 0x27
 3487 00f9 19       		.uleb128 0x19
 3488 00fa 49       		.uleb128 0x49
 3489 00fb 13       		.uleb128 0x13
 3490 00fc 11       		.uleb128 0x11
 3491 00fd 01       		.uleb128 0x1
 3492 00fe 12       		.uleb128 0x12
 3493 00ff 06       		.uleb128 0x6
 3494 0100 40       		.uleb128 0x40
 3495 0101 18       		.uleb128 0x18
 3496 0102 9742     		.uleb128 0x2117
 3497 0104 19       		.uleb128 0x19
 3498 0105 01       		.uleb128 0x1
 3499 0106 13       		.uleb128 0x13
 3500 0107 00       		.byte	0
 3501 0108 00       		.byte	0
 3502 0109 16       		.uleb128 0x16
 3503 010a 05       		.uleb128 0x5
 3504 010b 00       		.byte	0
 3505 010c 03       		.uleb128 0x3
 3506 010d 0E       		.uleb128 0xe
 3507 010e 3A       		.uleb128 0x3a
 3508 010f 0B       		.uleb128 0xb
 3509 0110 3B       		.uleb128 0x3b
 3510 0111 0B       		.uleb128 0xb
 3511 0112 49       		.uleb128 0x49
 3512 0113 13       		.uleb128 0x13
 3513 0114 02       		.uleb128 0x2
 3514 0115 18       		.uleb128 0x18
 3515 0116 00       		.byte	0
 3516 0117 00       		.byte	0
 3517 0118 17       		.uleb128 0x17
 3518 0119 2E       		.uleb128 0x2e
 3519 011a 01       		.byte	0x1
 3520 011b 3F       		.uleb128 0x3f
 3521 011c 19       		.uleb128 0x19
 3522 011d 03       		.uleb128 0x3
 3523 011e 0E       		.uleb128 0xe
 3524 011f 3A       		.uleb128 0x3a
 3525 0120 0B       		.uleb128 0xb
 3526 0121 3B       		.uleb128 0x3b
 3527 0122 0B       		.uleb128 0xb
 3528 0123 49       		.uleb128 0x49
 3529 0124 13       		.uleb128 0x13
 3530 0125 11       		.uleb128 0x11
 3531 0126 01       		.uleb128 0x1
 3532 0127 12       		.uleb128 0x12
 3533 0128 06       		.uleb128 0x6
 3534 0129 40       		.uleb128 0x40
 3535 012a 18       		.uleb128 0x18
 3536 012b 9642     		.uleb128 0x2116
 3537 012d 19       		.uleb128 0x19
 3538 012e 01       		.uleb128 0x1
 3539 012f 13       		.uleb128 0x13
 3540 0130 00       		.byte	0
 3541 0131 00       		.byte	0
ARM GAS  C:\Users\xavieran\AppData\Local\Temp\ccJy6OMN.s 			page 86


 3542 0132 18       		.uleb128 0x18
 3543 0133 0B       		.uleb128 0xb
 3544 0134 01       		.byte	0x1
 3545 0135 11       		.uleb128 0x11
 3546 0136 01       		.uleb128 0x1
 3547 0137 12       		.uleb128 0x12
 3548 0138 06       		.uleb128 0x6
 3549 0139 00       		.byte	0
 3550 013a 00       		.byte	0
 3551 013b 19       		.uleb128 0x19
 3552 013c 34       		.uleb128 0x34
 3553 013d 00       		.byte	0
 3554 013e 03       		.uleb128 0x3
 3555 013f 08       		.uleb128 0x8
 3556 0140 3A       		.uleb128 0x3a
 3557 0141 0B       		.uleb128 0xb
 3558 0142 3B       		.uleb128 0x3b
 3559 0143 0B       		.uleb128 0xb
 3560 0144 49       		.uleb128 0x49
 3561 0145 13       		.uleb128 0x13
 3562 0146 02       		.uleb128 0x2
 3563 0147 18       		.uleb128 0x18
 3564 0148 00       		.byte	0
 3565 0149 00       		.byte	0
 3566 014a 1A       		.uleb128 0x1a
 3567 014b 34       		.uleb128 0x34
 3568 014c 00       		.byte	0
 3569 014d 03       		.uleb128 0x3
 3570 014e 0E       		.uleb128 0xe
 3571 014f 3A       		.uleb128 0x3a
 3572 0150 0B       		.uleb128 0xb
 3573 0151 3B       		.uleb128 0x3b
 3574 0152 05       		.uleb128 0x5
 3575 0153 49       		.uleb128 0x49
 3576 0154 13       		.uleb128 0x13
 3577 0155 02       		.uleb128 0x2
 3578 0156 18       		.uleb128 0x18
 3579 0157 00       		.byte	0
 3580 0158 00       		.byte	0
 3581 0159 1B       		.uleb128 0x1b
 3582 015a 0B       		.uleb128 0xb
 3583 015b 01       		.byte	0x1
 3584 015c 11       		.uleb128 0x11
 3585 015d 01       		.uleb128 0x1
 3586 015e 12       		.uleb128 0x12
 3587 015f 06       		.uleb128 0x6
 3588 0160 01       		.uleb128 0x1
 3589 0161 13       		.uleb128 0x13
 3590 0162 00       		.byte	0
 3591 0163 00       		.byte	0
 3592 0164 1C       		.uleb128 0x1c
 3593 0165 34       		.uleb128 0x34
 3594 0166 00       		.byte	0
 3595 0167 03       		.uleb128 0x3
 3596 0168 08       		.uleb128 0x8
 3597 0169 3A       		.uleb128 0x3a
 3598 016a 0B       		.uleb128 0xb
ARM GAS  C:\Users\xavieran\AppData\Local\Temp\ccJy6OMN.s 			page 87


 3599 016b 3B       		.uleb128 0x3b
 3600 016c 05       		.uleb128 0x5
 3601 016d 49       		.uleb128 0x49
 3602 016e 13       		.uleb128 0x13
 3603 016f 02       		.uleb128 0x2
 3604 0170 18       		.uleb128 0x18
 3605 0171 00       		.byte	0
 3606 0172 00       		.byte	0
 3607 0173 1D       		.uleb128 0x1d
 3608 0174 2E       		.uleb128 0x2e
 3609 0175 01       		.byte	0x1
 3610 0176 3F       		.uleb128 0x3f
 3611 0177 19       		.uleb128 0x19
 3612 0178 03       		.uleb128 0x3
 3613 0179 0E       		.uleb128 0xe
 3614 017a 3A       		.uleb128 0x3a
 3615 017b 0B       		.uleb128 0xb
 3616 017c 3B       		.uleb128 0x3b
 3617 017d 05       		.uleb128 0x5
 3618 017e 11       		.uleb128 0x11
 3619 017f 01       		.uleb128 0x1
 3620 0180 12       		.uleb128 0x12
 3621 0181 06       		.uleb128 0x6
 3622 0182 40       		.uleb128 0x40
 3623 0183 18       		.uleb128 0x18
 3624 0184 9642     		.uleb128 0x2116
 3625 0186 19       		.uleb128 0x19
 3626 0187 01       		.uleb128 0x1
 3627 0188 13       		.uleb128 0x13
 3628 0189 00       		.byte	0
 3629 018a 00       		.byte	0
 3630 018b 1E       		.uleb128 0x1e
 3631 018c 34       		.uleb128 0x34
 3632 018d 00       		.byte	0
 3633 018e 03       		.uleb128 0x3
 3634 018f 0E       		.uleb128 0xe
 3635 0190 3A       		.uleb128 0x3a
 3636 0191 0B       		.uleb128 0xb
 3637 0192 3B       		.uleb128 0x3b
 3638 0193 05       		.uleb128 0x5
 3639 0194 49       		.uleb128 0x49
 3640 0195 13       		.uleb128 0x13
 3641 0196 3F       		.uleb128 0x3f
 3642 0197 19       		.uleb128 0x19
 3643 0198 3C       		.uleb128 0x3c
 3644 0199 19       		.uleb128 0x19
 3645 019a 00       		.byte	0
 3646 019b 00       		.byte	0
 3647 019c 1F       		.uleb128 0x1f
 3648 019d 34       		.uleb128 0x34
 3649 019e 00       		.byte	0
 3650 019f 03       		.uleb128 0x3
 3651 01a0 0E       		.uleb128 0xe
 3652 01a1 3A       		.uleb128 0x3a
 3653 01a2 0B       		.uleb128 0xb
 3654 01a3 3B       		.uleb128 0x3b
 3655 01a4 0B       		.uleb128 0xb
ARM GAS  C:\Users\xavieran\AppData\Local\Temp\ccJy6OMN.s 			page 88


 3656 01a5 49       		.uleb128 0x49
 3657 01a6 13       		.uleb128 0x13
 3658 01a7 3F       		.uleb128 0x3f
 3659 01a8 19       		.uleb128 0x19
 3660 01a9 02       		.uleb128 0x2
 3661 01aa 18       		.uleb128 0x18
 3662 01ab 00       		.byte	0
 3663 01ac 00       		.byte	0
 3664 01ad 20       		.uleb128 0x20
 3665 01ae 34       		.uleb128 0x34
 3666 01af 00       		.byte	0
 3667 01b0 03       		.uleb128 0x3
 3668 01b1 0E       		.uleb128 0xe
 3669 01b2 3A       		.uleb128 0x3a
 3670 01b3 0B       		.uleb128 0xb
 3671 01b4 3B       		.uleb128 0x3b
 3672 01b5 0B       		.uleb128 0xb
 3673 01b6 49       		.uleb128 0x49
 3674 01b7 13       		.uleb128 0x13
 3675 01b8 3F       		.uleb128 0x3f
 3676 01b9 19       		.uleb128 0x19
 3677 01ba 3C       		.uleb128 0x3c
 3678 01bb 19       		.uleb128 0x19
 3679 01bc 00       		.byte	0
 3680 01bd 00       		.byte	0
 3681 01be 00       		.byte	0
 3682              		.section	.debug_aranges,"",%progbits
 3683 0000 34000000 		.4byte	0x34
 3684 0004 0200     		.2byte	0x2
 3685 0006 00000000 		.4byte	.Ldebug_info0
 3686 000a 04       		.byte	0x4
 3687 000b 00       		.byte	0
 3688 000c 0000     		.2byte	0
 3689 000e 0000     		.2byte	0
 3690 0010 00000000 		.4byte	.LFB63
 3691 0014 4A000000 		.4byte	.LFE63-.LFB63
 3692 0018 00000000 		.4byte	.LFB64
 3693 001c 2E000000 		.4byte	.LFE64-.LFB64
 3694 0020 00000000 		.4byte	.LFB65
 3695 0024 48100000 		.4byte	.LFE65-.LFB65
 3696 0028 00000000 		.4byte	.LFB66
 3697 002c 60010000 		.4byte	.LFE66-.LFB66
 3698 0030 00000000 		.4byte	0
 3699 0034 00000000 		.4byte	0
 3700              		.section	.debug_ranges,"",%progbits
 3701              	.Ldebug_ranges0:
 3702 0000 00000000 		.4byte	.LFB63
 3703 0004 4A000000 		.4byte	.LFE63
 3704 0008 00000000 		.4byte	.LFB64
 3705 000c 2E000000 		.4byte	.LFE64
 3706 0010 00000000 		.4byte	.LFB65
 3707 0014 48100000 		.4byte	.LFE65
 3708 0018 00000000 		.4byte	.LFB66
 3709 001c 60010000 		.4byte	.LFE66
 3710 0020 00000000 		.4byte	0
 3711 0024 00000000 		.4byte	0
 3712              		.section	.debug_line,"",%progbits
ARM GAS  C:\Users\xavieran\AppData\Local\Temp\ccJy6OMN.s 			page 89


 3713              	.Ldebug_line0:
 3714 0000 FA040000 		.section	.debug_str,"MS",%progbits,1
 3714      02000002 
 3714      00000201 
 3714      FB0E0D00 
 3714      01010101 
 3715              	.LASF27:
 3716 0000 535F4C45 		.ascii	"S_LEFT_BASE\000"
 3716      46545F42 
 3716      41534500 
 3717              	.LASF43:
 3718 000c 75707065 		.ascii	"upper\000"
 3718      7200
 3719              	.LASF53:
 3720 0012 74776974 		.ascii	"twitching_l\000"
 3720      6368696E 
 3720      675F6C00 
 3721              	.LASF2:
 3722 001e 73686F72 		.ascii	"short int\000"
 3722      7420696E 
 3722      7400
 3723              	.LASF54:
 3724 0028 74776974 		.ascii	"twitching_r\000"
 3724      6368696E 
 3724      675F7200 
 3725              	.LASF60:
 3726 0034 636F6C6F 		.ascii	"color\000"
 3726      7200
 3727              	.LASF45:
 3728 003a 6D61696E 		.ascii	"main\000"
 3728      00
 3729              	.LASF63:
 3730 003f 6F757453 		.ascii	"outString\000"
 3730      7472696E 
 3730      6700
 3731              	.LASF59:
 3732 0049 73746163 		.ascii	"stackable\000"
 3732      6B61626C 
 3732      6500
 3733              	.LASF51:
 3734 0053 73746172 		.ascii	"start_time_find100\000"
 3734      745F7469 
 3734      6D655F66 
 3734      696E6431 
 3734      303000
 3735              	.LASF20:
 3736 0066 76615F6C 		.ascii	"va_list\000"
 3736      69737400 
 3737              	.LASF57:
 3738 006e 7075636B 		.ascii	"pucks\000"
 3738      7300
 3739              	.LASF75:
 3740 0074 6F726967 		.ascii	"original_compass_heading\000"
 3740      696E616C 
 3740      5F636F6D 
 3740      70617373 
 3740      5F686561 
ARM GAS  C:\Users\xavieran\AppData\Local\Temp\ccJy6OMN.s 			page 90


 3741              	.LASF49:
 3742 008d 6E656172 		.ascii	"near_base\000"
 3742      5F626173 
 3742      6500
 3743              	.LASF76:
 3744 0097 474E5520 		.ascii	"GNU C 4.8.4 20140526 (release) [ARM/embedded-4_8-br"
 3744      4320342E 
 3744      382E3420 
 3744      32303134 
 3744      30353236 
 3745 00ca 616E6368 		.ascii	"anch revision 211358] -mcpu=cortex-m3 -mthumb -g -O"
 3745      20726576 
 3745      6973696F 
 3745      6E203231 
 3745      31333538 
 3746 00fd 30202D66 		.ascii	"0 -ffunction-sections\000"
 3746      66756E63 
 3746      74696F6E 
 3746      2D736563 
 3746      74696F6E 
 3747              	.LASF12:
 3748 0113 75696E74 		.ascii	"uint16\000"
 3748      313600
 3749              	.LASF13:
 3750 011a 696E7431 		.ascii	"int16\000"
 3750      3600
 3751              	.LASF11:
 3752 0120 75696E74 		.ascii	"uint8\000"
 3752      3800
 3753              	.LASF64:
 3754 0126 74726961 		.ascii	"trials\000"
 3754      6C7300
 3755              	.LASF15:
 3756 012d 666C6F61 		.ascii	"float\000"
 3756      7400
 3757              	.LASF26:
 3758 0133 535F4C45 		.ascii	"S_LEAVE_BASE\000"
 3758      4156455F 
 3758      42415345 
 3758      00
 3759              	.LASF42:
 3760 0140 6C6F7765 		.ascii	"lower\000"
 3760      7200
 3761              	.LASF6:
 3762 0146 6C6F6E67 		.ascii	"long long int\000"
 3762      206C6F6E 
 3762      6720696E 
 3762      7400
 3763              	.LASF61:
 3764 0154 6F6C645F 		.ascii	"old_heading\000"
 3764      68656164 
 3764      696E6700 
 3765              	.LASF33:
 3766 0160 535F474F 		.ascii	"S_GOING_HOME_CHECK_IR\000"
 3766      494E475F 
 3766      484F4D45 
 3766      5F434845 
ARM GAS  C:\Users\xavieran\AppData\Local\Temp\ccJy6OMN.s 			page 91


 3766      434B5F49 
 3767              	.LASF81:
 3768 0176 53746174 		.ascii	"State\000"
 3768      6500
 3769              	.LASF4:
 3770 017c 6C6F6E67 		.ascii	"long int\000"
 3770      20696E74 
 3770      00
 3771              	.LASF79:
 3772 0185 5F5F7661 		.ascii	"__va_list\000"
 3772      5F6C6973 
 3772      7400
 3773              	.LASF72:
 3774 018f 636F6D70 		.ascii	"compass_y\000"
 3774      6173735F 
 3774      7900
 3775              	.LASF29:
 3776 0199 535F474F 		.ascii	"S_GO_HOME\000"
 3776      5F484F4D 
 3776      4500
 3777              	.LASF39:
 3778 01a3 535F4752 		.ascii	"S_GRAB_BEACON\000"
 3778      41425F42 
 3778      4541434F 
 3778      4E00
 3779              	.LASF68:
 3780 01b1 48454144 		.ascii	"HEADING_ERROR_LIMIT\000"
 3780      494E475F 
 3780      4552524F 
 3780      525F4C49 
 3780      4D495400 
 3781              	.LASF47:
 3782 01c5 73746174 		.ascii	"state\000"
 3782      6500
 3783              	.LASF21:
 3784 01cb 6C6F6E67 		.ascii	"long double\000"
 3784      20646F75 
 3784      626C6500 
 3785              	.LASF38:
 3786 01d7 535F4E45 		.ascii	"S_NEAR_HOME_SAW_30\000"
 3786      41525F48 
 3786      4F4D455F 
 3786      5341575F 
 3786      333000
 3787              	.LASF1:
 3788 01ea 756E7369 		.ascii	"unsigned char\000"
 3788      676E6564 
 3788      20636861 
 3788      7200
 3789              	.LASF65:
 3790 01f8 49544D5F 		.ascii	"ITM_RxBuffer\000"
 3790      52784275 
 3790      66666572 
 3790      00
 3791              	.LASF0:
 3792 0205 7369676E 		.ascii	"signed char\000"
 3792      65642063 
ARM GAS  C:\Users\xavieran\AppData\Local\Temp\ccJy6OMN.s 			page 92


 3792      68617200 
 3793              	.LASF10:
 3794 0211 696E7433 		.ascii	"int32_t\000"
 3794      325F7400 
 3795              	.LASF7:
 3796 0219 6C6F6E67 		.ascii	"long long unsigned int\000"
 3796      206C6F6E 
 3796      6720756E 
 3796      7369676E 
 3796      65642069 
 3797              	.LASF28:
 3798 0230 535F4649 		.ascii	"S_FIND_PUCK\000"
 3798      4E445F50 
 3798      55434B00 
 3799              	.LASF71:
 3800 023c 636F6D70 		.ascii	"compass_x\000"
 3800      6173735F 
 3800      7800
 3801              	.LASF8:
 3802 0246 756E7369 		.ascii	"unsigned int\000"
 3802      676E6564 
 3802      20696E74 
 3802      00
 3803              	.LASF67:
 3804 0253 73746163 		.ascii	"stack\000"
 3804      6B00
 3805              	.LASF41:
 3806 0259 61726773 		.ascii	"args\000"
 3806      00
 3807              	.LASF82:
 3808 025e 77697468 		.ascii	"within_range\000"
 3808      696E5F72 
 3808      616E6765 
 3808      00
 3809              	.LASF3:
 3810 026b 73686F72 		.ascii	"short unsigned int\000"
 3810      7420756E 
 3810      7369676E 
 3810      65642069 
 3810      6E7400
 3811              	.LASF50:
 3812 027e 63757272 		.ascii	"current_color\000"
 3812      656E745F 
 3812      636F6C6F 
 3812      7200
 3813              	.LASF56:
 3814 028c 756C7472 		.ascii	"ultra\000"
 3814      6100
 3815              	.LASF80:
 3816 0292 5F5F6170 		.ascii	"__ap\000"
 3816      00
 3817              	.LASF17:
 3818 0297 63686172 		.ascii	"char\000"
 3818      00
 3819              	.LASF83:
 3820 029c 63616C69 		.ascii	"calibrate_compass\000"
 3820      62726174 
ARM GAS  C:\Users\xavieran\AppData\Local\Temp\ccJy6OMN.s 			page 93


 3820      655F636F 
 3820      6D706173 
 3820      7300
 3821              	.LASF73:
 3822 02ae 636F6D70 		.ascii	"compass_heading\000"
 3822      6173735F 
 3822      68656164 
 3822      696E6700 
 3823              	.LASF34:
 3824 02be 535F4E45 		.ascii	"S_NEAR_HOME_FIND_100\000"
 3824      41525F48 
 3824      4F4D455F 
 3824      46494E44 
 3824      5F313030 
 3825              	.LASF74:
 3826 02d3 636F6D70 		.ascii	"compass_ready\000"
 3826      6173735F 
 3826      72656164 
 3826      7900
 3827              	.LASF24:
 3828 02e1 424C5545 		.ascii	"BLUE\000"
 3828      00
 3829              	.LASF32:
 3830 02e6 535F494E 		.ascii	"S_IN_CORNER\000"
 3830      5F434F52 
 3830      4E455200 
 3831              	.LASF40:
 3832 02f2 62756666 		.ascii	"buffer\000"
 3832      657200
 3833              	.LASF30:
 3834 02f9 535F4641 		.ascii	"S_FACE_HOME\000"
 3834      43455F48 
 3834      4F4D4500 
 3835              	.LASF5:
 3836 0305 6C6F6E67 		.ascii	"long unsigned int\000"
 3836      20756E73 
 3836      69676E65 
 3836      6420696E 
 3836      7400
 3837              	.LASF14:
 3838 0317 696E7433 		.ascii	"int32\000"
 3838      3200
 3839              	.LASF16:
 3840 031d 646F7562 		.ascii	"double\000"
 3840      6C6500
 3841              	.LASF48:
 3842 0324 7075636B 		.ascii	"pucks_gotten\000"
 3842      735F676F 
 3842      7474656E 
 3842      00
 3843              	.LASF35:
 3844 0331 535F4E45 		.ascii	"S_NEAR_HOME_FIND_60\000"
 3844      41525F48 
 3844      4F4D455F 
 3844      46494E44 
 3844      5F363000 
 3845              	.LASF46:
ARM GAS  C:\Users\xavieran\AppData\Local\Temp\ccJy6OMN.s 			page 94


 3846 0345 69725F72 		.ascii	"ir_result\000"
 3846      6573756C 
 3846      7400
 3847              	.LASF77:
 3848 034f 2E5C6D61 		.ascii	".\\main.c\000"
 3848      696E2E63 
 3848      00
 3849              	.LASF9:
 3850 0358 5F5F696E 		.ascii	"__int32_t\000"
 3850      7433325F 
 3850      7400
 3851              	.LASF22:
 3852 0362 4E4F4E45 		.ascii	"NONE\000"
 3852      00
 3853              	.LASF44:
 3854 0367 7072696E 		.ascii	"print\000"
 3854      7400
 3855              	.LASF62:
 3856 036d 6F6E5F73 		.ascii	"on_stack\000"
 3856      7461636B 
 3856      00
 3857              	.LASF18:
 3858 0376 73697A65 		.ascii	"sizetype\000"
 3858      74797065 
 3858      00
 3859              	.LASF19:
 3860 037f 5F5F676E 		.ascii	"__gnuc_va_list\000"
 3860      75635F76 
 3860      615F6C69 
 3860      737400
 3861              	.LASF58:
 3862 038e 676F6F64 		.ascii	"good_val\000"
 3862      5F76616C 
 3862      00
 3863              	.LASF66:
 3864 0397 43616D65 		.ascii	"Camera_framebuffer\000"
 3864      72615F66 
 3864      72616D65 
 3864      62756666 
 3864      657200
 3865              	.LASF36:
 3866 03aa 535F4345 		.ascii	"S_CENTERED_ON_BASE\000"
 3866      4E544552 
 3866      45445F4F 
 3866      4E5F4241 
 3866      534500
 3867              	.LASF70:
 3868 03bd 62757430 		.ascii	"but0_b\000"
 3868      5F6200
 3869              	.LASF37:
 3870 03c4 535F504C 		.ascii	"S_PLACE_PUCK\000"
 3870      4143455F 
 3870      5055434B 
 3870      00
 3871              	.LASF23:
 3872 03d1 47524545 		.ascii	"GREEN\000"
 3872      4E00
ARM GAS  C:\Users\xavieran\AppData\Local\Temp\ccJy6OMN.s 			page 95


 3873              	.LASF55:
 3874 03d7 685F6C65 		.ascii	"h_left\000"
 3874      667400
 3875              	.LASF78:
 3876 03de 433A5C55 		.ascii	"C:\\Users\\xavieran\\Desktop\\ECE3091\\PSOCProjects"
 3876      73657273 
 3876      5C786176 
 3876      69657261 
 3876      6E5C4465 
 3877 040c 5C454E47 		.ascii	"\\ENG3091_MandM\\camera_test.cydsn\000"
 3877      33303931 
 3877      5F4D616E 
 3877      644D5C63 
 3877      616D6572 
 3878              	.LASF69:
 3879 042d 5354414C 		.ascii	"STALL_SPEED\000"
 3879      4C5F5350 
 3879      45454400 
 3880              	.LASF31:
 3881 0439 535F474F 		.ascii	"S_GOT_HOME\000"
 3881      545F484F 
 3881      4D4500
 3882              	.LASF52:
 3883 0444 73746172 		.ascii	"start_time_find_puck\000"
 3883      745F7469 
 3883      6D655F66 
 3883      696E645F 
 3883      7075636B 
 3884              	.LASF25:
 3885 0459 535F5354 		.ascii	"S_START\000"
 3885      41525400 
 3886              		.ident	"GCC: (GNU Tools for ARM Embedded Processors) 4.8.4 20140526 (release) [ARM/embedded-4_8-br
