ARM GAS  C:\Users\xavieran\AppData\Local\Temp\ccI2E9GN.s 			page 1


   1              		.syntax unified
   2              		.cpu cortex-m3
   3              		.fpu softvfp
   4              		.eabi_attribute 20, 1
   5              		.eabi_attribute 21, 1
   6              		.eabi_attribute 23, 3
   7              		.eabi_attribute 24, 1
   8              		.eabi_attribute 25, 1
   9              		.eabi_attribute 26, 1
  10              		.eabi_attribute 30, 6
  11              		.eabi_attribute 34, 1
  12              		.eabi_attribute 18, 4
  13              		.thumb
  14              		.file	"main.c"
  15              		.text
  16              	.Ltext0:
  17              		.cfi_sections	.debug_frame
  18              		.comm	Camera_framebuffer,50688,4
  19              		.comm	stack,16,4
  20              		.comm	outString,25,4
  21              		.section	.text.print,"ax",%progbits
  22              		.align	2
  23              		.global	print
  24              		.thumb
  25              		.thumb_func
  26              		.type	print, %function
  27              	print:
  28              	.LFB63:
  29              		.file 1 ".\\main.c"
   1:.\main.c      **** /* ========================================
   2:.\main.c      ****  *
   3:.\main.c      ****  * Copyright YOUR COMPANY, THE YEAR
   4:.\main.c      ****  * All Rights Reserved
   5:.\main.c      ****  * UNPUBLISHED, LICENSED SOFTWARE.
   6:.\main.c      ****  *
   7:.\main.c      ****  * CONFIDENTIAL AND PROPRIETARY INFORMATION
   8:.\main.c      ****  * WHICH IS THE PROPERTY OF your company.
   9:.\main.c      ****  *
  10:.\main.c      ****  * ========================================
  11:.\main.c      **** */
  12:.\main.c      **** /* TODO ***
  13:.\main.c      ****  * GET ALL THE COLORS
  14:.\main.c      ****  * Work on reading instructions
  15:.\main.c      ****  * Put the beacon at the beginning 
  16:.\main.c      ****  * Improve search strategy
  17:.\main.c      ****  * Make it run around faster
  18:.\main.c      ****  * Check the compass orientations
  19:.\main.c      ****  * Fix magnet
  20:.\main.c      ****  * Check second ultrasonic
  21:.\main.c      ****  * Corner handling
  22:.\main.c      ****  * Collision handling
  23:.\main.c      ****  * Timeouts
  24:.\main.c      ****  * Counter for homing on puck
  25:.\main.c      ****  */
  26:.\main.c      **** 
  27:.\main.c      **** 
  28:.\main.c      **** #include <project.h>
ARM GAS  C:\Users\xavieran\AppData\Local\Temp\ccI2E9GN.s 			page 2


  29:.\main.c      **** #include <stdio.h>
  30:.\main.c      **** #include <stdarg.h>
  31:.\main.c      **** #include <math.h>
  32:.\main.c      **** #include <stdlib.h>
  33:.\main.c      **** 
  34:.\main.c      **** #include <infrared.h>
  35:.\main.c      **** #include <motor.h>
  36:.\main.c      **** #include <buttons.h>
  37:.\main.c      **** #include <compass.h>
  38:.\main.c      **** #include <ultrasonic.h>
  39:.\main.c      **** #include <ultrasonic_s.h>
  40:.\main.c      **** 
  41:.\main.c      **** #include <gripper.h>
  42:.\main.c      **** #include <arm.h>
  43:.\main.c      **** #include <my_camera_functions.h>
  44:.\main.c      **** #include <blob_stats.h>
  45:.\main.c      **** #include <beam.h>
  46:.\main.c      **** 
  47:.\main.c      **** extern blob blobs[255];
  48:.\main.c      **** //motor.c
  49:.\main.c      **** extern uint8 HEADING_ERROR_LIMIT;
  50:.\main.c      **** extern uint8 STALL_SPEED;
  51:.\main.c      **** //these are in button.c
  52:.\main.c      **** extern volatile uint8 but0_b;
  53:.\main.c      **** extern volatile uint8 but1_b;
  54:.\main.c      **** 
  55:.\main.c      **** //These are in compass.c
  56:.\main.c      **** extern int16 compass_x;
  57:.\main.c      **** extern int16 compass_y;
  58:.\main.c      **** extern int16 compass_z;
  59:.\main.c      **** extern int16 compass_heading;
  60:.\main.c      **** extern volatile uint8 compass_ready;
  61:.\main.c      **** extern int16 original_compass_heading; //We set this to make the angles relative
  62:.\main.c      **** 
  63:.\main.c      **** //This is in ultrasonic.c
  64:.\main.c      **** extern volatile uint16 ultra_distance;
  65:.\main.c      **** 
  66:.\main.c      **** char outString[25];
  67:.\main.c      **** void calibrate_compass();
  68:.\main.c      **** 
  69:.\main.c      **** #define POS_PRINTF(R,C,X,...) \
  70:.\main.c      ****  {sprintf(outString, X, ##__VA_ARGS__); LCD_Position(R, C); LCD_PrintString(outString);}
  71:.\main.c      **** 
  72:.\main.c      **** 
  73:.\main.c      **** // print() function, works like snprintf(). See: http://www.cplusplus.com/reference/cstdio/snprintf
  74:.\main.c      **** void print(const char *fmt, ...)
  75:.\main.c      **** {
  30              		.loc 1 75 0
  31              		.cfi_startproc
  32              		@ args = 4, pretend = 16, frame = 72
  33              		@ frame_needed = 1, uses_anonymous_args = 1
  34 0000 0FB4     		push	{r0, r1, r2, r3}
  35              		.cfi_def_cfa_offset 16
  36              		.cfi_offset 0, -16
  37              		.cfi_offset 1, -12
  38              		.cfi_offset 2, -8
  39              		.cfi_offset 3, -4
ARM GAS  C:\Users\xavieran\AppData\Local\Temp\ccI2E9GN.s 			page 3


  40 0002 80B5     		push	{r7, lr}
  41              		.cfi_def_cfa_offset 24
  42              		.cfi_offset 7, -24
  43              		.cfi_offset 14, -20
  44 0004 92B0     		sub	sp, sp, #72
  45              		.cfi_def_cfa_offset 96
  46 0006 00AF     		add	r7, sp, #0
  47              		.cfi_def_cfa_register 7
  76:.\main.c      ****    if(!USB_GetConfiguration()) return;  // Do nothing if the USB cable is not connected.
  48              		.loc 1 76 0
  49 0008 FFF7FEFF 		bl	USB_GetConfiguration
  50 000c 0346     		mov	r3, r0
  51 000e 002B     		cmp	r3, #0
  52 0010 15D0     		beq	.L1
  77:.\main.c      ****    char buffer[64];
  78:.\main.c      ****    va_list args;
  79:.\main.c      ****    va_start(args, fmt);
  53              		.loc 1 79 0
  54 0012 07F15403 		add	r3, r7, #84
  55 0016 7B60     		str	r3, [r7, #4]
  80:.\main.c      ****    vsnprintf(buffer, sizeof(buffer), fmt, args);
  56              		.loc 1 80 0
  57 0018 07F10803 		add	r3, r7, #8
  58 001c 1846     		mov	r0, r3
  59 001e 4021     		movs	r1, #64
  60 0020 3A6D     		ldr	r2, [r7, #80]
  61 0022 7B68     		ldr	r3, [r7, #4]
  62 0024 FFF7FEFF 		bl	vsnprintf
  81:.\main.c      ****    va_end(args);
  82:.\main.c      ****    while(!USB_CDCIsReady());
  63              		.loc 1 82 0
  64 0028 00BF     		nop
  65              	.L4:
  66              		.loc 1 82 0 is_stmt 0 discriminator 1
  67 002a FFF7FEFF 		bl	USB_CDCIsReady
  68 002e 0346     		mov	r3, r0
  69 0030 002B     		cmp	r3, #0
  70 0032 FAD0     		beq	.L4
  83:.\main.c      ****    USB_PutString(buffer);
  71              		.loc 1 83 0 is_stmt 1
  72 0034 07F10803 		add	r3, r7, #8
  73 0038 1846     		mov	r0, r3
  74 003a FFF7FEFF 		bl	USB_PutString
  75              	.L1:
  84:.\main.c      **** }
  76              		.loc 1 84 0
  77 003e 4837     		adds	r7, r7, #72
  78 0040 BD46     		mov	sp, r7
  79              		@ sp needed
  80 0042 BDE88040 		pop	{r7, lr}
  81 0046 04B0     		add	sp, sp, #16
  82 0048 7047     		bx	lr
  83              		.cfi_endproc
  84              	.LFE63:
  85              		.size	print, .-print
  86 004a 00BF     		.section	.text.within_range,"ax",%progbits
  87              		.align	2
ARM GAS  C:\Users\xavieran\AppData\Local\Temp\ccI2E9GN.s 			page 4


  88              		.global	within_range
  89              		.thumb
  90              		.thumb_func
  91              		.type	within_range, %function
  92              	within_range:
  93              	.LFB64:
  85:.\main.c      **** 
  86:.\main.c      **** int within_range(int lower, int val, int upper){
  94              		.loc 1 86 0
  95              		.cfi_startproc
  96              		@ args = 0, pretend = 0, frame = 16
  97              		@ frame_needed = 1, uses_anonymous_args = 0
  98              		@ link register save eliminated.
  99 0000 80B4     		push	{r7}
 100              		.cfi_def_cfa_offset 4
 101              		.cfi_offset 7, -4
 102 0002 85B0     		sub	sp, sp, #20
 103              		.cfi_def_cfa_offset 24
 104 0004 00AF     		add	r7, sp, #0
 105              		.cfi_def_cfa_register 7
 106 0006 F860     		str	r0, [r7, #12]
 107 0008 B960     		str	r1, [r7, #8]
 108 000a 7A60     		str	r2, [r7, #4]
  87:.\main.c      ****     return val >= lower && val <= upper;
 109              		.loc 1 87 0
 110 000c BA68     		ldr	r2, [r7, #8]
 111 000e FB68     		ldr	r3, [r7, #12]
 112 0010 9A42     		cmp	r2, r3
 113 0012 05DB     		blt	.L6
 114              		.loc 1 87 0 is_stmt 0 discriminator 1
 115 0014 BA68     		ldr	r2, [r7, #8]
 116 0016 7B68     		ldr	r3, [r7, #4]
 117 0018 9A42     		cmp	r2, r3
 118 001a 01DC     		bgt	.L6
 119              		.loc 1 87 0 discriminator 3
 120 001c 0123     		movs	r3, #1
 121 001e 00E0     		b	.L7
 122              	.L6:
 123              		.loc 1 87 0 discriminator 2
 124 0020 0023     		movs	r3, #0
 125              	.L7:
  88:.\main.c      **** }
 126              		.loc 1 88 0 is_stmt 1 discriminator 4
 127 0022 1846     		mov	r0, r3
 128 0024 1437     		adds	r7, r7, #20
 129 0026 BD46     		mov	sp, r7
 130              		@ sp needed
 131 0028 5DF8047B 		ldr	r7, [sp], #4
 132 002c 7047     		bx	lr
 133              		.cfi_endproc
 134              	.LFE64:
 135              		.size	within_range, .-within_range
 136 002e 00BF     		.section	.rodata
 137              		.align	2
 138              	.LC0:
 139 0000 44524F50 		.ascii	"DROPPED BEACON\000"
 139      50454420 
ARM GAS  C:\Users\xavieran\AppData\Local\Temp\ccI2E9GN.s 			page 5


 139      42454143 
 139      4F4E00
 140 000f 00       		.align	2
 141              	.LC1:
 142 0010 53544152 		.ascii	"STARTING CAM\000"
 142      54494E47 
 142      2043414D 
 142      00
 143 001d 000000   		.align	2
 144              	.LC2:
 145 0020 43414D45 		.ascii	"CAMERA STARTED!!!\000"
 145      52412053 
 145      54415254 
 145      45442121 
 145      2100
 146 0032 0000     		.align	2
 147              	.LC3:
 148 0034 25642025 		.ascii	"%d %d %d %d\000"
 148      64202564 
 148      20256400 
 149              		.align	2
 150              	.LC4:
 151 0040 46494E44 		.ascii	"FIND %d of %d\000"
 151      20256420 
 151      6F662025 
 151      6400
 152 004e 0000     		.align	2
 153              	.LC5:
 154 0050 53454520 		.ascii	"SEE C: %d\000"
 154      433A2025 
 154      6400
 155 005a 0000     		.align	2
 156              	.LC6:
 157 005c 4C454654 		.ascii	"LEFT to: %d\000"
 157      20746F3A 
 157      20256400 
 158              		.align	2
 159              	.LC7:
 160 0068 52494748 		.ascii	"RIGHT to: %d\000"
 160      5420746F 
 160      3A202564 
 160      00
 161 0075 000000   		.align	2
 162              	.LC8:
 163 0078 494E2047 		.ascii	"IN GO HOME I:%d U%d\000"
 163      4F20484F 
 163      4D452049 
 163      3A256420 
 163      55256400 
 164              		.align	2
 165              	.LC9:
 166 008c 474F494E 		.ascii	"GOING HOME CHECK IR\000"
 166      4720484F 
 166      4D452043 
 166      4845434B 
 166      20495200 
 167              		.align	2
ARM GAS  C:\Users\xavieran\AppData\Local\Temp\ccI2E9GN.s 			page 6


 168              	.LC10:
 169 00a0 49202564 		.ascii	"I %d\000"
 169      00
 170 00a5 000000   		.align	2
 171              	.LC11:
 172 00a8 63656E74 		.ascii	"center\000"
 172      657200
 173 00af 00       		.align	2
 174              	.LC12:
 175 00b0 6C656674 		.ascii	"left\000"
 175      00
 176 00b5 000000   		.align	2
 177              	.LC13:
 178 00b8 72696768 		.ascii	"right\000"
 178      7400
 179 00be 0000     		.align	2
 180              	.LC14:
 181 00c0 736F6D65 		.ascii	"something else\000"
 181      7468696E 
 181      6720656C 
 181      736500
 182 00cf 00       		.align	2
 183              	.LC15:
 184 00d0 4E454152 		.ascii	"NEAR HOME FIND 100\000"
 184      20484F4D 
 184      45204649 
 184      4E442031 
 184      303000
 185 00e3 00       		.align	2
 186              	.LC16:
 187 00e4 69202564 		.ascii	"i %d\000"
 187      00
 188 00e9 000000   		.align	2
 189              	.LC17:
 190 00ec 7420256C 		.ascii	"t %ld\000"
 190      6400
 191 00f2 0000     		.align	2
 192              	.LC18:
 193 00f4 4E454152 		.ascii	"NEAR HOME SAW 30\000"
 193      20484F4D 
 193      45205341 
 193      57203330 
 193      00
 194 0105 000000   		.align	2
 195              	.LC19:
 196 0108 69722564 		.ascii	"ir%d\000"
 196      00
 197 010d 000000   		.align	2
 198              	.LC20:
 199 0110 4E454152 		.ascii	"NEAR HOME FIND 60\000"
 199      20484F4D 
 199      45204649 
 199      4E442036 
 199      3000
 200 0122 0000     		.align	2
 201              	.LC21:
 202 0124 43454E54 		.ascii	"CENTERED ON BASE\000"
ARM GAS  C:\Users\xavieran\AppData\Local\Temp\ccI2E9GN.s 			page 7


 202      45524544 
 202      204F4E20 
 202      42415345 
 202      00
 203 0135 000000   		.align	2
 204              	.LC22:
 205 0138 554C5452 		.ascii	"ULTRA: %d\000"
 205      413A2025 
 205      6400
 206 0142 0000     		.align	2
 207              	.LC23:
 208 0144 504C4143 		.ascii	"PLACING PUCK\000"
 208      494E4720 
 208      5055434B 
 208      00
 209 0151 000000   		.align	2
 210              	.LC24:
 211 0154 53544143 		.ascii	"STACKING!\000"
 211      4B494E47 
 211      2100
 212 015e 0000     		.align	2
 213              	.LC25:
 214 0160 42256420 		.ascii	"B%d SU%d\000"
 214      53552564 
 214      00
 215 0169 000000   		.align	2
 216              	.LC26:
 217 016c 4245414D 		.ascii	"BEAM BROKEN\000"
 217      2042524F 
 217      4B454E00 
 218              		.align	2
 219              	.LC27:
 220 0178 436C6F73 		.ascii	"Close to stack\000"
 220      6520746F 
 220      20737461 
 220      636B00
 221 0187 00       		.align	2
 222              	.LC28:
 223 0188 46415220 		.ascii	"FAR FROM STACK\000"
 223      46524F4D 
 223      20535441 
 223      434B00
 224 0197 00       		.align	2
 225              	.LC29:
 226 0198 62657477 		.ascii	"between 12 and 17\000"
 226      65656E20 
 226      31322061 
 226      6E642031 
 226      3700
 227 01aa 0000     		.align	2
 228              	.LC30:
 229 01ac 474F5420 		.ascii	"GOT HOME\000"
 229      484F4D45 
 229      00
 230 01b5 000000   		.align	2
 231              	.LC31:
 232 01b8 56494354 		.ascii	"VICTORY!!!\000"
ARM GAS  C:\Users\xavieran\AppData\Local\Temp\ccI2E9GN.s 			page 8


 232      4F525921 
 232      212100
 233              		.section	.text.main,"ax",%progbits
 234              		.align	2
 235              		.global	main
 236              		.thumb
 237              		.thumb_func
 238              		.type	main, %function
 239              	main:
 240              	.LFB65:
  89:.\main.c      **** 
  90:.\main.c      **** #define NP_AHEAD 0
  91:.\main.c      **** #define NP_TURNED_RIGHT 1
  92:.\main.c      **** #define NP_TURNED_LEFT 2
  93:.\main.c      **** 
  94:.\main.c      **** enum State {
  95:.\main.c      ****     S_START = 0,
  96:.\main.c      ****     S_LEAVE_BASE,
  97:.\main.c      ****     S_LEFT_BASE,
  98:.\main.c      ****     S_FIND_PUCK,
  99:.\main.c      ****     S_GO_HOME,
 100:.\main.c      ****     S_FACE_HOME,
 101:.\main.c      ****     S_GOT_HOME,
 102:.\main.c      ****     S_IN_CORNER,
 103:.\main.c      ****     S_GOING_HOME_CHECK_IR,
 104:.\main.c      ****     S_NEAR_HOME_FIND_100,
 105:.\main.c      ****     S_NEAR_HOME_FIND_60,
 106:.\main.c      ****     S_CENTERED_ON_BASE,
 107:.\main.c      ****     S_PLACE_PUCK,
 108:.\main.c      ****     S_NEAR_HOME_SAW_30,
 109:.\main.c      ****     S_GRAB_BEACON
 110:.\main.c      **** };
 111:.\main.c      **** 
 112:.\main.c      **** int main()
 113:.\main.c      **** {
 241              		.loc 1 113 0
 242              		.cfi_startproc
 243              		@ args = 0, pretend = 0, frame = 80
 244              		@ frame_needed = 1, uses_anonymous_args = 0
 245 0000 B0B5     		push	{r4, r5, r7, lr}
 246              		.cfi_def_cfa_offset 16
 247              		.cfi_offset 4, -16
 248              		.cfi_offset 5, -12
 249              		.cfi_offset 7, -8
 250              		.cfi_offset 14, -4
 251 0002 96B0     		sub	sp, sp, #88
 252              		.cfi_def_cfa_offset 104
 253 0004 02AF     		add	r7, sp, #8
 254              		.cfi_def_cfa 7, 96
 114:.\main.c      ****     RED_Write(1);
 255              		.loc 1 114 0
 256 0006 0120     		movs	r0, #1
 257 0008 FFF7FEFF 		bl	RED_Write
 115:.\main.c      ****     CYGlobalIntEnable;
 258              		.loc 1 115 0
 259              	@ 115 ".\main.c" 1
 260 000c 62B6     		CPSIE   i
ARM GAS  C:\Users\xavieran\AppData\Local\Temp\ccI2E9GN.s 			page 9


 261              	@ 0 "" 2
 116:.\main.c      ****     
 117:.\main.c      ****     /**** INITIALIZE COMPONENTS ****/
 118:.\main.c      ****     LCD_Start();
 262              		.loc 1 118 0
 263              		.thumb
 264 000e FFF7FEFF 		bl	LCD_Start
 119:.\main.c      ****     USB_Start(0, USB_DWR_VDDD_OPERATION);
 265              		.loc 1 119 0
 266 0012 0020     		movs	r0, #0
 267 0014 0221     		movs	r1, #2
 268 0016 FFF7FEFF 		bl	USB_Start
 120:.\main.c      ****     
 121:.\main.c      ****     Timer_Start();
 269              		.loc 1 121 0
 270 001a FFF7FEFF 		bl	Timer_Start
 122:.\main.c      ****     start_buttons();
 271              		.loc 1 122 0
 272 001e FFF7FEFF 		bl	start_buttons
 123:.\main.c      ****     start_compass();
 273              		.loc 1 123 0
 274 0022 FFF7FEFF 		bl	start_compass
 124:.\main.c      ****     while (!compass_ready){;}
 275              		.loc 1 124 0
 276 0026 00BF     		nop
 277              	.L10:
 278              		.loc 1 124 0 is_stmt 0 discriminator 1
 279 0028 CE4B     		ldr	r3, .L111
 280 002a 1B78     		ldrb	r3, [r3]
 281 002c DBB2     		uxtb	r3, r3
 282 002e 002B     		cmp	r3, #0
 283 0030 FAD0     		beq	.L10
 125:.\main.c      ****     compass_read();
 284              		.loc 1 125 0 is_stmt 1
 285 0032 FFF7FEFF 		bl	compass_read
 126:.\main.c      ****     original_compass_heading = compass_heading;
 286              		.loc 1 126 0
 287 0036 CC4B     		ldr	r3, .L111+4
 288 0038 1A88     		ldrh	r2, [r3]
 289 003a CC4B     		ldr	r3, .L111+8
 290 003c 1A80     		strh	r2, [r3]	@ movhi
 127:.\main.c      ****     
 128:.\main.c      ****     start_motors();
 291              		.loc 1 128 0
 292 003e FFF7FEFF 		bl	start_motors
 129:.\main.c      ****     start_gripper();
 293              		.loc 1 129 0
 294 0042 FFF7FEFF 		bl	start_gripper
 130:.\main.c      ****     drop_puck();
 295              		.loc 1 130 0
 296 0046 FFF7FEFF 		bl	drop_puck
 131:.\main.c      ****     start_arm();
 297              		.loc 1 131 0
 298 004a FFF7FEFF 		bl	start_arm
 132:.\main.c      ****     arm_set_level(0);
 299              		.loc 1 132 0
 300 004e 0020     		movs	r0, #0
ARM GAS  C:\Users\xavieran\AppData\Local\Temp\ccI2E9GN.s 			page 10


 301 0050 FFF7FEFF 		bl	arm_set_level
 133:.\main.c      ****     start_ultrasonic();
 302              		.loc 1 133 0
 303 0054 FFF7FEFF 		bl	start_ultrasonic
 134:.\main.c      ****     start_ultrasonic_s();
 304              		.loc 1 134 0
 305 0058 FFF7FEFF 		bl	start_ultrasonic_s
 135:.\main.c      ****     start_infrared();
 306              		.loc 1 135 0
 307 005c FFF7FEFF 		bl	start_infrared
 136:.\main.c      ****     beam_broken();
 308              		.loc 1 136 0
 309 0060 FFF7FEFF 		bl	beam_broken
 137:.\main.c      ****     
 138:.\main.c      ****     /*
 139:.\main.c      ****     while (1){
 140:.\main.c      ****         if (compass_ready){
 141:.\main.c      ****             compass_read();
 142:.\main.c      ****             print("%d %d\n", compass_x, compass_y);
 143:.\main.c      ****             POS_PRINTF(0,0,"%d %d %d", compass_heading, compass_x, compass_y);
 144:.\main.c      ****         }
 145:.\main.c      ****     }
 146:.\main.c      ****     */
 147:.\main.c      **** 
 148:.\main.c      ****     //calibrate_compass();
 149:.\main.c      ****     
 150:.\main.c      ****     /*
 151:.\main.c      ****     int arm_height = 1;
 152:.\main.c      ****     while (1){
 153:.\main.c      ****         LCD_ClearDisplay();
 154:.\main.c      ****         POS_PRINTF(0,0,"R %d S %d", get_mean_ultra(), get_mean_ultra_s());
 155:.\main.c      ****         POS_PRINTF(1,0,"B %d P %d", beam_broken(), arm_height);
 156:.\main.c      ****         if (but0_b){
 157:.\main.c      ****             but0_b = 0;
 158:.\main.c      ****             if (arm_height){
 159:.\main.c      ****                 select_left();
 160:.\main.c      ****             } else {
 161:.\main.c      ****                 select_stack();
 162:.\main.c      ****             }
 163:.\main.c      ****         } else if (but1_b){
 164:.\main.c      ****             but1_b = 0;
 165:.\main.c      ****         }
 166:.\main.c      ****         CyDelay(50);   
 167:.\main.c      ****     }*/
 168:.\main.c      ****     
 169:.\main.c      ****     /*
 170:.\main.c      ****     while (1){
 171:.\main.c      ****         LCD_ClearDisplay();
 172:.\main.c      ****         POS_PRINTF(0,0,"F %d L %d", get_front_ir(), get_left_ir());
 173:.\main.c      ****         POS_PRINTF(1,0,"U %d V %d", get_mean_ultra(), get_var_ultra());
 174:.\main.c      ****         CyDelay(50);
 175:.\main.c      ****     }*/
 176:.\main.c      **** 
 177:.\main.c      ****     /**** Declare Variables ****/
 178:.\main.c      ****     
 179:.\main.c      ****     uint16 ir_result;
 180:.\main.c      ****     uint16 state;
ARM GAS  C:\Users\xavieran\AppData\Local\Temp\ccI2E9GN.s 			page 11


 181:.\main.c      ****     int pucks_gotten = 0;
 310              		.loc 1 181 0
 311 0064 0023     		movs	r3, #0
 312 0066 BB64     		str	r3, [r7, #72]
 182:.\main.c      ****     int near_base = 70;
 313              		.loc 1 182 0
 314 0068 4623     		movs	r3, #70
 315 006a 3B61     		str	r3, [r7, #16]
 183:.\main.c      ****     int current_color = RED;
 316              		.loc 1 183 0
 317 006c 0123     		movs	r3, #1
 318 006e 7B64     		str	r3, [r7, #68]
 184:.\main.c      ****     long start_time_find100;
 185:.\main.c      ****     long start_time_find_puck;
 186:.\main.c      ****     int no_puck_state = 0;
 319              		.loc 1 186 0
 320 0070 0023     		movs	r3, #0
 321 0072 FB63     		str	r3, [r7, #60]
 187:.\main.c      ****     int twitching = 0;
 322              		.loc 1 187 0
 323 0074 0023     		movs	r3, #0
 324 0076 BB63     		str	r3, [r7, #56]
 188:.\main.c      ****     state = S_START;
 325              		.loc 1 188 0
 326 0078 0023     		movs	r3, #0
 327 007a A7F84E30 		strh	r3, [r7, #78]	@ movhi
 328 007e 00E0     		b	.L106
 329              	.L107:
 189:.\main.c      ****      
 190:.\main.c      ****     
 191:.\main.c      ****     
 192:.\main.c      ****     /*
 193:.\main.c      ****     while (1){
 194:.\main.c      ****         LCD_ClearDisplay();
 195:.\main.c      ****         POS_PRINTF(0,0,"u%d i%d", get_mean_ultra(), get_front_ir());
 196:.\main.c      ****         CyDelay(50);
 197:.\main.c      ****     }*/
 198:.\main.c      ****     
 199:.\main.c      ****     while (1){
 200:.\main.c      ****         switch(state){
 201:.\main.c      ****             case S_START:
 202:.\main.c      ****                 pickup_angled_puck();
 203:.\main.c      ****                 CyDelay(500);
 204:.\main.c      ****                 arm_set_level(6);
 205:.\main.c      ****                 CyDelay(1000);
 206:.\main.c      ****                 go_forward(1600, 200);
 207:.\main.c      ****                 CyDelay(300);
 208:.\main.c      ****                 pickup_puck();
 209:.\main.c      ****                 CyDelay(500);
 210:.\main.c      ****                 drop_puck();
 211:.\main.c      ****                 CyDelay(500);
 212:.\main.c      ****                 go_backward_ultra(10, 180);
 213:.\main.c      ****                 POS_PRINTF(0,0,"DROPPED BEACON");
 214:.\main.c      ****                 int i;
 215:.\main.c      ****                 arm_set_level(1);
 216:.\main.c      ****                 CyDelay(500);
 217:.\main.c      ****                 LCD_PosPrintString(0,0,"STARTING CAM");
ARM GAS  C:\Users\xavieran\AppData\Local\Temp\ccI2E9GN.s 			page 12


 218:.\main.c      ****                 init_camera();
 219:.\main.c      ****                 LCD_PosPrintString(0,0, "CAMERA STARTED!!!");
 220:.\main.c      ****                 arm_inbetween_level(0,1);
 221:.\main.c      ****                 CyDelay(500);
 222:.\main.c      ****                 set_gain_exposure(2);
 223:.\main.c      ****                 capture_thresh_image();
 224:.\main.c      ****                 sideways_instruction_read();
 225:.\main.c      ****                 set_gain_exposure(1);
 226:.\main.c      ****                 POS_PRINTF(1,0,"%d %d %d %d", stack[3], stack[2], stack[1], stack[0]);
 227:.\main.c      ****                 state = S_LEAVE_BASE;
 228:.\main.c      ****                 break;
 229:.\main.c      ****                 
 230:.\main.c      ****             case S_LEAVE_BASE:
 231:.\main.c      ****                 arm_set_level(0);
 232:.\main.c      ****                 go_backward_ultra(60, 255);
 233:.\main.c      ****                 state = S_LEFT_BASE;
 234:.\main.c      ****                 current_color = stack[(4 - pucks_gotten) - 1];
 235:.\main.c      ****                 STALL_SPEED = ARENA_STALL_SPEED;
 236:.\main.c      ****                 break;
 237:.\main.c      ****             case S_LEFT_BASE:
 238:.\main.c      ****                 set_heading(90);
 239:.\main.c      ****                 rotate_degrees(0);
 240:.\main.c      ****                 CyDelay(500);
 241:.\main.c      ****                 go_backward(1400, 255);
 242:.\main.c      ****                 CyDelay(500);
 243:.\main.c      ****                 set_heading(180);
 244:.\main.c      ****                 rotate_degrees(0);
 245:.\main.c      ****                 CyDelay(500);
 246:.\main.c      ****                 start_time_find_puck = Timer_ReadCounter();
 247:.\main.c      ****                 state = S_FIND_PUCK;
 248:.\main.c      ****                 break;
 249:.\main.c      ****             case S_FIND_PUCK:
 250:.\main.c      ****                 POS_PRINTF(1,0,"FIND %d of %d", current_color, pucks_gotten);
 251:.\main.c      ****                 /*if (start_time_find_puck - Timer_ReadCounter() > 10 * 35000){
 252:.\main.c      ****                     set_heading(180);
 253:.\main.c      ****                     go_backward(4000, 255);
 254:.\main.c      ****                     start_time_find_puck = Timer_ReadCounter();
 255:.\main.c      ****                 }*/
 256:.\main.c      ****                 CyDelay(300);
 257:.\main.c      ****                 capture_thresh_image();
 258:.\main.c      ****                 int pucks = to_nearest_blob(current_color, 30, 10);
 259:.\main.c      ****                 
 260:.\main.c      ****                 if (pucks == 0){
 261:.\main.c      ****                     twitching = 0;
 262:.\main.c      ****                     //Red puck is centered, so we check our beam break and drive forward a bit.
 263:.\main.c      ****                     go_forward(1000, 255);
 264:.\main.c      ****                     if (beam_broken()){
 265:.\main.c      ****                         go_forward(300, 255);
 266:.\main.c      ****                         pickup_puck();
 267:.\main.c      ****                         CyDelay(100);
 268:.\main.c      ****                         int old_heading = compass_heading;
 269:.\main.c      ****                         
 270:.\main.c      ****                         arm_carry_home();
 271:.\main.c      ****                         set_heading(90);
 272:.\main.c      ****                         rotate_degrees(0);
 273:.\main.c      ****                         arm_set_level(0);
 274:.\main.c      ****                         CyDelay(300);
ARM GAS  C:\Users\xavieran\AppData\Local\Temp\ccI2E9GN.s 			page 13


 275:.\main.c      ****                         set_gain_exposure(2);
 276:.\main.c      ****                         capture_thresh_image();
 277:.\main.c      ****                         int color = identify_colour_gripper();
 278:.\main.c      ****                         set_gain_exposure(1);
 279:.\main.c      ****                         POS_PRINTF(0,0,"SEE C: %d", color);
 280:.\main.c      ****                         if (color != current_color){
 281:.\main.c      ****                             go_forward(500, 255);
 282:.\main.c      ****                             drop_puck();
 283:.\main.c      ****                             go_backward(500, 255);
 284:.\main.c      ****                             arm_set_level(0);
 285:.\main.c      ****                             CyDelay(100);
 286:.\main.c      ****                             set_heading(old_heading);
 287:.\main.c      ****                             rotate_degrees(0);
 288:.\main.c      ****                         } else {
 289:.\main.c      ****                             arm_carry_home();
 290:.\main.c      ****                             set_heading(180);
 291:.\main.c      ****                             rotate_degrees(0);
 292:.\main.c      ****                             go_backward(1500, 255);
 293:.\main.c      ****                             pucks_gotten++;
 294:.\main.c      ****                             start_time_find_puck = Timer_ReadCounter();
 295:.\main.c      ****                             state = S_FACE_HOME;
 296:.\main.c      ****                             break;
 297:.\main.c      ****                         }
 298:.\main.c      ****                     }                
 299:.\main.c      ****                 } else if (pucks < 0){
 300:.\main.c      ****                     if (twitching > 5){
 301:.\main.c      ****                         twitching = 0;
 302:.\main.c      ****                         go_forward(500, 255);
 303:.\main.c      ****                     } else {
 304:.\main.c      ****                         rotate_degrees(-3);
 305:.\main.c      ****                         twitching++;
 306:.\main.c      ****                     }
 307:.\main.c      ****                 } else if (pucks > 0){if (twitching > 5){
 308:.\main.c      ****                         twitching = 0;
 309:.\main.c      ****                         go_forward(500, 255);
 310:.\main.c      ****                     } else {
 311:.\main.c      ****                         rotate_degrees(3);
 312:.\main.c      ****                         twitching++;
 313:.\main.c      ****                     }
 314:.\main.c      ****                 } else if (pucks == -1){
 315:.\main.c      ****                     switch (no_puck_state){
 316:.\main.c      ****                         case NP_AHEAD:
 317:.\main.c      ****                             for (i = 1; i < 8; i++){
 318:.\main.c      ****                                 set_heading(180 - i*10);
 319:.\main.c      ****                                 rotate_degrees(0);
 320:.\main.c      ****                                 POS_PRINTF(0,0,"LEFT to: %d", 180 - i*10);
 321:.\main.c      ****                                 CyDelay(500);
 322:.\main.c      ****                                 capture_thresh_image();
 323:.\main.c      ****                                 pucks = to_nearest_blob(current_color, 30, 10);
 324:.\main.c      ****                                 if (pucks != -1){
 325:.\main.c      ****                                     break;
 326:.\main.c      ****                                 }
 327:.\main.c      ****                             }
 328:.\main.c      ****                             if (pucks != -1){
 329:.\main.c      ****                                 break;
 330:.\main.c      ****                             }
 331:.\main.c      ****                             set_heading(180);
ARM GAS  C:\Users\xavieran\AppData\Local\Temp\ccI2E9GN.s 			page 14


 332:.\main.c      ****                             rotate_degrees(0);
 333:.\main.c      ****                             no_puck_state = NP_TURNED_LEFT;
 334:.\main.c      ****                             break;
 335:.\main.c      ****                         case NP_TURNED_LEFT:
 336:.\main.c      ****                             for (i = 1; i < 6; i++){
 337:.\main.c      ****                                 set_heading(180 + i*10);
 338:.\main.c      ****                                 rotate_degrees(0);
 339:.\main.c      ****                                 POS_PRINTF(0,0,"RIGHT to: %d", 180 - i*10);
 340:.\main.c      ****                                 CyDelay(500);
 341:.\main.c      ****                                 capture_thresh_image();
 342:.\main.c      ****                                 pucks = to_nearest_blob(current_color, 30, 10);
 343:.\main.c      ****                                 if (pucks != -1){
 344:.\main.c      ****                                     break;
 345:.\main.c      ****                                 }
 346:.\main.c      ****                             }
 347:.\main.c      ****                             if (pucks != -1){
 348:.\main.c      ****                                 break;
 349:.\main.c      ****                             }
 350:.\main.c      ****                             set_heading(180);
 351:.\main.c      ****                             rotate_degrees(0);
 352:.\main.c      ****                             no_puck_state = NP_TURNED_RIGHT;
 353:.\main.c      ****                             break;
 354:.\main.c      ****                         case NP_TURNED_RIGHT:
 355:.\main.c      ****                             go_forward(1000, 255);
 356:.\main.c      ****                             no_puck_state = NP_AHEAD;
 357:.\main.c      ****                             break;
 358:.\main.c      ****                     }
 359:.\main.c      ****                 }
 360:.\main.c      ****                 break;
 361:.\main.c      ****             case S_FACE_HOME:
 362:.\main.c      ****                 set_heading(90);
 363:.\main.c      ****                 rotate_degrees(0);
 364:.\main.c      ****                 set_heading(0);
 365:.\main.c      ****                 rotate_degrees(0);
 366:.\main.c      ****                 state = S_GO_HOME;
 367:.\main.c      ****                 break;
 368:.\main.c      ****             case S_GO_HOME:
 369:.\main.c      ****                 select_front();
 370:.\main.c      ****                 CyDelay(300);
 371:.\main.c      ****                 ir_result = get_ir_val();
 372:.\main.c      ****                 LCD_ClearDisplay();
 373:.\main.c      ****                 POS_PRINTF(0,0,"IN GO HOME I:%d U%d", ir_result, get_mean_ultra());
 374:.\main.c      ****                 //!!!!!!!!!!!
 375:.\main.c      ****                 //!!!!!!!!!!! CHECK AGAIN TO MAKE SURE IT WASNT JUST A PUCK BLOCKING the US
 376:.\main.c      ****                 //!!!!!!!!!!!
 377:.\main.c      ****                 if (get_mean_ultra() < near_base){ 
 378:.\main.c      ****                     state = S_NEAR_HOME_FIND_100;
 379:.\main.c      ****                     break;
 380:.\main.c      ****                 }
 381:.\main.c      ****                 
 382:.\main.c      ****                 state = S_GOING_HOME_CHECK_IR;
 383:.\main.c      ****                 set_heading(0);
 384:.\main.c      ****                 rotate_degrees(0);
 385:.\main.c      ****                 break;
 386:.\main.c      ****                 
 387:.\main.c      ****             case S_GOING_HOME_CHECK_IR:
 388:.\main.c      ****                 
ARM GAS  C:\Users\xavieran\AppData\Local\Temp\ccI2E9GN.s 			page 15


 389:.\main.c      ****                 POS_PRINTF(0,0,"GOING HOME CHECK IR");
 390:.\main.c      ****                 select_front();
 391:.\main.c      ****                 ir_result = get_ir_val();
 392:.\main.c      ****                 POS_PRINTF(1,0,"I %d", ir_result);
 393:.\main.c      ****                 if (ir_result < 10){//IR INVALID
 394:.\main.c      ****                     go_forward(500, 255);
 395:.\main.c      ****                 } else if (within_range(57, ir_result, 60)){
 396:.\main.c      ****                     POS_PRINTF(1,5, "center");
 397:.\main.c      ****                     set_heading(0);
 398:.\main.c      ****                     go_forward(500, 255);
 399:.\main.c      ****                     break;
 400:.\main.c      ****                 } else if (within_range(95, ir_result, 105)){
 401:.\main.c      ****                     POS_PRINTF(1,5, "left");
 402:.\main.c      ****                     set_heading(0);
 403:.\main.c      ****                     go_forward(500, 255);
 404:.\main.c      ****                     break;
 405:.\main.c      ****                 } else if (within_range(25, ir_result,35)){
 406:.\main.c      ****                     POS_PRINTF(1,5, "right");
 407:.\main.c      ****                     set_heading(0);
 408:.\main.c      ****                     go_forward(500, 255);
 409:.\main.c      ****                     break;
 410:.\main.c      ****                 } else {
 411:.\main.c      ****                     POS_PRINTF(0,0,"something else");
 412:.\main.c      ****                     set_heading(0);
 413:.\main.c      ****                     go_forward(500,255);
 414:.\main.c      ****                 }
 415:.\main.c      ****                 CyDelay(500);
 416:.\main.c      ****                 if (get_mean_ultra() <= near_base){
 417:.\main.c      ****                     state = S_NEAR_HOME_FIND_100;
 418:.\main.c      ****                     start_time_find100 = Timer_ReadCounter();
 419:.\main.c      ****                 }
 420:.\main.c      ****                 
 421:.\main.c      ****                 break;
 422:.\main.c      ****             case S_NEAR_HOME_FIND_100:
 423:.\main.c      ****                 if (start_time_find100 - Timer_ReadCounter() >  10 * 20000){//We must be too far le
 424:.\main.c      ****                     go_backward(4000, 255);
 425:.\main.c      ****                     start_time_find100 = Timer_ReadCounter();
 426:.\main.c      ****                 }
 427:.\main.c      ****                 
 428:.\main.c      ****                 POS_PRINTF(0,0,"NEAR HOME FIND 100");
 429:.\main.c      ****                 //while (!but0_b){;}but0_b = 0;
 430:.\main.c      ****                 set_heading(90);
 431:.\main.c      ****                 rotate_degrees(0);
 432:.\main.c      ****                 CyDelay(300);
 433:.\main.c      ****                 select_right();
 434:.\main.c      ****                 ir_result = get_ir_val();
 435:.\main.c      ****                 POS_PRINTF(1,0,"i %d", ir_result);
 436:.\main.c      ****                 POS_PRINTF(1,5,"t %ld", Timer_ReadCounter());
 437:.\main.c      ****                 //while (!but0_b){;}but0_b = 0;
 438:.\main.c      ****                 
 439:.\main.c      ****                 if (within_range(96, ir_result, 105)){
 440:.\main.c      ****                     int i;
 441:.\main.c      ****                     int good_val = 1;
 442:.\main.c      ****                     for (i = 0; i < 3; i++){
 443:.\main.c      ****                         CyDelay(300);
 444:.\main.c      ****                         if (!within_range(96, get_ir_val(), 105)){
 445:.\main.c      ****                             good_val = 0;
ARM GAS  C:\Users\xavieran\AppData\Local\Temp\ccI2E9GN.s 			page 16


 446:.\main.c      ****                             break;
 447:.\main.c      ****                         }
 448:.\main.c      ****                     }
 449:.\main.c      ****                     if (good_val){
 450:.\main.c      ****                         state = S_NEAR_HOME_FIND_60;
 451:.\main.c      ****                     }
 452:.\main.c      ****                     break;
 453:.\main.c      ****                 } else if (within_range(25, ir_result, 35)){
 454:.\main.c      ****                     go_forward(1000, 255);
 455:.\main.c      ****                 }
 456:.\main.c      ****                 go_forward(400, 255);
 457:.\main.c      ****                 break;
 458:.\main.c      ****                 
 459:.\main.c      ****             case S_NEAR_HOME_SAW_30:
 460:.\main.c      ****                 POS_PRINTF(0,0,"NEAR HOME SAW 30");
 461:.\main.c      ****                 CyDelay(300);
 462:.\main.c      ****                 select_right();
 463:.\main.c      ****                 ir_result = get_ir_val();
 464:.\main.c      ****                 POS_PRINTF(1,0,"ir%d", ir_result);
 465:.\main.c      ****                 
 466:.\main.c      ****                 if (within_range(57, ir_result, 65)){
 467:.\main.c      ****                     go_forward(1500, 255);
 468:.\main.c      ****                     set_heading(0);
 469:.\main.c      ****                     rotate_degrees(0);
 470:.\main.c      ****                     state = S_CENTERED_ON_BASE;
 471:.\main.c      ****                     break;
 472:.\main.c      ****                 }
 473:.\main.c      ****                 go_forward(400, 255);
 474:.\main.c      ****                 break;
 475:.\main.c      ****                 
 476:.\main.c      ****             case S_NEAR_HOME_FIND_60:
 477:.\main.c      ****                 POS_PRINTF(0,0,"NEAR HOME FIND 60");
 478:.\main.c      ****                 //while (!but0_b){;}but0_b = 0;
 479:.\main.c      ****                 CyDelay(500);
 480:.\main.c      ****                 select_right();
 481:.\main.c      ****                 ir_result = get_ir_val();
 482:.\main.c      ****                 POS_PRINTF(1,0,"ir%d", ir_result);
 483:.\main.c      ****                 //while (!but0_b){;}but0_b = 0;
 484:.\main.c      ****                 if (within_range(57, ir_result, 65)){
 485:.\main.c      ****                     set_heading(0);
 486:.\main.c      ****                     rotate_degrees(0);
 487:.\main.c      ****                     state = S_CENTERED_ON_BASE;
 488:.\main.c      ****                     break;
 489:.\main.c      ****                 } else if (within_range(27, ir_result, 33)){
 490:.\main.c      ****                     state = S_NEAR_HOME_SAW_30;
 491:.\main.c      ****                     break;
 492:.\main.c      ****                 }
 493:.\main.c      ****                 
 494:.\main.c      ****                 go_backward(250, 255);
 495:.\main.c      ****                 break;
 496:.\main.c      ****                 
 497:.\main.c      ****             case S_CENTERED_ON_BASE:
 498:.\main.c      ****                 POS_PRINTF(0,0,"CENTERED ON BASE");
 499:.\main.c      ****                 arm_inbetween_level(0,1);
 500:.\main.c      ****                 CyDelay(200);
 501:.\main.c      ****                 arm_set_level(0);
 502:.\main.c      ****                 CyDelay(200);
ARM GAS  C:\Users\xavieran\AppData\Local\Temp\ccI2E9GN.s 			page 17


 503:.\main.c      ****                 drop_puck();
 504:.\main.c      ****                 go_forward(300, 255);
 505:.\main.c      ****                 pickup_puck();
 506:.\main.c      ****                 CyDelay(200);
 507:.\main.c      ****                 
 508:.\main.c      ****                 arm_set_level(4);
 509:.\main.c      ****                 
 510:.\main.c      ****                 while (get_mean_ultra() > 24){
 511:.\main.c      ****                     go_forward(500, 255);
 512:.\main.c      ****                     CyDelay(300);
 513:.\main.c      ****                 }
 514:.\main.c      ****                 int ultra = get_mean_ultra();
 515:.\main.c      ****                 int stackable = 0;
 516:.\main.c      ****                 while (!within_range(14,ultra,15) && !stackable){
 517:.\main.c      ****                     ultra = get_mean_ultra();
 518:.\main.c      ****                     POS_PRINTF(1,0,"ULTRA: %d", ultra);
 519:.\main.c      ****                     if (ultra > 15){
 520:.\main.c      ****                         go_forward(250, 200);
 521:.\main.c      ****                         rotate_degrees(0);
 522:.\main.c      ****                         CyDelay(300);
 523:.\main.c      ****                     } else if (ultra < 14){
 524:.\main.c      ****                         go_backward(200,200);
 525:.\main.c      ****                         rotate_degrees(0);
 526:.\main.c      ****                         CyDelay(300);
 527:.\main.c      ****                     } else if (ultra == 14){
 528:.\main.c      ****                         stackable = 1;
 529:.\main.c      ****                     }
 530:.\main.c      ****                 }
 531:.\main.c      ****                 
 532:.\main.c      ****                 STALL_SPEED = BASE_STALL_SPEED;
 533:.\main.c      ****                 
 534:.\main.c      ****                 rotate_left(200);
 535:.\main.c      ****                 CyDelay(400);
 536:.\main.c      ****                 
 537:.\main.c      ****                 set_heading(270);
 538:.\main.c      ****                 rotate_degrees(0);
 539:.\main.c      ****                 
 540:.\main.c      ****                 state = S_PLACE_PUCK;
 541:.\main.c      ****                 break;
 542:.\main.c      ****                 
 543:.\main.c      ****             case S_PLACE_PUCK:
 544:.\main.c      ****                 POS_PRINTF(0,0,"PLACING PUCK");
 545:.\main.c      ****                 //FIRST PUCK EVER!
 546:.\main.c      ****                 HEADING_ERROR_LIMIT = 1;
 547:.\main.c      ****                 if (pucks_gotten == 1){
 548:.\main.c      ****                     for (i = 0; i < 3; i++){
 549:.\main.c      ****                         go_forward(500, 200);
 550:.\main.c      ****                         CyDelay(600);
 551:.\main.c      ****                     }
 552:.\main.c      ****                     CyDelay(300);
 553:.\main.c      ****                     set_heading(270);
 554:.\main.c      ****                     rotate_degrees(0);
 555:.\main.c      ****                     arm_inbetween_level(0,1);
 556:.\main.c      ****                     CyDelay(300);
 557:.\main.c      ****                     drop_puck();
 558:.\main.c      ****                     CyDelay(200);
 559:.\main.c      ****                     go_backward(1400, 255);
ARM GAS  C:\Users\xavieran\AppData\Local\Temp\ccI2E9GN.s 			page 18


 560:.\main.c      ****                 } else {
 561:.\main.c      ****                     arm_set_level(pucks_gotten + 1);
 562:.\main.c      ****                     //go_forward(500, 200);
 563:.\main.c      ****                     
 564:.\main.c      ****                     int on_stack = 0;
 565:.\main.c      ****                     while (!on_stack){
 566:.\main.c      ****                         POS_PRINTF(0,0,"STACKING!");
 567:.\main.c      ****                         POS_PRINTF(1, 0, "B%d SU%d", beam_broken(), get_mean_ultra_s());
 568:.\main.c      ****                         if (beam_broken()){
 569:.\main.c      ****                             POS_PRINTF(0,0,"BEAM BROKEN");
 570:.\main.c      ****                             on_stack = 1;
 571:.\main.c      ****                         } else if (get_mean_ultra_s() < 12){
 572:.\main.c      ****                             POS_PRINTF(0,0,"Close to stack");
 573:.\main.c      ****                             go_backward(200, 255);
 574:.\main.c      ****                             on_stack = 1;
 575:.\main.c      ****                         } else if (get_mean_ultra_s() > 17) {
 576:.\main.c      ****                             POS_PRINTF(0,0,"FAR FROM STACK");
 577:.\main.c      ****                             go_forward(300, 255);
 578:.\main.c      ****                         } else {
 579:.\main.c      ****                             POS_PRINTF(0,0,"between 12 and 17");
 580:.\main.c      ****                             go_forward(200, 255);
 581:.\main.c      ****                         }
 582:.\main.c      ****                         CyDelay(300);
 583:.\main.c      ****                     }
 584:.\main.c      ****                     
 585:.\main.c      ****                     #define LEVEL_1_DIST 14
 586:.\main.c      ****                     #define LEVEL_2_DIST 15
 587:.\main.c      ****                     #define LEVEL_3_DIST 16
 588:.\main.c      ****                     
 589:.\main.c      ****                     int ultra = get_mean_ultra_s();
 590:.\main.c      ****                     int stackable = 0;
 591:.\main.c      ****                     switch (pucks_gotten){
 592:.\main.c      ****                         case 2:
 593:.\main.c      ****                             while (!within_range(LEVEL_1_DIST,ultra,LEVEL_1_DIST + 1) && !stackable
 594:.\main.c      ****                                 ultra = get_mean_ultra_s();
 595:.\main.c      ****                                 POS_PRINTF(1,0,"ULTRA: %d", ultra);
 596:.\main.c      ****                                 if (ultra > LEVEL_1_DIST + 1){
 597:.\main.c      ****                                     go_forward(300, 140);
 598:.\main.c      ****                                     rotate_degrees(0);
 599:.\main.c      ****                                     CyDelay(300);
 600:.\main.c      ****                                 } else if (ultra < LEVEL_1_DIST){
 601:.\main.c      ****                                     go_backward(140,140);
 602:.\main.c      ****                                     rotate_degrees(0);
 603:.\main.c      ****                                     CyDelay(300);
 604:.\main.c      ****                                 } else if (ultra == LEVEL_1_DIST){
 605:.\main.c      ****                                     stackable = 1;
 606:.\main.c      ****                                 }
 607:.\main.c      ****                             }
 608:.\main.c      ****                             break;   
 609:.\main.c      ****                         case 3:
 610:.\main.c      ****                             while (!within_range(LEVEL_2_DIST,ultra,LEVEL_2_DIST+1) && !stackable){
 611:.\main.c      ****                                 ultra = get_mean_ultra_s();
 612:.\main.c      ****                                 POS_PRINTF(1,0,"ULTRA: %d", ultra);
 613:.\main.c      ****                                 if (ultra > LEVEL_2_DIST + 1){
 614:.\main.c      ****                                     go_forward(300, 140);
 615:.\main.c      ****                                     rotate_degrees(0);
 616:.\main.c      ****                                     CyDelay(300);
ARM GAS  C:\Users\xavieran\AppData\Local\Temp\ccI2E9GN.s 			page 19


 617:.\main.c      ****                                 } else if (ultra < LEVEL_2_DIST){
 618:.\main.c      ****                                     go_backward(140,140);
 619:.\main.c      ****                                     rotate_degrees(0);
 620:.\main.c      ****                                     CyDelay(300);
 621:.\main.c      ****                                 } else if (ultra == LEVEL_2_DIST){
 622:.\main.c      ****                                     stackable = 1;
 623:.\main.c      ****                                 }
 624:.\main.c      ****                             }
 625:.\main.c      ****                             break;
 626:.\main.c      ****                         case 4:
 627:.\main.c      ****                             while (!within_range(LEVEL_3_DIST,ultra,LEVEL_3_DIST+10) && !stackable)
 628:.\main.c      ****                                 ultra = get_mean_ultra_s();
 629:.\main.c      ****                                 POS_PRINTF(1,0,"ULTRA: %d", ultra);
 630:.\main.c      ****                                 if (ultra > LEVEL_3_DIST + 1){
 631:.\main.c      ****                                     go_forward(300, 140);
 632:.\main.c      ****                                     rotate_degrees(0);
 633:.\main.c      ****                                     CyDelay(300);
 634:.\main.c      ****                                 } else if (ultra < LEVEL_3_DIST){
 635:.\main.c      ****                                     go_backward(140,140);
 636:.\main.c      ****                                     rotate_degrees(0);
 637:.\main.c      ****                                     CyDelay(300);
 638:.\main.c      ****                                 } else if (ultra == LEVEL_3_DIST){
 639:.\main.c      ****                                     stackable = 1;
 640:.\main.c      ****                                 }
 641:.\main.c      ****                             }
 642:.\main.c      ****                             break;
 643:.\main.c      ****                     }
 644:.\main.c      ****                     arm_inbetween_level(pucks_gotten - 1, pucks_gotten);
 645:.\main.c      ****                     CyDelay(800);
 646:.\main.c      ****                     drop_puck();
 647:.\main.c      ****                     CyDelay(200);
 648:.\main.c      ****                     go_backward(1400, 255);
 649:.\main.c      ****                     arm_carry_home();
 650:.\main.c      ****                     arm_set_level(0);
 651:.\main.c      ****                     CyDelay(200);
 652:.\main.c      ****                 }
 653:.\main.c      ****                 
 654:.\main.c      ****                 HEADING_ERROR_LIMIT = 3;
 655:.\main.c      ****                 set_heading(0);
 656:.\main.c      ****                 rotate_degrees(0);
 657:.\main.c      ****                 go_backward(1500, 255);
 658:.\main.c      ****                 
 659:.\main.c      ****                 if (pucks_gotten == 4){
 660:.\main.c      ****                     state = S_GRAB_BEACON;
 661:.\main.c      ****                 } else {
 662:.\main.c      ****                     state = S_LEAVE_BASE;
 663:.\main.c      ****                 }
 664:.\main.c      ****                 break;
 665:.\main.c      ****                     
 666:.\main.c      ****             case S_GRAB_BEACON:
 667:.\main.c      ****                 POS_PRINTF(0,0,"GOT HOME");
 668:.\main.c      ****                 set_heading(0);
 669:.\main.c      ****                 rotate_degrees(0);
 670:.\main.c      ****                 arm_set_level(6);
 671:.\main.c      ****                 go_forward(500, 255);
 672:.\main.c      ****                 pickup_angled_puck();
 673:.\main.c      ****                 break;
ARM GAS  C:\Users\xavieran\AppData\Local\Temp\ccI2E9GN.s 			page 20


 674:.\main.c      ****             case S_GOT_HOME:
 675:.\main.c      ****                 POS_PRINTF(0,0,"VICTORY!!!");
 676:.\main.c      ****                 break;
 677:.\main.c      ****         }
 678:.\main.c      ****         
 679:.\main.c      ****         /*
 680:.\main.c      ****         LCD_ClearDisplay();
 681:.\main.c      ****         sprintf(outString, "u %d ic %d", ultra_distance, ir_result);
 682:.\main.c      ****         LCD_PosPrintString(0,0,outString);
 683:.\main.c      ****         sprintf(outString, "s%d c%d vu %d", state, compass_heading, get_var_ultra());
 684:.\main.c      ****         LCD_PosPrintString(1,0,outString);
 685:.\main.c      ****         CyDelay(50);*/
 686:.\main.c      ****     }
 330              		.loc 1 686 0
 331 0080 00BF     		nop
 332              	.L106:
 200:.\main.c      ****         switch(state){
 333              		.loc 1 200 0
 334 0082 B7F84E30 		ldrh	r3, [r7, #78]
 335 0086 0E2B     		cmp	r3, #14
 336 0088 FAD8     		bhi	.L107
 337 008a 01A2     		adr	r2, .L13
 338 008c 52F823F0 		ldr	pc, [r2, r3, lsl #2]
 339              		.p2align 2
 340              	.L13:
 341 0090 CD000000 		.word	.L12+1
 342 0094 BF010000 		.word	.L14+1
 343 0098 EB010000 		.word	.L15+1
 344 009c 37020000 		.word	.L16+1
 345 00a0 73050000 		.word	.L17+1
 346 00a4 51050000 		.word	.L18+1
 347 00a8 290F0000 		.word	.L19+1
 348 00ac 81000000 		.word	.L107+1
 349 00b0 DB050000 		.word	.L20+1
 350 00b4 79070000 		.word	.L21+1
 351 00b8 25090000 		.word	.L22+1
 352 00bc BB090000 		.word	.L23+1
 353 00c0 0D0B0000 		.word	.L24+1
 354 00c4 9D080000 		.word	.L25+1
 355 00c8 EF0E0000 		.word	.L26+1
 356              		.p2align 1
 357              	.L12:
 358              	.LBB2:
 202:.\main.c      ****                 pickup_angled_puck();
 359              		.loc 1 202 0
 360 00cc FFF7FEFF 		bl	pickup_angled_puck
 203:.\main.c      ****                 CyDelay(500);
 361              		.loc 1 203 0
 362 00d0 4FF4FA70 		mov	r0, #500
 363 00d4 FFF7FEFF 		bl	CyDelay
 204:.\main.c      ****                 arm_set_level(6);
 364              		.loc 1 204 0
 365 00d8 0620     		movs	r0, #6
 366 00da FFF7FEFF 		bl	arm_set_level
 205:.\main.c      ****                 CyDelay(1000);
 367              		.loc 1 205 0
 368 00de 4FF47A70 		mov	r0, #1000
ARM GAS  C:\Users\xavieran\AppData\Local\Temp\ccI2E9GN.s 			page 21


 369 00e2 FFF7FEFF 		bl	CyDelay
 206:.\main.c      ****                 go_forward(1600, 200);
 370              		.loc 1 206 0
 371 00e6 4FF4C860 		mov	r0, #1600
 372 00ea C821     		movs	r1, #200
 373 00ec FFF7FEFF 		bl	go_forward
 207:.\main.c      ****                 CyDelay(300);
 374              		.loc 1 207 0
 375 00f0 4FF49670 		mov	r0, #300
 376 00f4 FFF7FEFF 		bl	CyDelay
 208:.\main.c      ****                 pickup_puck();
 377              		.loc 1 208 0
 378 00f8 FFF7FEFF 		bl	pickup_puck
 209:.\main.c      ****                 CyDelay(500);
 379              		.loc 1 209 0
 380 00fc 4FF4FA70 		mov	r0, #500
 381 0100 FFF7FEFF 		bl	CyDelay
 210:.\main.c      ****                 drop_puck();
 382              		.loc 1 210 0
 383 0104 FFF7FEFF 		bl	drop_puck
 211:.\main.c      ****                 CyDelay(500);
 384              		.loc 1 211 0
 385 0108 4FF4FA70 		mov	r0, #500
 386 010c FFF7FEFF 		bl	CyDelay
 212:.\main.c      ****                 go_backward_ultra(10, 180);
 387              		.loc 1 212 0
 388 0110 0A20     		movs	r0, #10
 389 0112 B421     		movs	r1, #180
 390 0114 FFF7FEFF 		bl	go_backward_ultra
 213:.\main.c      ****                 POS_PRINTF(0,0,"DROPPED BEACON");
 391              		.loc 1 213 0
 392 0118 954A     		ldr	r2, .L111+12
 393 011a 964B     		ldr	r3, .L111+16
 394 011c 1446     		mov	r4, r2
 395 011e 0FCB     		ldmia	r3, {r0, r1, r2, r3}
 396 0120 07C4     		stmia	r4!, {r0, r1, r2}
 397 0122 2380     		strh	r3, [r4]	@ movhi
 398 0124 0234     		adds	r4, r4, #2
 399 0126 1B0C     		lsrs	r3, r3, #16
 400 0128 2370     		strb	r3, [r4]
 401 012a 0020     		movs	r0, #0
 402 012c 0021     		movs	r1, #0
 403 012e FFF7FEFF 		bl	LCD_Position
 404 0132 8F48     		ldr	r0, .L111+12
 405 0134 FFF7FEFF 		bl	LCD_PrintString
 215:.\main.c      ****                 arm_set_level(1);
 406              		.loc 1 215 0
 407 0138 0120     		movs	r0, #1
 408 013a FFF7FEFF 		bl	arm_set_level
 216:.\main.c      ****                 CyDelay(500);
 409              		.loc 1 216 0
 410 013e 4FF4FA70 		mov	r0, #500
 411 0142 FFF7FEFF 		bl	CyDelay
 217:.\main.c      ****                 LCD_PosPrintString(0,0,"STARTING CAM");
 412              		.loc 1 217 0
 413 0146 0020     		movs	r0, #0
 414 0148 0021     		movs	r1, #0
ARM GAS  C:\Users\xavieran\AppData\Local\Temp\ccI2E9GN.s 			page 22


 415 014a FFF7FEFF 		bl	LCD_Position
 416 014e 8A48     		ldr	r0, .L111+20
 417 0150 FFF7FEFF 		bl	LCD_PrintString
 218:.\main.c      ****                 init_camera();
 418              		.loc 1 218 0
 419 0154 FFF7FEFF 		bl	init_camera
 219:.\main.c      ****                 LCD_PosPrintString(0,0, "CAMERA STARTED!!!");
 420              		.loc 1 219 0
 421 0158 0020     		movs	r0, #0
 422 015a 0021     		movs	r1, #0
 423 015c FFF7FEFF 		bl	LCD_Position
 424 0160 8648     		ldr	r0, .L111+24
 425 0162 FFF7FEFF 		bl	LCD_PrintString
 220:.\main.c      ****                 arm_inbetween_level(0,1);
 426              		.loc 1 220 0
 427 0166 0020     		movs	r0, #0
 428 0168 0121     		movs	r1, #1
 429 016a FFF7FEFF 		bl	arm_inbetween_level
 221:.\main.c      ****                 CyDelay(500);
 430              		.loc 1 221 0
 431 016e 4FF4FA70 		mov	r0, #500
 432 0172 FFF7FEFF 		bl	CyDelay
 222:.\main.c      ****                 set_gain_exposure(2);
 433              		.loc 1 222 0
 434 0176 0220     		movs	r0, #2
 435 0178 FFF7FEFF 		bl	set_gain_exposure
 223:.\main.c      ****                 capture_thresh_image();
 436              		.loc 1 223 0
 437 017c FFF7FEFF 		bl	capture_thresh_image
 224:.\main.c      ****                 sideways_instruction_read();
 438              		.loc 1 224 0
 439 0180 FFF7FEFF 		bl	sideways_instruction_read
 225:.\main.c      ****                 set_gain_exposure(1);
 440              		.loc 1 225 0
 441 0184 0120     		movs	r0, #1
 442 0186 FFF7FEFF 		bl	set_gain_exposure
 226:.\main.c      ****                 POS_PRINTF(1,0,"%d %d %d %d", stack[3], stack[2], stack[1], stack[0]);
 443              		.loc 1 226 0
 444 018a 7D4B     		ldr	r3, .L111+28
 445 018c DA68     		ldr	r2, [r3, #12]
 446 018e 7C4B     		ldr	r3, .L111+28
 447 0190 9B68     		ldr	r3, [r3, #8]
 448 0192 7B49     		ldr	r1, .L111+28
 449 0194 4868     		ldr	r0, [r1, #4]
 450 0196 7A49     		ldr	r1, .L111+28
 451 0198 0968     		ldr	r1, [r1]
 452 019a 0090     		str	r0, [sp]
 453 019c 0191     		str	r1, [sp, #4]
 454 019e 7448     		ldr	r0, .L111+12
 455 01a0 7849     		ldr	r1, .L111+32
 456 01a2 FFF7FEFF 		bl	sprintf
 457 01a6 0120     		movs	r0, #1
 458 01a8 0021     		movs	r1, #0
 459 01aa FFF7FEFF 		bl	LCD_Position
 460 01ae 7048     		ldr	r0, .L111+12
 461 01b0 FFF7FEFF 		bl	LCD_PrintString
 227:.\main.c      ****                 state = S_LEAVE_BASE;
ARM GAS  C:\Users\xavieran\AppData\Local\Temp\ccI2E9GN.s 			page 23


 462              		.loc 1 227 0
 463 01b4 0123     		movs	r3, #1
 464 01b6 A7F84E30 		strh	r3, [r7, #78]	@ movhi
 228:.\main.c      ****                 break;
 465              		.loc 1 228 0
 466 01ba 00F0C5BE 		b	.L11
 467              	.L14:
 231:.\main.c      ****                 arm_set_level(0);
 468              		.loc 1 231 0
 469 01be 0020     		movs	r0, #0
 470 01c0 FFF7FEFF 		bl	arm_set_level
 232:.\main.c      ****                 go_backward_ultra(60, 255);
 471              		.loc 1 232 0
 472 01c4 3C20     		movs	r0, #60
 473 01c6 FF21     		movs	r1, #255
 474 01c8 FFF7FEFF 		bl	go_backward_ultra
 233:.\main.c      ****                 state = S_LEFT_BASE;
 475              		.loc 1 233 0
 476 01cc 0223     		movs	r3, #2
 477 01ce A7F84E30 		strh	r3, [r7, #78]	@ movhi
 234:.\main.c      ****                 current_color = stack[(4 - pucks_gotten) - 1];
 478              		.loc 1 234 0
 479 01d2 BB6C     		ldr	r3, [r7, #72]
 480 01d4 C3F10302 		rsb	r2, r3, #3
 481 01d8 694B     		ldr	r3, .L111+28
 482 01da 53F82230 		ldr	r3, [r3, r2, lsl #2]
 483 01de 7B64     		str	r3, [r7, #68]
 235:.\main.c      ****                 STALL_SPEED = ARENA_STALL_SPEED;
 484              		.loc 1 235 0
 485 01e0 694B     		ldr	r3, .L111+36
 486 01e2 8C22     		movs	r2, #140
 487 01e4 1A70     		strb	r2, [r3]
 236:.\main.c      ****                 break;
 488              		.loc 1 236 0
 489 01e6 00F0AFBE 		b	.L11
 490              	.L15:
 238:.\main.c      ****                 set_heading(90);
 491              		.loc 1 238 0
 492 01ea 5A20     		movs	r0, #90
 493 01ec FFF7FEFF 		bl	set_heading
 239:.\main.c      ****                 rotate_degrees(0);
 494              		.loc 1 239 0
 495 01f0 0020     		movs	r0, #0
 496 01f2 FFF7FEFF 		bl	rotate_degrees
 240:.\main.c      ****                 CyDelay(500);
 497              		.loc 1 240 0
 498 01f6 4FF4FA70 		mov	r0, #500
 499 01fa FFF7FEFF 		bl	CyDelay
 241:.\main.c      ****                 go_backward(1400, 255);
 500              		.loc 1 241 0
 501 01fe 4FF4AF60 		mov	r0, #1400
 502 0202 FF21     		movs	r1, #255
 503 0204 FFF7FEFF 		bl	go_backward
 242:.\main.c      ****                 CyDelay(500);
 504              		.loc 1 242 0
 505 0208 4FF4FA70 		mov	r0, #500
 506 020c FFF7FEFF 		bl	CyDelay
ARM GAS  C:\Users\xavieran\AppData\Local\Temp\ccI2E9GN.s 			page 24


 243:.\main.c      ****                 set_heading(180);
 507              		.loc 1 243 0
 508 0210 B420     		movs	r0, #180
 509 0212 FFF7FEFF 		bl	set_heading
 244:.\main.c      ****                 rotate_degrees(0);
 510              		.loc 1 244 0
 511 0216 0020     		movs	r0, #0
 512 0218 FFF7FEFF 		bl	rotate_degrees
 245:.\main.c      ****                 CyDelay(500);
 513              		.loc 1 245 0
 514 021c 4FF4FA70 		mov	r0, #500
 515 0220 FFF7FEFF 		bl	CyDelay
 246:.\main.c      ****                 start_time_find_puck = Timer_ReadCounter();
 516              		.loc 1 246 0
 517 0224 FFF7FEFF 		bl	Timer_ReadCounter
 518 0228 0346     		mov	r3, r0
 519 022a FB60     		str	r3, [r7, #12]
 247:.\main.c      ****                 state = S_FIND_PUCK;
 520              		.loc 1 247 0
 521 022c 0323     		movs	r3, #3
 522 022e A7F84E30 		strh	r3, [r7, #78]	@ movhi
 248:.\main.c      ****                 break;
 523              		.loc 1 248 0
 524 0232 00F089BE 		b	.L11
 525              	.L16:
 250:.\main.c      ****                 POS_PRINTF(1,0,"FIND %d of %d", current_color, pucks_gotten);
 526              		.loc 1 250 0
 527 0236 4E48     		ldr	r0, .L111+12
 528 0238 5449     		ldr	r1, .L111+40
 529 023a 7A6C     		ldr	r2, [r7, #68]
 530 023c BB6C     		ldr	r3, [r7, #72]
 531 023e FFF7FEFF 		bl	sprintf
 532 0242 0120     		movs	r0, #1
 533 0244 0021     		movs	r1, #0
 534 0246 FFF7FEFF 		bl	LCD_Position
 535 024a 4948     		ldr	r0, .L111+12
 536 024c FFF7FEFF 		bl	LCD_PrintString
 256:.\main.c      ****                 CyDelay(300);
 537              		.loc 1 256 0
 538 0250 4FF49670 		mov	r0, #300
 539 0254 FFF7FEFF 		bl	CyDelay
 257:.\main.c      ****                 capture_thresh_image();
 540              		.loc 1 257 0
 541 0258 FFF7FEFF 		bl	capture_thresh_image
 258:.\main.c      ****                 int pucks = to_nearest_blob(current_color, 30, 10);
 542              		.loc 1 258 0
 543 025c 786C     		ldr	r0, [r7, #68]
 544 025e 1E21     		movs	r1, #30
 545 0260 0A22     		movs	r2, #10
 546 0262 FFF7FEFF 		bl	to_nearest_blob
 547 0266 3863     		str	r0, [r7, #48]
 260:.\main.c      ****                 if (pucks == 0){
 548              		.loc 1 260 0
 549 0268 3B6B     		ldr	r3, [r7, #48]
 550 026a 002B     		cmp	r3, #0
 551 026c 40F09280 		bne	.L27
 261:.\main.c      ****                     twitching = 0;
ARM GAS  C:\Users\xavieran\AppData\Local\Temp\ccI2E9GN.s 			page 25


 552              		.loc 1 261 0
 553 0270 0023     		movs	r3, #0
 554 0272 BB63     		str	r3, [r7, #56]
 263:.\main.c      ****                     go_forward(1000, 255);
 555              		.loc 1 263 0
 556 0274 4FF47A70 		mov	r0, #1000
 557 0278 FF21     		movs	r1, #255
 558 027a FFF7FEFF 		bl	go_forward
 264:.\main.c      ****                     if (beam_broken()){
 559              		.loc 1 264 0
 560 027e FFF7FEFF 		bl	beam_broken
 561 0282 0346     		mov	r3, r0
 562 0284 002B     		cmp	r3, #0
 563 0286 6CD0     		beq	.L28
 564              	.LBB3:
 265:.\main.c      ****                         go_forward(300, 255);
 565              		.loc 1 265 0
 566 0288 4FF49670 		mov	r0, #300
 567 028c FF21     		movs	r1, #255
 568 028e FFF7FEFF 		bl	go_forward
 266:.\main.c      ****                         pickup_puck();
 569              		.loc 1 266 0
 570 0292 FFF7FEFF 		bl	pickup_puck
 267:.\main.c      ****                         CyDelay(100);
 571              		.loc 1 267 0
 572 0296 6420     		movs	r0, #100
 573 0298 FFF7FEFF 		bl	CyDelay
 268:.\main.c      ****                         int old_heading = compass_heading;
 574              		.loc 1 268 0
 575 029c 324B     		ldr	r3, .L111+4
 576 029e 1B88     		ldrh	r3, [r3]
 577 02a0 1BB2     		sxth	r3, r3
 578 02a2 BB60     		str	r3, [r7, #8]
 270:.\main.c      ****                         arm_carry_home();
 579              		.loc 1 270 0
 580 02a4 FFF7FEFF 		bl	arm_carry_home
 271:.\main.c      ****                         set_heading(90);
 581              		.loc 1 271 0
 582 02a8 5A20     		movs	r0, #90
 583 02aa FFF7FEFF 		bl	set_heading
 272:.\main.c      ****                         rotate_degrees(0);
 584              		.loc 1 272 0
 585 02ae 0020     		movs	r0, #0
 586 02b0 FFF7FEFF 		bl	rotate_degrees
 273:.\main.c      ****                         arm_set_level(0);
 587              		.loc 1 273 0
 588 02b4 0020     		movs	r0, #0
 589 02b6 FFF7FEFF 		bl	arm_set_level
 274:.\main.c      ****                         CyDelay(300);
 590              		.loc 1 274 0
 591 02ba 4FF49670 		mov	r0, #300
 592 02be FFF7FEFF 		bl	CyDelay
 275:.\main.c      ****                         set_gain_exposure(2);
 593              		.loc 1 275 0
 594 02c2 0220     		movs	r0, #2
 595 02c4 FFF7FEFF 		bl	set_gain_exposure
 276:.\main.c      ****                         capture_thresh_image();
ARM GAS  C:\Users\xavieran\AppData\Local\Temp\ccI2E9GN.s 			page 26


 596              		.loc 1 276 0
 597 02c8 FFF7FEFF 		bl	capture_thresh_image
 277:.\main.c      ****                         int color = identify_colour_gripper();
 598              		.loc 1 277 0
 599 02cc FFF7FEFF 		bl	identify_colour_gripper
 600 02d0 7860     		str	r0, [r7, #4]
 278:.\main.c      ****                         set_gain_exposure(1);
 601              		.loc 1 278 0
 602 02d2 0120     		movs	r0, #1
 603 02d4 FFF7FEFF 		bl	set_gain_exposure
 279:.\main.c      ****                         POS_PRINTF(0,0,"SEE C: %d", color);
 604              		.loc 1 279 0
 605 02d8 2548     		ldr	r0, .L111+12
 606 02da 2D49     		ldr	r1, .L111+44
 607 02dc 7A68     		ldr	r2, [r7, #4]
 608 02de FFF7FEFF 		bl	sprintf
 609 02e2 0020     		movs	r0, #0
 610 02e4 0021     		movs	r1, #0
 611 02e6 FFF7FEFF 		bl	LCD_Position
 612 02ea 2148     		ldr	r0, .L111+12
 613 02ec FFF7FEFF 		bl	LCD_PrintString
 280:.\main.c      ****                         if (color != current_color){
 614              		.loc 1 280 0
 615 02f0 7A68     		ldr	r2, [r7, #4]
 616 02f2 7B6C     		ldr	r3, [r7, #68]
 617 02f4 9A42     		cmp	r2, r3
 618 02f6 1BD0     		beq	.L29
 281:.\main.c      ****                             go_forward(500, 255);
 619              		.loc 1 281 0
 620 02f8 4FF4FA70 		mov	r0, #500
 621 02fc FF21     		movs	r1, #255
 622 02fe FFF7FEFF 		bl	go_forward
 282:.\main.c      ****                             drop_puck();
 623              		.loc 1 282 0
 624 0302 FFF7FEFF 		bl	drop_puck
 283:.\main.c      ****                             go_backward(500, 255);
 625              		.loc 1 283 0
 626 0306 4FF4FA70 		mov	r0, #500
 627 030a FF21     		movs	r1, #255
 628 030c FFF7FEFF 		bl	go_backward
 284:.\main.c      ****                             arm_set_level(0);
 629              		.loc 1 284 0
 630 0310 0020     		movs	r0, #0
 631 0312 FFF7FEFF 		bl	arm_set_level
 285:.\main.c      ****                             CyDelay(100);
 632              		.loc 1 285 0
 633 0316 6420     		movs	r0, #100
 634 0318 FFF7FEFF 		bl	CyDelay
 286:.\main.c      ****                             set_heading(old_heading);
 635              		.loc 1 286 0
 636 031c BB68     		ldr	r3, [r7, #8]
 637 031e 9BB2     		uxth	r3, r3
 638 0320 1BB2     		sxth	r3, r3
 639 0322 1846     		mov	r0, r3
 640 0324 FFF7FEFF 		bl	set_heading
 287:.\main.c      ****                             rotate_degrees(0);
 641              		.loc 1 287 0
ARM GAS  C:\Users\xavieran\AppData\Local\Temp\ccI2E9GN.s 			page 27


 642 0328 0020     		movs	r0, #0
 643 032a FFF7FEFF 		bl	rotate_degrees
 644 032e 18E0     		b	.L28
 645              	.L29:
 289:.\main.c      ****                             arm_carry_home();
 646              		.loc 1 289 0
 647 0330 FFF7FEFF 		bl	arm_carry_home
 290:.\main.c      ****                             set_heading(180);
 648              		.loc 1 290 0
 649 0334 B420     		movs	r0, #180
 650 0336 FFF7FEFF 		bl	set_heading
 291:.\main.c      ****                             rotate_degrees(0);
 651              		.loc 1 291 0
 652 033a 0020     		movs	r0, #0
 653 033c FFF7FEFF 		bl	rotate_degrees
 292:.\main.c      ****                             go_backward(1500, 255);
 654              		.loc 1 292 0
 655 0340 40F2DC50 		movw	r0, #1500
 656 0344 FF21     		movs	r1, #255
 657 0346 FFF7FEFF 		bl	go_backward
 293:.\main.c      ****                             pucks_gotten++;
 658              		.loc 1 293 0
 659 034a BB6C     		ldr	r3, [r7, #72]
 660 034c 0133     		adds	r3, r3, #1
 661 034e BB64     		str	r3, [r7, #72]
 294:.\main.c      ****                             start_time_find_puck = Timer_ReadCounter();
 662              		.loc 1 294 0
 663 0350 FFF7FEFF 		bl	Timer_ReadCounter
 664 0354 0346     		mov	r3, r0
 665 0356 FB60     		str	r3, [r7, #12]
 295:.\main.c      ****                             state = S_FACE_HOME;
 666              		.loc 1 295 0
 667 0358 0523     		movs	r3, #5
 668 035a A7F84E30 		strh	r3, [r7, #78]	@ movhi
 296:.\main.c      ****                             break;
 669              		.loc 1 296 0
 670 035e 00F0F3BD 		b	.L11
 671              	.L28:
 672              	.LBE3:
 673 0362 F3E0     		b	.L30
 674              	.L112:
 675              		.align	2
 676              	.L111:
 677 0364 00000000 		.word	compass_ready
 678 0368 00000000 		.word	compass_heading
 679 036c 00000000 		.word	original_compass_heading
 680 0370 00000000 		.word	outString
 681 0374 00000000 		.word	.LC0
 682 0378 10000000 		.word	.LC1
 683 037c 20000000 		.word	.LC2
 684 0380 00000000 		.word	stack
 685 0384 34000000 		.word	.LC3
 686 0388 00000000 		.word	STALL_SPEED
 687 038c 40000000 		.word	.LC4
 688 0390 50000000 		.word	.LC5
 689              	.L27:
 299:.\main.c      ****                 } else if (pucks < 0){
ARM GAS  C:\Users\xavieran\AppData\Local\Temp\ccI2E9GN.s 			page 28


 690              		.loc 1 299 0
 691 0394 3B6B     		ldr	r3, [r7, #48]
 692 0396 002B     		cmp	r3, #0
 693 0398 13DA     		bge	.L31
 300:.\main.c      ****                     if (twitching > 5){
 694              		.loc 1 300 0
 695 039a BB6B     		ldr	r3, [r7, #56]
 696 039c 052B     		cmp	r3, #5
 697 039e 07DD     		ble	.L32
 301:.\main.c      ****                         twitching = 0;
 698              		.loc 1 301 0
 699 03a0 0023     		movs	r3, #0
 700 03a2 BB63     		str	r3, [r7, #56]
 302:.\main.c      ****                         go_forward(500, 255);
 701              		.loc 1 302 0
 702 03a4 4FF4FA70 		mov	r0, #500
 703 03a8 FF21     		movs	r1, #255
 704 03aa FFF7FEFF 		bl	go_forward
 705 03ae CDE0     		b	.L30
 706              	.L32:
 304:.\main.c      ****                         rotate_degrees(-3);
 707              		.loc 1 304 0
 708 03b0 6FF00200 		mvn	r0, #2
 709 03b4 FFF7FEFF 		bl	rotate_degrees
 305:.\main.c      ****                         twitching++;
 710              		.loc 1 305 0
 711 03b8 BB6B     		ldr	r3, [r7, #56]
 712 03ba 0133     		adds	r3, r3, #1
 713 03bc BB63     		str	r3, [r7, #56]
 360:.\main.c      ****                 break;
 714              		.loc 1 360 0
 715 03be 00F0C3BD 		b	.L11
 716              	.L31:
 307:.\main.c      ****                 } else if (pucks > 0){if (twitching > 5){
 717              		.loc 1 307 0
 718 03c2 3B6B     		ldr	r3, [r7, #48]
 719 03c4 002B     		cmp	r3, #0
 720 03c6 12DD     		ble	.L34
 307:.\main.c      ****                 } else if (pucks > 0){if (twitching > 5){
 721              		.loc 1 307 0 is_stmt 0 discriminator 1
 722 03c8 BB6B     		ldr	r3, [r7, #56]
 723 03ca 052B     		cmp	r3, #5
 724 03cc 07DD     		ble	.L35
 308:.\main.c      ****                         twitching = 0;
 725              		.loc 1 308 0 is_stmt 1
 726 03ce 0023     		movs	r3, #0
 727 03d0 BB63     		str	r3, [r7, #56]
 309:.\main.c      ****                         go_forward(500, 255);
 728              		.loc 1 309 0
 729 03d2 4FF4FA70 		mov	r0, #500
 730 03d6 FF21     		movs	r1, #255
 731 03d8 FFF7FEFF 		bl	go_forward
 732 03dc B6E0     		b	.L30
 733              	.L35:
 311:.\main.c      ****                         rotate_degrees(3);
 734              		.loc 1 311 0
 735 03de 0320     		movs	r0, #3
ARM GAS  C:\Users\xavieran\AppData\Local\Temp\ccI2E9GN.s 			page 29


 736 03e0 FFF7FEFF 		bl	rotate_degrees
 312:.\main.c      ****                         twitching++;
 737              		.loc 1 312 0
 738 03e4 BB6B     		ldr	r3, [r7, #56]
 739 03e6 0133     		adds	r3, r3, #1
 740 03e8 BB63     		str	r3, [r7, #56]
 360:.\main.c      ****                 break;
 741              		.loc 1 360 0
 742 03ea 00F0ADBD 		b	.L11
 743              	.L34:
 314:.\main.c      ****                 } else if (pucks == -1){
 744              		.loc 1 314 0
 745 03ee 3B6B     		ldr	r3, [r7, #48]
 746 03f0 B3F1FF3F 		cmp	r3, #-1
 747 03f4 40F0AA80 		bne	.L30
 315:.\main.c      ****                     switch (no_puck_state){
 748              		.loc 1 315 0
 749 03f8 FB6B     		ldr	r3, [r7, #60]
 750 03fa 012B     		cmp	r3, #1
 751 03fc 00F09E80 		beq	.L37
 752 0400 022B     		cmp	r3, #2
 753 0402 50D0     		beq	.L38
 754 0404 002B     		cmp	r3, #0
 755 0406 01D0     		beq	.L39
 360:.\main.c      ****                 break;
 756              		.loc 1 360 0
 757 0408 00F09EBD 		b	.L11
 758              	.L39:
 317:.\main.c      ****                             for (i = 1; i < 8; i++){
 759              		.loc 1 317 0
 760 040c 0123     		movs	r3, #1
 761 040e 7B63     		str	r3, [r7, #52]
 762 0410 38E0     		b	.L40
 763              	.L43:
 318:.\main.c      ****                                 set_heading(180 - i*10);
 764              		.loc 1 318 0
 765 0412 7B6B     		ldr	r3, [r7, #52]
 766 0414 9BB2     		uxth	r3, r3
 767 0416 1A46     		mov	r2, r3	@ movhi
 768 0418 5203     		lsls	r2, r2, #13
 769 041a D21A     		subs	r2, r2, r3
 770 041c 9200     		lsls	r2, r2, #2
 771 041e D31A     		subs	r3, r2, r3
 772 0420 5B00     		lsls	r3, r3, #1
 773 0422 9BB2     		uxth	r3, r3
 774 0424 B433     		adds	r3, r3, #180
 775 0426 9BB2     		uxth	r3, r3
 776 0428 9BB2     		uxth	r3, r3
 777 042a 1BB2     		sxth	r3, r3
 778 042c 1846     		mov	r0, r3
 779 042e FFF7FEFF 		bl	set_heading
 319:.\main.c      ****                                 rotate_degrees(0);
 780              		.loc 1 319 0
 781 0432 0020     		movs	r0, #0
 782 0434 FFF7FEFF 		bl	rotate_degrees
 320:.\main.c      ****                                 POS_PRINTF(0,0,"LEFT to: %d", 180 - i*10);
 783              		.loc 1 320 0
ARM GAS  C:\Users\xavieran\AppData\Local\Temp\ccI2E9GN.s 			page 30


 784 0438 7B6B     		ldr	r3, [r7, #52]
 785 043a 6FF00902 		mvn	r2, #9
 786 043e 02FB03F3 		mul	r3, r2, r3
 787 0442 B433     		adds	r3, r3, #180
 788 0444 AD48     		ldr	r0, .L113
 789 0446 AE49     		ldr	r1, .L113+4
 790 0448 1A46     		mov	r2, r3
 791 044a FFF7FEFF 		bl	sprintf
 792 044e 0020     		movs	r0, #0
 793 0450 0021     		movs	r1, #0
 794 0452 FFF7FEFF 		bl	LCD_Position
 795 0456 A948     		ldr	r0, .L113
 796 0458 FFF7FEFF 		bl	LCD_PrintString
 321:.\main.c      ****                                 CyDelay(500);
 797              		.loc 1 321 0
 798 045c 4FF4FA70 		mov	r0, #500
 799 0460 FFF7FEFF 		bl	CyDelay
 322:.\main.c      ****                                 capture_thresh_image();
 800              		.loc 1 322 0
 801 0464 FFF7FEFF 		bl	capture_thresh_image
 323:.\main.c      ****                                 pucks = to_nearest_blob(current_color, 30, 10);
 802              		.loc 1 323 0
 803 0468 786C     		ldr	r0, [r7, #68]
 804 046a 1E21     		movs	r1, #30
 805 046c 0A22     		movs	r2, #10
 806 046e FFF7FEFF 		bl	to_nearest_blob
 807 0472 3863     		str	r0, [r7, #48]
 324:.\main.c      ****                                 if (pucks != -1){
 808              		.loc 1 324 0
 809 0474 3B6B     		ldr	r3, [r7, #48]
 810 0476 B3F1FF3F 		cmp	r3, #-1
 811 047a 00D0     		beq	.L41
 325:.\main.c      ****                                     break;
 812              		.loc 1 325 0
 813 047c 05E0     		b	.L42
 814              	.L41:
 317:.\main.c      ****                             for (i = 1; i < 8; i++){
 815              		.loc 1 317 0
 816 047e 7B6B     		ldr	r3, [r7, #52]
 817 0480 0133     		adds	r3, r3, #1
 818 0482 7B63     		str	r3, [r7, #52]
 819              	.L40:
 317:.\main.c      ****                             for (i = 1; i < 8; i++){
 820              		.loc 1 317 0 is_stmt 0 discriminator 1
 821 0484 7B6B     		ldr	r3, [r7, #52]
 822 0486 072B     		cmp	r3, #7
 823 0488 C3DD     		ble	.L43
 824              	.L42:
 328:.\main.c      ****                             if (pucks != -1){
 825              		.loc 1 328 0 is_stmt 1
 826 048a 3B6B     		ldr	r3, [r7, #48]
 827 048c B3F1FF3F 		cmp	r3, #-1
 828 0490 00D0     		beq	.L44
 329:.\main.c      ****                                 break;
 829              		.loc 1 329 0
 830 0492 5BE0     		b	.L30
 831              	.L44:
ARM GAS  C:\Users\xavieran\AppData\Local\Temp\ccI2E9GN.s 			page 31


 331:.\main.c      ****                             set_heading(180);
 832              		.loc 1 331 0
 833 0494 B420     		movs	r0, #180
 834 0496 FFF7FEFF 		bl	set_heading
 332:.\main.c      ****                             rotate_degrees(0);
 835              		.loc 1 332 0
 836 049a 0020     		movs	r0, #0
 837 049c FFF7FEFF 		bl	rotate_degrees
 333:.\main.c      ****                             no_puck_state = NP_TURNED_LEFT;
 838              		.loc 1 333 0
 839 04a0 0223     		movs	r3, #2
 840 04a2 FB63     		str	r3, [r7, #60]
 334:.\main.c      ****                             break;
 841              		.loc 1 334 0
 842 04a4 52E0     		b	.L30
 843              	.L38:
 336:.\main.c      ****                             for (i = 1; i < 6; i++){
 844              		.loc 1 336 0
 845 04a6 0123     		movs	r3, #1
 846 04a8 7B63     		str	r3, [r7, #52]
 847 04aa 36E0     		b	.L45
 848              	.L48:
 337:.\main.c      ****                                 set_heading(180 + i*10);
 849              		.loc 1 337 0
 850 04ac 7B6B     		ldr	r3, [r7, #52]
 851 04ae 9BB2     		uxth	r3, r3
 852 04b0 1A46     		mov	r2, r3	@ movhi
 853 04b2 9200     		lsls	r2, r2, #2
 854 04b4 1344     		add	r3, r3, r2
 855 04b6 5B00     		lsls	r3, r3, #1
 856 04b8 9BB2     		uxth	r3, r3
 857 04ba B433     		adds	r3, r3, #180
 858 04bc 9BB2     		uxth	r3, r3
 859 04be 9BB2     		uxth	r3, r3
 860 04c0 1BB2     		sxth	r3, r3
 861 04c2 1846     		mov	r0, r3
 862 04c4 FFF7FEFF 		bl	set_heading
 338:.\main.c      ****                                 rotate_degrees(0);
 863              		.loc 1 338 0
 864 04c8 0020     		movs	r0, #0
 865 04ca FFF7FEFF 		bl	rotate_degrees
 339:.\main.c      ****                                 POS_PRINTF(0,0,"RIGHT to: %d", 180 - i*10);
 866              		.loc 1 339 0
 867 04ce 7B6B     		ldr	r3, [r7, #52]
 868 04d0 6FF00902 		mvn	r2, #9
 869 04d4 02FB03F3 		mul	r3, r2, r3
 870 04d8 B433     		adds	r3, r3, #180
 871 04da 8848     		ldr	r0, .L113
 872 04dc 8949     		ldr	r1, .L113+8
 873 04de 1A46     		mov	r2, r3
 874 04e0 FFF7FEFF 		bl	sprintf
 875 04e4 0020     		movs	r0, #0
 876 04e6 0021     		movs	r1, #0
 877 04e8 FFF7FEFF 		bl	LCD_Position
 878 04ec 8348     		ldr	r0, .L113
 879 04ee FFF7FEFF 		bl	LCD_PrintString
 340:.\main.c      ****                                 CyDelay(500);
ARM GAS  C:\Users\xavieran\AppData\Local\Temp\ccI2E9GN.s 			page 32


 880              		.loc 1 340 0
 881 04f2 4FF4FA70 		mov	r0, #500
 882 04f6 FFF7FEFF 		bl	CyDelay
 341:.\main.c      ****                                 capture_thresh_image();
 883              		.loc 1 341 0
 884 04fa FFF7FEFF 		bl	capture_thresh_image
 342:.\main.c      ****                                 pucks = to_nearest_blob(current_color, 30, 10);
 885              		.loc 1 342 0
 886 04fe 786C     		ldr	r0, [r7, #68]
 887 0500 1E21     		movs	r1, #30
 888 0502 0A22     		movs	r2, #10
 889 0504 FFF7FEFF 		bl	to_nearest_blob
 890 0508 3863     		str	r0, [r7, #48]
 343:.\main.c      ****                                 if (pucks != -1){
 891              		.loc 1 343 0
 892 050a 3B6B     		ldr	r3, [r7, #48]
 893 050c B3F1FF3F 		cmp	r3, #-1
 894 0510 00D0     		beq	.L46
 344:.\main.c      ****                                     break;
 895              		.loc 1 344 0
 896 0512 05E0     		b	.L47
 897              	.L46:
 336:.\main.c      ****                             for (i = 1; i < 6; i++){
 898              		.loc 1 336 0
 899 0514 7B6B     		ldr	r3, [r7, #52]
 900 0516 0133     		adds	r3, r3, #1
 901 0518 7B63     		str	r3, [r7, #52]
 902              	.L45:
 336:.\main.c      ****                             for (i = 1; i < 6; i++){
 903              		.loc 1 336 0 is_stmt 0 discriminator 1
 904 051a 7B6B     		ldr	r3, [r7, #52]
 905 051c 052B     		cmp	r3, #5
 906 051e C5DD     		ble	.L48
 907              	.L47:
 347:.\main.c      ****                             if (pucks != -1){
 908              		.loc 1 347 0 is_stmt 1
 909 0520 3B6B     		ldr	r3, [r7, #48]
 910 0522 B3F1FF3F 		cmp	r3, #-1
 911 0526 00D0     		beq	.L49
 348:.\main.c      ****                                 break;
 912              		.loc 1 348 0
 913 0528 10E0     		b	.L30
 914              	.L49:
 350:.\main.c      ****                             set_heading(180);
 915              		.loc 1 350 0
 916 052a B420     		movs	r0, #180
 917 052c FFF7FEFF 		bl	set_heading
 351:.\main.c      ****                             rotate_degrees(0);
 918              		.loc 1 351 0
 919 0530 0020     		movs	r0, #0
 920 0532 FFF7FEFF 		bl	rotate_degrees
 352:.\main.c      ****                             no_puck_state = NP_TURNED_RIGHT;
 921              		.loc 1 352 0
 922 0536 0123     		movs	r3, #1
 923 0538 FB63     		str	r3, [r7, #60]
 353:.\main.c      ****                             break;
 924              		.loc 1 353 0
ARM GAS  C:\Users\xavieran\AppData\Local\Temp\ccI2E9GN.s 			page 33


 925 053a 07E0     		b	.L30
 926              	.L37:
 355:.\main.c      ****                             go_forward(1000, 255);
 927              		.loc 1 355 0
 928 053c 4FF47A70 		mov	r0, #1000
 929 0540 FF21     		movs	r1, #255
 930 0542 FFF7FEFF 		bl	go_forward
 356:.\main.c      ****                             no_puck_state = NP_AHEAD;
 931              		.loc 1 356 0
 932 0546 0023     		movs	r3, #0
 933 0548 FB63     		str	r3, [r7, #60]
 357:.\main.c      ****                             break;
 934              		.loc 1 357 0
 935 054a 00BF     		nop
 936              	.L30:
 360:.\main.c      ****                 break;
 937              		.loc 1 360 0
 938 054c 00F0FCBC 		b	.L11
 939              	.L18:
 362:.\main.c      ****                 set_heading(90);
 940              		.loc 1 362 0
 941 0550 5A20     		movs	r0, #90
 942 0552 FFF7FEFF 		bl	set_heading
 363:.\main.c      ****                 rotate_degrees(0);
 943              		.loc 1 363 0
 944 0556 0020     		movs	r0, #0
 945 0558 FFF7FEFF 		bl	rotate_degrees
 364:.\main.c      ****                 set_heading(0);
 946              		.loc 1 364 0
 947 055c 0020     		movs	r0, #0
 948 055e FFF7FEFF 		bl	set_heading
 365:.\main.c      ****                 rotate_degrees(0);
 949              		.loc 1 365 0
 950 0562 0020     		movs	r0, #0
 951 0564 FFF7FEFF 		bl	rotate_degrees
 366:.\main.c      ****                 state = S_GO_HOME;
 952              		.loc 1 366 0
 953 0568 0423     		movs	r3, #4
 954 056a A7F84E30 		strh	r3, [r7, #78]	@ movhi
 367:.\main.c      ****                 break;
 955              		.loc 1 367 0
 956 056e 00F0EBBC 		b	.L11
 957              	.L17:
 369:.\main.c      ****                 select_front();
 958              		.loc 1 369 0
 959 0572 FFF7FEFF 		bl	select_front
 370:.\main.c      ****                 CyDelay(300);
 960              		.loc 1 370 0
 961 0576 4FF49670 		mov	r0, #300
 962 057a FFF7FEFF 		bl	CyDelay
 371:.\main.c      ****                 ir_result = get_ir_val();
 963              		.loc 1 371 0
 964 057e FFF7FEFF 		bl	get_ir_val
 965 0582 0346     		mov	r3, r0
 966 0584 7B80     		strh	r3, [r7, #2]	@ movhi
 372:.\main.c      ****                 LCD_ClearDisplay();
 967              		.loc 1 372 0
ARM GAS  C:\Users\xavieran\AppData\Local\Temp\ccI2E9GN.s 			page 34


 968 0586 0120     		movs	r0, #1
 969 0588 FFF7FEFF 		bl	LCD_WriteControl
 373:.\main.c      ****                 POS_PRINTF(0,0,"IN GO HOME I:%d U%d", ir_result, get_mean_ultra());
 970              		.loc 1 373 0
 971 058c 7C88     		ldrh	r4, [r7, #2]
 972 058e FFF7FEFF 		bl	get_mean_ultra
 973 0592 0346     		mov	r3, r0
 974 0594 5948     		ldr	r0, .L113
 975 0596 5C49     		ldr	r1, .L113+12
 976 0598 2246     		mov	r2, r4
 977 059a FFF7FEFF 		bl	sprintf
 978 059e 0020     		movs	r0, #0
 979 05a0 0021     		movs	r1, #0
 980 05a2 FFF7FEFF 		bl	LCD_Position
 981 05a6 5548     		ldr	r0, .L113
 982 05a8 FFF7FEFF 		bl	LCD_PrintString
 377:.\main.c      ****                 if (get_mean_ultra() < near_base){ 
 983              		.loc 1 377 0
 984 05ac FFF7FEFF 		bl	get_mean_ultra
 985 05b0 0346     		mov	r3, r0
 986 05b2 1A46     		mov	r2, r3
 987 05b4 3B69     		ldr	r3, [r7, #16]
 988 05b6 9A42     		cmp	r2, r3
 989 05b8 04DA     		bge	.L50
 378:.\main.c      ****                     state = S_NEAR_HOME_FIND_100;
 990              		.loc 1 378 0
 991 05ba 0923     		movs	r3, #9
 992 05bc A7F84E30 		strh	r3, [r7, #78]	@ movhi
 379:.\main.c      ****                     break;
 993              		.loc 1 379 0
 994 05c0 00F0C2BC 		b	.L11
 995              	.L50:
 382:.\main.c      ****                 state = S_GOING_HOME_CHECK_IR;
 996              		.loc 1 382 0
 997 05c4 0823     		movs	r3, #8
 998 05c6 A7F84E30 		strh	r3, [r7, #78]	@ movhi
 383:.\main.c      ****                 set_heading(0);
 999              		.loc 1 383 0
 1000 05ca 0020     		movs	r0, #0
 1001 05cc FFF7FEFF 		bl	set_heading
 384:.\main.c      ****                 rotate_degrees(0);
 1002              		.loc 1 384 0
 1003 05d0 0020     		movs	r0, #0
 1004 05d2 FFF7FEFF 		bl	rotate_degrees
 385:.\main.c      ****                 break;
 1005              		.loc 1 385 0
 1006 05d6 00F0B7BC 		b	.L11
 1007              	.L20:
 389:.\main.c      ****                 POS_PRINTF(0,0,"GOING HOME CHECK IR");
 1008              		.loc 1 389 0
 1009 05da 484A     		ldr	r2, .L113
 1010 05dc 4B4B     		ldr	r3, .L113+16
 1011 05de 1446     		mov	r4, r2
 1012 05e0 1D46     		mov	r5, r3
 1013 05e2 0FCD     		ldmia	r5!, {r0, r1, r2, r3}
 1014 05e4 0FC4     		stmia	r4!, {r0, r1, r2, r3}
 1015 05e6 2B68     		ldr	r3, [r5]
ARM GAS  C:\Users\xavieran\AppData\Local\Temp\ccI2E9GN.s 			page 35


 1016 05e8 2360     		str	r3, [r4]
 1017 05ea 0020     		movs	r0, #0
 1018 05ec 0021     		movs	r1, #0
 1019 05ee FFF7FEFF 		bl	LCD_Position
 1020 05f2 4248     		ldr	r0, .L113
 1021 05f4 FFF7FEFF 		bl	LCD_PrintString
 390:.\main.c      ****                 select_front();
 1022              		.loc 1 390 0
 1023 05f8 FFF7FEFF 		bl	select_front
 391:.\main.c      ****                 ir_result = get_ir_val();
 1024              		.loc 1 391 0
 1025 05fc FFF7FEFF 		bl	get_ir_val
 1026 0600 0346     		mov	r3, r0
 1027 0602 7B80     		strh	r3, [r7, #2]	@ movhi
 392:.\main.c      ****                 POS_PRINTF(1,0,"I %d", ir_result);
 1028              		.loc 1 392 0
 1029 0604 7B88     		ldrh	r3, [r7, #2]
 1030 0606 3D48     		ldr	r0, .L113
 1031 0608 4149     		ldr	r1, .L113+20
 1032 060a 1A46     		mov	r2, r3
 1033 060c FFF7FEFF 		bl	sprintf
 1034 0610 0120     		movs	r0, #1
 1035 0612 0021     		movs	r1, #0
 1036 0614 FFF7FEFF 		bl	LCD_Position
 1037 0618 3848     		ldr	r0, .L113
 1038 061a FFF7FEFF 		bl	LCD_PrintString
 393:.\main.c      ****                 if (ir_result < 10){//IR INVALID
 1039              		.loc 1 393 0
 1040 061e 7B88     		ldrh	r3, [r7, #2]
 1041 0620 092B     		cmp	r3, #9
 1042 0622 05D8     		bhi	.L51
 394:.\main.c      ****                     go_forward(500, 255);
 1043              		.loc 1 394 0
 1044 0624 4FF4FA70 		mov	r0, #500
 1045 0628 FF21     		movs	r1, #255
 1046 062a FFF7FEFF 		bl	go_forward
 1047 062e 8FE0     		b	.L52
 1048              	.L51:
 395:.\main.c      ****                 } else if (within_range(57, ir_result, 60)){
 1049              		.loc 1 395 0
 1050 0630 7B88     		ldrh	r3, [r7, #2]
 1051 0632 3920     		movs	r0, #57
 1052 0634 1946     		mov	r1, r3
 1053 0636 3C22     		movs	r2, #60
 1054 0638 FFF7FEFF 		bl	within_range
 1055 063c 0346     		mov	r3, r0
 1056 063e 002B     		cmp	r3, #0
 1057 0640 1AD0     		beq	.L53
 396:.\main.c      ****                     POS_PRINTF(1,5, "center");
 1058              		.loc 1 396 0
 1059 0642 2E4B     		ldr	r3, .L113
 1060 0644 334A     		ldr	r2, .L113+24
 1061 0646 92E80300 		ldmia	r2, {r0, r1}
 1062 064a 1860     		str	r0, [r3]
 1063 064c 0433     		adds	r3, r3, #4
 1064 064e 1980     		strh	r1, [r3]	@ movhi
 1065 0650 0233     		adds	r3, r3, #2
ARM GAS  C:\Users\xavieran\AppData\Local\Temp\ccI2E9GN.s 			page 36


 1066 0652 0A0C     		lsrs	r2, r1, #16
 1067 0654 1A70     		strb	r2, [r3]
 1068 0656 0120     		movs	r0, #1
 1069 0658 0521     		movs	r1, #5
 1070 065a FFF7FEFF 		bl	LCD_Position
 1071 065e 2748     		ldr	r0, .L113
 1072 0660 FFF7FEFF 		bl	LCD_PrintString
 397:.\main.c      ****                     set_heading(0);
 1073              		.loc 1 397 0
 1074 0664 0020     		movs	r0, #0
 1075 0666 FFF7FEFF 		bl	set_heading
 398:.\main.c      ****                     go_forward(500, 255);
 1076              		.loc 1 398 0
 1077 066a 4FF4FA70 		mov	r0, #500
 1078 066e FF21     		movs	r1, #255
 1079 0670 FFF7FEFF 		bl	go_forward
 399:.\main.c      ****                     break;
 1080              		.loc 1 399 0
 1081 0674 00F068BC 		b	.L11
 1082              	.L53:
 400:.\main.c      ****                 } else if (within_range(95, ir_result, 105)){
 1083              		.loc 1 400 0
 1084 0678 7B88     		ldrh	r3, [r7, #2]
 1085 067a 5F20     		movs	r0, #95
 1086 067c 1946     		mov	r1, r3
 1087 067e 6922     		movs	r2, #105
 1088 0680 FFF7FEFF 		bl	within_range
 1089 0684 0346     		mov	r3, r0
 1090 0686 002B     		cmp	r3, #0
 1091 0688 17D0     		beq	.L54
 401:.\main.c      ****                     POS_PRINTF(1,5, "left");
 1092              		.loc 1 401 0
 1093 068a 1C4B     		ldr	r3, .L113
 1094 068c 224A     		ldr	r2, .L113+28
 1095 068e 92E80300 		ldmia	r2, {r0, r1}
 1096 0692 1860     		str	r0, [r3]
 1097 0694 0433     		adds	r3, r3, #4
 1098 0696 1970     		strb	r1, [r3]
 1099 0698 0120     		movs	r0, #1
 1100 069a 0521     		movs	r1, #5
 1101 069c FFF7FEFF 		bl	LCD_Position
 1102 06a0 1648     		ldr	r0, .L113
 1103 06a2 FFF7FEFF 		bl	LCD_PrintString
 402:.\main.c      ****                     set_heading(0);
 1104              		.loc 1 402 0
 1105 06a6 0020     		movs	r0, #0
 1106 06a8 FFF7FEFF 		bl	set_heading
 403:.\main.c      ****                     go_forward(500, 255);
 1107              		.loc 1 403 0
 1108 06ac 4FF4FA70 		mov	r0, #500
 1109 06b0 FF21     		movs	r1, #255
 1110 06b2 FFF7FEFF 		bl	go_forward
 404:.\main.c      ****                     break;
 1111              		.loc 1 404 0
 1112 06b6 00F047BC 		b	.L11
 1113              	.L54:
 405:.\main.c      ****                 } else if (within_range(25, ir_result,35)){
ARM GAS  C:\Users\xavieran\AppData\Local\Temp\ccI2E9GN.s 			page 37


 1114              		.loc 1 405 0
 1115 06ba 7B88     		ldrh	r3, [r7, #2]
 1116 06bc 1920     		movs	r0, #25
 1117 06be 1946     		mov	r1, r3
 1118 06c0 2322     		movs	r2, #35
 1119 06c2 FFF7FEFF 		bl	within_range
 1120 06c6 0346     		mov	r3, r0
 1121 06c8 002B     		cmp	r3, #0
 1122 06ca 29D0     		beq	.L55
 406:.\main.c      ****                     POS_PRINTF(1,5, "right");
 1123              		.loc 1 406 0
 1124 06cc 0B4B     		ldr	r3, .L113
 1125 06ce 134A     		ldr	r2, .L113+32
 1126 06d0 92E80300 		ldmia	r2, {r0, r1}
 1127 06d4 1860     		str	r0, [r3]
 1128 06d6 0433     		adds	r3, r3, #4
 1129 06d8 1980     		strh	r1, [r3]	@ movhi
 1130 06da 0120     		movs	r0, #1
 1131 06dc 0521     		movs	r1, #5
 1132 06de FFF7FEFF 		bl	LCD_Position
 1133 06e2 0648     		ldr	r0, .L113
 1134 06e4 FFF7FEFF 		bl	LCD_PrintString
 407:.\main.c      ****                     set_heading(0);
 1135              		.loc 1 407 0
 1136 06e8 0020     		movs	r0, #0
 1137 06ea FFF7FEFF 		bl	set_heading
 408:.\main.c      ****                     go_forward(500, 255);
 1138              		.loc 1 408 0
 1139 06ee 4FF4FA70 		mov	r0, #500
 1140 06f2 FF21     		movs	r1, #255
 1141 06f4 FFF7FEFF 		bl	go_forward
 409:.\main.c      ****                     break;
 1142              		.loc 1 409 0
 1143 06f8 00F026BC 		b	.L11
 1144              	.L114:
 1145              		.align	2
 1146              	.L113:
 1147 06fc 00000000 		.word	outString
 1148 0700 5C000000 		.word	.LC6
 1149 0704 68000000 		.word	.LC7
 1150 0708 78000000 		.word	.LC8
 1151 070c 8C000000 		.word	.LC9
 1152 0710 A0000000 		.word	.LC10
 1153 0714 A8000000 		.word	.LC11
 1154 0718 B0000000 		.word	.LC12
 1155 071c B8000000 		.word	.LC13
 1156              	.L55:
 411:.\main.c      ****                     POS_PRINTF(0,0,"something else");
 1157              		.loc 1 411 0
 1158 0720 BC4A     		ldr	r2, .L115
 1159 0722 BD4B     		ldr	r3, .L115+4
 1160 0724 1446     		mov	r4, r2
 1161 0726 0FCB     		ldmia	r3, {r0, r1, r2, r3}
 1162 0728 07C4     		stmia	r4!, {r0, r1, r2}
 1163 072a 2380     		strh	r3, [r4]	@ movhi
 1164 072c 0234     		adds	r4, r4, #2
 1165 072e 1B0C     		lsrs	r3, r3, #16
ARM GAS  C:\Users\xavieran\AppData\Local\Temp\ccI2E9GN.s 			page 38


 1166 0730 2370     		strb	r3, [r4]
 1167 0732 0020     		movs	r0, #0
 1168 0734 0021     		movs	r1, #0
 1169 0736 FFF7FEFF 		bl	LCD_Position
 1170 073a B648     		ldr	r0, .L115
 1171 073c FFF7FEFF 		bl	LCD_PrintString
 412:.\main.c      ****                     set_heading(0);
 1172              		.loc 1 412 0
 1173 0740 0020     		movs	r0, #0
 1174 0742 FFF7FEFF 		bl	set_heading
 413:.\main.c      ****                     go_forward(500,255);
 1175              		.loc 1 413 0
 1176 0746 4FF4FA70 		mov	r0, #500
 1177 074a FF21     		movs	r1, #255
 1178 074c FFF7FEFF 		bl	go_forward
 1179              	.L52:
 415:.\main.c      ****                 CyDelay(500);
 1180              		.loc 1 415 0
 1181 0750 4FF4FA70 		mov	r0, #500
 1182 0754 FFF7FEFF 		bl	CyDelay
 416:.\main.c      ****                 if (get_mean_ultra() <= near_base){
 1183              		.loc 1 416 0
 1184 0758 FFF7FEFF 		bl	get_mean_ultra
 1185 075c 0346     		mov	r3, r0
 1186 075e 1A46     		mov	r2, r3
 1187 0760 3B69     		ldr	r3, [r7, #16]
 1188 0762 9A42     		cmp	r2, r3
 1189 0764 07DC     		bgt	.L56
 417:.\main.c      ****                     state = S_NEAR_HOME_FIND_100;
 1190              		.loc 1 417 0
 1191 0766 0923     		movs	r3, #9
 1192 0768 A7F84E30 		strh	r3, [r7, #78]	@ movhi
 418:.\main.c      ****                     start_time_find100 = Timer_ReadCounter();
 1193              		.loc 1 418 0
 1194 076c FFF7FEFF 		bl	Timer_ReadCounter
 1195 0770 0346     		mov	r3, r0
 1196 0772 3B64     		str	r3, [r7, #64]
 421:.\main.c      ****                 break;
 1197              		.loc 1 421 0
 1198 0774 E8E3     		b	.L11
 1199              	.L56:
 1200 0776 E7E3     		b	.L11
 1201              	.L21:
 423:.\main.c      ****                 if (start_time_find100 - Timer_ReadCounter() >  10 * 20000){//We must be too far le
 1202              		.loc 1 423 0
 1203 0778 3C6C     		ldr	r4, [r7, #64]
 1204 077a FFF7FEFF 		bl	Timer_ReadCounter
 1205 077e 0346     		mov	r3, r0
 1206 0780 E21A     		subs	r2, r4, r3
 1207 0782 A64B     		ldr	r3, .L115+8
 1208 0784 9A42     		cmp	r2, r3
 1209 0786 08D9     		bls	.L57
 424:.\main.c      ****                     go_backward(4000, 255);
 1210              		.loc 1 424 0
 1211 0788 4FF47A60 		mov	r0, #4000
 1212 078c FF21     		movs	r1, #255
 1213 078e FFF7FEFF 		bl	go_backward
ARM GAS  C:\Users\xavieran\AppData\Local\Temp\ccI2E9GN.s 			page 39


 425:.\main.c      ****                     start_time_find100 = Timer_ReadCounter();
 1214              		.loc 1 425 0
 1215 0792 FFF7FEFF 		bl	Timer_ReadCounter
 1216 0796 0346     		mov	r3, r0
 1217 0798 3B64     		str	r3, [r7, #64]
 1218              	.L57:
 428:.\main.c      ****                 POS_PRINTF(0,0,"NEAR HOME FIND 100");
 1219              		.loc 1 428 0
 1220 079a 9E4A     		ldr	r2, .L115
 1221 079c A04B     		ldr	r3, .L115+12
 1222 079e 1446     		mov	r4, r2
 1223 07a0 1D46     		mov	r5, r3
 1224 07a2 0FCD     		ldmia	r5!, {r0, r1, r2, r3}
 1225 07a4 0FC4     		stmia	r4!, {r0, r1, r2, r3}
 1226 07a6 2B68     		ldr	r3, [r5]
 1227 07a8 1A46     		mov	r2, r3	@ movhi
 1228 07aa 2280     		strh	r2, [r4]	@ movhi
 1229 07ac 0234     		adds	r4, r4, #2
 1230 07ae 1B0C     		lsrs	r3, r3, #16
 1231 07b0 2370     		strb	r3, [r4]
 1232 07b2 0020     		movs	r0, #0
 1233 07b4 0021     		movs	r1, #0
 1234 07b6 FFF7FEFF 		bl	LCD_Position
 1235 07ba 9648     		ldr	r0, .L115
 1236 07bc FFF7FEFF 		bl	LCD_PrintString
 430:.\main.c      ****                 set_heading(90);
 1237              		.loc 1 430 0
 1238 07c0 5A20     		movs	r0, #90
 1239 07c2 FFF7FEFF 		bl	set_heading
 431:.\main.c      ****                 rotate_degrees(0);
 1240              		.loc 1 431 0
 1241 07c6 0020     		movs	r0, #0
 1242 07c8 FFF7FEFF 		bl	rotate_degrees
 432:.\main.c      ****                 CyDelay(300);
 1243              		.loc 1 432 0
 1244 07cc 4FF49670 		mov	r0, #300
 1245 07d0 FFF7FEFF 		bl	CyDelay
 433:.\main.c      ****                 select_right();
 1246              		.loc 1 433 0
 1247 07d4 FFF7FEFF 		bl	select_right
 434:.\main.c      ****                 ir_result = get_ir_val();
 1248              		.loc 1 434 0
 1249 07d8 FFF7FEFF 		bl	get_ir_val
 1250 07dc 0346     		mov	r3, r0
 1251 07de 7B80     		strh	r3, [r7, #2]	@ movhi
 435:.\main.c      ****                 POS_PRINTF(1,0,"i %d", ir_result);
 1252              		.loc 1 435 0
 1253 07e0 7B88     		ldrh	r3, [r7, #2]
 1254 07e2 8C48     		ldr	r0, .L115
 1255 07e4 8F49     		ldr	r1, .L115+16
 1256 07e6 1A46     		mov	r2, r3
 1257 07e8 FFF7FEFF 		bl	sprintf
 1258 07ec 0120     		movs	r0, #1
 1259 07ee 0021     		movs	r1, #0
 1260 07f0 FFF7FEFF 		bl	LCD_Position
 1261 07f4 8748     		ldr	r0, .L115
 1262 07f6 FFF7FEFF 		bl	LCD_PrintString
ARM GAS  C:\Users\xavieran\AppData\Local\Temp\ccI2E9GN.s 			page 40


 436:.\main.c      ****                 POS_PRINTF(1,5,"t %ld", Timer_ReadCounter());
 1263              		.loc 1 436 0
 1264 07fa FFF7FEFF 		bl	Timer_ReadCounter
 1265 07fe 0346     		mov	r3, r0
 1266 0800 8448     		ldr	r0, .L115
 1267 0802 8949     		ldr	r1, .L115+20
 1268 0804 1A46     		mov	r2, r3
 1269 0806 FFF7FEFF 		bl	sprintf
 1270 080a 0120     		movs	r0, #1
 1271 080c 0521     		movs	r1, #5
 1272 080e FFF7FEFF 		bl	LCD_Position
 1273 0812 8048     		ldr	r0, .L115
 1274 0814 FFF7FEFF 		bl	LCD_PrintString
 439:.\main.c      ****                 if (within_range(96, ir_result, 105)){
 1275              		.loc 1 439 0
 1276 0818 7B88     		ldrh	r3, [r7, #2]
 1277 081a 6020     		movs	r0, #96
 1278 081c 1946     		mov	r1, r3
 1279 081e 6922     		movs	r2, #105
 1280 0820 FFF7FEFF 		bl	within_range
 1281 0824 0346     		mov	r3, r0
 1282 0826 002B     		cmp	r3, #0
 1283 0828 24D0     		beq	.L58
 1284              	.LBB4:
 441:.\main.c      ****                     int good_val = 1;
 1285              		.loc 1 441 0
 1286 082a 0123     		movs	r3, #1
 1287 082c BB62     		str	r3, [r7, #40]
 442:.\main.c      ****                     for (i = 0; i < 3; i++){
 1288              		.loc 1 442 0
 1289 082e 0023     		movs	r3, #0
 1290 0830 FB62     		str	r3, [r7, #44]
 1291 0832 14E0     		b	.L59
 1292              	.L62:
 443:.\main.c      ****                         CyDelay(300);
 1293              		.loc 1 443 0
 1294 0834 4FF49670 		mov	r0, #300
 1295 0838 FFF7FEFF 		bl	CyDelay
 444:.\main.c      ****                         if (!within_range(96, get_ir_val(), 105)){
 1296              		.loc 1 444 0
 1297 083c FFF7FEFF 		bl	get_ir_val
 1298 0840 0346     		mov	r3, r0
 1299 0842 6020     		movs	r0, #96
 1300 0844 1946     		mov	r1, r3
 1301 0846 6922     		movs	r2, #105
 1302 0848 FFF7FEFF 		bl	within_range
 1303 084c 0346     		mov	r3, r0
 1304 084e 002B     		cmp	r3, #0
 1305 0850 02D1     		bne	.L60
 445:.\main.c      ****                             good_val = 0;
 1306              		.loc 1 445 0
 1307 0852 0023     		movs	r3, #0
 1308 0854 BB62     		str	r3, [r7, #40]
 446:.\main.c      ****                             break;
 1309              		.loc 1 446 0
 1310 0856 05E0     		b	.L61
 1311              	.L60:
ARM GAS  C:\Users\xavieran\AppData\Local\Temp\ccI2E9GN.s 			page 41


 442:.\main.c      ****                     for (i = 0; i < 3; i++){
 1312              		.loc 1 442 0
 1313 0858 FB6A     		ldr	r3, [r7, #44]
 1314 085a 0133     		adds	r3, r3, #1
 1315 085c FB62     		str	r3, [r7, #44]
 1316              	.L59:
 442:.\main.c      ****                     for (i = 0; i < 3; i++){
 1317              		.loc 1 442 0 is_stmt 0 discriminator 1
 1318 085e FB6A     		ldr	r3, [r7, #44]
 1319 0860 022B     		cmp	r3, #2
 1320 0862 E7DD     		ble	.L62
 1321              	.L61:
 449:.\main.c      ****                     if (good_val){
 1322              		.loc 1 449 0 is_stmt 1
 1323 0864 BB6A     		ldr	r3, [r7, #40]
 1324 0866 002B     		cmp	r3, #0
 1325 0868 03D0     		beq	.L63
 450:.\main.c      ****                         state = S_NEAR_HOME_FIND_60;
 1326              		.loc 1 450 0
 1327 086a 0A23     		movs	r3, #10
 1328 086c A7F84E30 		strh	r3, [r7, #78]	@ movhi
 452:.\main.c      ****                     break;
 1329              		.loc 1 452 0
 1330 0870 6AE3     		b	.L11
 1331              	.L63:
 1332 0872 69E3     		b	.L11
 1333              	.L58:
 1334              	.LBE4:
 453:.\main.c      ****                 } else if (within_range(25, ir_result, 35)){
 1335              		.loc 1 453 0
 1336 0874 7B88     		ldrh	r3, [r7, #2]
 1337 0876 1920     		movs	r0, #25
 1338 0878 1946     		mov	r1, r3
 1339 087a 2322     		movs	r2, #35
 1340 087c FFF7FEFF 		bl	within_range
 1341 0880 0346     		mov	r3, r0
 1342 0882 002B     		cmp	r3, #0
 1343 0884 04D0     		beq	.L64
 454:.\main.c      ****                     go_forward(1000, 255);
 1344              		.loc 1 454 0
 1345 0886 4FF47A70 		mov	r0, #1000
 1346 088a FF21     		movs	r1, #255
 1347 088c FFF7FEFF 		bl	go_forward
 1348              	.L64:
 456:.\main.c      ****                 go_forward(400, 255);
 1349              		.loc 1 456 0
 1350 0890 4FF4C870 		mov	r0, #400
 1351 0894 FF21     		movs	r1, #255
 1352 0896 FFF7FEFF 		bl	go_forward
 457:.\main.c      ****                 break;
 1353              		.loc 1 457 0
 1354 089a 55E3     		b	.L11
 1355              	.L25:
 460:.\main.c      ****                 POS_PRINTF(0,0,"NEAR HOME SAW 30");
 1356              		.loc 1 460 0
 1357 089c 5D4A     		ldr	r2, .L115
 1358 089e 634B     		ldr	r3, .L115+24
ARM GAS  C:\Users\xavieran\AppData\Local\Temp\ccI2E9GN.s 			page 42


 1359 08a0 1446     		mov	r4, r2
 1360 08a2 1D46     		mov	r5, r3
 1361 08a4 0FCD     		ldmia	r5!, {r0, r1, r2, r3}
 1362 08a6 0FC4     		stmia	r4!, {r0, r1, r2, r3}
 1363 08a8 2B68     		ldr	r3, [r5]
 1364 08aa 2370     		strb	r3, [r4]
 1365 08ac 0020     		movs	r0, #0
 1366 08ae 0021     		movs	r1, #0
 1367 08b0 FFF7FEFF 		bl	LCD_Position
 1368 08b4 5748     		ldr	r0, .L115
 1369 08b6 FFF7FEFF 		bl	LCD_PrintString
 461:.\main.c      ****                 CyDelay(300);
 1370              		.loc 1 461 0
 1371 08ba 4FF49670 		mov	r0, #300
 1372 08be FFF7FEFF 		bl	CyDelay
 462:.\main.c      ****                 select_right();
 1373              		.loc 1 462 0
 1374 08c2 FFF7FEFF 		bl	select_right
 463:.\main.c      ****                 ir_result = get_ir_val();
 1375              		.loc 1 463 0
 1376 08c6 FFF7FEFF 		bl	get_ir_val
 1377 08ca 0346     		mov	r3, r0
 1378 08cc 7B80     		strh	r3, [r7, #2]	@ movhi
 464:.\main.c      ****                 POS_PRINTF(1,0,"ir%d", ir_result);
 1379              		.loc 1 464 0
 1380 08ce 7B88     		ldrh	r3, [r7, #2]
 1381 08d0 5048     		ldr	r0, .L115
 1382 08d2 5749     		ldr	r1, .L115+28
 1383 08d4 1A46     		mov	r2, r3
 1384 08d6 FFF7FEFF 		bl	sprintf
 1385 08da 0120     		movs	r0, #1
 1386 08dc 0021     		movs	r1, #0
 1387 08de FFF7FEFF 		bl	LCD_Position
 1388 08e2 4C48     		ldr	r0, .L115
 1389 08e4 FFF7FEFF 		bl	LCD_PrintString
 466:.\main.c      ****                 if (within_range(57, ir_result, 65)){
 1390              		.loc 1 466 0
 1391 08e8 7B88     		ldrh	r3, [r7, #2]
 1392 08ea 3920     		movs	r0, #57
 1393 08ec 1946     		mov	r1, r3
 1394 08ee 4122     		movs	r2, #65
 1395 08f0 FFF7FEFF 		bl	within_range
 1396 08f4 0346     		mov	r3, r0
 1397 08f6 002B     		cmp	r3, #0
 1398 08f8 0ED0     		beq	.L65
 467:.\main.c      ****                     go_forward(1500, 255);
 1399              		.loc 1 467 0
 1400 08fa 40F2DC50 		movw	r0, #1500
 1401 08fe FF21     		movs	r1, #255
 1402 0900 FFF7FEFF 		bl	go_forward
 468:.\main.c      ****                     set_heading(0);
 1403              		.loc 1 468 0
 1404 0904 0020     		movs	r0, #0
 1405 0906 FFF7FEFF 		bl	set_heading
 469:.\main.c      ****                     rotate_degrees(0);
 1406              		.loc 1 469 0
 1407 090a 0020     		movs	r0, #0
ARM GAS  C:\Users\xavieran\AppData\Local\Temp\ccI2E9GN.s 			page 43


 1408 090c FFF7FEFF 		bl	rotate_degrees
 470:.\main.c      ****                     state = S_CENTERED_ON_BASE;
 1409              		.loc 1 470 0
 1410 0910 0B23     		movs	r3, #11
 1411 0912 A7F84E30 		strh	r3, [r7, #78]	@ movhi
 471:.\main.c      ****                     break;
 1412              		.loc 1 471 0
 1413 0916 17E3     		b	.L11
 1414              	.L65:
 473:.\main.c      ****                 go_forward(400, 255);
 1415              		.loc 1 473 0
 1416 0918 4FF4C870 		mov	r0, #400
 1417 091c FF21     		movs	r1, #255
 1418 091e FFF7FEFF 		bl	go_forward
 474:.\main.c      ****                 break;
 1419              		.loc 1 474 0
 1420 0922 11E3     		b	.L11
 1421              	.L22:
 477:.\main.c      ****                 POS_PRINTF(0,0,"NEAR HOME FIND 60");
 1422              		.loc 1 477 0
 1423 0924 3B4A     		ldr	r2, .L115
 1424 0926 434B     		ldr	r3, .L115+32
 1425 0928 1446     		mov	r4, r2
 1426 092a 1D46     		mov	r5, r3
 1427 092c 0FCD     		ldmia	r5!, {r0, r1, r2, r3}
 1428 092e 0FC4     		stmia	r4!, {r0, r1, r2, r3}
 1429 0930 2B68     		ldr	r3, [r5]
 1430 0932 2380     		strh	r3, [r4]	@ movhi
 1431 0934 0020     		movs	r0, #0
 1432 0936 0021     		movs	r1, #0
 1433 0938 FFF7FEFF 		bl	LCD_Position
 1434 093c 3548     		ldr	r0, .L115
 1435 093e FFF7FEFF 		bl	LCD_PrintString
 479:.\main.c      ****                 CyDelay(500);
 1436              		.loc 1 479 0
 1437 0942 4FF4FA70 		mov	r0, #500
 1438 0946 FFF7FEFF 		bl	CyDelay
 480:.\main.c      ****                 select_right();
 1439              		.loc 1 480 0
 1440 094a FFF7FEFF 		bl	select_right
 481:.\main.c      ****                 ir_result = get_ir_val();
 1441              		.loc 1 481 0
 1442 094e FFF7FEFF 		bl	get_ir_val
 1443 0952 0346     		mov	r3, r0
 1444 0954 7B80     		strh	r3, [r7, #2]	@ movhi
 482:.\main.c      ****                 POS_PRINTF(1,0,"ir%d", ir_result);
 1445              		.loc 1 482 0
 1446 0956 7B88     		ldrh	r3, [r7, #2]
 1447 0958 2E48     		ldr	r0, .L115
 1448 095a 3549     		ldr	r1, .L115+28
 1449 095c 1A46     		mov	r2, r3
 1450 095e FFF7FEFF 		bl	sprintf
 1451 0962 0120     		movs	r0, #1
 1452 0964 0021     		movs	r1, #0
 1453 0966 FFF7FEFF 		bl	LCD_Position
 1454 096a 2A48     		ldr	r0, .L115
 1455 096c FFF7FEFF 		bl	LCD_PrintString
ARM GAS  C:\Users\xavieran\AppData\Local\Temp\ccI2E9GN.s 			page 44


 484:.\main.c      ****                 if (within_range(57, ir_result, 65)){
 1456              		.loc 1 484 0
 1457 0970 7B88     		ldrh	r3, [r7, #2]
 1458 0972 3920     		movs	r0, #57
 1459 0974 1946     		mov	r1, r3
 1460 0976 4122     		movs	r2, #65
 1461 0978 FFF7FEFF 		bl	within_range
 1462 097c 0346     		mov	r3, r0
 1463 097e 002B     		cmp	r3, #0
 1464 0980 09D0     		beq	.L66
 485:.\main.c      ****                     set_heading(0);
 1465              		.loc 1 485 0
 1466 0982 0020     		movs	r0, #0
 1467 0984 FFF7FEFF 		bl	set_heading
 486:.\main.c      ****                     rotate_degrees(0);
 1468              		.loc 1 486 0
 1469 0988 0020     		movs	r0, #0
 1470 098a FFF7FEFF 		bl	rotate_degrees
 487:.\main.c      ****                     state = S_CENTERED_ON_BASE;
 1471              		.loc 1 487 0
 1472 098e 0B23     		movs	r3, #11
 1473 0990 A7F84E30 		strh	r3, [r7, #78]	@ movhi
 488:.\main.c      ****                     break;
 1474              		.loc 1 488 0
 1475 0994 D8E2     		b	.L11
 1476              	.L66:
 489:.\main.c      ****                 } else if (within_range(27, ir_result, 33)){
 1477              		.loc 1 489 0
 1478 0996 7B88     		ldrh	r3, [r7, #2]
 1479 0998 1B20     		movs	r0, #27
 1480 099a 1946     		mov	r1, r3
 1481 099c 2122     		movs	r2, #33
 1482 099e FFF7FEFF 		bl	within_range
 1483 09a2 0346     		mov	r3, r0
 1484 09a4 002B     		cmp	r3, #0
 1485 09a6 03D0     		beq	.L67
 490:.\main.c      ****                     state = S_NEAR_HOME_SAW_30;
 1486              		.loc 1 490 0
 1487 09a8 0D23     		movs	r3, #13
 1488 09aa A7F84E30 		strh	r3, [r7, #78]	@ movhi
 491:.\main.c      ****                     break;
 1489              		.loc 1 491 0
 1490 09ae CBE2     		b	.L11
 1491              	.L67:
 494:.\main.c      ****                 go_backward(250, 255);
 1492              		.loc 1 494 0
 1493 09b0 FA20     		movs	r0, #250
 1494 09b2 FF21     		movs	r1, #255
 1495 09b4 FFF7FEFF 		bl	go_backward
 495:.\main.c      ****                 break;
 1496              		.loc 1 495 0
 1497 09b8 C6E2     		b	.L11
 1498              	.L23:
 498:.\main.c      ****                 POS_PRINTF(0,0,"CENTERED ON BASE");
 1499              		.loc 1 498 0
 1500 09ba 164A     		ldr	r2, .L115
 1501 09bc 1E4B     		ldr	r3, .L115+36
ARM GAS  C:\Users\xavieran\AppData\Local\Temp\ccI2E9GN.s 			page 45


 1502 09be 1446     		mov	r4, r2
 1503 09c0 1D46     		mov	r5, r3
 1504 09c2 0FCD     		ldmia	r5!, {r0, r1, r2, r3}
 1505 09c4 0FC4     		stmia	r4!, {r0, r1, r2, r3}
 1506 09c6 2B68     		ldr	r3, [r5]
 1507 09c8 2370     		strb	r3, [r4]
 1508 09ca 0020     		movs	r0, #0
 1509 09cc 0021     		movs	r1, #0
 1510 09ce FFF7FEFF 		bl	LCD_Position
 1511 09d2 1048     		ldr	r0, .L115
 1512 09d4 FFF7FEFF 		bl	LCD_PrintString
 499:.\main.c      ****                 arm_inbetween_level(0,1);
 1513              		.loc 1 499 0
 1514 09d8 0020     		movs	r0, #0
 1515 09da 0121     		movs	r1, #1
 1516 09dc FFF7FEFF 		bl	arm_inbetween_level
 500:.\main.c      ****                 CyDelay(200);
 1517              		.loc 1 500 0
 1518 09e0 C820     		movs	r0, #200
 1519 09e2 FFF7FEFF 		bl	CyDelay
 501:.\main.c      ****                 arm_set_level(0);
 1520              		.loc 1 501 0
 1521 09e6 0020     		movs	r0, #0
 1522 09e8 FFF7FEFF 		bl	arm_set_level
 502:.\main.c      ****                 CyDelay(200);
 1523              		.loc 1 502 0
 1524 09ec C820     		movs	r0, #200
 1525 09ee FFF7FEFF 		bl	CyDelay
 503:.\main.c      ****                 drop_puck();
 1526              		.loc 1 503 0
 1527 09f2 FFF7FEFF 		bl	drop_puck
 504:.\main.c      ****                 go_forward(300, 255);
 1528              		.loc 1 504 0
 1529 09f6 4FF49670 		mov	r0, #300
 1530 09fa FF21     		movs	r1, #255
 1531 09fc FFF7FEFF 		bl	go_forward
 505:.\main.c      ****                 pickup_puck();
 1532              		.loc 1 505 0
 1533 0a00 FFF7FEFF 		bl	pickup_puck
 506:.\main.c      ****                 CyDelay(200);
 1534              		.loc 1 506 0
 1535 0a04 C820     		movs	r0, #200
 1536 0a06 FFF7FEFF 		bl	CyDelay
 508:.\main.c      ****                 arm_set_level(4);
 1537              		.loc 1 508 0
 1538 0a0a 0420     		movs	r0, #4
 1539 0a0c FFF7FEFF 		bl	arm_set_level
 510:.\main.c      ****                 while (get_mean_ultra() > 24){
 1540              		.loc 1 510 0
 1541 0a10 1DE0     		b	.L68
 1542              	.L116:
 1543 0a12 00BF     		.align	2
 1544              	.L115:
 1545 0a14 00000000 		.word	outString
 1546 0a18 C0000000 		.word	.LC14
 1547 0a1c 400D0300 		.word	200000
 1548 0a20 D0000000 		.word	.LC15
ARM GAS  C:\Users\xavieran\AppData\Local\Temp\ccI2E9GN.s 			page 46


 1549 0a24 E4000000 		.word	.LC16
 1550 0a28 EC000000 		.word	.LC17
 1551 0a2c F4000000 		.word	.LC18
 1552 0a30 08010000 		.word	.LC19
 1553 0a34 10010000 		.word	.LC20
 1554 0a38 24010000 		.word	.LC21
 1555              	.L69:
 511:.\main.c      ****                     go_forward(500, 255);
 1556              		.loc 1 511 0
 1557 0a3c 4FF4FA70 		mov	r0, #500
 1558 0a40 FF21     		movs	r1, #255
 1559 0a42 FFF7FEFF 		bl	go_forward
 512:.\main.c      ****                     CyDelay(300);
 1560              		.loc 1 512 0
 1561 0a46 4FF49670 		mov	r0, #300
 1562 0a4a FFF7FEFF 		bl	CyDelay
 1563              	.L68:
 510:.\main.c      ****                 while (get_mean_ultra() > 24){
 1564              		.loc 1 510 0 discriminator 1
 1565 0a4e FFF7FEFF 		bl	get_mean_ultra
 1566 0a52 0346     		mov	r3, r0
 1567 0a54 182B     		cmp	r3, #24
 1568 0a56 F1D8     		bhi	.L69
 514:.\main.c      ****                 int ultra = get_mean_ultra();
 1569              		.loc 1 514 0
 1570 0a58 FFF7FEFF 		bl	get_mean_ultra
 1571 0a5c 0346     		mov	r3, r0
 1572 0a5e 7B62     		str	r3, [r7, #36]
 515:.\main.c      ****                 int stackable = 0;
 1573              		.loc 1 515 0
 1574 0a60 0023     		movs	r3, #0
 1575 0a62 3B62     		str	r3, [r7, #32]
 516:.\main.c      ****                 while (!within_range(14,ultra,15) && !stackable){
 1576              		.loc 1 516 0
 1577 0a64 32E0     		b	.L70
 1578              	.L74:
 517:.\main.c      ****                     ultra = get_mean_ultra();
 1579              		.loc 1 517 0
 1580 0a66 FFF7FEFF 		bl	get_mean_ultra
 1581 0a6a 0346     		mov	r3, r0
 1582 0a6c 7B62     		str	r3, [r7, #36]
 518:.\main.c      ****                     POS_PRINTF(1,0,"ULTRA: %d", ultra);
 1583              		.loc 1 518 0
 1584 0a6e B848     		ldr	r0, .L117
 1585 0a70 B849     		ldr	r1, .L117+4
 1586 0a72 7A6A     		ldr	r2, [r7, #36]
 1587 0a74 FFF7FEFF 		bl	sprintf
 1588 0a78 0120     		movs	r0, #1
 1589 0a7a 0021     		movs	r1, #0
 1590 0a7c FFF7FEFF 		bl	LCD_Position
 1591 0a80 B348     		ldr	r0, .L117
 1592 0a82 FFF7FEFF 		bl	LCD_PrintString
 519:.\main.c      ****                     if (ultra > 15){
 1593              		.loc 1 519 0
 1594 0a86 7B6A     		ldr	r3, [r7, #36]
 1595 0a88 0F2B     		cmp	r3, #15
 1596 0a8a 0BDD     		ble	.L71
ARM GAS  C:\Users\xavieran\AppData\Local\Temp\ccI2E9GN.s 			page 47


 520:.\main.c      ****                         go_forward(250, 200);
 1597              		.loc 1 520 0
 1598 0a8c FA20     		movs	r0, #250
 1599 0a8e C821     		movs	r1, #200
 1600 0a90 FFF7FEFF 		bl	go_forward
 521:.\main.c      ****                         rotate_degrees(0);
 1601              		.loc 1 521 0
 1602 0a94 0020     		movs	r0, #0
 1603 0a96 FFF7FEFF 		bl	rotate_degrees
 522:.\main.c      ****                         CyDelay(300);
 1604              		.loc 1 522 0
 1605 0a9a 4FF49670 		mov	r0, #300
 1606 0a9e FFF7FEFF 		bl	CyDelay
 1607 0aa2 13E0     		b	.L70
 1608              	.L71:
 523:.\main.c      ****                     } else if (ultra < 14){
 1609              		.loc 1 523 0
 1610 0aa4 7B6A     		ldr	r3, [r7, #36]
 1611 0aa6 0D2B     		cmp	r3, #13
 1612 0aa8 0BDC     		bgt	.L72
 524:.\main.c      ****                         go_backward(200,200);
 1613              		.loc 1 524 0
 1614 0aaa C820     		movs	r0, #200
 1615 0aac C821     		movs	r1, #200
 1616 0aae FFF7FEFF 		bl	go_backward
 525:.\main.c      ****                         rotate_degrees(0);
 1617              		.loc 1 525 0
 1618 0ab2 0020     		movs	r0, #0
 1619 0ab4 FFF7FEFF 		bl	rotate_degrees
 526:.\main.c      ****                         CyDelay(300);
 1620              		.loc 1 526 0
 1621 0ab8 4FF49670 		mov	r0, #300
 1622 0abc FFF7FEFF 		bl	CyDelay
 1623 0ac0 04E0     		b	.L70
 1624              	.L72:
 527:.\main.c      ****                     } else if (ultra == 14){
 1625              		.loc 1 527 0
 1626 0ac2 7B6A     		ldr	r3, [r7, #36]
 1627 0ac4 0E2B     		cmp	r3, #14
 1628 0ac6 01D1     		bne	.L70
 528:.\main.c      ****                         stackable = 1;
 1629              		.loc 1 528 0
 1630 0ac8 0123     		movs	r3, #1
 1631 0aca 3B62     		str	r3, [r7, #32]
 1632              	.L70:
 516:.\main.c      ****                 while (!within_range(14,ultra,15) && !stackable){
 1633              		.loc 1 516 0 discriminator 1
 1634 0acc 0E20     		movs	r0, #14
 1635 0ace 796A     		ldr	r1, [r7, #36]
 1636 0ad0 0F22     		movs	r2, #15
 1637 0ad2 FFF7FEFF 		bl	within_range
 1638 0ad6 0346     		mov	r3, r0
 1639 0ad8 002B     		cmp	r3, #0
 1640 0ada 02D1     		bne	.L73
 516:.\main.c      ****                 while (!within_range(14,ultra,15) && !stackable){
 1641              		.loc 1 516 0 is_stmt 0 discriminator 2
 1642 0adc 3B6A     		ldr	r3, [r7, #32]
ARM GAS  C:\Users\xavieran\AppData\Local\Temp\ccI2E9GN.s 			page 48


 1643 0ade 002B     		cmp	r3, #0
 1644 0ae0 C1D0     		beq	.L74
 1645              	.L73:
 532:.\main.c      ****                 STALL_SPEED = BASE_STALL_SPEED;
 1646              		.loc 1 532 0 is_stmt 1
 1647 0ae2 9D4B     		ldr	r3, .L117+8
 1648 0ae4 B422     		movs	r2, #180
 1649 0ae6 1A70     		strb	r2, [r3]
 534:.\main.c      ****                 rotate_left(200);
 1650              		.loc 1 534 0
 1651 0ae8 C820     		movs	r0, #200
 1652 0aea FFF7FEFF 		bl	rotate_left
 535:.\main.c      ****                 CyDelay(400);
 1653              		.loc 1 535 0
 1654 0aee 4FF4C870 		mov	r0, #400
 1655 0af2 FFF7FEFF 		bl	CyDelay
 537:.\main.c      ****                 set_heading(270);
 1656              		.loc 1 537 0
 1657 0af6 4FF48770 		mov	r0, #270
 1658 0afa FFF7FEFF 		bl	set_heading
 538:.\main.c      ****                 rotate_degrees(0);
 1659              		.loc 1 538 0
 1660 0afe 0020     		movs	r0, #0
 1661 0b00 FFF7FEFF 		bl	rotate_degrees
 540:.\main.c      ****                 state = S_PLACE_PUCK;
 1662              		.loc 1 540 0
 1663 0b04 0C23     		movs	r3, #12
 1664 0b06 A7F84E30 		strh	r3, [r7, #78]	@ movhi
 541:.\main.c      ****                 break;
 1665              		.loc 1 541 0
 1666 0b0a 1DE2     		b	.L11
 1667              	.L24:
 544:.\main.c      ****                 POS_PRINTF(0,0,"PLACING PUCK");
 1668              		.loc 1 544 0
 1669 0b0c 904A     		ldr	r2, .L117
 1670 0b0e 934B     		ldr	r3, .L117+12
 1671 0b10 1446     		mov	r4, r2
 1672 0b12 0FCB     		ldmia	r3, {r0, r1, r2, r3}
 1673 0b14 07C4     		stmia	r4!, {r0, r1, r2}
 1674 0b16 2370     		strb	r3, [r4]
 1675 0b18 0020     		movs	r0, #0
 1676 0b1a 0021     		movs	r1, #0
 1677 0b1c FFF7FEFF 		bl	LCD_Position
 1678 0b20 8B48     		ldr	r0, .L117
 1679 0b22 FFF7FEFF 		bl	LCD_PrintString
 546:.\main.c      ****                 HEADING_ERROR_LIMIT = 1;
 1680              		.loc 1 546 0
 1681 0b26 8E4B     		ldr	r3, .L117+16
 1682 0b28 0122     		movs	r2, #1
 1683 0b2a 1A70     		strb	r2, [r3]
 547:.\main.c      ****                 if (pucks_gotten == 1){
 1684              		.loc 1 547 0
 1685 0b2c BB6C     		ldr	r3, [r7, #72]
 1686 0b2e 012B     		cmp	r3, #1
 1687 0b30 2FD1     		bne	.L75
 548:.\main.c      ****                     for (i = 0; i < 3; i++){
 1688              		.loc 1 548 0
ARM GAS  C:\Users\xavieran\AppData\Local\Temp\ccI2E9GN.s 			page 49


 1689 0b32 0023     		movs	r3, #0
 1690 0b34 7B63     		str	r3, [r7, #52]
 1691 0b36 0BE0     		b	.L76
 1692              	.L77:
 549:.\main.c      ****                         go_forward(500, 200);
 1693              		.loc 1 549 0 discriminator 2
 1694 0b38 4FF4FA70 		mov	r0, #500
 1695 0b3c C821     		movs	r1, #200
 1696 0b3e FFF7FEFF 		bl	go_forward
 550:.\main.c      ****                         CyDelay(600);
 1697              		.loc 1 550 0 discriminator 2
 1698 0b42 4FF41670 		mov	r0, #600
 1699 0b46 FFF7FEFF 		bl	CyDelay
 548:.\main.c      ****                     for (i = 0; i < 3; i++){
 1700              		.loc 1 548 0 discriminator 2
 1701 0b4a 7B6B     		ldr	r3, [r7, #52]
 1702 0b4c 0133     		adds	r3, r3, #1
 1703 0b4e 7B63     		str	r3, [r7, #52]
 1704              	.L76:
 548:.\main.c      ****                     for (i = 0; i < 3; i++){
 1705              		.loc 1 548 0 is_stmt 0 discriminator 1
 1706 0b50 7B6B     		ldr	r3, [r7, #52]
 1707 0b52 022B     		cmp	r3, #2
 1708 0b54 F0DD     		ble	.L77
 552:.\main.c      ****                     CyDelay(300);
 1709              		.loc 1 552 0 is_stmt 1
 1710 0b56 4FF49670 		mov	r0, #300
 1711 0b5a FFF7FEFF 		bl	CyDelay
 553:.\main.c      ****                     set_heading(270);
 1712              		.loc 1 553 0
 1713 0b5e 4FF48770 		mov	r0, #270
 1714 0b62 FFF7FEFF 		bl	set_heading
 554:.\main.c      ****                     rotate_degrees(0);
 1715              		.loc 1 554 0
 1716 0b66 0020     		movs	r0, #0
 1717 0b68 FFF7FEFF 		bl	rotate_degrees
 555:.\main.c      ****                     arm_inbetween_level(0,1);
 1718              		.loc 1 555 0
 1719 0b6c 0020     		movs	r0, #0
 1720 0b6e 0121     		movs	r1, #1
 1721 0b70 FFF7FEFF 		bl	arm_inbetween_level
 556:.\main.c      ****                     CyDelay(300);
 1722              		.loc 1 556 0
 1723 0b74 4FF49670 		mov	r0, #300
 1724 0b78 FFF7FEFF 		bl	CyDelay
 557:.\main.c      ****                     drop_puck();
 1725              		.loc 1 557 0
 1726 0b7c FFF7FEFF 		bl	drop_puck
 558:.\main.c      ****                     CyDelay(200);
 1727              		.loc 1 558 0
 1728 0b80 C820     		movs	r0, #200
 1729 0b82 FFF7FEFF 		bl	CyDelay
 559:.\main.c      ****                     go_backward(1400, 255);
 1730              		.loc 1 559 0
 1731 0b86 4FF4AF60 		mov	r0, #1400
 1732 0b8a FF21     		movs	r1, #255
 1733 0b8c FFF7FEFF 		bl	go_backward
ARM GAS  C:\Users\xavieran\AppData\Local\Temp\ccI2E9GN.s 			page 50


 1734 0b90 94E1     		b	.L78
 1735              	.L75:
 1736              	.LBB5:
 561:.\main.c      ****                     arm_set_level(pucks_gotten + 1);
 1737              		.loc 1 561 0
 1738 0b92 BB6C     		ldr	r3, [r7, #72]
 1739 0b94 0133     		adds	r3, r3, #1
 1740 0b96 1846     		mov	r0, r3
 1741 0b98 FFF7FEFF 		bl	arm_set_level
 564:.\main.c      ****                     int on_stack = 0;
 1742              		.loc 1 564 0
 1743 0b9c 0023     		movs	r3, #0
 1744 0b9e FB61     		str	r3, [r7, #28]
 565:.\main.c      ****                     while (!on_stack){
 1745              		.loc 1 565 0
 1746 0ba0 80E0     		b	.L79
 1747              	.L84:
 566:.\main.c      ****                         POS_PRINTF(0,0,"STACKING!");
 1748              		.loc 1 566 0
 1749 0ba2 6B4B     		ldr	r3, .L117
 1750 0ba4 6F4A     		ldr	r2, .L117+20
 1751 0ba6 07CA     		ldmia	r2, {r0, r1, r2}
 1752 0ba8 03C3     		stmia	r3!, {r0, r1}
 1753 0baa 1A80     		strh	r2, [r3]	@ movhi
 1754 0bac 0020     		movs	r0, #0
 1755 0bae 0021     		movs	r1, #0
 1756 0bb0 FFF7FEFF 		bl	LCD_Position
 1757 0bb4 6648     		ldr	r0, .L117
 1758 0bb6 FFF7FEFF 		bl	LCD_PrintString
 567:.\main.c      ****                         POS_PRINTF(1, 0, "B%d SU%d", beam_broken(), get_mean_ultra_s());
 1759              		.loc 1 567 0
 1760 0bba FFF7FEFF 		bl	beam_broken
 1761 0bbe 0346     		mov	r3, r0
 1762 0bc0 1C46     		mov	r4, r3
 1763 0bc2 FFF7FEFF 		bl	get_mean_ultra_s
 1764 0bc6 0346     		mov	r3, r0
 1765 0bc8 6148     		ldr	r0, .L117
 1766 0bca 6749     		ldr	r1, .L117+24
 1767 0bcc 2246     		mov	r2, r4
 1768 0bce FFF7FEFF 		bl	sprintf
 1769 0bd2 0120     		movs	r0, #1
 1770 0bd4 0021     		movs	r1, #0
 1771 0bd6 FFF7FEFF 		bl	LCD_Position
 1772 0bda 5D48     		ldr	r0, .L117
 1773 0bdc FFF7FEFF 		bl	LCD_PrintString
 568:.\main.c      ****                         if (beam_broken()){
 1774              		.loc 1 568 0
 1775 0be0 FFF7FEFF 		bl	beam_broken
 1776 0be4 0346     		mov	r3, r0
 1777 0be6 002B     		cmp	r3, #0
 1778 0be8 0ED0     		beq	.L80
 569:.\main.c      ****                             POS_PRINTF(0,0,"BEAM BROKEN");
 1779              		.loc 1 569 0
 1780 0bea 594B     		ldr	r3, .L117
 1781 0bec 5F4A     		ldr	r2, .L117+28
 1782 0bee 07CA     		ldmia	r2, {r0, r1, r2}
 1783 0bf0 83E80700 		stmia	r3, {r0, r1, r2}
ARM GAS  C:\Users\xavieran\AppData\Local\Temp\ccI2E9GN.s 			page 51


 1784 0bf4 0020     		movs	r0, #0
 1785 0bf6 0021     		movs	r1, #0
 1786 0bf8 FFF7FEFF 		bl	LCD_Position
 1787 0bfc 5448     		ldr	r0, .L117
 1788 0bfe FFF7FEFF 		bl	LCD_PrintString
 570:.\main.c      ****                             on_stack = 1;
 1789              		.loc 1 570 0
 1790 0c02 0123     		movs	r3, #1
 1791 0c04 FB61     		str	r3, [r7, #28]
 1792 0c06 49E0     		b	.L81
 1793              	.L80:
 571:.\main.c      ****                         } else if (get_mean_ultra_s() < 12){
 1794              		.loc 1 571 0
 1795 0c08 FFF7FEFF 		bl	get_mean_ultra_s
 1796 0c0c 0346     		mov	r3, r0
 1797 0c0e 0B2B     		cmp	r3, #11
 1798 0c10 16D8     		bhi	.L82
 572:.\main.c      ****                             POS_PRINTF(0,0,"Close to stack");
 1799              		.loc 1 572 0
 1800 0c12 4F4A     		ldr	r2, .L117
 1801 0c14 564B     		ldr	r3, .L117+32
 1802 0c16 1446     		mov	r4, r2
 1803 0c18 0FCB     		ldmia	r3, {r0, r1, r2, r3}
 1804 0c1a 07C4     		stmia	r4!, {r0, r1, r2}
 1805 0c1c 2380     		strh	r3, [r4]	@ movhi
 1806 0c1e 0234     		adds	r4, r4, #2
 1807 0c20 1B0C     		lsrs	r3, r3, #16
 1808 0c22 2370     		strb	r3, [r4]
 1809 0c24 0020     		movs	r0, #0
 1810 0c26 0021     		movs	r1, #0
 1811 0c28 FFF7FEFF 		bl	LCD_Position
 1812 0c2c 4848     		ldr	r0, .L117
 1813 0c2e FFF7FEFF 		bl	LCD_PrintString
 573:.\main.c      ****                             go_backward(200, 255);
 1814              		.loc 1 573 0
 1815 0c32 C820     		movs	r0, #200
 1816 0c34 FF21     		movs	r1, #255
 1817 0c36 FFF7FEFF 		bl	go_backward
 574:.\main.c      ****                             on_stack = 1;
 1818              		.loc 1 574 0
 1819 0c3a 0123     		movs	r3, #1
 1820 0c3c FB61     		str	r3, [r7, #28]
 1821 0c3e 2DE0     		b	.L81
 1822              	.L82:
 575:.\main.c      ****                         } else if (get_mean_ultra_s() > 17) {
 1823              		.loc 1 575 0
 1824 0c40 FFF7FEFF 		bl	get_mean_ultra_s
 1825 0c44 0346     		mov	r3, r0
 1826 0c46 112B     		cmp	r3, #17
 1827 0c48 15D9     		bls	.L83
 576:.\main.c      ****                             POS_PRINTF(0,0,"FAR FROM STACK");
 1828              		.loc 1 576 0
 1829 0c4a 414A     		ldr	r2, .L117
 1830 0c4c 494B     		ldr	r3, .L117+36
 1831 0c4e 1446     		mov	r4, r2
 1832 0c50 0FCB     		ldmia	r3, {r0, r1, r2, r3}
 1833 0c52 07C4     		stmia	r4!, {r0, r1, r2}
ARM GAS  C:\Users\xavieran\AppData\Local\Temp\ccI2E9GN.s 			page 52


 1834 0c54 2380     		strh	r3, [r4]	@ movhi
 1835 0c56 0234     		adds	r4, r4, #2
 1836 0c58 1B0C     		lsrs	r3, r3, #16
 1837 0c5a 2370     		strb	r3, [r4]
 1838 0c5c 0020     		movs	r0, #0
 1839 0c5e 0021     		movs	r1, #0
 1840 0c60 FFF7FEFF 		bl	LCD_Position
 1841 0c64 3A48     		ldr	r0, .L117
 1842 0c66 FFF7FEFF 		bl	LCD_PrintString
 577:.\main.c      ****                             go_forward(300, 255);
 1843              		.loc 1 577 0
 1844 0c6a 4FF49670 		mov	r0, #300
 1845 0c6e FF21     		movs	r1, #255
 1846 0c70 FFF7FEFF 		bl	go_forward
 1847 0c74 12E0     		b	.L81
 1848              	.L83:
 579:.\main.c      ****                             POS_PRINTF(0,0,"between 12 and 17");
 1849              		.loc 1 579 0
 1850 0c76 364A     		ldr	r2, .L117
 1851 0c78 3F4B     		ldr	r3, .L117+40
 1852 0c7a 1446     		mov	r4, r2
 1853 0c7c 1D46     		mov	r5, r3
 1854 0c7e 0FCD     		ldmia	r5!, {r0, r1, r2, r3}
 1855 0c80 0FC4     		stmia	r4!, {r0, r1, r2, r3}
 1856 0c82 2B68     		ldr	r3, [r5]
 1857 0c84 2380     		strh	r3, [r4]	@ movhi
 1858 0c86 0020     		movs	r0, #0
 1859 0c88 0021     		movs	r1, #0
 1860 0c8a FFF7FEFF 		bl	LCD_Position
 1861 0c8e 3048     		ldr	r0, .L117
 1862 0c90 FFF7FEFF 		bl	LCD_PrintString
 580:.\main.c      ****                             go_forward(200, 255);
 1863              		.loc 1 580 0
 1864 0c94 C820     		movs	r0, #200
 1865 0c96 FF21     		movs	r1, #255
 1866 0c98 FFF7FEFF 		bl	go_forward
 1867              	.L81:
 582:.\main.c      ****                         CyDelay(300);
 1868              		.loc 1 582 0
 1869 0c9c 4FF49670 		mov	r0, #300
 1870 0ca0 FFF7FEFF 		bl	CyDelay
 1871              	.L79:
 565:.\main.c      ****                     while (!on_stack){
 1872              		.loc 1 565 0 discriminator 1
 1873 0ca4 FB69     		ldr	r3, [r7, #28]
 1874 0ca6 002B     		cmp	r3, #0
 1875 0ca8 3FF47BAF 		beq	.L84
 589:.\main.c      ****                     int ultra = get_mean_ultra_s();
 1876              		.loc 1 589 0
 1877 0cac FFF7FEFF 		bl	get_mean_ultra_s
 1878 0cb0 0346     		mov	r3, r0
 1879 0cb2 BB61     		str	r3, [r7, #24]
 590:.\main.c      ****                     int stackable = 0;
 1880              		.loc 1 590 0
 1881 0cb4 0023     		movs	r3, #0
 1882 0cb6 7B61     		str	r3, [r7, #20]
 591:.\main.c      ****                     switch (pucks_gotten){
ARM GAS  C:\Users\xavieran\AppData\Local\Temp\ccI2E9GN.s 			page 53


 1883              		.loc 1 591 0
 1884 0cb8 BB6C     		ldr	r3, [r7, #72]
 1885 0cba 032B     		cmp	r3, #3
 1886 0cbc 00F09380 		beq	.L108
 1887 0cc0 042B     		cmp	r3, #4
 1888 0cc2 00F0D280 		beq	.L109
 1889 0cc6 022B     		cmp	r3, #2
 1890 0cc8 35D0     		beq	.L110
 1891 0cca DBE0     		b	.L85
 1892              	.L93:
 594:.\main.c      ****                                 ultra = get_mean_ultra_s();
 1893              		.loc 1 594 0
 1894 0ccc FFF7FEFF 		bl	get_mean_ultra_s
 1895 0cd0 0346     		mov	r3, r0
 1896 0cd2 BB61     		str	r3, [r7, #24]
 595:.\main.c      ****                                 POS_PRINTF(1,0,"ULTRA: %d", ultra);
 1897              		.loc 1 595 0
 1898 0cd4 1E48     		ldr	r0, .L117
 1899 0cd6 1F49     		ldr	r1, .L117+4
 1900 0cd8 BA69     		ldr	r2, [r7, #24]
 1901 0cda FFF7FEFF 		bl	sprintf
 1902 0cde 0120     		movs	r0, #1
 1903 0ce0 0021     		movs	r1, #0
 1904 0ce2 FFF7FEFF 		bl	LCD_Position
 1905 0ce6 1A48     		ldr	r0, .L117
 1906 0ce8 FFF7FEFF 		bl	LCD_PrintString
 596:.\main.c      ****                                 if (ultra > LEVEL_1_DIST + 1){
 1907              		.loc 1 596 0
 1908 0cec BB69     		ldr	r3, [r7, #24]
 1909 0cee 0F2B     		cmp	r3, #15
 1910 0cf0 0CDD     		ble	.L90
 597:.\main.c      ****                                     go_forward(300, 140);
 1911              		.loc 1 597 0
 1912 0cf2 4FF49670 		mov	r0, #300
 1913 0cf6 8C21     		movs	r1, #140
 1914 0cf8 FFF7FEFF 		bl	go_forward
 598:.\main.c      ****                                     rotate_degrees(0);
 1915              		.loc 1 598 0
 1916 0cfc 0020     		movs	r0, #0
 1917 0cfe FFF7FEFF 		bl	rotate_degrees
 599:.\main.c      ****                                     CyDelay(300);
 1918              		.loc 1 599 0
 1919 0d02 4FF49670 		mov	r0, #300
 1920 0d06 FFF7FEFF 		bl	CyDelay
 1921 0d0a 15E0     		b	.L89
 1922              	.L90:
 600:.\main.c      ****                                 } else if (ultra < LEVEL_1_DIST){
 1923              		.loc 1 600 0
 1924 0d0c BB69     		ldr	r3, [r7, #24]
 1925 0d0e 0D2B     		cmp	r3, #13
 1926 0d10 0BDC     		bgt	.L91
 601:.\main.c      ****                                     go_backward(140,140);
 1927              		.loc 1 601 0
 1928 0d12 8C20     		movs	r0, #140
 1929 0d14 8C21     		movs	r1, #140
 1930 0d16 FFF7FEFF 		bl	go_backward
 602:.\main.c      ****                                     rotate_degrees(0);
ARM GAS  C:\Users\xavieran\AppData\Local\Temp\ccI2E9GN.s 			page 54


 1931              		.loc 1 602 0
 1932 0d1a 0020     		movs	r0, #0
 1933 0d1c FFF7FEFF 		bl	rotate_degrees
 603:.\main.c      ****                                     CyDelay(300);
 1934              		.loc 1 603 0
 1935 0d20 4FF49670 		mov	r0, #300
 1936 0d24 FFF7FEFF 		bl	CyDelay
 1937 0d28 06E0     		b	.L89
 1938              	.L91:
 604:.\main.c      ****                                 } else if (ultra == LEVEL_1_DIST){
 1939              		.loc 1 604 0
 1940 0d2a BB69     		ldr	r3, [r7, #24]
 1941 0d2c 0E2B     		cmp	r3, #14
 1942 0d2e 03D1     		bne	.L89
 605:.\main.c      ****                                     stackable = 1;
 1943              		.loc 1 605 0
 1944 0d30 0123     		movs	r3, #1
 1945 0d32 7B61     		str	r3, [r7, #20]
 1946 0d34 00E0     		b	.L89
 1947              	.L110:
 593:.\main.c      ****                             while (!within_range(LEVEL_1_DIST,ultra,LEVEL_1_DIST + 1) && !stackable
 1948              		.loc 1 593 0
 1949 0d36 00BF     		nop
 1950              	.L89:
 593:.\main.c      ****                             while (!within_range(LEVEL_1_DIST,ultra,LEVEL_1_DIST + 1) && !stackable
 1951              		.loc 1 593 0 is_stmt 0 discriminator 1
 1952 0d38 0E20     		movs	r0, #14
 1953 0d3a B969     		ldr	r1, [r7, #24]
 1954 0d3c 0F22     		movs	r2, #15
 1955 0d3e FFF7FEFF 		bl	within_range
 1956 0d42 0346     		mov	r3, r0
 1957 0d44 002B     		cmp	r3, #0
 1958 0d46 02D1     		bne	.L92
 593:.\main.c      ****                             while (!within_range(LEVEL_1_DIST,ultra,LEVEL_1_DIST + 1) && !stackable
 1959              		.loc 1 593 0 discriminator 2
 1960 0d48 7B69     		ldr	r3, [r7, #20]
 1961 0d4a 002B     		cmp	r3, #0
 1962 0d4c BED0     		beq	.L93
 1963              	.L92:
 608:.\main.c      ****                             break;   
 1964              		.loc 1 608 0 is_stmt 1
 1965 0d4e 99E0     		b	.L85
 1966              	.L118:
 1967              		.align	2
 1968              	.L117:
 1969 0d50 00000000 		.word	outString
 1970 0d54 38010000 		.word	.LC22
 1971 0d58 00000000 		.word	STALL_SPEED
 1972 0d5c 44010000 		.word	.LC23
 1973 0d60 00000000 		.word	HEADING_ERROR_LIMIT
 1974 0d64 54010000 		.word	.LC24
 1975 0d68 60010000 		.word	.LC25
 1976 0d6c 6C010000 		.word	.LC26
 1977 0d70 78010000 		.word	.LC27
 1978 0d74 88010000 		.word	.LC28
 1979 0d78 98010000 		.word	.LC29
 1980              	.L98:
ARM GAS  C:\Users\xavieran\AppData\Local\Temp\ccI2E9GN.s 			page 55


 611:.\main.c      ****                                 ultra = get_mean_ultra_s();
 1981              		.loc 1 611 0
 1982 0d7c FFF7FEFF 		bl	get_mean_ultra_s
 1983 0d80 0346     		mov	r3, r0
 1984 0d82 BB61     		str	r3, [r7, #24]
 612:.\main.c      ****                                 POS_PRINTF(1,0,"ULTRA: %d", ultra);
 1985              		.loc 1 612 0
 1986 0d84 7148     		ldr	r0, .L119
 1987 0d86 7249     		ldr	r1, .L119+4
 1988 0d88 BA69     		ldr	r2, [r7, #24]
 1989 0d8a FFF7FEFF 		bl	sprintf
 1990 0d8e 0120     		movs	r0, #1
 1991 0d90 0021     		movs	r1, #0
 1992 0d92 FFF7FEFF 		bl	LCD_Position
 1993 0d96 6D48     		ldr	r0, .L119
 1994 0d98 FFF7FEFF 		bl	LCD_PrintString
 613:.\main.c      ****                                 if (ultra > LEVEL_2_DIST + 1){
 1995              		.loc 1 613 0
 1996 0d9c BB69     		ldr	r3, [r7, #24]
 1997 0d9e 102B     		cmp	r3, #16
 1998 0da0 0CDD     		ble	.L95
 614:.\main.c      ****                                     go_forward(300, 140);
 1999              		.loc 1 614 0
 2000 0da2 4FF49670 		mov	r0, #300
 2001 0da6 8C21     		movs	r1, #140
 2002 0da8 FFF7FEFF 		bl	go_forward
 615:.\main.c      ****                                     rotate_degrees(0);
 2003              		.loc 1 615 0
 2004 0dac 0020     		movs	r0, #0
 2005 0dae FFF7FEFF 		bl	rotate_degrees
 616:.\main.c      ****                                     CyDelay(300);
 2006              		.loc 1 616 0
 2007 0db2 4FF49670 		mov	r0, #300
 2008 0db6 FFF7FEFF 		bl	CyDelay
 2009 0dba 15E0     		b	.L94
 2010              	.L95:
 617:.\main.c      ****                                 } else if (ultra < LEVEL_2_DIST){
 2011              		.loc 1 617 0
 2012 0dbc BB69     		ldr	r3, [r7, #24]
 2013 0dbe 0E2B     		cmp	r3, #14
 2014 0dc0 0BDC     		bgt	.L96
 618:.\main.c      ****                                     go_backward(140,140);
 2015              		.loc 1 618 0
 2016 0dc2 8C20     		movs	r0, #140
 2017 0dc4 8C21     		movs	r1, #140
 2018 0dc6 FFF7FEFF 		bl	go_backward
 619:.\main.c      ****                                     rotate_degrees(0);
 2019              		.loc 1 619 0
 2020 0dca 0020     		movs	r0, #0
 2021 0dcc FFF7FEFF 		bl	rotate_degrees
 620:.\main.c      ****                                     CyDelay(300);
 2022              		.loc 1 620 0
 2023 0dd0 4FF49670 		mov	r0, #300
 2024 0dd4 FFF7FEFF 		bl	CyDelay
 2025 0dd8 06E0     		b	.L94
 2026              	.L96:
 621:.\main.c      ****                                 } else if (ultra == LEVEL_2_DIST){
ARM GAS  C:\Users\xavieran\AppData\Local\Temp\ccI2E9GN.s 			page 56


 2027              		.loc 1 621 0
 2028 0dda BB69     		ldr	r3, [r7, #24]
 2029 0ddc 0F2B     		cmp	r3, #15
 2030 0dde 03D1     		bne	.L94
 622:.\main.c      ****                                     stackable = 1;
 2031              		.loc 1 622 0
 2032 0de0 0123     		movs	r3, #1
 2033 0de2 7B61     		str	r3, [r7, #20]
 2034 0de4 00E0     		b	.L94
 2035              	.L108:
 610:.\main.c      ****                             while (!within_range(LEVEL_2_DIST,ultra,LEVEL_2_DIST+1) && !stackable){
 2036              		.loc 1 610 0
 2037 0de6 00BF     		nop
 2038              	.L94:
 610:.\main.c      ****                             while (!within_range(LEVEL_2_DIST,ultra,LEVEL_2_DIST+1) && !stackable){
 2039              		.loc 1 610 0 is_stmt 0 discriminator 1
 2040 0de8 0F20     		movs	r0, #15
 2041 0dea B969     		ldr	r1, [r7, #24]
 2042 0dec 1022     		movs	r2, #16
 2043 0dee FFF7FEFF 		bl	within_range
 2044 0df2 0346     		mov	r3, r0
 2045 0df4 002B     		cmp	r3, #0
 2046 0df6 02D1     		bne	.L97
 610:.\main.c      ****                             while (!within_range(LEVEL_2_DIST,ultra,LEVEL_2_DIST+1) && !stackable){
 2047              		.loc 1 610 0 discriminator 2
 2048 0df8 7B69     		ldr	r3, [r7, #20]
 2049 0dfa 002B     		cmp	r3, #0
 2050 0dfc BED0     		beq	.L98
 2051              	.L97:
 625:.\main.c      ****                             break;
 2052              		.loc 1 625 0 is_stmt 1
 2053 0dfe 41E0     		b	.L85
 2054              	.L103:
 628:.\main.c      ****                                 ultra = get_mean_ultra_s();
 2055              		.loc 1 628 0
 2056 0e00 FFF7FEFF 		bl	get_mean_ultra_s
 2057 0e04 0346     		mov	r3, r0
 2058 0e06 BB61     		str	r3, [r7, #24]
 629:.\main.c      ****                                 POS_PRINTF(1,0,"ULTRA: %d", ultra);
 2059              		.loc 1 629 0
 2060 0e08 5048     		ldr	r0, .L119
 2061 0e0a 5149     		ldr	r1, .L119+4
 2062 0e0c BA69     		ldr	r2, [r7, #24]
 2063 0e0e FFF7FEFF 		bl	sprintf
 2064 0e12 0120     		movs	r0, #1
 2065 0e14 0021     		movs	r1, #0
 2066 0e16 FFF7FEFF 		bl	LCD_Position
 2067 0e1a 4C48     		ldr	r0, .L119
 2068 0e1c FFF7FEFF 		bl	LCD_PrintString
 630:.\main.c      ****                                 if (ultra > LEVEL_3_DIST + 1){
 2069              		.loc 1 630 0
 2070 0e20 BB69     		ldr	r3, [r7, #24]
 2071 0e22 112B     		cmp	r3, #17
 2072 0e24 0CDD     		ble	.L100
 631:.\main.c      ****                                     go_forward(300, 140);
 2073              		.loc 1 631 0
 2074 0e26 4FF49670 		mov	r0, #300
ARM GAS  C:\Users\xavieran\AppData\Local\Temp\ccI2E9GN.s 			page 57


 2075 0e2a 8C21     		movs	r1, #140
 2076 0e2c FFF7FEFF 		bl	go_forward
 632:.\main.c      ****                                     rotate_degrees(0);
 2077              		.loc 1 632 0
 2078 0e30 0020     		movs	r0, #0
 2079 0e32 FFF7FEFF 		bl	rotate_degrees
 633:.\main.c      ****                                     CyDelay(300);
 2080              		.loc 1 633 0
 2081 0e36 4FF49670 		mov	r0, #300
 2082 0e3a FFF7FEFF 		bl	CyDelay
 2083 0e3e 15E0     		b	.L99
 2084              	.L100:
 634:.\main.c      ****                                 } else if (ultra < LEVEL_3_DIST){
 2085              		.loc 1 634 0
 2086 0e40 BB69     		ldr	r3, [r7, #24]
 2087 0e42 0F2B     		cmp	r3, #15
 2088 0e44 0BDC     		bgt	.L101
 635:.\main.c      ****                                     go_backward(140,140);
 2089              		.loc 1 635 0
 2090 0e46 8C20     		movs	r0, #140
 2091 0e48 8C21     		movs	r1, #140
 2092 0e4a FFF7FEFF 		bl	go_backward
 636:.\main.c      ****                                     rotate_degrees(0);
 2093              		.loc 1 636 0
 2094 0e4e 0020     		movs	r0, #0
 2095 0e50 FFF7FEFF 		bl	rotate_degrees
 637:.\main.c      ****                                     CyDelay(300);
 2096              		.loc 1 637 0
 2097 0e54 4FF49670 		mov	r0, #300
 2098 0e58 FFF7FEFF 		bl	CyDelay
 2099 0e5c 06E0     		b	.L99
 2100              	.L101:
 638:.\main.c      ****                                 } else if (ultra == LEVEL_3_DIST){
 2101              		.loc 1 638 0
 2102 0e5e BB69     		ldr	r3, [r7, #24]
 2103 0e60 102B     		cmp	r3, #16
 2104 0e62 03D1     		bne	.L99
 639:.\main.c      ****                                     stackable = 1;
 2105              		.loc 1 639 0
 2106 0e64 0123     		movs	r3, #1
 2107 0e66 7B61     		str	r3, [r7, #20]
 2108 0e68 00E0     		b	.L99
 2109              	.L109:
 627:.\main.c      ****                             while (!within_range(LEVEL_3_DIST,ultra,LEVEL_3_DIST+10) && !stackable)
 2110              		.loc 1 627 0
 2111 0e6a 00BF     		nop
 2112              	.L99:
 627:.\main.c      ****                             while (!within_range(LEVEL_3_DIST,ultra,LEVEL_3_DIST+10) && !stackable)
 2113              		.loc 1 627 0 is_stmt 0 discriminator 1
 2114 0e6c 1020     		movs	r0, #16
 2115 0e6e B969     		ldr	r1, [r7, #24]
 2116 0e70 1A22     		movs	r2, #26
 2117 0e72 FFF7FEFF 		bl	within_range
 2118 0e76 0346     		mov	r3, r0
 2119 0e78 002B     		cmp	r3, #0
 2120 0e7a 02D1     		bne	.L102
 627:.\main.c      ****                             while (!within_range(LEVEL_3_DIST,ultra,LEVEL_3_DIST+10) && !stackable)
ARM GAS  C:\Users\xavieran\AppData\Local\Temp\ccI2E9GN.s 			page 58


 2121              		.loc 1 627 0 discriminator 2
 2122 0e7c 7B69     		ldr	r3, [r7, #20]
 2123 0e7e 002B     		cmp	r3, #0
 2124 0e80 BED0     		beq	.L103
 2125              	.L102:
 642:.\main.c      ****                             break;
 2126              		.loc 1 642 0 is_stmt 1
 2127 0e82 00BF     		nop
 2128              	.L85:
 644:.\main.c      ****                     arm_inbetween_level(pucks_gotten - 1, pucks_gotten);
 2129              		.loc 1 644 0
 2130 0e84 BB6C     		ldr	r3, [r7, #72]
 2131 0e86 013B     		subs	r3, r3, #1
 2132 0e88 1846     		mov	r0, r3
 2133 0e8a B96C     		ldr	r1, [r7, #72]
 2134 0e8c FFF7FEFF 		bl	arm_inbetween_level
 645:.\main.c      ****                     CyDelay(800);
 2135              		.loc 1 645 0
 2136 0e90 4FF44870 		mov	r0, #800
 2137 0e94 FFF7FEFF 		bl	CyDelay
 646:.\main.c      ****                     drop_puck();
 2138              		.loc 1 646 0
 2139 0e98 FFF7FEFF 		bl	drop_puck
 647:.\main.c      ****                     CyDelay(200);
 2140              		.loc 1 647 0
 2141 0e9c C820     		movs	r0, #200
 2142 0e9e FFF7FEFF 		bl	CyDelay
 648:.\main.c      ****                     go_backward(1400, 255);
 2143              		.loc 1 648 0
 2144 0ea2 4FF4AF60 		mov	r0, #1400
 2145 0ea6 FF21     		movs	r1, #255
 2146 0ea8 FFF7FEFF 		bl	go_backward
 649:.\main.c      ****                     arm_carry_home();
 2147              		.loc 1 649 0
 2148 0eac FFF7FEFF 		bl	arm_carry_home
 650:.\main.c      ****                     arm_set_level(0);
 2149              		.loc 1 650 0
 2150 0eb0 0020     		movs	r0, #0
 2151 0eb2 FFF7FEFF 		bl	arm_set_level
 651:.\main.c      ****                     CyDelay(200);
 2152              		.loc 1 651 0
 2153 0eb6 C820     		movs	r0, #200
 2154 0eb8 FFF7FEFF 		bl	CyDelay
 2155              	.L78:
 2156              	.LBE5:
 654:.\main.c      ****                 HEADING_ERROR_LIMIT = 3;
 2157              		.loc 1 654 0
 2158 0ebc 254B     		ldr	r3, .L119+8
 2159 0ebe 0322     		movs	r2, #3
 2160 0ec0 1A70     		strb	r2, [r3]
 655:.\main.c      ****                 set_heading(0);
 2161              		.loc 1 655 0
 2162 0ec2 0020     		movs	r0, #0
 2163 0ec4 FFF7FEFF 		bl	set_heading
 656:.\main.c      ****                 rotate_degrees(0);
 2164              		.loc 1 656 0
 2165 0ec8 0020     		movs	r0, #0
ARM GAS  C:\Users\xavieran\AppData\Local\Temp\ccI2E9GN.s 			page 59


 2166 0eca FFF7FEFF 		bl	rotate_degrees
 657:.\main.c      ****                 go_backward(1500, 255);
 2167              		.loc 1 657 0
 2168 0ece 40F2DC50 		movw	r0, #1500
 2169 0ed2 FF21     		movs	r1, #255
 2170 0ed4 FFF7FEFF 		bl	go_backward
 659:.\main.c      ****                 if (pucks_gotten == 4){
 2171              		.loc 1 659 0
 2172 0ed8 BB6C     		ldr	r3, [r7, #72]
 2173 0eda 042B     		cmp	r3, #4
 2174 0edc 03D1     		bne	.L104
 660:.\main.c      ****                     state = S_GRAB_BEACON;
 2175              		.loc 1 660 0
 2176 0ede 0E23     		movs	r3, #14
 2177 0ee0 A7F84E30 		strh	r3, [r7, #78]	@ movhi
 664:.\main.c      ****                 break;
 2178              		.loc 1 664 0
 2179 0ee4 30E0     		b	.L11
 2180              	.L104:
 662:.\main.c      ****                     state = S_LEAVE_BASE;
 2181              		.loc 1 662 0
 2182 0ee6 0123     		movs	r3, #1
 2183 0ee8 A7F84E30 		strh	r3, [r7, #78]	@ movhi
 664:.\main.c      ****                 break;
 2184              		.loc 1 664 0
 2185 0eec 2CE0     		b	.L11
 2186              	.L26:
 667:.\main.c      ****                 POS_PRINTF(0,0,"GOT HOME");
 2187              		.loc 1 667 0
 2188 0eee 174B     		ldr	r3, .L119
 2189 0ef0 194A     		ldr	r2, .L119+12
 2190 0ef2 07CA     		ldmia	r2, {r0, r1, r2}
 2191 0ef4 03C3     		stmia	r3!, {r0, r1}
 2192 0ef6 1A70     		strb	r2, [r3]
 2193 0ef8 0020     		movs	r0, #0
 2194 0efa 0021     		movs	r1, #0
 2195 0efc FFF7FEFF 		bl	LCD_Position
 2196 0f00 1248     		ldr	r0, .L119
 2197 0f02 FFF7FEFF 		bl	LCD_PrintString
 668:.\main.c      ****                 set_heading(0);
 2198              		.loc 1 668 0
 2199 0f06 0020     		movs	r0, #0
 2200 0f08 FFF7FEFF 		bl	set_heading
 669:.\main.c      ****                 rotate_degrees(0);
 2201              		.loc 1 669 0
 2202 0f0c 0020     		movs	r0, #0
 2203 0f0e FFF7FEFF 		bl	rotate_degrees
 670:.\main.c      ****                 arm_set_level(6);
 2204              		.loc 1 670 0
 2205 0f12 0620     		movs	r0, #6
 2206 0f14 FFF7FEFF 		bl	arm_set_level
 671:.\main.c      ****                 go_forward(500, 255);
 2207              		.loc 1 671 0
 2208 0f18 4FF4FA70 		mov	r0, #500
 2209 0f1c FF21     		movs	r1, #255
 2210 0f1e FFF7FEFF 		bl	go_forward
 672:.\main.c      ****                 pickup_angled_puck();
ARM GAS  C:\Users\xavieran\AppData\Local\Temp\ccI2E9GN.s 			page 60


 2211              		.loc 1 672 0
 2212 0f22 FFF7FEFF 		bl	pickup_angled_puck
 673:.\main.c      ****                 break;
 2213              		.loc 1 673 0
 2214 0f26 0FE0     		b	.L11
 2215              	.L19:
 675:.\main.c      ****                 POS_PRINTF(0,0,"VICTORY!!!");
 2216              		.loc 1 675 0
 2217 0f28 084B     		ldr	r3, .L119
 2218 0f2a 0C4A     		ldr	r2, .L119+16
 2219 0f2c 07CA     		ldmia	r2, {r0, r1, r2}
 2220 0f2e 03C3     		stmia	r3!, {r0, r1}
 2221 0f30 1A80     		strh	r2, [r3]	@ movhi
 2222 0f32 0233     		adds	r3, r3, #2
 2223 0f34 120C     		lsrs	r2, r2, #16
 2224 0f36 1A70     		strb	r2, [r3]
 2225 0f38 0020     		movs	r0, #0
 2226 0f3a 0021     		movs	r1, #0
 2227 0f3c FFF7FEFF 		bl	LCD_Position
 2228 0f40 0248     		ldr	r0, .L119
 2229 0f42 FFF7FEFF 		bl	LCD_PrintString
 676:.\main.c      ****                 break;
 2230              		.loc 1 676 0
 2231 0f46 00BF     		nop
 2232              	.L11:
 2233              	.LBE2:
 2234              		.loc 1 686 0
 2235 0f48 FFF79AB8 		b	.L107
 2236              	.L120:
 2237              		.align	2
 2238              	.L119:
 2239 0f4c 00000000 		.word	outString
 2240 0f50 38010000 		.word	.LC22
 2241 0f54 00000000 		.word	HEADING_ERROR_LIMIT
 2242 0f58 AC010000 		.word	.LC30
 2243 0f5c B8010000 		.word	.LC31
 2244              		.cfi_endproc
 2245              	.LFE65:
 2246              		.size	main, .-main
 2247              		.section	.rodata
 2248 01c3 00       		.align	2
 2249              	.LC32:
 2250 01c4 583A256C 		.ascii	"X:%ld Y:%ld\000"
 2250      6420593A 
 2250      256C6400 
 2251              		.align	2
 2252              	.LC33:
 2253 01d0 543A256C 		.ascii	"T:%ld/%ld\000"
 2253      642F256C 
 2253      6400
 2254              		.global	__aeabi_i2d
 2255              		.global	__aeabi_d2f
 2256              		.global	__aeabi_f2d
 2257              		.global	__aeabi_d2iz
 2258 01da 0000     		.align	2
 2259              	.LC34:
 2260 01dc 583A2564 		.ascii	"X:%d Y:%d\000"
ARM GAS  C:\Users\xavieran\AppData\Local\Temp\ccI2E9GN.s 			page 61


 2260      20593A25 
 2260      6400
 2261 01e6 0000     		.section	.text.calibrate_compass,"ax",%progbits
 2262              		.align	2
 2263              		.global	calibrate_compass
 2264              		.thumb
 2265              		.thumb_func
 2266              		.type	calibrate_compass, %function
 2267              	calibrate_compass:
 2268              	.LFB66:
 687:.\main.c      **** }
 688:.\main.c      **** 
 689:.\main.c      **** void calibrate_compass()
 690:.\main.c      **** {
 2269              		.loc 1 690 0
 2270              		.cfi_startproc
 2271              		@ args = 0, pretend = 0, frame = 56
 2272              		@ frame_needed = 1, uses_anonymous_args = 0
 2273 0000 80B5     		push	{r7, lr}
 2274              		.cfi_def_cfa_offset 8
 2275              		.cfi_offset 7, -8
 2276              		.cfi_offset 14, -4
 2277 0002 8EB0     		sub	sp, sp, #56
 2278              		.cfi_def_cfa_offset 64
 2279 0004 00AF     		add	r7, sp, #0
 2280              		.cfi_def_cfa_register 7
 691:.\main.c      ****     char outString[25];
 692:.\main.c      ****     float avx = 0,avy = 0;
 2281              		.loc 1 692 0
 2282 0006 4FF00003 		mov	r3, #0
 2283 000a BB62     		str	r3, [r7, #40]	@ float
 2284 000c 4FF00003 		mov	r3, #0
 2285 0010 7B62     		str	r3, [r7, #36]	@ float
 693:.\main.c      ****     int trials = 2000;
 2286              		.loc 1 693 0
 2287 0012 4FF4FA63 		mov	r3, #2000
 2288 0016 3B62     		str	r3, [r7, #32]
 694:.\main.c      ****     int32 x = 0,y = 0;
 2289              		.loc 1 694 0
 2290 0018 0023     		movs	r3, #0
 2291 001a 7B63     		str	r3, [r7, #52]
 2292 001c 0023     		movs	r3, #0
 2293 001e 3B63     		str	r3, [r7, #48]
 695:.\main.c      ****     int i;
 696:.\main.c      ****     rotate_left(130);
 2294              		.loc 1 696 0
 2295 0020 8220     		movs	r0, #130
 2296 0022 FFF7FEFF 		bl	rotate_left
 697:.\main.c      ****     for(i = 0; i < trials; i++)
 2297              		.loc 1 697 0
 2298 0026 0023     		movs	r3, #0
 2299 0028 FB62     		str	r3, [r7, #44]
 2300 002a 3DE0     		b	.L122
 2301              	.L124:
 698:.\main.c      ****     {
 699:.\main.c      ****         while(!compass_ready){}
 2302              		.loc 1 699 0
ARM GAS  C:\Users\xavieran\AppData\Local\Temp\ccI2E9GN.s 			page 62


 2303 002c 00BF     		nop
 2304              	.L123:
 2305              		.loc 1 699 0 is_stmt 0 discriminator 1
 2306 002e 464B     		ldr	r3, .L126
 2307 0030 1B78     		ldrb	r3, [r3]
 2308 0032 DBB2     		uxtb	r3, r3
 2309 0034 002B     		cmp	r3, #0
 2310 0036 FAD0     		beq	.L123
 700:.\main.c      ****         compass_read();
 2311              		.loc 1 700 0 is_stmt 1
 2312 0038 FFF7FEFF 		bl	compass_read
 701:.\main.c      ****         x += compass_x;
 2313              		.loc 1 701 0
 2314 003c 434B     		ldr	r3, .L126+4
 2315 003e 1B88     		ldrh	r3, [r3]
 2316 0040 1BB2     		sxth	r3, r3
 2317 0042 7A6B     		ldr	r2, [r7, #52]
 2318 0044 1344     		add	r3, r3, r2
 2319 0046 7B63     		str	r3, [r7, #52]
 702:.\main.c      ****         y += compass_y;
 2320              		.loc 1 702 0
 2321 0048 414B     		ldr	r3, .L126+8
 2322 004a 1B88     		ldrh	r3, [r3]
 2323 004c 1BB2     		sxth	r3, r3
 2324 004e 3A6B     		ldr	r2, [r7, #48]
 2325 0050 1344     		add	r3, r3, r2
 2326 0052 3B63     		str	r3, [r7, #48]
 703:.\main.c      ****         LCD_ClearDisplay();
 2327              		.loc 1 703 0
 2328 0054 0120     		movs	r0, #1
 2329 0056 FFF7FEFF 		bl	LCD_WriteControl
 704:.\main.c      ****         //POS_PRINTF(0,0,"X:%ld Y:%ld",(int) round(avx),(int) round(avy));
 705:.\main.c      ****         //POS_PRINTF(1,0,"C:%ld/%ld",i,(int) round(trials));
 706:.\main.c      ****         POS_PRINTF(0,0,"X:%ld Y:%ld",x/i,y/i);
 2330              		.loc 1 706 0
 2331 005a 7A6B     		ldr	r2, [r7, #52]
 2332 005c FB6A     		ldr	r3, [r7, #44]
 2333 005e 92FBF3F2 		sdiv	r2, r2, r3
 2334 0062 396B     		ldr	r1, [r7, #48]
 2335 0064 FB6A     		ldr	r3, [r7, #44]
 2336 0066 91FBF3F3 		sdiv	r3, r1, r3
 2337 006a 391D     		adds	r1, r7, #4
 2338 006c 0846     		mov	r0, r1
 2339 006e 3949     		ldr	r1, .L126+12
 2340 0070 FFF7FEFF 		bl	sprintf
 2341 0074 0020     		movs	r0, #0
 2342 0076 0021     		movs	r1, #0
 2343 0078 FFF7FEFF 		bl	LCD_Position
 2344 007c 3B1D     		adds	r3, r7, #4
 2345 007e 1846     		mov	r0, r3
 2346 0080 FFF7FEFF 		bl	LCD_PrintString
 707:.\main.c      ****         POS_PRINTF(1,0,"T:%ld/%ld",i,trials);
 2347              		.loc 1 707 0
 2348 0084 3B1D     		adds	r3, r7, #4
 2349 0086 1846     		mov	r0, r3
 2350 0088 3349     		ldr	r1, .L126+16
 2351 008a FA6A     		ldr	r2, [r7, #44]
ARM GAS  C:\Users\xavieran\AppData\Local\Temp\ccI2E9GN.s 			page 63


 2352 008c 3B6A     		ldr	r3, [r7, #32]
 2353 008e FFF7FEFF 		bl	sprintf
 2354 0092 0120     		movs	r0, #1
 2355 0094 0021     		movs	r1, #0
 2356 0096 FFF7FEFF 		bl	LCD_Position
 2357 009a 3B1D     		adds	r3, r7, #4
 2358 009c 1846     		mov	r0, r3
 2359 009e FFF7FEFF 		bl	LCD_PrintString
 697:.\main.c      ****     for(i = 0; i < trials; i++)
 2360              		.loc 1 697 0
 2361 00a2 FB6A     		ldr	r3, [r7, #44]
 2362 00a4 0133     		adds	r3, r3, #1
 2363 00a6 FB62     		str	r3, [r7, #44]
 2364              	.L122:
 697:.\main.c      ****     for(i = 0; i < trials; i++)
 2365              		.loc 1 697 0 is_stmt 0 discriminator 1
 2366 00a8 FA6A     		ldr	r2, [r7, #44]
 2367 00aa 3B6A     		ldr	r3, [r7, #32]
 2368 00ac 9A42     		cmp	r2, r3
 2369 00ae BDDB     		blt	.L124
 708:.\main.c      ****     }
 709:.\main.c      ****     setCoast(MBOTH);
 2370              		.loc 1 709 0 is_stmt 1
 2371 00b0 0320     		movs	r0, #3
 2372 00b2 FFF7FEFF 		bl	setCoast
 710:.\main.c      ****     avx = x/(1.0);
 2373              		.loc 1 710 0
 2374 00b6 786B     		ldr	r0, [r7, #52]
 2375 00b8 FFF7FEFF 		bl	__aeabi_i2d
 2376 00bc 0246     		mov	r2, r0
 2377 00be 0B46     		mov	r3, r1
 2378 00c0 1046     		mov	r0, r2
 2379 00c2 1946     		mov	r1, r3
 2380 00c4 FFF7FEFF 		bl	__aeabi_d2f
 2381 00c8 0346     		mov	r3, r0
 2382 00ca BB62     		str	r3, [r7, #40]	@ float
 711:.\main.c      ****     avy = y/(1.0);
 2383              		.loc 1 711 0
 2384 00cc 386B     		ldr	r0, [r7, #48]
 2385 00ce FFF7FEFF 		bl	__aeabi_i2d
 2386 00d2 0246     		mov	r2, r0
 2387 00d4 0B46     		mov	r3, r1
 2388 00d6 1046     		mov	r0, r2
 2389 00d8 1946     		mov	r1, r3
 2390 00da FFF7FEFF 		bl	__aeabi_d2f
 2391 00de 0346     		mov	r3, r0
 2392 00e0 7B62     		str	r3, [r7, #36]	@ float
 712:.\main.c      ****     x = round(avx);
 2393              		.loc 1 712 0
 2394 00e2 B86A     		ldr	r0, [r7, #40]	@ float
 2395 00e4 FFF7FEFF 		bl	__aeabi_f2d
 2396 00e8 0246     		mov	r2, r0
 2397 00ea 0B46     		mov	r3, r1
 2398 00ec 1046     		mov	r0, r2
 2399 00ee 1946     		mov	r1, r3
 2400 00f0 FFF7FEFF 		bl	round
 2401 00f4 0246     		mov	r2, r0
ARM GAS  C:\Users\xavieran\AppData\Local\Temp\ccI2E9GN.s 			page 64


 2402 00f6 0B46     		mov	r3, r1
 2403 00f8 1046     		mov	r0, r2
 2404 00fa 1946     		mov	r1, r3
 2405 00fc FFF7FEFF 		bl	__aeabi_d2iz
 2406 0100 0346     		mov	r3, r0
 2407 0102 7B63     		str	r3, [r7, #52]
 713:.\main.c      ****     y = round(avy);
 2408              		.loc 1 713 0
 2409 0104 786A     		ldr	r0, [r7, #36]	@ float
 2410 0106 FFF7FEFF 		bl	__aeabi_f2d
 2411 010a 0246     		mov	r2, r0
 2412 010c 0B46     		mov	r3, r1
 2413 010e 1046     		mov	r0, r2
 2414 0110 1946     		mov	r1, r3
 2415 0112 FFF7FEFF 		bl	round
 2416 0116 0246     		mov	r2, r0
 2417 0118 0B46     		mov	r3, r1
 2418 011a 1046     		mov	r0, r2
 2419 011c 1946     		mov	r1, r3
 2420 011e FFF7FEFF 		bl	__aeabi_d2iz
 2421 0122 0346     		mov	r3, r0
 2422 0124 3B63     		str	r3, [r7, #48]
 714:.\main.c      ****     //EEPROM1_Write(&xHIGH,0);
 715:.\main.c      ****     //EEPROM1_Write(&xLOW,1);
 716:.\main.c      ****     //EEPROM1_Write(&yHIGH,2);
 717:.\main.c      ****     //EEPROM1_Write(&yLOW,3);
 718:.\main.c      ****     sprintf(outString,"X:%d Y:%d",x,y); 
 2423              		.loc 1 718 0
 2424 0126 3B1D     		adds	r3, r7, #4
 2425 0128 1846     		mov	r0, r3
 2426 012a 0C49     		ldr	r1, .L126+20
 2427 012c 7A6B     		ldr	r2, [r7, #52]
 2428 012e 3B6B     		ldr	r3, [r7, #48]
 2429 0130 FFF7FEFF 		bl	sprintf
 719:.\main.c      ****     LCD_PosPrintString(0,0,outString);
 2430              		.loc 1 719 0
 2431 0134 0020     		movs	r0, #0
 2432 0136 0021     		movs	r1, #0
 2433 0138 FFF7FEFF 		bl	LCD_Position
 2434 013c 3B1D     		adds	r3, r7, #4
 2435 013e 1846     		mov	r0, r3
 2436 0140 FFF7FEFF 		bl	LCD_PrintString
 2437              	.L125:
 720:.\main.c      ****     while(1)
 721:.\main.c      ****     {
 722:.\main.c      ****     }
 2438              		.loc 1 722 0 discriminator 1
 2439 0144 FEE7     		b	.L125
 2440              	.L127:
 2441 0146 00BF     		.align	2
 2442              	.L126:
 2443 0148 00000000 		.word	compass_ready
 2444 014c 00000000 		.word	compass_x
 2445 0150 00000000 		.word	compass_y
 2446 0154 C4010000 		.word	.LC32
 2447 0158 D0010000 		.word	.LC33
 2448 015c DC010000 		.word	.LC34
ARM GAS  C:\Users\xavieran\AppData\Local\Temp\ccI2E9GN.s 			page 65


 2449              		.cfi_endproc
 2450              	.LFE66:
 2451              		.size	calibrate_compass, .-calibrate_compass
 2452              		.text
 2453              	.Letext0:
 2454              		.file 2 "c:\\program files (x86)\\cypress\\psoc creator\\3.2\\psoc creator\\import\\gnu\\arm\\4.8.
 2455              		.file 3 "c:\\program files (x86)\\cypress\\psoc creator\\3.2\\psoc creator\\import\\gnu\\arm\\4.8.
 2456              		.file 4 "Generated_Source\\PSoC5/cytypes.h"
 2457              		.file 5 "c:\\program files (x86)\\cypress\\psoc creator\\3.2\\psoc creator\\import\\gnu\\arm\\4.8.
 2458              		.file 6 "Generated_Source\\PSoC5/core_cm3.h"
 2459              		.file 7 "Generated_Source\\PSoC5/Camera.h"
 2460              		.file 8 "./my_camera_functions.h"
 2461              		.file 9 "<built-in>"