ARM GAS  C:\Users\xavieran\AppData\Local\Temp\ccxx6Ail.s 			page 1


   1              		.syntax unified
   2              		.cpu cortex-m3
   3              		.fpu softvfp
   4              		.eabi_attribute 20, 1
   5              		.eabi_attribute 21, 1
   6              		.eabi_attribute 23, 3
   7              		.eabi_attribute 24, 1
   8              		.eabi_attribute 25, 1
   9              		.eabi_attribute 26, 1
  10              		.eabi_attribute 30, 6
  11              		.eabi_attribute 34, 1
  12              		.eabi_attribute 18, 4
  13              		.thumb
  14              		.file	"mice.c"
  15              		.text
  16              	.Ltext0:
  17              		.cfi_sections	.debug_frame
  18              		.comm	Camera_framebuffer,50688,4
  19              		.section	.rodata
  20              		.align	2
  21              	.LC0:
  22 0000 494E4954 		.ascii	"INIT MOUSE A\000"
  22      204D4F55 
  22      53452041 
  22      00
  23 000d 000000   		.align	2
  24              	.LC1:
  25 0010 494E4954 		.ascii	"INIT MOUSE B\000"
  25      204D4F55 
  25      53452042 
  25      00
  26 001d 000000   		.section	.text.start_mice,"ax",%progbits
  27              		.align	2
  28              		.global	start_mice
  29              		.thumb
  30              		.thumb_func
  31              		.type	start_mice, %function
  32              	start_mice:
  33              	.LFB63:
  34              		.file 1 ".\\mice.c"
   1:.\mice.c      **** /* ========================================
   2:.\mice.c      ****  *
   3:.\mice.c      ****  * Copyright YOUR COMPANY, THE YEAR
   4:.\mice.c      ****  * All Rights Reserved
   5:.\mice.c      ****  * UNPUBLISHED, LICENSED SOFTWARE.
   6:.\mice.c      ****  *
   7:.\mice.c      ****  * CONFIDENTIAL AND PROPRIETARY INFORMATION
   8:.\mice.c      ****  * WHICH IS THE PROPERTY OF your company.
   9:.\mice.c      ****  *
  10:.\mice.c      ****  * ========================================
  11:.\mice.c      **** */
  12:.\mice.c      **** 
  13:.\mice.c      **** #include <project.h>
  14:.\mice.c      **** #include <mouse_a.h>
  15:.\mice.c      **** #include <mouse_b.h>
  16:.\mice.c      **** 
  17:.\mice.c      **** void start_mice(){
ARM GAS  C:\Users\xavieran\AppData\Local\Temp\ccxx6Ail.s 			page 2


  35              		.loc 1 17 0
  36              		.cfi_startproc
  37              		@ args = 0, pretend = 0, frame = 0
  38              		@ frame_needed = 1, uses_anonymous_args = 0
  39 0000 80B5     		push	{r7, lr}
  40              		.cfi_def_cfa_offset 8
  41              		.cfi_offset 7, -8
  42              		.cfi_offset 14, -4
  43 0002 00AF     		add	r7, sp, #0
  44              		.cfi_def_cfa_register 7
  18:.\mice.c      ****     sclk_a_isr_Stop();
  45              		.loc 1 18 0
  46 0004 FFF7FEFF 		bl	sclk_a_isr_Stop
  19:.\mice.c      ****     sclk_b_isr_Stop();
  47              		.loc 1 19 0
  48 0008 FFF7FEFF 		bl	sclk_b_isr_Stop
  20:.\mice.c      ****     LCD_PosPrintString(0,0,"INIT MOUSE A");
  49              		.loc 1 20 0
  50 000c 0020     		movs	r0, #0
  51 000e 0021     		movs	r1, #0
  52 0010 FFF7FEFF 		bl	LCD_Position
  53 0014 1148     		ldr	r0, .L2
  54 0016 FFF7FEFF 		bl	LCD_PrintString
  21:.\mice.c      ****     mouse_a_init();
  55              		.loc 1 21 0
  56 001a FFF7FEFF 		bl	mouse_a_init
  22:.\mice.c      ****     LCD_PosPrintString(0,0,"INIT MOUSE B");
  57              		.loc 1 22 0
  58 001e 0020     		movs	r0, #0
  59 0020 0021     		movs	r1, #0
  60 0022 FFF7FEFF 		bl	LCD_Position
  61 0026 0E48     		ldr	r0, .L2+4
  62 0028 FFF7FEFF 		bl	LCD_PrintString
  23:.\mice.c      ****     mouse_b_init();
  63              		.loc 1 23 0
  64 002c FFF7FEFF 		bl	mouse_b_init
  24:.\mice.c      ****     
  25:.\mice.c      ****     reset_sclk_a_isr();
  65              		.loc 1 25 0
  66 0030 FFF7FEFF 		bl	reset_sclk_a_isr
  26:.\mice.c      ****     reset_sclk_b_isr();
  67              		.loc 1 26 0
  68 0034 FFF7FEFF 		bl	reset_sclk_b_isr
  27:.\mice.c      ****     
  28:.\mice.c      ****     SCLK_A_ClearInterrupt();
  69              		.loc 1 28 0
  70 0038 FFF7FEFF 		bl	SCLK_A_ClearInterrupt
  29:.\mice.c      ****     SCLK_B_ClearInterrupt();
  71              		.loc 1 29 0
  72 003c FFF7FEFF 		bl	SCLK_B_ClearInterrupt
  30:.\mice.c      ****     sclk_a_isr_SetPriority(0);
  73              		.loc 1 30 0
  74 0040 0020     		movs	r0, #0
  75 0042 FFF7FEFF 		bl	sclk_a_isr_SetPriority
  31:.\mice.c      ****     sclk_b_isr_SetPriority(0);
  76              		.loc 1 31 0
  77 0046 0020     		movs	r0, #0
ARM GAS  C:\Users\xavieran\AppData\Local\Temp\ccxx6Ail.s 			page 3


  78 0048 FFF7FEFF 		bl	sclk_b_isr_SetPriority
  32:.\mice.c      ****     sclk_a_isr_StartEx(MY_SCLK_A_ISR);
  79              		.loc 1 32 0
  80 004c 0548     		ldr	r0, .L2+8
  81 004e FFF7FEFF 		bl	sclk_a_isr_StartEx
  33:.\mice.c      ****     sclk_b_isr_StartEx(MY_SCLK_B_ISR);    
  82              		.loc 1 33 0
  83 0052 0548     		ldr	r0, .L2+12
  84 0054 FFF7FEFF 		bl	sclk_b_isr_StartEx
  34:.\mice.c      **** }
  85              		.loc 1 34 0
  86 0058 80BD     		pop	{r7, pc}
  87              	.L3:
  88 005a 00BF     		.align	2
  89              	.L2:
  90 005c 00000000 		.word	.LC0
  91 0060 10000000 		.word	.LC1
  92 0064 00000000 		.word	MY_SCLK_A_ISR
  93 0068 00000000 		.word	MY_SCLK_B_ISR
  94              		.cfi_endproc
  95              	.LFE63:
  96              		.size	start_mice, .-start_mice
  97              		.section	.text.stop_mice,"ax",%progbits
  98              		.align	2
  99              		.global	stop_mice
 100              		.thumb
 101              		.thumb_func
 102              		.type	stop_mice, %function
 103              	stop_mice:
 104              	.LFB64:
  35:.\mice.c      **** 
  36:.\mice.c      **** void stop_mice(){
 105              		.loc 1 36 0
 106              		.cfi_startproc
 107              		@ args = 0, pretend = 0, frame = 0
 108              		@ frame_needed = 1, uses_anonymous_args = 0
 109 0000 80B5     		push	{r7, lr}
 110              		.cfi_def_cfa_offset 8
 111              		.cfi_offset 7, -8
 112              		.cfi_offset 14, -4
 113 0002 00AF     		add	r7, sp, #0
 114              		.cfi_def_cfa_register 7
  37:.\mice.c      ****     sclk_a_isr_Stop();
 115              		.loc 1 37 0
 116 0004 FFF7FEFF 		bl	sclk_a_isr_Stop
  38:.\mice.c      ****     sclk_b_isr_Stop();
 117              		.loc 1 38 0
 118 0008 FFF7FEFF 		bl	sclk_b_isr_Stop
  39:.\mice.c      **** }
 119              		.loc 1 39 0
 120 000c 80BD     		pop	{r7, pc}
 121              		.cfi_endproc
 122              	.LFE64:
 123              		.size	stop_mice, .-stop_mice
 124 000e 00BF     		.text
 125              	.Letext0:
 126              		.file 2 "c:\\program files (x86)\\cypress\\psoc creator\\3.2\\psoc creator\\import\\gnu\\arm\\4.8.
ARM GAS  C:\Users\xavieran\AppData\Local\Temp\ccxx6Ail.s 			page 4


 127              		.file 3 "c:\\program files (x86)\\cypress\\psoc creator\\3.2\\psoc creator\\import\\gnu\\arm\\4.8.
 128              		.file 4 "Generated_Source\\PSoC5/cytypes.h"
 129              		.file 5 "Generated_Source\\PSoC5/core_cm3.h"
 130              		.file 6 "Generated_Source\\PSoC5/Camera.h"