ARM GAS  C:\Users\xavieran\AppData\Local\Temp\ccccYZyk.s 			page 1


   1              		.syntax unified
   2              		.cpu cortex-m3
   3              		.fpu softvfp
   4              		.eabi_attribute 20, 1
   5              		.eabi_attribute 21, 1
   6              		.eabi_attribute 23, 3
   7              		.eabi_attribute 24, 1
   8              		.eabi_attribute 25, 1
   9              		.eabi_attribute 26, 1
  10              		.eabi_attribute 30, 6
  11              		.eabi_attribute 34, 1
  12              		.eabi_attribute 18, 4
  13              		.thumb
  14              		.file	"motor.c"
  15              		.text
  16              	.Ltext0:
  17              		.cfi_sections	.debug_frame
  18              		.comm	Camera_framebuffer,50688,4
  19              		.comm	desired_distance,4,4
  20              		.comm	desired_heading,2,2
  21              		.comm	start_x,4,4
  22              		.comm	start_y,4,4
  23              		.comm	end_x,4,4
  24              		.comm	end_y,4,4
  25              		.comm	motor_state,1,1
  26              		.comm	just_arrived,1,1
  27              		.comm	currently_rotating,1,1
  28              		.section	.text.isRotating,"ax",%progbits
  29              		.align	2
  30              		.global	isRotating
  31              		.thumb
  32              		.thumb_func
  33              		.type	isRotating, %function
  34              	isRotating:
  35              	.LFB63:
  36              		.file 1 ".\\motor.c"
   1:.\motor.c     **** /* ========================================
   2:.\motor.c     ****  *
   3:.\motor.c     ****  * Copyright YOUR COMPANY, THE YEAR
   4:.\motor.c     ****  * All Rights Reserved
   5:.\motor.c     ****  * UNPUBLISHED, LICENSED SOFTWARE.
   6:.\motor.c     ****  *
   7:.\motor.c     ****  * CONFIDENTIAL AND PROPRIETARY INFORMATION
   8:.\motor.c     ****  * WHICH IS THE PROPERTY OF your company.
   9:.\motor.c     ****  *
  10:.\motor.c     ****  * ========================================
  11:.\motor.c     **** */
  12:.\motor.c     **** 
  13:.\motor.c     **** #include <math.h>
  14:.\motor.c     **** #include <stdio.h>
  15:.\motor.c     **** 
  16:.\motor.c     **** #include <project.h>
  17:.\motor.c     **** #include <motor.h>
  18:.\motor.c     **** #include <compass.h>
  19:.\motor.c     **** #include <ultrasonic.h>
  20:.\motor.c     **** 
  21:.\motor.c     **** int32 desired_distance;
ARM GAS  C:\Users\xavieran\AppData\Local\Temp\ccccYZyk.s 			page 2


  22:.\motor.c     **** int16 desired_heading;
  23:.\motor.c     **** extern volatile uint8 compass_ready;
  24:.\motor.c     **** //The position before executing a move to order
  25:.\motor.c     **** int32 start_x;
  26:.\motor.c     **** int32 start_y;
  27:.\motor.c     **** //The position we wish to go to
  28:.\motor.c     **** int32 end_x;
  29:.\motor.c     **** int32 end_y;
  30:.\motor.c     **** 
  31:.\motor.c     **** //Hold the current state of the motors
  32:.\motor.c     **** uint8 motor_state;
  33:.\motor.c     **** uint8 just_arrived;
  34:.\motor.c     **** uint8 currently_rotating;
  35:.\motor.c     **** uint8 isRotating(){
  37              		.loc 1 35 0
  38              		.cfi_startproc
  39              		@ args = 0, pretend = 0, frame = 0
  40              		@ frame_needed = 1, uses_anonymous_args = 0
  41              		@ link register save eliminated.
  42 0000 80B4     		push	{r7}
  43              		.cfi_def_cfa_offset 4
  44              		.cfi_offset 7, -4
  45 0002 00AF     		add	r7, sp, #0
  46              		.cfi_def_cfa_register 7
  36:.\motor.c     ****     return currently_rotating;
  47              		.loc 1 36 0
  48 0004 034B     		ldr	r3, .L3
  49 0006 1B78     		ldrb	r3, [r3]	@ zero_extendqisi2
  37:.\motor.c     **** }
  50              		.loc 1 37 0
  51 0008 1846     		mov	r0, r3
  52 000a BD46     		mov	sp, r7
  53              		@ sp needed
  54 000c 5DF8047B 		ldr	r7, [sp], #4
  55 0010 7047     		bx	lr
  56              	.L4:
  57 0012 00BF     		.align	2
  58              	.L3:
  59 0014 00000000 		.word	currently_rotating
  60              		.cfi_endproc
  61              	.LFE63:
  62              		.size	isRotating, .-isRotating
  63              		.comm	currently_driving,1,1
  64              		.section	.text.isDriving,"ax",%progbits
  65              		.align	2
  66              		.global	isDriving
  67              		.thumb
  68              		.thumb_func
  69              		.type	isDriving, %function
  70              	isDriving:
  71              	.LFB64:
  38:.\motor.c     **** uint8 currently_driving;
  39:.\motor.c     **** uint8 isDriving(){
  72              		.loc 1 39 0
  73              		.cfi_startproc
  74              		@ args = 0, pretend = 0, frame = 0
  75              		@ frame_needed = 1, uses_anonymous_args = 0
ARM GAS  C:\Users\xavieran\AppData\Local\Temp\ccccYZyk.s 			page 3


  76              		@ link register save eliminated.
  77 0000 80B4     		push	{r7}
  78              		.cfi_def_cfa_offset 4
  79              		.cfi_offset 7, -4
  80 0002 00AF     		add	r7, sp, #0
  81              		.cfi_def_cfa_register 7
  40:.\motor.c     ****     return currently_driving;
  82              		.loc 1 40 0
  83 0004 034B     		ldr	r3, .L7
  84 0006 1B78     		ldrb	r3, [r3]	@ zero_extendqisi2
  41:.\motor.c     **** }
  85              		.loc 1 41 0
  86 0008 1846     		mov	r0, r3
  87 000a BD46     		mov	sp, r7
  88              		@ sp needed
  89 000c 5DF8047B 		ldr	r7, [sp], #4
  90 0010 7047     		bx	lr
  91              	.L8:
  92 0012 00BF     		.align	2
  93              	.L7:
  94 0014 00000000 		.word	currently_driving
  95              		.cfi_endproc
  96              	.LFE64:
  97              		.size	isDriving, .-isDriving
  98              		.global	HEADING_ERROR_LIMIT
  99              		.data
 100              		.type	HEADING_ERROR_LIMIT, %object
 101              		.size	HEADING_ERROR_LIMIT, 1
 102              	HEADING_ERROR_LIMIT:
 103 0000 04       		.byte	4
 104              		.global	STALL_SPEED
 105              		.type	STALL_SPEED, %object
 106              		.size	STALL_SPEED, 1
 107              	STALL_SPEED:
 108 0001 8C       		.byte	-116
 109              		.global	MAX_SPEED
 110              		.type	MAX_SPEED, %object
 111              		.size	MAX_SPEED, 1
 112              	MAX_SPEED:
 113 0002 F0       		.byte	-16
 114              		.comm	outString,25,4
 115              		.section	.text.my6abs,"ax",%progbits
 116              		.align	2
 117              		.global	my6abs
 118              		.thumb
 119              		.thumb_func
 120              		.type	my6abs, %function
 121              	my6abs:
 122              	.LFB65:
  42:.\motor.c     **** 
  43:.\motor.c     **** uint8 HEADING_ERROR_LIMIT = 4;
  44:.\motor.c     **** uint8 STALL_SPEED = ARENA_STALL_SPEED;
  45:.\motor.c     **** uint8 MAX_SPEED = 240;
  46:.\motor.c     **** char outString[25];
  47:.\motor.c     **** 
  48:.\motor.c     **** #define POS_PRINTF(R,C,X,...) \
  49:.\motor.c     ****  {sprintf(outString, X, ##__VA_ARGS__); LCD_Position(R, C); LCD_PrintString(outString);}
ARM GAS  C:\Users\xavieran\AppData\Local\Temp\ccccYZyk.s 			page 4


  50:.\motor.c     **** 
  51:.\motor.c     **** 
  52:.\motor.c     **** 
  53:.\motor.c     **** // From compass.c
  54:.\motor.c     **** extern int16 compass_heading;
  55:.\motor.c     **** // From navigation.c
  56:.\motor.c     **** extern volatile struct Position location;
  57:.\motor.c     **** 
  58:.\motor.c     **** void rotate_left(int speed);
  59:.\motor.c     **** void rotate_right(int speed);
  60:.\motor.c     **** int16 abs2(int16 val);
  61:.\motor.c     **** 
  62:.\motor.c     **** 
  63:.\motor.c     **** int my6abs(x){
 123              		.loc 1 63 0
 124              		.cfi_startproc
 125              		@ args = 0, pretend = 0, frame = 8
 126              		@ frame_needed = 1, uses_anonymous_args = 0
 127              		@ link register save eliminated.
 128 0000 80B4     		push	{r7}
 129              		.cfi_def_cfa_offset 4
 130              		.cfi_offset 7, -4
 131 0002 83B0     		sub	sp, sp, #12
 132              		.cfi_def_cfa_offset 16
 133 0004 00AF     		add	r7, sp, #0
 134              		.cfi_def_cfa_register 7
 135 0006 7860     		str	r0, [r7, #4]
  64:.\motor.c     ****     if (x < 0){
 136              		.loc 1 64 0
 137 0008 7B68     		ldr	r3, [r7, #4]
 138 000a 002B     		cmp	r3, #0
 139 000c 02DA     		bge	.L10
  65:.\motor.c     ****         return -x;
 140              		.loc 1 65 0
 141 000e 7B68     		ldr	r3, [r7, #4]
 142 0010 5B42     		negs	r3, r3
 143 0012 00E0     		b	.L11
 144              	.L10:
  66:.\motor.c     ****     } else {
  67:.\motor.c     ****         return x;
 145              		.loc 1 67 0
 146 0014 7B68     		ldr	r3, [r7, #4]
 147              	.L11:
  68:.\motor.c     ****     }
  69:.\motor.c     **** }
 148              		.loc 1 69 0
 149 0016 1846     		mov	r0, r3
 150 0018 0C37     		adds	r7, r7, #12
 151 001a BD46     		mov	sp, r7
 152              		@ sp needed
 153 001c 5DF8047B 		ldr	r7, [sp], #4
 154 0020 7047     		bx	lr
 155              		.cfi_endproc
 156              	.LFE65:
 157              		.size	my6abs, .-my6abs
 158 0022 00BF     		.section	.text.clip,"ax",%progbits
 159              		.align	2
ARM GAS  C:\Users\xavieran\AppData\Local\Temp\ccccYZyk.s 			page 5


 160              		.global	clip
 161              		.thumb
 162              		.thumb_func
 163              		.type	clip, %function
 164              	clip:
 165              	.LFB66:
  70:.\motor.c     **** 
  71:.\motor.c     **** uint8 clip(int lower, int var, int upper){
 166              		.loc 1 71 0
 167              		.cfi_startproc
 168              		@ args = 0, pretend = 0, frame = 16
 169              		@ frame_needed = 1, uses_anonymous_args = 0
 170              		@ link register save eliminated.
 171 0000 80B4     		push	{r7}
 172              		.cfi_def_cfa_offset 4
 173              		.cfi_offset 7, -4
 174 0002 85B0     		sub	sp, sp, #20
 175              		.cfi_def_cfa_offset 24
 176 0004 00AF     		add	r7, sp, #0
 177              		.cfi_def_cfa_register 7
 178 0006 F860     		str	r0, [r7, #12]
 179 0008 B960     		str	r1, [r7, #8]
 180 000a 7A60     		str	r2, [r7, #4]
  72:.\motor.c     ****     if (var > upper){
 181              		.loc 1 72 0
 182 000c BA68     		ldr	r2, [r7, #8]
 183 000e 7B68     		ldr	r3, [r7, #4]
 184 0010 9A42     		cmp	r2, r3
 185 0012 02DD     		ble	.L13
  73:.\motor.c     ****         return upper;
 186              		.loc 1 73 0
 187 0014 7B68     		ldr	r3, [r7, #4]
 188 0016 DBB2     		uxtb	r3, r3
 189 0018 08E0     		b	.L14
 190              	.L13:
  74:.\motor.c     ****     } else if (var < lower) {
 191              		.loc 1 74 0
 192 001a BA68     		ldr	r2, [r7, #8]
 193 001c FB68     		ldr	r3, [r7, #12]
 194 001e 9A42     		cmp	r2, r3
 195 0020 02DA     		bge	.L15
  75:.\motor.c     ****         return lower;
 196              		.loc 1 75 0
 197 0022 FB68     		ldr	r3, [r7, #12]
 198 0024 DBB2     		uxtb	r3, r3
 199 0026 01E0     		b	.L14
 200              	.L15:
  76:.\motor.c     ****     } else {
  77:.\motor.c     ****         return var;
 201              		.loc 1 77 0
 202 0028 BB68     		ldr	r3, [r7, #8]
 203 002a DBB2     		uxtb	r3, r3
 204              	.L14:
  78:.\motor.c     ****     }
  79:.\motor.c     **** }
 205              		.loc 1 79 0
 206 002c 1846     		mov	r0, r3
ARM GAS  C:\Users\xavieran\AppData\Local\Temp\ccccYZyk.s 			page 6


 207 002e 1437     		adds	r7, r7, #20
 208 0030 BD46     		mov	sp, r7
 209              		@ sp needed
 210 0032 5DF8047B 		ldr	r7, [sp], #4
 211 0036 7047     		bx	lr
 212              		.cfi_endproc
 213              	.LFE66:
 214              		.size	clip, .-clip
 215              		.section	.text.control_heading,"ax",%progbits
 216              		.align	2
 217              		.global	control_heading
 218              		.thumb
 219              		.thumb_func
 220              		.type	control_heading, %function
 221              	control_heading:
 222              	.LFB67:
  80:.\motor.c     **** 
  81:.\motor.c     **** /** This function is to be called every time through the main loop 
  82:.\motor.c     ****  * It will 
  83:.\motor.c     ****  */
  84:.\motor.c     **** 
  85:.\motor.c     **** int control_heading(){
 223              		.loc 1 85 0
 224              		.cfi_startproc
 225              		@ args = 0, pretend = 0, frame = 8
 226              		@ frame_needed = 1, uses_anonymous_args = 0
 227 0000 90B5     		push	{r4, r7, lr}
 228              		.cfi_def_cfa_offset 12
 229              		.cfi_offset 4, -12
 230              		.cfi_offset 7, -8
 231              		.cfi_offset 14, -4
 232 0002 83B0     		sub	sp, sp, #12
 233              		.cfi_def_cfa_offset 24
 234 0004 00AF     		add	r7, sp, #0
 235              		.cfi_def_cfa_register 7
  86:.\motor.c     ****     /* 
  87:.\motor.c     ****      * Step 1. Correct the heading 
  88:.\motor.c     ****      */
  89:.\motor.c     ****     while (!compass_ready){;}
 236              		.loc 1 89 0
 237 0006 00BF     		nop
 238              	.L17:
 239              		.loc 1 89 0 is_stmt 0 discriminator 1
 240 0008 2F4B     		ldr	r3, .L23
 241 000a 1B78     		ldrb	r3, [r3]
 242 000c DBB2     		uxtb	r3, r3
 243 000e 002B     		cmp	r3, #0
 244 0010 FAD0     		beq	.L17
  90:.\motor.c     ****     compass_read();
 245              		.loc 1 90 0 is_stmt 1
 246 0012 FFF7FEFF 		bl	compass_read
  91:.\motor.c     ****     int motor_end_state = 0;
 247              		.loc 1 91 0
 248 0016 0023     		movs	r3, #0
 249 0018 3B60     		str	r3, [r7]
  92:.\motor.c     ****     int heading_error = desired_heading - compass_heading;
 250              		.loc 1 92 0
ARM GAS  C:\Users\xavieran\AppData\Local\Temp\ccccYZyk.s 			page 7


 251 001a 2C4B     		ldr	r3, .L23+4
 252 001c 1B88     		ldrh	r3, [r3]
 253 001e 1AB2     		sxth	r2, r3
 254 0020 2B4B     		ldr	r3, .L23+8
 255 0022 1B88     		ldrh	r3, [r3]
 256 0024 1BB2     		sxth	r3, r3
 257 0026 D31A     		subs	r3, r2, r3
 258 0028 7B60     		str	r3, [r7, #4]
  93:.\motor.c     ****     // If the error is greater than 180, there is a shorter way around the unit 
  94:.\motor.c     ****     // circle, this corrects that
  95:.\motor.c     ****     if (my6abs(heading_error) > 180){
 259              		.loc 1 95 0
 260 002a 7868     		ldr	r0, [r7, #4]
 261 002c FFF7FEFF 		bl	my6abs
 262 0030 0346     		mov	r3, r0
 263 0032 B42B     		cmp	r3, #180
 264 0034 09DD     		ble	.L18
  96:.\motor.c     ****         heading_error = -(desired_heading - (360 - compass_heading));
 265              		.loc 1 96 0
 266 0036 264B     		ldr	r3, .L23+8
 267 0038 1B88     		ldrh	r3, [r3]
 268 003a 1BB2     		sxth	r3, r3
 269 003c C3F5B472 		rsb	r2, r3, #360
 270 0040 224B     		ldr	r3, .L23+4
 271 0042 1B88     		ldrh	r3, [r3]
 272 0044 1BB2     		sxth	r3, r3
 273 0046 D31A     		subs	r3, r2, r3
 274 0048 7B60     		str	r3, [r7, #4]
 275              	.L18:
  97:.\motor.c     ****     }
  98:.\motor.c     ****     // We need to correct the heading if the error is greater than 
  99:.\motor.c     ****     if (my6abs(heading_error) > HEADING_ERROR_LIMIT){ 
 276              		.loc 1 99 0
 277 004a 7868     		ldr	r0, [r7, #4]
 278 004c FFF7FEFF 		bl	my6abs
 279 0050 0246     		mov	r2, r0
 280 0052 204B     		ldr	r3, .L23+12
 281 0054 1B78     		ldrb	r3, [r3]	@ zero_extendqisi2
 282 0056 9A42     		cmp	r2, r3
 283 0058 2EDD     		ble	.L19
 100:.\motor.c     ****         currently_rotating = 1;
 284              		.loc 1 100 0
 285 005a 1F4B     		ldr	r3, .L23+16
 286 005c 0122     		movs	r2, #1
 287 005e 1A70     		strb	r2, [r3]
 101:.\motor.c     ****         // the actual heading is greater than the desired heading
 102:.\motor.c     ****         if (heading_error < 0){ 
 288              		.loc 1 102 0
 289 0060 7B68     		ldr	r3, [r7, #4]
 290 0062 002B     		cmp	r3, #0
 291 0064 13DA     		bge	.L20
 103:.\motor.c     ****             rotate_left(clip(STALL_SPEED, my6abs(heading_error)*2, MAX_SPEED));
 292              		.loc 1 103 0
 293 0066 1D4B     		ldr	r3, .L23+20
 294 0068 1B78     		ldrb	r3, [r3]	@ zero_extendqisi2
 295 006a 1C46     		mov	r4, r3
 296 006c 7868     		ldr	r0, [r7, #4]
ARM GAS  C:\Users\xavieran\AppData\Local\Temp\ccccYZyk.s 			page 8


 297 006e FFF7FEFF 		bl	my6abs
 298 0072 0346     		mov	r3, r0
 299 0074 5A00     		lsls	r2, r3, #1
 300 0076 1A4B     		ldr	r3, .L23+24
 301 0078 1B78     		ldrb	r3, [r3]	@ zero_extendqisi2
 302 007a 2046     		mov	r0, r4
 303 007c 1146     		mov	r1, r2
 304 007e 1A46     		mov	r2, r3
 305 0080 FFF7FEFF 		bl	clip
 306 0084 0346     		mov	r3, r0
 307 0086 1846     		mov	r0, r3
 308 0088 FFF7FEFF 		bl	rotate_left
 309 008c 12E0     		b	.L21
 310              	.L20:
 104:.\motor.c     ****         } else {
 105:.\motor.c     ****             rotate_right(clip(STALL_SPEED, my6abs(heading_error)*2, MAX_SPEED));
 311              		.loc 1 105 0
 312 008e 134B     		ldr	r3, .L23+20
 313 0090 1B78     		ldrb	r3, [r3]	@ zero_extendqisi2
 314 0092 1C46     		mov	r4, r3
 315 0094 7868     		ldr	r0, [r7, #4]
 316 0096 FFF7FEFF 		bl	my6abs
 317 009a 0346     		mov	r3, r0
 318 009c 5A00     		lsls	r2, r3, #1
 319 009e 104B     		ldr	r3, .L23+24
 320 00a0 1B78     		ldrb	r3, [r3]	@ zero_extendqisi2
 321 00a2 2046     		mov	r0, r4
 322 00a4 1146     		mov	r1, r2
 323 00a6 1A46     		mov	r2, r3
 324 00a8 FFF7FEFF 		bl	clip
 325 00ac 0346     		mov	r3, r0
 326 00ae 1846     		mov	r0, r3
 327 00b0 FFF7FEFF 		bl	rotate_right
 328              	.L21:
 106:.\motor.c     ****         }
 107:.\motor.c     ****         
 108:.\motor.c     ****         return MEND_S_ROTATING;
 329              		.loc 1 108 0
 330 00b4 0123     		movs	r3, #1
 331 00b6 03E0     		b	.L22
 332              	.L19:
 109:.\motor.c     ****     }
 110:.\motor.c     ****     setCoast(MBOTH);
 333              		.loc 1 110 0
 334 00b8 0320     		movs	r0, #3
 335 00ba FFF7FEFF 		bl	setCoast
 111:.\motor.c     ****     
 112:.\motor.c     ****     return MEND_S_STOPPED;
 336              		.loc 1 112 0
 337 00be 0023     		movs	r3, #0
 338              	.L22:
 113:.\motor.c     **** }
 339              		.loc 1 113 0
 340 00c0 1846     		mov	r0, r3
 341 00c2 0C37     		adds	r7, r7, #12
 342 00c4 BD46     		mov	sp, r7
 343              		@ sp needed
ARM GAS  C:\Users\xavieran\AppData\Local\Temp\ccccYZyk.s 			page 9


 344 00c6 90BD     		pop	{r4, r7, pc}
 345              	.L24:
 346              		.align	2
 347              	.L23:
 348 00c8 00000000 		.word	compass_ready
 349 00cc 00000000 		.word	desired_heading
 350 00d0 00000000 		.word	compass_heading
 351 00d4 00000000 		.word	HEADING_ERROR_LIMIT
 352 00d8 00000000 		.word	currently_rotating
 353 00dc 00000000 		.word	STALL_SPEED
 354 00e0 00000000 		.word	MAX_SPEED
 355              		.cfi_endproc
 356              	.LFE67:
 357              		.size	control_heading, .-control_heading
 358              		.section	.text.go_forward,"ax",%progbits
 359              		.align	2
 360              		.global	go_forward
 361              		.thumb
 362              		.thumb_func
 363              		.type	go_forward, %function
 364              	go_forward:
 365              	.LFB68:
 114:.\motor.c     **** 
 115:.\motor.c     **** /* 
 116:.\motor.c     ****  * Makes the robot drive forward *time* seconds BLOCKING
 117:.\motor.c     ****  */
 118:.\motor.c     **** void go_forward(uint32 time, uint8 speed){
 366              		.loc 1 118 0
 367              		.cfi_startproc
 368              		@ args = 0, pretend = 0, frame = 16
 369              		@ frame_needed = 1, uses_anonymous_args = 0
 370 0000 80B5     		push	{r7, lr}
 371              		.cfi_def_cfa_offset 8
 372              		.cfi_offset 7, -8
 373              		.cfi_offset 14, -4
 374 0002 84B0     		sub	sp, sp, #16
 375              		.cfi_def_cfa_offset 24
 376 0004 00AF     		add	r7, sp, #0
 377              		.cfi_def_cfa_register 7
 378 0006 7860     		str	r0, [r7, #4]
 379 0008 0B46     		mov	r3, r1
 380 000a FB70     		strb	r3, [r7, #3]
 119:.\motor.c     ****     time = time * 10;
 381              		.loc 1 119 0
 382 000c 7A68     		ldr	r2, [r7, #4]
 383 000e 1346     		mov	r3, r2
 384 0010 9B00     		lsls	r3, r3, #2
 385 0012 1344     		add	r3, r3, r2
 386 0014 5B00     		lsls	r3, r3, #1
 387 0016 7B60     		str	r3, [r7, #4]
 120:.\motor.c     ****     uint32 start_time = Timer_ReadCounter(); // each tick is 100us
 388              		.loc 1 120 0
 389 0018 FFF7FEFF 		bl	Timer_ReadCounter
 390 001c F860     		str	r0, [r7, #12]
 121:.\motor.c     ****     while (start_time - Timer_ReadCounter() < time){
 391              		.loc 1 121 0
 392 001e 0CE0     		b	.L26
ARM GAS  C:\Users\xavieran\AppData\Local\Temp\ccccYZyk.s 			page 10


 393              	.L27:
 122:.\motor.c     ****         setForward(MBOTH);
 394              		.loc 1 122 0
 395 0020 0320     		movs	r0, #3
 396 0022 FFF7FEFF 		bl	setForward
 123:.\motor.c     ****         setSpeed(MBOTH, speed);
 397              		.loc 1 123 0
 398 0026 FB78     		ldrb	r3, [r7, #3]	@ zero_extendqisi2
 399 0028 0320     		movs	r0, #3
 400 002a 1946     		mov	r1, r3
 401 002c FFF7FEFF 		bl	setSpeed
 124:.\motor.c     ****         control_heading();
 402              		.loc 1 124 0
 403 0030 FFF7FEFF 		bl	control_heading
 125:.\motor.c     ****         CyDelay(25);
 404              		.loc 1 125 0
 405 0034 1920     		movs	r0, #25
 406 0036 FFF7FEFF 		bl	CyDelay
 407              	.L26:
 121:.\motor.c     ****     while (start_time - Timer_ReadCounter() < time){
 408              		.loc 1 121 0 discriminator 1
 409 003a FFF7FEFF 		bl	Timer_ReadCounter
 410 003e 0346     		mov	r3, r0
 411 0040 FA68     		ldr	r2, [r7, #12]
 412 0042 D21A     		subs	r2, r2, r3
 413 0044 7B68     		ldr	r3, [r7, #4]
 414 0046 9A42     		cmp	r2, r3
 415 0048 EAD3     		bcc	.L27
 126:.\motor.c     ****     }
 127:.\motor.c     ****     setCoast(MBOTH);
 416              		.loc 1 127 0
 417 004a 0320     		movs	r0, #3
 418 004c FFF7FEFF 		bl	setCoast
 128:.\motor.c     **** }
 419              		.loc 1 128 0
 420 0050 1037     		adds	r7, r7, #16
 421 0052 BD46     		mov	sp, r7
 422              		@ sp needed
 423 0054 80BD     		pop	{r7, pc}
 424              		.cfi_endproc
 425              	.LFE68:
 426              		.size	go_forward, .-go_forward
 427 0056 00BF     		.section	.text.go_backward,"ax",%progbits
 428              		.align	2
 429              		.global	go_backward
 430              		.thumb
 431              		.thumb_func
 432              		.type	go_backward, %function
 433              	go_backward:
 434              	.LFB69:
 129:.\motor.c     **** 
 130:.\motor.c     **** /*
 131:.\motor.c     ****  * Makes the robot drive backward *distance* centimeters
 132:.\motor.c     ****  */
 133:.\motor.c     **** void go_backward(uint32 time, uint8 speed){
 435              		.loc 1 133 0
 436              		.cfi_startproc
ARM GAS  C:\Users\xavieran\AppData\Local\Temp\ccccYZyk.s 			page 11


 437              		@ args = 0, pretend = 0, frame = 16
 438              		@ frame_needed = 1, uses_anonymous_args = 0
 439 0000 80B5     		push	{r7, lr}
 440              		.cfi_def_cfa_offset 8
 441              		.cfi_offset 7, -8
 442              		.cfi_offset 14, -4
 443 0002 84B0     		sub	sp, sp, #16
 444              		.cfi_def_cfa_offset 24
 445 0004 00AF     		add	r7, sp, #0
 446              		.cfi_def_cfa_register 7
 447 0006 7860     		str	r0, [r7, #4]
 448 0008 0B46     		mov	r3, r1
 449 000a FB70     		strb	r3, [r7, #3]
 134:.\motor.c     ****     time = time * 10;
 450              		.loc 1 134 0
 451 000c 7A68     		ldr	r2, [r7, #4]
 452 000e 1346     		mov	r3, r2
 453 0010 9B00     		lsls	r3, r3, #2
 454 0012 1344     		add	r3, r3, r2
 455 0014 5B00     		lsls	r3, r3, #1
 456 0016 7B60     		str	r3, [r7, #4]
 135:.\motor.c     ****     uint32 start_time = Timer_ReadCounter(); // each tick is 100us
 457              		.loc 1 135 0
 458 0018 FFF7FEFF 		bl	Timer_ReadCounter
 459 001c F860     		str	r0, [r7, #12]
 136:.\motor.c     ****     while (start_time - Timer_ReadCounter() < time){
 460              		.loc 1 136 0
 461 001e 0CE0     		b	.L29
 462              	.L30:
 137:.\motor.c     ****         setReverse(MBOTH);
 463              		.loc 1 137 0
 464 0020 0320     		movs	r0, #3
 465 0022 FFF7FEFF 		bl	setReverse
 138:.\motor.c     ****         setSpeed(MBOTH, speed);
 466              		.loc 1 138 0
 467 0026 FB78     		ldrb	r3, [r7, #3]	@ zero_extendqisi2
 468 0028 0320     		movs	r0, #3
 469 002a 1946     		mov	r1, r3
 470 002c FFF7FEFF 		bl	setSpeed
 139:.\motor.c     ****         control_heading();
 471              		.loc 1 139 0
 472 0030 FFF7FEFF 		bl	control_heading
 140:.\motor.c     ****         CyDelay(25);
 473              		.loc 1 140 0
 474 0034 1920     		movs	r0, #25
 475 0036 FFF7FEFF 		bl	CyDelay
 476              	.L29:
 136:.\motor.c     ****     while (start_time - Timer_ReadCounter() < time){
 477              		.loc 1 136 0 discriminator 1
 478 003a FFF7FEFF 		bl	Timer_ReadCounter
 479 003e 0346     		mov	r3, r0
 480 0040 FA68     		ldr	r2, [r7, #12]
 481 0042 D21A     		subs	r2, r2, r3
 482 0044 7B68     		ldr	r3, [r7, #4]
 483 0046 9A42     		cmp	r2, r3
 484 0048 EAD3     		bcc	.L30
 141:.\motor.c     ****     }
ARM GAS  C:\Users\xavieran\AppData\Local\Temp\ccccYZyk.s 			page 12


 142:.\motor.c     ****     setCoast(MBOTH);
 485              		.loc 1 142 0
 486 004a 0320     		movs	r0, #3
 487 004c FFF7FEFF 		bl	setCoast
 143:.\motor.c     **** }
 488              		.loc 1 143 0
 489 0050 1037     		adds	r7, r7, #16
 490 0052 BD46     		mov	sp, r7
 491              		@ sp needed
 492 0054 80BD     		pop	{r7, pc}
 493              		.cfi_endproc
 494              	.LFE69:
 495              		.size	go_backward, .-go_backward
 496 0056 00BF     		.section	.text.go_backward_ultra,"ax",%progbits
 497              		.align	2
 498              		.global	go_backward_ultra
 499              		.thumb
 500              		.thumb_func
 501              		.type	go_backward_ultra, %function
 502              	go_backward_ultra:
 503              	.LFB70:
 144:.\motor.c     **** 
 145:.\motor.c     **** 
 146:.\motor.c     **** void go_backward_ultra(uint16 ultra_dist, uint8 speed){
 504              		.loc 1 146 0
 505              		.cfi_startproc
 506              		@ args = 0, pretend = 0, frame = 8
 507              		@ frame_needed = 1, uses_anonymous_args = 0
 508 0000 80B5     		push	{r7, lr}
 509              		.cfi_def_cfa_offset 8
 510              		.cfi_offset 7, -8
 511              		.cfi_offset 14, -4
 512 0002 82B0     		sub	sp, sp, #8
 513              		.cfi_def_cfa_offset 16
 514 0004 00AF     		add	r7, sp, #0
 515              		.cfi_def_cfa_register 7
 516 0006 0246     		mov	r2, r0
 517 0008 0B46     		mov	r3, r1
 518 000a FA80     		strh	r2, [r7, #6]	@ movhi
 519 000c 7B71     		strb	r3, [r7, #5]
 147:.\motor.c     ****     while (get_mean_ultra() < ultra_dist){
 520              		.loc 1 147 0
 521 000e 0CE0     		b	.L32
 522              	.L33:
 148:.\motor.c     ****         setReverse(MBOTH);
 523              		.loc 1 148 0
 524 0010 0320     		movs	r0, #3
 525 0012 FFF7FEFF 		bl	setReverse
 149:.\motor.c     ****         setSpeed(MBOTH, speed);
 526              		.loc 1 149 0
 527 0016 7B79     		ldrb	r3, [r7, #5]	@ zero_extendqisi2
 528 0018 0320     		movs	r0, #3
 529 001a 1946     		mov	r1, r3
 530 001c FFF7FEFF 		bl	setSpeed
 150:.\motor.c     ****         control_heading();
 531              		.loc 1 150 0
 532 0020 FFF7FEFF 		bl	control_heading
ARM GAS  C:\Users\xavieran\AppData\Local\Temp\ccccYZyk.s 			page 13


 151:.\motor.c     ****         CyDelay(25);
 533              		.loc 1 151 0
 534 0024 1920     		movs	r0, #25
 535 0026 FFF7FEFF 		bl	CyDelay
 536              	.L32:
 147:.\motor.c     ****     while (get_mean_ultra() < ultra_dist){
 537              		.loc 1 147 0 discriminator 1
 538 002a FFF7FEFF 		bl	get_mean_ultra
 539 002e 0346     		mov	r3, r0
 540 0030 FA88     		ldrh	r2, [r7, #6]
 541 0032 9A42     		cmp	r2, r3
 542 0034 ECD8     		bhi	.L33
 152:.\motor.c     ****     }
 153:.\motor.c     ****     setCoast(MBOTH);
 543              		.loc 1 153 0
 544 0036 0320     		movs	r0, #3
 545 0038 FFF7FEFF 		bl	setCoast
 154:.\motor.c     **** }
 546              		.loc 1 154 0
 547 003c 0837     		adds	r7, r7, #8
 548 003e BD46     		mov	sp, r7
 549              		@ sp needed
 550 0040 80BD     		pop	{r7, pc}
 551              		.cfi_endproc
 552              	.LFE70:
 553              		.size	go_backward_ultra, .-go_backward_ultra
 554 0042 00BF     		.section	.text.rotate_degrees,"ax",%progbits
 555              		.align	2
 556              		.global	rotate_degrees
 557              		.thumb
 558              		.thumb_func
 559              		.type	rotate_degrees, %function
 560              	rotate_degrees:
 561              	.LFB71:
 155:.\motor.c     **** 
 156:.\motor.c     **** /*
 157:.\motor.c     ****  * Makes the robot rotate *angle* degrees.
 158:.\motor.c     ****  * angle > 0 rotates right, angle < 0 rotates left
 159:.\motor.c     ****  */
 160:.\motor.c     **** void rotate_degrees(int16 angle){
 562              		.loc 1 160 0
 563              		.cfi_startproc
 564              		@ args = 0, pretend = 0, frame = 8
 565              		@ frame_needed = 1, uses_anonymous_args = 0
 566 0000 80B5     		push	{r7, lr}
 567              		.cfi_def_cfa_offset 8
 568              		.cfi_offset 7, -8
 569              		.cfi_offset 14, -4
 570 0002 82B0     		sub	sp, sp, #8
 571              		.cfi_def_cfa_offset 16
 572 0004 00AF     		add	r7, sp, #0
 573              		.cfi_def_cfa_register 7
 574 0006 0346     		mov	r3, r0
 575 0008 FB80     		strh	r3, [r7, #6]	@ movhi
 161:.\motor.c     ****     desired_heading += angle;
 576              		.loc 1 161 0
 577 000a 124B     		ldr	r3, .L36
ARM GAS  C:\Users\xavieran\AppData\Local\Temp\ccccYZyk.s 			page 14


 578 000c 1B88     		ldrh	r3, [r3]
 579 000e 9AB2     		uxth	r2, r3
 580 0010 FB88     		ldrh	r3, [r7, #6]
 581 0012 1344     		add	r3, r3, r2
 582 0014 9BB2     		uxth	r3, r3
 583 0016 9AB2     		uxth	r2, r3
 584 0018 0E4B     		ldr	r3, .L36
 585 001a 1A80     		strh	r2, [r3]	@ movhi
 162:.\motor.c     ****     desired_heading = desired_heading % 360;
 586              		.loc 1 162 0
 587 001c 0D4B     		ldr	r3, .L36
 588 001e 1B88     		ldrh	r3, [r3]
 589 0020 1BB2     		sxth	r3, r3
 590 0022 0D4A     		ldr	r2, .L36+4
 591 0024 83FB0201 		smull	r0, r1, r3, r2
 592 0028 5A18     		adds	r2, r3, r1
 593 002a 1112     		asrs	r1, r2, #8
 594 002c DA17     		asrs	r2, r3, #31
 595 002e 8A1A     		subs	r2, r1, r2
 596 0030 4FF4B471 		mov	r1, #360
 597 0034 01FB02F2 		mul	r2, r1, r2
 598 0038 9B1A     		subs	r3, r3, r2
 599 003a 9AB2     		uxth	r2, r3
 600 003c 054B     		ldr	r3, .L36
 601 003e 1A80     		strh	r2, [r3]	@ movhi
 163:.\motor.c     ****     /*if (desired_heading > 360){
 164:.\motor.c     ****         desired_heading -= 360;
 165:.\motor.c     ****     } else if (desired_heading < 0){
 166:.\motor.c     ****         desired_heading += 360;
 167:.\motor.c     ****     }*/
 168:.\motor.c     ****     
 169:.\motor.c     ****     while (control_heading() != MEND_S_STOPPED){
 602              		.loc 1 169 0
 603 0040 00BF     		nop
 604              	.L35:
 605              		.loc 1 169 0 is_stmt 0 discriminator 1
 606 0042 FFF7FEFF 		bl	control_heading
 607 0046 0346     		mov	r3, r0
 608 0048 002B     		cmp	r3, #0
 609 004a FAD1     		bne	.L35
 170:.\motor.c     ****         /*LCD_ClearDisplay();
 171:.\motor.c     ****         POS_PRINTF(1,0,"%d %d", desired_heading, compass_heading);
 172:.\motor.c     ****         CyDelay(50);*/
 173:.\motor.c     ****     }
 174:.\motor.c     **** }
 610              		.loc 1 174 0 is_stmt 1
 611 004c 0837     		adds	r7, r7, #8
 612 004e BD46     		mov	sp, r7
 613              		@ sp needed
 614 0050 80BD     		pop	{r7, pc}
 615              	.L37:
 616 0052 00BF     		.align	2
 617              	.L36:
 618 0054 00000000 		.word	desired_heading
 619 0058 B7600BB6 		.word	-1240768329
 620              		.cfi_endproc
 621              	.LFE71:
ARM GAS  C:\Users\xavieran\AppData\Local\Temp\ccccYZyk.s 			page 15


 622              		.size	rotate_degrees, .-rotate_degrees
 623              		.section	.text.set_heading,"ax",%progbits
 624              		.align	2
 625              		.global	set_heading
 626              		.thumb
 627              		.thumb_func
 628              		.type	set_heading, %function
 629              	set_heading:
 630              	.LFB72:
 175:.\motor.c     **** /* 
 176:.\motor.c     ****  * Sets the robots heading to *new_heading*
 177:.\motor.c     ****  */
 178:.\motor.c     **** void set_heading(int16 new_heading){
 631              		.loc 1 178 0
 632              		.cfi_startproc
 633              		@ args = 0, pretend = 0, frame = 8
 634              		@ frame_needed = 1, uses_anonymous_args = 0
 635              		@ link register save eliminated.
 636 0000 80B4     		push	{r7}
 637              		.cfi_def_cfa_offset 4
 638              		.cfi_offset 7, -4
 639 0002 83B0     		sub	sp, sp, #12
 640              		.cfi_def_cfa_offset 16
 641 0004 00AF     		add	r7, sp, #0
 642              		.cfi_def_cfa_register 7
 643 0006 0346     		mov	r3, r0
 644 0008 FB80     		strh	r3, [r7, #6]	@ movhi
 179:.\motor.c     ****     desired_heading = new_heading;
 645              		.loc 1 179 0
 646 000a 044B     		ldr	r3, .L39
 647 000c FA88     		ldrh	r2, [r7, #6]	@ movhi
 648 000e 1A80     		strh	r2, [r3]	@ movhi
 180:.\motor.c     **** }
 649              		.loc 1 180 0
 650 0010 0C37     		adds	r7, r7, #12
 651 0012 BD46     		mov	sp, r7
 652              		@ sp needed
 653 0014 5DF8047B 		ldr	r7, [sp], #4
 654 0018 7047     		bx	lr
 655              	.L40:
 656 001a 00BF     		.align	2
 657              	.L39:
 658 001c 00000000 		.word	desired_heading
 659              		.cfi_endproc
 660              	.LFE72:
 661              		.size	set_heading, .-set_heading
 662              		.section	.text.rotate_left,"ax",%progbits
 663              		.align	2
 664              		.global	rotate_left
 665              		.thumb
 666              		.thumb_func
 667              		.type	rotate_left, %function
 668              	rotate_left:
 669              	.LFB73:
 181:.\motor.c     **** 
 182:.\motor.c     **** /* 
 183:.\motor.c     ****  * Sets the motors to rotate the robot left
ARM GAS  C:\Users\xavieran\AppData\Local\Temp\ccccYZyk.s 			page 16


 184:.\motor.c     ****  */
 185:.\motor.c     **** void rotate_left(int speed){
 670              		.loc 1 185 0
 671              		.cfi_startproc
 672              		@ args = 0, pretend = 0, frame = 8
 673              		@ frame_needed = 1, uses_anonymous_args = 0
 674 0000 80B5     		push	{r7, lr}
 675              		.cfi_def_cfa_offset 8
 676              		.cfi_offset 7, -8
 677              		.cfi_offset 14, -4
 678 0002 82B0     		sub	sp, sp, #8
 679              		.cfi_def_cfa_offset 16
 680 0004 00AF     		add	r7, sp, #0
 681              		.cfi_def_cfa_register 7
 682 0006 7860     		str	r0, [r7, #4]
 186:.\motor.c     ****     setForward(MRIGHT);
 683              		.loc 1 186 0
 684 0008 0220     		movs	r0, #2
 685 000a FFF7FEFF 		bl	setForward
 187:.\motor.c     ****     setReverse(MLEFT);
 686              		.loc 1 187 0
 687 000e 0120     		movs	r0, #1
 688 0010 FFF7FEFF 		bl	setReverse
 188:.\motor.c     ****     setSpeed(MBOTH, speed);
 689              		.loc 1 188 0
 690 0014 7B68     		ldr	r3, [r7, #4]
 691 0016 DBB2     		uxtb	r3, r3
 692 0018 0320     		movs	r0, #3
 693 001a 1946     		mov	r1, r3
 694 001c FFF7FEFF 		bl	setSpeed
 189:.\motor.c     **** }
 695              		.loc 1 189 0
 696 0020 0837     		adds	r7, r7, #8
 697 0022 BD46     		mov	sp, r7
 698              		@ sp needed
 699 0024 80BD     		pop	{r7, pc}
 700              		.cfi_endproc
 701              	.LFE73:
 702              		.size	rotate_left, .-rotate_left
 703 0026 00BF     		.section	.text.rotate_right,"ax",%progbits
 704              		.align	2
 705              		.global	rotate_right
 706              		.thumb
 707              		.thumb_func
 708              		.type	rotate_right, %function
 709              	rotate_right:
 710              	.LFB74:
 190:.\motor.c     **** 
 191:.\motor.c     **** 
 192:.\motor.c     **** 
 193:.\motor.c     **** /*
 194:.\motor.c     ****  * Sets the motors to rotate the robot right at *speed*
 195:.\motor.c     ****  */
 196:.\motor.c     **** void rotate_right(int speed){
 711              		.loc 1 196 0
 712              		.cfi_startproc
 713              		@ args = 0, pretend = 0, frame = 8
ARM GAS  C:\Users\xavieran\AppData\Local\Temp\ccccYZyk.s 			page 17


 714              		@ frame_needed = 1, uses_anonymous_args = 0
 715 0000 80B5     		push	{r7, lr}
 716              		.cfi_def_cfa_offset 8
 717              		.cfi_offset 7, -8
 718              		.cfi_offset 14, -4
 719 0002 82B0     		sub	sp, sp, #8
 720              		.cfi_def_cfa_offset 16
 721 0004 00AF     		add	r7, sp, #0
 722              		.cfi_def_cfa_register 7
 723 0006 7860     		str	r0, [r7, #4]
 197:.\motor.c     ****     setForward(MLEFT);
 724              		.loc 1 197 0
 725 0008 0120     		movs	r0, #1
 726 000a FFF7FEFF 		bl	setForward
 198:.\motor.c     ****     setReverse(MRIGHT);
 727              		.loc 1 198 0
 728 000e 0220     		movs	r0, #2
 729 0010 FFF7FEFF 		bl	setReverse
 199:.\motor.c     ****     setSpeed(MBOTH, speed);
 730              		.loc 1 199 0
 731 0014 7B68     		ldr	r3, [r7, #4]
 732 0016 DBB2     		uxtb	r3, r3
 733 0018 0320     		movs	r0, #3
 734 001a 1946     		mov	r1, r3
 735 001c FFF7FEFF 		bl	setSpeed
 200:.\motor.c     **** }
 736              		.loc 1 200 0
 737 0020 0837     		adds	r7, r7, #8
 738 0022 BD46     		mov	sp, r7
 739              		@ sp needed
 740 0024 80BD     		pop	{r7, pc}
 741              		.cfi_endproc
 742              	.LFE74:
 743              		.size	rotate_right, .-rotate_right
 744 0026 00BF     		.section	.text.start_motors,"ax",%progbits
 745              		.align	2
 746              		.global	start_motors
 747              		.thumb
 748              		.thumb_func
 749              		.type	start_motors, %function
 750              	start_motors:
 751              	.LFB75:
 201:.\motor.c     **** 
 202:.\motor.c     **** 
 203:.\motor.c     **** /*
 204:.\motor.c     ****  * Initializes the motor PWM modules and sets the motors to stopped
 205:.\motor.c     ****  */
 206:.\motor.c     **** void start_motors(){
 752              		.loc 1 206 0
 753              		.cfi_startproc
 754              		@ args = 0, pretend = 0, frame = 0
 755              		@ frame_needed = 1, uses_anonymous_args = 0
 756 0000 80B5     		push	{r7, lr}
 757              		.cfi_def_cfa_offset 8
 758              		.cfi_offset 7, -8
 759              		.cfi_offset 14, -4
 760 0002 00AF     		add	r7, sp, #0
ARM GAS  C:\Users\xavieran\AppData\Local\Temp\ccccYZyk.s 			page 18


 761              		.cfi_def_cfa_register 7
 207:.\motor.c     ****     MOTOR_L_Start();
 762              		.loc 1 207 0
 763 0004 FFF7FEFF 		bl	MOTOR_L_Start
 208:.\motor.c     ****     MLIN1_Write(0);
 764              		.loc 1 208 0
 765 0008 0020     		movs	r0, #0
 766 000a FFF7FEFF 		bl	MLIN1_Write
 209:.\motor.c     ****     MLIN2_Write(0);
 767              		.loc 1 209 0
 768 000e 0020     		movs	r0, #0
 769 0010 FFF7FEFF 		bl	MLIN2_Write
 210:.\motor.c     ****     MOTOR_L_WriteCompare(0);
 770              		.loc 1 210 0
 771 0014 0020     		movs	r0, #0
 772 0016 FFF7FEFF 		bl	MOTOR_L_WriteCompare
 211:.\motor.c     ****        
 212:.\motor.c     ****     MOTOR_R_Start();
 773              		.loc 1 212 0
 774 001a FFF7FEFF 		bl	MOTOR_R_Start
 213:.\motor.c     ****     MRIN1_Write(0);
 775              		.loc 1 213 0
 776 001e 0020     		movs	r0, #0
 777 0020 FFF7FEFF 		bl	MRIN1_Write
 214:.\motor.c     ****     MRIN2_Write(0);
 778              		.loc 1 214 0
 779 0024 0020     		movs	r0, #0
 780 0026 FFF7FEFF 		bl	MRIN2_Write
 215:.\motor.c     ****     MOTOR_R_WriteCompare(0);
 781              		.loc 1 215 0
 782 002a 0020     		movs	r0, #0
 783 002c FFF7FEFF 		bl	MOTOR_R_WriteCompare
 216:.\motor.c     **** }
 784              		.loc 1 216 0
 785 0030 80BD     		pop	{r7, pc}
 786              		.cfi_endproc
 787              	.LFE75:
 788              		.size	start_motors, .-start_motors
 789 0032 00BF     		.section	.text.setSpeed,"ax",%progbits
 790              		.align	2
 791              		.global	setSpeed
 792              		.thumb
 793              		.thumb_func
 794              		.type	setSpeed, %function
 795              	setSpeed:
 796              	.LFB76:
 217:.\motor.c     **** 
 218:.\motor.c     **** 
 219:.\motor.c     **** /*
 220:.\motor.c     ****  * Set *motor* speed to *speed*
 221:.\motor.c     ****  * Speed between 0 and 255. Note that the motors won't start to actually push
 222:.\motor.c     ****  * the robot forward til around 100
 223:.\motor.c     ****  */ 
 224:.\motor.c     **** void setSpeed(uint8 motor, uint8 speed){
 797              		.loc 1 224 0
 798              		.cfi_startproc
 799              		@ args = 0, pretend = 0, frame = 8
ARM GAS  C:\Users\xavieran\AppData\Local\Temp\ccccYZyk.s 			page 19


 800              		@ frame_needed = 1, uses_anonymous_args = 0
 801 0000 80B5     		push	{r7, lr}
 802              		.cfi_def_cfa_offset 8
 803              		.cfi_offset 7, -8
 804              		.cfi_offset 14, -4
 805 0002 82B0     		sub	sp, sp, #8
 806              		.cfi_def_cfa_offset 16
 807 0004 00AF     		add	r7, sp, #0
 808              		.cfi_def_cfa_register 7
 809 0006 0246     		mov	r2, r0
 810 0008 0B46     		mov	r3, r1
 811 000a FA71     		strb	r2, [r7, #7]
 812 000c BB71     		strb	r3, [r7, #6]
 225:.\motor.c     ****     /* Set bit 1 of motor to select motor 1 
 226:.\motor.c     ****      * Set bit 2 of motor to select motor 2
 227:.\motor.c     ****      */
 228:.\motor.c     ****     if (motor & MRIGHT){
 813              		.loc 1 228 0
 814 000e FB79     		ldrb	r3, [r7, #7]	@ zero_extendqisi2
 815 0010 03F00203 		and	r3, r3, #2
 816 0014 002B     		cmp	r3, #0
 817 0016 03D0     		beq	.L45
 229:.\motor.c     ****         MOTOR_R_WriteCompare(speed);
 818              		.loc 1 229 0
 819 0018 BB79     		ldrb	r3, [r7, #6]	@ zero_extendqisi2
 820 001a 1846     		mov	r0, r3
 821 001c FFF7FEFF 		bl	MOTOR_R_WriteCompare
 822              	.L45:
 230:.\motor.c     ****     }
 231:.\motor.c     ****     if (motor & MLEFT){ //Slow down the left motor because it tends to be faster
 823              		.loc 1 231 0
 824 0020 FB79     		ldrb	r3, [r7, #7]	@ zero_extendqisi2
 825 0022 03F00103 		and	r3, r3, #1
 826 0026 002B     		cmp	r3, #0
 827 0028 03D0     		beq	.L44
 232:.\motor.c     ****         MOTOR_L_WriteCompare(speed - LEFT_MOTOR_SPEED_CORRECTION);
 828              		.loc 1 232 0
 829 002a BB79     		ldrb	r3, [r7, #6]	@ zero_extendqisi2
 830 002c 1846     		mov	r0, r3
 831 002e FFF7FEFF 		bl	MOTOR_L_WriteCompare
 832              	.L44:
 233:.\motor.c     ****     }
 234:.\motor.c     **** }
 833              		.loc 1 234 0
 834 0032 0837     		adds	r7, r7, #8
 835 0034 BD46     		mov	sp, r7
 836              		@ sp needed
 837 0036 80BD     		pop	{r7, pc}
 838              		.cfi_endproc
 839              	.LFE76:
 840              		.size	setSpeed, .-setSpeed
 841              		.section	.text.setCoast,"ax",%progbits
 842              		.align	2
 843              		.global	setCoast
 844              		.thumb
 845              		.thumb_func
 846              		.type	setCoast, %function
ARM GAS  C:\Users\xavieran\AppData\Local\Temp\ccccYZyk.s 			page 20


 847              	setCoast:
 848              	.LFB77:
 235:.\motor.c     **** 
 236:.\motor.c     **** 
 237:.\motor.c     **** /*
 238:.\motor.c     ****  * Set *motor* to coast
 239:.\motor.c     ****  */ 
 240:.\motor.c     **** void setCoast(uint8 motor){
 849              		.loc 1 240 0
 850              		.cfi_startproc
 851              		@ args = 0, pretend = 0, frame = 8
 852              		@ frame_needed = 1, uses_anonymous_args = 0
 853 0000 80B5     		push	{r7, lr}
 854              		.cfi_def_cfa_offset 8
 855              		.cfi_offset 7, -8
 856              		.cfi_offset 14, -4
 857 0002 82B0     		sub	sp, sp, #8
 858              		.cfi_def_cfa_offset 16
 859 0004 00AF     		add	r7, sp, #0
 860              		.cfi_def_cfa_register 7
 861 0006 0346     		mov	r3, r0
 862 0008 FB71     		strb	r3, [r7, #7]
 241:.\motor.c     ****         if (motor & MLEFT){
 863              		.loc 1 241 0
 864 000a FB79     		ldrb	r3, [r7, #7]	@ zero_extendqisi2
 865 000c 03F00103 		and	r3, r3, #1
 866 0010 002B     		cmp	r3, #0
 867 0012 05D0     		beq	.L48
 242:.\motor.c     ****         MLIN1_Write(0);
 868              		.loc 1 242 0
 869 0014 0020     		movs	r0, #0
 870 0016 FFF7FEFF 		bl	MLIN1_Write
 243:.\motor.c     ****         MLIN2_Write(0);
 871              		.loc 1 243 0
 872 001a 0020     		movs	r0, #0
 873 001c FFF7FEFF 		bl	MLIN2_Write
 874              	.L48:
 244:.\motor.c     ****     }
 245:.\motor.c     ****     
 246:.\motor.c     ****     if (motor & MRIGHT){
 875              		.loc 1 246 0
 876 0020 FB79     		ldrb	r3, [r7, #7]	@ zero_extendqisi2
 877 0022 03F00203 		and	r3, r3, #2
 878 0026 002B     		cmp	r3, #0
 879 0028 05D0     		beq	.L47
 247:.\motor.c     ****         MRIN1_Write(0);
 880              		.loc 1 247 0
 881 002a 0020     		movs	r0, #0
 882 002c FFF7FEFF 		bl	MRIN1_Write
 248:.\motor.c     ****         MRIN2_Write(0);
 883              		.loc 1 248 0
 884 0030 0020     		movs	r0, #0
 885 0032 FFF7FEFF 		bl	MRIN2_Write
 886              	.L47:
 249:.\motor.c     ****     }
 250:.\motor.c     **** }
 887              		.loc 1 250 0
ARM GAS  C:\Users\xavieran\AppData\Local\Temp\ccccYZyk.s 			page 21


 888 0036 0837     		adds	r7, r7, #8
 889 0038 BD46     		mov	sp, r7
 890              		@ sp needed
 891 003a 80BD     		pop	{r7, pc}
 892              		.cfi_endproc
 893              	.LFE77:
 894              		.size	setCoast, .-setCoast
 895              		.section	.text.setForward,"ax",%progbits
 896              		.align	2
 897              		.global	setForward
 898              		.thumb
 899              		.thumb_func
 900              		.type	setForward, %function
 901              	setForward:
 902              	.LFB78:
 251:.\motor.c     **** 
 252:.\motor.c     **** 
 253:.\motor.c     **** /*
 254:.\motor.c     ****  * Set *motor* to forward drive
 255:.\motor.c     ****  */ 
 256:.\motor.c     **** void setForward(uint8 motor){
 903              		.loc 1 256 0
 904              		.cfi_startproc
 905              		@ args = 0, pretend = 0, frame = 8
 906              		@ frame_needed = 1, uses_anonymous_args = 0
 907 0000 80B5     		push	{r7, lr}
 908              		.cfi_def_cfa_offset 8
 909              		.cfi_offset 7, -8
 910              		.cfi_offset 14, -4
 911 0002 82B0     		sub	sp, sp, #8
 912              		.cfi_def_cfa_offset 16
 913 0004 00AF     		add	r7, sp, #0
 914              		.cfi_def_cfa_register 7
 915 0006 0346     		mov	r3, r0
 916 0008 FB71     		strb	r3, [r7, #7]
 257:.\motor.c     ****     if (motor & MLEFT){
 917              		.loc 1 257 0
 918 000a FB79     		ldrb	r3, [r7, #7]	@ zero_extendqisi2
 919 000c 03F00103 		and	r3, r3, #1
 920 0010 002B     		cmp	r3, #0
 921 0012 05D0     		beq	.L51
 258:.\motor.c     ****         MLIN1_Write(1);
 922              		.loc 1 258 0
 923 0014 0120     		movs	r0, #1
 924 0016 FFF7FEFF 		bl	MLIN1_Write
 259:.\motor.c     ****         MLIN2_Write(0);
 925              		.loc 1 259 0
 926 001a 0020     		movs	r0, #0
 927 001c FFF7FEFF 		bl	MLIN2_Write
 928              	.L51:
 260:.\motor.c     ****     }
 261:.\motor.c     ****     
 262:.\motor.c     ****     if (motor & MRIGHT){
 929              		.loc 1 262 0
 930 0020 FB79     		ldrb	r3, [r7, #7]	@ zero_extendqisi2
 931 0022 03F00203 		and	r3, r3, #2
 932 0026 002B     		cmp	r3, #0
ARM GAS  C:\Users\xavieran\AppData\Local\Temp\ccccYZyk.s 			page 22


 933 0028 05D0     		beq	.L50
 263:.\motor.c     ****         MRIN1_Write(1);
 934              		.loc 1 263 0
 935 002a 0120     		movs	r0, #1
 936 002c FFF7FEFF 		bl	MRIN1_Write
 264:.\motor.c     ****         MRIN2_Write(0);
 937              		.loc 1 264 0
 938 0030 0020     		movs	r0, #0
 939 0032 FFF7FEFF 		bl	MRIN2_Write
 940              	.L50:
 265:.\motor.c     ****     }
 266:.\motor.c     **** }
 941              		.loc 1 266 0
 942 0036 0837     		adds	r7, r7, #8
 943 0038 BD46     		mov	sp, r7
 944              		@ sp needed
 945 003a 80BD     		pop	{r7, pc}
 946              		.cfi_endproc
 947              	.LFE78:
 948              		.size	setForward, .-setForward
 949              		.section	.text.setReverse,"ax",%progbits
 950              		.align	2
 951              		.global	setReverse
 952              		.thumb
 953              		.thumb_func
 954              		.type	setReverse, %function
 955              	setReverse:
 956              	.LFB79:
 267:.\motor.c     **** 
 268:.\motor.c     **** /*
 269:.\motor.c     ****  * Set *motor* to reverse drive
 270:.\motor.c     ****  */ 
 271:.\motor.c     **** void setReverse(uint8 motor){
 957              		.loc 1 271 0
 958              		.cfi_startproc
 959              		@ args = 0, pretend = 0, frame = 8
 960              		@ frame_needed = 1, uses_anonymous_args = 0
 961 0000 80B5     		push	{r7, lr}
 962              		.cfi_def_cfa_offset 8
 963              		.cfi_offset 7, -8
 964              		.cfi_offset 14, -4
 965 0002 82B0     		sub	sp, sp, #8
 966              		.cfi_def_cfa_offset 16
 967 0004 00AF     		add	r7, sp, #0
 968              		.cfi_def_cfa_register 7
 969 0006 0346     		mov	r3, r0
 970 0008 FB71     		strb	r3, [r7, #7]
 272:.\motor.c     ****     if (motor & MLEFT){
 971              		.loc 1 272 0
 972 000a FB79     		ldrb	r3, [r7, #7]	@ zero_extendqisi2
 973 000c 03F00103 		and	r3, r3, #1
 974 0010 002B     		cmp	r3, #0
 975 0012 05D0     		beq	.L54
 273:.\motor.c     ****         MLIN1_Write(0);
 976              		.loc 1 273 0
 977 0014 0020     		movs	r0, #0
 978 0016 FFF7FEFF 		bl	MLIN1_Write
ARM GAS  C:\Users\xavieran\AppData\Local\Temp\ccccYZyk.s 			page 23


 274:.\motor.c     ****         MLIN2_Write(1);
 979              		.loc 1 274 0
 980 001a 0120     		movs	r0, #1
 981 001c FFF7FEFF 		bl	MLIN2_Write
 982              	.L54:
 275:.\motor.c     ****     }
 276:.\motor.c     ****     
 277:.\motor.c     ****     if (motor & MRIGHT){
 983              		.loc 1 277 0
 984 0020 FB79     		ldrb	r3, [r7, #7]	@ zero_extendqisi2
 985 0022 03F00203 		and	r3, r3, #2
 986 0026 002B     		cmp	r3, #0
 987 0028 05D0     		beq	.L53
 278:.\motor.c     ****         MRIN1_Write(0);
 988              		.loc 1 278 0
 989 002a 0020     		movs	r0, #0
 990 002c FFF7FEFF 		bl	MRIN1_Write
 279:.\motor.c     ****         MRIN2_Write(1);
 991              		.loc 1 279 0
 992 0030 0120     		movs	r0, #1
 993 0032 FFF7FEFF 		bl	MRIN2_Write
 994              	.L53:
 280:.\motor.c     ****     }
 281:.\motor.c     **** }
 995              		.loc 1 281 0
 996 0036 0837     		adds	r7, r7, #8
 997 0038 BD46     		mov	sp, r7
 998              		@ sp needed
 999 003a 80BD     		pop	{r7, pc}
 1000              		.cfi_endproc
 1001              	.LFE79:
 1002              		.size	setReverse, .-setReverse
 1003              		.text
 1004              	.Letext0:
 1005              		.file 2 "c:\\program files (x86)\\cypress\\psoc creator\\3.2\\psoc creator\\import\\gnu\\arm\\4.8.
 1006              		.file 3 "c:\\program files (x86)\\cypress\\psoc creator\\3.2\\psoc creator\\import\\gnu\\arm\\4.8.
 1007              		.file 4 "Generated_Source\\PSoC5/cytypes.h"
 1008              		.file 5 "Generated_Source\\PSoC5/core_cm3.h"
 1009              		.file 6 "Generated_Source\\PSoC5/Camera.h"