ARM GAS  C:\Users\xavieran\AppData\Local\Temp\cctpMRLJ.s 			page 1


   1              		.syntax unified
   2              		.cpu cortex-m3
   3              		.fpu softvfp
   4              		.eabi_attribute 20, 1
   5              		.eabi_attribute 21, 1
   6              		.eabi_attribute 23, 3
   7              		.eabi_attribute 24, 1
   8              		.eabi_attribute 25, 1
   9              		.eabi_attribute 26, 1
  10              		.eabi_attribute 30, 6
  11              		.eabi_attribute 34, 1
  12              		.eabi_attribute 18, 4
  13              		.thumb
  14              		.file	"motor.c"
  15              		.text
  16              	.Ltext0:
  17              		.cfi_sections	.debug_frame
  18              		.comm	Camera_framebuffer,50688,4
  19              		.comm	desired_distance,4,4
  20              		.comm	desired_heading,2,2
  21              		.comm	start_x,4,4
  22              		.comm	start_y,4,4
  23              		.comm	end_x,4,4
  24              		.comm	end_y,4,4
  25              		.comm	motor_state,1,1
  26              		.comm	just_arrived,1,1
  27              		.comm	currently_rotating,1,1
  28              		.section	.text.isRotating,"ax",%progbits
  29              		.align	2
  30              		.global	isRotating
  31              		.thumb
  32              		.thumb_func
  33              		.type	isRotating, %function
  34              	isRotating:
  35              	.LFB63:
  36              		.file 1 ".\\motor.c"
   1:.\motor.c     **** /* ========================================
   2:.\motor.c     ****  *
   3:.\motor.c     ****  * Copyright YOUR COMPANY, THE YEAR
   4:.\motor.c     ****  * All Rights Reserved
   5:.\motor.c     ****  * UNPUBLISHED, LICENSED SOFTWARE.
   6:.\motor.c     ****  *
   7:.\motor.c     ****  * CONFIDENTIAL AND PROPRIETARY INFORMATION
   8:.\motor.c     ****  * WHICH IS THE PROPERTY OF your company.
   9:.\motor.c     ****  *
  10:.\motor.c     ****  * ========================================
  11:.\motor.c     **** */
  12:.\motor.c     **** 
  13:.\motor.c     **** #include <math.h>
  14:.\motor.c     **** #include <stdio.h>
  15:.\motor.c     **** 
  16:.\motor.c     **** #include <project.h>
  17:.\motor.c     **** #include <motor.h>
  18:.\motor.c     **** #include <compass.h>
  19:.\motor.c     **** #include <ultrasonic.h>
  20:.\motor.c     **** 
  21:.\motor.c     **** int32 desired_distance;
ARM GAS  C:\Users\xavieran\AppData\Local\Temp\cctpMRLJ.s 			page 2


  22:.\motor.c     **** int16 desired_heading;
  23:.\motor.c     **** extern volatile uint8 compass_ready;
  24:.\motor.c     **** //The position before executing a move to order
  25:.\motor.c     **** int32 start_x;
  26:.\motor.c     **** int32 start_y;
  27:.\motor.c     **** //The position we wish to go to
  28:.\motor.c     **** int32 end_x;
  29:.\motor.c     **** int32 end_y;
  30:.\motor.c     **** 
  31:.\motor.c     **** //Hold the current state of the motors
  32:.\motor.c     **** uint8 motor_state;
  33:.\motor.c     **** uint8 just_arrived;
  34:.\motor.c     **** uint8 currently_rotating;
  35:.\motor.c     **** uint8 isRotating(){
  37              		.loc 1 35 0
  38              		.cfi_startproc
  39              		@ args = 0, pretend = 0, frame = 0
  40              		@ frame_needed = 1, uses_anonymous_args = 0
  41              		@ link register save eliminated.
  42 0000 80B4     		push	{r7}
  43              		.cfi_def_cfa_offset 4
  44              		.cfi_offset 7, -4
  45 0002 00AF     		add	r7, sp, #0
  46              		.cfi_def_cfa_register 7
  36:.\motor.c     ****     return currently_rotating;
  47              		.loc 1 36 0
  48 0004 034B     		ldr	r3, .L3
  49 0006 1B78     		ldrb	r3, [r3]	@ zero_extendqisi2
  37:.\motor.c     **** }
  50              		.loc 1 37 0
  51 0008 1846     		mov	r0, r3
  52 000a BD46     		mov	sp, r7
  53              		@ sp needed
  54 000c 5DF8047B 		ldr	r7, [sp], #4
  55 0010 7047     		bx	lr
  56              	.L4:
  57 0012 00BF     		.align	2
  58              	.L3:
  59 0014 00000000 		.word	currently_rotating
  60              		.cfi_endproc
  61              	.LFE63:
  62              		.size	isRotating, .-isRotating
  63              		.comm	currently_driving,1,1
  64              		.section	.text.isDriving,"ax",%progbits
  65              		.align	2
  66              		.global	isDriving
  67              		.thumb
  68              		.thumb_func
  69              		.type	isDriving, %function
  70              	isDriving:
  71              	.LFB64:
  38:.\motor.c     **** uint8 currently_driving;
  39:.\motor.c     **** uint8 isDriving(){
  72              		.loc 1 39 0
  73              		.cfi_startproc
  74              		@ args = 0, pretend = 0, frame = 0
  75              		@ frame_needed = 1, uses_anonymous_args = 0
ARM GAS  C:\Users\xavieran\AppData\Local\Temp\cctpMRLJ.s 			page 3


  76              		@ link register save eliminated.
  77 0000 80B4     		push	{r7}
  78              		.cfi_def_cfa_offset 4
  79              		.cfi_offset 7, -4
  80 0002 00AF     		add	r7, sp, #0
  81              		.cfi_def_cfa_register 7
  40:.\motor.c     ****     return currently_driving;
  82              		.loc 1 40 0
  83 0004 034B     		ldr	r3, .L7
  84 0006 1B78     		ldrb	r3, [r3]	@ zero_extendqisi2
  41:.\motor.c     **** }
  85              		.loc 1 41 0
  86 0008 1846     		mov	r0, r3
  87 000a BD46     		mov	sp, r7
  88              		@ sp needed
  89 000c 5DF8047B 		ldr	r7, [sp], #4
  90 0010 7047     		bx	lr
  91              	.L8:
  92 0012 00BF     		.align	2
  93              	.L7:
  94 0014 00000000 		.word	currently_driving
  95              		.cfi_endproc
  96              	.LFE64:
  97              		.size	isDriving, .-isDriving
  98              		.global	HEADING_ERROR_LIMIT
  99              		.data
 100              		.type	HEADING_ERROR_LIMIT, %object
 101              		.size	HEADING_ERROR_LIMIT, 1
 102              	HEADING_ERROR_LIMIT:
 103 0000 03       		.byte	3
 104              		.global	STALL_SPEED
 105              		.type	STALL_SPEED, %object
 106              		.size	STALL_SPEED, 1
 107              	STALL_SPEED:
 108 0001 96       		.byte	-106
 109              		.global	MAX_SPEED
 110              		.type	MAX_SPEED, %object
 111              		.size	MAX_SPEED, 1
 112              	MAX_SPEED:
 113 0002 F0       		.byte	-16
 114              		.comm	outString,25,4
 115              		.section	.text.my6abs,"ax",%progbits
 116              		.align	2
 117              		.global	my6abs
 118              		.thumb
 119              		.thumb_func
 120              		.type	my6abs, %function
 121              	my6abs:
 122              	.LFB65:
  42:.\motor.c     **** 
  43:.\motor.c     **** uint8 HEADING_ERROR_LIMIT = 3;
  44:.\motor.c     **** uint8 STALL_SPEED = ARENA_STALL_SPEED;
  45:.\motor.c     **** uint8 MAX_SPEED = 240;
  46:.\motor.c     **** char outString[25];
  47:.\motor.c     **** 
  48:.\motor.c     **** #define POS_PRINTF(R,C,X,...) \
  49:.\motor.c     ****  {sprintf(outString, X, ##__VA_ARGS__); LCD_Position(R, C); LCD_PrintString(outString);}
ARM GAS  C:\Users\xavieran\AppData\Local\Temp\cctpMRLJ.s 			page 4


  50:.\motor.c     **** 
  51:.\motor.c     **** 
  52:.\motor.c     **** 
  53:.\motor.c     **** // From compass.c
  54:.\motor.c     **** extern int16 compass_heading;
  55:.\motor.c     **** // From navigation.c
  56:.\motor.c     **** extern volatile struct Position location;
  57:.\motor.c     **** 
  58:.\motor.c     **** void rotate_left(int speed);
  59:.\motor.c     **** void rotate_right(int speed);
  60:.\motor.c     **** int16 abs2(int16 val);
  61:.\motor.c     **** 
  62:.\motor.c     **** 
  63:.\motor.c     **** int my6abs(x){
 123              		.loc 1 63 0
 124              		.cfi_startproc
 125              		@ args = 0, pretend = 0, frame = 8
 126              		@ frame_needed = 1, uses_anonymous_args = 0
 127              		@ link register save eliminated.
 128 0000 80B4     		push	{r7}
 129              		.cfi_def_cfa_offset 4
 130              		.cfi_offset 7, -4
 131 0002 83B0     		sub	sp, sp, #12
 132              		.cfi_def_cfa_offset 16
 133 0004 00AF     		add	r7, sp, #0
 134              		.cfi_def_cfa_register 7
 135 0006 7860     		str	r0, [r7, #4]
  64:.\motor.c     ****     if (x < 0){
 136              		.loc 1 64 0
 137 0008 7B68     		ldr	r3, [r7, #4]
 138 000a 002B     		cmp	r3, #0
 139 000c 02DA     		bge	.L10
  65:.\motor.c     ****         return -x;
 140              		.loc 1 65 0
 141 000e 7B68     		ldr	r3, [r7, #4]
 142 0010 5B42     		negs	r3, r3
 143 0012 00E0     		b	.L11
 144              	.L10:
  66:.\motor.c     ****     } else {
  67:.\motor.c     ****         return x;
 145              		.loc 1 67 0
 146 0014 7B68     		ldr	r3, [r7, #4]
 147              	.L11:
  68:.\motor.c     ****     }
  69:.\motor.c     **** }
 148              		.loc 1 69 0
 149 0016 1846     		mov	r0, r3
 150 0018 0C37     		adds	r7, r7, #12
 151 001a BD46     		mov	sp, r7
 152              		@ sp needed
 153 001c 5DF8047B 		ldr	r7, [sp], #4
 154 0020 7047     		bx	lr
 155              		.cfi_endproc
 156              	.LFE65:
 157              		.size	my6abs, .-my6abs
 158 0022 00BF     		.section	.text.clip,"ax",%progbits
 159              		.align	2
ARM GAS  C:\Users\xavieran\AppData\Local\Temp\cctpMRLJ.s 			page 5


 160              		.global	clip
 161              		.thumb
 162              		.thumb_func
 163              		.type	clip, %function
 164              	clip:
 165              	.LFB66:
  70:.\motor.c     **** 
  71:.\motor.c     **** uint8 clip(int lower, int var, int upper){
 166              		.loc 1 71 0
 167              		.cfi_startproc
 168              		@ args = 0, pretend = 0, frame = 16
 169              		@ frame_needed = 1, uses_anonymous_args = 0
 170              		@ link register save eliminated.
 171 0000 80B4     		push	{r7}
 172              		.cfi_def_cfa_offset 4
 173              		.cfi_offset 7, -4
 174 0002 85B0     		sub	sp, sp, #20
 175              		.cfi_def_cfa_offset 24
 176 0004 00AF     		add	r7, sp, #0
 177              		.cfi_def_cfa_register 7
 178 0006 F860     		str	r0, [r7, #12]
 179 0008 B960     		str	r1, [r7, #8]
 180 000a 7A60     		str	r2, [r7, #4]
  72:.\motor.c     ****     if (var > upper){
 181              		.loc 1 72 0
 182 000c BA68     		ldr	r2, [r7, #8]
 183 000e 7B68     		ldr	r3, [r7, #4]
 184 0010 9A42     		cmp	r2, r3
 185 0012 02DD     		ble	.L13
  73:.\motor.c     ****         return upper;
 186              		.loc 1 73 0
 187 0014 7B68     		ldr	r3, [r7, #4]
 188 0016 DBB2     		uxtb	r3, r3
 189 0018 08E0     		b	.L14
 190              	.L13:
  74:.\motor.c     ****     } else if (var < lower) {
 191              		.loc 1 74 0
 192 001a BA68     		ldr	r2, [r7, #8]
 193 001c FB68     		ldr	r3, [r7, #12]
 194 001e 9A42     		cmp	r2, r3
 195 0020 02DA     		bge	.L15
  75:.\motor.c     ****         return lower;
 196              		.loc 1 75 0
 197 0022 FB68     		ldr	r3, [r7, #12]
 198 0024 DBB2     		uxtb	r3, r3
 199 0026 01E0     		b	.L14
 200              	.L15:
  76:.\motor.c     ****     } else {
  77:.\motor.c     ****         return var;
 201              		.loc 1 77 0
 202 0028 BB68     		ldr	r3, [r7, #8]
 203 002a DBB2     		uxtb	r3, r3
 204              	.L14:
  78:.\motor.c     ****     }
  79:.\motor.c     **** }
 205              		.loc 1 79 0
 206 002c 1846     		mov	r0, r3
ARM GAS  C:\Users\xavieran\AppData\Local\Temp\cctpMRLJ.s 			page 6


 207 002e 1437     		adds	r7, r7, #20
 208 0030 BD46     		mov	sp, r7
 209              		@ sp needed
 210 0032 5DF8047B 		ldr	r7, [sp], #4
 211 0036 7047     		bx	lr
 212              		.cfi_endproc
 213              	.LFE66:
 214              		.size	clip, .-clip
 215              		.section	.text.control_heading,"ax",%progbits
 216              		.align	2
 217              		.global	control_heading
 218              		.thumb
 219              		.thumb_func
 220              		.type	control_heading, %function
 221              	control_heading:
 222              	.LFB67:
  80:.\motor.c     **** 
  81:.\motor.c     **** /** This function is to be called every time through the main loop 
  82:.\motor.c     ****  * It will 
  83:.\motor.c     ****  */
  84:.\motor.c     **** 
  85:.\motor.c     **** int control_heading(){
 223              		.loc 1 85 0
 224              		.cfi_startproc
 225              		@ args = 0, pretend = 0, frame = 8
 226              		@ frame_needed = 1, uses_anonymous_args = 0
 227 0000 90B5     		push	{r4, r7, lr}
 228              		.cfi_def_cfa_offset 12
 229              		.cfi_offset 4, -12
 230              		.cfi_offset 7, -8
 231              		.cfi_offset 14, -4
 232 0002 83B0     		sub	sp, sp, #12
 233              		.cfi_def_cfa_offset 24
 234 0004 00AF     		add	r7, sp, #0
 235              		.cfi_def_cfa_register 7
  86:.\motor.c     ****     /* 
  87:.\motor.c     ****      * Step 1. Correct the heading 
  88:.\motor.c     ****      */
  89:.\motor.c     ****     while (!compass_ready){;}
 236              		.loc 1 89 0
 237 0006 00BF     		nop
 238              	.L17:
 239              		.loc 1 89 0 is_stmt 0 discriminator 1
 240 0008 3B4B     		ldr	r3, .L23
 241 000a 1B78     		ldrb	r3, [r3]
 242 000c DBB2     		uxtb	r3, r3
 243 000e 002B     		cmp	r3, #0
 244 0010 FAD0     		beq	.L17
  90:.\motor.c     ****     compass_read();
 245              		.loc 1 90 0 is_stmt 1
 246 0012 FFF7FEFF 		bl	compass_read
  91:.\motor.c     ****     int16 heading_error = desired_heading - compass_heading;
 247              		.loc 1 91 0
 248 0016 394B     		ldr	r3, .L23+4
 249 0018 1B88     		ldrh	r3, [r3]
 250 001a 9AB2     		uxth	r2, r3
 251 001c 384B     		ldr	r3, .L23+8
ARM GAS  C:\Users\xavieran\AppData\Local\Temp\cctpMRLJ.s 			page 7


 252 001e 1B88     		ldrh	r3, [r3]
 253 0020 9BB2     		uxth	r3, r3
 254 0022 D31A     		subs	r3, r2, r3
 255 0024 9BB2     		uxth	r3, r3
 256 0026 FB80     		strh	r3, [r7, #6]	@ movhi
  92:.\motor.c     ****     heading_error = heading_error % 360;
 257              		.loc 1 92 0
 258 0028 B7F90630 		ldrsh	r3, [r7, #6]
 259 002c 354A     		ldr	r2, .L23+12
 260 002e 83FB0201 		smull	r0, r1, r3, r2
 261 0032 5A18     		adds	r2, r3, r1
 262 0034 1112     		asrs	r1, r2, #8
 263 0036 DA17     		asrs	r2, r3, #31
 264 0038 8A1A     		subs	r2, r1, r2
 265 003a 4FF4B471 		mov	r1, #360
 266 003e 01FB02F2 		mul	r2, r1, r2
 267 0042 9B1A     		subs	r3, r3, r2
 268 0044 FB80     		strh	r3, [r7, #6]	@ movhi
  93:.\motor.c     ****     //POS_PRINTF(0,0,"d%d c%d e%d", desired_heading, compass_heading, heading_error);
  94:.\motor.c     ****     // If the error is greater than 180, there is a shorter way around the unit 
  95:.\motor.c     ****     // circle, this corrects that
  96:.\motor.c     ****     if (my6abs(heading_error) > 180){
 269              		.loc 1 96 0
 270 0046 B7F90630 		ldrsh	r3, [r7, #6]
 271 004a 1846     		mov	r0, r3
 272 004c FFF7FEFF 		bl	my6abs
 273 0050 0346     		mov	r3, r0
 274 0052 B42B     		cmp	r3, #180
 275 0054 0DDD     		ble	.L18
  97:.\motor.c     ****         heading_error = -(desired_heading - (360 - compass_heading));
 276              		.loc 1 97 0
 277 0056 2A4B     		ldr	r3, .L23+8
 278 0058 1B88     		ldrh	r3, [r3]
 279 005a 9BB2     		uxth	r3, r3
 280 005c 5B42     		negs	r3, r3
 281 005e 9AB2     		uxth	r2, r3
 282 0060 264B     		ldr	r3, .L23+4
 283 0062 1B88     		ldrh	r3, [r3]
 284 0064 9BB2     		uxth	r3, r3
 285 0066 D31A     		subs	r3, r2, r3
 286 0068 9BB2     		uxth	r3, r3
 287 006a 03F5B473 		add	r3, r3, #360
 288 006e 9BB2     		uxth	r3, r3
 289 0070 FB80     		strh	r3, [r7, #6]	@ movhi
 290              	.L18:
  98:.\motor.c     ****     }
  99:.\motor.c     ****     // We need to correct the heading if the error is greater than 
 100:.\motor.c     ****     if (my6abs(heading_error) > HEADING_ERROR_LIMIT){ 
 291              		.loc 1 100 0
 292 0072 B7F90630 		ldrsh	r3, [r7, #6]
 293 0076 1846     		mov	r0, r3
 294 0078 FFF7FEFF 		bl	my6abs
 295 007c 0246     		mov	r2, r0
 296 007e 224B     		ldr	r3, .L23+16
 297 0080 1B78     		ldrb	r3, [r3]	@ zero_extendqisi2
 298 0082 9A42     		cmp	r2, r3
 299 0084 30DD     		ble	.L19
ARM GAS  C:\Users\xavieran\AppData\Local\Temp\cctpMRLJ.s 			page 8


 101:.\motor.c     ****         // the actual heading is greater than the desired heading
 102:.\motor.c     ****         if (heading_error < 0){ 
 300              		.loc 1 102 0
 301 0086 B7F90630 		ldrsh	r3, [r7, #6]
 302 008a 002B     		cmp	r3, #0
 303 008c 15DA     		bge	.L20
 103:.\motor.c     ****             rotate_left(clip(STALL_SPEED, my6abs(heading_error)*2, MAX_SPEED));
 304              		.loc 1 103 0
 305 008e 1F4B     		ldr	r3, .L23+20
 306 0090 1B78     		ldrb	r3, [r3]	@ zero_extendqisi2
 307 0092 1C46     		mov	r4, r3
 308 0094 B7F90630 		ldrsh	r3, [r7, #6]
 309 0098 1846     		mov	r0, r3
 310 009a FFF7FEFF 		bl	my6abs
 311 009e 0346     		mov	r3, r0
 312 00a0 5A00     		lsls	r2, r3, #1
 313 00a2 1B4B     		ldr	r3, .L23+24
 314 00a4 1B78     		ldrb	r3, [r3]	@ zero_extendqisi2
 315 00a6 2046     		mov	r0, r4
 316 00a8 1146     		mov	r1, r2
 317 00aa 1A46     		mov	r2, r3
 318 00ac FFF7FEFF 		bl	clip
 319 00b0 0346     		mov	r3, r0
 320 00b2 1846     		mov	r0, r3
 321 00b4 FFF7FEFF 		bl	rotate_left
 322 00b8 14E0     		b	.L21
 323              	.L20:
 104:.\motor.c     ****         } else {
 105:.\motor.c     ****             rotate_right(clip(STALL_SPEED, my6abs(heading_error)*2, MAX_SPEED));
 324              		.loc 1 105 0
 325 00ba 144B     		ldr	r3, .L23+20
 326 00bc 1B78     		ldrb	r3, [r3]	@ zero_extendqisi2
 327 00be 1C46     		mov	r4, r3
 328 00c0 B7F90630 		ldrsh	r3, [r7, #6]
 329 00c4 1846     		mov	r0, r3
 330 00c6 FFF7FEFF 		bl	my6abs
 331 00ca 0346     		mov	r3, r0
 332 00cc 5A00     		lsls	r2, r3, #1
 333 00ce 104B     		ldr	r3, .L23+24
 334 00d0 1B78     		ldrb	r3, [r3]	@ zero_extendqisi2
 335 00d2 2046     		mov	r0, r4
 336 00d4 1146     		mov	r1, r2
 337 00d6 1A46     		mov	r2, r3
 338 00d8 FFF7FEFF 		bl	clip
 339 00dc 0346     		mov	r3, r0
 340 00de 1846     		mov	r0, r3
 341 00e0 FFF7FEFF 		bl	rotate_right
 342              	.L21:
 106:.\motor.c     ****         }
 107:.\motor.c     ****         
 108:.\motor.c     ****         return MEND_S_ROTATING;
 343              		.loc 1 108 0
 344 00e4 0123     		movs	r3, #1
 345 00e6 03E0     		b	.L22
 346              	.L19:
 109:.\motor.c     ****     }
 110:.\motor.c     ****     setCoast(MBOTH);
ARM GAS  C:\Users\xavieran\AppData\Local\Temp\cctpMRLJ.s 			page 9


 347              		.loc 1 110 0
 348 00e8 0320     		movs	r0, #3
 349 00ea FFF7FEFF 		bl	setCoast
 111:.\motor.c     ****     
 112:.\motor.c     ****     return MEND_S_STOPPED;
 350              		.loc 1 112 0
 351 00ee 0023     		movs	r3, #0
 352              	.L22:
 113:.\motor.c     **** }
 353              		.loc 1 113 0
 354 00f0 1846     		mov	r0, r3
 355 00f2 0C37     		adds	r7, r7, #12
 356 00f4 BD46     		mov	sp, r7
 357              		@ sp needed
 358 00f6 90BD     		pop	{r4, r7, pc}
 359              	.L24:
 360              		.align	2
 361              	.L23:
 362 00f8 00000000 		.word	compass_ready
 363 00fc 00000000 		.word	desired_heading
 364 0100 00000000 		.word	compass_heading
 365 0104 B7600BB6 		.word	-1240768329
 366 0108 00000000 		.word	HEADING_ERROR_LIMIT
 367 010c 00000000 		.word	STALL_SPEED
 368 0110 00000000 		.word	MAX_SPEED
 369              		.cfi_endproc
 370              	.LFE67:
 371              		.size	control_heading, .-control_heading
 372              		.section	.text.go_forward,"ax",%progbits
 373              		.align	2
 374              		.global	go_forward
 375              		.thumb
 376              		.thumb_func
 377              		.type	go_forward, %function
 378              	go_forward:
 379              	.LFB68:
 114:.\motor.c     **** 
 115:.\motor.c     **** /* 
 116:.\motor.c     ****  * Makes the robot drive forward *time* seconds BLOCKING
 117:.\motor.c     ****  */
 118:.\motor.c     **** void go_forward(uint32 time, uint8 speed){
 380              		.loc 1 118 0
 381              		.cfi_startproc
 382              		@ args = 0, pretend = 0, frame = 16
 383              		@ frame_needed = 1, uses_anonymous_args = 0
 384 0000 80B5     		push	{r7, lr}
 385              		.cfi_def_cfa_offset 8
 386              		.cfi_offset 7, -8
 387              		.cfi_offset 14, -4
 388 0002 84B0     		sub	sp, sp, #16
 389              		.cfi_def_cfa_offset 24
 390 0004 00AF     		add	r7, sp, #0
 391              		.cfi_def_cfa_register 7
 392 0006 7860     		str	r0, [r7, #4]
 393 0008 0B46     		mov	r3, r1
 394 000a FB70     		strb	r3, [r7, #3]
 119:.\motor.c     ****     time = time * 10;
ARM GAS  C:\Users\xavieran\AppData\Local\Temp\cctpMRLJ.s 			page 10


 395              		.loc 1 119 0
 396 000c 7A68     		ldr	r2, [r7, #4]
 397 000e 1346     		mov	r3, r2
 398 0010 9B00     		lsls	r3, r3, #2
 399 0012 1344     		add	r3, r3, r2
 400 0014 5B00     		lsls	r3, r3, #1
 401 0016 7B60     		str	r3, [r7, #4]
 120:.\motor.c     ****     uint32 start_time = Timer_ReadCounter(); // each tick is 100us
 402              		.loc 1 120 0
 403 0018 FFF7FEFF 		bl	Timer_ReadCounter
 404 001c F860     		str	r0, [r7, #12]
 121:.\motor.c     ****     while (start_time - Timer_ReadCounter() < time){
 405              		.loc 1 121 0
 406 001e 0CE0     		b	.L26
 407              	.L27:
 122:.\motor.c     ****         setForward(MBOTH);
 408              		.loc 1 122 0
 409 0020 0320     		movs	r0, #3
 410 0022 FFF7FEFF 		bl	setForward
 123:.\motor.c     ****         setSpeed(MBOTH, speed);
 411              		.loc 1 123 0
 412 0026 FB78     		ldrb	r3, [r7, #3]	@ zero_extendqisi2
 413 0028 0320     		movs	r0, #3
 414 002a 1946     		mov	r1, r3
 415 002c FFF7FEFF 		bl	setSpeed
 124:.\motor.c     ****         control_heading();
 416              		.loc 1 124 0
 417 0030 FFF7FEFF 		bl	control_heading
 125:.\motor.c     ****         CyDelay(25);
 418              		.loc 1 125 0
 419 0034 1920     		movs	r0, #25
 420 0036 FFF7FEFF 		bl	CyDelay
 421              	.L26:
 121:.\motor.c     ****     while (start_time - Timer_ReadCounter() < time){
 422              		.loc 1 121 0 discriminator 1
 423 003a FFF7FEFF 		bl	Timer_ReadCounter
 424 003e 0346     		mov	r3, r0
 425 0040 FA68     		ldr	r2, [r7, #12]
 426 0042 D21A     		subs	r2, r2, r3
 427 0044 7B68     		ldr	r3, [r7, #4]
 428 0046 9A42     		cmp	r2, r3
 429 0048 EAD3     		bcc	.L27
 126:.\motor.c     ****     }
 127:.\motor.c     ****     setCoast(MBOTH);
 430              		.loc 1 127 0
 431 004a 0320     		movs	r0, #3
 432 004c FFF7FEFF 		bl	setCoast
 128:.\motor.c     **** }
 433              		.loc 1 128 0
 434 0050 1037     		adds	r7, r7, #16
 435 0052 BD46     		mov	sp, r7
 436              		@ sp needed
 437 0054 80BD     		pop	{r7, pc}
 438              		.cfi_endproc
 439              	.LFE68:
 440              		.size	go_forward, .-go_forward
 441 0056 00BF     		.section	.text.go_forward_blind,"ax",%progbits
ARM GAS  C:\Users\xavieran\AppData\Local\Temp\cctpMRLJ.s 			page 11


 442              		.align	2
 443              		.global	go_forward_blind
 444              		.thumb
 445              		.thumb_func
 446              		.type	go_forward_blind, %function
 447              	go_forward_blind:
 448              	.LFB69:
 129:.\motor.c     **** 
 130:.\motor.c     **** void go_forward_blind(uint32 time, uint8 speed){
 449              		.loc 1 130 0
 450              		.cfi_startproc
 451              		@ args = 0, pretend = 0, frame = 8
 452              		@ frame_needed = 1, uses_anonymous_args = 0
 453 0000 80B5     		push	{r7, lr}
 454              		.cfi_def_cfa_offset 8
 455              		.cfi_offset 7, -8
 456              		.cfi_offset 14, -4
 457 0002 82B0     		sub	sp, sp, #8
 458              		.cfi_def_cfa_offset 16
 459 0004 00AF     		add	r7, sp, #0
 460              		.cfi_def_cfa_register 7
 461 0006 7860     		str	r0, [r7, #4]
 462 0008 0B46     		mov	r3, r1
 463 000a FB70     		strb	r3, [r7, #3]
 131:.\motor.c     ****     setForward(MBOTH);
 464              		.loc 1 131 0
 465 000c 0320     		movs	r0, #3
 466 000e FFF7FEFF 		bl	setForward
 132:.\motor.c     ****     setSpeed(MBOTH, speed);
 467              		.loc 1 132 0
 468 0012 FB78     		ldrb	r3, [r7, #3]	@ zero_extendqisi2
 469 0014 0320     		movs	r0, #3
 470 0016 1946     		mov	r1, r3
 471 0018 FFF7FEFF 		bl	setSpeed
 133:.\motor.c     ****     CyDelay(time);
 472              		.loc 1 133 0
 473 001c 7868     		ldr	r0, [r7, #4]
 474 001e FFF7FEFF 		bl	CyDelay
 134:.\motor.c     ****     setCoast(MBOTH);
 475              		.loc 1 134 0
 476 0022 0320     		movs	r0, #3
 477 0024 FFF7FEFF 		bl	setCoast
 135:.\motor.c     **** }
 478              		.loc 1 135 0
 479 0028 0837     		adds	r7, r7, #8
 480 002a BD46     		mov	sp, r7
 481              		@ sp needed
 482 002c 80BD     		pop	{r7, pc}
 483              		.cfi_endproc
 484              	.LFE69:
 485              		.size	go_forward_blind, .-go_forward_blind
 486 002e 00BF     		.section	.text.go_backward_blind,"ax",%progbits
 487              		.align	2
 488              		.global	go_backward_blind
 489              		.thumb
 490              		.thumb_func
 491              		.type	go_backward_blind, %function
ARM GAS  C:\Users\xavieran\AppData\Local\Temp\cctpMRLJ.s 			page 12


 492              	go_backward_blind:
 493              	.LFB70:
 136:.\motor.c     **** 
 137:.\motor.c     **** void go_backward_blind(uint32 time, uint8 speed){
 494              		.loc 1 137 0
 495              		.cfi_startproc
 496              		@ args = 0, pretend = 0, frame = 8
 497              		@ frame_needed = 1, uses_anonymous_args = 0
 498 0000 80B5     		push	{r7, lr}
 499              		.cfi_def_cfa_offset 8
 500              		.cfi_offset 7, -8
 501              		.cfi_offset 14, -4
 502 0002 82B0     		sub	sp, sp, #8
 503              		.cfi_def_cfa_offset 16
 504 0004 00AF     		add	r7, sp, #0
 505              		.cfi_def_cfa_register 7
 506 0006 7860     		str	r0, [r7, #4]
 507 0008 0B46     		mov	r3, r1
 508 000a FB70     		strb	r3, [r7, #3]
 138:.\motor.c     ****     setReverse(MBOTH);
 509              		.loc 1 138 0
 510 000c 0320     		movs	r0, #3
 511 000e FFF7FEFF 		bl	setReverse
 139:.\motor.c     ****     setSpeed(MBOTH, speed);
 512              		.loc 1 139 0
 513 0012 FB78     		ldrb	r3, [r7, #3]	@ zero_extendqisi2
 514 0014 0320     		movs	r0, #3
 515 0016 1946     		mov	r1, r3
 516 0018 FFF7FEFF 		bl	setSpeed
 140:.\motor.c     ****     CyDelay(time);
 517              		.loc 1 140 0
 518 001c 7868     		ldr	r0, [r7, #4]
 519 001e FFF7FEFF 		bl	CyDelay
 141:.\motor.c     ****     setCoast(MBOTH);
 520              		.loc 1 141 0
 521 0022 0320     		movs	r0, #3
 522 0024 FFF7FEFF 		bl	setCoast
 142:.\motor.c     **** }
 523              		.loc 1 142 0
 524 0028 0837     		adds	r7, r7, #8
 525 002a BD46     		mov	sp, r7
 526              		@ sp needed
 527 002c 80BD     		pop	{r7, pc}
 528              		.cfi_endproc
 529              	.LFE70:
 530              		.size	go_backward_blind, .-go_backward_blind
 531 002e 00BF     		.section	.text.go_backward,"ax",%progbits
 532              		.align	2
 533              		.global	go_backward
 534              		.thumb
 535              		.thumb_func
 536              		.type	go_backward, %function
 537              	go_backward:
 538              	.LFB71:
 143:.\motor.c     **** 
 144:.\motor.c     **** /*
 145:.\motor.c     ****  * Makes the robot drive backward *time* milliseconds
ARM GAS  C:\Users\xavieran\AppData\Local\Temp\cctpMRLJ.s 			page 13


 146:.\motor.c     ****  */
 147:.\motor.c     **** void go_backward(uint32 time, uint8 speed){
 539              		.loc 1 147 0
 540              		.cfi_startproc
 541              		@ args = 0, pretend = 0, frame = 16
 542              		@ frame_needed = 1, uses_anonymous_args = 0
 543 0000 80B5     		push	{r7, lr}
 544              		.cfi_def_cfa_offset 8
 545              		.cfi_offset 7, -8
 546              		.cfi_offset 14, -4
 547 0002 84B0     		sub	sp, sp, #16
 548              		.cfi_def_cfa_offset 24
 549 0004 00AF     		add	r7, sp, #0
 550              		.cfi_def_cfa_register 7
 551 0006 7860     		str	r0, [r7, #4]
 552 0008 0B46     		mov	r3, r1
 553 000a FB70     		strb	r3, [r7, #3]
 148:.\motor.c     ****     time = time * 10;
 554              		.loc 1 148 0
 555 000c 7A68     		ldr	r2, [r7, #4]
 556 000e 1346     		mov	r3, r2
 557 0010 9B00     		lsls	r3, r3, #2
 558 0012 1344     		add	r3, r3, r2
 559 0014 5B00     		lsls	r3, r3, #1
 560 0016 7B60     		str	r3, [r7, #4]
 149:.\motor.c     ****     uint32 start_time = Timer_ReadCounter(); // each tick is 100us
 561              		.loc 1 149 0
 562 0018 FFF7FEFF 		bl	Timer_ReadCounter
 563 001c F860     		str	r0, [r7, #12]
 150:.\motor.c     ****     while (start_time - Timer_ReadCounter() < time){
 564              		.loc 1 150 0
 565 001e 0CE0     		b	.L31
 566              	.L32:
 151:.\motor.c     ****         setReverse(MBOTH);
 567              		.loc 1 151 0
 568 0020 0320     		movs	r0, #3
 569 0022 FFF7FEFF 		bl	setReverse
 152:.\motor.c     ****         setSpeed(MBOTH, speed);
 570              		.loc 1 152 0
 571 0026 FB78     		ldrb	r3, [r7, #3]	@ zero_extendqisi2
 572 0028 0320     		movs	r0, #3
 573 002a 1946     		mov	r1, r3
 574 002c FFF7FEFF 		bl	setSpeed
 153:.\motor.c     ****         control_heading();
 575              		.loc 1 153 0
 576 0030 FFF7FEFF 		bl	control_heading
 154:.\motor.c     ****         CyDelay(25);
 577              		.loc 1 154 0
 578 0034 1920     		movs	r0, #25
 579 0036 FFF7FEFF 		bl	CyDelay
 580              	.L31:
 150:.\motor.c     ****     while (start_time - Timer_ReadCounter() < time){
 581              		.loc 1 150 0 discriminator 1
 582 003a FFF7FEFF 		bl	Timer_ReadCounter
 583 003e 0346     		mov	r3, r0
 584 0040 FA68     		ldr	r2, [r7, #12]
 585 0042 D21A     		subs	r2, r2, r3
ARM GAS  C:\Users\xavieran\AppData\Local\Temp\cctpMRLJ.s 			page 14


 586 0044 7B68     		ldr	r3, [r7, #4]
 587 0046 9A42     		cmp	r2, r3
 588 0048 EAD3     		bcc	.L32
 155:.\motor.c     ****     }
 156:.\motor.c     ****     setCoast(MBOTH);
 589              		.loc 1 156 0
 590 004a 0320     		movs	r0, #3
 591 004c FFF7FEFF 		bl	setCoast
 157:.\motor.c     **** }
 592              		.loc 1 157 0
 593 0050 1037     		adds	r7, r7, #16
 594 0052 BD46     		mov	sp, r7
 595              		@ sp needed
 596 0054 80BD     		pop	{r7, pc}
 597              		.cfi_endproc
 598              	.LFE71:
 599              		.size	go_backward, .-go_backward
 600 0056 00BF     		.section	.text.go_backward_ultra,"ax",%progbits
 601              		.align	2
 602              		.global	go_backward_ultra
 603              		.thumb
 604              		.thumb_func
 605              		.type	go_backward_ultra, %function
 606              	go_backward_ultra:
 607              	.LFB72:
 158:.\motor.c     **** 
 159:.\motor.c     **** 
 160:.\motor.c     **** void go_backward_ultra(uint16 ultra_dist, uint8 speed){
 608              		.loc 1 160 0
 609              		.cfi_startproc
 610              		@ args = 0, pretend = 0, frame = 8
 611              		@ frame_needed = 1, uses_anonymous_args = 0
 612 0000 80B5     		push	{r7, lr}
 613              		.cfi_def_cfa_offset 8
 614              		.cfi_offset 7, -8
 615              		.cfi_offset 14, -4
 616 0002 82B0     		sub	sp, sp, #8
 617              		.cfi_def_cfa_offset 16
 618 0004 00AF     		add	r7, sp, #0
 619              		.cfi_def_cfa_register 7
 620 0006 0246     		mov	r2, r0
 621 0008 0B46     		mov	r3, r1
 622 000a FA80     		strh	r2, [r7, #6]	@ movhi
 623 000c 7B71     		strb	r3, [r7, #5]
 161:.\motor.c     ****     while (get_mean_ultra() < ultra_dist){
 624              		.loc 1 161 0
 625 000e 0CE0     		b	.L34
 626              	.L35:
 162:.\motor.c     ****         setReverse(MBOTH);
 627              		.loc 1 162 0
 628 0010 0320     		movs	r0, #3
 629 0012 FFF7FEFF 		bl	setReverse
 163:.\motor.c     ****         setSpeed(MBOTH, speed);
 630              		.loc 1 163 0
 631 0016 7B79     		ldrb	r3, [r7, #5]	@ zero_extendqisi2
 632 0018 0320     		movs	r0, #3
 633 001a 1946     		mov	r1, r3
ARM GAS  C:\Users\xavieran\AppData\Local\Temp\cctpMRLJ.s 			page 15


 634 001c FFF7FEFF 		bl	setSpeed
 164:.\motor.c     ****         control_heading();
 635              		.loc 1 164 0
 636 0020 FFF7FEFF 		bl	control_heading
 165:.\motor.c     ****         CyDelay(25);
 637              		.loc 1 165 0
 638 0024 1920     		movs	r0, #25
 639 0026 FFF7FEFF 		bl	CyDelay
 640              	.L34:
 161:.\motor.c     ****     while (get_mean_ultra() < ultra_dist){
 641              		.loc 1 161 0 discriminator 1
 642 002a FFF7FEFF 		bl	get_mean_ultra
 643 002e 0346     		mov	r3, r0
 644 0030 FA88     		ldrh	r2, [r7, #6]
 645 0032 9A42     		cmp	r2, r3
 646 0034 ECD8     		bhi	.L35
 166:.\motor.c     ****     }
 167:.\motor.c     ****     setCoast(MBOTH);
 647              		.loc 1 167 0
 648 0036 0320     		movs	r0, #3
 649 0038 FFF7FEFF 		bl	setCoast
 168:.\motor.c     **** }
 650              		.loc 1 168 0
 651 003c 0837     		adds	r7, r7, #8
 652 003e BD46     		mov	sp, r7
 653              		@ sp needed
 654 0040 80BD     		pop	{r7, pc}
 655              		.cfi_endproc
 656              	.LFE72:
 657              		.size	go_backward_ultra, .-go_backward_ultra
 658 0042 00BF     		.section	.rodata
 659              		.align	2
 660              	.LC0:
 661 0000 21212121 		.ascii	"!!!!! STUCK !!!!!\000"
 661      21205354 
 661      55434B20 
 661      21212121 
 661      2100
 662 0012 0000     		.section	.text.rotate_degrees,"ax",%progbits
 663              		.align	2
 664              		.global	rotate_degrees
 665              		.thumb
 666              		.thumb_func
 667              		.type	rotate_degrees, %function
 668              	rotate_degrees:
 669              	.LFB73:
 169:.\motor.c     **** 
 170:.\motor.c     **** /*
 171:.\motor.c     ****  * Makes the robot rotate *angle* degrees.
 172:.\motor.c     ****  * angle > 0 rotates right, angle < 0 rotates left
 173:.\motor.c     ****  */
 174:.\motor.c     **** void rotate_degrees(int16 angle){
 670              		.loc 1 174 0
 671              		.cfi_startproc
 672              		@ args = 0, pretend = 0, frame = 16
 673              		@ frame_needed = 1, uses_anonymous_args = 0
 674 0000 B0B5     		push	{r4, r5, r7, lr}
ARM GAS  C:\Users\xavieran\AppData\Local\Temp\cctpMRLJ.s 			page 16


 675              		.cfi_def_cfa_offset 16
 676              		.cfi_offset 4, -16
 677              		.cfi_offset 5, -12
 678              		.cfi_offset 7, -8
 679              		.cfi_offset 14, -4
 680 0002 84B0     		sub	sp, sp, #16
 681              		.cfi_def_cfa_offset 32
 682 0004 00AF     		add	r7, sp, #0
 683              		.cfi_def_cfa_register 7
 684 0006 0346     		mov	r3, r0
 685 0008 FB80     		strh	r3, [r7, #6]	@ movhi
 175:.\motor.c     ****     desired_heading += angle;
 686              		.loc 1 175 0
 687 000a 1F4B     		ldr	r3, .L39
 688 000c 1B88     		ldrh	r3, [r3]
 689 000e 9AB2     		uxth	r2, r3
 690 0010 FB88     		ldrh	r3, [r7, #6]
 691 0012 1344     		add	r3, r3, r2
 692 0014 9BB2     		uxth	r3, r3
 693 0016 9AB2     		uxth	r2, r3
 694 0018 1B4B     		ldr	r3, .L39
 695 001a 1A80     		strh	r2, [r3]	@ movhi
 176:.\motor.c     ****     desired_heading = desired_heading % 360;
 696              		.loc 1 176 0
 697 001c 1A4B     		ldr	r3, .L39
 698 001e 1B88     		ldrh	r3, [r3]
 699 0020 1BB2     		sxth	r3, r3
 700 0022 1A4A     		ldr	r2, .L39+4
 701 0024 83FB0201 		smull	r0, r1, r3, r2
 702 0028 5A18     		adds	r2, r3, r1
 703 002a 1112     		asrs	r1, r2, #8
 704 002c DA17     		asrs	r2, r3, #31
 705 002e 8A1A     		subs	r2, r1, r2
 706 0030 4FF4B471 		mov	r1, #360
 707 0034 01FB02F2 		mul	r2, r1, r2
 708 0038 9B1A     		subs	r3, r3, r2
 709 003a 9AB2     		uxth	r2, r3
 710 003c 124B     		ldr	r3, .L39
 711 003e 1A80     		strh	r2, [r3]	@ movhi
 177:.\motor.c     ****     int32 started_time = Timer_ReadCounter();
 712              		.loc 1 177 0
 713 0040 FFF7FEFF 		bl	Timer_ReadCounter
 714 0044 0346     		mov	r3, r0
 715 0046 FB60     		str	r3, [r7, #12]
 178:.\motor.c     ****     while (control_heading() != MEND_S_STOPPED){
 716              		.loc 1 178 0
 717 0048 16E0     		b	.L37
 718              	.L38:
 179:.\motor.c     ****         if (started_time - Timer_ReadCounter() > 10000 * 10){
 719              		.loc 1 179 0
 720 004a FC68     		ldr	r4, [r7, #12]
 721 004c FFF7FEFF 		bl	Timer_ReadCounter
 722 0050 0346     		mov	r3, r0
 723 0052 E21A     		subs	r2, r4, r3
 724 0054 0E4B     		ldr	r3, .L39+8
 725 0056 9A42     		cmp	r2, r3
 726 0058 0ED9     		bls	.L37
ARM GAS  C:\Users\xavieran\AppData\Local\Temp\cctpMRLJ.s 			page 17


 180:.\motor.c     ****             POS_PRINTF(0,0,"!!!!! STUCK !!!!!");
 727              		.loc 1 180 0
 728 005a 0E4A     		ldr	r2, .L39+12
 729 005c 0E4B     		ldr	r3, .L39+16
 730 005e 1446     		mov	r4, r2
 731 0060 1D46     		mov	r5, r3
 732 0062 0FCD     		ldmia	r5!, {r0, r1, r2, r3}
 733 0064 0FC4     		stmia	r4!, {r0, r1, r2, r3}
 734 0066 2B68     		ldr	r3, [r5]
 735 0068 2380     		strh	r3, [r4]	@ movhi
 736 006a 0020     		movs	r0, #0
 737 006c 0021     		movs	r1, #0
 738 006e FFF7FEFF 		bl	LCD_Position
 739 0072 0848     		ldr	r0, .L39+12
 740 0074 FFF7FEFF 		bl	LCD_PrintString
 741              	.L37:
 178:.\motor.c     ****     while (control_heading() != MEND_S_STOPPED){
 742              		.loc 1 178 0 discriminator 1
 743 0078 FFF7FEFF 		bl	control_heading
 744 007c 0346     		mov	r3, r0
 745 007e 002B     		cmp	r3, #0
 746 0080 E3D1     		bne	.L38
 181:.\motor.c     ****         }
 182:.\motor.c     ****     }
 183:.\motor.c     **** }
 747              		.loc 1 183 0
 748 0082 1037     		adds	r7, r7, #16
 749 0084 BD46     		mov	sp, r7
 750              		@ sp needed
 751 0086 B0BD     		pop	{r4, r5, r7, pc}
 752              	.L40:
 753              		.align	2
 754              	.L39:
 755 0088 00000000 		.word	desired_heading
 756 008c B7600BB6 		.word	-1240768329
 757 0090 A0860100 		.word	100000
 758 0094 00000000 		.word	outString
 759 0098 00000000 		.word	.LC0
 760              		.cfi_endproc
 761              	.LFE73:
 762              		.size	rotate_degrees, .-rotate_degrees
 763              		.section	.text.set_heading,"ax",%progbits
 764              		.align	2
 765              		.global	set_heading
 766              		.thumb
 767              		.thumb_func
 768              		.type	set_heading, %function
 769              	set_heading:
 770              	.LFB74:
 184:.\motor.c     **** /* 
 185:.\motor.c     ****  * Sets the robots heading to *new_heading*
 186:.\motor.c     ****  */
 187:.\motor.c     **** void set_heading(int16 new_heading){
 771              		.loc 1 187 0
 772              		.cfi_startproc
 773              		@ args = 0, pretend = 0, frame = 8
 774              		@ frame_needed = 1, uses_anonymous_args = 0
ARM GAS  C:\Users\xavieran\AppData\Local\Temp\cctpMRLJ.s 			page 18


 775              		@ link register save eliminated.
 776 0000 80B4     		push	{r7}
 777              		.cfi_def_cfa_offset 4
 778              		.cfi_offset 7, -4
 779 0002 83B0     		sub	sp, sp, #12
 780              		.cfi_def_cfa_offset 16
 781 0004 00AF     		add	r7, sp, #0
 782              		.cfi_def_cfa_register 7
 783 0006 0346     		mov	r3, r0
 784 0008 FB80     		strh	r3, [r7, #6]	@ movhi
 188:.\motor.c     ****     desired_heading = new_heading;
 785              		.loc 1 188 0
 786 000a 044B     		ldr	r3, .L42
 787 000c FA88     		ldrh	r2, [r7, #6]	@ movhi
 788 000e 1A80     		strh	r2, [r3]	@ movhi
 189:.\motor.c     **** }
 789              		.loc 1 189 0
 790 0010 0C37     		adds	r7, r7, #12
 791 0012 BD46     		mov	sp, r7
 792              		@ sp needed
 793 0014 5DF8047B 		ldr	r7, [sp], #4
 794 0018 7047     		bx	lr
 795              	.L43:
 796 001a 00BF     		.align	2
 797              	.L42:
 798 001c 00000000 		.word	desired_heading
 799              		.cfi_endproc
 800              	.LFE74:
 801              		.size	set_heading, .-set_heading
 802              		.section	.text.rotate_left,"ax",%progbits
 803              		.align	2
 804              		.global	rotate_left
 805              		.thumb
 806              		.thumb_func
 807              		.type	rotate_left, %function
 808              	rotate_left:
 809              	.LFB75:
 190:.\motor.c     **** 
 191:.\motor.c     **** /* 
 192:.\motor.c     ****  * Sets the motors to rotate the robot left
 193:.\motor.c     ****  */
 194:.\motor.c     **** void rotate_left(int speed){
 810              		.loc 1 194 0
 811              		.cfi_startproc
 812              		@ args = 0, pretend = 0, frame = 8
 813              		@ frame_needed = 1, uses_anonymous_args = 0
 814 0000 80B5     		push	{r7, lr}
 815              		.cfi_def_cfa_offset 8
 816              		.cfi_offset 7, -8
 817              		.cfi_offset 14, -4
 818 0002 82B0     		sub	sp, sp, #8
 819              		.cfi_def_cfa_offset 16
 820 0004 00AF     		add	r7, sp, #0
 821              		.cfi_def_cfa_register 7
 822 0006 7860     		str	r0, [r7, #4]
 195:.\motor.c     ****     setForward(MRIGHT);
 823              		.loc 1 195 0
ARM GAS  C:\Users\xavieran\AppData\Local\Temp\cctpMRLJ.s 			page 19


 824 0008 0220     		movs	r0, #2
 825 000a FFF7FEFF 		bl	setForward
 196:.\motor.c     ****     setReverse(MLEFT);
 826              		.loc 1 196 0
 827 000e 0120     		movs	r0, #1
 828 0010 FFF7FEFF 		bl	setReverse
 197:.\motor.c     ****     setSpeed(MBOTH, speed);
 829              		.loc 1 197 0
 830 0014 7B68     		ldr	r3, [r7, #4]
 831 0016 DBB2     		uxtb	r3, r3
 832 0018 0320     		movs	r0, #3
 833 001a 1946     		mov	r1, r3
 834 001c FFF7FEFF 		bl	setSpeed
 198:.\motor.c     **** }
 835              		.loc 1 198 0
 836 0020 0837     		adds	r7, r7, #8
 837 0022 BD46     		mov	sp, r7
 838              		@ sp needed
 839 0024 80BD     		pop	{r7, pc}
 840              		.cfi_endproc
 841              	.LFE75:
 842              		.size	rotate_left, .-rotate_left
 843 0026 00BF     		.section	.text.rotate_right,"ax",%progbits
 844              		.align	2
 845              		.global	rotate_right
 846              		.thumb
 847              		.thumb_func
 848              		.type	rotate_right, %function
 849              	rotate_right:
 850              	.LFB76:
 199:.\motor.c     **** 
 200:.\motor.c     **** 
 201:.\motor.c     **** 
 202:.\motor.c     **** /*
 203:.\motor.c     ****  * Sets the motors to rotate the robot right at *speed*
 204:.\motor.c     ****  */
 205:.\motor.c     **** void rotate_right(int speed){
 851              		.loc 1 205 0
 852              		.cfi_startproc
 853              		@ args = 0, pretend = 0, frame = 8
 854              		@ frame_needed = 1, uses_anonymous_args = 0
 855 0000 80B5     		push	{r7, lr}
 856              		.cfi_def_cfa_offset 8
 857              		.cfi_offset 7, -8
 858              		.cfi_offset 14, -4
 859 0002 82B0     		sub	sp, sp, #8
 860              		.cfi_def_cfa_offset 16
 861 0004 00AF     		add	r7, sp, #0
 862              		.cfi_def_cfa_register 7
 863 0006 7860     		str	r0, [r7, #4]
 206:.\motor.c     ****     setForward(MLEFT);
 864              		.loc 1 206 0
 865 0008 0120     		movs	r0, #1
 866 000a FFF7FEFF 		bl	setForward
 207:.\motor.c     ****     setReverse(MRIGHT);
 867              		.loc 1 207 0
 868 000e 0220     		movs	r0, #2
ARM GAS  C:\Users\xavieran\AppData\Local\Temp\cctpMRLJ.s 			page 20


 869 0010 FFF7FEFF 		bl	setReverse
 208:.\motor.c     ****     setSpeed(MBOTH, speed);
 870              		.loc 1 208 0
 871 0014 7B68     		ldr	r3, [r7, #4]
 872 0016 DBB2     		uxtb	r3, r3
 873 0018 0320     		movs	r0, #3
 874 001a 1946     		mov	r1, r3
 875 001c FFF7FEFF 		bl	setSpeed
 209:.\motor.c     **** }
 876              		.loc 1 209 0
 877 0020 0837     		adds	r7, r7, #8
 878 0022 BD46     		mov	sp, r7
 879              		@ sp needed
 880 0024 80BD     		pop	{r7, pc}
 881              		.cfi_endproc
 882              	.LFE76:
 883              		.size	rotate_right, .-rotate_right
 884 0026 00BF     		.section	.text.start_motors,"ax",%progbits
 885              		.align	2
 886              		.global	start_motors
 887              		.thumb
 888              		.thumb_func
 889              		.type	start_motors, %function
 890              	start_motors:
 891              	.LFB77:
 210:.\motor.c     **** 
 211:.\motor.c     **** 
 212:.\motor.c     **** /*
 213:.\motor.c     ****  * Initializes the motor PWM modules and sets the motors to stopped
 214:.\motor.c     ****  */
 215:.\motor.c     **** void start_motors(){
 892              		.loc 1 215 0
 893              		.cfi_startproc
 894              		@ args = 0, pretend = 0, frame = 0
 895              		@ frame_needed = 1, uses_anonymous_args = 0
 896 0000 80B5     		push	{r7, lr}
 897              		.cfi_def_cfa_offset 8
 898              		.cfi_offset 7, -8
 899              		.cfi_offset 14, -4
 900 0002 00AF     		add	r7, sp, #0
 901              		.cfi_def_cfa_register 7
 216:.\motor.c     ****     MOTOR_L_Start();
 902              		.loc 1 216 0
 903 0004 FFF7FEFF 		bl	MOTOR_L_Start
 217:.\motor.c     ****     MLIN1_Write(0);
 904              		.loc 1 217 0
 905 0008 0020     		movs	r0, #0
 906 000a FFF7FEFF 		bl	MLIN1_Write
 218:.\motor.c     ****     MLIN2_Write(0);
 907              		.loc 1 218 0
 908 000e 0020     		movs	r0, #0
 909 0010 FFF7FEFF 		bl	MLIN2_Write
 219:.\motor.c     ****     MOTOR_L_WriteCompare(0);
 910              		.loc 1 219 0
 911 0014 0020     		movs	r0, #0
 912 0016 FFF7FEFF 		bl	MOTOR_L_WriteCompare
 220:.\motor.c     ****        
ARM GAS  C:\Users\xavieran\AppData\Local\Temp\cctpMRLJ.s 			page 21


 221:.\motor.c     ****     MOTOR_R_Start();
 913              		.loc 1 221 0
 914 001a FFF7FEFF 		bl	MOTOR_R_Start
 222:.\motor.c     ****     MRIN1_Write(0);
 915              		.loc 1 222 0
 916 001e 0020     		movs	r0, #0
 917 0020 FFF7FEFF 		bl	MRIN1_Write
 223:.\motor.c     ****     MRIN2_Write(0);
 918              		.loc 1 223 0
 919 0024 0020     		movs	r0, #0
 920 0026 FFF7FEFF 		bl	MRIN2_Write
 224:.\motor.c     ****     MOTOR_R_WriteCompare(0);
 921              		.loc 1 224 0
 922 002a 0020     		movs	r0, #0
 923 002c FFF7FEFF 		bl	MOTOR_R_WriteCompare
 225:.\motor.c     **** }
 924              		.loc 1 225 0
 925 0030 80BD     		pop	{r7, pc}
 926              		.cfi_endproc
 927              	.LFE77:
 928              		.size	start_motors, .-start_motors
 929 0032 00BF     		.section	.text.setSpeed,"ax",%progbits
 930              		.align	2
 931              		.global	setSpeed
 932              		.thumb
 933              		.thumb_func
 934              		.type	setSpeed, %function
 935              	setSpeed:
 936              	.LFB78:
 226:.\motor.c     **** 
 227:.\motor.c     **** 
 228:.\motor.c     **** /*
 229:.\motor.c     ****  * Set *motor* speed to *speed*
 230:.\motor.c     ****  * Speed between 0 and 255. Note that the motors won't start to actually push
 231:.\motor.c     ****  * the robot forward til around 100
 232:.\motor.c     ****  */ 
 233:.\motor.c     **** void setSpeed(uint8 motor, uint8 speed){
 937              		.loc 1 233 0
 938              		.cfi_startproc
 939              		@ args = 0, pretend = 0, frame = 8
 940              		@ frame_needed = 1, uses_anonymous_args = 0
 941 0000 80B5     		push	{r7, lr}
 942              		.cfi_def_cfa_offset 8
 943              		.cfi_offset 7, -8
 944              		.cfi_offset 14, -4
 945 0002 82B0     		sub	sp, sp, #8
 946              		.cfi_def_cfa_offset 16
 947 0004 00AF     		add	r7, sp, #0
 948              		.cfi_def_cfa_register 7
 949 0006 0246     		mov	r2, r0
 950 0008 0B46     		mov	r3, r1
 951 000a FA71     		strb	r2, [r7, #7]
 952 000c BB71     		strb	r3, [r7, #6]
 234:.\motor.c     ****     /* Set bit 1 of motor to select motor 1 
 235:.\motor.c     ****      * Set bit 2 of motor to select motor 2
 236:.\motor.c     ****      */
 237:.\motor.c     ****     if (motor & MRIGHT){
ARM GAS  C:\Users\xavieran\AppData\Local\Temp\cctpMRLJ.s 			page 22


 953              		.loc 1 237 0
 954 000e FB79     		ldrb	r3, [r7, #7]	@ zero_extendqisi2
 955 0010 03F00203 		and	r3, r3, #2
 956 0014 002B     		cmp	r3, #0
 957 0016 03D0     		beq	.L48
 238:.\motor.c     ****         MOTOR_R_WriteCompare(speed);
 958              		.loc 1 238 0
 959 0018 BB79     		ldrb	r3, [r7, #6]	@ zero_extendqisi2
 960 001a 1846     		mov	r0, r3
 961 001c FFF7FEFF 		bl	MOTOR_R_WriteCompare
 962              	.L48:
 239:.\motor.c     ****     }
 240:.\motor.c     ****     if (motor & MLEFT){ //Slow down the left motor because it tends to be faster
 963              		.loc 1 240 0
 964 0020 FB79     		ldrb	r3, [r7, #7]	@ zero_extendqisi2
 965 0022 03F00103 		and	r3, r3, #1
 966 0026 002B     		cmp	r3, #0
 967 0028 03D0     		beq	.L47
 241:.\motor.c     ****         MOTOR_L_WriteCompare(speed - LEFT_MOTOR_SPEED_CORRECTION);
 968              		.loc 1 241 0
 969 002a BB79     		ldrb	r3, [r7, #6]	@ zero_extendqisi2
 970 002c 1846     		mov	r0, r3
 971 002e FFF7FEFF 		bl	MOTOR_L_WriteCompare
 972              	.L47:
 242:.\motor.c     ****     }
 243:.\motor.c     **** }
 973              		.loc 1 243 0
 974 0032 0837     		adds	r7, r7, #8
 975 0034 BD46     		mov	sp, r7
 976              		@ sp needed
 977 0036 80BD     		pop	{r7, pc}
 978              		.cfi_endproc
 979              	.LFE78:
 980              		.size	setSpeed, .-setSpeed
 981              		.section	.text.setCoast,"ax",%progbits
 982              		.align	2
 983              		.global	setCoast
 984              		.thumb
 985              		.thumb_func
 986              		.type	setCoast, %function
 987              	setCoast:
 988              	.LFB79:
 244:.\motor.c     **** 
 245:.\motor.c     **** 
 246:.\motor.c     **** /*
 247:.\motor.c     ****  * Set *motor* to coast
 248:.\motor.c     ****  */ 
 249:.\motor.c     **** void setCoast(uint8 motor){
 989              		.loc 1 249 0
 990              		.cfi_startproc
 991              		@ args = 0, pretend = 0, frame = 8
 992              		@ frame_needed = 1, uses_anonymous_args = 0
 993 0000 80B5     		push	{r7, lr}
 994              		.cfi_def_cfa_offset 8
 995              		.cfi_offset 7, -8
 996              		.cfi_offset 14, -4
 997 0002 82B0     		sub	sp, sp, #8
ARM GAS  C:\Users\xavieran\AppData\Local\Temp\cctpMRLJ.s 			page 23


 998              		.cfi_def_cfa_offset 16
 999 0004 00AF     		add	r7, sp, #0
 1000              		.cfi_def_cfa_register 7
 1001 0006 0346     		mov	r3, r0
 1002 0008 FB71     		strb	r3, [r7, #7]
 250:.\motor.c     ****         if (motor & MLEFT){
 1003              		.loc 1 250 0
 1004 000a FB79     		ldrb	r3, [r7, #7]	@ zero_extendqisi2
 1005 000c 03F00103 		and	r3, r3, #1
 1006 0010 002B     		cmp	r3, #0
 1007 0012 05D0     		beq	.L51
 251:.\motor.c     ****         MLIN1_Write(0);
 1008              		.loc 1 251 0
 1009 0014 0020     		movs	r0, #0
 1010 0016 FFF7FEFF 		bl	MLIN1_Write
 252:.\motor.c     ****         MLIN2_Write(0);
 1011              		.loc 1 252 0
 1012 001a 0020     		movs	r0, #0
 1013 001c FFF7FEFF 		bl	MLIN2_Write
 1014              	.L51:
 253:.\motor.c     ****     }
 254:.\motor.c     ****     
 255:.\motor.c     ****     if (motor & MRIGHT){
 1015              		.loc 1 255 0
 1016 0020 FB79     		ldrb	r3, [r7, #7]	@ zero_extendqisi2
 1017 0022 03F00203 		and	r3, r3, #2
 1018 0026 002B     		cmp	r3, #0
 1019 0028 05D0     		beq	.L50
 256:.\motor.c     ****         MRIN1_Write(0);
 1020              		.loc 1 256 0
 1021 002a 0020     		movs	r0, #0
 1022 002c FFF7FEFF 		bl	MRIN1_Write
 257:.\motor.c     ****         MRIN2_Write(0);
 1023              		.loc 1 257 0
 1024 0030 0020     		movs	r0, #0
 1025 0032 FFF7FEFF 		bl	MRIN2_Write
 1026              	.L50:
 258:.\motor.c     ****     }
 259:.\motor.c     **** }
 1027              		.loc 1 259 0
 1028 0036 0837     		adds	r7, r7, #8
 1029 0038 BD46     		mov	sp, r7
 1030              		@ sp needed
 1031 003a 80BD     		pop	{r7, pc}
 1032              		.cfi_endproc
 1033              	.LFE79:
 1034              		.size	setCoast, .-setCoast
 1035              		.section	.text.setForward,"ax",%progbits
 1036              		.align	2
 1037              		.global	setForward
 1038              		.thumb
 1039              		.thumb_func
 1040              		.type	setForward, %function
 1041              	setForward:
 1042              	.LFB80:
 260:.\motor.c     **** 
 261:.\motor.c     **** 
ARM GAS  C:\Users\xavieran\AppData\Local\Temp\cctpMRLJ.s 			page 24


 262:.\motor.c     **** /*
 263:.\motor.c     ****  * Set *motor* to forward drive
 264:.\motor.c     ****  */ 
 265:.\motor.c     **** void setForward(uint8 motor){
 1043              		.loc 1 265 0
 1044              		.cfi_startproc
 1045              		@ args = 0, pretend = 0, frame = 8
 1046              		@ frame_needed = 1, uses_anonymous_args = 0
 1047 0000 80B5     		push	{r7, lr}
 1048              		.cfi_def_cfa_offset 8
 1049              		.cfi_offset 7, -8
 1050              		.cfi_offset 14, -4
 1051 0002 82B0     		sub	sp, sp, #8
 1052              		.cfi_def_cfa_offset 16
 1053 0004 00AF     		add	r7, sp, #0
 1054              		.cfi_def_cfa_register 7
 1055 0006 0346     		mov	r3, r0
 1056 0008 FB71     		strb	r3, [r7, #7]
 266:.\motor.c     ****     if (motor & MLEFT){
 1057              		.loc 1 266 0
 1058 000a FB79     		ldrb	r3, [r7, #7]	@ zero_extendqisi2
 1059 000c 03F00103 		and	r3, r3, #1
 1060 0010 002B     		cmp	r3, #0
 1061 0012 05D0     		beq	.L54
 267:.\motor.c     ****         MLIN1_Write(1);
 1062              		.loc 1 267 0
 1063 0014 0120     		movs	r0, #1
 1064 0016 FFF7FEFF 		bl	MLIN1_Write
 268:.\motor.c     ****         MLIN2_Write(0);
 1065              		.loc 1 268 0
 1066 001a 0020     		movs	r0, #0
 1067 001c FFF7FEFF 		bl	MLIN2_Write
 1068              	.L54:
 269:.\motor.c     ****     }
 270:.\motor.c     ****     
 271:.\motor.c     ****     if (motor & MRIGHT){
 1069              		.loc 1 271 0
 1070 0020 FB79     		ldrb	r3, [r7, #7]	@ zero_extendqisi2
 1071 0022 03F00203 		and	r3, r3, #2
 1072 0026 002B     		cmp	r3, #0
 1073 0028 05D0     		beq	.L53
 272:.\motor.c     ****         MRIN1_Write(1);
 1074              		.loc 1 272 0
 1075 002a 0120     		movs	r0, #1
 1076 002c FFF7FEFF 		bl	MRIN1_Write
 273:.\motor.c     ****         MRIN2_Write(0);
 1077              		.loc 1 273 0
 1078 0030 0020     		movs	r0, #0
 1079 0032 FFF7FEFF 		bl	MRIN2_Write
 1080              	.L53:
 274:.\motor.c     ****     }
 275:.\motor.c     **** }
 1081              		.loc 1 275 0
 1082 0036 0837     		adds	r7, r7, #8
 1083 0038 BD46     		mov	sp, r7
 1084              		@ sp needed
 1085 003a 80BD     		pop	{r7, pc}
ARM GAS  C:\Users\xavieran\AppData\Local\Temp\cctpMRLJ.s 			page 25


 1086              		.cfi_endproc
 1087              	.LFE80:
 1088              		.size	setForward, .-setForward
 1089              		.section	.text.setReverse,"ax",%progbits
 1090              		.align	2
 1091              		.global	setReverse
 1092              		.thumb
 1093              		.thumb_func
 1094              		.type	setReverse, %function
 1095              	setReverse:
 1096              	.LFB81:
 276:.\motor.c     **** 
 277:.\motor.c     **** /*
 278:.\motor.c     ****  * Set *motor* to reverse drive
 279:.\motor.c     ****  */ 
 280:.\motor.c     **** void setReverse(uint8 motor){
 1097              		.loc 1 280 0
 1098              		.cfi_startproc
 1099              		@ args = 0, pretend = 0, frame = 8
 1100              		@ frame_needed = 1, uses_anonymous_args = 0
 1101 0000 80B5     		push	{r7, lr}
 1102              		.cfi_def_cfa_offset 8
 1103              		.cfi_offset 7, -8
 1104              		.cfi_offset 14, -4
 1105 0002 82B0     		sub	sp, sp, #8
 1106              		.cfi_def_cfa_offset 16
 1107 0004 00AF     		add	r7, sp, #0
 1108              		.cfi_def_cfa_register 7
 1109 0006 0346     		mov	r3, r0
 1110 0008 FB71     		strb	r3, [r7, #7]
 281:.\motor.c     ****     if (motor & MLEFT){
 1111              		.loc 1 281 0
 1112 000a FB79     		ldrb	r3, [r7, #7]	@ zero_extendqisi2
 1113 000c 03F00103 		and	r3, r3, #1
 1114 0010 002B     		cmp	r3, #0
 1115 0012 05D0     		beq	.L57
 282:.\motor.c     ****         MLIN1_Write(0);
 1116              		.loc 1 282 0
 1117 0014 0020     		movs	r0, #0
 1118 0016 FFF7FEFF 		bl	MLIN1_Write
 283:.\motor.c     ****         MLIN2_Write(1);
 1119              		.loc 1 283 0
 1120 001a 0120     		movs	r0, #1
 1121 001c FFF7FEFF 		bl	MLIN2_Write
 1122              	.L57:
 284:.\motor.c     ****     }
 285:.\motor.c     ****     
 286:.\motor.c     ****     if (motor & MRIGHT){
 1123              		.loc 1 286 0
 1124 0020 FB79     		ldrb	r3, [r7, #7]	@ zero_extendqisi2
 1125 0022 03F00203 		and	r3, r3, #2
 1126 0026 002B     		cmp	r3, #0
 1127 0028 05D0     		beq	.L56
 287:.\motor.c     ****         MRIN1_Write(0);
 1128              		.loc 1 287 0
 1129 002a 0020     		movs	r0, #0
 1130 002c FFF7FEFF 		bl	MRIN1_Write
ARM GAS  C:\Users\xavieran\AppData\Local\Temp\cctpMRLJ.s 			page 26


 288:.\motor.c     ****         MRIN2_Write(1);
 1131              		.loc 1 288 0
 1132 0030 0120     		movs	r0, #1
 1133 0032 FFF7FEFF 		bl	MRIN2_Write
 1134              	.L56:
 289:.\motor.c     ****     }
 290:.\motor.c     **** }
 1135              		.loc 1 290 0
 1136 0036 0837     		adds	r7, r7, #8
 1137 0038 BD46     		mov	sp, r7
 1138              		@ sp needed
 1139 003a 80BD     		pop	{r7, pc}
 1140              		.cfi_endproc
 1141              	.LFE81:
 1142              		.size	setReverse, .-setReverse
 1143              		.text
 1144              	.Letext0:
 1145              		.file 2 "c:\\program files (x86)\\cypress\\psoc creator\\3.2\\psoc creator\\import\\gnu\\arm\\4.8.
 1146              		.file 3 "c:\\program files (x86)\\cypress\\psoc creator\\3.2\\psoc creator\\import\\gnu\\arm\\4.8.
 1147              		.file 4 "Generated_Source\\PSoC5/cytypes.h"
 1148              		.file 5 "Generated_Source\\PSoC5/core_cm3.h"
 1149              		.file 6 "Generated_Source\\PSoC5/Camera.h"
 1150              		.section	.debug_info,"",%progbits
 1151              	.Ldebug_info0:
 1152 0000 52050000 		.4byte	0x552
 1153 0004 0400     		.2byte	0x4
 1154 0006 00000000 		.4byte	.Ldebug_abbrev0
 1155 000a 04       		.byte	0x4
 1156 000b 01       		.uleb128 0x1
 1157 000c 69000000 		.4byte	.LASF68
 1158 0010 01       		.byte	0x1
 1159 0011 00000000 		.4byte	.LASF69
 1160 0015 8A030000 		.4byte	.LASF70
 1161 0019 00000000 		.4byte	.Ldebug_ranges0+0
 1162 001d 00000000 		.4byte	0
 1163 0021 00000000 		.4byte	.Ldebug_line0
 1164 0025 02       		.uleb128 0x2
 1165 0026 04       		.byte	0x4
 1166 0027 05       		.byte	0x5
 1167 0028 696E7400 		.ascii	"int\000"
 1168 002c 03       		.uleb128 0x3
 1169 002d 04       		.byte	0x4
 1170 002e 07       		.byte	0x7
 1171 002f 2F020000 		.4byte	.LASF0
 1172 0033 03       		.uleb128 0x3
 1173 0034 01       		.byte	0x1
 1174 0035 06       		.byte	0x6
 1175 0036 2E010000 		.4byte	.LASF1
 1176 003a 03       		.uleb128 0x3
 1177 003b 01       		.byte	0x1
 1178 003c 08       		.byte	0x8
 1179 003d DC010000 		.4byte	.LASF2
 1180 0041 03       		.uleb128 0x3
 1181 0042 02       		.byte	0x2
 1182 0043 05       		.byte	0x5
 1183 0044 4C000000 		.4byte	.LASF3
 1184 0048 03       		.uleb128 0x3
ARM GAS  C:\Users\xavieran\AppData\Local\Temp\cctpMRLJ.s 			page 27


 1185 0049 02       		.byte	0x2
 1186 004a 07       		.byte	0x7
 1187 004b 59020000 		.4byte	.LASF4
 1188 004f 04       		.uleb128 0x4
 1189 0050 2F030000 		.4byte	.LASF14
 1190 0054 02       		.byte	0x2
 1191 0055 37       		.byte	0x37
 1192 0056 5A000000 		.4byte	0x5a
 1193 005a 03       		.uleb128 0x3
 1194 005b 04       		.byte	0x4
 1195 005c 05       		.byte	0x5
 1196 005d 71020000 		.4byte	.LASF5
 1197 0061 03       		.uleb128 0x3
 1198 0062 04       		.byte	0x4
 1199 0063 07       		.byte	0x7
 1200 0064 E6020000 		.4byte	.LASF6
 1201 0068 03       		.uleb128 0x3
 1202 0069 08       		.byte	0x8
 1203 006a 05       		.byte	0x5
 1204 006b 64010000 		.4byte	.LASF7
 1205 006f 03       		.uleb128 0x3
 1206 0070 08       		.byte	0x8
 1207 0071 07       		.byte	0x7
 1208 0072 0B020000 		.4byte	.LASF8
 1209 0076 03       		.uleb128 0x3
 1210 0077 04       		.byte	0x4
 1211 0078 07       		.byte	0x7
 1212 0079 56000000 		.4byte	.LASF9
 1213 007d 03       		.uleb128 0x3
 1214 007e 01       		.byte	0x1
 1215 007f 08       		.byte	0x8
 1216 0080 6C020000 		.4byte	.LASF10
 1217 0084 05       		.uleb128 0x5
 1218 0085 7D000000 		.4byte	0x7d
 1219 0089 94000000 		.4byte	0x94
 1220 008d 06       		.uleb128 0x6
 1221 008e 76000000 		.4byte	0x76
 1222 0092 18       		.byte	0x18
 1223 0093 00       		.byte	0
 1224 0094 03       		.uleb128 0x3
 1225 0095 08       		.byte	0x8
 1226 0096 04       		.byte	0x4
 1227 0097 0B030000 		.4byte	.LASF11
 1228 009b 03       		.uleb128 0x3
 1229 009c 04       		.byte	0x4
 1230 009d 04       		.byte	0x4
 1231 009e 4D010000 		.4byte	.LASF12
 1232 00a2 03       		.uleb128 0x3
 1233 00a3 08       		.byte	0x8
 1234 00a4 04       		.byte	0x4
 1235 00a5 D0010000 		.4byte	.LASF13
 1236 00a9 04       		.uleb128 0x4
 1237 00aa 8A020000 		.4byte	.LASF15
 1238 00ae 03       		.byte	0x3
 1239 00af 41       		.byte	0x41
 1240 00b0 4F000000 		.4byte	0x4f
 1241 00b4 04       		.uleb128 0x4
ARM GAS  C:\Users\xavieran\AppData\Local\Temp\cctpMRLJ.s 			page 28


 1242 00b5 0F010000 		.4byte	.LASF16
 1243 00b9 04       		.byte	0x4
 1244 00ba B3       		.byte	0xb3
 1245 00bb 3A000000 		.4byte	0x3a
 1246 00bf 04       		.uleb128 0x4
 1247 00c0 E5000000 		.4byte	.LASF17
 1248 00c4 04       		.byte	0x4
 1249 00c5 B4       		.byte	0xb4
 1250 00c6 48000000 		.4byte	0x48
 1251 00ca 04       		.uleb128 0x4
 1252 00cb DF020000 		.4byte	.LASF18
 1253 00cf 04       		.byte	0x4
 1254 00d0 B5       		.byte	0xb5
 1255 00d1 61000000 		.4byte	0x61
 1256 00d5 04       		.uleb128 0x4
 1257 00d6 FD000000 		.4byte	.LASF19
 1258 00da 04       		.byte	0x4
 1259 00db B7       		.byte	0xb7
 1260 00dc 41000000 		.4byte	0x41
 1261 00e0 04       		.uleb128 0x4
 1262 00e1 05030000 		.4byte	.LASF20
 1263 00e5 04       		.byte	0x4
 1264 00e6 B8       		.byte	0xb8
 1265 00e7 5A000000 		.4byte	0x5a
 1266 00eb 07       		.uleb128 0x7
 1267 00ec B4000000 		.4byte	0xb4
 1268 00f0 08       		.uleb128 0x8
 1269 00f1 72010000 		.4byte	.LASF21
 1270 00f5 01       		.byte	0x1
 1271 00f6 23       		.byte	0x23
 1272 00f7 B4000000 		.4byte	0xb4
 1273 00fb 00000000 		.4byte	.LFB63
 1274 00ff 18000000 		.4byte	.LFE63-.LFB63
 1275 0103 01       		.uleb128 0x1
 1276 0104 9C       		.byte	0x9c
 1277 0105 08       		.uleb128 0x8
 1278 0106 80030000 		.4byte	.LASF22
 1279 010a 01       		.byte	0x1
 1280 010b 27       		.byte	0x27
 1281 010c B4000000 		.4byte	0xb4
 1282 0110 00000000 		.4byte	.LFB64
 1283 0114 18000000 		.4byte	.LFE64-.LFB64
 1284 0118 01       		.uleb128 0x1
 1285 0119 9C       		.byte	0x9c
 1286 011a 09       		.uleb128 0x9
 1287 011b 9C010000 		.4byte	.LASF25
 1288 011f 01       		.byte	0x1
 1289 0120 3F       		.byte	0x3f
 1290 0121 25000000 		.4byte	0x25
 1291 0125 00000000 		.4byte	.LFB65
 1292 0129 22000000 		.4byte	.LFE65-.LFB65
 1293 012d 01       		.uleb128 0x1
 1294 012e 9C       		.byte	0x9c
 1295 012f 40010000 		.4byte	0x140
 1296 0133 0A       		.uleb128 0xa
 1297 0134 7800     		.ascii	"x\000"
 1298 0136 01       		.byte	0x1
ARM GAS  C:\Users\xavieran\AppData\Local\Temp\cctpMRLJ.s 			page 29


 1299 0137 3F       		.byte	0x3f
 1300 0138 25000000 		.4byte	0x25
 1301 013c 02       		.uleb128 0x2
 1302 013d 91       		.byte	0x91
 1303 013e 74       		.sleb128 -12
 1304 013f 00       		.byte	0
 1305 0140 0B       		.uleb128 0xb
 1306 0141 48010000 		.4byte	.LASF71
 1307 0145 01       		.byte	0x1
 1308 0146 47       		.byte	0x47
 1309 0147 B4000000 		.4byte	0xb4
 1310 014b 00000000 		.4byte	.LFB66
 1311 014f 38000000 		.4byte	.LFE66-.LFB66
 1312 0153 01       		.uleb128 0x1
 1313 0154 9C       		.byte	0x9c
 1314 0155 84010000 		.4byte	0x184
 1315 0159 0C       		.uleb128 0xc
 1316 015a 5E010000 		.4byte	.LASF23
 1317 015e 01       		.byte	0x1
 1318 015f 47       		.byte	0x47
 1319 0160 25000000 		.4byte	0x25
 1320 0164 02       		.uleb128 0x2
 1321 0165 91       		.byte	0x91
 1322 0166 74       		.sleb128 -12
 1323 0167 0A       		.uleb128 0xa
 1324 0168 76617200 		.ascii	"var\000"
 1325 016c 01       		.byte	0x1
 1326 016d 47       		.byte	0x47
 1327 016e 25000000 		.4byte	0x25
 1328 0172 02       		.uleb128 0x2
 1329 0173 91       		.byte	0x91
 1330 0174 70       		.sleb128 -16
 1331 0175 0C       		.uleb128 0xc
 1332 0176 23000000 		.4byte	.LASF24
 1333 017a 01       		.byte	0x1
 1334 017b 47       		.byte	0x47
 1335 017c 25000000 		.4byte	0x25
 1336 0180 02       		.uleb128 0x2
 1337 0181 91       		.byte	0x91
 1338 0182 6C       		.sleb128 -20
 1339 0183 00       		.byte	0
 1340 0184 0D       		.uleb128 0xd
 1341 0185 13000000 		.4byte	.LASF26
 1342 0189 01       		.byte	0x1
 1343 018a 55       		.byte	0x55
 1344 018b 25000000 		.4byte	0x25
 1345 018f 00000000 		.4byte	.LFB67
 1346 0193 14010000 		.4byte	.LFE67-.LFB67
 1347 0197 01       		.uleb128 0x1
 1348 0198 9C       		.byte	0x9c
 1349 0199 AC010000 		.4byte	0x1ac
 1350 019d 0E       		.uleb128 0xe
 1351 019e 3A010000 		.4byte	.LASF30
 1352 01a2 01       		.byte	0x1
 1353 01a3 5B       		.byte	0x5b
 1354 01a4 D5000000 		.4byte	0xd5
 1355 01a8 02       		.uleb128 0x2
ARM GAS  C:\Users\xavieran\AppData\Local\Temp\cctpMRLJ.s 			page 30


 1356 01a9 91       		.byte	0x91
 1357 01aa 6E       		.sleb128 -18
 1358 01ab 00       		.byte	0
 1359 01ac 0F       		.uleb128 0xf
 1360 01ad F2000000 		.4byte	.LASF27
 1361 01b1 01       		.byte	0x1
 1362 01b2 76       		.byte	0x76
 1363 01b3 00000000 		.4byte	.LFB68
 1364 01b7 56000000 		.4byte	.LFE68-.LFB68
 1365 01bb 01       		.uleb128 0x1
 1366 01bc 9C       		.byte	0x9c
 1367 01bd EC010000 		.4byte	0x1ec
 1368 01c1 0C       		.uleb128 0xc
 1369 01c2 54020000 		.4byte	.LASF28
 1370 01c6 01       		.byte	0x1
 1371 01c7 76       		.byte	0x76
 1372 01c8 CA000000 		.4byte	0xca
 1373 01cc 02       		.uleb128 0x2
 1374 01cd 91       		.byte	0x91
 1375 01ce 6C       		.sleb128 -20
 1376 01cf 0C       		.uleb128 0xc
 1377 01d0 4E020000 		.4byte	.LASF29
 1378 01d4 01       		.byte	0x1
 1379 01d5 76       		.byte	0x76
 1380 01d6 B4000000 		.4byte	0xb4
 1381 01da 02       		.uleb128 0x2
 1382 01db 91       		.byte	0x91
 1383 01dc 6B       		.sleb128 -21
 1384 01dd 0E       		.uleb128 0xe
 1385 01de B7020000 		.4byte	.LASF31
 1386 01e2 01       		.byte	0x1
 1387 01e3 78       		.byte	0x78
 1388 01e4 CA000000 		.4byte	0xca
 1389 01e8 02       		.uleb128 0x2
 1390 01e9 91       		.byte	0x91
 1391 01ea 74       		.sleb128 -12
 1392 01eb 00       		.byte	0
 1393 01ec 0F       		.uleb128 0xf
 1394 01ed 12030000 		.4byte	.LASF32
 1395 01f1 01       		.byte	0x1
 1396 01f2 82       		.byte	0x82
 1397 01f3 00000000 		.4byte	.LFB69
 1398 01f7 2E000000 		.4byte	.LFE69-.LFB69
 1399 01fb 01       		.uleb128 0x1
 1400 01fc 9C       		.byte	0x9c
 1401 01fd 1E020000 		.4byte	0x21e
 1402 0201 0C       		.uleb128 0xc
 1403 0202 54020000 		.4byte	.LASF28
 1404 0206 01       		.byte	0x1
 1405 0207 82       		.byte	0x82
 1406 0208 CA000000 		.4byte	0xca
 1407 020c 02       		.uleb128 0x2
 1408 020d 91       		.byte	0x91
 1409 020e 74       		.sleb128 -12
 1410 020f 0C       		.uleb128 0xc
 1411 0210 4E020000 		.4byte	.LASF29
 1412 0214 01       		.byte	0x1
ARM GAS  C:\Users\xavieran\AppData\Local\Temp\cctpMRLJ.s 			page 31


 1413 0215 82       		.byte	0x82
 1414 0216 B4000000 		.4byte	0xb4
 1415 021a 02       		.uleb128 0x2
 1416 021b 91       		.byte	0x91
 1417 021c 73       		.sleb128 -13
 1418 021d 00       		.byte	0
 1419 021e 0F       		.uleb128 0xf
 1420 021f 3C020000 		.4byte	.LASF33
 1421 0223 01       		.byte	0x1
 1422 0224 89       		.byte	0x89
 1423 0225 00000000 		.4byte	.LFB70
 1424 0229 2E000000 		.4byte	.LFE70-.LFB70
 1425 022d 01       		.uleb128 0x1
 1426 022e 9C       		.byte	0x9c
 1427 022f 50020000 		.4byte	0x250
 1428 0233 0C       		.uleb128 0xc
 1429 0234 54020000 		.4byte	.LASF28
 1430 0238 01       		.byte	0x1
 1431 0239 89       		.byte	0x89
 1432 023a CA000000 		.4byte	0xca
 1433 023e 02       		.uleb128 0x2
 1434 023f 91       		.byte	0x91
 1435 0240 74       		.sleb128 -12
 1436 0241 0C       		.uleb128 0xc
 1437 0242 4E020000 		.4byte	.LASF29
 1438 0246 01       		.byte	0x1
 1439 0247 89       		.byte	0x89
 1440 0248 B4000000 		.4byte	0xb4
 1441 024c 02       		.uleb128 0x2
 1442 024d 91       		.byte	0x91
 1443 024e 73       		.sleb128 -13
 1444 024f 00       		.byte	0
 1445 0250 0F       		.uleb128 0xf
 1446 0251 23030000 		.4byte	.LASF34
 1447 0255 01       		.byte	0x1
 1448 0256 93       		.byte	0x93
 1449 0257 00000000 		.4byte	.LFB71
 1450 025b 56000000 		.4byte	.LFE71-.LFB71
 1451 025f 01       		.uleb128 0x1
 1452 0260 9C       		.byte	0x9c
 1453 0261 90020000 		.4byte	0x290
 1454 0265 0C       		.uleb128 0xc
 1455 0266 54020000 		.4byte	.LASF28
 1456 026a 01       		.byte	0x1
 1457 026b 93       		.byte	0x93
 1458 026c CA000000 		.4byte	0xca
 1459 0270 02       		.uleb128 0x2
 1460 0271 91       		.byte	0x91
 1461 0272 6C       		.sleb128 -20
 1462 0273 0C       		.uleb128 0xc
 1463 0274 4E020000 		.4byte	.LASF29
 1464 0278 01       		.byte	0x1
 1465 0279 93       		.byte	0x93
 1466 027a B4000000 		.4byte	0xb4
 1467 027e 02       		.uleb128 0x2
 1468 027f 91       		.byte	0x91
 1469 0280 6B       		.sleb128 -21
ARM GAS  C:\Users\xavieran\AppData\Local\Temp\cctpMRLJ.s 			page 32


 1470 0281 0E       		.uleb128 0xe
 1471 0282 B7020000 		.4byte	.LASF31
 1472 0286 01       		.byte	0x1
 1473 0287 95       		.byte	0x95
 1474 0288 CA000000 		.4byte	0xca
 1475 028c 02       		.uleb128 0x2
 1476 028d 91       		.byte	0x91
 1477 028e 74       		.sleb128 -12
 1478 028f 00       		.byte	0
 1479 0290 0F       		.uleb128 0xf
 1480 0291 F9010000 		.4byte	.LASF35
 1481 0295 01       		.byte	0x1
 1482 0296 A0       		.byte	0xa0
 1483 0297 00000000 		.4byte	.LFB72
 1484 029b 42000000 		.4byte	.LFE72-.LFB72
 1485 029f 01       		.uleb128 0x1
 1486 02a0 9C       		.byte	0x9c
 1487 02a1 C2020000 		.4byte	0x2c2
 1488 02a5 0C       		.uleb128 0xc
 1489 02a6 49030000 		.4byte	.LASF36
 1490 02aa 01       		.byte	0x1
 1491 02ab A0       		.byte	0xa0
 1492 02ac BF000000 		.4byte	0xbf
 1493 02b0 02       		.uleb128 0x2
 1494 02b1 91       		.byte	0x91
 1495 02b2 76       		.sleb128 -10
 1496 02b3 0C       		.uleb128 0xc
 1497 02b4 4E020000 		.4byte	.LASF29
 1498 02b8 01       		.byte	0x1
 1499 02b9 A0       		.byte	0xa0
 1500 02ba B4000000 		.4byte	0xb4
 1501 02be 02       		.uleb128 0x2
 1502 02bf 91       		.byte	0x91
 1503 02c0 75       		.sleb128 -11
 1504 02c1 00       		.byte	0
 1505 02c2 0F       		.uleb128 0xf
 1506 02c3 EA010000 		.4byte	.LASF37
 1507 02c7 01       		.byte	0x1
 1508 02c8 AE       		.byte	0xae
 1509 02c9 00000000 		.4byte	.LFB73
 1510 02cd 9C000000 		.4byte	.LFE73-.LFB73
 1511 02d1 01       		.uleb128 0x1
 1512 02d2 9C       		.byte	0x9c
 1513 02d3 F4020000 		.4byte	0x2f4
 1514 02d7 0C       		.uleb128 0xc
 1515 02d8 43030000 		.4byte	.LASF38
 1516 02dc 01       		.byte	0x1
 1517 02dd AE       		.byte	0xae
 1518 02de D5000000 		.4byte	0xd5
 1519 02e2 02       		.uleb128 0x2
 1520 02e3 91       		.byte	0x91
 1521 02e4 66       		.sleb128 -26
 1522 02e5 0E       		.uleb128 0xe
 1523 02e6 21010000 		.4byte	.LASF39
 1524 02ea 01       		.byte	0x1
 1525 02eb B1       		.byte	0xb1
 1526 02ec E0000000 		.4byte	0xe0
ARM GAS  C:\Users\xavieran\AppData\Local\Temp\cctpMRLJ.s 			page 33


 1527 02f0 02       		.uleb128 0x2
 1528 02f1 91       		.byte	0x91
 1529 02f2 6C       		.sleb128 -20
 1530 02f3 00       		.byte	0
 1531 02f4 10       		.uleb128 0x10
 1532 02f5 D3020000 		.4byte	.LASF40
 1533 02f9 01       		.byte	0x1
 1534 02fa BB       		.byte	0xbb
 1535 02fb 00000000 		.4byte	.LFB74
 1536 02ff 20000000 		.4byte	.LFE74-.LFB74
 1537 0303 01       		.uleb128 0x1
 1538 0304 9C       		.byte	0x9c
 1539 0305 18030000 		.4byte	0x318
 1540 0309 0C       		.uleb128 0xc
 1541 030a 74030000 		.4byte	.LASF41
 1542 030e 01       		.byte	0x1
 1543 030f BB       		.byte	0xbb
 1544 0310 D5000000 		.4byte	0xd5
 1545 0314 02       		.uleb128 0x2
 1546 0315 91       		.byte	0x91
 1547 0316 76       		.sleb128 -10
 1548 0317 00       		.byte	0
 1549 0318 0F       		.uleb128 0xf
 1550 0319 15010000 		.4byte	.LASF42
 1551 031d 01       		.byte	0x1
 1552 031e C2       		.byte	0xc2
 1553 031f 00000000 		.4byte	.LFB75
 1554 0323 26000000 		.4byte	.LFE75-.LFB75
 1555 0327 01       		.uleb128 0x1
 1556 0328 9C       		.byte	0x9c
 1557 0329 3C030000 		.4byte	0x33c
 1558 032d 0C       		.uleb128 0xc
 1559 032e 4E020000 		.4byte	.LASF29
 1560 0332 01       		.byte	0x1
 1561 0333 C2       		.byte	0xc2
 1562 0334 25000000 		.4byte	0x25
 1563 0338 02       		.uleb128 0x2
 1564 0339 91       		.byte	0x91
 1565 033a 74       		.sleb128 -12
 1566 033b 00       		.byte	0
 1567 033c 0F       		.uleb128 0xf
 1568 033d 22020000 		.4byte	.LASF43
 1569 0341 01       		.byte	0x1
 1570 0342 CD       		.byte	0xcd
 1571 0343 00000000 		.4byte	.LFB76
 1572 0347 26000000 		.4byte	.LFE76-.LFB76
 1573 034b 01       		.uleb128 0x1
 1574 034c 9C       		.byte	0x9c
 1575 034d 60030000 		.4byte	0x360
 1576 0351 0C       		.uleb128 0xc
 1577 0352 4E020000 		.4byte	.LASF29
 1578 0356 01       		.byte	0x1
 1579 0357 CD       		.byte	0xcd
 1580 0358 25000000 		.4byte	0x25
 1581 035c 02       		.uleb128 0x2
 1582 035d 91       		.byte	0x91
 1583 035e 74       		.sleb128 -12
ARM GAS  C:\Users\xavieran\AppData\Local\Temp\cctpMRLJ.s 			page 34


 1584 035f 00       		.byte	0
 1585 0360 11       		.uleb128 0x11
 1586 0361 F8020000 		.4byte	.LASF44
 1587 0365 01       		.byte	0x1
 1588 0366 D7       		.byte	0xd7
 1589 0367 00000000 		.4byte	.LFB77
 1590 036b 32000000 		.4byte	.LFE77-.LFB77
 1591 036f 01       		.uleb128 0x1
 1592 0370 9C       		.byte	0x9c
 1593 0371 0F       		.uleb128 0xf
 1594 0372 0A000000 		.4byte	.LASF45
 1595 0376 01       		.byte	0x1
 1596 0377 E9       		.byte	0xe9
 1597 0378 00000000 		.4byte	.LFB78
 1598 037c 38000000 		.4byte	.LFE78-.LFB78
 1599 0380 01       		.uleb128 0x1
 1600 0381 9C       		.byte	0x9c
 1601 0382 A3030000 		.4byte	0x3a3
 1602 0386 0C       		.uleb128 0xc
 1603 0387 B1020000 		.4byte	.LASF46
 1604 038b 01       		.byte	0x1
 1605 038c E9       		.byte	0xe9
 1606 038d B4000000 		.4byte	0xb4
 1607 0391 02       		.uleb128 0x2
 1608 0392 91       		.byte	0x91
 1609 0393 77       		.sleb128 -9
 1610 0394 0C       		.uleb128 0xc
 1611 0395 4E020000 		.4byte	.LASF29
 1612 0399 01       		.byte	0x1
 1613 039a E9       		.byte	0xe9
 1614 039b B4000000 		.4byte	0xb4
 1615 039f 02       		.uleb128 0x2
 1616 03a0 91       		.byte	0x91
 1617 03a1 76       		.sleb128 -10
 1618 03a2 00       		.byte	0
 1619 03a3 0F       		.uleb128 0xf
 1620 03a4 A3010000 		.4byte	.LASF47
 1621 03a8 01       		.byte	0x1
 1622 03a9 F9       		.byte	0xf9
 1623 03aa 00000000 		.4byte	.LFB79
 1624 03ae 3C000000 		.4byte	.LFE79-.LFB79
 1625 03b2 01       		.uleb128 0x1
 1626 03b3 9C       		.byte	0x9c
 1627 03b4 C7030000 		.4byte	0x3c7
 1628 03b8 0C       		.uleb128 0xc
 1629 03b9 B1020000 		.4byte	.LASF46
 1630 03bd 01       		.byte	0x1
 1631 03be F9       		.byte	0xf9
 1632 03bf B4000000 		.4byte	0xb4
 1633 03c3 02       		.uleb128 0x2
 1634 03c4 91       		.byte	0x91
 1635 03c5 77       		.sleb128 -9
 1636 03c6 00       		.byte	0
 1637 03c7 12       		.uleb128 0x12
 1638 03c8 53010000 		.4byte	.LASF48
 1639 03cc 01       		.byte	0x1
 1640 03cd 0901     		.2byte	0x109
ARM GAS  C:\Users\xavieran\AppData\Local\Temp\cctpMRLJ.s 			page 35


 1641 03cf 00000000 		.4byte	.LFB80
 1642 03d3 3C000000 		.4byte	.LFE80-.LFB80
 1643 03d7 01       		.uleb128 0x1
 1644 03d8 9C       		.byte	0x9c
 1645 03d9 ED030000 		.4byte	0x3ed
 1646 03dd 13       		.uleb128 0x13
 1647 03de B1020000 		.4byte	.LASF46
 1648 03e2 01       		.byte	0x1
 1649 03e3 0901     		.2byte	0x109
 1650 03e5 B4000000 		.4byte	0xb4
 1651 03e9 02       		.uleb128 0x2
 1652 03ea 91       		.byte	0x91
 1653 03eb 77       		.sleb128 -9
 1654 03ec 00       		.byte	0
 1655 03ed 12       		.uleb128 0x12
 1656 03ee A0020000 		.4byte	.LASF49
 1657 03f2 01       		.byte	0x1
 1658 03f3 1801     		.2byte	0x118
 1659 03f5 00000000 		.4byte	.LFB81
 1660 03f9 3C000000 		.4byte	.LFE81-.LFB81
 1661 03fd 01       		.uleb128 0x1
 1662 03fe 9C       		.byte	0x9c
 1663 03ff 13040000 		.4byte	0x413
 1664 0403 13       		.uleb128 0x13
 1665 0404 B1020000 		.4byte	.LASF46
 1666 0408 01       		.byte	0x1
 1667 0409 1801     		.2byte	0x118
 1668 040b B4000000 		.4byte	0xb4
 1669 040f 02       		.uleb128 0x2
 1670 0410 91       		.byte	0x91
 1671 0411 77       		.sleb128 -9
 1672 0412 00       		.byte	0
 1673 0413 14       		.uleb128 0x14
 1674 0414 67030000 		.4byte	.LASF50
 1675 0418 05       		.byte	0x5
 1676 0419 2A06     		.2byte	0x62a
 1677 041b 1F040000 		.4byte	0x41f
 1678 041f 07       		.uleb128 0x7
 1679 0420 A9000000 		.4byte	0xa9
 1680 0424 05       		.uleb128 0x5
 1681 0425 B4000000 		.4byte	0xb4
 1682 0429 40040000 		.4byte	0x440
 1683 042d 06       		.uleb128 0x6
 1684 042e 76000000 		.4byte	0x76
 1685 0432 8F       		.byte	0x8f
 1686 0433 06       		.uleb128 0x6
 1687 0434 76000000 		.4byte	0x76
 1688 0438 57       		.byte	0x57
 1689 0439 06       		.uleb128 0x6
 1690 043a 76000000 		.4byte	0x76
 1691 043e 03       		.byte	0x3
 1692 043f 00       		.byte	0
 1693 0440 15       		.uleb128 0x15
 1694 0441 54030000 		.4byte	.LASF51
 1695 0445 06       		.byte	0x6
 1696 0446 08       		.byte	0x8
 1697 0447 24040000 		.4byte	0x424
ARM GAS  C:\Users\xavieran\AppData\Local\Temp\cctpMRLJ.s 			page 36


 1698 044b 05       		.uleb128 0x5
 1699 044c 03       		.byte	0x3
 1700 044d 00000000 		.4byte	Camera_framebuffer
 1701 0451 15       		.uleb128 0x15
 1702 0452 C2020000 		.4byte	.LASF52
 1703 0456 01       		.byte	0x1
 1704 0457 15       		.byte	0x15
 1705 0458 E0000000 		.4byte	0xe0
 1706 045c 05       		.uleb128 0x5
 1707 045d 03       		.byte	0x3
 1708 045e 00000000 		.4byte	desired_distance
 1709 0462 15       		.uleb128 0x15
 1710 0463 AC010000 		.4byte	.LASF53
 1711 0467 01       		.byte	0x1
 1712 0468 16       		.byte	0x16
 1713 0469 D5000000 		.4byte	0xd5
 1714 046d 05       		.uleb128 0x5
 1715 046e 03       		.byte	0x3
 1716 046f 00000000 		.4byte	desired_heading
 1717 0473 16       		.uleb128 0x16
 1718 0474 92020000 		.4byte	.LASF54
 1719 0478 01       		.byte	0x1
 1720 0479 17       		.byte	0x17
 1721 047a EB000000 		.4byte	0xeb
 1722 047e 15       		.uleb128 0x15
 1723 047f 3C000000 		.4byte	.LASF55
 1724 0483 01       		.byte	0x1
 1725 0484 19       		.byte	0x19
 1726 0485 E0000000 		.4byte	0xe0
 1727 0489 05       		.uleb128 0x5
 1728 048a 03       		.byte	0x3
 1729 048b 00000000 		.4byte	start_x
 1730 048f 15       		.uleb128 0x15
 1731 0490 44000000 		.4byte	.LASF56
 1732 0494 01       		.byte	0x1
 1733 0495 1A       		.byte	0x1a
 1734 0496 E0000000 		.4byte	0xe0
 1735 049a 05       		.uleb128 0x5
 1736 049b 03       		.byte	0x3
 1737 049c 00000000 		.4byte	start_y
 1738 04a0 15       		.uleb128 0x15
 1739 04a1 EC000000 		.4byte	.LASF57
 1740 04a5 01       		.byte	0x1
 1741 04a6 1C       		.byte	0x1c
 1742 04a7 E0000000 		.4byte	0xe0
 1743 04ab 05       		.uleb128 0x5
 1744 04ac 03       		.byte	0x3
 1745 04ad 00000000 		.4byte	end_x
 1746 04b1 15       		.uleb128 0x15
 1747 04b2 AB020000 		.4byte	.LASF58
 1748 04b6 01       		.byte	0x1
 1749 04b7 1D       		.byte	0x1d
 1750 04b8 E0000000 		.4byte	0xe0
 1751 04bc 05       		.uleb128 0x5
 1752 04bd 03       		.byte	0x3
 1753 04be 00000000 		.4byte	end_y
 1754 04c2 15       		.uleb128 0x15
ARM GAS  C:\Users\xavieran\AppData\Local\Temp\cctpMRLJ.s 			page 37


 1755 04c3 03010000 		.4byte	.LASF59
 1756 04c7 01       		.byte	0x1
 1757 04c8 20       		.byte	0x20
 1758 04c9 B4000000 		.4byte	0xb4
 1759 04cd 05       		.uleb128 0x5
 1760 04ce 03       		.byte	0x3
 1761 04cf 00000000 		.4byte	motor_state
 1762 04d3 15       		.uleb128 0x15
 1763 04d4 7D010000 		.4byte	.LASF60
 1764 04d8 01       		.byte	0x1
 1765 04d9 21       		.byte	0x21
 1766 04da B4000000 		.4byte	0xb4
 1767 04de 05       		.uleb128 0x5
 1768 04df 03       		.byte	0x3
 1769 04e0 00000000 		.4byte	just_arrived
 1770 04e4 15       		.uleb128 0x15
 1771 04e5 29000000 		.4byte	.LASF61
 1772 04e9 01       		.byte	0x1
 1773 04ea 22       		.byte	0x22
 1774 04eb B4000000 		.4byte	0xb4
 1775 04ef 05       		.uleb128 0x5
 1776 04f0 03       		.byte	0x3
 1777 04f1 00000000 		.4byte	currently_rotating
 1778 04f5 15       		.uleb128 0x15
 1779 04f6 8A010000 		.4byte	.LASF62
 1780 04fa 01       		.byte	0x1
 1781 04fb 26       		.byte	0x26
 1782 04fc B4000000 		.4byte	0xb4
 1783 0500 05       		.uleb128 0x5
 1784 0501 03       		.byte	0x3
 1785 0502 00000000 		.4byte	currently_driving
 1786 0506 15       		.uleb128 0x15
 1787 0507 BC010000 		.4byte	.LASF63
 1788 050b 01       		.byte	0x1
 1789 050c 2B       		.byte	0x2b
 1790 050d B4000000 		.4byte	0xb4
 1791 0511 05       		.uleb128 0x5
 1792 0512 03       		.byte	0x3
 1793 0513 00000000 		.4byte	HEADING_ERROR_LIMIT
 1794 0517 15       		.uleb128 0x15
 1795 0518 D9030000 		.4byte	.LASF64
 1796 051c 01       		.byte	0x1
 1797 051d 2C       		.byte	0x2c
 1798 051e B4000000 		.4byte	0xb4
 1799 0522 05       		.uleb128 0x5
 1800 0523 03       		.byte	0x3
 1801 0524 00000000 		.4byte	STALL_SPEED
 1802 0528 15       		.uleb128 0x15
 1803 0529 39030000 		.4byte	.LASF65
 1804 052d 01       		.byte	0x1
 1805 052e 2D       		.byte	0x2d
 1806 052f B4000000 		.4byte	0xb4
 1807 0533 05       		.uleb128 0x5
 1808 0534 03       		.byte	0x3
 1809 0535 00000000 		.4byte	MAX_SPEED
 1810 0539 15       		.uleb128 0x15
 1811 053a 5F000000 		.4byte	.LASF66
ARM GAS  C:\Users\xavieran\AppData\Local\Temp\cctpMRLJ.s 			page 38


 1812 053e 01       		.byte	0x1
 1813 053f 2E       		.byte	0x2e
 1814 0540 84000000 		.4byte	0x84
 1815 0544 05       		.uleb128 0x5
 1816 0545 03       		.byte	0x3
 1817 0546 00000000 		.4byte	outString
 1818 054a 16       		.uleb128 0x16
 1819 054b 7A020000 		.4byte	.LASF67
 1820 054f 01       		.byte	0x1
 1821 0550 36       		.byte	0x36
 1822 0551 D5000000 		.4byte	0xd5
 1823 0555 00       		.byte	0
 1824              		.section	.debug_abbrev,"",%progbits
 1825              	.Ldebug_abbrev0:
 1826 0000 01       		.uleb128 0x1
 1827 0001 11       		.uleb128 0x11
 1828 0002 01       		.byte	0x1
 1829 0003 25       		.uleb128 0x25
 1830 0004 0E       		.uleb128 0xe
 1831 0005 13       		.uleb128 0x13
 1832 0006 0B       		.uleb128 0xb
 1833 0007 03       		.uleb128 0x3
 1834 0008 0E       		.uleb128 0xe
 1835 0009 1B       		.uleb128 0x1b
 1836 000a 0E       		.uleb128 0xe
 1837 000b 55       		.uleb128 0x55
 1838 000c 17       		.uleb128 0x17
 1839 000d 11       		.uleb128 0x11
 1840 000e 01       		.uleb128 0x1
 1841 000f 10       		.uleb128 0x10
 1842 0010 17       		.uleb128 0x17
 1843 0011 00       		.byte	0
 1844 0012 00       		.byte	0
 1845 0013 02       		.uleb128 0x2
 1846 0014 24       		.uleb128 0x24
 1847 0015 00       		.byte	0
 1848 0016 0B       		.uleb128 0xb
 1849 0017 0B       		.uleb128 0xb
 1850 0018 3E       		.uleb128 0x3e
 1851 0019 0B       		.uleb128 0xb
 1852 001a 03       		.uleb128 0x3
 1853 001b 08       		.uleb128 0x8
 1854 001c 00       		.byte	0
 1855 001d 00       		.byte	0
 1856 001e 03       		.uleb128 0x3
 1857 001f 24       		.uleb128 0x24
 1858 0020 00       		.byte	0
 1859 0021 0B       		.uleb128 0xb
 1860 0022 0B       		.uleb128 0xb
 1861 0023 3E       		.uleb128 0x3e
 1862 0024 0B       		.uleb128 0xb
 1863 0025 03       		.uleb128 0x3
 1864 0026 0E       		.uleb128 0xe
 1865 0027 00       		.byte	0
 1866 0028 00       		.byte	0
 1867 0029 04       		.uleb128 0x4
 1868 002a 16       		.uleb128 0x16
ARM GAS  C:\Users\xavieran\AppData\Local\Temp\cctpMRLJ.s 			page 39


 1869 002b 00       		.byte	0
 1870 002c 03       		.uleb128 0x3
 1871 002d 0E       		.uleb128 0xe
 1872 002e 3A       		.uleb128 0x3a
 1873 002f 0B       		.uleb128 0xb
 1874 0030 3B       		.uleb128 0x3b
 1875 0031 0B       		.uleb128 0xb
 1876 0032 49       		.uleb128 0x49
 1877 0033 13       		.uleb128 0x13
 1878 0034 00       		.byte	0
 1879 0035 00       		.byte	0
 1880 0036 05       		.uleb128 0x5
 1881 0037 01       		.uleb128 0x1
 1882 0038 01       		.byte	0x1
 1883 0039 49       		.uleb128 0x49
 1884 003a 13       		.uleb128 0x13
 1885 003b 01       		.uleb128 0x1
 1886 003c 13       		.uleb128 0x13
 1887 003d 00       		.byte	0
 1888 003e 00       		.byte	0
 1889 003f 06       		.uleb128 0x6
 1890 0040 21       		.uleb128 0x21
 1891 0041 00       		.byte	0
 1892 0042 49       		.uleb128 0x49
 1893 0043 13       		.uleb128 0x13
 1894 0044 2F       		.uleb128 0x2f
 1895 0045 0B       		.uleb128 0xb
 1896 0046 00       		.byte	0
 1897 0047 00       		.byte	0
 1898 0048 07       		.uleb128 0x7
 1899 0049 35       		.uleb128 0x35
 1900 004a 00       		.byte	0
 1901 004b 49       		.uleb128 0x49
 1902 004c 13       		.uleb128 0x13
 1903 004d 00       		.byte	0
 1904 004e 00       		.byte	0
 1905 004f 08       		.uleb128 0x8
 1906 0050 2E       		.uleb128 0x2e
 1907 0051 00       		.byte	0
 1908 0052 3F       		.uleb128 0x3f
 1909 0053 19       		.uleb128 0x19
 1910 0054 03       		.uleb128 0x3
 1911 0055 0E       		.uleb128 0xe
 1912 0056 3A       		.uleb128 0x3a
 1913 0057 0B       		.uleb128 0xb
 1914 0058 3B       		.uleb128 0x3b
 1915 0059 0B       		.uleb128 0xb
 1916 005a 49       		.uleb128 0x49
 1917 005b 13       		.uleb128 0x13
 1918 005c 11       		.uleb128 0x11
 1919 005d 01       		.uleb128 0x1
 1920 005e 12       		.uleb128 0x12
 1921 005f 06       		.uleb128 0x6
 1922 0060 40       		.uleb128 0x40
 1923 0061 18       		.uleb128 0x18
 1924 0062 9742     		.uleb128 0x2117
 1925 0064 19       		.uleb128 0x19
ARM GAS  C:\Users\xavieran\AppData\Local\Temp\cctpMRLJ.s 			page 40


 1926 0065 00       		.byte	0
 1927 0066 00       		.byte	0
 1928 0067 09       		.uleb128 0x9
 1929 0068 2E       		.uleb128 0x2e
 1930 0069 01       		.byte	0x1
 1931 006a 3F       		.uleb128 0x3f
 1932 006b 19       		.uleb128 0x19
 1933 006c 03       		.uleb128 0x3
 1934 006d 0E       		.uleb128 0xe
 1935 006e 3A       		.uleb128 0x3a
 1936 006f 0B       		.uleb128 0xb
 1937 0070 3B       		.uleb128 0x3b
 1938 0071 0B       		.uleb128 0xb
 1939 0072 49       		.uleb128 0x49
 1940 0073 13       		.uleb128 0x13
 1941 0074 11       		.uleb128 0x11
 1942 0075 01       		.uleb128 0x1
 1943 0076 12       		.uleb128 0x12
 1944 0077 06       		.uleb128 0x6
 1945 0078 40       		.uleb128 0x40
 1946 0079 18       		.uleb128 0x18
 1947 007a 9742     		.uleb128 0x2117
 1948 007c 19       		.uleb128 0x19
 1949 007d 01       		.uleb128 0x1
 1950 007e 13       		.uleb128 0x13
 1951 007f 00       		.byte	0
 1952 0080 00       		.byte	0
 1953 0081 0A       		.uleb128 0xa
 1954 0082 05       		.uleb128 0x5
 1955 0083 00       		.byte	0
 1956 0084 03       		.uleb128 0x3
 1957 0085 08       		.uleb128 0x8
 1958 0086 3A       		.uleb128 0x3a
 1959 0087 0B       		.uleb128 0xb
 1960 0088 3B       		.uleb128 0x3b
 1961 0089 0B       		.uleb128 0xb
 1962 008a 49       		.uleb128 0x49
 1963 008b 13       		.uleb128 0x13
 1964 008c 02       		.uleb128 0x2
 1965 008d 18       		.uleb128 0x18
 1966 008e 00       		.byte	0
 1967 008f 00       		.byte	0
 1968 0090 0B       		.uleb128 0xb
 1969 0091 2E       		.uleb128 0x2e
 1970 0092 01       		.byte	0x1
 1971 0093 3F       		.uleb128 0x3f
 1972 0094 19       		.uleb128 0x19
 1973 0095 03       		.uleb128 0x3
 1974 0096 0E       		.uleb128 0xe
 1975 0097 3A       		.uleb128 0x3a
 1976 0098 0B       		.uleb128 0xb
 1977 0099 3B       		.uleb128 0x3b
 1978 009a 0B       		.uleb128 0xb
 1979 009b 27       		.uleb128 0x27
 1980 009c 19       		.uleb128 0x19
 1981 009d 49       		.uleb128 0x49
 1982 009e 13       		.uleb128 0x13
ARM GAS  C:\Users\xavieran\AppData\Local\Temp\cctpMRLJ.s 			page 41


 1983 009f 11       		.uleb128 0x11
 1984 00a0 01       		.uleb128 0x1
 1985 00a1 12       		.uleb128 0x12
 1986 00a2 06       		.uleb128 0x6
 1987 00a3 40       		.uleb128 0x40
 1988 00a4 18       		.uleb128 0x18
 1989 00a5 9742     		.uleb128 0x2117
 1990 00a7 19       		.uleb128 0x19
 1991 00a8 01       		.uleb128 0x1
 1992 00a9 13       		.uleb128 0x13
 1993 00aa 00       		.byte	0
 1994 00ab 00       		.byte	0
 1995 00ac 0C       		.uleb128 0xc
 1996 00ad 05       		.uleb128 0x5
 1997 00ae 00       		.byte	0
 1998 00af 03       		.uleb128 0x3
 1999 00b0 0E       		.uleb128 0xe
 2000 00b1 3A       		.uleb128 0x3a
 2001 00b2 0B       		.uleb128 0xb
 2002 00b3 3B       		.uleb128 0x3b
 2003 00b4 0B       		.uleb128 0xb
 2004 00b5 49       		.uleb128 0x49
 2005 00b6 13       		.uleb128 0x13
 2006 00b7 02       		.uleb128 0x2
 2007 00b8 18       		.uleb128 0x18
 2008 00b9 00       		.byte	0
 2009 00ba 00       		.byte	0
 2010 00bb 0D       		.uleb128 0xd
 2011 00bc 2E       		.uleb128 0x2e
 2012 00bd 01       		.byte	0x1
 2013 00be 3F       		.uleb128 0x3f
 2014 00bf 19       		.uleb128 0x19
 2015 00c0 03       		.uleb128 0x3
 2016 00c1 0E       		.uleb128 0xe
 2017 00c2 3A       		.uleb128 0x3a
 2018 00c3 0B       		.uleb128 0xb
 2019 00c4 3B       		.uleb128 0x3b
 2020 00c5 0B       		.uleb128 0xb
 2021 00c6 49       		.uleb128 0x49
 2022 00c7 13       		.uleb128 0x13
 2023 00c8 11       		.uleb128 0x11
 2024 00c9 01       		.uleb128 0x1
 2025 00ca 12       		.uleb128 0x12
 2026 00cb 06       		.uleb128 0x6
 2027 00cc 40       		.uleb128 0x40
 2028 00cd 18       		.uleb128 0x18
 2029 00ce 9642     		.uleb128 0x2116
 2030 00d0 19       		.uleb128 0x19
 2031 00d1 01       		.uleb128 0x1
 2032 00d2 13       		.uleb128 0x13
 2033 00d3 00       		.byte	0
 2034 00d4 00       		.byte	0
 2035 00d5 0E       		.uleb128 0xe
 2036 00d6 34       		.uleb128 0x34
 2037 00d7 00       		.byte	0
 2038 00d8 03       		.uleb128 0x3
 2039 00d9 0E       		.uleb128 0xe
ARM GAS  C:\Users\xavieran\AppData\Local\Temp\cctpMRLJ.s 			page 42


 2040 00da 3A       		.uleb128 0x3a
 2041 00db 0B       		.uleb128 0xb
 2042 00dc 3B       		.uleb128 0x3b
 2043 00dd 0B       		.uleb128 0xb
 2044 00de 49       		.uleb128 0x49
 2045 00df 13       		.uleb128 0x13
 2046 00e0 02       		.uleb128 0x2
 2047 00e1 18       		.uleb128 0x18
 2048 00e2 00       		.byte	0
 2049 00e3 00       		.byte	0
 2050 00e4 0F       		.uleb128 0xf
 2051 00e5 2E       		.uleb128 0x2e
 2052 00e6 01       		.byte	0x1
 2053 00e7 3F       		.uleb128 0x3f
 2054 00e8 19       		.uleb128 0x19
 2055 00e9 03       		.uleb128 0x3
 2056 00ea 0E       		.uleb128 0xe
 2057 00eb 3A       		.uleb128 0x3a
 2058 00ec 0B       		.uleb128 0xb
 2059 00ed 3B       		.uleb128 0x3b
 2060 00ee 0B       		.uleb128 0xb
 2061 00ef 27       		.uleb128 0x27
 2062 00f0 19       		.uleb128 0x19
 2063 00f1 11       		.uleb128 0x11
 2064 00f2 01       		.uleb128 0x1
 2065 00f3 12       		.uleb128 0x12
 2066 00f4 06       		.uleb128 0x6
 2067 00f5 40       		.uleb128 0x40
 2068 00f6 18       		.uleb128 0x18
 2069 00f7 9642     		.uleb128 0x2116
 2070 00f9 19       		.uleb128 0x19
 2071 00fa 01       		.uleb128 0x1
 2072 00fb 13       		.uleb128 0x13
 2073 00fc 00       		.byte	0
 2074 00fd 00       		.byte	0
 2075 00fe 10       		.uleb128 0x10
 2076 00ff 2E       		.uleb128 0x2e
 2077 0100 01       		.byte	0x1
 2078 0101 3F       		.uleb128 0x3f
 2079 0102 19       		.uleb128 0x19
 2080 0103 03       		.uleb128 0x3
 2081 0104 0E       		.uleb128 0xe
 2082 0105 3A       		.uleb128 0x3a
 2083 0106 0B       		.uleb128 0xb
 2084 0107 3B       		.uleb128 0x3b
 2085 0108 0B       		.uleb128 0xb
 2086 0109 27       		.uleb128 0x27
 2087 010a 19       		.uleb128 0x19
 2088 010b 11       		.uleb128 0x11
 2089 010c 01       		.uleb128 0x1
 2090 010d 12       		.uleb128 0x12
 2091 010e 06       		.uleb128 0x6
 2092 010f 40       		.uleb128 0x40
 2093 0110 18       		.uleb128 0x18
 2094 0111 9742     		.uleb128 0x2117
 2095 0113 19       		.uleb128 0x19
 2096 0114 01       		.uleb128 0x1
ARM GAS  C:\Users\xavieran\AppData\Local\Temp\cctpMRLJ.s 			page 43


 2097 0115 13       		.uleb128 0x13
 2098 0116 00       		.byte	0
 2099 0117 00       		.byte	0
 2100 0118 11       		.uleb128 0x11
 2101 0119 2E       		.uleb128 0x2e
 2102 011a 00       		.byte	0
 2103 011b 3F       		.uleb128 0x3f
 2104 011c 19       		.uleb128 0x19
 2105 011d 03       		.uleb128 0x3
 2106 011e 0E       		.uleb128 0xe
 2107 011f 3A       		.uleb128 0x3a
 2108 0120 0B       		.uleb128 0xb
 2109 0121 3B       		.uleb128 0x3b
 2110 0122 0B       		.uleb128 0xb
 2111 0123 27       		.uleb128 0x27
 2112 0124 19       		.uleb128 0x19
 2113 0125 11       		.uleb128 0x11
 2114 0126 01       		.uleb128 0x1
 2115 0127 12       		.uleb128 0x12
 2116 0128 06       		.uleb128 0x6
 2117 0129 40       		.uleb128 0x40
 2118 012a 18       		.uleb128 0x18
 2119 012b 9642     		.uleb128 0x2116
 2120 012d 19       		.uleb128 0x19
 2121 012e 00       		.byte	0
 2122 012f 00       		.byte	0
 2123 0130 12       		.uleb128 0x12
 2124 0131 2E       		.uleb128 0x2e
 2125 0132 01       		.byte	0x1
 2126 0133 3F       		.uleb128 0x3f
 2127 0134 19       		.uleb128 0x19
 2128 0135 03       		.uleb128 0x3
 2129 0136 0E       		.uleb128 0xe
 2130 0137 3A       		.uleb128 0x3a
 2131 0138 0B       		.uleb128 0xb
 2132 0139 3B       		.uleb128 0x3b
 2133 013a 05       		.uleb128 0x5
 2134 013b 27       		.uleb128 0x27
 2135 013c 19       		.uleb128 0x19
 2136 013d 11       		.uleb128 0x11
 2137 013e 01       		.uleb128 0x1
 2138 013f 12       		.uleb128 0x12
 2139 0140 06       		.uleb128 0x6
 2140 0141 40       		.uleb128 0x40
 2141 0142 18       		.uleb128 0x18
 2142 0143 9642     		.uleb128 0x2116
 2143 0145 19       		.uleb128 0x19
 2144 0146 01       		.uleb128 0x1
 2145 0147 13       		.uleb128 0x13
 2146 0148 00       		.byte	0
 2147 0149 00       		.byte	0
 2148 014a 13       		.uleb128 0x13
 2149 014b 05       		.uleb128 0x5
 2150 014c 00       		.byte	0
 2151 014d 03       		.uleb128 0x3
 2152 014e 0E       		.uleb128 0xe
 2153 014f 3A       		.uleb128 0x3a
ARM GAS  C:\Users\xavieran\AppData\Local\Temp\cctpMRLJ.s 			page 44


 2154 0150 0B       		.uleb128 0xb
 2155 0151 3B       		.uleb128 0x3b
 2156 0152 05       		.uleb128 0x5
 2157 0153 49       		.uleb128 0x49
 2158 0154 13       		.uleb128 0x13
 2159 0155 02       		.uleb128 0x2
 2160 0156 18       		.uleb128 0x18
 2161 0157 00       		.byte	0
 2162 0158 00       		.byte	0
 2163 0159 14       		.uleb128 0x14
 2164 015a 34       		.uleb128 0x34
 2165 015b 00       		.byte	0
 2166 015c 03       		.uleb128 0x3
 2167 015d 0E       		.uleb128 0xe
 2168 015e 3A       		.uleb128 0x3a
 2169 015f 0B       		.uleb128 0xb
 2170 0160 3B       		.uleb128 0x3b
 2171 0161 05       		.uleb128 0x5
 2172 0162 49       		.uleb128 0x49
 2173 0163 13       		.uleb128 0x13
 2174 0164 3F       		.uleb128 0x3f
 2175 0165 19       		.uleb128 0x19
 2176 0166 3C       		.uleb128 0x3c
 2177 0167 19       		.uleb128 0x19
 2178 0168 00       		.byte	0
 2179 0169 00       		.byte	0
 2180 016a 15       		.uleb128 0x15
 2181 016b 34       		.uleb128 0x34
 2182 016c 00       		.byte	0
 2183 016d 03       		.uleb128 0x3
 2184 016e 0E       		.uleb128 0xe
 2185 016f 3A       		.uleb128 0x3a
 2186 0170 0B       		.uleb128 0xb
 2187 0171 3B       		.uleb128 0x3b
 2188 0172 0B       		.uleb128 0xb
 2189 0173 49       		.uleb128 0x49
 2190 0174 13       		.uleb128 0x13
 2191 0175 3F       		.uleb128 0x3f
 2192 0176 19       		.uleb128 0x19
 2193 0177 02       		.uleb128 0x2
 2194 0178 18       		.uleb128 0x18
 2195 0179 00       		.byte	0
 2196 017a 00       		.byte	0
 2197 017b 16       		.uleb128 0x16
 2198 017c 34       		.uleb128 0x34
 2199 017d 00       		.byte	0
 2200 017e 03       		.uleb128 0x3
 2201 017f 0E       		.uleb128 0xe
 2202 0180 3A       		.uleb128 0x3a
 2203 0181 0B       		.uleb128 0xb
 2204 0182 3B       		.uleb128 0x3b
 2205 0183 0B       		.uleb128 0xb
 2206 0184 49       		.uleb128 0x49
 2207 0185 13       		.uleb128 0x13
 2208 0186 3F       		.uleb128 0x3f
 2209 0187 19       		.uleb128 0x19
 2210 0188 3C       		.uleb128 0x3c
ARM GAS  C:\Users\xavieran\AppData\Local\Temp\cctpMRLJ.s 			page 45


 2211 0189 19       		.uleb128 0x19
 2212 018a 00       		.byte	0
 2213 018b 00       		.byte	0
 2214 018c 00       		.byte	0
 2215              		.section	.debug_aranges,"",%progbits
 2216 0000 AC000000 		.4byte	0xac
 2217 0004 0200     		.2byte	0x2
 2218 0006 00000000 		.4byte	.Ldebug_info0
 2219 000a 04       		.byte	0x4
 2220 000b 00       		.byte	0
 2221 000c 0000     		.2byte	0
 2222 000e 0000     		.2byte	0
 2223 0010 00000000 		.4byte	.LFB63
 2224 0014 18000000 		.4byte	.LFE63-.LFB63
 2225 0018 00000000 		.4byte	.LFB64
 2226 001c 18000000 		.4byte	.LFE64-.LFB64
 2227 0020 00000000 		.4byte	.LFB65
 2228 0024 22000000 		.4byte	.LFE65-.LFB65
 2229 0028 00000000 		.4byte	.LFB66
 2230 002c 38000000 		.4byte	.LFE66-.LFB66
 2231 0030 00000000 		.4byte	.LFB67
 2232 0034 14010000 		.4byte	.LFE67-.LFB67
 2233 0038 00000000 		.4byte	.LFB68
 2234 003c 56000000 		.4byte	.LFE68-.LFB68
 2235 0040 00000000 		.4byte	.LFB69
 2236 0044 2E000000 		.4byte	.LFE69-.LFB69
 2237 0048 00000000 		.4byte	.LFB70
 2238 004c 2E000000 		.4byte	.LFE70-.LFB70
 2239 0050 00000000 		.4byte	.LFB71
 2240 0054 56000000 		.4byte	.LFE71-.LFB71
 2241 0058 00000000 		.4byte	.LFB72
 2242 005c 42000000 		.4byte	.LFE72-.LFB72
 2243 0060 00000000 		.4byte	.LFB73
 2244 0064 9C000000 		.4byte	.LFE73-.LFB73
 2245 0068 00000000 		.4byte	.LFB74
 2246 006c 20000000 		.4byte	.LFE74-.LFB74
 2247 0070 00000000 		.4byte	.LFB75
 2248 0074 26000000 		.4byte	.LFE75-.LFB75
 2249 0078 00000000 		.4byte	.LFB76
 2250 007c 26000000 		.4byte	.LFE76-.LFB76
 2251 0080 00000000 		.4byte	.LFB77
 2252 0084 32000000 		.4byte	.LFE77-.LFB77
 2253 0088 00000000 		.4byte	.LFB78
 2254 008c 38000000 		.4byte	.LFE78-.LFB78
 2255 0090 00000000 		.4byte	.LFB79
 2256 0094 3C000000 		.4byte	.LFE79-.LFB79
 2257 0098 00000000 		.4byte	.LFB80
 2258 009c 3C000000 		.4byte	.LFE80-.LFB80
 2259 00a0 00000000 		.4byte	.LFB81
 2260 00a4 3C000000 		.4byte	.LFE81-.LFB81
 2261 00a8 00000000 		.4byte	0
 2262 00ac 00000000 		.4byte	0
 2263              		.section	.debug_ranges,"",%progbits
 2264              	.Ldebug_ranges0:
 2265 0000 00000000 		.4byte	.LFB63
 2266 0004 18000000 		.4byte	.LFE63
 2267 0008 00000000 		.4byte	.LFB64
ARM GAS  C:\Users\xavieran\AppData\Local\Temp\cctpMRLJ.s 			page 46


 2268 000c 18000000 		.4byte	.LFE64
 2269 0010 00000000 		.4byte	.LFB65
 2270 0014 22000000 		.4byte	.LFE65
 2271 0018 00000000 		.4byte	.LFB66
 2272 001c 38000000 		.4byte	.LFE66
 2273 0020 00000000 		.4byte	.LFB67
 2274 0024 14010000 		.4byte	.LFE67
 2275 0028 00000000 		.4byte	.LFB68
 2276 002c 56000000 		.4byte	.LFE68
 2277 0030 00000000 		.4byte	.LFB69
 2278 0034 2E000000 		.4byte	.LFE69
 2279 0038 00000000 		.4byte	.LFB70
 2280 003c 2E000000 		.4byte	.LFE70
 2281 0040 00000000 		.4byte	.LFB71
 2282 0044 56000000 		.4byte	.LFE71
 2283 0048 00000000 		.4byte	.LFB72
 2284 004c 42000000 		.4byte	.LFE72
 2285 0050 00000000 		.4byte	.LFB73
 2286 0054 9C000000 		.4byte	.LFE73
 2287 0058 00000000 		.4byte	.LFB74
 2288 005c 20000000 		.4byte	.LFE74
 2289 0060 00000000 		.4byte	.LFB75
 2290 0064 26000000 		.4byte	.LFE75
 2291 0068 00000000 		.4byte	.LFB76
 2292 006c 26000000 		.4byte	.LFE76
 2293 0070 00000000 		.4byte	.LFB77
 2294 0074 32000000 		.4byte	.LFE77
 2295 0078 00000000 		.4byte	.LFB78
 2296 007c 38000000 		.4byte	.LFE78
 2297 0080 00000000 		.4byte	.LFB79
 2298 0084 3C000000 		.4byte	.LFE79
 2299 0088 00000000 		.4byte	.LFB80
 2300 008c 3C000000 		.4byte	.LFE80
 2301 0090 00000000 		.4byte	.LFB81
 2302 0094 3C000000 		.4byte	.LFE81
 2303 0098 00000000 		.4byte	0
 2304 009c 00000000 		.4byte	0
 2305              		.section	.debug_line,"",%progbits
 2306              	.Ldebug_line0:
 2307 0000 1A030000 		.section	.debug_str,"MS",%progbits,1
 2307      02005601 
 2307      00000201 
 2307      FB0E0D00 
 2307      01010101 
 2308              	.LASF69:
 2309 0000 2E5C6D6F 		.ascii	".\\motor.c\000"
 2309      746F722E 
 2309      6300
 2310              	.LASF45:
 2311 000a 73657453 		.ascii	"setSpeed\000"
 2311      70656564 
 2311      00
 2312              	.LASF26:
 2313 0013 636F6E74 		.ascii	"control_heading\000"
 2313      726F6C5F 
 2313      68656164 
 2313      696E6700 
ARM GAS  C:\Users\xavieran\AppData\Local\Temp\cctpMRLJ.s 			page 47


 2314              	.LASF24:
 2315 0023 75707065 		.ascii	"upper\000"
 2315      7200
 2316              	.LASF61:
 2317 0029 63757272 		.ascii	"currently_rotating\000"
 2317      656E746C 
 2317      795F726F 
 2317      74617469 
 2317      6E6700
 2318              	.LASF55:
 2319 003c 73746172 		.ascii	"start_x\000"
 2319      745F7800 
 2320              	.LASF56:
 2321 0044 73746172 		.ascii	"start_y\000"
 2321      745F7900 
 2322              	.LASF3:
 2323 004c 73686F72 		.ascii	"short int\000"
 2323      7420696E 
 2323      7400
 2324              	.LASF9:
 2325 0056 73697A65 		.ascii	"sizetype\000"
 2325      74797065 
 2325      00
 2326              	.LASF66:
 2327 005f 6F757453 		.ascii	"outString\000"
 2327      7472696E 
 2327      6700
 2328              	.LASF68:
 2329 0069 474E5520 		.ascii	"GNU C 4.8.4 20140526 (release) [ARM/embedded-4_8-br"
 2329      4320342E 
 2329      382E3420 
 2329      32303134 
 2329      30353236 
 2330 009c 616E6368 		.ascii	"anch revision 211358] -mcpu=cortex-m3 -mthumb -g -O"
 2330      20726576 
 2330      6973696F 
 2330      6E203231 
 2330      31333538 
 2331 00cf 30202D66 		.ascii	"0 -ffunction-sections\000"
 2331      66756E63 
 2331      74696F6E 
 2331      2D736563 
 2331      74696F6E 
 2332              	.LASF17:
 2333 00e5 75696E74 		.ascii	"uint16\000"
 2333      313600
 2334              	.LASF57:
 2335 00ec 656E645F 		.ascii	"end_x\000"
 2335      7800
 2336              	.LASF27:
 2337 00f2 676F5F66 		.ascii	"go_forward\000"
 2337      6F727761 
 2337      726400
 2338              	.LASF19:
 2339 00fd 696E7431 		.ascii	"int16\000"
 2339      3600
 2340              	.LASF59:
ARM GAS  C:\Users\xavieran\AppData\Local\Temp\cctpMRLJ.s 			page 48


 2341 0103 6D6F746F 		.ascii	"motor_state\000"
 2341      725F7374 
 2341      61746500 
 2342              	.LASF16:
 2343 010f 75696E74 		.ascii	"uint8\000"
 2343      3800
 2344              	.LASF42:
 2345 0115 726F7461 		.ascii	"rotate_left\000"
 2345      74655F6C 
 2345      65667400 
 2346              	.LASF39:
 2347 0121 73746172 		.ascii	"started_time\000"
 2347      7465645F 
 2347      74696D65 
 2347      00
 2348              	.LASF1:
 2349 012e 7369676E 		.ascii	"signed char\000"
 2349      65642063 
 2349      68617200 
 2350              	.LASF30:
 2351 013a 68656164 		.ascii	"heading_error\000"
 2351      696E675F 
 2351      6572726F 
 2351      7200
 2352              	.LASF71:
 2353 0148 636C6970 		.ascii	"clip\000"
 2353      00
 2354              	.LASF12:
 2355 014d 666C6F61 		.ascii	"float\000"
 2355      7400
 2356              	.LASF48:
 2357 0153 73657446 		.ascii	"setForward\000"
 2357      6F727761 
 2357      726400
 2358              	.LASF23:
 2359 015e 6C6F7765 		.ascii	"lower\000"
 2359      7200
 2360              	.LASF7:
 2361 0164 6C6F6E67 		.ascii	"long long int\000"
 2361      206C6F6E 
 2361      6720696E 
 2361      7400
 2362              	.LASF21:
 2363 0172 6973526F 		.ascii	"isRotating\000"
 2363      74617469 
 2363      6E6700
 2364              	.LASF60:
 2365 017d 6A757374 		.ascii	"just_arrived\000"
 2365      5F617272 
 2365      69766564 
 2365      00
 2366              	.LASF62:
 2367 018a 63757272 		.ascii	"currently_driving\000"
 2367      656E746C 
 2367      795F6472 
 2367      6976696E 
 2367      6700
ARM GAS  C:\Users\xavieran\AppData\Local\Temp\cctpMRLJ.s 			page 49


 2368              	.LASF25:
 2369 019c 6D793661 		.ascii	"my6abs\000"
 2369      627300
 2370              	.LASF47:
 2371 01a3 73657443 		.ascii	"setCoast\000"
 2371      6F617374 
 2371      00
 2372              	.LASF53:
 2373 01ac 64657369 		.ascii	"desired_heading\000"
 2373      7265645F 
 2373      68656164 
 2373      696E6700 
 2374              	.LASF63:
 2375 01bc 48454144 		.ascii	"HEADING_ERROR_LIMIT\000"
 2375      494E475F 
 2375      4552524F 
 2375      525F4C49 
 2375      4D495400 
 2376              	.LASF13:
 2377 01d0 6C6F6E67 		.ascii	"long double\000"
 2377      20646F75 
 2377      626C6500 
 2378              	.LASF2:
 2379 01dc 756E7369 		.ascii	"unsigned char\000"
 2379      676E6564 
 2379      20636861 
 2379      7200
 2380              	.LASF37:
 2381 01ea 726F7461 		.ascii	"rotate_degrees\000"
 2381      74655F64 
 2381      65677265 
 2381      657300
 2382              	.LASF35:
 2383 01f9 676F5F62 		.ascii	"go_backward_ultra\000"
 2383      61636B77 
 2383      6172645F 
 2383      756C7472 
 2383      6100
 2384              	.LASF8:
 2385 020b 6C6F6E67 		.ascii	"long long unsigned int\000"
 2385      206C6F6E 
 2385      6720756E 
 2385      7369676E 
 2385      65642069 
 2386              	.LASF43:
 2387 0222 726F7461 		.ascii	"rotate_right\000"
 2387      74655F72 
 2387      69676874 
 2387      00
 2388              	.LASF0:
 2389 022f 756E7369 		.ascii	"unsigned int\000"
 2389      676E6564 
 2389      20696E74 
 2389      00
 2390              	.LASF33:
 2391 023c 676F5F62 		.ascii	"go_backward_blind\000"
 2391      61636B77 
ARM GAS  C:\Users\xavieran\AppData\Local\Temp\cctpMRLJ.s 			page 50


 2391      6172645F 
 2391      626C696E 
 2391      6400
 2392              	.LASF29:
 2393 024e 73706565 		.ascii	"speed\000"
 2393      6400
 2394              	.LASF28:
 2395 0254 74696D65 		.ascii	"time\000"
 2395      00
 2396              	.LASF4:
 2397 0259 73686F72 		.ascii	"short unsigned int\000"
 2397      7420756E 
 2397      7369676E 
 2397      65642069 
 2397      6E7400
 2398              	.LASF10:
 2399 026c 63686172 		.ascii	"char\000"
 2399      00
 2400              	.LASF5:
 2401 0271 6C6F6E67 		.ascii	"long int\000"
 2401      20696E74 
 2401      00
 2402              	.LASF67:
 2403 027a 636F6D70 		.ascii	"compass_heading\000"
 2403      6173735F 
 2403      68656164 
 2403      696E6700 
 2404              	.LASF15:
 2405 028a 696E7433 		.ascii	"int32_t\000"
 2405      325F7400 
 2406              	.LASF54:
 2407 0292 636F6D70 		.ascii	"compass_ready\000"
 2407      6173735F 
 2407      72656164 
 2407      7900
 2408              	.LASF49:
 2409 02a0 73657452 		.ascii	"setReverse\000"
 2409      65766572 
 2409      736500
 2410              	.LASF58:
 2411 02ab 656E645F 		.ascii	"end_y\000"
 2411      7900
 2412              	.LASF46:
 2413 02b1 6D6F746F 		.ascii	"motor\000"
 2413      7200
 2414              	.LASF31:
 2415 02b7 73746172 		.ascii	"start_time\000"
 2415      745F7469 
 2415      6D6500
 2416              	.LASF52:
 2417 02c2 64657369 		.ascii	"desired_distance\000"
 2417      7265645F 
 2417      64697374 
 2417      616E6365 
 2417      00
 2418              	.LASF40:
 2419 02d3 7365745F 		.ascii	"set_heading\000"
ARM GAS  C:\Users\xavieran\AppData\Local\Temp\cctpMRLJ.s 			page 51


 2419      68656164 
 2419      696E6700 
 2420              	.LASF18:
 2421 02df 75696E74 		.ascii	"uint32\000"
 2421      333200
 2422              	.LASF6:
 2423 02e6 6C6F6E67 		.ascii	"long unsigned int\000"
 2423      20756E73 
 2423      69676E65 
 2423      6420696E 
 2423      7400
 2424              	.LASF44:
 2425 02f8 73746172 		.ascii	"start_motors\000"
 2425      745F6D6F 
 2425      746F7273 
 2425      00
 2426              	.LASF20:
 2427 0305 696E7433 		.ascii	"int32\000"
 2427      3200
 2428              	.LASF11:
 2429 030b 646F7562 		.ascii	"double\000"
 2429      6C6500
 2430              	.LASF32:
 2431 0312 676F5F66 		.ascii	"go_forward_blind\000"
 2431      6F727761 
 2431      72645F62 
 2431      6C696E64 
 2431      00
 2432              	.LASF34:
 2433 0323 676F5F62 		.ascii	"go_backward\000"
 2433      61636B77 
 2433      61726400 
 2434              	.LASF14:
 2435 032f 5F5F696E 		.ascii	"__int32_t\000"
 2435      7433325F 
 2435      7400
 2436              	.LASF65:
 2437 0339 4D41585F 		.ascii	"MAX_SPEED\000"
 2437      53504545 
 2437      4400
 2438              	.LASF38:
 2439 0343 616E676C 		.ascii	"angle\000"
 2439      6500
 2440              	.LASF36:
 2441 0349 756C7472 		.ascii	"ultra_dist\000"
 2441      615F6469 
 2441      737400
 2442              	.LASF51:
 2443 0354 43616D65 		.ascii	"Camera_framebuffer\000"
 2443      72615F66 
 2443      72616D65 
 2443      62756666 
 2443      657200
 2444              	.LASF50:
 2445 0367 49544D5F 		.ascii	"ITM_RxBuffer\000"
 2445      52784275 
 2445      66666572 
ARM GAS  C:\Users\xavieran\AppData\Local\Temp\cctpMRLJ.s 			page 52


 2445      00
 2446              	.LASF41:
 2447 0374 6E65775F 		.ascii	"new_heading\000"
 2447      68656164 
 2447      696E6700 
 2448              	.LASF22:
 2449 0380 69734472 		.ascii	"isDriving\000"
 2449      6976696E 
 2449      6700
 2450              	.LASF70:
 2451 038a 433A5C55 		.ascii	"C:\\Users\\xavieran\\Desktop\\ECE3091\\PSOCProjects"
 2451      73657273 
 2451      5C786176 
 2451      69657261 
 2451      6E5C4465 
 2452 03b8 5C454E47 		.ascii	"\\ENG3091_MandM\\camera_test.cydsn\000"
 2452      33303931 
 2452      5F4D616E 
 2452      644D5C63 
 2452      616D6572 
 2453              	.LASF64:
 2454 03d9 5354414C 		.ascii	"STALL_SPEED\000"
 2454      4C5F5350 
 2454      45454400 
 2455              		.ident	"GCC: (GNU Tools for ARM Embedded Processors) 4.8.4 20140526 (release) [ARM/embedded-4_8-br
