ARM GAS  C:\Users\xavieran\AppData\Local\Temp\ccLmCtxQ.s 			page 1


   1              		.syntax unified
   2              		.cpu cortex-m3
   3              		.fpu softvfp
   4              		.eabi_attribute 20, 1
   5              		.eabi_attribute 21, 1
   6              		.eabi_attribute 23, 3
   7              		.eabi_attribute 24, 1
   8              		.eabi_attribute 25, 1
   9              		.eabi_attribute 26, 1
  10              		.eabi_attribute 30, 6
  11              		.eabi_attribute 34, 1
  12              		.eabi_attribute 18, 4
  13              		.thumb
  14              		.file	"my_camera_functions.c"
  15              		.text
  16              	.Ltext0:
  17              		.cfi_sections	.debug_frame
  18              		.comm	Camera_framebuffer,50688,4
  19              		.global	RED_U
  20              		.data
  21              		.type	RED_U, %object
  22              		.size	RED_U, 1
  23              	RED_U:
  24 0000 7A       		.byte	122
  25              		.global	RED_V
  26              		.type	RED_V, %object
  27              		.size	RED_V, 1
  28              	RED_V:
  29 0001 96       		.byte	-106
  30              		.global	GREEN_U
  31              		.type	GREEN_U, %object
  32              		.size	GREEN_U, 1
  33              	GREEN_U:
  34 0002 82       		.byte	-126
  35              		.global	GREEN_V
  36              		.type	GREEN_V, %object
  37              		.size	GREEN_V, 1
  38              	GREEN_V:
  39 0003 78       		.byte	120
  40              		.global	BLUE_U
  41              		.type	BLUE_U, %object
  42              		.size	BLUE_U, 1
  43              	BLUE_U:
  44 0004 87       		.byte	-121
  45              		.global	BLUE_V
  46              		.type	BLUE_V, %object
  47              		.size	BLUE_V, 1
  48              	BLUE_V:
  49 0005 78       		.byte	120
  50              		.section	.rodata
  51              		.align	2
  52              	.LC0:
  53 0000 43616D65 		.ascii	"Camera Actualy\000"
  53      72612041 
  53      63747561 
  53      6C7900
  54 000f 00       		.align	2
ARM GAS  C:\Users\xavieran\AppData\Local\Temp\ccLmCtxQ.s 			page 2


  55              	.LC1:
  56 0010 4672616D 		.ascii	"Frame Sync Done\000"
  56      65205379 
  56      6E632044 
  56      6F6E6500 
  57              		.align	2
  58              	.LC2:
  59 0020 47657474 		.ascii	"Getting Frame!!\000"
  59      696E6720 
  59      4672616D 
  59      65212100 
  60              		.align	2
  61              	.LC3:
  62 0030 496E6974 		.ascii	"Init Camera Done\000"
  62      2043616D 
  62      65726120 
  62      446F6E65 
  62      00
  63              		.section	.text.init_camera,"ax",%progbits
  64              		.align	2
  65              		.global	init_camera
  66              		.thumb
  67              		.thumb_func
  68              		.type	init_camera, %function
  69              	init_camera:
  70              	.LFB63:
  71              		.file 1 ".\\my_camera_functions.c"
   1:.\my_camera_functions.c **** /* ========================================
   2:.\my_camera_functions.c ****  *
   3:.\my_camera_functions.c ****  * Copyright YOUR COMPANY, THE YEAR
   4:.\my_camera_functions.c ****  * All Rights Reserved
   5:.\my_camera_functions.c ****  * UNPUBLISHED, LICENSED SOFTWARE.
   6:.\my_camera_functions.c ****  *
   7:.\my_camera_functions.c ****  * CONFIDENTIAL AND PROPRIETARY INFORMATION
   8:.\my_camera_functions.c ****  * WHICH IS THE PROPERTY OF your company.
   9:.\my_camera_functions.c ****  *
  10:.\my_camera_functions.c ****  * ========================================
  11:.\my_camera_functions.c **** */
  12:.\my_camera_functions.c **** #include <project.h>
  13:.\my_camera_functions.c **** #include <my_camera_functions.h>
  14:.\my_camera_functions.c **** #include <blob_stats.h>
  15:.\my_camera_functions.c **** #include <stdio.h>
  16:.\my_camera_functions.c **** 
  17:.\my_camera_functions.c **** uint8 RED_U= 122;//116;
  18:.\my_camera_functions.c **** uint8 RED_V= 150;//140;//162;
  19:.\my_camera_functions.c **** uint8 GREEN_U= 130;//128;
  20:.\my_camera_functions.c **** uint8 GREEN_V= 120;//102;
  21:.\my_camera_functions.c **** uint8 BLUE_U= 135;//138;//162;
  22:.\my_camera_functions.c **** uint8 BLUE_V= 120;//124;//116;
  23:.\my_camera_functions.c **** 
  24:.\my_camera_functions.c **** extern blob *blobs;
  25:.\my_camera_functions.c **** 
  26:.\my_camera_functions.c **** void init_camera()
  27:.\my_camera_functions.c **** {
  72              		.loc 1 27 0
  73              		.cfi_startproc
  74              		@ args = 0, pretend = 0, frame = 0
ARM GAS  C:\Users\xavieran\AppData\Local\Temp\ccLmCtxQ.s 			page 3


  75              		@ frame_needed = 1, uses_anonymous_args = 0
  76 0000 80B5     		push	{r7, lr}
  77              		.cfi_def_cfa_offset 8
  78              		.cfi_offset 7, -8
  79              		.cfi_offset 14, -4
  80 0002 00AF     		add	r7, sp, #0
  81              		.cfi_def_cfa_register 7
  28:.\my_camera_functions.c **** 	Camera_Start();
  82              		.loc 1 28 0
  83 0004 FFF7FEFF 		bl	Camera_Start
  29:.\my_camera_functions.c ****     LCD_ClearDisplay();
  84              		.loc 1 29 0
  85 0008 0120     		movs	r0, #1
  86 000a FFF7FEFF 		bl	LCD_WriteControl
  30:.\my_camera_functions.c ****     LCD_PosPrintString(0,0,"Camera Actualy");
  87              		.loc 1 30 0
  88 000e 0020     		movs	r0, #0
  89 0010 0021     		movs	r1, #0
  90 0012 FFF7FEFF 		bl	LCD_Position
  91 0016 2348     		ldr	r0, .L2
  92 0018 FFF7FEFF 		bl	LCD_PrintString
  31:.\my_camera_functions.c ****     Camera_WriteReg(0x1E,0b00000000); //Flip Image
  93              		.loc 1 31 0
  94 001c 1E20     		movs	r0, #30
  95 001e 0021     		movs	r1, #0
  96 0020 FFF7FEFF 		bl	Camera_WriteReg
  32:.\my_camera_functions.c ****     Camera_WriteReg(0x13,0b11100111); //Enable Auto Gain, WB, Exposure
  97              		.loc 1 32 0
  98 0024 1320     		movs	r0, #19
  99 0026 E721     		movs	r1, #231
 100 0028 FFF7FEFF 		bl	Camera_WriteReg
  33:.\my_camera_functions.c ****     Camera_SyncFrame();
 101              		.loc 1 33 0
 102 002c FFF7FEFF 		bl	Camera_SyncFrame
  34:.\my_camera_functions.c ****     LCD_PosPrintString(0,0,"Frame Sync Done");
 103              		.loc 1 34 0
 104 0030 0020     		movs	r0, #0
 105 0032 0021     		movs	r1, #0
 106 0034 FFF7FEFF 		bl	LCD_Position
 107 0038 1B48     		ldr	r0, .L2+4
 108 003a FFF7FEFF 		bl	LCD_PrintString
  35:.\my_camera_functions.c **** 	Camera_GetFrame(); //start frame capture
 109              		.loc 1 35 0
 110 003e FFF7FEFF 		bl	Camera_GetFrame
  36:.\my_camera_functions.c ****     LCD_PosPrintString(0,0,"Getting Frame!!");
 111              		.loc 1 36 0
 112 0042 0020     		movs	r0, #0
 113 0044 0021     		movs	r1, #0
 114 0046 FFF7FEFF 		bl	LCD_Position
 115 004a 1848     		ldr	r0, .L2+8
 116 004c FFF7FEFF 		bl	LCD_PrintString
  37:.\my_camera_functions.c **** 	Camera_SyncFrame(); //wait until frame is fully captured before sending out over USB
 117              		.loc 1 37 0
 118 0050 FFF7FEFF 		bl	Camera_SyncFrame
  38:.\my_camera_functions.c ****     Camera_WriteReg(0x13,0b11100000);
 119              		.loc 1 38 0
 120 0054 1320     		movs	r0, #19
ARM GAS  C:\Users\xavieran\AppData\Local\Temp\ccLmCtxQ.s 			page 4


 121 0056 E021     		movs	r1, #224
 122 0058 FFF7FEFF 		bl	Camera_WriteReg
  39:.\my_camera_functions.c ****     //Gain and exposure settigs
  40:.\my_camera_functions.c ****     Camera_WriteReg(0x00, 1);
 123              		.loc 1 40 0
 124 005c 0020     		movs	r0, #0
 125 005e 0121     		movs	r1, #1
 126 0060 FFF7FEFF 		bl	Camera_WriteReg
  41:.\my_camera_functions.c ****     Camera_WriteReg(0x01, 85);
 127              		.loc 1 41 0
 128 0064 0120     		movs	r0, #1
 129 0066 5521     		movs	r1, #85
 130 0068 FFF7FEFF 		bl	Camera_WriteReg
  42:.\my_camera_functions.c ****     Camera_WriteReg(0x02, 150);
 131              		.loc 1 42 0
 132 006c 0220     		movs	r0, #2
 133 006e 9621     		movs	r1, #150
 134 0070 FFF7FEFF 		bl	Camera_WriteReg
  43:.\my_camera_functions.c ****     Camera_WriteReg(0x10,30);
 135              		.loc 1 43 0
 136 0074 1020     		movs	r0, #16
 137 0076 1E21     		movs	r1, #30
 138 0078 FFF7FEFF 		bl	Camera_WriteReg
  44:.\my_camera_functions.c **** 	Camera_WriteReg(0x3F,0b00101111); // Edge Enhancement Factor and Threshold
 139              		.loc 1 44 0
 140 007c 3F20     		movs	r0, #63
 141 007e 2F21     		movs	r1, #47
 142 0080 FFF7FEFF 		bl	Camera_WriteReg
  45:.\my_camera_functions.c ****     Camera_WriteReg(0x3E,0b00000011); // Edge Enhancement Control
 143              		.loc 1 45 0
 144 0084 3E20     		movs	r0, #62
 145 0086 0321     		movs	r1, #3
 146 0088 FFF7FEFF 		bl	Camera_WriteReg
  46:.\my_camera_functions.c ****     Camera_WriteReg(0x8C,0b10100000); // Denoise
 147              		.loc 1 46 0
 148 008c 8C20     		movs	r0, #140
 149 008e A021     		movs	r1, #160
 150 0090 FFF7FEFF 		bl	Camera_WriteReg
  47:.\my_camera_functions.c ****     LCD_PosPrintString(0,0,"Init Camera Done");
 151              		.loc 1 47 0
 152 0094 0020     		movs	r0, #0
 153 0096 0021     		movs	r1, #0
 154 0098 FFF7FEFF 		bl	LCD_Position
 155 009c 0448     		ldr	r0, .L2+12
 156 009e FFF7FEFF 		bl	LCD_PrintString
  48:.\my_camera_functions.c **** }
 157              		.loc 1 48 0
 158 00a2 80BD     		pop	{r7, pc}
 159              	.L3:
 160              		.align	2
 161              	.L2:
 162 00a4 00000000 		.word	.LC0
 163 00a8 10000000 		.word	.LC1
 164 00ac 20000000 		.word	.LC2
 165 00b0 30000000 		.word	.LC3
 166              		.cfi_endproc
 167              	.LFE63:
ARM GAS  C:\Users\xavieran\AppData\Local\Temp\ccLmCtxQ.s 			page 5


 168              		.size	init_camera, .-init_camera
 169              		.section	.text.capture_image,"ax",%progbits
 170              		.align	2
 171              		.global	capture_image
 172              		.thumb
 173              		.thumb_func
 174              		.type	capture_image, %function
 175              	capture_image:
 176              	.LFB64:
  49:.\my_camera_functions.c **** 
  50:.\my_camera_functions.c **** void capture_image()
  51:.\my_camera_functions.c **** {
 177              		.loc 1 51 0
 178              		.cfi_startproc
 179              		@ args = 0, pretend = 0, frame = 0
 180              		@ frame_needed = 1, uses_anonymous_args = 0
 181 0000 80B5     		push	{r7, lr}
 182              		.cfi_def_cfa_offset 8
 183              		.cfi_offset 7, -8
 184              		.cfi_offset 14, -4
 185 0002 00AF     		add	r7, sp, #0
 186              		.cfi_def_cfa_register 7
  52:.\my_camera_functions.c **** 	Camera_SyncFrame();
 187              		.loc 1 52 0
 188 0004 FFF7FEFF 		bl	Camera_SyncFrame
  53:.\my_camera_functions.c **** 	Camera_GetFrame();
 189              		.loc 1 53 0
 190 0008 FFF7FEFF 		bl	Camera_GetFrame
  54:.\my_camera_functions.c **** 	Camera_SyncFrame();
 191              		.loc 1 54 0
 192 000c FFF7FEFF 		bl	Camera_SyncFrame
  55:.\my_camera_functions.c **** }
 193              		.loc 1 55 0
 194 0010 80BD     		pop	{r7, pc}
 195              		.cfi_endproc
 196              	.LFE64:
 197              		.size	capture_image, .-capture_image
 198 0012 00BF     		.section	.text.capture_thresh_image,"ax",%progbits
 199              		.align	2
 200              		.global	capture_thresh_image
 201              		.thumb
 202              		.thumb_func
 203              		.type	capture_thresh_image, %function
 204              	capture_thresh_image:
 205              	.LFB65:
  56:.\my_camera_functions.c **** 
  57:.\my_camera_functions.c **** void capture_thresh_image()
  58:.\my_camera_functions.c **** {
 206              		.loc 1 58 0
 207              		.cfi_startproc
 208              		@ args = 0, pretend = 0, frame = 0
 209              		@ frame_needed = 1, uses_anonymous_args = 0
 210 0000 80B5     		push	{r7, lr}
 211              		.cfi_def_cfa_offset 8
 212              		.cfi_offset 7, -8
 213              		.cfi_offset 14, -4
 214 0002 00AF     		add	r7, sp, #0
ARM GAS  C:\Users\xavieran\AppData\Local\Temp\ccLmCtxQ.s 			page 6


 215              		.cfi_def_cfa_register 7
  59:.\my_camera_functions.c **** 	Camera_SyncFrame();
 216              		.loc 1 59 0
 217 0004 FFF7FEFF 		bl	Camera_SyncFrame
  60:.\my_camera_functions.c **** 	Camera_GetFrame();
 218              		.loc 1 60 0
 219 0008 FFF7FEFF 		bl	Camera_GetFrame
  61:.\my_camera_functions.c **** 	Camera_SyncFrame();
 220              		.loc 1 61 0
 221 000c FFF7FEFF 		bl	Camera_SyncFrame
  62:.\my_camera_functions.c ****     threshold_image();
 222              		.loc 1 62 0
 223 0010 FFF7FEFF 		bl	threshold_image
  63:.\my_camera_functions.c ****     clean_frame(RED,0.2,20);
 224              		.loc 1 63 0
 225 0014 0120     		movs	r0, #1
 226 0016 0849     		ldr	r1, .L6
 227 0018 1422     		movs	r2, #20
 228 001a FFF7FEFF 		bl	clean_frame
  64:.\my_camera_functions.c ****     clean_frame(GREEN,0.2,20);
 229              		.loc 1 64 0
 230 001e 0220     		movs	r0, #2
 231 0020 0549     		ldr	r1, .L6
 232 0022 1422     		movs	r2, #20
 233 0024 FFF7FEFF 		bl	clean_frame
  65:.\my_camera_functions.c ****     clean_frame(BLUE,0.2,20);
 234              		.loc 1 65 0
 235 0028 0320     		movs	r0, #3
 236 002a 0349     		ldr	r1, .L6
 237 002c 1422     		movs	r2, #20
 238 002e FFF7FEFF 		bl	clean_frame
  66:.\my_camera_functions.c ****     blob_detect();
 239              		.loc 1 66 0
 240 0032 FFF7FEFF 		bl	blob_detect
  67:.\my_camera_functions.c **** }
 241              		.loc 1 67 0
 242 0036 80BD     		pop	{r7, pc}
 243              	.L7:
 244              		.align	2
 245              	.L6:
 246 0038 CDCC4C3E 		.word	1045220557
 247              		.cfi_endproc
 248              	.LFE65:
 249              		.size	capture_thresh_image, .-capture_thresh_image
 250              		.section	.text.set_gain_exposure,"ax",%progbits
 251              		.align	2
 252              		.global	set_gain_exposure
 253              		.thumb
 254              		.thumb_func
 255              		.type	set_gain_exposure, %function
 256              	set_gain_exposure:
 257              	.LFB66:
  68:.\my_camera_functions.c **** 
  69:.\my_camera_functions.c **** void set_gain_exposure(int setting)
  70:.\my_camera_functions.c **** {
 258              		.loc 1 70 0
 259              		.cfi_startproc
ARM GAS  C:\Users\xavieran\AppData\Local\Temp\ccLmCtxQ.s 			page 7


 260              		@ args = 0, pretend = 0, frame = 8
 261              		@ frame_needed = 1, uses_anonymous_args = 0
 262 0000 80B5     		push	{r7, lr}
 263              		.cfi_def_cfa_offset 8
 264              		.cfi_offset 7, -8
 265              		.cfi_offset 14, -4
 266 0002 82B0     		sub	sp, sp, #8
 267              		.cfi_def_cfa_offset 16
 268 0004 00AF     		add	r7, sp, #0
 269              		.cfi_def_cfa_register 7
 270 0006 7860     		str	r0, [r7, #4]
  71:.\my_camera_functions.c **** 	switch(setting)
 271              		.loc 1 71 0
 272 0008 7B68     		ldr	r3, [r7, #4]
 273 000a 032B     		cmp	r3, #3
 274 000c 33D0     		beq	.L10
 275 000e 042B     		cmp	r3, #4
 276 0010 3ED0     		beq	.L11
 277 0012 012B     		cmp	r3, #1
 278 0014 22D1     		bne	.L14
  72:.\my_camera_functions.c **** 	{
  73:.\my_camera_functions.c **** 		case 1:
  74:.\my_camera_functions.c **** 			// Settings for Instructions
  75:.\my_camera_functions.c **** 			Camera_WriteReg(0x00, 9); //g
 279              		.loc 1 75 0
 280 0016 0020     		movs	r0, #0
 281 0018 0921     		movs	r1, #9
 282 001a FFF7FEFF 		bl	Camera_WriteReg
  76:.\my_camera_functions.c ****             Camera_WriteReg(0x01, 108);//BG
 283              		.loc 1 76 0
 284 001e 0120     		movs	r0, #1
 285 0020 6C21     		movs	r1, #108
 286 0022 FFF7FEFF 		bl	Camera_WriteReg
  77:.\my_camera_functions.c ****             Camera_WriteReg(0x02, 120);//RG
 287              		.loc 1 77 0
 288 0026 0220     		movs	r0, #2
 289 0028 7821     		movs	r1, #120
 290 002a FFF7FEFF 		bl	Camera_WriteReg
  78:.\my_camera_functions.c **** 			Camera_WriteReg(0x10, 48);//exposure
 291              		.loc 1 78 0
 292 002e 1020     		movs	r0, #16
 293 0030 3021     		movs	r1, #48
 294 0032 FFF7FEFF 		bl	Camera_WriteReg
  79:.\my_camera_functions.c ****             RED_U = 127;
 295              		.loc 1 79 0
 296 0036 234B     		ldr	r3, .L15
 297 0038 7F22     		movs	r2, #127
 298 003a 1A70     		strb	r2, [r3]
  80:.\my_camera_functions.c ****             RED_V = 150;
 299              		.loc 1 80 0
 300 003c 224B     		ldr	r3, .L15+4
 301 003e 9622     		movs	r2, #150
 302 0040 1A70     		strb	r2, [r3]
  81:.\my_camera_functions.c ****             GREEN_U = 128;
 303              		.loc 1 81 0
 304 0042 224B     		ldr	r3, .L15+8
 305 0044 8022     		movs	r2, #128
ARM GAS  C:\Users\xavieran\AppData\Local\Temp\ccLmCtxQ.s 			page 8


 306 0046 1A70     		strb	r2, [r3]
  82:.\my_camera_functions.c ****             GREEN_V = 118;
 307              		.loc 1 82 0
 308 0048 214B     		ldr	r3, .L15+12
 309 004a 7622     		movs	r2, #118
 310 004c 1A70     		strb	r2, [r3]
  83:.\my_camera_functions.c ****             BLUE_U = 135;
 311              		.loc 1 83 0
 312 004e 214B     		ldr	r3, .L15+16
 313 0050 8722     		movs	r2, #135
 314 0052 1A70     		strb	r2, [r3]
  84:.\my_camera_functions.c ****             BLUE_V = 120;
 315              		.loc 1 84 0
 316 0054 204B     		ldr	r3, .L15+20
 317 0056 7822     		movs	r2, #120
 318 0058 1A70     		strb	r2, [r3]
  85:.\my_camera_functions.c **** 			break;
 319              		.loc 1 85 0
 320 005a 2FE0     		b	.L8
 321              	.L14:
  86:.\my_camera_functions.c **** 		default:
  87:.\my_camera_functions.c **** 		case 2:
  88:.\my_camera_functions.c **** 			// Settings for arena 1
  89:.\my_camera_functions.c **** 			Camera_WriteReg(0x00,105);
 322              		.loc 1 89 0
 323 005c 0020     		movs	r0, #0
 324 005e 6921     		movs	r1, #105
 325 0060 FFF7FEFF 		bl	Camera_WriteReg
  90:.\my_camera_functions.c ****             Camera_WriteReg(0x01, 165);
 326              		.loc 1 90 0
 327 0064 0120     		movs	r0, #1
 328 0066 A521     		movs	r1, #165
 329 0068 FFF7FEFF 		bl	Camera_WriteReg
  91:.\my_camera_functions.c **** 			Camera_WriteReg(0x10, 6);
 330              		.loc 1 91 0
 331 006c 1020     		movs	r0, #16
 332 006e 0621     		movs	r1, #6
 333 0070 FFF7FEFF 		bl	Camera_WriteReg
  92:.\my_camera_functions.c **** 			break;
 334              		.loc 1 92 0
 335 0074 22E0     		b	.L8
 336              	.L10:
  93:.\my_camera_functions.c **** 		case 3:
  94:.\my_camera_functions.c **** 			// Settings for arena 2
  95:.\my_camera_functions.c **** 			Camera_WriteReg(0x00,105);
 337              		.loc 1 95 0
 338 0076 0020     		movs	r0, #0
 339 0078 6921     		movs	r1, #105
 340 007a FFF7FEFF 		bl	Camera_WriteReg
  96:.\my_camera_functions.c ****             Camera_WriteReg(0x01, 165);
 341              		.loc 1 96 0
 342 007e 0120     		movs	r0, #1
 343 0080 A521     		movs	r1, #165
 344 0082 FFF7FEFF 		bl	Camera_WriteReg
  97:.\my_camera_functions.c **** 			Camera_WriteReg(0x10, 1);
 345              		.loc 1 97 0
 346 0086 1020     		movs	r0, #16
ARM GAS  C:\Users\xavieran\AppData\Local\Temp\ccLmCtxQ.s 			page 9


 347 0088 0121     		movs	r1, #1
 348 008a FFF7FEFF 		bl	Camera_WriteReg
  98:.\my_camera_functions.c **** 			break;
 349              		.loc 1 98 0
 350 008e 15E0     		b	.L8
 351              	.L11:
  99:.\my_camera_functions.c ****         case 4:
 100:.\my_camera_functions.c ****             //Science student lounge
 101:.\my_camera_functions.c ****             RED_U = 188;
 352              		.loc 1 101 0
 353 0090 0C4B     		ldr	r3, .L15
 354 0092 BC22     		movs	r2, #188
 355 0094 1A70     		strb	r2, [r3]
 102:.\my_camera_functions.c ****             RED_V = 129;
 356              		.loc 1 102 0
 357 0096 0C4B     		ldr	r3, .L15+4
 358 0098 8122     		movs	r2, #129
 359 009a 1A70     		strb	r2, [r3]
 103:.\my_camera_functions.c ****             Camera_WriteReg(0x00, 53);
 360              		.loc 1 103 0
 361 009c 0020     		movs	r0, #0
 362 009e 3521     		movs	r1, #53
 363 00a0 FFF7FEFF 		bl	Camera_WriteReg
 104:.\my_camera_functions.c ****             Camera_WriteReg(0x01, 163);
 364              		.loc 1 104 0
 365 00a4 0120     		movs	r0, #1
 366 00a6 A321     		movs	r1, #163
 367 00a8 FFF7FEFF 		bl	Camera_WriteReg
 105:.\my_camera_functions.c ****             Camera_WriteReg(0x02, 114);
 368              		.loc 1 105 0
 369 00ac 0220     		movs	r0, #2
 370 00ae 7221     		movs	r1, #114
 371 00b0 FFF7FEFF 		bl	Camera_WriteReg
 106:.\my_camera_functions.c ****             Camera_WriteReg(0x10, 60);
 372              		.loc 1 106 0
 373 00b4 1020     		movs	r0, #16
 374 00b6 3C21     		movs	r1, #60
 375 00b8 FFF7FEFF 		bl	Camera_WriteReg
 376              	.L8:
 107:.\my_camera_functions.c **** 	}
 108:.\my_camera_functions.c **** }
 377              		.loc 1 108 0
 378 00bc 0837     		adds	r7, r7, #8
 379 00be BD46     		mov	sp, r7
 380              		@ sp needed
 381 00c0 80BD     		pop	{r7, pc}
 382              	.L16:
 383 00c2 00BF     		.align	2
 384              	.L15:
 385 00c4 00000000 		.word	RED_U
 386 00c8 00000000 		.word	RED_V
 387 00cc 00000000 		.word	GREEN_U
 388 00d0 00000000 		.word	GREEN_V
 389 00d4 00000000 		.word	BLUE_U
 390 00d8 00000000 		.word	BLUE_V
 391              		.cfi_endproc
 392              	.LFE66:
ARM GAS  C:\Users\xavieran\AppData\Local\Temp\ccLmCtxQ.s 			page 10


 393              		.size	set_gain_exposure, .-set_gain_exposure
 394              		.section	.text.PixelColour,"ax",%progbits
 395              		.align	2
 396              		.global	PixelColour
 397              		.thumb
 398              		.thumb_func
 399              		.type	PixelColour, %function
 400              	PixelColour:
 401              	.LFB67:
 109:.\my_camera_functions.c **** 
 110:.\my_camera_functions.c ****     
 111:.\my_camera_functions.c ****     
 112:.\my_camera_functions.c **** uint8 PixelColour(uint8 x,uint8 y) //colour of pixel at (x,y)
 113:.\my_camera_functions.c **** {
 402              		.loc 1 113 0
 403              		.cfi_startproc
 404              		@ args = 0, pretend = 0, frame = 8
 405              		@ frame_needed = 1, uses_anonymous_args = 0
 406              		@ link register save eliminated.
 407 0000 80B4     		push	{r7}
 408              		.cfi_def_cfa_offset 4
 409              		.cfi_offset 7, -4
 410 0002 83B0     		sub	sp, sp, #12
 411              		.cfi_def_cfa_offset 16
 412 0004 00AF     		add	r7, sp, #0
 413              		.cfi_def_cfa_register 7
 414 0006 0246     		mov	r2, r0
 415 0008 0B46     		mov	r3, r1
 416 000a FA71     		strb	r2, [r7, #7]
 417 000c BB71     		strb	r3, [r7, #6]
 114:.\my_camera_functions.c ****     if(Camera_framebuffer[y][x][0]<RED_U   && Camera_framebuffer[y][x][2]>=RED_V)  return RED;
 418              		.loc 1 114 0
 419 000e B979     		ldrb	r1, [r7, #6]	@ zero_extendqisi2
 420 0010 FA79     		ldrb	r2, [r7, #7]	@ zero_extendqisi2
 421 0012 2E4B     		ldr	r3, .L22
 422 0014 5820     		movs	r0, #88
 423 0016 00FB01F1 		mul	r1, r0, r1
 424 001a 0A44     		add	r2, r2, r1
 425 001c 13F82220 		ldrb	r2, [r3, r2, lsl #2]	@ zero_extendqisi2
 426 0020 2B4B     		ldr	r3, .L22+4
 427 0022 1B78     		ldrb	r3, [r3]	@ zero_extendqisi2
 428 0024 9A42     		cmp	r2, r3
 429 0026 0FD2     		bcs	.L18
 430              		.loc 1 114 0 is_stmt 0 discriminator 1
 431 0028 B979     		ldrb	r1, [r7, #6]	@ zero_extendqisi2
 432 002a FB79     		ldrb	r3, [r7, #7]	@ zero_extendqisi2
 433 002c 274A     		ldr	r2, .L22
 434 002e 5820     		movs	r0, #88
 435 0030 00FB01F1 		mul	r1, r0, r1
 436 0034 0B44     		add	r3, r3, r1
 437 0036 9B00     		lsls	r3, r3, #2
 438 0038 1344     		add	r3, r3, r2
 439 003a 9A78     		ldrb	r2, [r3, #2]	@ zero_extendqisi2
 440 003c 254B     		ldr	r3, .L22+8
 441 003e 1B78     		ldrb	r3, [r3]	@ zero_extendqisi2
 442 0040 9A42     		cmp	r2, r3
 443 0042 01D3     		bcc	.L18
ARM GAS  C:\Users\xavieran\AppData\Local\Temp\ccLmCtxQ.s 			page 11


 444 0044 0123     		movs	r3, #1
 445 0046 3AE0     		b	.L19
 446              	.L18:
 115:.\my_camera_functions.c ****     if(Camera_framebuffer[y][x][0]<GREEN_U && Camera_framebuffer[y][x][2]<GREEN_V) return GREEN;
 447              		.loc 1 115 0 is_stmt 1
 448 0048 B979     		ldrb	r1, [r7, #6]	@ zero_extendqisi2
 449 004a FA79     		ldrb	r2, [r7, #7]	@ zero_extendqisi2
 450 004c 1F4B     		ldr	r3, .L22
 451 004e 5820     		movs	r0, #88
 452 0050 00FB01F1 		mul	r1, r0, r1
 453 0054 0A44     		add	r2, r2, r1
 454 0056 13F82220 		ldrb	r2, [r3, r2, lsl #2]	@ zero_extendqisi2
 455 005a 1F4B     		ldr	r3, .L22+12
 456 005c 1B78     		ldrb	r3, [r3]	@ zero_extendqisi2
 457 005e 9A42     		cmp	r2, r3
 458 0060 0FD2     		bcs	.L20
 459              		.loc 1 115 0 is_stmt 0 discriminator 1
 460 0062 B979     		ldrb	r1, [r7, #6]	@ zero_extendqisi2
 461 0064 FB79     		ldrb	r3, [r7, #7]	@ zero_extendqisi2
 462 0066 194A     		ldr	r2, .L22
 463 0068 5820     		movs	r0, #88
 464 006a 00FB01F1 		mul	r1, r0, r1
 465 006e 0B44     		add	r3, r3, r1
 466 0070 9B00     		lsls	r3, r3, #2
 467 0072 1344     		add	r3, r3, r2
 468 0074 9A78     		ldrb	r2, [r3, #2]	@ zero_extendqisi2
 469 0076 194B     		ldr	r3, .L22+16
 470 0078 1B78     		ldrb	r3, [r3]	@ zero_extendqisi2
 471 007a 9A42     		cmp	r2, r3
 472 007c 01D2     		bcs	.L20
 473 007e 0223     		movs	r3, #2
 474 0080 1DE0     		b	.L19
 475              	.L20:
 116:.\my_camera_functions.c ****     if(Camera_framebuffer[y][x][0]>=BLUE_U && Camera_framebuffer[y][x][2]<BLUE_V)  return BLUE;
 476              		.loc 1 116 0 is_stmt 1
 477 0082 B979     		ldrb	r1, [r7, #6]	@ zero_extendqisi2
 478 0084 FA79     		ldrb	r2, [r7, #7]	@ zero_extendqisi2
 479 0086 114B     		ldr	r3, .L22
 480 0088 5820     		movs	r0, #88
 481 008a 00FB01F1 		mul	r1, r0, r1
 482 008e 0A44     		add	r2, r2, r1
 483 0090 13F82220 		ldrb	r2, [r3, r2, lsl #2]	@ zero_extendqisi2
 484 0094 124B     		ldr	r3, .L22+20
 485 0096 1B78     		ldrb	r3, [r3]	@ zero_extendqisi2
 486 0098 9A42     		cmp	r2, r3
 487 009a 0FD3     		bcc	.L21
 488              		.loc 1 116 0 is_stmt 0 discriminator 1
 489 009c B979     		ldrb	r1, [r7, #6]	@ zero_extendqisi2
 490 009e FB79     		ldrb	r3, [r7, #7]	@ zero_extendqisi2
 491 00a0 0A4A     		ldr	r2, .L22
 492 00a2 5820     		movs	r0, #88
 493 00a4 00FB01F1 		mul	r1, r0, r1
 494 00a8 0B44     		add	r3, r3, r1
 495 00aa 9B00     		lsls	r3, r3, #2
 496 00ac 1344     		add	r3, r3, r2
 497 00ae 9A78     		ldrb	r2, [r3, #2]	@ zero_extendqisi2
 498 00b0 0C4B     		ldr	r3, .L22+24
ARM GAS  C:\Users\xavieran\AppData\Local\Temp\ccLmCtxQ.s 			page 12


 499 00b2 1B78     		ldrb	r3, [r3]	@ zero_extendqisi2
 500 00b4 9A42     		cmp	r2, r3
 501 00b6 01D2     		bcs	.L21
 502 00b8 0323     		movs	r3, #3
 503 00ba 00E0     		b	.L19
 504              	.L21:
 117:.\my_camera_functions.c ****     return NONE;
 505              		.loc 1 117 0 is_stmt 1
 506 00bc 0023     		movs	r3, #0
 507              	.L19:
 118:.\my_camera_functions.c **** }
 508              		.loc 1 118 0
 509 00be 1846     		mov	r0, r3
 510 00c0 0C37     		adds	r7, r7, #12
 511 00c2 BD46     		mov	sp, r7
 512              		@ sp needed
 513 00c4 5DF8047B 		ldr	r7, [sp], #4
 514 00c8 7047     		bx	lr
 515              	.L23:
 516 00ca 00BF     		.align	2
 517              	.L22:
 518 00cc 00000000 		.word	Camera_framebuffer
 519 00d0 00000000 		.word	RED_U
 520 00d4 00000000 		.word	RED_V
 521 00d8 00000000 		.word	GREEN_U
 522 00dc 00000000 		.word	GREEN_V
 523 00e0 00000000 		.word	BLUE_U
 524 00e4 00000000 		.word	BLUE_V
 525              		.cfi_endproc
 526              	.LFE67:
 527              		.size	PixelColour, .-PixelColour
 528              		.section	.text.threshold_image,"ax",%progbits
 529              		.align	2
 530              		.global	threshold_image
 531              		.thumb
 532              		.thumb_func
 533              		.type	threshold_image, %function
 534              	threshold_image:
 535              	.LFB68:
 119:.\my_camera_functions.c **** 
 120:.\my_camera_functions.c **** 
 121:.\my_camera_functions.c **** 
 122:.\my_camera_functions.c **** //Camera_framebuffer[0][0] 
 123:.\my_camera_functions.c **** void threshold_image()
 124:.\my_camera_functions.c **** {
 536              		.loc 1 124 0
 537              		.cfi_startproc
 538              		@ args = 0, pretend = 0, frame = 32
 539              		@ frame_needed = 1, uses_anonymous_args = 0
 540 0000 80B5     		push	{r7, lr}
 541              		.cfi_def_cfa_offset 8
 542              		.cfi_offset 7, -8
 543              		.cfi_offset 14, -4
 544 0002 88B0     		sub	sp, sp, #32
 545              		.cfi_def_cfa_offset 40
 546 0004 00AF     		add	r7, sp, #0
 547              		.cfi_def_cfa_register 7
ARM GAS  C:\Users\xavieran\AppData\Local\Temp\ccLmCtxQ.s 			page 13


 125:.\my_camera_functions.c **** 	uint8 locals[8];
 126:.\my_camera_functions.c **** 	uint8 colours[4];
 127:.\my_camera_functions.c **** 	uint8 pixel;
 128:.\my_camera_functions.c ****     int y, x, i;
 129:.\my_camera_functions.c ****     
 130:.\my_camera_functions.c ****     
 131:.\my_camera_functions.c ****     
 132:.\my_camera_functions.c **** 	for(y = 0; y < 144; ++y)
 548              		.loc 1 132 0
 549 0006 0023     		movs	r3, #0
 550 0008 FB61     		str	r3, [r7, #28]
 551 000a 92E1     		b	.L25
 552              	.L39:
 133:.\my_camera_functions.c **** 	{
 134:.\my_camera_functions.c **** 		for(x = 0; x < 88; ++x)
 553              		.loc 1 134 0
 554 000c 0023     		movs	r3, #0
 555 000e BB61     		str	r3, [r7, #24]
 556 0010 88E1     		b	.L26
 557              	.L38:
 135:.\my_camera_functions.c **** 		{
 136:.\my_camera_functions.c ****             if(y == 0 || y == 143 || x == 0 || x == 87)
 558              		.loc 1 136 0
 559 0012 FB69     		ldr	r3, [r7, #28]
 560 0014 002B     		cmp	r3, #0
 561 0016 08D0     		beq	.L27
 562              		.loc 1 136 0 is_stmt 0 discriminator 1
 563 0018 FB69     		ldr	r3, [r7, #28]
 564 001a 8F2B     		cmp	r3, #143
 565 001c 05D0     		beq	.L27
 566 001e BB69     		ldr	r3, [r7, #24]
 567 0020 002B     		cmp	r3, #0
 568 0022 02D0     		beq	.L27
 569 0024 BB69     		ldr	r3, [r7, #24]
 570 0026 572B     		cmp	r3, #87
 571 0028 2BD1     		bne	.L28
 572              	.L27:
 137:.\my_camera_functions.c ****             {
 138:.\my_camera_functions.c ****                 Camera_framebuffer[y][x][0] = 127;       
 573              		.loc 1 138 0 is_stmt 1
 574 002a 9E4B     		ldr	r3, .L40
 575 002c FA69     		ldr	r2, [r7, #28]
 576 002e 5821     		movs	r1, #88
 577 0030 01FB02F1 		mul	r1, r1, r2
 578 0034 BA69     		ldr	r2, [r7, #24]
 579 0036 0A44     		add	r2, r2, r1
 580 0038 7F21     		movs	r1, #127
 581 003a 03F82210 		strb	r1, [r3, r2, lsl #2]
 139:.\my_camera_functions.c ****                 Camera_framebuffer[y][x][2] = 127;
 582              		.loc 1 139 0
 583 003e 994A     		ldr	r2, .L40
 584 0040 FB69     		ldr	r3, [r7, #28]
 585 0042 5821     		movs	r1, #88
 586 0044 01FB03F1 		mul	r1, r1, r3
 587 0048 BB69     		ldr	r3, [r7, #24]
 588 004a 0B44     		add	r3, r3, r1
 589 004c 9B00     		lsls	r3, r3, #2
ARM GAS  C:\Users\xavieran\AppData\Local\Temp\ccLmCtxQ.s 			page 14


 590 004e 1344     		add	r3, r3, r2
 591 0050 7F22     		movs	r2, #127
 592 0052 9A70     		strb	r2, [r3, #2]
 140:.\my_camera_functions.c ****                 Camera_framebuffer[y][x][1] = 0;
 593              		.loc 1 140 0
 594 0054 934A     		ldr	r2, .L40
 595 0056 FB69     		ldr	r3, [r7, #28]
 596 0058 5821     		movs	r1, #88
 597 005a 01FB03F1 		mul	r1, r1, r3
 598 005e BB69     		ldr	r3, [r7, #24]
 599 0060 0B44     		add	r3, r3, r1
 600 0062 9B00     		lsls	r3, r3, #2
 601 0064 1344     		add	r3, r3, r2
 602 0066 0022     		movs	r2, #0
 603 0068 5A70     		strb	r2, [r3, #1]
 141:.\my_camera_functions.c ****                 Camera_framebuffer[y][x][3] = 0;
 604              		.loc 1 141 0
 605 006a 8E4A     		ldr	r2, .L40
 606 006c FB69     		ldr	r3, [r7, #28]
 607 006e 5821     		movs	r1, #88
 608 0070 01FB03F1 		mul	r1, r1, r3
 609 0074 BB69     		ldr	r3, [r7, #24]
 610 0076 0B44     		add	r3, r3, r1
 611 0078 9B00     		lsls	r3, r3, #2
 612 007a 1344     		add	r3, r3, r2
 613 007c 0022     		movs	r2, #0
 614 007e DA70     		strb	r2, [r3, #3]
 615 0080 4DE1     		b	.L29
 616              	.L28:
 142:.\my_camera_functions.c ****             }
 143:.\my_camera_functions.c ****             else
 144:.\my_camera_functions.c ****             {
 145:.\my_camera_functions.c **** 			    locals[0] = PixelColour(x-1,y-1);
 617              		.loc 1 145 0
 618 0082 BB69     		ldr	r3, [r7, #24]
 619 0084 DBB2     		uxtb	r3, r3
 620 0086 013B     		subs	r3, r3, #1
 621 0088 DAB2     		uxtb	r2, r3
 622 008a FB69     		ldr	r3, [r7, #28]
 623 008c DBB2     		uxtb	r3, r3
 624 008e 013B     		subs	r3, r3, #1
 625 0090 DBB2     		uxtb	r3, r3
 626 0092 1046     		mov	r0, r2
 627 0094 1946     		mov	r1, r3
 628 0096 FFF7FEFF 		bl	PixelColour
 629 009a 0346     		mov	r3, r0
 630 009c 3B72     		strb	r3, [r7, #8]
 146:.\my_camera_functions.c **** 			    locals[1] = PixelColour(x-1,y);
 631              		.loc 1 146 0
 632 009e BB69     		ldr	r3, [r7, #24]
 633 00a0 DBB2     		uxtb	r3, r3
 634 00a2 013B     		subs	r3, r3, #1
 635 00a4 DAB2     		uxtb	r2, r3
 636 00a6 FB69     		ldr	r3, [r7, #28]
 637 00a8 DBB2     		uxtb	r3, r3
 638 00aa 1046     		mov	r0, r2
 639 00ac 1946     		mov	r1, r3
ARM GAS  C:\Users\xavieran\AppData\Local\Temp\ccLmCtxQ.s 			page 15


 640 00ae FFF7FEFF 		bl	PixelColour
 641 00b2 0346     		mov	r3, r0
 642 00b4 7B72     		strb	r3, [r7, #9]
 147:.\my_camera_functions.c **** 			    locals[2] = PixelColour(x-1,y+1);
 643              		.loc 1 147 0
 644 00b6 BB69     		ldr	r3, [r7, #24]
 645 00b8 DBB2     		uxtb	r3, r3
 646 00ba 013B     		subs	r3, r3, #1
 647 00bc DAB2     		uxtb	r2, r3
 648 00be FB69     		ldr	r3, [r7, #28]
 649 00c0 DBB2     		uxtb	r3, r3
 650 00c2 0133     		adds	r3, r3, #1
 651 00c4 DBB2     		uxtb	r3, r3
 652 00c6 1046     		mov	r0, r2
 653 00c8 1946     		mov	r1, r3
 654 00ca FFF7FEFF 		bl	PixelColour
 655 00ce 0346     		mov	r3, r0
 656 00d0 BB72     		strb	r3, [r7, #10]
 148:.\my_camera_functions.c **** 			    locals[3] = PixelColour(x,y-1);
 657              		.loc 1 148 0
 658 00d2 BB69     		ldr	r3, [r7, #24]
 659 00d4 DAB2     		uxtb	r2, r3
 660 00d6 FB69     		ldr	r3, [r7, #28]
 661 00d8 DBB2     		uxtb	r3, r3
 662 00da 013B     		subs	r3, r3, #1
 663 00dc DBB2     		uxtb	r3, r3
 664 00de 1046     		mov	r0, r2
 665 00e0 1946     		mov	r1, r3
 666 00e2 FFF7FEFF 		bl	PixelColour
 667 00e6 0346     		mov	r3, r0
 668 00e8 FB72     		strb	r3, [r7, #11]
 149:.\my_camera_functions.c **** 			    locals[4] = PixelColour(x,y+1);
 669              		.loc 1 149 0
 670 00ea BB69     		ldr	r3, [r7, #24]
 671 00ec DAB2     		uxtb	r2, r3
 672 00ee FB69     		ldr	r3, [r7, #28]
 673 00f0 DBB2     		uxtb	r3, r3
 674 00f2 0133     		adds	r3, r3, #1
 675 00f4 DBB2     		uxtb	r3, r3
 676 00f6 1046     		mov	r0, r2
 677 00f8 1946     		mov	r1, r3
 678 00fa FFF7FEFF 		bl	PixelColour
 679 00fe 0346     		mov	r3, r0
 680 0100 3B73     		strb	r3, [r7, #12]
 150:.\my_camera_functions.c **** 			    locals[5] = PixelColour(x+1,y-1);
 681              		.loc 1 150 0
 682 0102 BB69     		ldr	r3, [r7, #24]
 683 0104 DBB2     		uxtb	r3, r3
 684 0106 0133     		adds	r3, r3, #1
 685 0108 DAB2     		uxtb	r2, r3
 686 010a FB69     		ldr	r3, [r7, #28]
 687 010c DBB2     		uxtb	r3, r3
 688 010e 013B     		subs	r3, r3, #1
 689 0110 DBB2     		uxtb	r3, r3
 690 0112 1046     		mov	r0, r2
 691 0114 1946     		mov	r1, r3
 692 0116 FFF7FEFF 		bl	PixelColour
ARM GAS  C:\Users\xavieran\AppData\Local\Temp\ccLmCtxQ.s 			page 16


 693 011a 0346     		mov	r3, r0
 694 011c 7B73     		strb	r3, [r7, #13]
 151:.\my_camera_functions.c **** 			    locals[6] = PixelColour(x+1,y);
 695              		.loc 1 151 0
 696 011e BB69     		ldr	r3, [r7, #24]
 697 0120 DBB2     		uxtb	r3, r3
 698 0122 0133     		adds	r3, r3, #1
 699 0124 DAB2     		uxtb	r2, r3
 700 0126 FB69     		ldr	r3, [r7, #28]
 701 0128 DBB2     		uxtb	r3, r3
 702 012a 1046     		mov	r0, r2
 703 012c 1946     		mov	r1, r3
 704 012e FFF7FEFF 		bl	PixelColour
 705 0132 0346     		mov	r3, r0
 706 0134 BB73     		strb	r3, [r7, #14]
 152:.\my_camera_functions.c **** 			    locals[7] = PixelColour(x+1,y+1);
 707              		.loc 1 152 0
 708 0136 BB69     		ldr	r3, [r7, #24]
 709 0138 DBB2     		uxtb	r3, r3
 710 013a 0133     		adds	r3, r3, #1
 711 013c DAB2     		uxtb	r2, r3
 712 013e FB69     		ldr	r3, [r7, #28]
 713 0140 DBB2     		uxtb	r3, r3
 714 0142 0133     		adds	r3, r3, #1
 715 0144 DBB2     		uxtb	r3, r3
 716 0146 1046     		mov	r0, r2
 717 0148 1946     		mov	r1, r3
 718 014a FFF7FEFF 		bl	PixelColour
 719 014e 0346     		mov	r3, r0
 720 0150 FB73     		strb	r3, [r7, #15]
 153:.\my_camera_functions.c **** 			    for(i = 0; i < 8; ++i)
 721              		.loc 1 153 0
 722 0152 0023     		movs	r3, #0
 723 0154 7B61     		str	r3, [r7, #20]
 724 0156 3AE0     		b	.L30
 725              	.L31:
 154:.\my_camera_functions.c ****     			{
 155:.\my_camera_functions.c **** 	    			colours[0] += locals[i] == NONE;
 726              		.loc 1 155 0 discriminator 2
 727 0158 3A79     		ldrb	r2, [r7, #4]	@ zero_extendqisi2
 728 015a 07F10801 		add	r1, r7, #8
 729 015e 7B69     		ldr	r3, [r7, #20]
 730 0160 0B44     		add	r3, r3, r1
 731 0162 1B78     		ldrb	r3, [r3]	@ zero_extendqisi2
 732 0164 002B     		cmp	r3, #0
 733 0166 14BF     		ite	ne
 734 0168 0023     		movne	r3, #0
 735 016a 0123     		moveq	r3, #1
 736 016c DBB2     		uxtb	r3, r3
 737 016e 1344     		add	r3, r3, r2
 738 0170 DBB2     		uxtb	r3, r3
 739 0172 3B71     		strb	r3, [r7, #4]
 156:.\my_camera_functions.c **** 		    		colours[1] += locals[i] == RED;
 740              		.loc 1 156 0 discriminator 2
 741 0174 7A79     		ldrb	r2, [r7, #5]	@ zero_extendqisi2
 742 0176 07F10801 		add	r1, r7, #8
 743 017a 7B69     		ldr	r3, [r7, #20]
ARM GAS  C:\Users\xavieran\AppData\Local\Temp\ccLmCtxQ.s 			page 17


 744 017c 0B44     		add	r3, r3, r1
 745 017e 1B78     		ldrb	r3, [r3]	@ zero_extendqisi2
 746 0180 012B     		cmp	r3, #1
 747 0182 14BF     		ite	ne
 748 0184 0023     		movne	r3, #0
 749 0186 0123     		moveq	r3, #1
 750 0188 DBB2     		uxtb	r3, r3
 751 018a 1344     		add	r3, r3, r2
 752 018c DBB2     		uxtb	r3, r3
 753 018e 7B71     		strb	r3, [r7, #5]
 157:.\my_camera_functions.c **** 			    	colours[2] += locals[i] == GREEN;
 754              		.loc 1 157 0 discriminator 2
 755 0190 BA79     		ldrb	r2, [r7, #6]	@ zero_extendqisi2
 756 0192 07F10801 		add	r1, r7, #8
 757 0196 7B69     		ldr	r3, [r7, #20]
 758 0198 0B44     		add	r3, r3, r1
 759 019a 1B78     		ldrb	r3, [r3]	@ zero_extendqisi2
 760 019c 022B     		cmp	r3, #2
 761 019e 14BF     		ite	ne
 762 01a0 0023     		movne	r3, #0
 763 01a2 0123     		moveq	r3, #1
 764 01a4 DBB2     		uxtb	r3, r3
 765 01a6 1344     		add	r3, r3, r2
 766 01a8 DBB2     		uxtb	r3, r3
 767 01aa BB71     		strb	r3, [r7, #6]
 158:.\my_camera_functions.c **** 				    colours[3] += locals[i] == BLUE;
 768              		.loc 1 158 0 discriminator 2
 769 01ac FA79     		ldrb	r2, [r7, #7]	@ zero_extendqisi2
 770 01ae 07F10801 		add	r1, r7, #8
 771 01b2 7B69     		ldr	r3, [r7, #20]
 772 01b4 0B44     		add	r3, r3, r1
 773 01b6 1B78     		ldrb	r3, [r3]	@ zero_extendqisi2
 774 01b8 032B     		cmp	r3, #3
 775 01ba 14BF     		ite	ne
 776 01bc 0023     		movne	r3, #0
 777 01be 0123     		moveq	r3, #1
 778 01c0 DBB2     		uxtb	r3, r3
 779 01c2 1344     		add	r3, r3, r2
 780 01c4 DBB2     		uxtb	r3, r3
 781 01c6 FB71     		strb	r3, [r7, #7]
 153:.\my_camera_functions.c **** 			    for(i = 0; i < 8; ++i)
 782              		.loc 1 153 0 discriminator 2
 783 01c8 7B69     		ldr	r3, [r7, #20]
 784 01ca 0133     		adds	r3, r3, #1
 785 01cc 7B61     		str	r3, [r7, #20]
 786              	.L30:
 153:.\my_camera_functions.c **** 			    for(i = 0; i < 8; ++i)
 787              		.loc 1 153 0 is_stmt 0 discriminator 1
 788 01ce 7B69     		ldr	r3, [r7, #20]
 789 01d0 072B     		cmp	r3, #7
 790 01d2 C1DD     		ble	.L31
 159:.\my_camera_functions.c ****     			}
 160:.\my_camera_functions.c ****                 Camera_framebuffer[y][x][1] = 127;
 791              		.loc 1 160 0 is_stmt 1
 792 01d4 334A     		ldr	r2, .L40
 793 01d6 FB69     		ldr	r3, [r7, #28]
 794 01d8 5821     		movs	r1, #88
ARM GAS  C:\Users\xavieran\AppData\Local\Temp\ccLmCtxQ.s 			page 18


 795 01da 01FB03F1 		mul	r1, r1, r3
 796 01de BB69     		ldr	r3, [r7, #24]
 797 01e0 0B44     		add	r3, r3, r1
 798 01e2 9B00     		lsls	r3, r3, #2
 799 01e4 1344     		add	r3, r3, r2
 800 01e6 7F22     		movs	r2, #127
 801 01e8 5A70     		strb	r2, [r3, #1]
 161:.\my_camera_functions.c ****                 Camera_framebuffer[y][x][3] = 127;
 802              		.loc 1 161 0
 803 01ea 2E4A     		ldr	r2, .L40
 804 01ec FB69     		ldr	r3, [r7, #28]
 805 01ee 5821     		movs	r1, #88
 806 01f0 01FB03F1 		mul	r1, r1, r3
 807 01f4 BB69     		ldr	r3, [r7, #24]
 808 01f6 0B44     		add	r3, r3, r1
 809 01f8 9B00     		lsls	r3, r3, #2
 810 01fa 1344     		add	r3, r3, r2
 811 01fc 7F22     		movs	r2, #127
 812 01fe DA70     		strb	r2, [r3, #3]
 162:.\my_camera_functions.c **** 			    if(colours[1] >= 4)
 813              		.loc 1 162 0
 814 0200 7B79     		ldrb	r3, [r7, #5]	@ zero_extendqisi2
 815 0202 032B     		cmp	r3, #3
 816 0204 17D9     		bls	.L32
 163:.\my_camera_functions.c **** 			    {
 164:.\my_camera_functions.c **** 				    pixel = RED;
 817              		.loc 1 164 0
 818 0206 0123     		movs	r3, #1
 819 0208 FB74     		strb	r3, [r7, #19]
 165:.\my_camera_functions.c **** 				    Camera_framebuffer[y][x][0] = 0;
 820              		.loc 1 165 0
 821 020a 264B     		ldr	r3, .L40
 822 020c FA69     		ldr	r2, [r7, #28]
 823 020e 5821     		movs	r1, #88
 824 0210 01FB02F1 		mul	r1, r1, r2
 825 0214 BA69     		ldr	r2, [r7, #24]
 826 0216 0A44     		add	r2, r2, r1
 827 0218 0021     		movs	r1, #0
 828 021a 03F82210 		strb	r1, [r3, r2, lsl #2]
 166:.\my_camera_functions.c ****     				Camera_framebuffer[y][x][2] = 255;
 829              		.loc 1 166 0
 830 021e 214A     		ldr	r2, .L40
 831 0220 FB69     		ldr	r3, [r7, #28]
 832 0222 5821     		movs	r1, #88
 833 0224 01FB03F1 		mul	r1, r1, r3
 834 0228 BB69     		ldr	r3, [r7, #24]
 835 022a 0B44     		add	r3, r3, r1
 836 022c 9B00     		lsls	r3, r3, #2
 837 022e 1344     		add	r3, r3, r2
 838 0230 FF22     		movs	r2, #255
 839 0232 9A70     		strb	r2, [r3, #2]
 840 0234 65E0     		b	.L33
 841              	.L32:
 167:.\my_camera_functions.c ****                 }
 168:.\my_camera_functions.c **** 		    	else if(colours[2] >= 4)
 842              		.loc 1 168 0
 843 0236 BB79     		ldrb	r3, [r7, #6]	@ zero_extendqisi2
ARM GAS  C:\Users\xavieran\AppData\Local\Temp\ccLmCtxQ.s 			page 19


 844 0238 032B     		cmp	r3, #3
 845 023a 17D9     		bls	.L34
 169:.\my_camera_functions.c ****     			{
 170:.\my_camera_functions.c **** 	    			pixel = GREEN;
 846              		.loc 1 170 0
 847 023c 0223     		movs	r3, #2
 848 023e FB74     		strb	r3, [r7, #19]
 171:.\my_camera_functions.c **** 		    		Camera_framebuffer[y][x][0] = 0;
 849              		.loc 1 171 0
 850 0240 184B     		ldr	r3, .L40
 851 0242 FA69     		ldr	r2, [r7, #28]
 852 0244 5821     		movs	r1, #88
 853 0246 01FB02F1 		mul	r1, r1, r2
 854 024a BA69     		ldr	r2, [r7, #24]
 855 024c 0A44     		add	r2, r2, r1
 856 024e 0021     		movs	r1, #0
 857 0250 03F82210 		strb	r1, [r3, r2, lsl #2]
 172:.\my_camera_functions.c **** 			    	Camera_framebuffer[y][x][2] = 0;
 858              		.loc 1 172 0
 859 0254 134A     		ldr	r2, .L40
 860 0256 FB69     		ldr	r3, [r7, #28]
 861 0258 5821     		movs	r1, #88
 862 025a 01FB03F1 		mul	r1, r1, r3
 863 025e BB69     		ldr	r3, [r7, #24]
 864 0260 0B44     		add	r3, r3, r1
 865 0262 9B00     		lsls	r3, r3, #2
 866 0264 1344     		add	r3, r3, r2
 867 0266 0022     		movs	r2, #0
 868 0268 9A70     		strb	r2, [r3, #2]
 869 026a 4AE0     		b	.L33
 870              	.L34:
 173:.\my_camera_functions.c **** 	    		}
 174:.\my_camera_functions.c **** 			    else if(colours[3] >= 4)
 871              		.loc 1 174 0
 872 026c FB79     		ldrb	r3, [r7, #7]	@ zero_extendqisi2
 873 026e 032B     		cmp	r3, #3
 874 0270 1AD9     		bls	.L35
 175:.\my_camera_functions.c **** 			    {
 176:.\my_camera_functions.c ****     				pixel = BLUE;
 875              		.loc 1 176 0
 876 0272 0323     		movs	r3, #3
 877 0274 FB74     		strb	r3, [r7, #19]
 177:.\my_camera_functions.c **** 	    			Camera_framebuffer[y][x][0] = 255;
 878              		.loc 1 177 0
 879 0276 0B4B     		ldr	r3, .L40
 880 0278 FA69     		ldr	r2, [r7, #28]
 881 027a 5821     		movs	r1, #88
 882 027c 01FB02F1 		mul	r1, r1, r2
 883 0280 BA69     		ldr	r2, [r7, #24]
 884 0282 0A44     		add	r2, r2, r1
 885 0284 FF21     		movs	r1, #255
 886 0286 03F82210 		strb	r1, [r3, r2, lsl #2]
 178:.\my_camera_functions.c **** 		    		Camera_framebuffer[y][x][2] = 0;
 887              		.loc 1 178 0
 888 028a 064A     		ldr	r2, .L40
 889 028c FB69     		ldr	r3, [r7, #28]
 890 028e 5821     		movs	r1, #88
ARM GAS  C:\Users\xavieran\AppData\Local\Temp\ccLmCtxQ.s 			page 20


 891 0290 01FB03F1 		mul	r1, r1, r3
 892 0294 BB69     		ldr	r3, [r7, #24]
 893 0296 0B44     		add	r3, r3, r1
 894 0298 9B00     		lsls	r3, r3, #2
 895 029a 1344     		add	r3, r3, r2
 896 029c 0022     		movs	r2, #0
 897 029e 9A70     		strb	r2, [r3, #2]
 898 02a0 2FE0     		b	.L33
 899              	.L41:
 900 02a2 00BF     		.align	2
 901              	.L40:
 902 02a4 00000000 		.word	Camera_framebuffer
 903              	.L35:
 179:.\my_camera_functions.c **** 			    }
 180:.\my_camera_functions.c ****     			else //if(colours[0] >= colours[1] && colours[0] >= colours[2] && colours[0] >= colours[3])
 181:.\my_camera_functions.c **** 	    		{
 182:.\my_camera_functions.c **** 		    		pixel = NONE;
 904              		.loc 1 182 0
 905 02a8 0023     		movs	r3, #0
 906 02aa FB74     		strb	r3, [r7, #19]
 183:.\my_camera_functions.c **** 			    	Camera_framebuffer[y][x][0] = 127;
 907              		.loc 1 183 0
 908 02ac 244B     		ldr	r3, .L42
 909 02ae FA69     		ldr	r2, [r7, #28]
 910 02b0 5821     		movs	r1, #88
 911 02b2 01FB02F1 		mul	r1, r1, r2
 912 02b6 BA69     		ldr	r2, [r7, #24]
 913 02b8 0A44     		add	r2, r2, r1
 914 02ba 7F21     		movs	r1, #127
 915 02bc 03F82210 		strb	r1, [r3, r2, lsl #2]
 184:.\my_camera_functions.c **** 				    Camera_framebuffer[y][x][2] = 127;
 916              		.loc 1 184 0
 917 02c0 1F4A     		ldr	r2, .L42
 918 02c2 FB69     		ldr	r3, [r7, #28]
 919 02c4 5821     		movs	r1, #88
 920 02c6 01FB03F1 		mul	r1, r1, r3
 921 02ca BB69     		ldr	r3, [r7, #24]
 922 02cc 0B44     		add	r3, r3, r1
 923 02ce 9B00     		lsls	r3, r3, #2
 924 02d0 1344     		add	r3, r3, r2
 925 02d2 7F22     		movs	r2, #127
 926 02d4 9A70     		strb	r2, [r3, #2]
 185:.\my_camera_functions.c ****                     Camera_framebuffer[y][x][1] = 0;
 927              		.loc 1 185 0
 928 02d6 1A4A     		ldr	r2, .L42
 929 02d8 FB69     		ldr	r3, [r7, #28]
 930 02da 5821     		movs	r1, #88
 931 02dc 01FB03F1 		mul	r1, r1, r3
 932 02e0 BB69     		ldr	r3, [r7, #24]
 933 02e2 0B44     		add	r3, r3, r1
 934 02e4 9B00     		lsls	r3, r3, #2
 935 02e6 1344     		add	r3, r3, r2
 936 02e8 0022     		movs	r2, #0
 937 02ea 5A70     		strb	r2, [r3, #1]
 186:.\my_camera_functions.c ****                     Camera_framebuffer[y][x][3] = 0;
 938              		.loc 1 186 0
 939 02ec 144A     		ldr	r2, .L42
ARM GAS  C:\Users\xavieran\AppData\Local\Temp\ccLmCtxQ.s 			page 21


 940 02ee FB69     		ldr	r3, [r7, #28]
 941 02f0 5821     		movs	r1, #88
 942 02f2 01FB03F1 		mul	r1, r1, r3
 943 02f6 BB69     		ldr	r3, [r7, #24]
 944 02f8 0B44     		add	r3, r3, r1
 945 02fa 9B00     		lsls	r3, r3, #2
 946 02fc 1344     		add	r3, r3, r2
 947 02fe 0022     		movs	r2, #0
 948 0300 DA70     		strb	r2, [r3, #3]
 949              	.L33:
 187:.\my_camera_functions.c **** 		    	}
 188:.\my_camera_functions.c **** 			    for(i = 0; i < 8; ++i)
 950              		.loc 1 188 0
 951 0302 0023     		movs	r3, #0
 952 0304 7B61     		str	r3, [r7, #20]
 953 0306 07E0     		b	.L36
 954              	.L37:
 189:.\my_camera_functions.c **** 			    {
 190:.\my_camera_functions.c ****     				colours[i] = 0;
 955              		.loc 1 190 0 discriminator 2
 956 0308 3A1D     		adds	r2, r7, #4
 957 030a 7B69     		ldr	r3, [r7, #20]
 958 030c 1344     		add	r3, r3, r2
 959 030e 0022     		movs	r2, #0
 960 0310 1A70     		strb	r2, [r3]
 188:.\my_camera_functions.c **** 			    for(i = 0; i < 8; ++i)
 961              		.loc 1 188 0 discriminator 2
 962 0312 7B69     		ldr	r3, [r7, #20]
 963 0314 0133     		adds	r3, r3, #1
 964 0316 7B61     		str	r3, [r7, #20]
 965              	.L36:
 188:.\my_camera_functions.c **** 			    for(i = 0; i < 8; ++i)
 966              		.loc 1 188 0 is_stmt 0 discriminator 1
 967 0318 7B69     		ldr	r3, [r7, #20]
 968 031a 072B     		cmp	r3, #7
 969 031c F4DD     		ble	.L37
 970              	.L29:
 134:.\my_camera_functions.c **** 		for(x = 0; x < 88; ++x)
 971              		.loc 1 134 0 is_stmt 1
 972 031e BB69     		ldr	r3, [r7, #24]
 973 0320 0133     		adds	r3, r3, #1
 974 0322 BB61     		str	r3, [r7, #24]
 975              	.L26:
 134:.\my_camera_functions.c **** 		for(x = 0; x < 88; ++x)
 976              		.loc 1 134 0 is_stmt 0 discriminator 1
 977 0324 BB69     		ldr	r3, [r7, #24]
 978 0326 572B     		cmp	r3, #87
 979 0328 7FF773AE 		ble	.L38
 132:.\my_camera_functions.c **** 	for(y = 0; y < 144; ++y)
 980              		.loc 1 132 0 is_stmt 1
 981 032c FB69     		ldr	r3, [r7, #28]
 982 032e 0133     		adds	r3, r3, #1
 983 0330 FB61     		str	r3, [r7, #28]
 984              	.L25:
 132:.\my_camera_functions.c **** 	for(y = 0; y < 144; ++y)
 985              		.loc 1 132 0 is_stmt 0 discriminator 1
 986 0332 FB69     		ldr	r3, [r7, #28]
ARM GAS  C:\Users\xavieran\AppData\Local\Temp\ccLmCtxQ.s 			page 22


 987 0334 8F2B     		cmp	r3, #143
 988 0336 7FF769AE 		ble	.L39
 191:.\my_camera_functions.c **** 			    } 
 192:.\my_camera_functions.c ****             }
 193:.\my_camera_functions.c **** 		}
 194:.\my_camera_functions.c **** 	}
 195:.\my_camera_functions.c **** }
 989              		.loc 1 195 0 is_stmt 1
 990 033a 2037     		adds	r7, r7, #32
 991 033c BD46     		mov	sp, r7
 992              		@ sp needed
 993 033e 80BD     		pop	{r7, pc}
 994              	.L43:
 995              		.align	2
 996              	.L42:
 997 0340 00000000 		.word	Camera_framebuffer
 998              		.cfi_endproc
 999              	.LFE68:
 1000              		.size	threshold_image, .-threshold_image
 1001              		.global	__aeabi_i2f
 1002              		.global	__aeabi_fmul
 1003              		.global	__aeabi_fcmpge
 1004              		.section	.text.clean_frame,"ax",%progbits
 1005              		.align	2
 1006              		.global	clean_frame
 1007              		.thumb
 1008              		.thumb_func
 1009              		.type	clean_frame, %function
 1010              	clean_frame:
 1011              	.LFB69:
 196:.\my_camera_functions.c **** 
 197:.\my_camera_functions.c **** 
 198:.\my_camera_functions.c **** void clean_frame(int colour, float proportion, int row_limit)
 199:.\my_camera_functions.c **** {
 1012              		.loc 1 199 0
 1013              		.cfi_startproc
 1014              		@ args = 0, pretend = 0, frame = 32
 1015              		@ frame_needed = 1, uses_anonymous_args = 0
 1016 0000 90B5     		push	{r4, r7, lr}
 1017              		.cfi_def_cfa_offset 12
 1018              		.cfi_offset 4, -12
 1019              		.cfi_offset 7, -8
 1020              		.cfi_offset 14, -4
 1021 0002 89B0     		sub	sp, sp, #36
 1022              		.cfi_def_cfa_offset 48
 1023 0004 00AF     		add	r7, sp, #0
 1024              		.cfi_def_cfa_register 7
 1025 0006 F860     		str	r0, [r7, #12]
 1026 0008 B960     		str	r1, [r7, #8]	@ float
 1027 000a 7A60     		str	r2, [r7, #4]
 200:.\my_camera_functions.c ****     int y,x,count,index = 0;
 1028              		.loc 1 200 0
 1029 000c 0023     		movs	r3, #0
 1030 000e 3B61     		str	r3, [r7, #16]
 201:.\my_camera_functions.c ****     for(y = 0; y <= row_limit; y++)
 1031              		.loc 1 201 0
 1032 0010 0023     		movs	r3, #0
ARM GAS  C:\Users\xavieran\AppData\Local\Temp\ccLmCtxQ.s 			page 23


 1033 0012 FB61     		str	r3, [r7, #28]
 1034 0014 2FE0     		b	.L45
 1035              	.L51:
 202:.\my_camera_functions.c ****     {
 203:.\my_camera_functions.c ****         count = 0;
 1036              		.loc 1 203 0
 1037 0016 0023     		movs	r3, #0
 1038 0018 7B61     		str	r3, [r7, #20]
 204:.\my_camera_functions.c ****         for(x = 0; x < 88; x++)
 1039              		.loc 1 204 0
 1040 001a 0023     		movs	r3, #0
 1041 001c BB61     		str	r3, [r7, #24]
 1042 001e 12E0     		b	.L46
 1043              	.L48:
 205:.\my_camera_functions.c ****         {
 206:.\my_camera_functions.c ****             if(PixelColour(x,y) == colour)
 1044              		.loc 1 206 0
 1045 0020 BB69     		ldr	r3, [r7, #24]
 1046 0022 DAB2     		uxtb	r2, r3
 1047 0024 FB69     		ldr	r3, [r7, #28]
 1048 0026 DBB2     		uxtb	r3, r3
 1049 0028 1046     		mov	r0, r2
 1050 002a 1946     		mov	r1, r3
 1051 002c FFF7FEFF 		bl	PixelColour
 1052 0030 0346     		mov	r3, r0
 1053 0032 1A46     		mov	r2, r3
 1054 0034 FB68     		ldr	r3, [r7, #12]
 1055 0036 9A42     		cmp	r2, r3
 1056 0038 02D1     		bne	.L47
 207:.\my_camera_functions.c ****             {
 208:.\my_camera_functions.c ****                 count++;
 1057              		.loc 1 208 0
 1058 003a 7B69     		ldr	r3, [r7, #20]
 1059 003c 0133     		adds	r3, r3, #1
 1060 003e 7B61     		str	r3, [r7, #20]
 1061              	.L47:
 204:.\my_camera_functions.c ****         for(x = 0; x < 88; x++)
 1062              		.loc 1 204 0
 1063 0040 BB69     		ldr	r3, [r7, #24]
 1064 0042 0133     		adds	r3, r3, #1
 1065 0044 BB61     		str	r3, [r7, #24]
 1066              	.L46:
 204:.\my_camera_functions.c ****         for(x = 0; x < 88; x++)
 1067              		.loc 1 204 0 is_stmt 0 discriminator 1
 1068 0046 BB69     		ldr	r3, [r7, #24]
 1069 0048 572B     		cmp	r3, #87
 1070 004a E9DD     		ble	.L48
 209:.\my_camera_functions.c ****             }
 210:.\my_camera_functions.c ****         }
 211:.\my_camera_functions.c ****         if(count >= proportion*88)
 1071              		.loc 1 211 0 is_stmt 1
 1072 004c 7869     		ldr	r0, [r7, #20]
 1073 004e FFF7FEFF 		bl	__aeabi_i2f
 1074 0052 0446     		mov	r4, r0
 1075 0054 B868     		ldr	r0, [r7, #8]	@ float
 1076 0056 3149     		ldr	r1, .L58
 1077 0058 FFF7FEFF 		bl	__aeabi_fmul
ARM GAS  C:\Users\xavieran\AppData\Local\Temp\ccLmCtxQ.s 			page 24


 1078 005c 0346     		mov	r3, r0
 1079 005e 2046     		mov	r0, r4
 1080 0060 1946     		mov	r1, r3
 1081 0062 FFF7FEFF 		bl	__aeabi_fcmpge
 1082 0066 0346     		mov	r3, r0
 1083 0068 002B     		cmp	r3, #0
 1084 006a 01D0     		beq	.L49
 212:.\my_camera_functions.c ****         {
 213:.\my_camera_functions.c ****             index = y;
 1085              		.loc 1 213 0
 1086 006c FB69     		ldr	r3, [r7, #28]
 1087 006e 3B61     		str	r3, [r7, #16]
 1088              	.L49:
 201:.\my_camera_functions.c ****     for(y = 0; y <= row_limit; y++)
 1089              		.loc 1 201 0
 1090 0070 FB69     		ldr	r3, [r7, #28]
 1091 0072 0133     		adds	r3, r3, #1
 1092 0074 FB61     		str	r3, [r7, #28]
 1093              	.L45:
 201:.\my_camera_functions.c ****     for(y = 0; y <= row_limit; y++)
 1094              		.loc 1 201 0 is_stmt 0 discriminator 1
 1095 0076 FA69     		ldr	r2, [r7, #28]
 1096 0078 7B68     		ldr	r3, [r7, #4]
 1097 007a 9A42     		cmp	r2, r3
 1098 007c CBDD     		ble	.L51
 214:.\my_camera_functions.c ****         }
 215:.\my_camera_functions.c ****     }
 216:.\my_camera_functions.c ****     for(y = 0; y <= index; y++)
 1099              		.loc 1 216 0 is_stmt 1
 1100 007e 0023     		movs	r3, #0
 1101 0080 FB61     		str	r3, [r7, #28]
 1102 0082 43E0     		b	.L52
 1103              	.L56:
 217:.\my_camera_functions.c ****     {
 218:.\my_camera_functions.c ****         for(x = 0; x < 88; x++)
 1104              		.loc 1 218 0
 1105 0084 0023     		movs	r3, #0
 1106 0086 BB61     		str	r3, [r7, #24]
 1107 0088 3AE0     		b	.L53
 1108              	.L55:
 219:.\my_camera_functions.c ****             {
 220:.\my_camera_functions.c ****                 if(PixelColour(x,y) == colour)
 1109              		.loc 1 220 0
 1110 008a BB69     		ldr	r3, [r7, #24]
 1111 008c DAB2     		uxtb	r2, r3
 1112 008e FB69     		ldr	r3, [r7, #28]
 1113 0090 DBB2     		uxtb	r3, r3
 1114 0092 1046     		mov	r0, r2
 1115 0094 1946     		mov	r1, r3
 1116 0096 FFF7FEFF 		bl	PixelColour
 1117 009a 0346     		mov	r3, r0
 1118 009c 1A46     		mov	r2, r3
 1119 009e FB68     		ldr	r3, [r7, #12]
 1120 00a0 9A42     		cmp	r2, r3
 1121 00a2 2AD1     		bne	.L54
 221:.\my_camera_functions.c ****                 {
 222:.\my_camera_functions.c ****                     Camera_framebuffer[y][x][0] = 127;
ARM GAS  C:\Users\xavieran\AppData\Local\Temp\ccLmCtxQ.s 			page 25


 1122              		.loc 1 222 0
 1123 00a4 1E4B     		ldr	r3, .L58+4
 1124 00a6 FA69     		ldr	r2, [r7, #28]
 1125 00a8 5821     		movs	r1, #88
 1126 00aa 01FB02F1 		mul	r1, r1, r2
 1127 00ae BA69     		ldr	r2, [r7, #24]
 1128 00b0 0A44     		add	r2, r2, r1
 1129 00b2 7F21     		movs	r1, #127
 1130 00b4 03F82210 		strb	r1, [r3, r2, lsl #2]
 223:.\my_camera_functions.c **** 			        Camera_framebuffer[y][x][2] = 127;
 1131              		.loc 1 223 0
 1132 00b8 194A     		ldr	r2, .L58+4
 1133 00ba FB69     		ldr	r3, [r7, #28]
 1134 00bc 5821     		movs	r1, #88
 1135 00be 01FB03F1 		mul	r1, r1, r3
 1136 00c2 BB69     		ldr	r3, [r7, #24]
 1137 00c4 0B44     		add	r3, r3, r1
 1138 00c6 9B00     		lsls	r3, r3, #2
 1139 00c8 1344     		add	r3, r3, r2
 1140 00ca 7F22     		movs	r2, #127
 1141 00cc 9A70     		strb	r2, [r3, #2]
 224:.\my_camera_functions.c ****                     Camera_framebuffer[y][x][1] = 0;
 1142              		.loc 1 224 0
 1143 00ce 144A     		ldr	r2, .L58+4
 1144 00d0 FB69     		ldr	r3, [r7, #28]
 1145 00d2 5821     		movs	r1, #88
 1146 00d4 01FB03F1 		mul	r1, r1, r3
 1147 00d8 BB69     		ldr	r3, [r7, #24]
 1148 00da 0B44     		add	r3, r3, r1
 1149 00dc 9B00     		lsls	r3, r3, #2
 1150 00de 1344     		add	r3, r3, r2
 1151 00e0 0022     		movs	r2, #0
 1152 00e2 5A70     		strb	r2, [r3, #1]
 225:.\my_camera_functions.c ****                     Camera_framebuffer[y][x][3] = 0;
 1153              		.loc 1 225 0
 1154 00e4 0E4A     		ldr	r2, .L58+4
 1155 00e6 FB69     		ldr	r3, [r7, #28]
 1156 00e8 5821     		movs	r1, #88
 1157 00ea 01FB03F1 		mul	r1, r1, r3
 1158 00ee BB69     		ldr	r3, [r7, #24]
 1159 00f0 0B44     		add	r3, r3, r1
 1160 00f2 9B00     		lsls	r3, r3, #2
 1161 00f4 1344     		add	r3, r3, r2
 1162 00f6 0022     		movs	r2, #0
 1163 00f8 DA70     		strb	r2, [r3, #3]
 1164              	.L54:
 218:.\my_camera_functions.c ****         for(x = 0; x < 88; x++)
 1165              		.loc 1 218 0
 1166 00fa BB69     		ldr	r3, [r7, #24]
 1167 00fc 0133     		adds	r3, r3, #1
 1168 00fe BB61     		str	r3, [r7, #24]
 1169              	.L53:
 218:.\my_camera_functions.c ****         for(x = 0; x < 88; x++)
 1170              		.loc 1 218 0 is_stmt 0 discriminator 1
 1171 0100 BB69     		ldr	r3, [r7, #24]
 1172 0102 572B     		cmp	r3, #87
 1173 0104 C1DD     		ble	.L55
ARM GAS  C:\Users\xavieran\AppData\Local\Temp\ccLmCtxQ.s 			page 26


 216:.\my_camera_functions.c ****     for(y = 0; y <= index; y++)
 1174              		.loc 1 216 0 is_stmt 1
 1175 0106 FB69     		ldr	r3, [r7, #28]
 1176 0108 0133     		adds	r3, r3, #1
 1177 010a FB61     		str	r3, [r7, #28]
 1178              	.L52:
 216:.\my_camera_functions.c ****     for(y = 0; y <= index; y++)
 1179              		.loc 1 216 0 is_stmt 0 discriminator 1
 1180 010c FA69     		ldr	r2, [r7, #28]
 1181 010e 3B69     		ldr	r3, [r7, #16]
 1182 0110 9A42     		cmp	r2, r3
 1183 0112 B7DD     		ble	.L56
 226:.\my_camera_functions.c ****                 }
 227:.\my_camera_functions.c ****             }
 228:.\my_camera_functions.c ****     }
 229:.\my_camera_functions.c **** }
 1184              		.loc 1 229 0 is_stmt 1
 1185 0114 2437     		adds	r7, r7, #36
 1186 0116 BD46     		mov	sp, r7
 1187              		@ sp needed
 1188 0118 90BD     		pop	{r4, r7, pc}
 1189              	.L59:
 1190 011a 00BF     		.align	2
 1191              	.L58:
 1192 011c 0000B042 		.word	1118830592
 1193 0120 00000000 		.word	Camera_framebuffer
 1194              		.cfi_endproc
 1195              	.LFE69:
 1196              		.size	clean_frame, .-clean_frame
 1197              		.section	.text.identify_colour_instructions,"ax",%progbits
 1198              		.align	2
 1199              		.global	identify_colour_instructions
 1200              		.thumb
 1201              		.thumb_func
 1202              		.type	identify_colour_instructions, %function
 1203              	identify_colour_instructions:
 1204              	.LFB70:
 230:.\my_camera_functions.c **** 
 231:.\my_camera_functions.c **** 
 232:.\my_camera_functions.c **** int identify_colour_instructions(int size)
 233:.\my_camera_functions.c **** {
 1205              		.loc 1 233 0
 1206              		.cfi_startproc
 1207              		@ args = 0, pretend = 0, frame = 16
 1208              		@ frame_needed = 1, uses_anonymous_args = 0
 1209              		@ link register save eliminated.
 1210 0000 80B4     		push	{r7}
 1211              		.cfi_def_cfa_offset 4
 1212              		.cfi_offset 7, -4
 1213 0002 85B0     		sub	sp, sp, #20
 1214              		.cfi_def_cfa_offset 24
 1215 0004 00AF     		add	r7, sp, #0
 1216              		.cfi_def_cfa_register 7
 1217 0006 7860     		str	r0, [r7, #4]
 234:.\my_camera_functions.c ****     int x = -1;
 1218              		.loc 1 234 0
 1219 0008 4FF0FF33 		mov	r3, #-1
ARM GAS  C:\Users\xavieran\AppData\Local\Temp\ccLmCtxQ.s 			page 27


 1220 000c FB60     		str	r3, [r7, #12]
 235:.\my_camera_functions.c ****     if(blobs[0].size >= size)
 1221              		.loc 1 235 0
 1222 000e 084B     		ldr	r3, .L63
 1223 0010 1B68     		ldr	r3, [r3]
 1224 0012 5A68     		ldr	r2, [r3, #4]
 1225 0014 7B68     		ldr	r3, [r7, #4]
 1226 0016 9A42     		cmp	r2, r3
 1227 0018 03D3     		bcc	.L61
 236:.\my_camera_functions.c ****     {
 237:.\my_camera_functions.c ****         x = blobs[0].colour;
 1228              		.loc 1 237 0
 1229 001a 054B     		ldr	r3, .L63
 1230 001c 1B68     		ldr	r3, [r3]
 1231 001e 1B68     		ldr	r3, [r3]
 1232 0020 FB60     		str	r3, [r7, #12]
 1233              	.L61:
 238:.\my_camera_functions.c ****     }
 239:.\my_camera_functions.c ****     return x;
 1234              		.loc 1 239 0
 1235 0022 FB68     		ldr	r3, [r7, #12]
 240:.\my_camera_functions.c ****     //PixelColour(88/2,144/2);
 241:.\my_camera_functions.c **** }
 1236              		.loc 1 241 0
 1237 0024 1846     		mov	r0, r3
 1238 0026 1437     		adds	r7, r7, #20
 1239 0028 BD46     		mov	sp, r7
 1240              		@ sp needed
 1241 002a 5DF8047B 		ldr	r7, [sp], #4
 1242 002e 7047     		bx	lr
 1243              	.L64:
 1244              		.align	2
 1245              	.L63:
 1246 0030 00000000 		.word	blobs
 1247              		.cfi_endproc
 1248              	.LFE70:
 1249              		.size	identify_colour_instructions, .-identify_colour_instructions
 1250              		.section	.text.identify_colour_gripper,"ax",%progbits
 1251              		.align	2
 1252              		.global	identify_colour_gripper
 1253              		.thumb
 1254              		.thumb_func
 1255              		.type	identify_colour_gripper, %function
 1256              	identify_colour_gripper:
 1257              	.LFB71:
 242:.\my_camera_functions.c **** 
 243:.\my_camera_functions.c **** int identify_colour_gripper()
 244:.\my_camera_functions.c **** {
 1258              		.loc 1 244 0
 1259              		.cfi_startproc
 1260              		@ args = 0, pretend = 0, frame = 0
 1261              		@ frame_needed = 1, uses_anonymous_args = 0
 1262 0000 80B5     		push	{r7, lr}
 1263              		.cfi_def_cfa_offset 8
 1264              		.cfi_offset 7, -8
 1265              		.cfi_offset 14, -4
 1266 0002 00AF     		add	r7, sp, #0
ARM GAS  C:\Users\xavieran\AppData\Local\Temp\ccLmCtxQ.s 			page 28


 1267              		.cfi_def_cfa_register 7
 245:.\my_camera_functions.c ****      return PixelColour(88/2,144);  
 1268              		.loc 1 245 0
 1269 0004 2C20     		movs	r0, #44
 1270 0006 9021     		movs	r1, #144
 1271 0008 FFF7FEFF 		bl	PixelColour
 1272 000c 0346     		mov	r3, r0
 246:.\my_camera_functions.c **** }
 1273              		.loc 1 246 0
 1274 000e 1846     		mov	r0, r3
 1275 0010 80BD     		pop	{r7, pc}
 1276              		.cfi_endproc
 1277              	.LFE71:
 1278              		.size	identify_colour_gripper, .-identify_colour_gripper
 1279 0012 00BF     		.section	.text.PixelLuminence,"ax",%progbits
 1280              		.align	2
 1281              		.global	PixelLuminence
 1282              		.thumb
 1283              		.thumb_func
 1284              		.type	PixelLuminence, %function
 1285              	PixelLuminence:
 1286              	.LFB72:
 247:.\my_camera_functions.c **** 
 248:.\my_camera_functions.c **** 
 249:.\my_camera_functions.c **** int PixelLuminence(int x, int y)
 250:.\my_camera_functions.c **** {
 1287              		.loc 1 250 0
 1288              		.cfi_startproc
 1289              		@ args = 0, pretend = 0, frame = 8
 1290              		@ frame_needed = 1, uses_anonymous_args = 0
 1291              		@ link register save eliminated.
 1292 0000 80B4     		push	{r7}
 1293              		.cfi_def_cfa_offset 4
 1294              		.cfi_offset 7, -4
 1295 0002 83B0     		sub	sp, sp, #12
 1296              		.cfi_def_cfa_offset 16
 1297 0004 00AF     		add	r7, sp, #0
 1298              		.cfi_def_cfa_register 7
 1299 0006 7860     		str	r0, [r7, #4]
 1300 0008 3960     		str	r1, [r7]
 251:.\my_camera_functions.c **** 	return (Camera_framebuffer[y][x][1] > 127) && (Camera_framebuffer[y][x][3] > 127);
 1301              		.loc 1 251 0
 1302 000a 124A     		ldr	r2, .L71
 1303 000c 3B68     		ldr	r3, [r7]
 1304 000e 5821     		movs	r1, #88
 1305 0010 01FB03F1 		mul	r1, r1, r3
 1306 0014 7B68     		ldr	r3, [r7, #4]
 1307 0016 0B44     		add	r3, r3, r1
 1308 0018 9B00     		lsls	r3, r3, #2
 1309 001a 1344     		add	r3, r3, r2
 1310 001c 5B78     		ldrb	r3, [r3, #1]	@ zero_extendqisi2
 1311 001e DBB2     		uxtb	r3, r3
 1312 0020 5BB2     		sxtb	r3, r3
 1313 0022 002B     		cmp	r3, #0
 1314 0024 0FDA     		bge	.L68
 1315              		.loc 1 251 0 is_stmt 0 discriminator 1
 1316 0026 0B4A     		ldr	r2, .L71
ARM GAS  C:\Users\xavieran\AppData\Local\Temp\ccLmCtxQ.s 			page 29


 1317 0028 3B68     		ldr	r3, [r7]
 1318 002a 5821     		movs	r1, #88
 1319 002c 01FB03F1 		mul	r1, r1, r3
 1320 0030 7B68     		ldr	r3, [r7, #4]
 1321 0032 0B44     		add	r3, r3, r1
 1322 0034 9B00     		lsls	r3, r3, #2
 1323 0036 1344     		add	r3, r3, r2
 1324 0038 DB78     		ldrb	r3, [r3, #3]	@ zero_extendqisi2
 1325 003a DBB2     		uxtb	r3, r3
 1326 003c 5BB2     		sxtb	r3, r3
 1327 003e 002B     		cmp	r3, #0
 1328 0040 01DA     		bge	.L68
 1329              		.loc 1 251 0 discriminator 3
 1330 0042 0123     		movs	r3, #1
 1331 0044 00E0     		b	.L69
 1332              	.L68:
 1333              		.loc 1 251 0 discriminator 2
 1334 0046 0023     		movs	r3, #0
 1335              	.L69:
 252:.\my_camera_functions.c **** } 
 1336              		.loc 1 252 0 is_stmt 1 discriminator 4
 1337 0048 1846     		mov	r0, r3
 1338 004a 0C37     		adds	r7, r7, #12
 1339 004c BD46     		mov	sp, r7
 1340              		@ sp needed
 1341 004e 5DF8047B 		ldr	r7, [sp], #4
 1342 0052 7047     		bx	lr
 1343              	.L72:
 1344              		.align	2
 1345              	.L71:
 1346 0054 00000000 		.word	Camera_framebuffer
 1347              		.cfi_endproc
 1348              	.LFE72:
 1349              		.size	PixelLuminence, .-PixelLuminence
 1350              		.section	.text.threshold_black,"ax",%progbits
 1351              		.align	2
 1352              		.global	threshold_black
 1353              		.thumb
 1354              		.thumb_func
 1355              		.type	threshold_black, %function
 1356              	threshold_black:
 1357              	.LFB73:
 253:.\my_camera_functions.c **** 
 254:.\my_camera_functions.c **** 
 255:.\my_camera_functions.c **** void threshold_black()
 256:.\my_camera_functions.c **** {
 1358              		.loc 1 256 0
 1359              		.cfi_startproc
 1360              		@ args = 0, pretend = 0, frame = 16
 1361              		@ frame_needed = 1, uses_anonymous_args = 0
 1362 0000 80B5     		push	{r7, lr}
 1363              		.cfi_def_cfa_offset 8
 1364              		.cfi_offset 7, -8
 1365              		.cfi_offset 14, -4
 1366 0002 84B0     		sub	sp, sp, #16
 1367              		.cfi_def_cfa_offset 24
 1368 0004 00AF     		add	r7, sp, #0
ARM GAS  C:\Users\xavieran\AppData\Local\Temp\ccLmCtxQ.s 			page 30


 1369              		.cfi_def_cfa_register 7
 257:.\my_camera_functions.c **** 	int y,x,k,i;
 258:.\my_camera_functions.c **** 	for(y = 0; y < 144; y++)
 1370              		.loc 1 258 0
 1371 0006 0023     		movs	r3, #0
 1372 0008 FB60     		str	r3, [r7, #12]
 1373 000a BBE0     		b	.L74
 1374              	.L84:
 259:.\my_camera_functions.c **** 	{
 260:.\my_camera_functions.c **** 		for(x = 0; x < 88; x++)
 1375              		.loc 1 260 0
 1376 000c 0023     		movs	r3, #0
 1377 000e BB60     		str	r3, [r7, #8]
 1378 0010 B1E0     		b	.L75
 1379              	.L83:
 261:.\my_camera_functions.c **** 		{
 262:.\my_camera_functions.c **** 			k = 0;
 1380              		.loc 1 262 0
 1381 0012 0023     		movs	r3, #0
 1382 0014 3B60     		str	r3, [r7]
 263:.\my_camera_functions.c **** 			if(y == 0 || y == 143 || x == 0 || x == 143)
 1383              		.loc 1 263 0
 1384 0016 FB68     		ldr	r3, [r7, #12]
 1385 0018 002B     		cmp	r3, #0
 1386 001a 08D0     		beq	.L76
 1387              		.loc 1 263 0 is_stmt 0 discriminator 1
 1388 001c FB68     		ldr	r3, [r7, #12]
 1389 001e 8F2B     		cmp	r3, #143
 1390 0020 05D0     		beq	.L76
 1391 0022 BB68     		ldr	r3, [r7, #8]
 1392 0024 002B     		cmp	r3, #0
 1393 0026 02D0     		beq	.L76
 1394 0028 BB68     		ldr	r3, [r7, #8]
 1395 002a 8F2B     		cmp	r3, #143
 1396 002c 24D1     		bne	.L77
 1397              	.L76:
 264:.\my_camera_functions.c **** 			{
 265:.\my_camera_functions.c **** 				for(i = 0; i < 2; i++)
 1398              		.loc 1 265 0 is_stmt 1
 1399 002e 0023     		movs	r3, #0
 1400 0030 7B60     		str	r3, [r7, #4]
 1401 0032 1DE0     		b	.L78
 1402              	.L79:
 266:.\my_camera_functions.c **** 				{
 267:.\my_camera_functions.c **** 					Camera_framebuffer[y][x][i] = 127;
 1403              		.loc 1 267 0 discriminator 2
 1404 0034 574A     		ldr	r2, .L85
 1405 0036 FB68     		ldr	r3, [r7, #12]
 1406 0038 5821     		movs	r1, #88
 1407 003a 01FB03F1 		mul	r1, r1, r3
 1408 003e BB68     		ldr	r3, [r7, #8]
 1409 0040 0B44     		add	r3, r3, r1
 1410 0042 9900     		lsls	r1, r3, #2
 1411 0044 7B68     		ldr	r3, [r7, #4]
 1412 0046 0B44     		add	r3, r3, r1
 1413 0048 1344     		add	r3, r3, r2
 1414 004a 7F22     		movs	r2, #127
ARM GAS  C:\Users\xavieran\AppData\Local\Temp\ccLmCtxQ.s 			page 31


 1415 004c 1A70     		strb	r2, [r3]
 268:.\my_camera_functions.c ****                     Camera_framebuffer[y][x][i+1] = 255;
 1416              		.loc 1 268 0 discriminator 2
 1417 004e 7B68     		ldr	r3, [r7, #4]
 1418 0050 0133     		adds	r3, r3, #1
 1419 0052 504A     		ldr	r2, .L85
 1420 0054 F968     		ldr	r1, [r7, #12]
 1421 0056 5820     		movs	r0, #88
 1422 0058 00FB01F0 		mul	r0, r0, r1
 1423 005c B968     		ldr	r1, [r7, #8]
 1424 005e 0144     		add	r1, r1, r0
 1425 0060 8900     		lsls	r1, r1, #2
 1426 0062 0B44     		add	r3, r3, r1
 1427 0064 1344     		add	r3, r3, r2
 1428 0066 FF22     		movs	r2, #255
 1429 0068 1A70     		strb	r2, [r3]
 265:.\my_camera_functions.c **** 				for(i = 0; i < 2; i++)
 1430              		.loc 1 265 0 discriminator 2
 1431 006a 7B68     		ldr	r3, [r7, #4]
 1432 006c 0133     		adds	r3, r3, #1
 1433 006e 7B60     		str	r3, [r7, #4]
 1434              	.L78:
 265:.\my_camera_functions.c **** 				for(i = 0; i < 2; i++)
 1435              		.loc 1 265 0 is_stmt 0 discriminator 1
 1436 0070 7B68     		ldr	r3, [r7, #4]
 1437 0072 012B     		cmp	r3, #1
 1438 0074 DEDD     		ble	.L79
 263:.\my_camera_functions.c **** 			if(y == 0 || y == 143 || x == 0 || x == 143)
 1439              		.loc 1 263 0 is_stmt 1
 1440 0076 57E0     		b	.L80
 1441              	.L77:
 269:.\my_camera_functions.c **** 				}
 270:.\my_camera_functions.c ****             }
 271:.\my_camera_functions.c **** 			else
 272:.\my_camera_functions.c ****             {
 273:.\my_camera_functions.c **** 		    	k += PixelLuminence(x-1,y-1);
 1442              		.loc 1 273 0
 1443 0078 BB68     		ldr	r3, [r7, #8]
 1444 007a 5A1E     		subs	r2, r3, #1
 1445 007c FB68     		ldr	r3, [r7, #12]
 1446 007e 013B     		subs	r3, r3, #1
 1447 0080 1046     		mov	r0, r2
 1448 0082 1946     		mov	r1, r3
 1449 0084 FFF7FEFF 		bl	PixelLuminence
 1450 0088 0346     		mov	r3, r0
 1451 008a 3A68     		ldr	r2, [r7]
 1452 008c 1344     		add	r3, r3, r2
 1453 008e 3B60     		str	r3, [r7]
 274:.\my_camera_functions.c **** 		    	k += PixelLuminence(x-1,y);
 1454              		.loc 1 274 0
 1455 0090 BB68     		ldr	r3, [r7, #8]
 1456 0092 013B     		subs	r3, r3, #1
 1457 0094 1846     		mov	r0, r3
 1458 0096 F968     		ldr	r1, [r7, #12]
 1459 0098 FFF7FEFF 		bl	PixelLuminence
 1460 009c 0346     		mov	r3, r0
 1461 009e 3A68     		ldr	r2, [r7]
ARM GAS  C:\Users\xavieran\AppData\Local\Temp\ccLmCtxQ.s 			page 32


 1462 00a0 1344     		add	r3, r3, r2
 1463 00a2 3B60     		str	r3, [r7]
 275:.\my_camera_functions.c **** 		    	k += PixelLuminence(x-1,y+1);
 1464              		.loc 1 275 0
 1465 00a4 BB68     		ldr	r3, [r7, #8]
 1466 00a6 5A1E     		subs	r2, r3, #1
 1467 00a8 FB68     		ldr	r3, [r7, #12]
 1468 00aa 0133     		adds	r3, r3, #1
 1469 00ac 1046     		mov	r0, r2
 1470 00ae 1946     		mov	r1, r3
 1471 00b0 FFF7FEFF 		bl	PixelLuminence
 1472 00b4 0346     		mov	r3, r0
 1473 00b6 3A68     		ldr	r2, [r7]
 1474 00b8 1344     		add	r3, r3, r2
 1475 00ba 3B60     		str	r3, [r7]
 276:.\my_camera_functions.c **** 		    	k += PixelLuminence(x,y-1);
 1476              		.loc 1 276 0
 1477 00bc FB68     		ldr	r3, [r7, #12]
 1478 00be 013B     		subs	r3, r3, #1
 1479 00c0 B868     		ldr	r0, [r7, #8]
 1480 00c2 1946     		mov	r1, r3
 1481 00c4 FFF7FEFF 		bl	PixelLuminence
 1482 00c8 0346     		mov	r3, r0
 1483 00ca 3A68     		ldr	r2, [r7]
 1484 00cc 1344     		add	r3, r3, r2
 1485 00ce 3B60     		str	r3, [r7]
 277:.\my_camera_functions.c **** 			   	k += PixelLuminence(x,y+1);
 1486              		.loc 1 277 0
 1487 00d0 FB68     		ldr	r3, [r7, #12]
 1488 00d2 0133     		adds	r3, r3, #1
 1489 00d4 B868     		ldr	r0, [r7, #8]
 1490 00d6 1946     		mov	r1, r3
 1491 00d8 FFF7FEFF 		bl	PixelLuminence
 1492 00dc 0346     		mov	r3, r0
 1493 00de 3A68     		ldr	r2, [r7]
 1494 00e0 1344     		add	r3, r3, r2
 1495 00e2 3B60     		str	r3, [r7]
 278:.\my_camera_functions.c **** 			   	k += PixelLuminence(x+1,y-1);
 1496              		.loc 1 278 0
 1497 00e4 BB68     		ldr	r3, [r7, #8]
 1498 00e6 5A1C     		adds	r2, r3, #1
 1499 00e8 FB68     		ldr	r3, [r7, #12]
 1500 00ea 013B     		subs	r3, r3, #1
 1501 00ec 1046     		mov	r0, r2
 1502 00ee 1946     		mov	r1, r3
 1503 00f0 FFF7FEFF 		bl	PixelLuminence
 1504 00f4 0346     		mov	r3, r0
 1505 00f6 3A68     		ldr	r2, [r7]
 1506 00f8 1344     		add	r3, r3, r2
 1507 00fa 3B60     		str	r3, [r7]
 279:.\my_camera_functions.c **** 			   	k += PixelLuminence(x+1,y);
 1508              		.loc 1 279 0
 1509 00fc BB68     		ldr	r3, [r7, #8]
 1510 00fe 0133     		adds	r3, r3, #1
 1511 0100 1846     		mov	r0, r3
 1512 0102 F968     		ldr	r1, [r7, #12]
 1513 0104 FFF7FEFF 		bl	PixelLuminence
ARM GAS  C:\Users\xavieran\AppData\Local\Temp\ccLmCtxQ.s 			page 33


 1514 0108 0346     		mov	r3, r0
 1515 010a 3A68     		ldr	r2, [r7]
 1516 010c 1344     		add	r3, r3, r2
 1517 010e 3B60     		str	r3, [r7]
 280:.\my_camera_functions.c **** 			   	k += PixelLuminence(x+1,y+1);
 1518              		.loc 1 280 0
 1519 0110 BB68     		ldr	r3, [r7, #8]
 1520 0112 5A1C     		adds	r2, r3, #1
 1521 0114 FB68     		ldr	r3, [r7, #12]
 1522 0116 0133     		adds	r3, r3, #1
 1523 0118 1046     		mov	r0, r2
 1524 011a 1946     		mov	r1, r3
 1525 011c FFF7FEFF 		bl	PixelLuminence
 1526 0120 0346     		mov	r3, r0
 1527 0122 3A68     		ldr	r2, [r7]
 1528 0124 1344     		add	r3, r3, r2
 1529 0126 3B60     		str	r3, [r7]
 1530              	.L80:
 281:.\my_camera_functions.c **** 			}
 282:.\my_camera_functions.c **** 			for(i = 0; i < 2; i++)
 1531              		.loc 1 282 0
 1532 0128 0023     		movs	r3, #0
 1533 012a 7B60     		str	r3, [r7, #4]
 1534 012c 1DE0     		b	.L81
 1535              	.L82:
 283:.\my_camera_functions.c **** 			{
 284:.\my_camera_functions.c ****                 Camera_framebuffer[y][x][i] = 127;
 1536              		.loc 1 284 0 discriminator 2
 1537 012e 194A     		ldr	r2, .L85
 1538 0130 FB68     		ldr	r3, [r7, #12]
 1539 0132 5821     		movs	r1, #88
 1540 0134 01FB03F1 		mul	r1, r1, r3
 1541 0138 BB68     		ldr	r3, [r7, #8]
 1542 013a 0B44     		add	r3, r3, r1
 1543 013c 9900     		lsls	r1, r3, #2
 1544 013e 7B68     		ldr	r3, [r7, #4]
 1545 0140 0B44     		add	r3, r3, r1
 1546 0142 1344     		add	r3, r3, r2
 1547 0144 7F22     		movs	r2, #127
 1548 0146 1A70     		strb	r2, [r3]
 285:.\my_camera_functions.c **** 				Camera_framebuffer[y][x][i+1] = 0;
 1549              		.loc 1 285 0 discriminator 2
 1550 0148 7B68     		ldr	r3, [r7, #4]
 1551 014a 0133     		adds	r3, r3, #1
 1552 014c 114A     		ldr	r2, .L85
 1553 014e F968     		ldr	r1, [r7, #12]
 1554 0150 5820     		movs	r0, #88
 1555 0152 00FB01F0 		mul	r0, r0, r1
 1556 0156 B968     		ldr	r1, [r7, #8]
 1557 0158 0144     		add	r1, r1, r0
 1558 015a 8900     		lsls	r1, r1, #2
 1559 015c 0B44     		add	r3, r3, r1
 1560 015e 1344     		add	r3, r3, r2
 1561 0160 0022     		movs	r2, #0
 1562 0162 1A70     		strb	r2, [r3]
 282:.\my_camera_functions.c **** 			for(i = 0; i < 2; i++)
 1563              		.loc 1 282 0 discriminator 2
ARM GAS  C:\Users\xavieran\AppData\Local\Temp\ccLmCtxQ.s 			page 34


 1564 0164 7B68     		ldr	r3, [r7, #4]
 1565 0166 0133     		adds	r3, r3, #1
 1566 0168 7B60     		str	r3, [r7, #4]
 1567              	.L81:
 282:.\my_camera_functions.c **** 			for(i = 0; i < 2; i++)
 1568              		.loc 1 282 0 is_stmt 0 discriminator 1
 1569 016a 7B68     		ldr	r3, [r7, #4]
 1570 016c 012B     		cmp	r3, #1
 1571 016e DEDD     		ble	.L82
 260:.\my_camera_functions.c **** 		for(x = 0; x < 88; x++)
 1572              		.loc 1 260 0 is_stmt 1
 1573 0170 BB68     		ldr	r3, [r7, #8]
 1574 0172 0133     		adds	r3, r3, #1
 1575 0174 BB60     		str	r3, [r7, #8]
 1576              	.L75:
 260:.\my_camera_functions.c **** 		for(x = 0; x < 88; x++)
 1577              		.loc 1 260 0 is_stmt 0 discriminator 1
 1578 0176 BB68     		ldr	r3, [r7, #8]
 1579 0178 572B     		cmp	r3, #87
 1580 017a 7FF74AAF 		ble	.L83
 258:.\my_camera_functions.c **** 	for(y = 0; y < 144; y++)
 1581              		.loc 1 258 0 is_stmt 1
 1582 017e FB68     		ldr	r3, [r7, #12]
 1583 0180 0133     		adds	r3, r3, #1
 1584 0182 FB60     		str	r3, [r7, #12]
 1585              	.L74:
 258:.\my_camera_functions.c **** 	for(y = 0; y < 144; y++)
 1586              		.loc 1 258 0 is_stmt 0 discriminator 1
 1587 0184 FB68     		ldr	r3, [r7, #12]
 1588 0186 8F2B     		cmp	r3, #143
 1589 0188 7FF740AF 		ble	.L84
 286:.\my_camera_functions.c **** 			}
 287:.\my_camera_functions.c **** 		}
 288:.\my_camera_functions.c **** 	}
 289:.\my_camera_functions.c **** }
 1590              		.loc 1 289 0 is_stmt 1
 1591 018c 1037     		adds	r7, r7, #16
 1592 018e BD46     		mov	sp, r7
 1593              		@ sp needed
 1594 0190 80BD     		pop	{r7, pc}
 1595              	.L86:
 1596 0192 00BF     		.align	2
 1597              	.L85:
 1598 0194 00000000 		.word	Camera_framebuffer
 1599              		.cfi_endproc
 1600              	.LFE73:
 1601              		.size	threshold_black, .-threshold_black
 1602              		.section	.rodata
 1603 0041 000000   		.align	2
 1604              	.LC5:
 1605 0044 233A2564 		.ascii	"#:%d R:%d G:%d B:%d\000"
 1605      20523A25 
 1605      6420473A 
 1605      25642042 
 1605      3A256400 
 1606              		.align	2
 1607              	.LC6:
ARM GAS  C:\Users\xavieran\AppData\Local\Temp\ccLmCtxQ.s 			page 35


 1608 0058 42433A25 		.ascii	"BC:%c R:%c G:%c B:%c\000"
 1608      6320523A 
 1608      25632047 
 1608      3A256320 
 1608      423A2563 
 1609 006d 000000   		.align	2
 1610              	.LC4:
 1611 0070 4B524742 		.ascii	"KRGB\000"
 1611      00
 1612 0075 000000   		.section	.text.image_stuff4,"ax",%progbits
 1613              		.align	2
 1614              		.global	image_stuff4
 1615              		.thumb
 1616              		.thumb_func
 1617              		.type	image_stuff4, %function
 1618              	image_stuff4:
 1619              	.LFB74:
 290:.\my_camera_functions.c **** 
 291:.\my_camera_functions.c **** 
 292:.\my_camera_functions.c **** void image_stuff4()
 293:.\my_camera_functions.c **** {
 1620              		.loc 1 293 0
 1621              		.cfi_startproc
 1622              		@ args = 0, pretend = 0, frame = 56
 1623              		@ frame_needed = 1, uses_anonymous_args = 0
 1624 0000 F0B5     		push	{r4, r5, r6, r7, lr}
 1625              		.cfi_def_cfa_offset 20
 1626              		.cfi_offset 4, -20
 1627              		.cfi_offset 5, -16
 1628              		.cfi_offset 6, -12
 1629              		.cfi_offset 7, -8
 1630              		.cfi_offset 14, -4
 1631 0002 91B0     		sub	sp, sp, #68
 1632              		.cfi_def_cfa_offset 88
 1633 0004 02AF     		add	r7, sp, #8
 1634              		.cfi_def_cfa 7, 80
 294:.\my_camera_functions.c ****     int x, i;
 295:.\my_camera_functions.c ****     char j,k,l,display[2][20],RGB[]="KRGB";
 1635              		.loc 1 295 0
 1636 0006 5D4A     		ldr	r2, .L100
 1637 0008 3B46     		mov	r3, r7
 1638 000a 92E80300 		ldmia	r2, {r0, r1}
 1639 000e 1860     		str	r0, [r3]
 1640 0010 0433     		adds	r3, r3, #4
 1641 0012 1970     		strb	r1, [r3]
 296:.\my_camera_functions.c ****     //capture_thresh_image();
 297:.\my_camera_functions.c ****     x = to_nearest_blob(BLUE,30,12);
 1642              		.loc 1 297 0
 1643 0014 0320     		movs	r0, #3
 1644 0016 1E21     		movs	r1, #30
 1645 0018 0C22     		movs	r2, #12
 1646 001a FFF7FEFF 		bl	to_nearest_blob
 1647 001e 3863     		str	r0, [r7, #48]
 298:.\my_camera_functions.c ****     if(x < -2)
 1648              		.loc 1 298 0
 1649 0020 3B6B     		ldr	r3, [r7, #48]
 1650 0022 13F1020F 		cmn	r3, #2
ARM GAS  C:\Users\xavieran\AppData\Local\Temp\ccLmCtxQ.s 			page 36


 1651 0026 03DA     		bge	.L88
 299:.\my_camera_functions.c ****     {
 300:.\my_camera_functions.c ****         j = 'L';
 1652              		.loc 1 300 0
 1653 0028 4C23     		movs	r3, #76
 1654 002a 87F83730 		strb	r3, [r7, #55]
 1655 002e 11E0     		b	.L89
 1656              	.L88:
 301:.\my_camera_functions.c ****     }
 302:.\my_camera_functions.c ****     else if(x > 2)
 1657              		.loc 1 302 0
 1658 0030 3B6B     		ldr	r3, [r7, #48]
 1659 0032 022B     		cmp	r3, #2
 1660 0034 03DD     		ble	.L90
 303:.\my_camera_functions.c ****     {
 304:.\my_camera_functions.c ****         j = 'R';
 1661              		.loc 1 304 0
 1662 0036 5223     		movs	r3, #82
 1663 0038 87F83730 		strb	r3, [r7, #55]
 1664 003c 0AE0     		b	.L89
 1665              	.L90:
 305:.\my_camera_functions.c ****     }
 306:.\my_camera_functions.c ****     else if(x == -1)
 1666              		.loc 1 306 0
 1667 003e 3B6B     		ldr	r3, [r7, #48]
 1668 0040 B3F1FF3F 		cmp	r3, #-1
 1669 0044 03D1     		bne	.L91
 307:.\my_camera_functions.c ****     {
 308:.\my_camera_functions.c ****         j = 'N';
 1670              		.loc 1 308 0
 1671 0046 4E23     		movs	r3, #78
 1672 0048 87F83730 		strb	r3, [r7, #55]
 1673 004c 02E0     		b	.L89
 1674              	.L91:
 309:.\my_camera_functions.c ****     }
 310:.\my_camera_functions.c ****     else{j = 'C';}
 1675              		.loc 1 310 0
 1676 004e 4323     		movs	r3, #67
 1677 0050 87F83730 		strb	r3, [r7, #55]
 1678              	.L89:
 311:.\my_camera_functions.c ****     x = to_nearest_blob(RED,30,12);
 1679              		.loc 1 311 0
 1680 0054 0120     		movs	r0, #1
 1681 0056 1E21     		movs	r1, #30
 1682 0058 0C22     		movs	r2, #12
 1683 005a FFF7FEFF 		bl	to_nearest_blob
 1684 005e 3863     		str	r0, [r7, #48]
 312:.\my_camera_functions.c ****     if(x < -2)
 1685              		.loc 1 312 0
 1686 0060 3B6B     		ldr	r3, [r7, #48]
 1687 0062 13F1020F 		cmn	r3, #2
 1688 0066 03DA     		bge	.L92
 313:.\my_camera_functions.c ****     {
 314:.\my_camera_functions.c ****         k = 'L';
 1689              		.loc 1 314 0
 1690 0068 4C23     		movs	r3, #76
 1691 006a 87F83630 		strb	r3, [r7, #54]
ARM GAS  C:\Users\xavieran\AppData\Local\Temp\ccLmCtxQ.s 			page 37


 1692 006e 11E0     		b	.L93
 1693              	.L92:
 315:.\my_camera_functions.c ****     }
 316:.\my_camera_functions.c ****     else if(x > 2)
 1694              		.loc 1 316 0
 1695 0070 3B6B     		ldr	r3, [r7, #48]
 1696 0072 022B     		cmp	r3, #2
 1697 0074 03DD     		ble	.L94
 317:.\my_camera_functions.c ****     {
 318:.\my_camera_functions.c ****         k = 'R';
 1698              		.loc 1 318 0
 1699 0076 5223     		movs	r3, #82
 1700 0078 87F83630 		strb	r3, [r7, #54]
 1701 007c 0AE0     		b	.L93
 1702              	.L94:
 319:.\my_camera_functions.c ****     }
 320:.\my_camera_functions.c ****     else if(x == -1)
 1703              		.loc 1 320 0
 1704 007e 3B6B     		ldr	r3, [r7, #48]
 1705 0080 B3F1FF3F 		cmp	r3, #-1
 1706 0084 03D1     		bne	.L95
 321:.\my_camera_functions.c ****     {
 322:.\my_camera_functions.c ****         k = 'N';
 1707              		.loc 1 322 0
 1708 0086 4E23     		movs	r3, #78
 1709 0088 87F83630 		strb	r3, [r7, #54]
 1710 008c 02E0     		b	.L93
 1711              	.L95:
 323:.\my_camera_functions.c ****     }
 324:.\my_camera_functions.c ****     else{k = 'C';}
 1712              		.loc 1 324 0
 1713 008e 4323     		movs	r3, #67
 1714 0090 87F83630 		strb	r3, [r7, #54]
 1715              	.L93:
 325:.\my_camera_functions.c ****     x = to_nearest_blob(GREEN,30,12);
 1716              		.loc 1 325 0
 1717 0094 0220     		movs	r0, #2
 1718 0096 1E21     		movs	r1, #30
 1719 0098 0C22     		movs	r2, #12
 1720 009a FFF7FEFF 		bl	to_nearest_blob
 1721 009e 3863     		str	r0, [r7, #48]
 326:.\my_camera_functions.c ****     if(x < -2)
 1722              		.loc 1 326 0
 1723 00a0 3B6B     		ldr	r3, [r7, #48]
 1724 00a2 13F1020F 		cmn	r3, #2
 1725 00a6 03DA     		bge	.L96
 327:.\my_camera_functions.c ****     {
 328:.\my_camera_functions.c ****         l = 'L';
 1726              		.loc 1 328 0
 1727 00a8 4C23     		movs	r3, #76
 1728 00aa 87F83530 		strb	r3, [r7, #53]
 1729 00ae 11E0     		b	.L97
 1730              	.L96:
 329:.\my_camera_functions.c ****     }
 330:.\my_camera_functions.c ****     else if(x > 2)
 1731              		.loc 1 330 0
 1732 00b0 3B6B     		ldr	r3, [r7, #48]
ARM GAS  C:\Users\xavieran\AppData\Local\Temp\ccLmCtxQ.s 			page 38


 1733 00b2 022B     		cmp	r3, #2
 1734 00b4 03DD     		ble	.L98
 331:.\my_camera_functions.c ****     {
 332:.\my_camera_functions.c ****         l = 'R';
 1735              		.loc 1 332 0
 1736 00b6 5223     		movs	r3, #82
 1737 00b8 87F83530 		strb	r3, [r7, #53]
 1738 00bc 0AE0     		b	.L97
 1739              	.L98:
 333:.\my_camera_functions.c ****     }
 334:.\my_camera_functions.c ****     else if(x == -1)
 1740              		.loc 1 334 0
 1741 00be 3B6B     		ldr	r3, [r7, #48]
 1742 00c0 B3F1FF3F 		cmp	r3, #-1
 1743 00c4 03D1     		bne	.L99
 335:.\my_camera_functions.c ****     {
 336:.\my_camera_functions.c ****         l = 'N';
 1744              		.loc 1 336 0
 1745 00c6 4E23     		movs	r3, #78
 1746 00c8 87F83530 		strb	r3, [r7, #53]
 1747 00cc 02E0     		b	.L97
 1748              	.L99:
 337:.\my_camera_functions.c ****     }
 338:.\my_camera_functions.c ****     else{l = 'C';}
 1749              		.loc 1 338 0
 1750 00ce 4323     		movs	r3, #67
 1751 00d0 87F83530 		strb	r3, [r7, #53]
 1752              	.L97:
 339:.\my_camera_functions.c ****     sprintf(display[0],"#:%d R:%d G:%d B:%d",blob_count(0,30),blob_count(1,30),blob_count(2,30),blo
 1753              		.loc 1 339 0
 1754 00d4 0020     		movs	r0, #0
 1755 00d6 1E21     		movs	r1, #30
 1756 00d8 FFF7FEFF 		bl	blob_count
 1757 00dc 0346     		mov	r3, r0
 1758 00de 1D46     		mov	r5, r3
 1759 00e0 0120     		movs	r0, #1
 1760 00e2 1E21     		movs	r1, #30
 1761 00e4 FFF7FEFF 		bl	blob_count
 1762 00e8 0346     		mov	r3, r0
 1763 00ea 1C46     		mov	r4, r3
 1764 00ec 0220     		movs	r0, #2
 1765 00ee 1E21     		movs	r1, #30
 1766 00f0 FFF7FEFF 		bl	blob_count
 1767 00f4 0346     		mov	r3, r0
 1768 00f6 1E46     		mov	r6, r3
 1769 00f8 0320     		movs	r0, #3
 1770 00fa 1E21     		movs	r1, #30
 1771 00fc FFF7FEFF 		bl	blob_count
 1772 0100 0346     		mov	r3, r0
 1773 0102 1A46     		mov	r2, r3
 1774 0104 07F10803 		add	r3, r7, #8
 1775 0108 0096     		str	r6, [sp]
 1776 010a 0192     		str	r2, [sp, #4]
 1777 010c 1846     		mov	r0, r3
 1778 010e 1C49     		ldr	r1, .L100+4
 1779 0110 2A46     		mov	r2, r5
 1780 0112 2346     		mov	r3, r4
ARM GAS  C:\Users\xavieran\AppData\Local\Temp\ccLmCtxQ.s 			page 39


 1781 0114 FFF7FEFF 		bl	sprintf
 340:.\my_camera_functions.c ****     sprintf(display[1],"BC:%c R:%c G:%c B:%c",RGB[blobs[0].colour],k,l,j);
 1782              		.loc 1 340 0
 1783 0118 1A4B     		ldr	r3, .L100+8
 1784 011a 1B68     		ldr	r3, [r3]
 1785 011c 1B68     		ldr	r3, [r3]
 1786 011e 07F13802 		add	r2, r7, #56
 1787 0122 1344     		add	r3, r3, r2
 1788 0124 13F8383C 		ldrb	r3, [r3, #-56]	@ zero_extendqisi2
 1789 0128 1A46     		mov	r2, r3
 1790 012a 97F83630 		ldrb	r3, [r7, #54]	@ zero_extendqisi2
 1791 012e 97F83540 		ldrb	r4, [r7, #53]	@ zero_extendqisi2
 1792 0132 97F83700 		ldrb	r0, [r7, #55]	@ zero_extendqisi2
 1793 0136 07F10801 		add	r1, r7, #8
 1794 013a 1431     		adds	r1, r1, #20
 1795 013c 0094     		str	r4, [sp]
 1796 013e 0190     		str	r0, [sp, #4]
 1797 0140 0846     		mov	r0, r1
 1798 0142 1149     		ldr	r1, .L100+12
 1799 0144 FFF7FEFF 		bl	sprintf
 341:.\my_camera_functions.c ****     LCD_ClearDisplay();
 1800              		.loc 1 341 0
 1801 0148 0120     		movs	r0, #1
 1802 014a FFF7FEFF 		bl	LCD_WriteControl
 342:.\my_camera_functions.c ****     LCD_PosPrintString(0,0,display[0]);
 1803              		.loc 1 342 0
 1804 014e 0020     		movs	r0, #0
 1805 0150 0021     		movs	r1, #0
 1806 0152 FFF7FEFF 		bl	LCD_Position
 1807 0156 07F10803 		add	r3, r7, #8
 1808 015a 1846     		mov	r0, r3
 1809 015c FFF7FEFF 		bl	LCD_PrintString
 343:.\my_camera_functions.c ****     LCD_PosPrintString(1,0,display[1]);
 1810              		.loc 1 343 0
 1811 0160 0120     		movs	r0, #1
 1812 0162 0021     		movs	r1, #0
 1813 0164 FFF7FEFF 		bl	LCD_Position
 1814 0168 07F10803 		add	r3, r7, #8
 1815 016c 1433     		adds	r3, r3, #20
 1816 016e 1846     		mov	r0, r3
 1817 0170 FFF7FEFF 		bl	LCD_PrintString
 344:.\my_camera_functions.c **** }
 1818              		.loc 1 344 0
 1819 0174 3C37     		adds	r7, r7, #60
 1820 0176 BD46     		mov	sp, r7
 1821              		@ sp needed
 1822 0178 F0BD     		pop	{r4, r5, r6, r7, pc}
 1823              	.L101:
 1824 017a 00BF     		.align	2
 1825              	.L100:
 1826 017c 70000000 		.word	.LC4
 1827 0180 44000000 		.word	.LC5
 1828 0184 00000000 		.word	blobs
 1829 0188 58000000 		.word	.LC6
 1830              		.cfi_endproc
 1831              	.LFE74:
 1832              		.size	image_stuff4, .-image_stuff4
ARM GAS  C:\Users\xavieran\AppData\Local\Temp\ccLmCtxQ.s 			page 40


 1833              		.text
 1834              	.Letext0:
 1835              		.file 2 "c:\\program files (x86)\\cypress\\psoc creator\\3.2\\psoc creator\\import\\gnu\\arm\\4.8.
 1836              		.file 3 "c:\\program files (x86)\\cypress\\psoc creator\\3.2\\psoc creator\\import\\gnu\\arm\\4.8.
 1837              		.file 4 "Generated_Source\\PSoC5/cytypes.h"
 1838              		.file 5 "./blob_stats.h"
 1839              		.file 6 "Generated_Source\\PSoC5/core_cm3.h"
 1840              		.file 7 "Generated_Source\\PSoC5/Camera.h"
 1841              		.file 8 "./my_camera_functions.h"