ARM GAS  C:\Users\xavieran\AppData\Local\Temp\ccoJxSQI.s 			page 1


   1              		.syntax unified
   2              		.cpu cortex-m3
   3              		.fpu softvfp
   4              		.eabi_attribute 20, 1
   5              		.eabi_attribute 21, 1
   6              		.eabi_attribute 23, 3
   7              		.eabi_attribute 24, 1
   8              		.eabi_attribute 25, 1
   9              		.eabi_attribute 26, 1
  10              		.eabi_attribute 30, 6
  11              		.eabi_attribute 34, 1
  12              		.eabi_attribute 18, 4
  13              		.thumb
  14              		.file	"my_camera_functions.c"
  15              		.text
  16              	.Ltext0:
  17              		.cfi_sections	.debug_frame
  18              		.comm	Camera_framebuffer,50688,4
  19              		.comm	stack,16,4
  20              		.global	RED_U
  21              		.data
  22              		.type	RED_U, %object
  23              		.size	RED_U, 1
  24              	RED_U:
  25 0000 7E       		.byte	126
  26              		.global	RED_V
  27              		.type	RED_V, %object
  28              		.size	RED_V, 1
  29              	RED_V:
  30 0001 98       		.byte	-104
  31              		.global	GREEN_U
  32              		.type	GREEN_U, %object
  33              		.size	GREEN_U, 1
  34              	GREEN_U:
  35 0002 78       		.byte	120
  36              		.global	GREEN_V
  37              		.type	GREEN_V, %object
  38              		.size	GREEN_V, 1
  39              	GREEN_V:
  40 0003 78       		.byte	120
  41              		.global	BLUE_U
  42              		.type	BLUE_U, %object
  43              		.size	BLUE_U, 1
  44              	BLUE_U:
  45 0004 81       		.byte	-127
  46              		.global	BLUE_V
  47              		.type	BLUE_V, %object
  48              		.size	BLUE_V, 1
  49              	BLUE_V:
  50 0005 7B       		.byte	123
  51              		.global	GAIN
  52              		.type	GAIN, %object
  53              		.size	GAIN, 1
  54              	GAIN:
  55 0006 22       		.byte	34
  56              		.global	B_GAIN
  57              		.type	B_GAIN, %object
ARM GAS  C:\Users\xavieran\AppData\Local\Temp\ccoJxSQI.s 			page 2


  58              		.size	B_GAIN, 1
  59              	B_GAIN:
  60 0007 8B       		.byte	-117
  61              		.global	R_GAIN
  62              		.type	R_GAIN, %object
  63              		.size	R_GAIN, 1
  64              	R_GAIN:
  65 0008 8B       		.byte	-117
  66              		.global	EXPOSURE
  67              		.type	EXPOSURE, %object
  68              		.size	EXPOSURE, 1
  69              	EXPOSURE:
  70 0009 28       		.byte	40
  71              		.section	.rodata
  72              		.align	2
  73              	.LC1:
  74 0000 43616D65 		.ascii	"Camera Actualy\000"
  74      72612041 
  74      63747561 
  74      6C7900
  75 000f 00       		.align	2
  76              	.LC2:
  77 0010 4672616D 		.ascii	"Frame Sync Done\000"
  77      65205379 
  77      6E632044 
  77      6F6E6500 
  78              		.align	2
  79              	.LC3:
  80 0020 47657474 		.ascii	"Getting Frame!!\000"
  80      696E6720 
  80      4672616D 
  80      65212100 
  81              		.align	2
  82              	.LC4:
  83 0030 496E6974 		.ascii	"Init Camera Done\000"
  83      2043616D 
  83      65726120 
  83      446F6E65 
  83      00
  84              		.section	.text.init_camera,"ax",%progbits
  85              		.align	2
  86              		.global	init_camera
  87              		.thumb
  88              		.thumb_func
  89              		.type	init_camera, %function
  90              	init_camera:
  91              	.LFB63:
  92              		.file 1 ".\\my_camera_functions.c"
   1:.\my_camera_functions.c **** /* ========================================
   2:.\my_camera_functions.c ****  *
   3:.\my_camera_functions.c ****  * Copyright YOUR COMPANY, THE YEAR
   4:.\my_camera_functions.c ****  * All Rights Reserved
   5:.\my_camera_functions.c ****  * UNPUBLISHED, LICENSED SOFTWARE.
   6:.\my_camera_functions.c ****  *
   7:.\my_camera_functions.c ****  * CONFIDENTIAL AND PROPRIETARY INFORMATION
   8:.\my_camera_functions.c ****  * WHICH IS THE PROPERTY OF your company.
   9:.\my_camera_functions.c ****  *
ARM GAS  C:\Users\xavieran\AppData\Local\Temp\ccoJxSQI.s 			page 3


  10:.\my_camera_functions.c ****  * ========================================
  11:.\my_camera_functions.c **** */
  12:.\my_camera_functions.c **** #include <project.h>
  13:.\my_camera_functions.c **** #include <my_camera_functions.h>
  14:.\my_camera_functions.c **** #include <blob_stats.h>
  15:.\my_camera_functions.c **** #include <arm.h>
  16:.\my_camera_functions.c **** #include <stdio.h>
  17:.\my_camera_functions.c **** 
  18:.\my_camera_functions.c **** uint8 RED_U= 126;//116;
  19:.\my_camera_functions.c **** uint8 RED_V= 152;//140;//162;
  20:.\my_camera_functions.c **** uint8 GREEN_U= 120;//128;
  21:.\my_camera_functions.c **** uint8 GREEN_V= 120;//102;
  22:.\my_camera_functions.c **** uint8 BLUE_U= 129;//138;//162;
  23:.\my_camera_functions.c **** uint8 BLUE_V= 123;//124;//116;
  24:.\my_camera_functions.c **** uint8 GAIN = 34;
  25:.\my_camera_functions.c **** uint8 B_GAIN = 139;
  26:.\my_camera_functions.c **** uint8 R_GAIN = 139;
  27:.\my_camera_functions.c **** uint8 EXPOSURE = 40;
  28:.\my_camera_functions.c **** 
  29:.\my_camera_functions.c **** extern blob *blobs;
  30:.\my_camera_functions.c **** 
  31:.\my_camera_functions.c **** void init_camera()
  32:.\my_camera_functions.c **** {
  93              		.loc 1 32 0
  94              		.cfi_startproc
  95              		@ args = 0, pretend = 0, frame = 0
  96              		@ frame_needed = 1, uses_anonymous_args = 0
  97 0000 80B5     		push	{r7, lr}
  98              		.cfi_def_cfa_offset 8
  99              		.cfi_offset 7, -8
 100              		.cfi_offset 14, -4
 101 0002 00AF     		add	r7, sp, #0
 102              		.cfi_def_cfa_register 7
  33:.\my_camera_functions.c **** 	Camera_Start();
 103              		.loc 1 33 0
 104 0004 FFF7FEFF 		bl	Camera_Start
  34:.\my_camera_functions.c ****     LCD_ClearDisplay();
 105              		.loc 1 34 0
 106 0008 0120     		movs	r0, #1
 107 000a FFF7FEFF 		bl	LCD_WriteControl
  35:.\my_camera_functions.c ****     LCD_PosPrintString(0,0,"Camera Actualy");
 108              		.loc 1 35 0
 109 000e 0020     		movs	r0, #0
 110 0010 0021     		movs	r1, #0
 111 0012 FFF7FEFF 		bl	LCD_Position
 112 0016 2748     		ldr	r0, .L2
 113 0018 FFF7FEFF 		bl	LCD_PrintString
  36:.\my_camera_functions.c ****     Camera_WriteReg(0x1E,0b00010000); //Flip Image
 114              		.loc 1 36 0
 115 001c 1E20     		movs	r0, #30
 116 001e 1021     		movs	r1, #16
 117 0020 FFF7FEFF 		bl	Camera_WriteReg
  37:.\my_camera_functions.c ****     Camera_WriteReg(0x13,0b11100111); //Enable Auto Gain, WB, Exposure
 118              		.loc 1 37 0
 119 0024 1320     		movs	r0, #19
 120 0026 E721     		movs	r1, #231
 121 0028 FFF7FEFF 		bl	Camera_WriteReg
ARM GAS  C:\Users\xavieran\AppData\Local\Temp\ccoJxSQI.s 			page 4


  38:.\my_camera_functions.c ****     Camera_SyncFrame();
 122              		.loc 1 38 0
 123 002c FFF7FEFF 		bl	Camera_SyncFrame
  39:.\my_camera_functions.c ****     LCD_PosPrintString(0,0,"Frame Sync Done");
 124              		.loc 1 39 0
 125 0030 0020     		movs	r0, #0
 126 0032 0021     		movs	r1, #0
 127 0034 FFF7FEFF 		bl	LCD_Position
 128 0038 1F48     		ldr	r0, .L2+4
 129 003a FFF7FEFF 		bl	LCD_PrintString
  40:.\my_camera_functions.c **** 	Camera_GetFrame(); //start frame capture
 130              		.loc 1 40 0
 131 003e FFF7FEFF 		bl	Camera_GetFrame
  41:.\my_camera_functions.c ****     LCD_PosPrintString(0,0,"Getting Frame!!");
 132              		.loc 1 41 0
 133 0042 0020     		movs	r0, #0
 134 0044 0021     		movs	r1, #0
 135 0046 FFF7FEFF 		bl	LCD_Position
 136 004a 1C48     		ldr	r0, .L2+8
 137 004c FFF7FEFF 		bl	LCD_PrintString
  42:.\my_camera_functions.c **** 	Camera_SyncFrame(); //wait until frame is fully captured before sending out over USB
 138              		.loc 1 42 0
 139 0050 FFF7FEFF 		bl	Camera_SyncFrame
  43:.\my_camera_functions.c ****     Camera_WriteReg(0x13,0b11100000);
 140              		.loc 1 43 0
 141 0054 1320     		movs	r0, #19
 142 0056 E021     		movs	r1, #224
 143 0058 FFF7FEFF 		bl	Camera_WriteReg
  44:.\my_camera_functions.c ****     //Gain and exposure settigs
  45:.\my_camera_functions.c ****     Camera_WriteReg(0x00, GAIN);
 144              		.loc 1 45 0
 145 005c 184B     		ldr	r3, .L2+12
 146 005e 1B78     		ldrb	r3, [r3]	@ zero_extendqisi2
 147 0060 0020     		movs	r0, #0
 148 0062 1946     		mov	r1, r3
 149 0064 FFF7FEFF 		bl	Camera_WriteReg
  46:.\my_camera_functions.c ****     Camera_WriteReg(0x01, B_GAIN);
 150              		.loc 1 46 0
 151 0068 164B     		ldr	r3, .L2+16
 152 006a 1B78     		ldrb	r3, [r3]	@ zero_extendqisi2
 153 006c 0120     		movs	r0, #1
 154 006e 1946     		mov	r1, r3
 155 0070 FFF7FEFF 		bl	Camera_WriteReg
  47:.\my_camera_functions.c ****     Camera_WriteReg(0x02, R_GAIN);
 156              		.loc 1 47 0
 157 0074 144B     		ldr	r3, .L2+20
 158 0076 1B78     		ldrb	r3, [r3]	@ zero_extendqisi2
 159 0078 0220     		movs	r0, #2
 160 007a 1946     		mov	r1, r3
 161 007c FFF7FEFF 		bl	Camera_WriteReg
  48:.\my_camera_functions.c ****     Camera_WriteReg(0x10,EXPOSURE);
 162              		.loc 1 48 0
 163 0080 124B     		ldr	r3, .L2+24
 164 0082 1B78     		ldrb	r3, [r3]	@ zero_extendqisi2
 165 0084 1020     		movs	r0, #16
 166 0086 1946     		mov	r1, r3
 167 0088 FFF7FEFF 		bl	Camera_WriteReg
ARM GAS  C:\Users\xavieran\AppData\Local\Temp\ccoJxSQI.s 			page 5


  49:.\my_camera_functions.c **** 	Camera_WriteReg(0x3F,0b00101111); // Edge Enhancement Factor and Threshold
 168              		.loc 1 49 0
 169 008c 3F20     		movs	r0, #63
 170 008e 2F21     		movs	r1, #47
 171 0090 FFF7FEFF 		bl	Camera_WriteReg
  50:.\my_camera_functions.c ****     Camera_WriteReg(0x3E,0b00000011); // Edge Enhancement Control
 172              		.loc 1 50 0
 173 0094 3E20     		movs	r0, #62
 174 0096 0321     		movs	r1, #3
 175 0098 FFF7FEFF 		bl	Camera_WriteReg
  51:.\my_camera_functions.c ****     Camera_WriteReg(0x8C,0b10100000); // Denoise
 176              		.loc 1 51 0
 177 009c 8C20     		movs	r0, #140
 178 009e A021     		movs	r1, #160
 179 00a0 FFF7FEFF 		bl	Camera_WriteReg
  52:.\my_camera_functions.c ****     LCD_PosPrintString(0,0,"Init Camera Done");
 180              		.loc 1 52 0
 181 00a4 0020     		movs	r0, #0
 182 00a6 0021     		movs	r1, #0
 183 00a8 FFF7FEFF 		bl	LCD_Position
 184 00ac 0848     		ldr	r0, .L2+28
 185 00ae FFF7FEFF 		bl	LCD_PrintString
  53:.\my_camera_functions.c **** }
 186              		.loc 1 53 0
 187 00b2 80BD     		pop	{r7, pc}
 188              	.L3:
 189              		.align	2
 190              	.L2:
 191 00b4 00000000 		.word	.LC1
 192 00b8 10000000 		.word	.LC2
 193 00bc 20000000 		.word	.LC3
 194 00c0 00000000 		.word	GAIN
 195 00c4 00000000 		.word	B_GAIN
 196 00c8 00000000 		.word	R_GAIN
 197 00cc 00000000 		.word	EXPOSURE
 198 00d0 30000000 		.word	.LC4
 199              		.cfi_endproc
 200              	.LFE63:
 201              		.size	init_camera, .-init_camera
 202              		.section	.text.capture_image,"ax",%progbits
 203              		.align	2
 204              		.global	capture_image
 205              		.thumb
 206              		.thumb_func
 207              		.type	capture_image, %function
 208              	capture_image:
 209              	.LFB64:
  54:.\my_camera_functions.c **** 
  55:.\my_camera_functions.c **** void capture_image()
  56:.\my_camera_functions.c **** {
 210              		.loc 1 56 0
 211              		.cfi_startproc
 212              		@ args = 0, pretend = 0, frame = 0
 213              		@ frame_needed = 1, uses_anonymous_args = 0
 214 0000 80B5     		push	{r7, lr}
 215              		.cfi_def_cfa_offset 8
 216              		.cfi_offset 7, -8
ARM GAS  C:\Users\xavieran\AppData\Local\Temp\ccoJxSQI.s 			page 6


 217              		.cfi_offset 14, -4
 218 0002 00AF     		add	r7, sp, #0
 219              		.cfi_def_cfa_register 7
  57:.\my_camera_functions.c **** 	Camera_SyncFrame();
 220              		.loc 1 57 0
 221 0004 FFF7FEFF 		bl	Camera_SyncFrame
  58:.\my_camera_functions.c **** 	Camera_GetFrame();
 222              		.loc 1 58 0
 223 0008 FFF7FEFF 		bl	Camera_GetFrame
  59:.\my_camera_functions.c **** 	Camera_SyncFrame();
 224              		.loc 1 59 0
 225 000c FFF7FEFF 		bl	Camera_SyncFrame
  60:.\my_camera_functions.c **** }
 226              		.loc 1 60 0
 227 0010 80BD     		pop	{r7, pc}
 228              		.cfi_endproc
 229              	.LFE64:
 230              		.size	capture_image, .-capture_image
 231 0012 00BF     		.section	.text.capture_thresh_image,"ax",%progbits
 232              		.align	2
 233              		.global	capture_thresh_image
 234              		.thumb
 235              		.thumb_func
 236              		.type	capture_thresh_image, %function
 237              	capture_thresh_image:
 238              	.LFB65:
  61:.\my_camera_functions.c **** 
  62:.\my_camera_functions.c **** void capture_thresh_image()
  63:.\my_camera_functions.c **** {
 239              		.loc 1 63 0
 240              		.cfi_startproc
 241              		@ args = 0, pretend = 0, frame = 0
 242              		@ frame_needed = 1, uses_anonymous_args = 0
 243 0000 80B5     		push	{r7, lr}
 244              		.cfi_def_cfa_offset 8
 245              		.cfi_offset 7, -8
 246              		.cfi_offset 14, -4
 247 0002 00AF     		add	r7, sp, #0
 248              		.cfi_def_cfa_register 7
  64:.\my_camera_functions.c **** 	Camera_SyncFrame();
 249              		.loc 1 64 0
 250 0004 FFF7FEFF 		bl	Camera_SyncFrame
  65:.\my_camera_functions.c **** 	Camera_GetFrame();
 251              		.loc 1 65 0
 252 0008 FFF7FEFF 		bl	Camera_GetFrame
  66:.\my_camera_functions.c **** 	Camera_SyncFrame();
 253              		.loc 1 66 0
 254 000c FFF7FEFF 		bl	Camera_SyncFrame
  67:.\my_camera_functions.c ****     threshold_image();
 255              		.loc 1 67 0
 256 0010 FFF7FEFF 		bl	threshold_image
  68:.\my_camera_functions.c ****     clean_frame(RED,0.2,20);
 257              		.loc 1 68 0
 258 0014 0120     		movs	r0, #1
 259 0016 0849     		ldr	r1, .L6
 260 0018 1422     		movs	r2, #20
 261 001a FFF7FEFF 		bl	clean_frame
ARM GAS  C:\Users\xavieran\AppData\Local\Temp\ccoJxSQI.s 			page 7


  69:.\my_camera_functions.c ****     clean_frame(GREEN,0.2,20);
 262              		.loc 1 69 0
 263 001e 0220     		movs	r0, #2
 264 0020 0549     		ldr	r1, .L6
 265 0022 1422     		movs	r2, #20
 266 0024 FFF7FEFF 		bl	clean_frame
  70:.\my_camera_functions.c ****     clean_frame(BLUE,0.2,20);
 267              		.loc 1 70 0
 268 0028 0320     		movs	r0, #3
 269 002a 0349     		ldr	r1, .L6
 270 002c 1422     		movs	r2, #20
 271 002e FFF7FEFF 		bl	clean_frame
  71:.\my_camera_functions.c ****     blob_detect();
 272              		.loc 1 71 0
 273 0032 FFF7FEFF 		bl	blob_detect
  72:.\my_camera_functions.c **** }
 274              		.loc 1 72 0
 275 0036 80BD     		pop	{r7, pc}
 276              	.L7:
 277              		.align	2
 278              	.L6:
 279 0038 CDCC4C3E 		.word	1045220557
 280              		.cfi_endproc
 281              	.LFE65:
 282              		.size	capture_thresh_image, .-capture_thresh_image
 283              		.section	.text.set_gain_exposure,"ax",%progbits
 284              		.align	2
 285              		.global	set_gain_exposure
 286              		.thumb
 287              		.thumb_func
 288              		.type	set_gain_exposure, %function
 289              	set_gain_exposure:
 290              	.LFB66:
  73:.\my_camera_functions.c **** 
  74:.\my_camera_functions.c **** void set_gain_exposure(int setting)
  75:.\my_camera_functions.c **** {
 291              		.loc 1 75 0
 292              		.cfi_startproc
 293              		@ args = 0, pretend = 0, frame = 8
 294              		@ frame_needed = 1, uses_anonymous_args = 0
 295 0000 80B5     		push	{r7, lr}
 296              		.cfi_def_cfa_offset 8
 297              		.cfi_offset 7, -8
 298              		.cfi_offset 14, -4
 299 0002 82B0     		sub	sp, sp, #8
 300              		.cfi_def_cfa_offset 16
 301 0004 00AF     		add	r7, sp, #0
 302              		.cfi_def_cfa_register 7
 303 0006 7860     		str	r0, [r7, #4]
  76:.\my_camera_functions.c **** 	switch(setting)
 304              		.loc 1 76 0
 305 0008 7B68     		ldr	r3, [r7, #4]
 306 000a 012B     		cmp	r3, #1
 307 000c 18D1     		bne	.L12
  77:.\my_camera_functions.c **** 	{
  78:.\my_camera_functions.c **** 		case 1:
  79:.\my_camera_functions.c **** 			// Settings for Instructions
ARM GAS  C:\Users\xavieran\AppData\Local\Temp\ccoJxSQI.s 			page 8


  80:.\my_camera_functions.c **** 			Camera_WriteReg(0x00, GAIN); //g
 308              		.loc 1 80 0
 309 000e 124B     		ldr	r3, .L13
 310 0010 1B78     		ldrb	r3, [r3]	@ zero_extendqisi2
 311 0012 0020     		movs	r0, #0
 312 0014 1946     		mov	r1, r3
 313 0016 FFF7FEFF 		bl	Camera_WriteReg
  81:.\my_camera_functions.c ****             Camera_WriteReg(0x01, B_GAIN);//BG
 314              		.loc 1 81 0
 315 001a 104B     		ldr	r3, .L13+4
 316 001c 1B78     		ldrb	r3, [r3]	@ zero_extendqisi2
 317 001e 0120     		movs	r0, #1
 318 0020 1946     		mov	r1, r3
 319 0022 FFF7FEFF 		bl	Camera_WriteReg
  82:.\my_camera_functions.c ****             Camera_WriteReg(0x02, R_GAIN);//RG
 320              		.loc 1 82 0
 321 0026 0E4B     		ldr	r3, .L13+8
 322 0028 1B78     		ldrb	r3, [r3]	@ zero_extendqisi2
 323 002a 0220     		movs	r0, #2
 324 002c 1946     		mov	r1, r3
 325 002e FFF7FEFF 		bl	Camera_WriteReg
  83:.\my_camera_functions.c **** 			Camera_WriteReg(0x10, EXPOSURE);//exposure
 326              		.loc 1 83 0
 327 0032 0C4B     		ldr	r3, .L13+12
 328 0034 1B78     		ldrb	r3, [r3]	@ zero_extendqisi2
 329 0036 1020     		movs	r0, #16
 330 0038 1946     		mov	r1, r3
 331 003a FFF7FEFF 		bl	Camera_WriteReg
  84:.\my_camera_functions.c **** 			break;
 332              		.loc 1 84 0
 333 003e 08E0     		b	.L8
 334              	.L12:
  85:.\my_camera_functions.c **** 		default:
  86:.\my_camera_functions.c **** 		case 2:
  87:.\my_camera_functions.c **** 			// Settings for arena 1
  88:.\my_camera_functions.c **** 			Camera_WriteReg(0x00,60);
 335              		.loc 1 88 0
 336 0040 0020     		movs	r0, #0
 337 0042 3C21     		movs	r1, #60
 338 0044 FFF7FEFF 		bl	Camera_WriteReg
  89:.\my_camera_functions.c **** 			Camera_WriteReg(0x10,80);
 339              		.loc 1 89 0
 340 0048 1020     		movs	r0, #16
 341 004a 5021     		movs	r1, #80
 342 004c FFF7FEFF 		bl	Camera_WriteReg
  90:.\my_camera_functions.c **** 			break;
 343              		.loc 1 90 0
 344 0050 00BF     		nop
 345              	.L8:
  91:.\my_camera_functions.c ****             
  92:.\my_camera_functions.c **** 	}
  93:.\my_camera_functions.c **** }
 346              		.loc 1 93 0
 347 0052 0837     		adds	r7, r7, #8
 348 0054 BD46     		mov	sp, r7
 349              		@ sp needed
 350 0056 80BD     		pop	{r7, pc}
ARM GAS  C:\Users\xavieran\AppData\Local\Temp\ccoJxSQI.s 			page 9


 351              	.L14:
 352              		.align	2
 353              	.L13:
 354 0058 00000000 		.word	GAIN
 355 005c 00000000 		.word	B_GAIN
 356 0060 00000000 		.word	R_GAIN
 357 0064 00000000 		.word	EXPOSURE
 358              		.cfi_endproc
 359              	.LFE66:
 360              		.size	set_gain_exposure, .-set_gain_exposure
 361              		.section	.text.PixelColour,"ax",%progbits
 362              		.align	2
 363              		.global	PixelColour
 364              		.thumb
 365              		.thumb_func
 366              		.type	PixelColour, %function
 367              	PixelColour:
 368              	.LFB67:
  94:.\my_camera_functions.c **** 
  95:.\my_camera_functions.c ****     
  96:.\my_camera_functions.c ****     
  97:.\my_camera_functions.c **** uint8 PixelColour(uint8 x,uint8 y) //colour of pixel at (x,y)
  98:.\my_camera_functions.c **** {
 369              		.loc 1 98 0
 370              		.cfi_startproc
 371              		@ args = 0, pretend = 0, frame = 8
 372              		@ frame_needed = 1, uses_anonymous_args = 0
 373              		@ link register save eliminated.
 374 0000 80B4     		push	{r7}
 375              		.cfi_def_cfa_offset 4
 376              		.cfi_offset 7, -4
 377 0002 83B0     		sub	sp, sp, #12
 378              		.cfi_def_cfa_offset 16
 379 0004 00AF     		add	r7, sp, #0
 380              		.cfi_def_cfa_register 7
 381 0006 0246     		mov	r2, r0
 382 0008 0B46     		mov	r3, r1
 383 000a FA71     		strb	r2, [r7, #7]
 384 000c BB71     		strb	r3, [r7, #6]
  99:.\my_camera_functions.c ****     if(Camera_framebuffer[y][x][0]<RED_U   && Camera_framebuffer[y][x][2]>=RED_V)  return RED;
 385              		.loc 1 99 0
 386 000e B979     		ldrb	r1, [r7, #6]	@ zero_extendqisi2
 387 0010 FA79     		ldrb	r2, [r7, #7]	@ zero_extendqisi2
 388 0012 2E4B     		ldr	r3, .L20
 389 0014 5820     		movs	r0, #88
 390 0016 00FB01F1 		mul	r1, r0, r1
 391 001a 0A44     		add	r2, r2, r1
 392 001c 13F82220 		ldrb	r2, [r3, r2, lsl #2]	@ zero_extendqisi2
 393 0020 2B4B     		ldr	r3, .L20+4
 394 0022 1B78     		ldrb	r3, [r3]	@ zero_extendqisi2
 395 0024 9A42     		cmp	r2, r3
 396 0026 0FD2     		bcs	.L16
 397              		.loc 1 99 0 is_stmt 0 discriminator 1
 398 0028 B979     		ldrb	r1, [r7, #6]	@ zero_extendqisi2
 399 002a FB79     		ldrb	r3, [r7, #7]	@ zero_extendqisi2
 400 002c 274A     		ldr	r2, .L20
 401 002e 5820     		movs	r0, #88
ARM GAS  C:\Users\xavieran\AppData\Local\Temp\ccoJxSQI.s 			page 10


 402 0030 00FB01F1 		mul	r1, r0, r1
 403 0034 0B44     		add	r3, r3, r1
 404 0036 9B00     		lsls	r3, r3, #2
 405 0038 1344     		add	r3, r3, r2
 406 003a 9A78     		ldrb	r2, [r3, #2]	@ zero_extendqisi2
 407 003c 254B     		ldr	r3, .L20+8
 408 003e 1B78     		ldrb	r3, [r3]	@ zero_extendqisi2
 409 0040 9A42     		cmp	r2, r3
 410 0042 01D3     		bcc	.L16
 411 0044 0123     		movs	r3, #1
 412 0046 3AE0     		b	.L17
 413              	.L16:
 100:.\my_camera_functions.c ****     if(Camera_framebuffer[y][x][0]<GREEN_U && Camera_framebuffer[y][x][2]<GREEN_V) return GREEN;
 414              		.loc 1 100 0 is_stmt 1
 415 0048 B979     		ldrb	r1, [r7, #6]	@ zero_extendqisi2
 416 004a FA79     		ldrb	r2, [r7, #7]	@ zero_extendqisi2
 417 004c 1F4B     		ldr	r3, .L20
 418 004e 5820     		movs	r0, #88
 419 0050 00FB01F1 		mul	r1, r0, r1
 420 0054 0A44     		add	r2, r2, r1
 421 0056 13F82220 		ldrb	r2, [r3, r2, lsl #2]	@ zero_extendqisi2
 422 005a 1F4B     		ldr	r3, .L20+12
 423 005c 1B78     		ldrb	r3, [r3]	@ zero_extendqisi2
 424 005e 9A42     		cmp	r2, r3
 425 0060 0FD2     		bcs	.L18
 426              		.loc 1 100 0 is_stmt 0 discriminator 1
 427 0062 B979     		ldrb	r1, [r7, #6]	@ zero_extendqisi2
 428 0064 FB79     		ldrb	r3, [r7, #7]	@ zero_extendqisi2
 429 0066 194A     		ldr	r2, .L20
 430 0068 5820     		movs	r0, #88
 431 006a 00FB01F1 		mul	r1, r0, r1
 432 006e 0B44     		add	r3, r3, r1
 433 0070 9B00     		lsls	r3, r3, #2
 434 0072 1344     		add	r3, r3, r2
 435 0074 9A78     		ldrb	r2, [r3, #2]	@ zero_extendqisi2
 436 0076 194B     		ldr	r3, .L20+16
 437 0078 1B78     		ldrb	r3, [r3]	@ zero_extendqisi2
 438 007a 9A42     		cmp	r2, r3
 439 007c 01D2     		bcs	.L18
 440 007e 0223     		movs	r3, #2
 441 0080 1DE0     		b	.L17
 442              	.L18:
 101:.\my_camera_functions.c ****     if(Camera_framebuffer[y][x][0]>=BLUE_U && Camera_framebuffer[y][x][2]<BLUE_V)  return BLUE;
 443              		.loc 1 101 0 is_stmt 1
 444 0082 B979     		ldrb	r1, [r7, #6]	@ zero_extendqisi2
 445 0084 FA79     		ldrb	r2, [r7, #7]	@ zero_extendqisi2
 446 0086 114B     		ldr	r3, .L20
 447 0088 5820     		movs	r0, #88
 448 008a 00FB01F1 		mul	r1, r0, r1
 449 008e 0A44     		add	r2, r2, r1
 450 0090 13F82220 		ldrb	r2, [r3, r2, lsl #2]	@ zero_extendqisi2
 451 0094 124B     		ldr	r3, .L20+20
 452 0096 1B78     		ldrb	r3, [r3]	@ zero_extendqisi2
 453 0098 9A42     		cmp	r2, r3
 454 009a 0FD3     		bcc	.L19
 455              		.loc 1 101 0 is_stmt 0 discriminator 1
 456 009c B979     		ldrb	r1, [r7, #6]	@ zero_extendqisi2
ARM GAS  C:\Users\xavieran\AppData\Local\Temp\ccoJxSQI.s 			page 11


 457 009e FB79     		ldrb	r3, [r7, #7]	@ zero_extendqisi2
 458 00a0 0A4A     		ldr	r2, .L20
 459 00a2 5820     		movs	r0, #88
 460 00a4 00FB01F1 		mul	r1, r0, r1
 461 00a8 0B44     		add	r3, r3, r1
 462 00aa 9B00     		lsls	r3, r3, #2
 463 00ac 1344     		add	r3, r3, r2
 464 00ae 9A78     		ldrb	r2, [r3, #2]	@ zero_extendqisi2
 465 00b0 0C4B     		ldr	r3, .L20+24
 466 00b2 1B78     		ldrb	r3, [r3]	@ zero_extendqisi2
 467 00b4 9A42     		cmp	r2, r3
 468 00b6 01D2     		bcs	.L19
 469 00b8 0323     		movs	r3, #3
 470 00ba 00E0     		b	.L17
 471              	.L19:
 102:.\my_camera_functions.c ****     return NONE;
 472              		.loc 1 102 0 is_stmt 1
 473 00bc 0023     		movs	r3, #0
 474              	.L17:
 103:.\my_camera_functions.c **** }
 475              		.loc 1 103 0
 476 00be 1846     		mov	r0, r3
 477 00c0 0C37     		adds	r7, r7, #12
 478 00c2 BD46     		mov	sp, r7
 479              		@ sp needed
 480 00c4 5DF8047B 		ldr	r7, [sp], #4
 481 00c8 7047     		bx	lr
 482              	.L21:
 483 00ca 00BF     		.align	2
 484              	.L20:
 485 00cc 00000000 		.word	Camera_framebuffer
 486 00d0 00000000 		.word	RED_U
 487 00d4 00000000 		.word	RED_V
 488 00d8 00000000 		.word	GREEN_U
 489 00dc 00000000 		.word	GREEN_V
 490 00e0 00000000 		.word	BLUE_U
 491 00e4 00000000 		.word	BLUE_V
 492              		.cfi_endproc
 493              	.LFE67:
 494              		.size	PixelColour, .-PixelColour
 495              		.section	.text.threshold_image,"ax",%progbits
 496              		.align	2
 497              		.global	threshold_image
 498              		.thumb
 499              		.thumb_func
 500              		.type	threshold_image, %function
 501              	threshold_image:
 502              	.LFB68:
 104:.\my_camera_functions.c **** 
 105:.\my_camera_functions.c **** 
 106:.\my_camera_functions.c **** 
 107:.\my_camera_functions.c **** //Camera_framebuffer[0][0] 
 108:.\my_camera_functions.c **** void threshold_image()
 109:.\my_camera_functions.c **** {
 503              		.loc 1 109 0
 504              		.cfi_startproc
 505              		@ args = 0, pretend = 0, frame = 32
ARM GAS  C:\Users\xavieran\AppData\Local\Temp\ccoJxSQI.s 			page 12


 506              		@ frame_needed = 1, uses_anonymous_args = 0
 507 0000 80B5     		push	{r7, lr}
 508              		.cfi_def_cfa_offset 8
 509              		.cfi_offset 7, -8
 510              		.cfi_offset 14, -4
 511 0002 88B0     		sub	sp, sp, #32
 512              		.cfi_def_cfa_offset 40
 513 0004 00AF     		add	r7, sp, #0
 514              		.cfi_def_cfa_register 7
 110:.\my_camera_functions.c **** 	uint8 locals[8];
 111:.\my_camera_functions.c **** 	uint8 colours[4];
 112:.\my_camera_functions.c ****     int pixel;
 113:.\my_camera_functions.c ****     int y, x, i;
 114:.\my_camera_functions.c ****     
 115:.\my_camera_functions.c ****     
 116:.\my_camera_functions.c ****     
 117:.\my_camera_functions.c **** 	for(y = 0; y < 144; ++y)
 515              		.loc 1 117 0
 516 0006 0023     		movs	r3, #0
 517 0008 FB61     		str	r3, [r7, #28]
 518 000a 92E1     		b	.L23
 519              	.L37:
 118:.\my_camera_functions.c **** 	{
 119:.\my_camera_functions.c **** 		for(x = 0; x < 88; ++x)
 520              		.loc 1 119 0
 521 000c 0023     		movs	r3, #0
 522 000e BB61     		str	r3, [r7, #24]
 523 0010 88E1     		b	.L24
 524              	.L36:
 120:.\my_camera_functions.c **** 		{
 121:.\my_camera_functions.c ****             if(y == 0 || y == 143 || x == 0 || x == 87)
 525              		.loc 1 121 0
 526 0012 FB69     		ldr	r3, [r7, #28]
 527 0014 002B     		cmp	r3, #0
 528 0016 08D0     		beq	.L25
 529              		.loc 1 121 0 is_stmt 0 discriminator 1
 530 0018 FB69     		ldr	r3, [r7, #28]
 531 001a 8F2B     		cmp	r3, #143
 532 001c 05D0     		beq	.L25
 533 001e BB69     		ldr	r3, [r7, #24]
 534 0020 002B     		cmp	r3, #0
 535 0022 02D0     		beq	.L25
 536 0024 BB69     		ldr	r3, [r7, #24]
 537 0026 572B     		cmp	r3, #87
 538 0028 2BD1     		bne	.L26
 539              	.L25:
 122:.\my_camera_functions.c ****             {
 123:.\my_camera_functions.c ****                 Camera_framebuffer[y][x][0] = 127;       
 540              		.loc 1 123 0 is_stmt 1
 541 002a 9E4B     		ldr	r3, .L38
 542 002c FA69     		ldr	r2, [r7, #28]
 543 002e 5821     		movs	r1, #88
 544 0030 01FB02F1 		mul	r1, r1, r2
 545 0034 BA69     		ldr	r2, [r7, #24]
 546 0036 0A44     		add	r2, r2, r1
 547 0038 7F21     		movs	r1, #127
 548 003a 03F82210 		strb	r1, [r3, r2, lsl #2]
ARM GAS  C:\Users\xavieran\AppData\Local\Temp\ccoJxSQI.s 			page 13


 124:.\my_camera_functions.c ****                 Camera_framebuffer[y][x][2] = 127;
 549              		.loc 1 124 0
 550 003e 994A     		ldr	r2, .L38
 551 0040 FB69     		ldr	r3, [r7, #28]
 552 0042 5821     		movs	r1, #88
 553 0044 01FB03F1 		mul	r1, r1, r3
 554 0048 BB69     		ldr	r3, [r7, #24]
 555 004a 0B44     		add	r3, r3, r1
 556 004c 9B00     		lsls	r3, r3, #2
 557 004e 1344     		add	r3, r3, r2
 558 0050 7F22     		movs	r2, #127
 559 0052 9A70     		strb	r2, [r3, #2]
 125:.\my_camera_functions.c ****                 Camera_framebuffer[y][x][1] = 0;
 560              		.loc 1 125 0
 561 0054 934A     		ldr	r2, .L38
 562 0056 FB69     		ldr	r3, [r7, #28]
 563 0058 5821     		movs	r1, #88
 564 005a 01FB03F1 		mul	r1, r1, r3
 565 005e BB69     		ldr	r3, [r7, #24]
 566 0060 0B44     		add	r3, r3, r1
 567 0062 9B00     		lsls	r3, r3, #2
 568 0064 1344     		add	r3, r3, r2
 569 0066 0022     		movs	r2, #0
 570 0068 5A70     		strb	r2, [r3, #1]
 126:.\my_camera_functions.c ****                 Camera_framebuffer[y][x][3] = 0;
 571              		.loc 1 126 0
 572 006a 8E4A     		ldr	r2, .L38
 573 006c FB69     		ldr	r3, [r7, #28]
 574 006e 5821     		movs	r1, #88
 575 0070 01FB03F1 		mul	r1, r1, r3
 576 0074 BB69     		ldr	r3, [r7, #24]
 577 0076 0B44     		add	r3, r3, r1
 578 0078 9B00     		lsls	r3, r3, #2
 579 007a 1344     		add	r3, r3, r2
 580 007c 0022     		movs	r2, #0
 581 007e DA70     		strb	r2, [r3, #3]
 582 0080 4DE1     		b	.L27
 583              	.L26:
 127:.\my_camera_functions.c ****             }
 128:.\my_camera_functions.c ****             else
 129:.\my_camera_functions.c ****             {
 130:.\my_camera_functions.c **** 			    locals[0] = PixelColour(x-1,y-1);
 584              		.loc 1 130 0
 585 0082 BB69     		ldr	r3, [r7, #24]
 586 0084 DBB2     		uxtb	r3, r3
 587 0086 013B     		subs	r3, r3, #1
 588 0088 DAB2     		uxtb	r2, r3
 589 008a FB69     		ldr	r3, [r7, #28]
 590 008c DBB2     		uxtb	r3, r3
 591 008e 013B     		subs	r3, r3, #1
 592 0090 DBB2     		uxtb	r3, r3
 593 0092 1046     		mov	r0, r2
 594 0094 1946     		mov	r1, r3
 595 0096 FFF7FEFF 		bl	PixelColour
 596 009a 0346     		mov	r3, r0
 597 009c 3B72     		strb	r3, [r7, #8]
 131:.\my_camera_functions.c **** 			    locals[1] = PixelColour(x-1,y);
ARM GAS  C:\Users\xavieran\AppData\Local\Temp\ccoJxSQI.s 			page 14


 598              		.loc 1 131 0
 599 009e BB69     		ldr	r3, [r7, #24]
 600 00a0 DBB2     		uxtb	r3, r3
 601 00a2 013B     		subs	r3, r3, #1
 602 00a4 DAB2     		uxtb	r2, r3
 603 00a6 FB69     		ldr	r3, [r7, #28]
 604 00a8 DBB2     		uxtb	r3, r3
 605 00aa 1046     		mov	r0, r2
 606 00ac 1946     		mov	r1, r3
 607 00ae FFF7FEFF 		bl	PixelColour
 608 00b2 0346     		mov	r3, r0
 609 00b4 7B72     		strb	r3, [r7, #9]
 132:.\my_camera_functions.c **** 			    locals[2] = PixelColour(x-1,y+1);
 610              		.loc 1 132 0
 611 00b6 BB69     		ldr	r3, [r7, #24]
 612 00b8 DBB2     		uxtb	r3, r3
 613 00ba 013B     		subs	r3, r3, #1
 614 00bc DAB2     		uxtb	r2, r3
 615 00be FB69     		ldr	r3, [r7, #28]
 616 00c0 DBB2     		uxtb	r3, r3
 617 00c2 0133     		adds	r3, r3, #1
 618 00c4 DBB2     		uxtb	r3, r3
 619 00c6 1046     		mov	r0, r2
 620 00c8 1946     		mov	r1, r3
 621 00ca FFF7FEFF 		bl	PixelColour
 622 00ce 0346     		mov	r3, r0
 623 00d0 BB72     		strb	r3, [r7, #10]
 133:.\my_camera_functions.c **** 			    locals[3] = PixelColour(x,y-1);
 624              		.loc 1 133 0
 625 00d2 BB69     		ldr	r3, [r7, #24]
 626 00d4 DAB2     		uxtb	r2, r3
 627 00d6 FB69     		ldr	r3, [r7, #28]
 628 00d8 DBB2     		uxtb	r3, r3
 629 00da 013B     		subs	r3, r3, #1
 630 00dc DBB2     		uxtb	r3, r3
 631 00de 1046     		mov	r0, r2
 632 00e0 1946     		mov	r1, r3
 633 00e2 FFF7FEFF 		bl	PixelColour
 634 00e6 0346     		mov	r3, r0
 635 00e8 FB72     		strb	r3, [r7, #11]
 134:.\my_camera_functions.c **** 			    locals[4] = PixelColour(x,y+1);
 636              		.loc 1 134 0
 637 00ea BB69     		ldr	r3, [r7, #24]
 638 00ec DAB2     		uxtb	r2, r3
 639 00ee FB69     		ldr	r3, [r7, #28]
 640 00f0 DBB2     		uxtb	r3, r3
 641 00f2 0133     		adds	r3, r3, #1
 642 00f4 DBB2     		uxtb	r3, r3
 643 00f6 1046     		mov	r0, r2
 644 00f8 1946     		mov	r1, r3
 645 00fa FFF7FEFF 		bl	PixelColour
 646 00fe 0346     		mov	r3, r0
 647 0100 3B73     		strb	r3, [r7, #12]
 135:.\my_camera_functions.c **** 			    locals[5] = PixelColour(x+1,y-1);
 648              		.loc 1 135 0
 649 0102 BB69     		ldr	r3, [r7, #24]
 650 0104 DBB2     		uxtb	r3, r3
ARM GAS  C:\Users\xavieran\AppData\Local\Temp\ccoJxSQI.s 			page 15


 651 0106 0133     		adds	r3, r3, #1
 652 0108 DAB2     		uxtb	r2, r3
 653 010a FB69     		ldr	r3, [r7, #28]
 654 010c DBB2     		uxtb	r3, r3
 655 010e 013B     		subs	r3, r3, #1
 656 0110 DBB2     		uxtb	r3, r3
 657 0112 1046     		mov	r0, r2
 658 0114 1946     		mov	r1, r3
 659 0116 FFF7FEFF 		bl	PixelColour
 660 011a 0346     		mov	r3, r0
 661 011c 7B73     		strb	r3, [r7, #13]
 136:.\my_camera_functions.c **** 			    locals[6] = PixelColour(x+1,y);
 662              		.loc 1 136 0
 663 011e BB69     		ldr	r3, [r7, #24]
 664 0120 DBB2     		uxtb	r3, r3
 665 0122 0133     		adds	r3, r3, #1
 666 0124 DAB2     		uxtb	r2, r3
 667 0126 FB69     		ldr	r3, [r7, #28]
 668 0128 DBB2     		uxtb	r3, r3
 669 012a 1046     		mov	r0, r2
 670 012c 1946     		mov	r1, r3
 671 012e FFF7FEFF 		bl	PixelColour
 672 0132 0346     		mov	r3, r0
 673 0134 BB73     		strb	r3, [r7, #14]
 137:.\my_camera_functions.c **** 			    locals[7] = PixelColour(x+1,y+1);
 674              		.loc 1 137 0
 675 0136 BB69     		ldr	r3, [r7, #24]
 676 0138 DBB2     		uxtb	r3, r3
 677 013a 0133     		adds	r3, r3, #1
 678 013c DAB2     		uxtb	r2, r3
 679 013e FB69     		ldr	r3, [r7, #28]
 680 0140 DBB2     		uxtb	r3, r3
 681 0142 0133     		adds	r3, r3, #1
 682 0144 DBB2     		uxtb	r3, r3
 683 0146 1046     		mov	r0, r2
 684 0148 1946     		mov	r1, r3
 685 014a FFF7FEFF 		bl	PixelColour
 686 014e 0346     		mov	r3, r0
 687 0150 FB73     		strb	r3, [r7, #15]
 138:.\my_camera_functions.c **** 			    for(i = 0; i < 8; ++i)
 688              		.loc 1 138 0
 689 0152 0023     		movs	r3, #0
 690 0154 7B61     		str	r3, [r7, #20]
 691 0156 3AE0     		b	.L28
 692              	.L29:
 139:.\my_camera_functions.c ****     			{
 140:.\my_camera_functions.c **** 	    			colours[0] += locals[i] == NONE;
 693              		.loc 1 140 0 discriminator 2
 694 0158 3A79     		ldrb	r2, [r7, #4]	@ zero_extendqisi2
 695 015a 07F10801 		add	r1, r7, #8
 696 015e 7B69     		ldr	r3, [r7, #20]
 697 0160 0B44     		add	r3, r3, r1
 698 0162 1B78     		ldrb	r3, [r3]	@ zero_extendqisi2
 699 0164 002B     		cmp	r3, #0
 700 0166 14BF     		ite	ne
 701 0168 0023     		movne	r3, #0
 702 016a 0123     		moveq	r3, #1
ARM GAS  C:\Users\xavieran\AppData\Local\Temp\ccoJxSQI.s 			page 16


 703 016c DBB2     		uxtb	r3, r3
 704 016e 1344     		add	r3, r3, r2
 705 0170 DBB2     		uxtb	r3, r3
 706 0172 3B71     		strb	r3, [r7, #4]
 141:.\my_camera_functions.c **** 		    		colours[1] += locals[i] == RED;
 707              		.loc 1 141 0 discriminator 2
 708 0174 7A79     		ldrb	r2, [r7, #5]	@ zero_extendqisi2
 709 0176 07F10801 		add	r1, r7, #8
 710 017a 7B69     		ldr	r3, [r7, #20]
 711 017c 0B44     		add	r3, r3, r1
 712 017e 1B78     		ldrb	r3, [r3]	@ zero_extendqisi2
 713 0180 012B     		cmp	r3, #1
 714 0182 14BF     		ite	ne
 715 0184 0023     		movne	r3, #0
 716 0186 0123     		moveq	r3, #1
 717 0188 DBB2     		uxtb	r3, r3
 718 018a 1344     		add	r3, r3, r2
 719 018c DBB2     		uxtb	r3, r3
 720 018e 7B71     		strb	r3, [r7, #5]
 142:.\my_camera_functions.c **** 			    	colours[2] += locals[i] == GREEN;
 721              		.loc 1 142 0 discriminator 2
 722 0190 BA79     		ldrb	r2, [r7, #6]	@ zero_extendqisi2
 723 0192 07F10801 		add	r1, r7, #8
 724 0196 7B69     		ldr	r3, [r7, #20]
 725 0198 0B44     		add	r3, r3, r1
 726 019a 1B78     		ldrb	r3, [r3]	@ zero_extendqisi2
 727 019c 022B     		cmp	r3, #2
 728 019e 14BF     		ite	ne
 729 01a0 0023     		movne	r3, #0
 730 01a2 0123     		moveq	r3, #1
 731 01a4 DBB2     		uxtb	r3, r3
 732 01a6 1344     		add	r3, r3, r2
 733 01a8 DBB2     		uxtb	r3, r3
 734 01aa BB71     		strb	r3, [r7, #6]
 143:.\my_camera_functions.c **** 				    colours[3] += locals[i] == BLUE;
 735              		.loc 1 143 0 discriminator 2
 736 01ac FA79     		ldrb	r2, [r7, #7]	@ zero_extendqisi2
 737 01ae 07F10801 		add	r1, r7, #8
 738 01b2 7B69     		ldr	r3, [r7, #20]
 739 01b4 0B44     		add	r3, r3, r1
 740 01b6 1B78     		ldrb	r3, [r3]	@ zero_extendqisi2
 741 01b8 032B     		cmp	r3, #3
 742 01ba 14BF     		ite	ne
 743 01bc 0023     		movne	r3, #0
 744 01be 0123     		moveq	r3, #1
 745 01c0 DBB2     		uxtb	r3, r3
 746 01c2 1344     		add	r3, r3, r2
 747 01c4 DBB2     		uxtb	r3, r3
 748 01c6 FB71     		strb	r3, [r7, #7]
 138:.\my_camera_functions.c **** 			    for(i = 0; i < 8; ++i)
 749              		.loc 1 138 0 discriminator 2
 750 01c8 7B69     		ldr	r3, [r7, #20]
 751 01ca 0133     		adds	r3, r3, #1
 752 01cc 7B61     		str	r3, [r7, #20]
 753              	.L28:
 138:.\my_camera_functions.c **** 			    for(i = 0; i < 8; ++i)
 754              		.loc 1 138 0 is_stmt 0 discriminator 1
ARM GAS  C:\Users\xavieran\AppData\Local\Temp\ccoJxSQI.s 			page 17


 755 01ce 7B69     		ldr	r3, [r7, #20]
 756 01d0 072B     		cmp	r3, #7
 757 01d2 C1DD     		ble	.L29
 144:.\my_camera_functions.c ****     			}
 145:.\my_camera_functions.c ****                 Camera_framebuffer[y][x][1] = 127;
 758              		.loc 1 145 0 is_stmt 1
 759 01d4 334A     		ldr	r2, .L38
 760 01d6 FB69     		ldr	r3, [r7, #28]
 761 01d8 5821     		movs	r1, #88
 762 01da 01FB03F1 		mul	r1, r1, r3
 763 01de BB69     		ldr	r3, [r7, #24]
 764 01e0 0B44     		add	r3, r3, r1
 765 01e2 9B00     		lsls	r3, r3, #2
 766 01e4 1344     		add	r3, r3, r2
 767 01e6 7F22     		movs	r2, #127
 768 01e8 5A70     		strb	r2, [r3, #1]
 146:.\my_camera_functions.c ****                 Camera_framebuffer[y][x][3] = 127;
 769              		.loc 1 146 0
 770 01ea 2E4A     		ldr	r2, .L38
 771 01ec FB69     		ldr	r3, [r7, #28]
 772 01ee 5821     		movs	r1, #88
 773 01f0 01FB03F1 		mul	r1, r1, r3
 774 01f4 BB69     		ldr	r3, [r7, #24]
 775 01f6 0B44     		add	r3, r3, r1
 776 01f8 9B00     		lsls	r3, r3, #2
 777 01fa 1344     		add	r3, r3, r2
 778 01fc 7F22     		movs	r2, #127
 779 01fe DA70     		strb	r2, [r3, #3]
 147:.\my_camera_functions.c **** 			    if(colours[1] >= 4)
 780              		.loc 1 147 0
 781 0200 7B79     		ldrb	r3, [r7, #5]	@ zero_extendqisi2
 782 0202 032B     		cmp	r3, #3
 783 0204 17D9     		bls	.L30
 148:.\my_camera_functions.c **** 			    {
 149:.\my_camera_functions.c **** 				    pixel = RED;
 784              		.loc 1 149 0
 785 0206 0123     		movs	r3, #1
 786 0208 3B61     		str	r3, [r7, #16]
 150:.\my_camera_functions.c **** 				    Camera_framebuffer[y][x][0] = 0;
 787              		.loc 1 150 0
 788 020a 264B     		ldr	r3, .L38
 789 020c FA69     		ldr	r2, [r7, #28]
 790 020e 5821     		movs	r1, #88
 791 0210 01FB02F1 		mul	r1, r1, r2
 792 0214 BA69     		ldr	r2, [r7, #24]
 793 0216 0A44     		add	r2, r2, r1
 794 0218 0021     		movs	r1, #0
 795 021a 03F82210 		strb	r1, [r3, r2, lsl #2]
 151:.\my_camera_functions.c ****     				Camera_framebuffer[y][x][2] = 255;
 796              		.loc 1 151 0
 797 021e 214A     		ldr	r2, .L38
 798 0220 FB69     		ldr	r3, [r7, #28]
 799 0222 5821     		movs	r1, #88
 800 0224 01FB03F1 		mul	r1, r1, r3
 801 0228 BB69     		ldr	r3, [r7, #24]
 802 022a 0B44     		add	r3, r3, r1
 803 022c 9B00     		lsls	r3, r3, #2
ARM GAS  C:\Users\xavieran\AppData\Local\Temp\ccoJxSQI.s 			page 18


 804 022e 1344     		add	r3, r3, r2
 805 0230 FF22     		movs	r2, #255
 806 0232 9A70     		strb	r2, [r3, #2]
 807 0234 65E0     		b	.L31
 808              	.L30:
 152:.\my_camera_functions.c ****                 }
 153:.\my_camera_functions.c **** 		    	else if(colours[2] >= 4)
 809              		.loc 1 153 0
 810 0236 BB79     		ldrb	r3, [r7, #6]	@ zero_extendqisi2
 811 0238 032B     		cmp	r3, #3
 812 023a 17D9     		bls	.L32
 154:.\my_camera_functions.c ****     			{
 155:.\my_camera_functions.c **** 	    			pixel = GREEN;
 813              		.loc 1 155 0
 814 023c 0223     		movs	r3, #2
 815 023e 3B61     		str	r3, [r7, #16]
 156:.\my_camera_functions.c **** 		    		Camera_framebuffer[y][x][0] = 0;
 816              		.loc 1 156 0
 817 0240 184B     		ldr	r3, .L38
 818 0242 FA69     		ldr	r2, [r7, #28]
 819 0244 5821     		movs	r1, #88
 820 0246 01FB02F1 		mul	r1, r1, r2
 821 024a BA69     		ldr	r2, [r7, #24]
 822 024c 0A44     		add	r2, r2, r1
 823 024e 0021     		movs	r1, #0
 824 0250 03F82210 		strb	r1, [r3, r2, lsl #2]
 157:.\my_camera_functions.c **** 			    	Camera_framebuffer[y][x][2] = 0;
 825              		.loc 1 157 0
 826 0254 134A     		ldr	r2, .L38
 827 0256 FB69     		ldr	r3, [r7, #28]
 828 0258 5821     		movs	r1, #88
 829 025a 01FB03F1 		mul	r1, r1, r3
 830 025e BB69     		ldr	r3, [r7, #24]
 831 0260 0B44     		add	r3, r3, r1
 832 0262 9B00     		lsls	r3, r3, #2
 833 0264 1344     		add	r3, r3, r2
 834 0266 0022     		movs	r2, #0
 835 0268 9A70     		strb	r2, [r3, #2]
 836 026a 4AE0     		b	.L31
 837              	.L32:
 158:.\my_camera_functions.c **** 	    		}
 159:.\my_camera_functions.c **** 			    else if(colours[3] >= 4)
 838              		.loc 1 159 0
 839 026c FB79     		ldrb	r3, [r7, #7]	@ zero_extendqisi2
 840 026e 032B     		cmp	r3, #3
 841 0270 1AD9     		bls	.L33
 160:.\my_camera_functions.c **** 			    {
 161:.\my_camera_functions.c ****     				pixel = BLUE;
 842              		.loc 1 161 0
 843 0272 0323     		movs	r3, #3
 844 0274 3B61     		str	r3, [r7, #16]
 162:.\my_camera_functions.c **** 	    			Camera_framebuffer[y][x][0] = 255;
 845              		.loc 1 162 0
 846 0276 0B4B     		ldr	r3, .L38
 847 0278 FA69     		ldr	r2, [r7, #28]
 848 027a 5821     		movs	r1, #88
 849 027c 01FB02F1 		mul	r1, r1, r2
ARM GAS  C:\Users\xavieran\AppData\Local\Temp\ccoJxSQI.s 			page 19


 850 0280 BA69     		ldr	r2, [r7, #24]
 851 0282 0A44     		add	r2, r2, r1
 852 0284 FF21     		movs	r1, #255
 853 0286 03F82210 		strb	r1, [r3, r2, lsl #2]
 163:.\my_camera_functions.c **** 		    		Camera_framebuffer[y][x][2] = 0;
 854              		.loc 1 163 0
 855 028a 064A     		ldr	r2, .L38
 856 028c FB69     		ldr	r3, [r7, #28]
 857 028e 5821     		movs	r1, #88
 858 0290 01FB03F1 		mul	r1, r1, r3
 859 0294 BB69     		ldr	r3, [r7, #24]
 860 0296 0B44     		add	r3, r3, r1
 861 0298 9B00     		lsls	r3, r3, #2
 862 029a 1344     		add	r3, r3, r2
 863 029c 0022     		movs	r2, #0
 864 029e 9A70     		strb	r2, [r3, #2]
 865 02a0 2FE0     		b	.L31
 866              	.L39:
 867 02a2 00BF     		.align	2
 868              	.L38:
 869 02a4 00000000 		.word	Camera_framebuffer
 870              	.L33:
 164:.\my_camera_functions.c **** 			    }
 165:.\my_camera_functions.c ****     			else //if(colours[0] >= colours[1] && colours[0] >= colours[2] && colours[0] >= colours[3])
 166:.\my_camera_functions.c **** 	    		{
 167:.\my_camera_functions.c **** 		    		pixel = NONE;
 871              		.loc 1 167 0
 872 02a8 0023     		movs	r3, #0
 873 02aa 3B61     		str	r3, [r7, #16]
 168:.\my_camera_functions.c **** 			    	Camera_framebuffer[y][x][0] = 127;
 874              		.loc 1 168 0
 875 02ac 244B     		ldr	r3, .L40
 876 02ae FA69     		ldr	r2, [r7, #28]
 877 02b0 5821     		movs	r1, #88
 878 02b2 01FB02F1 		mul	r1, r1, r2
 879 02b6 BA69     		ldr	r2, [r7, #24]
 880 02b8 0A44     		add	r2, r2, r1
 881 02ba 7F21     		movs	r1, #127
 882 02bc 03F82210 		strb	r1, [r3, r2, lsl #2]
 169:.\my_camera_functions.c **** 				    Camera_framebuffer[y][x][2] = 127;
 883              		.loc 1 169 0
 884 02c0 1F4A     		ldr	r2, .L40
 885 02c2 FB69     		ldr	r3, [r7, #28]
 886 02c4 5821     		movs	r1, #88
 887 02c6 01FB03F1 		mul	r1, r1, r3
 888 02ca BB69     		ldr	r3, [r7, #24]
 889 02cc 0B44     		add	r3, r3, r1
 890 02ce 9B00     		lsls	r3, r3, #2
 891 02d0 1344     		add	r3, r3, r2
 892 02d2 7F22     		movs	r2, #127
 893 02d4 9A70     		strb	r2, [r3, #2]
 170:.\my_camera_functions.c ****                     Camera_framebuffer[y][x][1] = 0;
 894              		.loc 1 170 0
 895 02d6 1A4A     		ldr	r2, .L40
 896 02d8 FB69     		ldr	r3, [r7, #28]
 897 02da 5821     		movs	r1, #88
 898 02dc 01FB03F1 		mul	r1, r1, r3
ARM GAS  C:\Users\xavieran\AppData\Local\Temp\ccoJxSQI.s 			page 20


 899 02e0 BB69     		ldr	r3, [r7, #24]
 900 02e2 0B44     		add	r3, r3, r1
 901 02e4 9B00     		lsls	r3, r3, #2
 902 02e6 1344     		add	r3, r3, r2
 903 02e8 0022     		movs	r2, #0
 904 02ea 5A70     		strb	r2, [r3, #1]
 171:.\my_camera_functions.c ****                     Camera_framebuffer[y][x][3] = 0;
 905              		.loc 1 171 0
 906 02ec 144A     		ldr	r2, .L40
 907 02ee FB69     		ldr	r3, [r7, #28]
 908 02f0 5821     		movs	r1, #88
 909 02f2 01FB03F1 		mul	r1, r1, r3
 910 02f6 BB69     		ldr	r3, [r7, #24]
 911 02f8 0B44     		add	r3, r3, r1
 912 02fa 9B00     		lsls	r3, r3, #2
 913 02fc 1344     		add	r3, r3, r2
 914 02fe 0022     		movs	r2, #0
 915 0300 DA70     		strb	r2, [r3, #3]
 916              	.L31:
 172:.\my_camera_functions.c **** 		    	}
 173:.\my_camera_functions.c **** 			    for(i = 0; i < 8; ++i)
 917              		.loc 1 173 0
 918 0302 0023     		movs	r3, #0
 919 0304 7B61     		str	r3, [r7, #20]
 920 0306 07E0     		b	.L34
 921              	.L35:
 174:.\my_camera_functions.c **** 			    {
 175:.\my_camera_functions.c ****     				colours[i] = 0;
 922              		.loc 1 175 0 discriminator 2
 923 0308 3A1D     		adds	r2, r7, #4
 924 030a 7B69     		ldr	r3, [r7, #20]
 925 030c 1344     		add	r3, r3, r2
 926 030e 0022     		movs	r2, #0
 927 0310 1A70     		strb	r2, [r3]
 173:.\my_camera_functions.c **** 			    for(i = 0; i < 8; ++i)
 928              		.loc 1 173 0 discriminator 2
 929 0312 7B69     		ldr	r3, [r7, #20]
 930 0314 0133     		adds	r3, r3, #1
 931 0316 7B61     		str	r3, [r7, #20]
 932              	.L34:
 173:.\my_camera_functions.c **** 			    for(i = 0; i < 8; ++i)
 933              		.loc 1 173 0 is_stmt 0 discriminator 1
 934 0318 7B69     		ldr	r3, [r7, #20]
 935 031a 072B     		cmp	r3, #7
 936 031c F4DD     		ble	.L35
 937              	.L27:
 119:.\my_camera_functions.c **** 		for(x = 0; x < 88; ++x)
 938              		.loc 1 119 0 is_stmt 1
 939 031e BB69     		ldr	r3, [r7, #24]
 940 0320 0133     		adds	r3, r3, #1
 941 0322 BB61     		str	r3, [r7, #24]
 942              	.L24:
 119:.\my_camera_functions.c **** 		for(x = 0; x < 88; ++x)
 943              		.loc 1 119 0 is_stmt 0 discriminator 1
 944 0324 BB69     		ldr	r3, [r7, #24]
 945 0326 572B     		cmp	r3, #87
 946 0328 7FF773AE 		ble	.L36
ARM GAS  C:\Users\xavieran\AppData\Local\Temp\ccoJxSQI.s 			page 21


 117:.\my_camera_functions.c **** 	for(y = 0; y < 144; ++y)
 947              		.loc 1 117 0 is_stmt 1
 948 032c FB69     		ldr	r3, [r7, #28]
 949 032e 0133     		adds	r3, r3, #1
 950 0330 FB61     		str	r3, [r7, #28]
 951              	.L23:
 117:.\my_camera_functions.c **** 	for(y = 0; y < 144; ++y)
 952              		.loc 1 117 0 is_stmt 0 discriminator 1
 953 0332 FB69     		ldr	r3, [r7, #28]
 954 0334 8F2B     		cmp	r3, #143
 955 0336 7FF769AE 		ble	.L37
 176:.\my_camera_functions.c **** 			    } 
 177:.\my_camera_functions.c ****             }
 178:.\my_camera_functions.c **** 		}
 179:.\my_camera_functions.c **** 	}
 180:.\my_camera_functions.c **** }
 956              		.loc 1 180 0 is_stmt 1
 957 033a 2037     		adds	r7, r7, #32
 958 033c BD46     		mov	sp, r7
 959              		@ sp needed
 960 033e 80BD     		pop	{r7, pc}
 961              	.L41:
 962              		.align	2
 963              	.L40:
 964 0340 00000000 		.word	Camera_framebuffer
 965              		.cfi_endproc
 966              	.LFE68:
 967              		.size	threshold_image, .-threshold_image
 968              		.global	__aeabi_i2f
 969              		.global	__aeabi_fmul
 970              		.global	__aeabi_fcmpge
 971              		.section	.text.clean_frame,"ax",%progbits
 972              		.align	2
 973              		.global	clean_frame
 974              		.thumb
 975              		.thumb_func
 976              		.type	clean_frame, %function
 977              	clean_frame:
 978              	.LFB69:
 181:.\my_camera_functions.c **** 
 182:.\my_camera_functions.c **** 
 183:.\my_camera_functions.c **** void clean_frame(int colour, float proportion, int row_limit)
 184:.\my_camera_functions.c **** {
 979              		.loc 1 184 0
 980              		.cfi_startproc
 981              		@ args = 0, pretend = 0, frame = 32
 982              		@ frame_needed = 1, uses_anonymous_args = 0
 983 0000 90B5     		push	{r4, r7, lr}
 984              		.cfi_def_cfa_offset 12
 985              		.cfi_offset 4, -12
 986              		.cfi_offset 7, -8
 987              		.cfi_offset 14, -4
 988 0002 89B0     		sub	sp, sp, #36
 989              		.cfi_def_cfa_offset 48
 990 0004 00AF     		add	r7, sp, #0
 991              		.cfi_def_cfa_register 7
 992 0006 F860     		str	r0, [r7, #12]
ARM GAS  C:\Users\xavieran\AppData\Local\Temp\ccoJxSQI.s 			page 22


 993 0008 B960     		str	r1, [r7, #8]	@ float
 994 000a 7A60     		str	r2, [r7, #4]
 185:.\my_camera_functions.c ****     int y,x,count,index = 0;
 995              		.loc 1 185 0
 996 000c 0023     		movs	r3, #0
 997 000e 3B61     		str	r3, [r7, #16]
 186:.\my_camera_functions.c ****     for(y = 0; y <= row_limit; y++)
 998              		.loc 1 186 0
 999 0010 0023     		movs	r3, #0
 1000 0012 FB61     		str	r3, [r7, #28]
 1001 0014 2FE0     		b	.L43
 1002              	.L49:
 187:.\my_camera_functions.c ****     {
 188:.\my_camera_functions.c ****         count = 0;
 1003              		.loc 1 188 0
 1004 0016 0023     		movs	r3, #0
 1005 0018 7B61     		str	r3, [r7, #20]
 189:.\my_camera_functions.c ****         for(x = 0; x < 88; x++)
 1006              		.loc 1 189 0
 1007 001a 0023     		movs	r3, #0
 1008 001c BB61     		str	r3, [r7, #24]
 1009 001e 12E0     		b	.L44
 1010              	.L46:
 190:.\my_camera_functions.c ****         {
 191:.\my_camera_functions.c ****             if(PixelColour(x,y) == colour)
 1011              		.loc 1 191 0
 1012 0020 BB69     		ldr	r3, [r7, #24]
 1013 0022 DAB2     		uxtb	r2, r3
 1014 0024 FB69     		ldr	r3, [r7, #28]
 1015 0026 DBB2     		uxtb	r3, r3
 1016 0028 1046     		mov	r0, r2
 1017 002a 1946     		mov	r1, r3
 1018 002c FFF7FEFF 		bl	PixelColour
 1019 0030 0346     		mov	r3, r0
 1020 0032 1A46     		mov	r2, r3
 1021 0034 FB68     		ldr	r3, [r7, #12]
 1022 0036 9A42     		cmp	r2, r3
 1023 0038 02D1     		bne	.L45
 192:.\my_camera_functions.c ****             {
 193:.\my_camera_functions.c ****                 count++;
 1024              		.loc 1 193 0
 1025 003a 7B69     		ldr	r3, [r7, #20]
 1026 003c 0133     		adds	r3, r3, #1
 1027 003e 7B61     		str	r3, [r7, #20]
 1028              	.L45:
 189:.\my_camera_functions.c ****         for(x = 0; x < 88; x++)
 1029              		.loc 1 189 0
 1030 0040 BB69     		ldr	r3, [r7, #24]
 1031 0042 0133     		adds	r3, r3, #1
 1032 0044 BB61     		str	r3, [r7, #24]
 1033              	.L44:
 189:.\my_camera_functions.c ****         for(x = 0; x < 88; x++)
 1034              		.loc 1 189 0 is_stmt 0 discriminator 1
 1035 0046 BB69     		ldr	r3, [r7, #24]
 1036 0048 572B     		cmp	r3, #87
 1037 004a E9DD     		ble	.L46
 194:.\my_camera_functions.c ****             }
ARM GAS  C:\Users\xavieran\AppData\Local\Temp\ccoJxSQI.s 			page 23


 195:.\my_camera_functions.c ****         }
 196:.\my_camera_functions.c ****         if(count >= proportion*88)
 1038              		.loc 1 196 0 is_stmt 1
 1039 004c 7869     		ldr	r0, [r7, #20]
 1040 004e FFF7FEFF 		bl	__aeabi_i2f
 1041 0052 0446     		mov	r4, r0
 1042 0054 B868     		ldr	r0, [r7, #8]	@ float
 1043 0056 3149     		ldr	r1, .L56
 1044 0058 FFF7FEFF 		bl	__aeabi_fmul
 1045 005c 0346     		mov	r3, r0
 1046 005e 2046     		mov	r0, r4
 1047 0060 1946     		mov	r1, r3
 1048 0062 FFF7FEFF 		bl	__aeabi_fcmpge
 1049 0066 0346     		mov	r3, r0
 1050 0068 002B     		cmp	r3, #0
 1051 006a 01D0     		beq	.L47
 197:.\my_camera_functions.c ****         {
 198:.\my_camera_functions.c ****             index = y;
 1052              		.loc 1 198 0
 1053 006c FB69     		ldr	r3, [r7, #28]
 1054 006e 3B61     		str	r3, [r7, #16]
 1055              	.L47:
 186:.\my_camera_functions.c ****     for(y = 0; y <= row_limit; y++)
 1056              		.loc 1 186 0
 1057 0070 FB69     		ldr	r3, [r7, #28]
 1058 0072 0133     		adds	r3, r3, #1
 1059 0074 FB61     		str	r3, [r7, #28]
 1060              	.L43:
 186:.\my_camera_functions.c ****     for(y = 0; y <= row_limit; y++)
 1061              		.loc 1 186 0 is_stmt 0 discriminator 1
 1062 0076 FA69     		ldr	r2, [r7, #28]
 1063 0078 7B68     		ldr	r3, [r7, #4]
 1064 007a 9A42     		cmp	r2, r3
 1065 007c CBDD     		ble	.L49
 199:.\my_camera_functions.c ****         }
 200:.\my_camera_functions.c ****     }
 201:.\my_camera_functions.c ****     for(y = 0; y <= index; y++)
 1066              		.loc 1 201 0 is_stmt 1
 1067 007e 0023     		movs	r3, #0
 1068 0080 FB61     		str	r3, [r7, #28]
 1069 0082 43E0     		b	.L50
 1070              	.L54:
 202:.\my_camera_functions.c ****     {
 203:.\my_camera_functions.c ****         for(x = 0; x < 88; x++)
 1071              		.loc 1 203 0
 1072 0084 0023     		movs	r3, #0
 1073 0086 BB61     		str	r3, [r7, #24]
 1074 0088 3AE0     		b	.L51
 1075              	.L53:
 204:.\my_camera_functions.c ****             {
 205:.\my_camera_functions.c ****                 if(PixelColour(x,y) == colour)
 1076              		.loc 1 205 0
 1077 008a BB69     		ldr	r3, [r7, #24]
 1078 008c DAB2     		uxtb	r2, r3
 1079 008e FB69     		ldr	r3, [r7, #28]
 1080 0090 DBB2     		uxtb	r3, r3
 1081 0092 1046     		mov	r0, r2
ARM GAS  C:\Users\xavieran\AppData\Local\Temp\ccoJxSQI.s 			page 24


 1082 0094 1946     		mov	r1, r3
 1083 0096 FFF7FEFF 		bl	PixelColour
 1084 009a 0346     		mov	r3, r0
 1085 009c 1A46     		mov	r2, r3
 1086 009e FB68     		ldr	r3, [r7, #12]
 1087 00a0 9A42     		cmp	r2, r3
 1088 00a2 2AD1     		bne	.L52
 206:.\my_camera_functions.c ****                 {
 207:.\my_camera_functions.c ****                     Camera_framebuffer[y][x][0] = 127;
 1089              		.loc 1 207 0
 1090 00a4 1E4B     		ldr	r3, .L56+4
 1091 00a6 FA69     		ldr	r2, [r7, #28]
 1092 00a8 5821     		movs	r1, #88
 1093 00aa 01FB02F1 		mul	r1, r1, r2
 1094 00ae BA69     		ldr	r2, [r7, #24]
 1095 00b0 0A44     		add	r2, r2, r1
 1096 00b2 7F21     		movs	r1, #127
 1097 00b4 03F82210 		strb	r1, [r3, r2, lsl #2]
 208:.\my_camera_functions.c **** 			        Camera_framebuffer[y][x][2] = 127;
 1098              		.loc 1 208 0
 1099 00b8 194A     		ldr	r2, .L56+4
 1100 00ba FB69     		ldr	r3, [r7, #28]
 1101 00bc 5821     		movs	r1, #88
 1102 00be 01FB03F1 		mul	r1, r1, r3
 1103 00c2 BB69     		ldr	r3, [r7, #24]
 1104 00c4 0B44     		add	r3, r3, r1
 1105 00c6 9B00     		lsls	r3, r3, #2
 1106 00c8 1344     		add	r3, r3, r2
 1107 00ca 7F22     		movs	r2, #127
 1108 00cc 9A70     		strb	r2, [r3, #2]
 209:.\my_camera_functions.c ****                     Camera_framebuffer[y][x][1] = 0;
 1109              		.loc 1 209 0
 1110 00ce 144A     		ldr	r2, .L56+4
 1111 00d0 FB69     		ldr	r3, [r7, #28]
 1112 00d2 5821     		movs	r1, #88
 1113 00d4 01FB03F1 		mul	r1, r1, r3
 1114 00d8 BB69     		ldr	r3, [r7, #24]
 1115 00da 0B44     		add	r3, r3, r1
 1116 00dc 9B00     		lsls	r3, r3, #2
 1117 00de 1344     		add	r3, r3, r2
 1118 00e0 0022     		movs	r2, #0
 1119 00e2 5A70     		strb	r2, [r3, #1]
 210:.\my_camera_functions.c ****                     Camera_framebuffer[y][x][3] = 0;
 1120              		.loc 1 210 0
 1121 00e4 0E4A     		ldr	r2, .L56+4
 1122 00e6 FB69     		ldr	r3, [r7, #28]
 1123 00e8 5821     		movs	r1, #88
 1124 00ea 01FB03F1 		mul	r1, r1, r3
 1125 00ee BB69     		ldr	r3, [r7, #24]
 1126 00f0 0B44     		add	r3, r3, r1
 1127 00f2 9B00     		lsls	r3, r3, #2
 1128 00f4 1344     		add	r3, r3, r2
 1129 00f6 0022     		movs	r2, #0
 1130 00f8 DA70     		strb	r2, [r3, #3]
 1131              	.L52:
 203:.\my_camera_functions.c ****         for(x = 0; x < 88; x++)
 1132              		.loc 1 203 0
ARM GAS  C:\Users\xavieran\AppData\Local\Temp\ccoJxSQI.s 			page 25


 1133 00fa BB69     		ldr	r3, [r7, #24]
 1134 00fc 0133     		adds	r3, r3, #1
 1135 00fe BB61     		str	r3, [r7, #24]
 1136              	.L51:
 203:.\my_camera_functions.c ****         for(x = 0; x < 88; x++)
 1137              		.loc 1 203 0 is_stmt 0 discriminator 1
 1138 0100 BB69     		ldr	r3, [r7, #24]
 1139 0102 572B     		cmp	r3, #87
 1140 0104 C1DD     		ble	.L53
 201:.\my_camera_functions.c ****     for(y = 0; y <= index; y++)
 1141              		.loc 1 201 0 is_stmt 1
 1142 0106 FB69     		ldr	r3, [r7, #28]
 1143 0108 0133     		adds	r3, r3, #1
 1144 010a FB61     		str	r3, [r7, #28]
 1145              	.L50:
 201:.\my_camera_functions.c ****     for(y = 0; y <= index; y++)
 1146              		.loc 1 201 0 is_stmt 0 discriminator 1
 1147 010c FA69     		ldr	r2, [r7, #28]
 1148 010e 3B69     		ldr	r3, [r7, #16]
 1149 0110 9A42     		cmp	r2, r3
 1150 0112 B7DD     		ble	.L54
 211:.\my_camera_functions.c ****                 }
 212:.\my_camera_functions.c ****             }
 213:.\my_camera_functions.c ****     }
 214:.\my_camera_functions.c **** }
 1151              		.loc 1 214 0 is_stmt 1
 1152 0114 2437     		adds	r7, r7, #36
 1153 0116 BD46     		mov	sp, r7
 1154              		@ sp needed
 1155 0118 90BD     		pop	{r4, r7, pc}
 1156              	.L57:
 1157 011a 00BF     		.align	2
 1158              	.L56:
 1159 011c 0000B042 		.word	1118830592
 1160 0120 00000000 		.word	Camera_framebuffer
 1161              		.cfi_endproc
 1162              	.LFE69:
 1163              		.size	clean_frame, .-clean_frame
 1164              		.section	.text.identify_colour_instructions,"ax",%progbits
 1165              		.align	2
 1166              		.global	identify_colour_instructions
 1167              		.thumb
 1168              		.thumb_func
 1169              		.type	identify_colour_instructions, %function
 1170              	identify_colour_instructions:
 1171              	.LFB70:
 215:.\my_camera_functions.c **** 
 216:.\my_camera_functions.c **** 
 217:.\my_camera_functions.c **** int identify_colour_instructions(int size)
 218:.\my_camera_functions.c **** {
 1172              		.loc 1 218 0
 1173              		.cfi_startproc
 1174              		@ args = 0, pretend = 0, frame = 16
 1175              		@ frame_needed = 1, uses_anonymous_args = 0
 1176              		@ link register save eliminated.
 1177 0000 80B4     		push	{r7}
 1178              		.cfi_def_cfa_offset 4
ARM GAS  C:\Users\xavieran\AppData\Local\Temp\ccoJxSQI.s 			page 26


 1179              		.cfi_offset 7, -4
 1180 0002 85B0     		sub	sp, sp, #20
 1181              		.cfi_def_cfa_offset 24
 1182 0004 00AF     		add	r7, sp, #0
 1183              		.cfi_def_cfa_register 7
 1184 0006 7860     		str	r0, [r7, #4]
 219:.\my_camera_functions.c ****     int x = -1;
 1185              		.loc 1 219 0
 1186 0008 4FF0FF33 		mov	r3, #-1
 1187 000c FB60     		str	r3, [r7, #12]
 220:.\my_camera_functions.c ****     if(blobs[0].size >= size)
 1188              		.loc 1 220 0
 1189 000e 084B     		ldr	r3, .L61
 1190 0010 1B68     		ldr	r3, [r3]
 1191 0012 5A68     		ldr	r2, [r3, #4]
 1192 0014 7B68     		ldr	r3, [r7, #4]
 1193 0016 9A42     		cmp	r2, r3
 1194 0018 03D3     		bcc	.L59
 221:.\my_camera_functions.c ****     {
 222:.\my_camera_functions.c ****         x = blobs[0].colour;
 1195              		.loc 1 222 0
 1196 001a 054B     		ldr	r3, .L61
 1197 001c 1B68     		ldr	r3, [r3]
 1198 001e 1B68     		ldr	r3, [r3]
 1199 0020 FB60     		str	r3, [r7, #12]
 1200              	.L59:
 223:.\my_camera_functions.c ****     }
 224:.\my_camera_functions.c ****     return x;
 1201              		.loc 1 224 0
 1202 0022 FB68     		ldr	r3, [r7, #12]
 225:.\my_camera_functions.c ****     //PixelColour(88/2,144/2);
 226:.\my_camera_functions.c **** }
 1203              		.loc 1 226 0
 1204 0024 1846     		mov	r0, r3
 1205 0026 1437     		adds	r7, r7, #20
 1206 0028 BD46     		mov	sp, r7
 1207              		@ sp needed
 1208 002a 5DF8047B 		ldr	r7, [sp], #4
 1209 002e 7047     		bx	lr
 1210              	.L62:
 1211              		.align	2
 1212              	.L61:
 1213 0030 00000000 		.word	blobs
 1214              		.cfi_endproc
 1215              	.LFE70:
 1216              		.size	identify_colour_instructions, .-identify_colour_instructions
 1217              		.section	.text.identify_colour_gripper,"ax",%progbits
 1218              		.align	2
 1219              		.global	identify_colour_gripper
 1220              		.thumb
 1221              		.thumb_func
 1222              		.type	identify_colour_gripper, %function
 1223              	identify_colour_gripper:
 1224              	.LFB71:
 227:.\my_camera_functions.c **** 
 228:.\my_camera_functions.c **** int identify_colour_gripper()
 229:.\my_camera_functions.c **** {
ARM GAS  C:\Users\xavieran\AppData\Local\Temp\ccoJxSQI.s 			page 27


 1225              		.loc 1 229 0
 1226              		.cfi_startproc
 1227              		@ args = 0, pretend = 0, frame = 24
 1228              		@ frame_needed = 1, uses_anonymous_args = 0
 1229 0000 80B5     		push	{r7, lr}
 1230              		.cfi_def_cfa_offset 8
 1231              		.cfi_offset 7, -8
 1232              		.cfi_offset 14, -4
 1233 0002 86B0     		sub	sp, sp, #24
 1234              		.cfi_def_cfa_offset 32
 1235 0004 00AF     		add	r7, sp, #0
 1236              		.cfi_def_cfa_register 7
 230:.\my_camera_functions.c ****     int i ,j, count[4] = {0};
 1237              		.loc 1 230 0
 1238 0006 3B46     		mov	r3, r7
 1239 0008 0022     		movs	r2, #0
 1240 000a 1A60     		str	r2, [r3]
 1241 000c 0433     		adds	r3, r3, #4
 1242 000e 0022     		movs	r2, #0
 1243 0010 1A60     		str	r2, [r3]
 1244 0012 0433     		adds	r3, r3, #4
 1245 0014 0022     		movs	r2, #0
 1246 0016 1A60     		str	r2, [r3]
 1247 0018 0433     		adds	r3, r3, #4
 1248 001a 0022     		movs	r2, #0
 1249 001c 1A60     		str	r2, [r3]
 1250 001e 0433     		adds	r3, r3, #4
 231:.\my_camera_functions.c ****     for(i = 0; i < 10; i++)
 1251              		.loc 1 231 0
 1252 0020 0023     		movs	r3, #0
 1253 0022 7B61     		str	r3, [r7, #20]
 1254 0024 28E0     		b	.L64
 1255              	.L67:
 232:.\my_camera_functions.c ****     {
 233:.\my_camera_functions.c ****         for(j = 0; j < 10; j++)
 1256              		.loc 1 233 0
 1257 0026 0023     		movs	r3, #0
 1258 0028 3B61     		str	r3, [r7, #16]
 1259 002a 1FE0     		b	.L65
 1260              	.L66:
 234:.\my_camera_functions.c ****         {
 235:.\my_camera_functions.c ****             count[PixelColour(34 + j, 143 - i)]++;
 1261              		.loc 1 235 0 discriminator 2
 1262 002c 3B69     		ldr	r3, [r7, #16]
 1263 002e DBB2     		uxtb	r3, r3
 1264 0030 2233     		adds	r3, r3, #34
 1265 0032 DAB2     		uxtb	r2, r3
 1266 0034 7B69     		ldr	r3, [r7, #20]
 1267 0036 D9B2     		uxtb	r1, r3
 1268 0038 6FF07003 		mvn	r3, #112
 1269 003c 5B1A     		subs	r3, r3, r1
 1270 003e DBB2     		uxtb	r3, r3
 1271 0040 1046     		mov	r0, r2
 1272 0042 1946     		mov	r1, r3
 1273 0044 FFF7FEFF 		bl	PixelColour
 1274 0048 0346     		mov	r3, r0
 1275 004a 1A46     		mov	r2, r3
ARM GAS  C:\Users\xavieran\AppData\Local\Temp\ccoJxSQI.s 			page 28


 1276 004c 9300     		lsls	r3, r2, #2
 1277 004e 07F11801 		add	r1, r7, #24
 1278 0052 0B44     		add	r3, r3, r1
 1279 0054 53F8183C 		ldr	r3, [r3, #-24]
 1280 0058 591C     		adds	r1, r3, #1
 1281 005a 9300     		lsls	r3, r2, #2
 1282 005c 07F11802 		add	r2, r7, #24
 1283 0060 1344     		add	r3, r3, r2
 1284 0062 43F8181C 		str	r1, [r3, #-24]
 233:.\my_camera_functions.c ****         for(j = 0; j < 10; j++)
 1285              		.loc 1 233 0 discriminator 2
 1286 0066 3B69     		ldr	r3, [r7, #16]
 1287 0068 0133     		adds	r3, r3, #1
 1288 006a 3B61     		str	r3, [r7, #16]
 1289              	.L65:
 233:.\my_camera_functions.c ****         for(j = 0; j < 10; j++)
 1290              		.loc 1 233 0 is_stmt 0 discriminator 1
 1291 006c 3B69     		ldr	r3, [r7, #16]
 1292 006e 092B     		cmp	r3, #9
 1293 0070 DCDD     		ble	.L66
 231:.\my_camera_functions.c ****     for(i = 0; i < 10; i++)
 1294              		.loc 1 231 0 is_stmt 1
 1295 0072 7B69     		ldr	r3, [r7, #20]
 1296 0074 0133     		adds	r3, r3, #1
 1297 0076 7B61     		str	r3, [r7, #20]
 1298              	.L64:
 231:.\my_camera_functions.c ****     for(i = 0; i < 10; i++)
 1299              		.loc 1 231 0 is_stmt 0 discriminator 1
 1300 0078 7B69     		ldr	r3, [r7, #20]
 1301 007a 092B     		cmp	r3, #9
 1302 007c D3DD     		ble	.L67
 236:.\my_camera_functions.c ****         }
 237:.\my_camera_functions.c ****     }
 238:.\my_camera_functions.c ****     if(count[NONE] > 50) return NONE;
 1303              		.loc 1 238 0 is_stmt 1
 1304 007e 3B68     		ldr	r3, [r7]
 1305 0080 322B     		cmp	r3, #50
 1306 0082 01DD     		ble	.L68
 1307              		.loc 1 238 0 is_stmt 0 discriminator 1
 1308 0084 0023     		movs	r3, #0
 1309 0086 0EE0     		b	.L63
 1310              	.L68:
 239:.\my_camera_functions.c ****     if(count[RED] > 80) return RED;
 1311              		.loc 1 239 0 is_stmt 1
 1312 0088 7B68     		ldr	r3, [r7, #4]
 1313 008a 502B     		cmp	r3, #80
 1314 008c 01DD     		ble	.L70
 1315              		.loc 1 239 0 is_stmt 0 discriminator 1
 1316 008e 0123     		movs	r3, #1
 1317 0090 09E0     		b	.L63
 1318              	.L70:
 240:.\my_camera_functions.c ****     if(count[BLUE] > 80) return BLUE;
 1319              		.loc 1 240 0 is_stmt 1
 1320 0092 FB68     		ldr	r3, [r7, #12]
 1321 0094 502B     		cmp	r3, #80
 1322 0096 01DD     		ble	.L71
 1323              		.loc 1 240 0 is_stmt 0 discriminator 1
ARM GAS  C:\Users\xavieran\AppData\Local\Temp\ccoJxSQI.s 			page 29


 1324 0098 0323     		movs	r3, #3
 1325 009a 04E0     		b	.L63
 1326              	.L71:
 241:.\my_camera_functions.c ****     if(count[GREEN] > 80) return GREEN;
 1327              		.loc 1 241 0 is_stmt 1
 1328 009c BB68     		ldr	r3, [r7, #8]
 1329 009e 502B     		cmp	r3, #80
 1330 00a0 01DD     		ble	.L72
 1331              		.loc 1 241 0 is_stmt 0 discriminator 1
 1332 00a2 0223     		movs	r3, #2
 1333 00a4 FFE7     		b	.L63
 1334              	.L72:
 1335              	.L63:
 242:.\my_camera_functions.c **** }
 1336              		.loc 1 242 0 is_stmt 1
 1337 00a6 1846     		mov	r0, r3
 1338 00a8 1837     		adds	r7, r7, #24
 1339 00aa BD46     		mov	sp, r7
 1340              		@ sp needed
 1341 00ac 80BD     		pop	{r7, pc}
 1342              		.cfi_endproc
 1343              	.LFE71:
 1344              		.size	identify_colour_gripper, .-identify_colour_gripper
 1345 00ae 00BF     		.section	.text.PixelLuminence,"ax",%progbits
 1346              		.align	2
 1347              		.global	PixelLuminence
 1348              		.thumb
 1349              		.thumb_func
 1350              		.type	PixelLuminence, %function
 1351              	PixelLuminence:
 1352              	.LFB72:
 243:.\my_camera_functions.c **** 
 244:.\my_camera_functions.c **** 
 245:.\my_camera_functions.c **** int PixelLuminence(int x, int y)
 246:.\my_camera_functions.c **** {
 1353              		.loc 1 246 0
 1354              		.cfi_startproc
 1355              		@ args = 0, pretend = 0, frame = 8
 1356              		@ frame_needed = 1, uses_anonymous_args = 0
 1357              		@ link register save eliminated.
 1358 0000 80B4     		push	{r7}
 1359              		.cfi_def_cfa_offset 4
 1360              		.cfi_offset 7, -4
 1361 0002 83B0     		sub	sp, sp, #12
 1362              		.cfi_def_cfa_offset 16
 1363 0004 00AF     		add	r7, sp, #0
 1364              		.cfi_def_cfa_register 7
 1365 0006 7860     		str	r0, [r7, #4]
 1366 0008 3960     		str	r1, [r7]
 247:.\my_camera_functions.c **** 	return (Camera_framebuffer[y][x][1] > 127) && (Camera_framebuffer[y][x][3] > 127);
 1367              		.loc 1 247 0
 1368 000a 124A     		ldr	r2, .L78
 1369 000c 3B68     		ldr	r3, [r7]
 1370 000e 5821     		movs	r1, #88
 1371 0010 01FB03F1 		mul	r1, r1, r3
 1372 0014 7B68     		ldr	r3, [r7, #4]
 1373 0016 0B44     		add	r3, r3, r1
ARM GAS  C:\Users\xavieran\AppData\Local\Temp\ccoJxSQI.s 			page 30


 1374 0018 9B00     		lsls	r3, r3, #2
 1375 001a 1344     		add	r3, r3, r2
 1376 001c 5B78     		ldrb	r3, [r3, #1]	@ zero_extendqisi2
 1377 001e DBB2     		uxtb	r3, r3
 1378 0020 5BB2     		sxtb	r3, r3
 1379 0022 002B     		cmp	r3, #0
 1380 0024 0FDA     		bge	.L75
 1381              		.loc 1 247 0 is_stmt 0 discriminator 1
 1382 0026 0B4A     		ldr	r2, .L78
 1383 0028 3B68     		ldr	r3, [r7]
 1384 002a 5821     		movs	r1, #88
 1385 002c 01FB03F1 		mul	r1, r1, r3
 1386 0030 7B68     		ldr	r3, [r7, #4]
 1387 0032 0B44     		add	r3, r3, r1
 1388 0034 9B00     		lsls	r3, r3, #2
 1389 0036 1344     		add	r3, r3, r2
 1390 0038 DB78     		ldrb	r3, [r3, #3]	@ zero_extendqisi2
 1391 003a DBB2     		uxtb	r3, r3
 1392 003c 5BB2     		sxtb	r3, r3
 1393 003e 002B     		cmp	r3, #0
 1394 0040 01DA     		bge	.L75
 1395              		.loc 1 247 0 discriminator 3
 1396 0042 0123     		movs	r3, #1
 1397 0044 00E0     		b	.L76
 1398              	.L75:
 1399              		.loc 1 247 0 discriminator 2
 1400 0046 0023     		movs	r3, #0
 1401              	.L76:
 248:.\my_camera_functions.c **** } 
 1402              		.loc 1 248 0 is_stmt 1 discriminator 4
 1403 0048 1846     		mov	r0, r3
 1404 004a 0C37     		adds	r7, r7, #12
 1405 004c BD46     		mov	sp, r7
 1406              		@ sp needed
 1407 004e 5DF8047B 		ldr	r7, [sp], #4
 1408 0052 7047     		bx	lr
 1409              	.L79:
 1410              		.align	2
 1411              	.L78:
 1412 0054 00000000 		.word	Camera_framebuffer
 1413              		.cfi_endproc
 1414              	.LFE72:
 1415              		.size	PixelLuminence, .-PixelLuminence
 1416              		.section	.text.threshold_black,"ax",%progbits
 1417              		.align	2
 1418              		.global	threshold_black
 1419              		.thumb
 1420              		.thumb_func
 1421              		.type	threshold_black, %function
 1422              	threshold_black:
 1423              	.LFB73:
 249:.\my_camera_functions.c **** 
 250:.\my_camera_functions.c **** 
 251:.\my_camera_functions.c **** void threshold_black()
 252:.\my_camera_functions.c **** {
 1424              		.loc 1 252 0
 1425              		.cfi_startproc
ARM GAS  C:\Users\xavieran\AppData\Local\Temp\ccoJxSQI.s 			page 31


 1426              		@ args = 0, pretend = 0, frame = 16
 1427              		@ frame_needed = 1, uses_anonymous_args = 0
 1428 0000 80B5     		push	{r7, lr}
 1429              		.cfi_def_cfa_offset 8
 1430              		.cfi_offset 7, -8
 1431              		.cfi_offset 14, -4
 1432 0002 84B0     		sub	sp, sp, #16
 1433              		.cfi_def_cfa_offset 24
 1434 0004 00AF     		add	r7, sp, #0
 1435              		.cfi_def_cfa_register 7
 253:.\my_camera_functions.c **** 	int y,x,k,i;
 254:.\my_camera_functions.c **** 	for(y = 0; y < 144; y++)
 1436              		.loc 1 254 0
 1437 0006 0023     		movs	r3, #0
 1438 0008 FB60     		str	r3, [r7, #12]
 1439 000a BBE0     		b	.L81
 1440              	.L91:
 255:.\my_camera_functions.c **** 	{
 256:.\my_camera_functions.c **** 		for(x = 0; x < 88; x++)
 1441              		.loc 1 256 0
 1442 000c 0023     		movs	r3, #0
 1443 000e BB60     		str	r3, [r7, #8]
 1444 0010 B1E0     		b	.L82
 1445              	.L90:
 257:.\my_camera_functions.c **** 		{
 258:.\my_camera_functions.c **** 			k = 0;
 1446              		.loc 1 258 0
 1447 0012 0023     		movs	r3, #0
 1448 0014 3B60     		str	r3, [r7]
 259:.\my_camera_functions.c **** 			if(y == 0 || y == 143 || x == 0 || x == 143)
 1449              		.loc 1 259 0
 1450 0016 FB68     		ldr	r3, [r7, #12]
 1451 0018 002B     		cmp	r3, #0
 1452 001a 08D0     		beq	.L83
 1453              		.loc 1 259 0 is_stmt 0 discriminator 1
 1454 001c FB68     		ldr	r3, [r7, #12]
 1455 001e 8F2B     		cmp	r3, #143
 1456 0020 05D0     		beq	.L83
 1457 0022 BB68     		ldr	r3, [r7, #8]
 1458 0024 002B     		cmp	r3, #0
 1459 0026 02D0     		beq	.L83
 1460 0028 BB68     		ldr	r3, [r7, #8]
 1461 002a 8F2B     		cmp	r3, #143
 1462 002c 24D1     		bne	.L84
 1463              	.L83:
 260:.\my_camera_functions.c **** 			{
 261:.\my_camera_functions.c **** 				for(i = 0; i < 2; i++)
 1464              		.loc 1 261 0 is_stmt 1
 1465 002e 0023     		movs	r3, #0
 1466 0030 7B60     		str	r3, [r7, #4]
 1467 0032 1DE0     		b	.L85
 1468              	.L86:
 262:.\my_camera_functions.c **** 				{
 263:.\my_camera_functions.c **** 					Camera_framebuffer[y][x][i] = 127;
 1469              		.loc 1 263 0 discriminator 2
 1470 0034 574A     		ldr	r2, .L92
 1471 0036 FB68     		ldr	r3, [r7, #12]
ARM GAS  C:\Users\xavieran\AppData\Local\Temp\ccoJxSQI.s 			page 32


 1472 0038 5821     		movs	r1, #88
 1473 003a 01FB03F1 		mul	r1, r1, r3
 1474 003e BB68     		ldr	r3, [r7, #8]
 1475 0040 0B44     		add	r3, r3, r1
 1476 0042 9900     		lsls	r1, r3, #2
 1477 0044 7B68     		ldr	r3, [r7, #4]
 1478 0046 0B44     		add	r3, r3, r1
 1479 0048 1344     		add	r3, r3, r2
 1480 004a 7F22     		movs	r2, #127
 1481 004c 1A70     		strb	r2, [r3]
 264:.\my_camera_functions.c ****                     Camera_framebuffer[y][x][i+1] = 255;
 1482              		.loc 1 264 0 discriminator 2
 1483 004e 7B68     		ldr	r3, [r7, #4]
 1484 0050 0133     		adds	r3, r3, #1
 1485 0052 504A     		ldr	r2, .L92
 1486 0054 F968     		ldr	r1, [r7, #12]
 1487 0056 5820     		movs	r0, #88
 1488 0058 00FB01F0 		mul	r0, r0, r1
 1489 005c B968     		ldr	r1, [r7, #8]
 1490 005e 0144     		add	r1, r1, r0
 1491 0060 8900     		lsls	r1, r1, #2
 1492 0062 0B44     		add	r3, r3, r1
 1493 0064 1344     		add	r3, r3, r2
 1494 0066 FF22     		movs	r2, #255
 1495 0068 1A70     		strb	r2, [r3]
 261:.\my_camera_functions.c **** 				for(i = 0; i < 2; i++)
 1496              		.loc 1 261 0 discriminator 2
 1497 006a 7B68     		ldr	r3, [r7, #4]
 1498 006c 0133     		adds	r3, r3, #1
 1499 006e 7B60     		str	r3, [r7, #4]
 1500              	.L85:
 261:.\my_camera_functions.c **** 				for(i = 0; i < 2; i++)
 1501              		.loc 1 261 0 is_stmt 0 discriminator 1
 1502 0070 7B68     		ldr	r3, [r7, #4]
 1503 0072 012B     		cmp	r3, #1
 1504 0074 DEDD     		ble	.L86
 259:.\my_camera_functions.c **** 			if(y == 0 || y == 143 || x == 0 || x == 143)
 1505              		.loc 1 259 0 is_stmt 1
 1506 0076 57E0     		b	.L87
 1507              	.L84:
 265:.\my_camera_functions.c **** 				}
 266:.\my_camera_functions.c ****             }
 267:.\my_camera_functions.c **** 			else
 268:.\my_camera_functions.c ****             {
 269:.\my_camera_functions.c **** 		    	k += PixelLuminence(x-1,y-1);
 1508              		.loc 1 269 0
 1509 0078 BB68     		ldr	r3, [r7, #8]
 1510 007a 5A1E     		subs	r2, r3, #1
 1511 007c FB68     		ldr	r3, [r7, #12]
 1512 007e 013B     		subs	r3, r3, #1
 1513 0080 1046     		mov	r0, r2
 1514 0082 1946     		mov	r1, r3
 1515 0084 FFF7FEFF 		bl	PixelLuminence
 1516 0088 0346     		mov	r3, r0
 1517 008a 3A68     		ldr	r2, [r7]
 1518 008c 1344     		add	r3, r3, r2
 1519 008e 3B60     		str	r3, [r7]
ARM GAS  C:\Users\xavieran\AppData\Local\Temp\ccoJxSQI.s 			page 33


 270:.\my_camera_functions.c **** 		    	k += PixelLuminence(x-1,y);
 1520              		.loc 1 270 0
 1521 0090 BB68     		ldr	r3, [r7, #8]
 1522 0092 013B     		subs	r3, r3, #1
 1523 0094 1846     		mov	r0, r3
 1524 0096 F968     		ldr	r1, [r7, #12]
 1525 0098 FFF7FEFF 		bl	PixelLuminence
 1526 009c 0346     		mov	r3, r0
 1527 009e 3A68     		ldr	r2, [r7]
 1528 00a0 1344     		add	r3, r3, r2
 1529 00a2 3B60     		str	r3, [r7]
 271:.\my_camera_functions.c **** 		    	k += PixelLuminence(x-1,y+1);
 1530              		.loc 1 271 0
 1531 00a4 BB68     		ldr	r3, [r7, #8]
 1532 00a6 5A1E     		subs	r2, r3, #1
 1533 00a8 FB68     		ldr	r3, [r7, #12]
 1534 00aa 0133     		adds	r3, r3, #1
 1535 00ac 1046     		mov	r0, r2
 1536 00ae 1946     		mov	r1, r3
 1537 00b0 FFF7FEFF 		bl	PixelLuminence
 1538 00b4 0346     		mov	r3, r0
 1539 00b6 3A68     		ldr	r2, [r7]
 1540 00b8 1344     		add	r3, r3, r2
 1541 00ba 3B60     		str	r3, [r7]
 272:.\my_camera_functions.c **** 		    	k += PixelLuminence(x,y-1);
 1542              		.loc 1 272 0
 1543 00bc FB68     		ldr	r3, [r7, #12]
 1544 00be 013B     		subs	r3, r3, #1
 1545 00c0 B868     		ldr	r0, [r7, #8]
 1546 00c2 1946     		mov	r1, r3
 1547 00c4 FFF7FEFF 		bl	PixelLuminence
 1548 00c8 0346     		mov	r3, r0
 1549 00ca 3A68     		ldr	r2, [r7]
 1550 00cc 1344     		add	r3, r3, r2
 1551 00ce 3B60     		str	r3, [r7]
 273:.\my_camera_functions.c **** 			   	k += PixelLuminence(x,y+1);
 1552              		.loc 1 273 0
 1553 00d0 FB68     		ldr	r3, [r7, #12]
 1554 00d2 0133     		adds	r3, r3, #1
 1555 00d4 B868     		ldr	r0, [r7, #8]
 1556 00d6 1946     		mov	r1, r3
 1557 00d8 FFF7FEFF 		bl	PixelLuminence
 1558 00dc 0346     		mov	r3, r0
 1559 00de 3A68     		ldr	r2, [r7]
 1560 00e0 1344     		add	r3, r3, r2
 1561 00e2 3B60     		str	r3, [r7]
 274:.\my_camera_functions.c **** 			   	k += PixelLuminence(x+1,y-1);
 1562              		.loc 1 274 0
 1563 00e4 BB68     		ldr	r3, [r7, #8]
 1564 00e6 5A1C     		adds	r2, r3, #1
 1565 00e8 FB68     		ldr	r3, [r7, #12]
 1566 00ea 013B     		subs	r3, r3, #1
 1567 00ec 1046     		mov	r0, r2
 1568 00ee 1946     		mov	r1, r3
 1569 00f0 FFF7FEFF 		bl	PixelLuminence
 1570 00f4 0346     		mov	r3, r0
 1571 00f6 3A68     		ldr	r2, [r7]
ARM GAS  C:\Users\xavieran\AppData\Local\Temp\ccoJxSQI.s 			page 34


 1572 00f8 1344     		add	r3, r3, r2
 1573 00fa 3B60     		str	r3, [r7]
 275:.\my_camera_functions.c **** 			   	k += PixelLuminence(x+1,y);
 1574              		.loc 1 275 0
 1575 00fc BB68     		ldr	r3, [r7, #8]
 1576 00fe 0133     		adds	r3, r3, #1
 1577 0100 1846     		mov	r0, r3
 1578 0102 F968     		ldr	r1, [r7, #12]
 1579 0104 FFF7FEFF 		bl	PixelLuminence
 1580 0108 0346     		mov	r3, r0
 1581 010a 3A68     		ldr	r2, [r7]
 1582 010c 1344     		add	r3, r3, r2
 1583 010e 3B60     		str	r3, [r7]
 276:.\my_camera_functions.c **** 			   	k += PixelLuminence(x+1,y+1);
 1584              		.loc 1 276 0
 1585 0110 BB68     		ldr	r3, [r7, #8]
 1586 0112 5A1C     		adds	r2, r3, #1
 1587 0114 FB68     		ldr	r3, [r7, #12]
 1588 0116 0133     		adds	r3, r3, #1
 1589 0118 1046     		mov	r0, r2
 1590 011a 1946     		mov	r1, r3
 1591 011c FFF7FEFF 		bl	PixelLuminence
 1592 0120 0346     		mov	r3, r0
 1593 0122 3A68     		ldr	r2, [r7]
 1594 0124 1344     		add	r3, r3, r2
 1595 0126 3B60     		str	r3, [r7]
 1596              	.L87:
 277:.\my_camera_functions.c **** 			}
 278:.\my_camera_functions.c **** 			for(i = 0; i < 2; i++)
 1597              		.loc 1 278 0
 1598 0128 0023     		movs	r3, #0
 1599 012a 7B60     		str	r3, [r7, #4]
 1600 012c 1DE0     		b	.L88
 1601              	.L89:
 279:.\my_camera_functions.c **** 			{
 280:.\my_camera_functions.c ****                 Camera_framebuffer[y][x][i] = 127;
 1602              		.loc 1 280 0 discriminator 2
 1603 012e 194A     		ldr	r2, .L92
 1604 0130 FB68     		ldr	r3, [r7, #12]
 1605 0132 5821     		movs	r1, #88
 1606 0134 01FB03F1 		mul	r1, r1, r3
 1607 0138 BB68     		ldr	r3, [r7, #8]
 1608 013a 0B44     		add	r3, r3, r1
 1609 013c 9900     		lsls	r1, r3, #2
 1610 013e 7B68     		ldr	r3, [r7, #4]
 1611 0140 0B44     		add	r3, r3, r1
 1612 0142 1344     		add	r3, r3, r2
 1613 0144 7F22     		movs	r2, #127
 1614 0146 1A70     		strb	r2, [r3]
 281:.\my_camera_functions.c **** 				Camera_framebuffer[y][x][i+1] = 0;
 1615              		.loc 1 281 0 discriminator 2
 1616 0148 7B68     		ldr	r3, [r7, #4]
 1617 014a 0133     		adds	r3, r3, #1
 1618 014c 114A     		ldr	r2, .L92
 1619 014e F968     		ldr	r1, [r7, #12]
 1620 0150 5820     		movs	r0, #88
 1621 0152 00FB01F0 		mul	r0, r0, r1
ARM GAS  C:\Users\xavieran\AppData\Local\Temp\ccoJxSQI.s 			page 35


 1622 0156 B968     		ldr	r1, [r7, #8]
 1623 0158 0144     		add	r1, r1, r0
 1624 015a 8900     		lsls	r1, r1, #2
 1625 015c 0B44     		add	r3, r3, r1
 1626 015e 1344     		add	r3, r3, r2
 1627 0160 0022     		movs	r2, #0
 1628 0162 1A70     		strb	r2, [r3]
 278:.\my_camera_functions.c **** 			for(i = 0; i < 2; i++)
 1629              		.loc 1 278 0 discriminator 2
 1630 0164 7B68     		ldr	r3, [r7, #4]
 1631 0166 0133     		adds	r3, r3, #1
 1632 0168 7B60     		str	r3, [r7, #4]
 1633              	.L88:
 278:.\my_camera_functions.c **** 			for(i = 0; i < 2; i++)
 1634              		.loc 1 278 0 is_stmt 0 discriminator 1
 1635 016a 7B68     		ldr	r3, [r7, #4]
 1636 016c 012B     		cmp	r3, #1
 1637 016e DEDD     		ble	.L89
 256:.\my_camera_functions.c **** 		for(x = 0; x < 88; x++)
 1638              		.loc 1 256 0 is_stmt 1
 1639 0170 BB68     		ldr	r3, [r7, #8]
 1640 0172 0133     		adds	r3, r3, #1
 1641 0174 BB60     		str	r3, [r7, #8]
 1642              	.L82:
 256:.\my_camera_functions.c **** 		for(x = 0; x < 88; x++)
 1643              		.loc 1 256 0 is_stmt 0 discriminator 1
 1644 0176 BB68     		ldr	r3, [r7, #8]
 1645 0178 572B     		cmp	r3, #87
 1646 017a 7FF74AAF 		ble	.L90
 254:.\my_camera_functions.c **** 	for(y = 0; y < 144; y++)
 1647              		.loc 1 254 0 is_stmt 1
 1648 017e FB68     		ldr	r3, [r7, #12]
 1649 0180 0133     		adds	r3, r3, #1
 1650 0182 FB60     		str	r3, [r7, #12]
 1651              	.L81:
 254:.\my_camera_functions.c **** 	for(y = 0; y < 144; y++)
 1652              		.loc 1 254 0 is_stmt 0 discriminator 1
 1653 0184 FB68     		ldr	r3, [r7, #12]
 1654 0186 8F2B     		cmp	r3, #143
 1655 0188 7FF740AF 		ble	.L91
 282:.\my_camera_functions.c **** 			}
 283:.\my_camera_functions.c **** 		}
 284:.\my_camera_functions.c **** 	}
 285:.\my_camera_functions.c **** }
 1656              		.loc 1 285 0 is_stmt 1
 1657 018c 1037     		adds	r7, r7, #16
 1658 018e BD46     		mov	sp, r7
 1659              		@ sp needed
 1660 0190 80BD     		pop	{r7, pc}
 1661              	.L93:
 1662 0192 00BF     		.align	2
 1663              	.L92:
 1664 0194 00000000 		.word	Camera_framebuffer
 1665              		.cfi_endproc
 1666              	.LFE73:
 1667              		.size	threshold_black, .-threshold_black
 1668              		.section	.rodata
ARM GAS  C:\Users\xavieran\AppData\Local\Temp\ccoJxSQI.s 			page 36


 1669 0041 000000   		.align	2
 1670              	.LC5:
 1671 0044 313A2563 		.ascii	"1:%c 2:%c 3:%c 4:%c\000"
 1671      20323A25 
 1671      6320333A 
 1671      25632034 
 1671      3A256300 
 1672              		.align	2
 1673              	.LC0:
 1674 0058 4B       		.byte	75
 1675 0059 52       		.byte	82
 1676 005a 47       		.byte	71
 1677 005b 42       		.byte	66
 1678              		.section	.text.read_instruction_routine,"ax",%progbits
 1679              		.align	2
 1680              		.global	read_instruction_routine
 1681              		.thumb
 1682              		.thumb_func
 1683              		.type	read_instruction_routine, %function
 1684              	read_instruction_routine:
 1685              	.LFB74:
 286:.\my_camera_functions.c **** 
 287:.\my_camera_functions.c **** void read_instruction_routine()
 288:.\my_camera_functions.c **** {
 1686              		.loc 1 288 0
 1687              		.cfi_startproc
 1688              		@ args = 0, pretend = 0, frame = 24
 1689              		@ frame_needed = 1, uses_anonymous_args = 0
 1690 0000 90B5     		push	{r4, r7, lr}
 1691              		.cfi_def_cfa_offset 12
 1692              		.cfi_offset 4, -12
 1693              		.cfi_offset 7, -8
 1694              		.cfi_offset 14, -4
 1695 0002 89B0     		sub	sp, sp, #36
 1696              		.cfi_def_cfa_offset 48
 1697 0004 02AF     		add	r7, sp, #8
 1698              		.cfi_def_cfa 7, 40
 289:.\my_camera_functions.c ****     arm_set_level(0);
 1699              		.loc 1 289 0
 1700 0006 0020     		movs	r0, #0
 1701 0008 FFF7FEFF 		bl	arm_set_level
 290:.\my_camera_functions.c ****     CyDelay(100);
 1702              		.loc 1 290 0
 1703 000c 6420     		movs	r0, #100
 1704 000e FFF7FEFF 		bl	CyDelay
 291:.\my_camera_functions.c ****     stack[0] = instruction_read();
 1705              		.loc 1 291 0
 1706 0012 FFF7FEFF 		bl	instruction_read
 1707 0016 0246     		mov	r2, r0
 1708 0018 2D4B     		ldr	r3, .L95
 1709 001a 1A60     		str	r2, [r3]
 292:.\my_camera_functions.c ****     arm_set_level(1);
 1710              		.loc 1 292 0
 1711 001c 0120     		movs	r0, #1
 1712 001e FFF7FEFF 		bl	arm_set_level
 293:.\my_camera_functions.c ****     CyDelay(100);
 1713              		.loc 1 293 0
ARM GAS  C:\Users\xavieran\AppData\Local\Temp\ccoJxSQI.s 			page 37


 1714 0022 6420     		movs	r0, #100
 1715 0024 FFF7FEFF 		bl	CyDelay
 294:.\my_camera_functions.c ****     stack[1] = instruction_read();
 1716              		.loc 1 294 0
 1717 0028 FFF7FEFF 		bl	instruction_read
 1718 002c 0246     		mov	r2, r0
 1719 002e 284B     		ldr	r3, .L95
 1720 0030 5A60     		str	r2, [r3, #4]
 295:.\my_camera_functions.c ****     arm_set_level(2);
 1721              		.loc 1 295 0
 1722 0032 0220     		movs	r0, #2
 1723 0034 FFF7FEFF 		bl	arm_set_level
 296:.\my_camera_functions.c ****     CyDelay(100);
 1724              		.loc 1 296 0
 1725 0038 6420     		movs	r0, #100
 1726 003a FFF7FEFF 		bl	CyDelay
 297:.\my_camera_functions.c ****     stack[2] = instruction_read();
 1727              		.loc 1 297 0
 1728 003e FFF7FEFF 		bl	instruction_read
 1729 0042 0246     		mov	r2, r0
 1730 0044 224B     		ldr	r3, .L95
 1731 0046 9A60     		str	r2, [r3, #8]
 298:.\my_camera_functions.c ****     arm_set_level(3);
 1732              		.loc 1 298 0
 1733 0048 0320     		movs	r0, #3
 1734 004a FFF7FEFF 		bl	arm_set_level
 299:.\my_camera_functions.c ****     CyDelay(100);
 1735              		.loc 1 299 0
 1736 004e 6420     		movs	r0, #100
 1737 0050 FFF7FEFF 		bl	CyDelay
 300:.\my_camera_functions.c ****     stack[3] = instruction_read();
 1738              		.loc 1 300 0
 1739 0054 FFF7FEFF 		bl	instruction_read
 1740 0058 0246     		mov	r2, r0
 1741 005a 1D4B     		ldr	r3, .L95
 1742 005c DA60     		str	r2, [r3, #12]
 301:.\my_camera_functions.c ****     char RGB[] = {'K','R','G','B'};
 1743              		.loc 1 301 0
 1744 005e 1D4A     		ldr	r2, .L95+4
 1745 0060 07F11403 		add	r3, r7, #20
 1746 0064 1068     		ldr	r0, [r2]	@ unaligned
 1747 0066 1860     		str	r0, [r3]	@ unaligned
 302:.\my_camera_functions.c ****     char display[20];
 303:.\my_camera_functions.c ****     sprintf(display,"1:%c 2:%c 3:%c 4:%c",RGB[stack[0]],RGB[stack[1]],RGB[stack[2]],RGB[stack[3]]);
 1748              		.loc 1 303 0
 1749 0068 194B     		ldr	r3, .L95
 1750 006a 1B68     		ldr	r3, [r3]
 1751 006c 07F11800 		add	r0, r7, #24
 1752 0070 0344     		add	r3, r3, r0
 1753 0072 13F8043C 		ldrb	r3, [r3, #-4]	@ zero_extendqisi2
 1754 0076 1A46     		mov	r2, r3
 1755 0078 154B     		ldr	r3, .L95
 1756 007a 5B68     		ldr	r3, [r3, #4]
 1757 007c 07F11801 		add	r1, r7, #24
 1758 0080 0B44     		add	r3, r3, r1
 1759 0082 13F8043C 		ldrb	r3, [r3, #-4]	@ zero_extendqisi2
 1760 0086 1249     		ldr	r1, .L95
ARM GAS  C:\Users\xavieran\AppData\Local\Temp\ccoJxSQI.s 			page 38


 1761 0088 8968     		ldr	r1, [r1, #8]
 1762 008a 07F11800 		add	r0, r7, #24
 1763 008e 0144     		add	r1, r1, r0
 1764 0090 11F8041C 		ldrb	r1, [r1, #-4]	@ zero_extendqisi2
 1765 0094 0C46     		mov	r4, r1
 1766 0096 0E49     		ldr	r1, .L95
 1767 0098 C968     		ldr	r1, [r1, #12]
 1768 009a 07F11800 		add	r0, r7, #24
 1769 009e 0144     		add	r1, r1, r0
 1770 00a0 11F8041C 		ldrb	r1, [r1, #-4]	@ zero_extendqisi2
 1771 00a4 0846     		mov	r0, r1
 1772 00a6 3946     		mov	r1, r7
 1773 00a8 0094     		str	r4, [sp]
 1774 00aa 0190     		str	r0, [sp, #4]
 1775 00ac 0846     		mov	r0, r1
 1776 00ae 0A49     		ldr	r1, .L95+8
 1777 00b0 FFF7FEFF 		bl	sprintf
 304:.\my_camera_functions.c ****     LCD_ClearDisplay();
 1778              		.loc 1 304 0
 1779 00b4 0120     		movs	r0, #1
 1780 00b6 FFF7FEFF 		bl	LCD_WriteControl
 305:.\my_camera_functions.c ****     LCD_PosPrintString(0,0,display);
 1781              		.loc 1 305 0
 1782 00ba 0020     		movs	r0, #0
 1783 00bc 0021     		movs	r1, #0
 1784 00be FFF7FEFF 		bl	LCD_Position
 1785 00c2 3B46     		mov	r3, r7
 1786 00c4 1846     		mov	r0, r3
 1787 00c6 FFF7FEFF 		bl	LCD_PrintString
 306:.\my_camera_functions.c **** }
 1788              		.loc 1 306 0
 1789 00ca 1C37     		adds	r7, r7, #28
 1790 00cc BD46     		mov	sp, r7
 1791              		@ sp needed
 1792 00ce 90BD     		pop	{r4, r7, pc}
 1793              	.L96:
 1794              		.align	2
 1795              	.L95:
 1796 00d0 00000000 		.word	stack
 1797 00d4 58000000 		.word	.LC0
 1798 00d8 44000000 		.word	.LC5
 1799              		.cfi_endproc
 1800              	.LFE74:
 1801              		.size	read_instruction_routine, .-read_instruction_routine
 1802              		.section	.text.instruction_read,"ax",%progbits
 1803              		.align	2
 1804              		.global	instruction_read
 1805              		.thumb
 1806              		.thumb_func
 1807              		.type	instruction_read, %function
 1808              	instruction_read:
 1809              	.LFB75:
 307:.\my_camera_functions.c **** 
 308:.\my_camera_functions.c **** int instruction_read()
 309:.\my_camera_functions.c **** {
 1810              		.loc 1 309 0
 1811              		.cfi_startproc
ARM GAS  C:\Users\xavieran\AppData\Local\Temp\ccoJxSQI.s 			page 39


 1812              		@ args = 0, pretend = 0, frame = 0
 1813              		@ frame_needed = 1, uses_anonymous_args = 0
 1814 0000 80B5     		push	{r7, lr}
 1815              		.cfi_def_cfa_offset 8
 1816              		.cfi_offset 7, -8
 1817              		.cfi_offset 14, -4
 1818 0002 00AF     		add	r7, sp, #0
 1819              		.cfi_def_cfa_register 7
 310:.\my_camera_functions.c ****     capture_thresh_image();
 1820              		.loc 1 310 0
 1821 0004 FFF7FEFF 		bl	capture_thresh_image
 311:.\my_camera_functions.c ****     return identify_colour_instructions(100);
 1822              		.loc 1 311 0
 1823 0008 6420     		movs	r0, #100
 1824 000a FFF7FEFF 		bl	identify_colour_instructions
 1825 000e 0346     		mov	r3, r0
 312:.\my_camera_functions.c **** }
 1826              		.loc 1 312 0
 1827 0010 1846     		mov	r0, r3
 1828 0012 80BD     		pop	{r7, pc}
 1829              		.cfi_endproc
 1830              	.LFE75:
 1831              		.size	instruction_read, .-instruction_read
 1832              		.section	.rodata
 1833              		.align	2
 1834              	.LC7:
 1835 005c 233A2564 		.ascii	"#:%d R:%d G:%d B:%d\000"
 1835      20523A25 
 1835      6420473A 
 1835      25642042 
 1835      3A256400 
 1836              		.align	2
 1837              	.LC8:
 1838 0070 42433A25 		.ascii	"BC:%c R:%c G:%c B:%c\000"
 1838      6320523A 
 1838      25632047 
 1838      3A256320 
 1838      423A2563 
 1839 0085 000000   		.align	2
 1840              	.LC6:
 1841 0088 4B524742 		.ascii	"KRGB\000"
 1841      00
 1842 008d 000000   		.section	.text.image_stuff4,"ax",%progbits
 1843              		.align	2
 1844              		.global	image_stuff4
 1845              		.thumb
 1846              		.thumb_func
 1847              		.type	image_stuff4, %function
 1848              	image_stuff4:
 1849              	.LFB76:
 313:.\my_camera_functions.c **** void image_stuff4()
 314:.\my_camera_functions.c **** {
 1850              		.loc 1 314 0
 1851              		.cfi_startproc
 1852              		@ args = 0, pretend = 0, frame = 56
 1853              		@ frame_needed = 1, uses_anonymous_args = 0
 1854 0000 F0B5     		push	{r4, r5, r6, r7, lr}
ARM GAS  C:\Users\xavieran\AppData\Local\Temp\ccoJxSQI.s 			page 40


 1855              		.cfi_def_cfa_offset 20
 1856              		.cfi_offset 4, -20
 1857              		.cfi_offset 5, -16
 1858              		.cfi_offset 6, -12
 1859              		.cfi_offset 7, -8
 1860              		.cfi_offset 14, -4
 1861 0002 91B0     		sub	sp, sp, #68
 1862              		.cfi_def_cfa_offset 88
 1863 0004 02AF     		add	r7, sp, #8
 1864              		.cfi_def_cfa 7, 80
 315:.\my_camera_functions.c ****     int x, i;
 316:.\my_camera_functions.c ****     char j,k,l,display[2][20],RGB[]="KRGB";
 1865              		.loc 1 316 0
 1866 0006 5D4A     		ldr	r2, .L112
 1867 0008 3B46     		mov	r3, r7
 1868 000a 92E80300 		ldmia	r2, {r0, r1}
 1869 000e 1860     		str	r0, [r3]
 1870 0010 0433     		adds	r3, r3, #4
 1871 0012 1970     		strb	r1, [r3]
 317:.\my_camera_functions.c ****     //capture_thresh_image();
 318:.\my_camera_functions.c ****     x = to_nearest_blob(BLUE,30,12);
 1872              		.loc 1 318 0
 1873 0014 0320     		movs	r0, #3
 1874 0016 1E21     		movs	r1, #30
 1875 0018 0C22     		movs	r2, #12
 1876 001a FFF7FEFF 		bl	to_nearest_blob
 1877 001e 3863     		str	r0, [r7, #48]
 319:.\my_camera_functions.c ****     if(x < -2)
 1878              		.loc 1 319 0
 1879 0020 3B6B     		ldr	r3, [r7, #48]
 1880 0022 13F1020F 		cmn	r3, #2
 1881 0026 03DA     		bge	.L100
 320:.\my_camera_functions.c ****     {
 321:.\my_camera_functions.c ****         j = 'L';
 1882              		.loc 1 321 0
 1883 0028 4C23     		movs	r3, #76
 1884 002a 87F83730 		strb	r3, [r7, #55]
 1885 002e 11E0     		b	.L101
 1886              	.L100:
 322:.\my_camera_functions.c ****     }
 323:.\my_camera_functions.c ****     else if(x > 2)
 1887              		.loc 1 323 0
 1888 0030 3B6B     		ldr	r3, [r7, #48]
 1889 0032 022B     		cmp	r3, #2
 1890 0034 03DD     		ble	.L102
 324:.\my_camera_functions.c ****     {
 325:.\my_camera_functions.c ****         j = 'R';
 1891              		.loc 1 325 0
 1892 0036 5223     		movs	r3, #82
 1893 0038 87F83730 		strb	r3, [r7, #55]
 1894 003c 0AE0     		b	.L101
 1895              	.L102:
 326:.\my_camera_functions.c ****     }
 327:.\my_camera_functions.c ****     else if(x == -1)
 1896              		.loc 1 327 0
 1897 003e 3B6B     		ldr	r3, [r7, #48]
 1898 0040 B3F1FF3F 		cmp	r3, #-1
ARM GAS  C:\Users\xavieran\AppData\Local\Temp\ccoJxSQI.s 			page 41


 1899 0044 03D1     		bne	.L103
 328:.\my_camera_functions.c ****     {
 329:.\my_camera_functions.c ****         j = 'N';
 1900              		.loc 1 329 0
 1901 0046 4E23     		movs	r3, #78
 1902 0048 87F83730 		strb	r3, [r7, #55]
 1903 004c 02E0     		b	.L101
 1904              	.L103:
 330:.\my_camera_functions.c ****     }
 331:.\my_camera_functions.c ****     else{j = 'C';}
 1905              		.loc 1 331 0
 1906 004e 4323     		movs	r3, #67
 1907 0050 87F83730 		strb	r3, [r7, #55]
 1908              	.L101:
 332:.\my_camera_functions.c ****     x = to_nearest_blob(RED,30,12);
 1909              		.loc 1 332 0
 1910 0054 0120     		movs	r0, #1
 1911 0056 1E21     		movs	r1, #30
 1912 0058 0C22     		movs	r2, #12
 1913 005a FFF7FEFF 		bl	to_nearest_blob
 1914 005e 3863     		str	r0, [r7, #48]
 333:.\my_camera_functions.c ****     if(x < -2)
 1915              		.loc 1 333 0
 1916 0060 3B6B     		ldr	r3, [r7, #48]
 1917 0062 13F1020F 		cmn	r3, #2
 1918 0066 03DA     		bge	.L104
 334:.\my_camera_functions.c ****     {
 335:.\my_camera_functions.c ****         k = 'L';
 1919              		.loc 1 335 0
 1920 0068 4C23     		movs	r3, #76
 1921 006a 87F83630 		strb	r3, [r7, #54]
 1922 006e 11E0     		b	.L105
 1923              	.L104:
 336:.\my_camera_functions.c ****     }
 337:.\my_camera_functions.c ****     else if(x > 2)
 1924              		.loc 1 337 0
 1925 0070 3B6B     		ldr	r3, [r7, #48]
 1926 0072 022B     		cmp	r3, #2
 1927 0074 03DD     		ble	.L106
 338:.\my_camera_functions.c ****     {
 339:.\my_camera_functions.c ****         k = 'R';
 1928              		.loc 1 339 0
 1929 0076 5223     		movs	r3, #82
 1930 0078 87F83630 		strb	r3, [r7, #54]
 1931 007c 0AE0     		b	.L105
 1932              	.L106:
 340:.\my_camera_functions.c ****     }
 341:.\my_camera_functions.c ****     else if(x == -1)
 1933              		.loc 1 341 0
 1934 007e 3B6B     		ldr	r3, [r7, #48]
 1935 0080 B3F1FF3F 		cmp	r3, #-1
 1936 0084 03D1     		bne	.L107
 342:.\my_camera_functions.c ****     {
 343:.\my_camera_functions.c ****         k = 'N';
 1937              		.loc 1 343 0
 1938 0086 4E23     		movs	r3, #78
 1939 0088 87F83630 		strb	r3, [r7, #54]
ARM GAS  C:\Users\xavieran\AppData\Local\Temp\ccoJxSQI.s 			page 42


 1940 008c 02E0     		b	.L105
 1941              	.L107:
 344:.\my_camera_functions.c ****     }
 345:.\my_camera_functions.c ****     else{k = 'C';}
 1942              		.loc 1 345 0
 1943 008e 4323     		movs	r3, #67
 1944 0090 87F83630 		strb	r3, [r7, #54]
 1945              	.L105:
 346:.\my_camera_functions.c ****     x = to_nearest_blob(GREEN,30,12);
 1946              		.loc 1 346 0
 1947 0094 0220     		movs	r0, #2
 1948 0096 1E21     		movs	r1, #30
 1949 0098 0C22     		movs	r2, #12
 1950 009a FFF7FEFF 		bl	to_nearest_blob
 1951 009e 3863     		str	r0, [r7, #48]
 347:.\my_camera_functions.c ****     if(x < -2)
 1952              		.loc 1 347 0
 1953 00a0 3B6B     		ldr	r3, [r7, #48]
 1954 00a2 13F1020F 		cmn	r3, #2
 1955 00a6 03DA     		bge	.L108
 348:.\my_camera_functions.c ****     {
 349:.\my_camera_functions.c ****         l = 'L';
 1956              		.loc 1 349 0
 1957 00a8 4C23     		movs	r3, #76
 1958 00aa 87F83530 		strb	r3, [r7, #53]
 1959 00ae 11E0     		b	.L109
 1960              	.L108:
 350:.\my_camera_functions.c ****     }
 351:.\my_camera_functions.c ****     else if(x > 2)
 1961              		.loc 1 351 0
 1962 00b0 3B6B     		ldr	r3, [r7, #48]
 1963 00b2 022B     		cmp	r3, #2
 1964 00b4 03DD     		ble	.L110
 352:.\my_camera_functions.c ****     {
 353:.\my_camera_functions.c ****         l = 'R';
 1965              		.loc 1 353 0
 1966 00b6 5223     		movs	r3, #82
 1967 00b8 87F83530 		strb	r3, [r7, #53]
 1968 00bc 0AE0     		b	.L109
 1969              	.L110:
 354:.\my_camera_functions.c ****     }
 355:.\my_camera_functions.c ****     else if(x == -1)
 1970              		.loc 1 355 0
 1971 00be 3B6B     		ldr	r3, [r7, #48]
 1972 00c0 B3F1FF3F 		cmp	r3, #-1
 1973 00c4 03D1     		bne	.L111
 356:.\my_camera_functions.c ****     {
 357:.\my_camera_functions.c ****         l = 'N';
 1974              		.loc 1 357 0
 1975 00c6 4E23     		movs	r3, #78
 1976 00c8 87F83530 		strb	r3, [r7, #53]
 1977 00cc 02E0     		b	.L109
 1978              	.L111:
 358:.\my_camera_functions.c ****     }
 359:.\my_camera_functions.c ****     else{l = 'C';}
 1979              		.loc 1 359 0
 1980 00ce 4323     		movs	r3, #67
ARM GAS  C:\Users\xavieran\AppData\Local\Temp\ccoJxSQI.s 			page 43


 1981 00d0 87F83530 		strb	r3, [r7, #53]
 1982              	.L109:
 360:.\my_camera_functions.c ****     sprintf(display[0],"#:%d R:%d G:%d B:%d",blob_count(0,30),blob_count(1,30),blob_count(2,30),blo
 1983              		.loc 1 360 0
 1984 00d4 0020     		movs	r0, #0
 1985 00d6 1E21     		movs	r1, #30
 1986 00d8 FFF7FEFF 		bl	blob_count
 1987 00dc 0346     		mov	r3, r0
 1988 00de 1D46     		mov	r5, r3
 1989 00e0 0120     		movs	r0, #1
 1990 00e2 1E21     		movs	r1, #30
 1991 00e4 FFF7FEFF 		bl	blob_count
 1992 00e8 0346     		mov	r3, r0
 1993 00ea 1C46     		mov	r4, r3
 1994 00ec 0220     		movs	r0, #2
 1995 00ee 1E21     		movs	r1, #30
 1996 00f0 FFF7FEFF 		bl	blob_count
 1997 00f4 0346     		mov	r3, r0
 1998 00f6 1E46     		mov	r6, r3
 1999 00f8 0320     		movs	r0, #3
 2000 00fa 1E21     		movs	r1, #30
 2001 00fc FFF7FEFF 		bl	blob_count
 2002 0100 0346     		mov	r3, r0
 2003 0102 1A46     		mov	r2, r3
 2004 0104 07F10803 		add	r3, r7, #8
 2005 0108 0096     		str	r6, [sp]
 2006 010a 0192     		str	r2, [sp, #4]
 2007 010c 1846     		mov	r0, r3
 2008 010e 1C49     		ldr	r1, .L112+4
 2009 0110 2A46     		mov	r2, r5
 2010 0112 2346     		mov	r3, r4
 2011 0114 FFF7FEFF 		bl	sprintf
 361:.\my_camera_functions.c ****     sprintf(display[1],"BC:%c R:%c G:%c B:%c",RGB[blobs[0].colour],k,l,j);
 2012              		.loc 1 361 0
 2013 0118 1A4B     		ldr	r3, .L112+8
 2014 011a 1B68     		ldr	r3, [r3]
 2015 011c 1B68     		ldr	r3, [r3]
 2016 011e 07F13802 		add	r2, r7, #56
 2017 0122 1344     		add	r3, r3, r2
 2018 0124 13F8383C 		ldrb	r3, [r3, #-56]	@ zero_extendqisi2
 2019 0128 1A46     		mov	r2, r3
 2020 012a 97F83630 		ldrb	r3, [r7, #54]	@ zero_extendqisi2
 2021 012e 97F83540 		ldrb	r4, [r7, #53]	@ zero_extendqisi2
 2022 0132 97F83700 		ldrb	r0, [r7, #55]	@ zero_extendqisi2
 2023 0136 07F10801 		add	r1, r7, #8
 2024 013a 1431     		adds	r1, r1, #20
 2025 013c 0094     		str	r4, [sp]
 2026 013e 0190     		str	r0, [sp, #4]
 2027 0140 0846     		mov	r0, r1
 2028 0142 1149     		ldr	r1, .L112+12
 2029 0144 FFF7FEFF 		bl	sprintf
 362:.\my_camera_functions.c ****     LCD_ClearDisplay();
 2030              		.loc 1 362 0
 2031 0148 0120     		movs	r0, #1
 2032 014a FFF7FEFF 		bl	LCD_WriteControl
 363:.\my_camera_functions.c ****     LCD_PosPrintString(0,0,display[0]);
 2033              		.loc 1 363 0
ARM GAS  C:\Users\xavieran\AppData\Local\Temp\ccoJxSQI.s 			page 44


 2034 014e 0020     		movs	r0, #0
 2035 0150 0021     		movs	r1, #0
 2036 0152 FFF7FEFF 		bl	LCD_Position
 2037 0156 07F10803 		add	r3, r7, #8
 2038 015a 1846     		mov	r0, r3
 2039 015c FFF7FEFF 		bl	LCD_PrintString
 364:.\my_camera_functions.c ****     LCD_PosPrintString(1,0,display[1]);
 2040              		.loc 1 364 0
 2041 0160 0120     		movs	r0, #1
 2042 0162 0021     		movs	r1, #0
 2043 0164 FFF7FEFF 		bl	LCD_Position
 2044 0168 07F10803 		add	r3, r7, #8
 2045 016c 1433     		adds	r3, r3, #20
 2046 016e 1846     		mov	r0, r3
 2047 0170 FFF7FEFF 		bl	LCD_PrintString
 365:.\my_camera_functions.c **** }
 2048              		.loc 1 365 0
 2049 0174 3C37     		adds	r7, r7, #60
 2050 0176 BD46     		mov	sp, r7
 2051              		@ sp needed
 2052 0178 F0BD     		pop	{r4, r5, r6, r7, pc}
 2053              	.L113:
 2054 017a 00BF     		.align	2
 2055              	.L112:
 2056 017c 88000000 		.word	.LC6
 2057 0180 5C000000 		.word	.LC7
 2058 0184 00000000 		.word	blobs
 2059 0188 70000000 		.word	.LC8
 2060              		.cfi_endproc
 2061              	.LFE76:
 2062              		.size	image_stuff4, .-image_stuff4
 2063              		.text
 2064              	.Letext0:
 2065              		.file 2 "c:\\program files (x86)\\cypress\\psoc creator\\3.2\\psoc creator\\import\\gnu\\arm\\4.8.
 2066              		.file 3 "c:\\program files (x86)\\cypress\\psoc creator\\3.2\\psoc creator\\import\\gnu\\arm\\4.8.
 2067              		.file 4 "Generated_Source\\PSoC5/cytypes.h"
 2068              		.file 5 "./blob_stats.h"
 2069              		.file 6 "Generated_Source\\PSoC5/core_cm3.h"
 2070              		.file 7 "Generated_Source\\PSoC5/Camera.h"
 2071              		.file 8 "./my_camera_functions.h"
 2072              		.section	.debug_info,"",%progbits
 2073              	.Ldebug_info0:
 2074 0000 A2050000 		.4byte	0x5a2
 2075 0004 0400     		.2byte	0x4
 2076 0006 00000000 		.4byte	.Ldebug_abbrev0
 2077 000a 04       		.byte	0x4
 2078 000b 01       		.uleb128 0x1
 2079 000c 7A000000 		.4byte	.LASF61
 2080 0010 01       		.byte	0x1
 2081 0011 00000000 		.4byte	.LASF62
 2082 0015 1D030000 		.4byte	.LASF63
 2083 0019 00000000 		.4byte	.Ldebug_ranges0+0
 2084 001d 00000000 		.4byte	0
 2085 0021 00000000 		.4byte	.Ldebug_line0
 2086 0025 02       		.uleb128 0x2
 2087 0026 01       		.byte	0x1
 2088 0027 06       		.byte	0x6
ARM GAS  C:\Users\xavieran\AppData\Local\Temp\ccoJxSQI.s 			page 45


 2089 0028 9B010000 		.4byte	.LASF0
 2090 002c 02       		.uleb128 0x2
 2091 002d 01       		.byte	0x1
 2092 002e 08       		.byte	0x8
 2093 002f 81010000 		.4byte	.LASF1
 2094 0033 02       		.uleb128 0x2
 2095 0034 02       		.byte	0x2
 2096 0035 05       		.byte	0x5
 2097 0036 4B000000 		.4byte	.LASF2
 2098 003a 02       		.uleb128 0x2
 2099 003b 02       		.byte	0x2
 2100 003c 07       		.byte	0x7
 2101 003d E2010000 		.4byte	.LASF3
 2102 0041 03       		.uleb128 0x3
 2103 0042 7C020000 		.4byte	.LASF9
 2104 0046 02       		.byte	0x2
 2105 0047 37       		.byte	0x37
 2106 0048 4C000000 		.4byte	0x4c
 2107 004c 02       		.uleb128 0x2
 2108 004d 04       		.byte	0x4
 2109 004e 05       		.byte	0x5
 2110 004f 5E010000 		.4byte	.LASF4
 2111 0053 02       		.uleb128 0x2
 2112 0054 04       		.byte	0x4
 2113 0055 07       		.byte	0x7
 2114 0056 50020000 		.4byte	.LASF5
 2115 005a 02       		.uleb128 0x2
 2116 005b 08       		.byte	0x8
 2117 005c 05       		.byte	0x5
 2118 005d 4B010000 		.4byte	.LASF6
 2119 0061 02       		.uleb128 0x2
 2120 0062 08       		.byte	0x8
 2121 0063 07       		.byte	0x7
 2122 0064 A7010000 		.4byte	.LASF7
 2123 0068 04       		.uleb128 0x4
 2124 0069 04       		.byte	0x4
 2125 006a 05       		.byte	0x5
 2126 006b 696E7400 		.ascii	"int\000"
 2127 006f 02       		.uleb128 0x2
 2128 0070 04       		.byte	0x4
 2129 0071 07       		.byte	0x7
 2130 0072 BE010000 		.4byte	.LASF8
 2131 0076 03       		.uleb128 0x3
 2132 0077 00020000 		.4byte	.LASF10
 2133 007b 03       		.byte	0x3
 2134 007c 41       		.byte	0x41
 2135 007d 41000000 		.4byte	0x41
 2136 0081 03       		.uleb128 0x3
 2137 0082 45010000 		.4byte	.LASF11
 2138 0086 04       		.byte	0x4
 2139 0087 B3       		.byte	0xb3
 2140 0088 2C000000 		.4byte	0x2c
 2141 008c 03       		.uleb128 0x3
 2142 008d 49020000 		.4byte	.LASF12
 2143 0091 04       		.byte	0x4
 2144 0092 B5       		.byte	0xb5
 2145 0093 53000000 		.4byte	0x53
ARM GAS  C:\Users\xavieran\AppData\Local\Temp\ccoJxSQI.s 			page 46


 2146 0097 02       		.uleb128 0x2
 2147 0098 04       		.byte	0x4
 2148 0099 04       		.byte	0x4
 2149 009a 3F010000 		.4byte	.LASF13
 2150 009e 02       		.uleb128 0x2
 2151 009f 08       		.byte	0x8
 2152 00a0 04       		.byte	0x4
 2153 00a1 62020000 		.4byte	.LASF14
 2154 00a5 02       		.uleb128 0x2
 2155 00a6 01       		.byte	0x1
 2156 00a7 08       		.byte	0x8
 2157 00a8 FB010000 		.4byte	.LASF15
 2158 00ac 02       		.uleb128 0x2
 2159 00ad 04       		.byte	0x4
 2160 00ae 07       		.byte	0x7
 2161 00af 62000000 		.4byte	.LASF16
 2162 00b3 05       		.uleb128 0x5
 2163 00b4 81000000 		.4byte	0x81
 2164 00b8 C3000000 		.4byte	0xc3
 2165 00bc 06       		.uleb128 0x6
 2166 00bd AC000000 		.4byte	0xac
 2167 00c1 03       		.byte	0x3
 2168 00c2 00       		.byte	0
 2169 00c3 07       		.uleb128 0x7
 2170 00c4 01       		.byte	0x1
 2171 00c5 08       		.byte	0x8
 2172 00c6 21       		.byte	0x21
 2173 00c7 E4000000 		.4byte	0xe4
 2174 00cb 08       		.uleb128 0x8
 2175 00cc 97020000 		.4byte	.LASF17
 2176 00d0 00       		.sleb128 0
 2177 00d1 09       		.uleb128 0x9
 2178 00d2 52454400 		.ascii	"RED\000"
 2179 00d6 01       		.sleb128 1
 2180 00d7 08       		.uleb128 0x8
 2181 00d8 07030000 		.4byte	.LASF18
 2182 00dc 02       		.sleb128 2
 2183 00dd 08       		.uleb128 0x8
 2184 00de 08020000 		.4byte	.LASF19
 2185 00e2 03       		.sleb128 3
 2186 00e3 00       		.byte	0
 2187 00e4 0A       		.uleb128 0xa
 2188 00e5 10       		.byte	0x10
 2189 00e6 05       		.byte	0x5
 2190 00e7 17       		.byte	0x17
 2191 00e8 1D010000 		.4byte	0x11d
 2192 00ec 0B       		.uleb128 0xb
 2193 00ed D2020000 		.4byte	.LASF20
 2194 00f1 05       		.byte	0x5
 2195 00f2 19       		.byte	0x19
 2196 00f3 68000000 		.4byte	0x68
 2197 00f7 00       		.byte	0
 2198 00f8 0B       		.uleb128 0xb
 2199 00f9 71020000 		.4byte	.LASF21
 2200 00fd 05       		.byte	0x5
 2201 00fe 1A       		.byte	0x1a
 2202 00ff 8C000000 		.4byte	0x8c
ARM GAS  C:\Users\xavieran\AppData\Local\Temp\ccoJxSQI.s 			page 47


 2203 0103 04       		.byte	0x4
 2204 0104 0B       		.uleb128 0xb
 2205 0105 F5010000 		.4byte	.LASF22
 2206 0109 05       		.byte	0x5
 2207 010a 1B       		.byte	0x1b
 2208 010b 8C000000 		.4byte	0x8c
 2209 010f 08       		.byte	0x8
 2210 0110 0B       		.uleb128 0xb
 2211 0111 74030000 		.4byte	.LASF23
 2212 0115 05       		.byte	0x5
 2213 0116 1C       		.byte	0x1c
 2214 0117 8C000000 		.4byte	0x8c
 2215 011b 0C       		.byte	0xc
 2216 011c 00       		.byte	0
 2217 011d 03       		.uleb128 0x3
 2218 011e DD010000 		.4byte	.LASF24
 2219 0122 05       		.byte	0x5
 2220 0123 1D       		.byte	0x1d
 2221 0124 E4000000 		.4byte	0xe4
 2222 0128 0C       		.uleb128 0xc
 2223 0129 D1010000 		.4byte	.LASF25
 2224 012d 01       		.byte	0x1
 2225 012e 1F       		.byte	0x1f
 2226 012f 00000000 		.4byte	.LFB63
 2227 0133 D4000000 		.4byte	.LFE63-.LFB63
 2228 0137 01       		.uleb128 0x1
 2229 0138 9C       		.byte	0x9c
 2230 0139 0C       		.uleb128 0xc
 2231 013a EC020000 		.4byte	.LASF26
 2232 013e 01       		.byte	0x1
 2233 013f 37       		.byte	0x37
 2234 0140 00000000 		.4byte	.LFB64
 2235 0144 12000000 		.4byte	.LFE64-.LFB64
 2236 0148 01       		.uleb128 0x1
 2237 0149 9C       		.byte	0x9c
 2238 014a 0C       		.uleb128 0xc
 2239 014b 0D020000 		.4byte	.LASF27
 2240 014f 01       		.byte	0x1
 2241 0150 3E       		.byte	0x3e
 2242 0151 00000000 		.4byte	.LFB65
 2243 0155 3C000000 		.4byte	.LFE65-.LFB65
 2244 0159 01       		.uleb128 0x1
 2245 015a 9C       		.byte	0x9c
 2246 015b 0D       		.uleb128 0xd
 2247 015c 9C020000 		.4byte	.LASF32
 2248 0160 01       		.byte	0x1
 2249 0161 4A       		.byte	0x4a
 2250 0162 00000000 		.4byte	.LFB66
 2251 0166 68000000 		.4byte	.LFE66-.LFB66
 2252 016a 01       		.uleb128 0x1
 2253 016b 9C       		.byte	0x9c
 2254 016c 7F010000 		.4byte	0x17f
 2255 0170 0E       		.uleb128 0xe
 2256 0171 3D000000 		.4byte	.LASF28
 2257 0175 01       		.byte	0x1
 2258 0176 4A       		.byte	0x4a
 2259 0177 68000000 		.4byte	0x68
ARM GAS  C:\Users\xavieran\AppData\Local\Temp\ccoJxSQI.s 			page 48


 2260 017b 02       		.uleb128 0x2
 2261 017c 91       		.byte	0x91
 2262 017d 74       		.sleb128 -12
 2263 017e 00       		.byte	0
 2264 017f 0F       		.uleb128 0xf
 2265 0180 18000000 		.4byte	.LASF38
 2266 0184 01       		.byte	0x1
 2267 0185 61       		.byte	0x61
 2268 0186 81000000 		.4byte	0x81
 2269 018a 00000000 		.4byte	.LFB67
 2270 018e E8000000 		.4byte	.LFE67-.LFB67
 2271 0192 01       		.uleb128 0x1
 2272 0193 9C       		.byte	0x9c
 2273 0194 B1010000 		.4byte	0x1b1
 2274 0198 10       		.uleb128 0x10
 2275 0199 7800     		.ascii	"x\000"
 2276 019b 01       		.byte	0x1
 2277 019c 61       		.byte	0x61
 2278 019d 81000000 		.4byte	0x81
 2279 01a1 02       		.uleb128 0x2
 2280 01a2 91       		.byte	0x91
 2281 01a3 77       		.sleb128 -9
 2282 01a4 10       		.uleb128 0x10
 2283 01a5 7900     		.ascii	"y\000"
 2284 01a7 01       		.byte	0x1
 2285 01a8 61       		.byte	0x61
 2286 01a9 81000000 		.4byte	0x81
 2287 01ad 02       		.uleb128 0x2
 2288 01ae 91       		.byte	0x91
 2289 01af 76       		.sleb128 -10
 2290 01b0 00       		.byte	0
 2291 01b1 11       		.uleb128 0x11
 2292 01b2 22020000 		.4byte	.LASF42
 2293 01b6 01       		.byte	0x1
 2294 01b7 6C       		.byte	0x6c
 2295 01b8 00000000 		.4byte	.LFB68
 2296 01bc 44030000 		.4byte	.LFE68-.LFB68
 2297 01c0 01       		.uleb128 0x1
 2298 01c1 9C       		.byte	0x9c
 2299 01c2 15020000 		.4byte	0x215
 2300 01c6 12       		.uleb128 0x12
 2301 01c7 32020000 		.4byte	.LASF29
 2302 01cb 01       		.byte	0x1
 2303 01cc 6E       		.byte	0x6e
 2304 01cd 15020000 		.4byte	0x215
 2305 01d1 02       		.uleb128 0x2
 2306 01d2 91       		.byte	0x91
 2307 01d3 60       		.sleb128 -32
 2308 01d4 12       		.uleb128 0x12
 2309 01d5 6C030000 		.4byte	.LASF30
 2310 01d9 01       		.byte	0x1
 2311 01da 6F       		.byte	0x6f
 2312 01db B3000000 		.4byte	0xb3
 2313 01df 02       		.uleb128 0x2
 2314 01e0 91       		.byte	0x91
 2315 01e1 5C       		.sleb128 -36
 2316 01e2 12       		.uleb128 0x12
ARM GAS  C:\Users\xavieran\AppData\Local\Temp\ccoJxSQI.s 			page 49


 2317 01e3 2B000000 		.4byte	.LASF31
 2318 01e7 01       		.byte	0x1
 2319 01e8 70       		.byte	0x70
 2320 01e9 68000000 		.4byte	0x68
 2321 01ed 02       		.uleb128 0x2
 2322 01ee 91       		.byte	0x91
 2323 01ef 68       		.sleb128 -24
 2324 01f0 13       		.uleb128 0x13
 2325 01f1 7900     		.ascii	"y\000"
 2326 01f3 01       		.byte	0x1
 2327 01f4 71       		.byte	0x71
 2328 01f5 68000000 		.4byte	0x68
 2329 01f9 02       		.uleb128 0x2
 2330 01fa 91       		.byte	0x91
 2331 01fb 74       		.sleb128 -12
 2332 01fc 13       		.uleb128 0x13
 2333 01fd 7800     		.ascii	"x\000"
 2334 01ff 01       		.byte	0x1
 2335 0200 71       		.byte	0x71
 2336 0201 68000000 		.4byte	0x68
 2337 0205 02       		.uleb128 0x2
 2338 0206 91       		.byte	0x91
 2339 0207 70       		.sleb128 -16
 2340 0208 13       		.uleb128 0x13
 2341 0209 6900     		.ascii	"i\000"
 2342 020b 01       		.byte	0x1
 2343 020c 71       		.byte	0x71
 2344 020d 68000000 		.4byte	0x68
 2345 0211 02       		.uleb128 0x2
 2346 0212 91       		.byte	0x91
 2347 0213 6C       		.sleb128 -20
 2348 0214 00       		.byte	0
 2349 0215 05       		.uleb128 0x5
 2350 0216 81000000 		.4byte	0x81
 2351 021a 25020000 		.4byte	0x225
 2352 021e 06       		.uleb128 0x6
 2353 021f AC000000 		.4byte	0xac
 2354 0223 07       		.byte	0x7
 2355 0224 00       		.byte	0
 2356 0225 0D       		.uleb128 0xd
 2357 0226 31000000 		.4byte	.LASF33
 2358 022a 01       		.byte	0x1
 2359 022b B7       		.byte	0xb7
 2360 022c 00000000 		.4byte	.LFB69
 2361 0230 24010000 		.4byte	.LFE69-.LFB69
 2362 0234 01       		.uleb128 0x1
 2363 0235 9C       		.byte	0x9c
 2364 0236 99020000 		.4byte	0x299
 2365 023a 0E       		.uleb128 0xe
 2366 023b D2020000 		.4byte	.LASF20
 2367 023f 01       		.byte	0x1
 2368 0240 B7       		.byte	0xb7
 2369 0241 68000000 		.4byte	0x68
 2370 0245 02       		.uleb128 0x2
 2371 0246 91       		.byte	0x91
 2372 0247 5C       		.sleb128 -36
 2373 0248 0E       		.uleb128 0xe
ARM GAS  C:\Users\xavieran\AppData\Local\Temp\ccoJxSQI.s 			page 50


 2374 0249 76010000 		.4byte	.LASF34
 2375 024d 01       		.byte	0x1
 2376 024e B7       		.byte	0xb7
 2377 024f 97000000 		.4byte	0x97
 2378 0253 02       		.uleb128 0x2
 2379 0254 91       		.byte	0x91
 2380 0255 58       		.sleb128 -40
 2381 0256 0E       		.uleb128 0xe
 2382 0257 F6000000 		.4byte	.LASF35
 2383 025b 01       		.byte	0x1
 2384 025c B7       		.byte	0xb7
 2385 025d 68000000 		.4byte	0x68
 2386 0261 02       		.uleb128 0x2
 2387 0262 91       		.byte	0x91
 2388 0263 54       		.sleb128 -44
 2389 0264 13       		.uleb128 0x13
 2390 0265 7900     		.ascii	"y\000"
 2391 0267 01       		.byte	0x1
 2392 0268 B9       		.byte	0xb9
 2393 0269 68000000 		.4byte	0x68
 2394 026d 02       		.uleb128 0x2
 2395 026e 91       		.byte	0x91
 2396 026f 6C       		.sleb128 -20
 2397 0270 13       		.uleb128 0x13
 2398 0271 7800     		.ascii	"x\000"
 2399 0273 01       		.byte	0x1
 2400 0274 B9       		.byte	0xb9
 2401 0275 68000000 		.4byte	0x68
 2402 0279 02       		.uleb128 0x2
 2403 027a 91       		.byte	0x91
 2404 027b 68       		.sleb128 -24
 2405 027c 12       		.uleb128 0x12
 2406 027d 76020000 		.4byte	.LASF36
 2407 0281 01       		.byte	0x1
 2408 0282 B9       		.byte	0xb9
 2409 0283 68000000 		.4byte	0x68
 2410 0287 02       		.uleb128 0x2
 2411 0288 91       		.byte	0x91
 2412 0289 64       		.sleb128 -28
 2413 028a 12       		.uleb128 0x12
 2414 028b 45000000 		.4byte	.LASF37
 2415 028f 01       		.byte	0x1
 2416 0290 B9       		.byte	0xb9
 2417 0291 68000000 		.4byte	0x68
 2418 0295 02       		.uleb128 0x2
 2419 0296 91       		.byte	0x91
 2420 0297 60       		.sleb128 -32
 2421 0298 00       		.byte	0
 2422 0299 0F       		.uleb128 0xf
 2423 029a B5020000 		.4byte	.LASF39
 2424 029e 01       		.byte	0x1
 2425 029f D9       		.byte	0xd9
 2426 02a0 68000000 		.4byte	0x68
 2427 02a4 00000000 		.4byte	.LFB70
 2428 02a8 34000000 		.4byte	.LFE70-.LFB70
 2429 02ac 01       		.uleb128 0x1
 2430 02ad 9C       		.byte	0x9c
ARM GAS  C:\Users\xavieran\AppData\Local\Temp\ccoJxSQI.s 			page 51


 2431 02ae CD020000 		.4byte	0x2cd
 2432 02b2 0E       		.uleb128 0xe
 2433 02b3 71020000 		.4byte	.LASF21
 2434 02b7 01       		.byte	0x1
 2435 02b8 D9       		.byte	0xd9
 2436 02b9 68000000 		.4byte	0x68
 2437 02bd 02       		.uleb128 0x2
 2438 02be 91       		.byte	0x91
 2439 02bf 6C       		.sleb128 -20
 2440 02c0 13       		.uleb128 0x13
 2441 02c1 7800     		.ascii	"x\000"
 2442 02c3 01       		.byte	0x1
 2443 02c4 DB       		.byte	0xdb
 2444 02c5 68000000 		.4byte	0x68
 2445 02c9 02       		.uleb128 0x2
 2446 02ca 91       		.byte	0x91
 2447 02cb 74       		.sleb128 -12
 2448 02cc 00       		.byte	0
 2449 02cd 14       		.uleb128 0x14
 2450 02ce 27010000 		.4byte	.LASF40
 2451 02d2 01       		.byte	0x1
 2452 02d3 E4       		.byte	0xe4
 2453 02d4 68000000 		.4byte	0x68
 2454 02d8 00000000 		.4byte	.LFB71
 2455 02dc AE000000 		.4byte	.LFE71-.LFB71
 2456 02e0 01       		.uleb128 0x1
 2457 02e1 9C       		.byte	0x9c
 2458 02e2 0D030000 		.4byte	0x30d
 2459 02e6 13       		.uleb128 0x13
 2460 02e7 6900     		.ascii	"i\000"
 2461 02e9 01       		.byte	0x1
 2462 02ea E6       		.byte	0xe6
 2463 02eb 68000000 		.4byte	0x68
 2464 02ef 02       		.uleb128 0x2
 2465 02f0 91       		.byte	0x91
 2466 02f1 74       		.sleb128 -12
 2467 02f2 13       		.uleb128 0x13
 2468 02f3 6A00     		.ascii	"j\000"
 2469 02f5 01       		.byte	0x1
 2470 02f6 E6       		.byte	0xe6
 2471 02f7 68000000 		.4byte	0x68
 2472 02fb 02       		.uleb128 0x2
 2473 02fc 91       		.byte	0x91
 2474 02fd 70       		.sleb128 -16
 2475 02fe 12       		.uleb128 0x12
 2476 02ff 76020000 		.4byte	.LASF36
 2477 0303 01       		.byte	0x1
 2478 0304 E6       		.byte	0xe6
 2479 0305 0D030000 		.4byte	0x30d
 2480 0309 02       		.uleb128 0x2
 2481 030a 91       		.byte	0x91
 2482 030b 60       		.sleb128 -32
 2483 030c 00       		.byte	0
 2484 030d 05       		.uleb128 0x5
 2485 030e 68000000 		.4byte	0x68
 2486 0312 1D030000 		.4byte	0x31d
 2487 0316 06       		.uleb128 0x6
ARM GAS  C:\Users\xavieran\AppData\Local\Temp\ccoJxSQI.s 			page 52


 2488 0317 AC000000 		.4byte	0xac
 2489 031b 03       		.byte	0x3
 2490 031c 00       		.byte	0
 2491 031d 0F       		.uleb128 0xf
 2492 031e 67010000 		.4byte	.LASF41
 2493 0322 01       		.byte	0x1
 2494 0323 F5       		.byte	0xf5
 2495 0324 68000000 		.4byte	0x68
 2496 0328 00000000 		.4byte	.LFB72
 2497 032c 58000000 		.4byte	.LFE72-.LFB72
 2498 0330 01       		.uleb128 0x1
 2499 0331 9C       		.byte	0x9c
 2500 0332 4F030000 		.4byte	0x34f
 2501 0336 10       		.uleb128 0x10
 2502 0337 7800     		.ascii	"x\000"
 2503 0339 01       		.byte	0x1
 2504 033a F5       		.byte	0xf5
 2505 033b 68000000 		.4byte	0x68
 2506 033f 02       		.uleb128 0x2
 2507 0340 91       		.byte	0x91
 2508 0341 74       		.sleb128 -12
 2509 0342 10       		.uleb128 0x10
 2510 0343 7900     		.ascii	"y\000"
 2511 0345 01       		.byte	0x1
 2512 0346 F5       		.byte	0xf5
 2513 0347 68000000 		.4byte	0x68
 2514 034b 02       		.uleb128 0x2
 2515 034c 91       		.byte	0x91
 2516 034d 70       		.sleb128 -16
 2517 034e 00       		.byte	0
 2518 034f 11       		.uleb128 0x11
 2519 0350 0D030000 		.4byte	.LASF43
 2520 0354 01       		.byte	0x1
 2521 0355 FB       		.byte	0xfb
 2522 0356 00000000 		.4byte	.LFB73
 2523 035a 98010000 		.4byte	.LFE73-.LFB73
 2524 035e 01       		.uleb128 0x1
 2525 035f 9C       		.byte	0x9c
 2526 0360 95030000 		.4byte	0x395
 2527 0364 13       		.uleb128 0x13
 2528 0365 7900     		.ascii	"y\000"
 2529 0367 01       		.byte	0x1
 2530 0368 FD       		.byte	0xfd
 2531 0369 68000000 		.4byte	0x68
 2532 036d 02       		.uleb128 0x2
 2533 036e 91       		.byte	0x91
 2534 036f 74       		.sleb128 -12
 2535 0370 13       		.uleb128 0x13
 2536 0371 7800     		.ascii	"x\000"
 2537 0373 01       		.byte	0x1
 2538 0374 FD       		.byte	0xfd
 2539 0375 68000000 		.4byte	0x68
 2540 0379 02       		.uleb128 0x2
 2541 037a 91       		.byte	0x91
 2542 037b 70       		.sleb128 -16
 2543 037c 13       		.uleb128 0x13
 2544 037d 6B00     		.ascii	"k\000"
ARM GAS  C:\Users\xavieran\AppData\Local\Temp\ccoJxSQI.s 			page 53


 2545 037f 01       		.byte	0x1
 2546 0380 FD       		.byte	0xfd
 2547 0381 68000000 		.4byte	0x68
 2548 0385 02       		.uleb128 0x2
 2549 0386 91       		.byte	0x91
 2550 0387 68       		.sleb128 -24
 2551 0388 13       		.uleb128 0x13
 2552 0389 6900     		.ascii	"i\000"
 2553 038b 01       		.byte	0x1
 2554 038c FD       		.byte	0xfd
 2555 038d 68000000 		.4byte	0x68
 2556 0391 02       		.uleb128 0x2
 2557 0392 91       		.byte	0x91
 2558 0393 6C       		.sleb128 -20
 2559 0394 00       		.byte	0
 2560 0395 15       		.uleb128 0x15
 2561 0396 0E010000 		.4byte	.LASF44
 2562 039a 01       		.byte	0x1
 2563 039b 1F01     		.2byte	0x11f
 2564 039d 00000000 		.4byte	.LFB74
 2565 03a1 DC000000 		.4byte	.LFE74-.LFB74
 2566 03a5 01       		.uleb128 0x1
 2567 03a6 9C       		.byte	0x9c
 2568 03a7 CA030000 		.4byte	0x3ca
 2569 03ab 16       		.uleb128 0x16
 2570 03ac 52474200 		.ascii	"RGB\000"
 2571 03b0 01       		.byte	0x1
 2572 03b1 2D01     		.2byte	0x12d
 2573 03b3 CA030000 		.4byte	0x3ca
 2574 03b7 02       		.uleb128 0x2
 2575 03b8 91       		.byte	0x91
 2576 03b9 6C       		.sleb128 -20
 2577 03ba 17       		.uleb128 0x17
 2578 03bb 69020000 		.4byte	.LASF45
 2579 03bf 01       		.byte	0x1
 2580 03c0 2E01     		.2byte	0x12e
 2581 03c2 DA030000 		.4byte	0x3da
 2582 03c6 02       		.uleb128 0x2
 2583 03c7 91       		.byte	0x91
 2584 03c8 58       		.sleb128 -40
 2585 03c9 00       		.byte	0
 2586 03ca 05       		.uleb128 0x5
 2587 03cb A5000000 		.4byte	0xa5
 2588 03cf DA030000 		.4byte	0x3da
 2589 03d3 06       		.uleb128 0x6
 2590 03d4 AC000000 		.4byte	0xac
 2591 03d8 03       		.byte	0x3
 2592 03d9 00       		.byte	0
 2593 03da 05       		.uleb128 0x5
 2594 03db A5000000 		.4byte	0xa5
 2595 03df EA030000 		.4byte	0x3ea
 2596 03e3 06       		.uleb128 0x6
 2597 03e4 AC000000 		.4byte	0xac
 2598 03e8 13       		.byte	0x13
 2599 03e9 00       		.byte	0
 2600 03ea 18       		.uleb128 0x18
 2601 03eb 86020000 		.4byte	.LASF64
ARM GAS  C:\Users\xavieran\AppData\Local\Temp\ccoJxSQI.s 			page 54


 2602 03ef 01       		.byte	0x1
 2603 03f0 3401     		.2byte	0x134
 2604 03f2 68000000 		.4byte	0x68
 2605 03f6 00000000 		.4byte	.LFB75
 2606 03fa 14000000 		.4byte	.LFE75-.LFB75
 2607 03fe 01       		.uleb128 0x1
 2608 03ff 9C       		.byte	0x9c
 2609 0400 15       		.uleb128 0x15
 2610 0401 55000000 		.4byte	.LASF46
 2611 0405 01       		.byte	0x1
 2612 0406 3901     		.2byte	0x139
 2613 0408 00000000 		.4byte	.LFB76
 2614 040c 8C010000 		.4byte	.LFE76-.LFB76
 2615 0410 01       		.uleb128 0x1
 2616 0411 9C       		.byte	0x9c
 2617 0412 75040000 		.4byte	0x475
 2618 0416 16       		.uleb128 0x16
 2619 0417 7800     		.ascii	"x\000"
 2620 0419 01       		.byte	0x1
 2621 041a 3B01     		.2byte	0x13b
 2622 041c 68000000 		.4byte	0x68
 2623 0420 02       		.uleb128 0x2
 2624 0421 91       		.byte	0x91
 2625 0422 60       		.sleb128 -32
 2626 0423 19       		.uleb128 0x19
 2627 0424 6900     		.ascii	"i\000"
 2628 0426 01       		.byte	0x1
 2629 0427 3B01     		.2byte	0x13b
 2630 0429 68000000 		.4byte	0x68
 2631 042d 16       		.uleb128 0x16
 2632 042e 6A00     		.ascii	"j\000"
 2633 0430 01       		.byte	0x1
 2634 0431 3C01     		.2byte	0x13c
 2635 0433 A5000000 		.4byte	0xa5
 2636 0437 02       		.uleb128 0x2
 2637 0438 91       		.byte	0x91
 2638 0439 67       		.sleb128 -25
 2639 043a 16       		.uleb128 0x16
 2640 043b 6B00     		.ascii	"k\000"
 2641 043d 01       		.byte	0x1
 2642 043e 3C01     		.2byte	0x13c
 2643 0440 A5000000 		.4byte	0xa5
 2644 0444 02       		.uleb128 0x2
 2645 0445 91       		.byte	0x91
 2646 0446 66       		.sleb128 -26
 2647 0447 16       		.uleb128 0x16
 2648 0448 6C00     		.ascii	"l\000"
 2649 044a 01       		.byte	0x1
 2650 044b 3C01     		.2byte	0x13c
 2651 044d A5000000 		.4byte	0xa5
 2652 0451 02       		.uleb128 0x2
 2653 0452 91       		.byte	0x91
 2654 0453 65       		.sleb128 -27
 2655 0454 17       		.uleb128 0x17
 2656 0455 69020000 		.4byte	.LASF45
 2657 0459 01       		.byte	0x1
 2658 045a 3C01     		.2byte	0x13c
ARM GAS  C:\Users\xavieran\AppData\Local\Temp\ccoJxSQI.s 			page 55


 2659 045c 75040000 		.4byte	0x475
 2660 0460 03       		.uleb128 0x3
 2661 0461 91       		.byte	0x91
 2662 0462 B87F     		.sleb128 -72
 2663 0464 16       		.uleb128 0x16
 2664 0465 52474200 		.ascii	"RGB\000"
 2665 0469 01       		.byte	0x1
 2666 046a 3C01     		.2byte	0x13c
 2667 046c 8B040000 		.4byte	0x48b
 2668 0470 03       		.uleb128 0x3
 2669 0471 91       		.byte	0x91
 2670 0472 B07F     		.sleb128 -80
 2671 0474 00       		.byte	0
 2672 0475 05       		.uleb128 0x5
 2673 0476 A5000000 		.4byte	0xa5
 2674 047a 8B040000 		.4byte	0x48b
 2675 047e 06       		.uleb128 0x6
 2676 047f AC000000 		.4byte	0xac
 2677 0483 01       		.byte	0x1
 2678 0484 06       		.uleb128 0x6
 2679 0485 AC000000 		.4byte	0xac
 2680 0489 13       		.byte	0x13
 2681 048a 00       		.byte	0
 2682 048b 05       		.uleb128 0x5
 2683 048c A5000000 		.4byte	0xa5
 2684 0490 9B040000 		.4byte	0x49b
 2685 0494 06       		.uleb128 0x6
 2686 0495 AC000000 		.4byte	0xac
 2687 0499 04       		.byte	0x4
 2688 049a 00       		.byte	0
 2689 049b 1A       		.uleb128 0x1a
 2690 049c FA020000 		.4byte	.LASF47
 2691 04a0 06       		.byte	0x6
 2692 04a1 2A06     		.2byte	0x62a
 2693 04a3 A7040000 		.4byte	0x4a7
 2694 04a7 1B       		.uleb128 0x1b
 2695 04a8 76000000 		.4byte	0x76
 2696 04ac 05       		.uleb128 0x5
 2697 04ad 81000000 		.4byte	0x81
 2698 04b1 C8040000 		.4byte	0x4c8
 2699 04b5 06       		.uleb128 0x6
 2700 04b6 AC000000 		.4byte	0xac
 2701 04ba 8F       		.byte	0x8f
 2702 04bb 06       		.uleb128 0x6
 2703 04bc AC000000 		.4byte	0xac
 2704 04c0 57       		.byte	0x57
 2705 04c1 06       		.uleb128 0x6
 2706 04c2 AC000000 		.4byte	0xac
 2707 04c6 03       		.byte	0x3
 2708 04c7 00       		.byte	0
 2709 04c8 1C       		.uleb128 0x1c
 2710 04c9 D9020000 		.4byte	.LASF48
 2711 04cd 07       		.byte	0x7
 2712 04ce 08       		.byte	0x8
 2713 04cf AC040000 		.4byte	0x4ac
 2714 04d3 05       		.uleb128 0x5
 2715 04d4 03       		.byte	0x3
ARM GAS  C:\Users\xavieran\AppData\Local\Temp\ccoJxSQI.s 			page 56


 2716 04d5 00000000 		.4byte	Camera_framebuffer
 2717 04d9 1C       		.uleb128 0x1c
 2718 04da CB010000 		.4byte	.LASF49
 2719 04de 08       		.byte	0x8
 2720 04df 1F       		.byte	0x1f
 2721 04e0 0D030000 		.4byte	0x30d
 2722 04e4 05       		.uleb128 0x5
 2723 04e5 03       		.byte	0x3
 2724 04e6 00000000 		.4byte	stack
 2725 04ea 1C       		.uleb128 0x1c
 2726 04eb 8F010000 		.4byte	.LASF50
 2727 04ef 01       		.byte	0x1
 2728 04f0 12       		.byte	0x12
 2729 04f1 81000000 		.4byte	0x81
 2730 04f5 05       		.uleb128 0x5
 2731 04f6 03       		.byte	0x3
 2732 04f7 00000000 		.4byte	RED_U
 2733 04fb 1C       		.uleb128 0x1c
 2734 04fc 95010000 		.4byte	.LASF51
 2735 0500 01       		.byte	0x1
 2736 0501 13       		.byte	0x13
 2737 0502 81000000 		.4byte	0x81
 2738 0506 05       		.uleb128 0x5
 2739 0507 03       		.byte	0x3
 2740 0508 00000000 		.4byte	RED_V
 2741 050c 1C       		.uleb128 0x1c
 2742 050d 39020000 		.4byte	.LASF52
 2743 0511 01       		.byte	0x1
 2744 0512 14       		.byte	0x14
 2745 0513 81000000 		.4byte	0x81
 2746 0517 05       		.uleb128 0x5
 2747 0518 03       		.byte	0x3
 2748 0519 00000000 		.4byte	GREEN_U
 2749 051d 1C       		.uleb128 0x1c
 2750 051e 41020000 		.4byte	.LASF53
 2751 0522 01       		.byte	0x1
 2752 0523 15       		.byte	0x15
 2753 0524 81000000 		.4byte	0x81
 2754 0528 05       		.uleb128 0x5
 2755 0529 03       		.byte	0x3
 2756 052a 00000000 		.4byte	GREEN_V
 2757 052e 1C       		.uleb128 0x1c
 2758 052f 07010000 		.4byte	.LASF54
 2759 0533 01       		.byte	0x1
 2760 0534 16       		.byte	0x16
 2761 0535 81000000 		.4byte	0x81
 2762 0539 05       		.uleb128 0x5
 2763 053a 03       		.byte	0x3
 2764 053b 00000000 		.4byte	BLUE_U
 2765 053f 1C       		.uleb128 0x1c
 2766 0540 24000000 		.4byte	.LASF55
 2767 0544 01       		.byte	0x1
 2768 0545 17       		.byte	0x17
 2769 0546 81000000 		.4byte	0x81
 2770 054a 05       		.uleb128 0x5
 2771 054b 03       		.byte	0x3
 2772 054c 00000000 		.4byte	BLUE_V
ARM GAS  C:\Users\xavieran\AppData\Local\Temp\ccoJxSQI.s 			page 57


 2773 0550 1C       		.uleb128 0x1c
 2774 0551 59010000 		.4byte	.LASF56
 2775 0555 01       		.byte	0x1
 2776 0556 18       		.byte	0x18
 2777 0557 81000000 		.4byte	0x81
 2778 055b 05       		.uleb128 0x5
 2779 055c 03       		.byte	0x3
 2780 055d 00000000 		.4byte	GAIN
 2781 0561 1C       		.uleb128 0x1c
 2782 0562 AE020000 		.4byte	.LASF57
 2783 0566 01       		.byte	0x1
 2784 0567 19       		.byte	0x19
 2785 0568 81000000 		.4byte	0x81
 2786 056c 05       		.uleb128 0x5
 2787 056d 03       		.byte	0x3
 2788 056e 00000000 		.4byte	B_GAIN
 2789 0572 1C       		.uleb128 0x1c
 2790 0573 00010000 		.4byte	.LASF58
 2791 0577 01       		.byte	0x1
 2792 0578 1A       		.byte	0x1a
 2793 0579 81000000 		.4byte	0x81
 2794 057d 05       		.uleb128 0x5
 2795 057e 03       		.byte	0x3
 2796 057f 00000000 		.4byte	R_GAIN
 2797 0583 1C       		.uleb128 0x1c
 2798 0584 6B000000 		.4byte	.LASF59
 2799 0588 01       		.byte	0x1
 2800 0589 1B       		.byte	0x1b
 2801 058a 81000000 		.4byte	0x81
 2802 058e 05       		.uleb128 0x5
 2803 058f 03       		.byte	0x3
 2804 0590 00000000 		.4byte	EXPOSURE
 2805 0594 1D       		.uleb128 0x1d
 2806 0595 74000000 		.4byte	.LASF60
 2807 0599 01       		.byte	0x1
 2808 059a 1D       		.byte	0x1d
 2809 059b 9F050000 		.4byte	0x59f
 2810 059f 1E       		.uleb128 0x1e
 2811 05a0 04       		.byte	0x4
 2812 05a1 1D010000 		.4byte	0x11d
 2813 05a5 00       		.byte	0
 2814              		.section	.debug_abbrev,"",%progbits
 2815              	.Ldebug_abbrev0:
 2816 0000 01       		.uleb128 0x1
 2817 0001 11       		.uleb128 0x11
 2818 0002 01       		.byte	0x1
 2819 0003 25       		.uleb128 0x25
 2820 0004 0E       		.uleb128 0xe
 2821 0005 13       		.uleb128 0x13
 2822 0006 0B       		.uleb128 0xb
 2823 0007 03       		.uleb128 0x3
 2824 0008 0E       		.uleb128 0xe
 2825 0009 1B       		.uleb128 0x1b
 2826 000a 0E       		.uleb128 0xe
 2827 000b 55       		.uleb128 0x55
 2828 000c 17       		.uleb128 0x17
 2829 000d 11       		.uleb128 0x11
ARM GAS  C:\Users\xavieran\AppData\Local\Temp\ccoJxSQI.s 			page 58


 2830 000e 01       		.uleb128 0x1
 2831 000f 10       		.uleb128 0x10
 2832 0010 17       		.uleb128 0x17
 2833 0011 00       		.byte	0
 2834 0012 00       		.byte	0
 2835 0013 02       		.uleb128 0x2
 2836 0014 24       		.uleb128 0x24
 2837 0015 00       		.byte	0
 2838 0016 0B       		.uleb128 0xb
 2839 0017 0B       		.uleb128 0xb
 2840 0018 3E       		.uleb128 0x3e
 2841 0019 0B       		.uleb128 0xb
 2842 001a 03       		.uleb128 0x3
 2843 001b 0E       		.uleb128 0xe
 2844 001c 00       		.byte	0
 2845 001d 00       		.byte	0
 2846 001e 03       		.uleb128 0x3
 2847 001f 16       		.uleb128 0x16
 2848 0020 00       		.byte	0
 2849 0021 03       		.uleb128 0x3
 2850 0022 0E       		.uleb128 0xe
 2851 0023 3A       		.uleb128 0x3a
 2852 0024 0B       		.uleb128 0xb
 2853 0025 3B       		.uleb128 0x3b
 2854 0026 0B       		.uleb128 0xb
 2855 0027 49       		.uleb128 0x49
 2856 0028 13       		.uleb128 0x13
 2857 0029 00       		.byte	0
 2858 002a 00       		.byte	0
 2859 002b 04       		.uleb128 0x4
 2860 002c 24       		.uleb128 0x24
 2861 002d 00       		.byte	0
 2862 002e 0B       		.uleb128 0xb
 2863 002f 0B       		.uleb128 0xb
 2864 0030 3E       		.uleb128 0x3e
 2865 0031 0B       		.uleb128 0xb
 2866 0032 03       		.uleb128 0x3
 2867 0033 08       		.uleb128 0x8
 2868 0034 00       		.byte	0
 2869 0035 00       		.byte	0
 2870 0036 05       		.uleb128 0x5
 2871 0037 01       		.uleb128 0x1
 2872 0038 01       		.byte	0x1
 2873 0039 49       		.uleb128 0x49
 2874 003a 13       		.uleb128 0x13
 2875 003b 01       		.uleb128 0x1
 2876 003c 13       		.uleb128 0x13
 2877 003d 00       		.byte	0
 2878 003e 00       		.byte	0
 2879 003f 06       		.uleb128 0x6
 2880 0040 21       		.uleb128 0x21
 2881 0041 00       		.byte	0
 2882 0042 49       		.uleb128 0x49
 2883 0043 13       		.uleb128 0x13
 2884 0044 2F       		.uleb128 0x2f
 2885 0045 0B       		.uleb128 0xb
 2886 0046 00       		.byte	0
ARM GAS  C:\Users\xavieran\AppData\Local\Temp\ccoJxSQI.s 			page 59


 2887 0047 00       		.byte	0
 2888 0048 07       		.uleb128 0x7
 2889 0049 04       		.uleb128 0x4
 2890 004a 01       		.byte	0x1
 2891 004b 0B       		.uleb128 0xb
 2892 004c 0B       		.uleb128 0xb
 2893 004d 3A       		.uleb128 0x3a
 2894 004e 0B       		.uleb128 0xb
 2895 004f 3B       		.uleb128 0x3b
 2896 0050 0B       		.uleb128 0xb
 2897 0051 01       		.uleb128 0x1
 2898 0052 13       		.uleb128 0x13
 2899 0053 00       		.byte	0
 2900 0054 00       		.byte	0
 2901 0055 08       		.uleb128 0x8
 2902 0056 28       		.uleb128 0x28
 2903 0057 00       		.byte	0
 2904 0058 03       		.uleb128 0x3
 2905 0059 0E       		.uleb128 0xe
 2906 005a 1C       		.uleb128 0x1c
 2907 005b 0D       		.uleb128 0xd
 2908 005c 00       		.byte	0
 2909 005d 00       		.byte	0
 2910 005e 09       		.uleb128 0x9
 2911 005f 28       		.uleb128 0x28
 2912 0060 00       		.byte	0
 2913 0061 03       		.uleb128 0x3
 2914 0062 08       		.uleb128 0x8
 2915 0063 1C       		.uleb128 0x1c
 2916 0064 0D       		.uleb128 0xd
 2917 0065 00       		.byte	0
 2918 0066 00       		.byte	0
 2919 0067 0A       		.uleb128 0xa
 2920 0068 13       		.uleb128 0x13
 2921 0069 01       		.byte	0x1
 2922 006a 0B       		.uleb128 0xb
 2923 006b 0B       		.uleb128 0xb
 2924 006c 3A       		.uleb128 0x3a
 2925 006d 0B       		.uleb128 0xb
 2926 006e 3B       		.uleb128 0x3b
 2927 006f 0B       		.uleb128 0xb
 2928 0070 01       		.uleb128 0x1
 2929 0071 13       		.uleb128 0x13
 2930 0072 00       		.byte	0
 2931 0073 00       		.byte	0
 2932 0074 0B       		.uleb128 0xb
 2933 0075 0D       		.uleb128 0xd
 2934 0076 00       		.byte	0
 2935 0077 03       		.uleb128 0x3
 2936 0078 0E       		.uleb128 0xe
 2937 0079 3A       		.uleb128 0x3a
 2938 007a 0B       		.uleb128 0xb
 2939 007b 3B       		.uleb128 0x3b
 2940 007c 0B       		.uleb128 0xb
 2941 007d 49       		.uleb128 0x49
 2942 007e 13       		.uleb128 0x13
 2943 007f 38       		.uleb128 0x38
ARM GAS  C:\Users\xavieran\AppData\Local\Temp\ccoJxSQI.s 			page 60


 2944 0080 0B       		.uleb128 0xb
 2945 0081 00       		.byte	0
 2946 0082 00       		.byte	0
 2947 0083 0C       		.uleb128 0xc
 2948 0084 2E       		.uleb128 0x2e
 2949 0085 00       		.byte	0
 2950 0086 3F       		.uleb128 0x3f
 2951 0087 19       		.uleb128 0x19
 2952 0088 03       		.uleb128 0x3
 2953 0089 0E       		.uleb128 0xe
 2954 008a 3A       		.uleb128 0x3a
 2955 008b 0B       		.uleb128 0xb
 2956 008c 3B       		.uleb128 0x3b
 2957 008d 0B       		.uleb128 0xb
 2958 008e 11       		.uleb128 0x11
 2959 008f 01       		.uleb128 0x1
 2960 0090 12       		.uleb128 0x12
 2961 0091 06       		.uleb128 0x6
 2962 0092 40       		.uleb128 0x40
 2963 0093 18       		.uleb128 0x18
 2964 0094 9642     		.uleb128 0x2116
 2965 0096 19       		.uleb128 0x19
 2966 0097 00       		.byte	0
 2967 0098 00       		.byte	0
 2968 0099 0D       		.uleb128 0xd
 2969 009a 2E       		.uleb128 0x2e
 2970 009b 01       		.byte	0x1
 2971 009c 3F       		.uleb128 0x3f
 2972 009d 19       		.uleb128 0x19
 2973 009e 03       		.uleb128 0x3
 2974 009f 0E       		.uleb128 0xe
 2975 00a0 3A       		.uleb128 0x3a
 2976 00a1 0B       		.uleb128 0xb
 2977 00a2 3B       		.uleb128 0x3b
 2978 00a3 0B       		.uleb128 0xb
 2979 00a4 27       		.uleb128 0x27
 2980 00a5 19       		.uleb128 0x19
 2981 00a6 11       		.uleb128 0x11
 2982 00a7 01       		.uleb128 0x1
 2983 00a8 12       		.uleb128 0x12
 2984 00a9 06       		.uleb128 0x6
 2985 00aa 40       		.uleb128 0x40
 2986 00ab 18       		.uleb128 0x18
 2987 00ac 9642     		.uleb128 0x2116
 2988 00ae 19       		.uleb128 0x19
 2989 00af 01       		.uleb128 0x1
 2990 00b0 13       		.uleb128 0x13
 2991 00b1 00       		.byte	0
 2992 00b2 00       		.byte	0
 2993 00b3 0E       		.uleb128 0xe
 2994 00b4 05       		.uleb128 0x5
 2995 00b5 00       		.byte	0
 2996 00b6 03       		.uleb128 0x3
 2997 00b7 0E       		.uleb128 0xe
 2998 00b8 3A       		.uleb128 0x3a
 2999 00b9 0B       		.uleb128 0xb
 3000 00ba 3B       		.uleb128 0x3b
ARM GAS  C:\Users\xavieran\AppData\Local\Temp\ccoJxSQI.s 			page 61


 3001 00bb 0B       		.uleb128 0xb
 3002 00bc 49       		.uleb128 0x49
 3003 00bd 13       		.uleb128 0x13
 3004 00be 02       		.uleb128 0x2
 3005 00bf 18       		.uleb128 0x18
 3006 00c0 00       		.byte	0
 3007 00c1 00       		.byte	0
 3008 00c2 0F       		.uleb128 0xf
 3009 00c3 2E       		.uleb128 0x2e
 3010 00c4 01       		.byte	0x1
 3011 00c5 3F       		.uleb128 0x3f
 3012 00c6 19       		.uleb128 0x19
 3013 00c7 03       		.uleb128 0x3
 3014 00c8 0E       		.uleb128 0xe
 3015 00c9 3A       		.uleb128 0x3a
 3016 00ca 0B       		.uleb128 0xb
 3017 00cb 3B       		.uleb128 0x3b
 3018 00cc 0B       		.uleb128 0xb
 3019 00cd 27       		.uleb128 0x27
 3020 00ce 19       		.uleb128 0x19
 3021 00cf 49       		.uleb128 0x49
 3022 00d0 13       		.uleb128 0x13
 3023 00d1 11       		.uleb128 0x11
 3024 00d2 01       		.uleb128 0x1
 3025 00d3 12       		.uleb128 0x12
 3026 00d4 06       		.uleb128 0x6
 3027 00d5 40       		.uleb128 0x40
 3028 00d6 18       		.uleb128 0x18
 3029 00d7 9742     		.uleb128 0x2117
 3030 00d9 19       		.uleb128 0x19
 3031 00da 01       		.uleb128 0x1
 3032 00db 13       		.uleb128 0x13
 3033 00dc 00       		.byte	0
 3034 00dd 00       		.byte	0
 3035 00de 10       		.uleb128 0x10
 3036 00df 05       		.uleb128 0x5
 3037 00e0 00       		.byte	0
 3038 00e1 03       		.uleb128 0x3
 3039 00e2 08       		.uleb128 0x8
 3040 00e3 3A       		.uleb128 0x3a
 3041 00e4 0B       		.uleb128 0xb
 3042 00e5 3B       		.uleb128 0x3b
 3043 00e6 0B       		.uleb128 0xb
 3044 00e7 49       		.uleb128 0x49
 3045 00e8 13       		.uleb128 0x13
 3046 00e9 02       		.uleb128 0x2
 3047 00ea 18       		.uleb128 0x18
 3048 00eb 00       		.byte	0
 3049 00ec 00       		.byte	0
 3050 00ed 11       		.uleb128 0x11
 3051 00ee 2E       		.uleb128 0x2e
 3052 00ef 01       		.byte	0x1
 3053 00f0 3F       		.uleb128 0x3f
 3054 00f1 19       		.uleb128 0x19
 3055 00f2 03       		.uleb128 0x3
 3056 00f3 0E       		.uleb128 0xe
 3057 00f4 3A       		.uleb128 0x3a
ARM GAS  C:\Users\xavieran\AppData\Local\Temp\ccoJxSQI.s 			page 62


 3058 00f5 0B       		.uleb128 0xb
 3059 00f6 3B       		.uleb128 0x3b
 3060 00f7 0B       		.uleb128 0xb
 3061 00f8 11       		.uleb128 0x11
 3062 00f9 01       		.uleb128 0x1
 3063 00fa 12       		.uleb128 0x12
 3064 00fb 06       		.uleb128 0x6
 3065 00fc 40       		.uleb128 0x40
 3066 00fd 18       		.uleb128 0x18
 3067 00fe 9642     		.uleb128 0x2116
 3068 0100 19       		.uleb128 0x19
 3069 0101 01       		.uleb128 0x1
 3070 0102 13       		.uleb128 0x13
 3071 0103 00       		.byte	0
 3072 0104 00       		.byte	0
 3073 0105 12       		.uleb128 0x12
 3074 0106 34       		.uleb128 0x34
 3075 0107 00       		.byte	0
 3076 0108 03       		.uleb128 0x3
 3077 0109 0E       		.uleb128 0xe
 3078 010a 3A       		.uleb128 0x3a
 3079 010b 0B       		.uleb128 0xb
 3080 010c 3B       		.uleb128 0x3b
 3081 010d 0B       		.uleb128 0xb
 3082 010e 49       		.uleb128 0x49
 3083 010f 13       		.uleb128 0x13
 3084 0110 02       		.uleb128 0x2
 3085 0111 18       		.uleb128 0x18
 3086 0112 00       		.byte	0
 3087 0113 00       		.byte	0
 3088 0114 13       		.uleb128 0x13
 3089 0115 34       		.uleb128 0x34
 3090 0116 00       		.byte	0
 3091 0117 03       		.uleb128 0x3
 3092 0118 08       		.uleb128 0x8
 3093 0119 3A       		.uleb128 0x3a
 3094 011a 0B       		.uleb128 0xb
 3095 011b 3B       		.uleb128 0x3b
 3096 011c 0B       		.uleb128 0xb
 3097 011d 49       		.uleb128 0x49
 3098 011e 13       		.uleb128 0x13
 3099 011f 02       		.uleb128 0x2
 3100 0120 18       		.uleb128 0x18
 3101 0121 00       		.byte	0
 3102 0122 00       		.byte	0
 3103 0123 14       		.uleb128 0x14
 3104 0124 2E       		.uleb128 0x2e
 3105 0125 01       		.byte	0x1
 3106 0126 3F       		.uleb128 0x3f
 3107 0127 19       		.uleb128 0x19
 3108 0128 03       		.uleb128 0x3
 3109 0129 0E       		.uleb128 0xe
 3110 012a 3A       		.uleb128 0x3a
 3111 012b 0B       		.uleb128 0xb
 3112 012c 3B       		.uleb128 0x3b
 3113 012d 0B       		.uleb128 0xb
 3114 012e 49       		.uleb128 0x49
ARM GAS  C:\Users\xavieran\AppData\Local\Temp\ccoJxSQI.s 			page 63


 3115 012f 13       		.uleb128 0x13
 3116 0130 11       		.uleb128 0x11
 3117 0131 01       		.uleb128 0x1
 3118 0132 12       		.uleb128 0x12
 3119 0133 06       		.uleb128 0x6
 3120 0134 40       		.uleb128 0x40
 3121 0135 18       		.uleb128 0x18
 3122 0136 9642     		.uleb128 0x2116
 3123 0138 19       		.uleb128 0x19
 3124 0139 01       		.uleb128 0x1
 3125 013a 13       		.uleb128 0x13
 3126 013b 00       		.byte	0
 3127 013c 00       		.byte	0
 3128 013d 15       		.uleb128 0x15
 3129 013e 2E       		.uleb128 0x2e
 3130 013f 01       		.byte	0x1
 3131 0140 3F       		.uleb128 0x3f
 3132 0141 19       		.uleb128 0x19
 3133 0142 03       		.uleb128 0x3
 3134 0143 0E       		.uleb128 0xe
 3135 0144 3A       		.uleb128 0x3a
 3136 0145 0B       		.uleb128 0xb
 3137 0146 3B       		.uleb128 0x3b
 3138 0147 05       		.uleb128 0x5
 3139 0148 11       		.uleb128 0x11
 3140 0149 01       		.uleb128 0x1
 3141 014a 12       		.uleb128 0x12
 3142 014b 06       		.uleb128 0x6
 3143 014c 40       		.uleb128 0x40
 3144 014d 18       		.uleb128 0x18
 3145 014e 9642     		.uleb128 0x2116
 3146 0150 19       		.uleb128 0x19
 3147 0151 01       		.uleb128 0x1
 3148 0152 13       		.uleb128 0x13
 3149 0153 00       		.byte	0
 3150 0154 00       		.byte	0
 3151 0155 16       		.uleb128 0x16
 3152 0156 34       		.uleb128 0x34
 3153 0157 00       		.byte	0
 3154 0158 03       		.uleb128 0x3
 3155 0159 08       		.uleb128 0x8
 3156 015a 3A       		.uleb128 0x3a
 3157 015b 0B       		.uleb128 0xb
 3158 015c 3B       		.uleb128 0x3b
 3159 015d 05       		.uleb128 0x5
 3160 015e 49       		.uleb128 0x49
 3161 015f 13       		.uleb128 0x13
 3162 0160 02       		.uleb128 0x2
 3163 0161 18       		.uleb128 0x18
 3164 0162 00       		.byte	0
 3165 0163 00       		.byte	0
 3166 0164 17       		.uleb128 0x17
 3167 0165 34       		.uleb128 0x34
 3168 0166 00       		.byte	0
 3169 0167 03       		.uleb128 0x3
 3170 0168 0E       		.uleb128 0xe
 3171 0169 3A       		.uleb128 0x3a
ARM GAS  C:\Users\xavieran\AppData\Local\Temp\ccoJxSQI.s 			page 64


 3172 016a 0B       		.uleb128 0xb
 3173 016b 3B       		.uleb128 0x3b
 3174 016c 05       		.uleb128 0x5
 3175 016d 49       		.uleb128 0x49
 3176 016e 13       		.uleb128 0x13
 3177 016f 02       		.uleb128 0x2
 3178 0170 18       		.uleb128 0x18
 3179 0171 00       		.byte	0
 3180 0172 00       		.byte	0
 3181 0173 18       		.uleb128 0x18
 3182 0174 2E       		.uleb128 0x2e
 3183 0175 00       		.byte	0
 3184 0176 3F       		.uleb128 0x3f
 3185 0177 19       		.uleb128 0x19
 3186 0178 03       		.uleb128 0x3
 3187 0179 0E       		.uleb128 0xe
 3188 017a 3A       		.uleb128 0x3a
 3189 017b 0B       		.uleb128 0xb
 3190 017c 3B       		.uleb128 0x3b
 3191 017d 05       		.uleb128 0x5
 3192 017e 49       		.uleb128 0x49
 3193 017f 13       		.uleb128 0x13
 3194 0180 11       		.uleb128 0x11
 3195 0181 01       		.uleb128 0x1
 3196 0182 12       		.uleb128 0x12
 3197 0183 06       		.uleb128 0x6
 3198 0184 40       		.uleb128 0x40
 3199 0185 18       		.uleb128 0x18
 3200 0186 9642     		.uleb128 0x2116
 3201 0188 19       		.uleb128 0x19
 3202 0189 00       		.byte	0
 3203 018a 00       		.byte	0
 3204 018b 19       		.uleb128 0x19
 3205 018c 34       		.uleb128 0x34
 3206 018d 00       		.byte	0
 3207 018e 03       		.uleb128 0x3
 3208 018f 08       		.uleb128 0x8
 3209 0190 3A       		.uleb128 0x3a
 3210 0191 0B       		.uleb128 0xb
 3211 0192 3B       		.uleb128 0x3b
 3212 0193 05       		.uleb128 0x5
 3213 0194 49       		.uleb128 0x49
 3214 0195 13       		.uleb128 0x13
 3215 0196 00       		.byte	0
 3216 0197 00       		.byte	0
 3217 0198 1A       		.uleb128 0x1a
 3218 0199 34       		.uleb128 0x34
 3219 019a 00       		.byte	0
 3220 019b 03       		.uleb128 0x3
 3221 019c 0E       		.uleb128 0xe
 3222 019d 3A       		.uleb128 0x3a
 3223 019e 0B       		.uleb128 0xb
 3224 019f 3B       		.uleb128 0x3b
 3225 01a0 05       		.uleb128 0x5
 3226 01a1 49       		.uleb128 0x49
 3227 01a2 13       		.uleb128 0x13
 3228 01a3 3F       		.uleb128 0x3f
ARM GAS  C:\Users\xavieran\AppData\Local\Temp\ccoJxSQI.s 			page 65


 3229 01a4 19       		.uleb128 0x19
 3230 01a5 3C       		.uleb128 0x3c
 3231 01a6 19       		.uleb128 0x19
 3232 01a7 00       		.byte	0
 3233 01a8 00       		.byte	0
 3234 01a9 1B       		.uleb128 0x1b
 3235 01aa 35       		.uleb128 0x35
 3236 01ab 00       		.byte	0
 3237 01ac 49       		.uleb128 0x49
 3238 01ad 13       		.uleb128 0x13
 3239 01ae 00       		.byte	0
 3240 01af 00       		.byte	0
 3241 01b0 1C       		.uleb128 0x1c
 3242 01b1 34       		.uleb128 0x34
 3243 01b2 00       		.byte	0
 3244 01b3 03       		.uleb128 0x3
 3245 01b4 0E       		.uleb128 0xe
 3246 01b5 3A       		.uleb128 0x3a
 3247 01b6 0B       		.uleb128 0xb
 3248 01b7 3B       		.uleb128 0x3b
 3249 01b8 0B       		.uleb128 0xb
 3250 01b9 49       		.uleb128 0x49
 3251 01ba 13       		.uleb128 0x13
 3252 01bb 3F       		.uleb128 0x3f
 3253 01bc 19       		.uleb128 0x19
 3254 01bd 02       		.uleb128 0x2
 3255 01be 18       		.uleb128 0x18
 3256 01bf 00       		.byte	0
 3257 01c0 00       		.byte	0
 3258 01c1 1D       		.uleb128 0x1d
 3259 01c2 34       		.uleb128 0x34
 3260 01c3 00       		.byte	0
 3261 01c4 03       		.uleb128 0x3
 3262 01c5 0E       		.uleb128 0xe
 3263 01c6 3A       		.uleb128 0x3a
 3264 01c7 0B       		.uleb128 0xb
 3265 01c8 3B       		.uleb128 0x3b
 3266 01c9 0B       		.uleb128 0xb
 3267 01ca 49       		.uleb128 0x49
 3268 01cb 13       		.uleb128 0x13
 3269 01cc 3F       		.uleb128 0x3f
 3270 01cd 19       		.uleb128 0x19
 3271 01ce 3C       		.uleb128 0x3c
 3272 01cf 19       		.uleb128 0x19
 3273 01d0 00       		.byte	0
 3274 01d1 00       		.byte	0
 3275 01d2 1E       		.uleb128 0x1e
 3276 01d3 0F       		.uleb128 0xf
 3277 01d4 00       		.byte	0
 3278 01d5 0B       		.uleb128 0xb
 3279 01d6 0B       		.uleb128 0xb
 3280 01d7 49       		.uleb128 0x49
 3281 01d8 13       		.uleb128 0x13
 3282 01d9 00       		.byte	0
 3283 01da 00       		.byte	0
 3284 01db 00       		.byte	0
 3285              		.section	.debug_aranges,"",%progbits
ARM GAS  C:\Users\xavieran\AppData\Local\Temp\ccoJxSQI.s 			page 66


 3286 0000 84000000 		.4byte	0x84
 3287 0004 0200     		.2byte	0x2
 3288 0006 00000000 		.4byte	.Ldebug_info0
 3289 000a 04       		.byte	0x4
 3290 000b 00       		.byte	0
 3291 000c 0000     		.2byte	0
 3292 000e 0000     		.2byte	0
 3293 0010 00000000 		.4byte	.LFB63
 3294 0014 D4000000 		.4byte	.LFE63-.LFB63
 3295 0018 00000000 		.4byte	.LFB64
 3296 001c 12000000 		.4byte	.LFE64-.LFB64
 3297 0020 00000000 		.4byte	.LFB65
 3298 0024 3C000000 		.4byte	.LFE65-.LFB65
 3299 0028 00000000 		.4byte	.LFB66
 3300 002c 68000000 		.4byte	.LFE66-.LFB66
 3301 0030 00000000 		.4byte	.LFB67
 3302 0034 E8000000 		.4byte	.LFE67-.LFB67
 3303 0038 00000000 		.4byte	.LFB68
 3304 003c 44030000 		.4byte	.LFE68-.LFB68
 3305 0040 00000000 		.4byte	.LFB69
 3306 0044 24010000 		.4byte	.LFE69-.LFB69
 3307 0048 00000000 		.4byte	.LFB70
 3308 004c 34000000 		.4byte	.LFE70-.LFB70
 3309 0050 00000000 		.4byte	.LFB71
 3310 0054 AE000000 		.4byte	.LFE71-.LFB71
 3311 0058 00000000 		.4byte	.LFB72
 3312 005c 58000000 		.4byte	.LFE72-.LFB72
 3313 0060 00000000 		.4byte	.LFB73
 3314 0064 98010000 		.4byte	.LFE73-.LFB73
 3315 0068 00000000 		.4byte	.LFB74
 3316 006c DC000000 		.4byte	.LFE74-.LFB74
 3317 0070 00000000 		.4byte	.LFB75
 3318 0074 14000000 		.4byte	.LFE75-.LFB75
 3319 0078 00000000 		.4byte	.LFB76
 3320 007c 8C010000 		.4byte	.LFE76-.LFB76
 3321 0080 00000000 		.4byte	0
 3322 0084 00000000 		.4byte	0
 3323              		.section	.debug_ranges,"",%progbits
 3324              	.Ldebug_ranges0:
 3325 0000 00000000 		.4byte	.LFB63
 3326 0004 D4000000 		.4byte	.LFE63
 3327 0008 00000000 		.4byte	.LFB64
 3328 000c 12000000 		.4byte	.LFE64
 3329 0010 00000000 		.4byte	.LFB65
 3330 0014 3C000000 		.4byte	.LFE65
 3331 0018 00000000 		.4byte	.LFB66
 3332 001c 68000000 		.4byte	.LFE66
 3333 0020 00000000 		.4byte	.LFB67
 3334 0024 E8000000 		.4byte	.LFE67
 3335 0028 00000000 		.4byte	.LFB68
 3336 002c 44030000 		.4byte	.LFE68
 3337 0030 00000000 		.4byte	.LFB69
 3338 0034 24010000 		.4byte	.LFE69
 3339 0038 00000000 		.4byte	.LFB70
 3340 003c 34000000 		.4byte	.LFE70
 3341 0040 00000000 		.4byte	.LFB71
 3342 0044 AE000000 		.4byte	.LFE71
ARM GAS  C:\Users\xavieran\AppData\Local\Temp\ccoJxSQI.s 			page 67


 3343 0048 00000000 		.4byte	.LFB72
 3344 004c 58000000 		.4byte	.LFE72
 3345 0050 00000000 		.4byte	.LFB73
 3346 0054 98010000 		.4byte	.LFE73
 3347 0058 00000000 		.4byte	.LFB74
 3348 005c DC000000 		.4byte	.LFE74
 3349 0060 00000000 		.4byte	.LFB75
 3350 0064 14000000 		.4byte	.LFE75
 3351 0068 00000000 		.4byte	.LFB76
 3352 006c 8C010000 		.4byte	.LFE76
 3353 0070 00000000 		.4byte	0
 3354 0074 00000000 		.4byte	0
 3355              		.section	.debug_line,"",%progbits
 3356              	.Ldebug_line0:
 3357 0000 4C040000 		.section	.debug_str,"MS",%progbits,1
 3357      02009101 
 3357      00000201 
 3357      FB0E0D00 
 3357      01010101 
 3358              	.LASF62:
 3359 0000 2E5C6D79 		.ascii	".\\my_camera_functions.c\000"
 3359      5F63616D 
 3359      6572615F 
 3359      66756E63 
 3359      74696F6E 
 3360              	.LASF38:
 3361 0018 50697865 		.ascii	"PixelColour\000"
 3361      6C436F6C 
 3361      6F757200 
 3362              	.LASF55:
 3363 0024 424C5545 		.ascii	"BLUE_V\000"
 3363      5F5600
 3364              	.LASF31:
 3365 002b 70697865 		.ascii	"pixel\000"
 3365      6C00
 3366              	.LASF33:
 3367 0031 636C6561 		.ascii	"clean_frame\000"
 3367      6E5F6672 
 3367      616D6500 
 3368              	.LASF28:
 3369 003d 73657474 		.ascii	"setting\000"
 3369      696E6700 
 3370              	.LASF37:
 3371 0045 696E6465 		.ascii	"index\000"
 3371      7800
 3372              	.LASF2:
 3373 004b 73686F72 		.ascii	"short int\000"
 3373      7420696E 
 3373      7400
 3374              	.LASF46:
 3375 0055 696D6167 		.ascii	"image_stuff4\000"
 3375      655F7374 
 3375      75666634 
 3375      00
 3376              	.LASF16:
 3377 0062 73697A65 		.ascii	"sizetype\000"
 3377      74797065 
ARM GAS  C:\Users\xavieran\AppData\Local\Temp\ccoJxSQI.s 			page 68


 3377      00
 3378              	.LASF59:
 3379 006b 4558504F 		.ascii	"EXPOSURE\000"
 3379      53555245 
 3379      00
 3380              	.LASF60:
 3381 0074 626C6F62 		.ascii	"blobs\000"
 3381      7300
 3382              	.LASF61:
 3383 007a 474E5520 		.ascii	"GNU C 4.8.4 20140526 (release) [ARM/embedded-4_8-br"
 3383      4320342E 
 3383      382E3420 
 3383      32303134 
 3383      30353236 
 3384 00ad 616E6368 		.ascii	"anch revision 211358] -mcpu=cortex-m3 -mthumb -g -O"
 3384      20726576 
 3384      6973696F 
 3384      6E203231 
 3384      31333538 
 3385 00e0 30202D66 		.ascii	"0 -ffunction-sections\000"
 3385      66756E63 
 3385      74696F6E 
 3385      2D736563 
 3385      74696F6E 
 3386              	.LASF35:
 3387 00f6 726F775F 		.ascii	"row_limit\000"
 3387      6C696D69 
 3387      7400
 3388              	.LASF58:
 3389 0100 525F4741 		.ascii	"R_GAIN\000"
 3389      494E00
 3390              	.LASF54:
 3391 0107 424C5545 		.ascii	"BLUE_U\000"
 3391      5F5500
 3392              	.LASF44:
 3393 010e 72656164 		.ascii	"read_instruction_routine\000"
 3393      5F696E73 
 3393      74727563 
 3393      74696F6E 
 3393      5F726F75 
 3394              	.LASF40:
 3395 0127 6964656E 		.ascii	"identify_colour_gripper\000"
 3395      74696679 
 3395      5F636F6C 
 3395      6F75725F 
 3395      67726970 
 3396              	.LASF13:
 3397 013f 666C6F61 		.ascii	"float\000"
 3397      7400
 3398              	.LASF11:
 3399 0145 75696E74 		.ascii	"uint8\000"
 3399      3800
 3400              	.LASF6:
 3401 014b 6C6F6E67 		.ascii	"long long int\000"
 3401      206C6F6E 
 3401      6720696E 
 3401      7400
ARM GAS  C:\Users\xavieran\AppData\Local\Temp\ccoJxSQI.s 			page 69


 3402              	.LASF56:
 3403 0159 4741494E 		.ascii	"GAIN\000"
 3403      00
 3404              	.LASF4:
 3405 015e 6C6F6E67 		.ascii	"long int\000"
 3405      20696E74 
 3405      00
 3406              	.LASF41:
 3407 0167 50697865 		.ascii	"PixelLuminence\000"
 3407      6C4C756D 
 3407      696E656E 
 3407      636500
 3408              	.LASF34:
 3409 0176 70726F70 		.ascii	"proportion\000"
 3409      6F727469 
 3409      6F6E00
 3410              	.LASF1:
 3411 0181 756E7369 		.ascii	"unsigned char\000"
 3411      676E6564 
 3411      20636861 
 3411      7200
 3412              	.LASF50:
 3413 018f 5245445F 		.ascii	"RED_U\000"
 3413      5500
 3414              	.LASF51:
 3415 0195 5245445F 		.ascii	"RED_V\000"
 3415      5600
 3416              	.LASF0:
 3417 019b 7369676E 		.ascii	"signed char\000"
 3417      65642063 
 3417      68617200 
 3418              	.LASF7:
 3419 01a7 6C6F6E67 		.ascii	"long long unsigned int\000"
 3419      206C6F6E 
 3419      6720756E 
 3419      7369676E 
 3419      65642069 
 3420              	.LASF8:
 3421 01be 756E7369 		.ascii	"unsigned int\000"
 3421      676E6564 
 3421      20696E74 
 3421      00
 3422              	.LASF49:
 3423 01cb 73746163 		.ascii	"stack\000"
 3423      6B00
 3424              	.LASF25:
 3425 01d1 696E6974 		.ascii	"init_camera\000"
 3425      5F63616D 
 3425      65726100 
 3426              	.LASF24:
 3427 01dd 626C6F62 		.ascii	"blob\000"
 3427      00
 3428              	.LASF3:
 3429 01e2 73686F72 		.ascii	"short unsigned int\000"
 3429      7420756E 
 3429      7369676E 
 3429      65642069 
ARM GAS  C:\Users\xavieran\AppData\Local\Temp\ccoJxSQI.s 			page 70


 3429      6E7400
 3430              	.LASF22:
 3431 01f5 785F7375 		.ascii	"x_sum\000"
 3431      6D00
 3432              	.LASF15:
 3433 01fb 63686172 		.ascii	"char\000"
 3433      00
 3434              	.LASF10:
 3435 0200 696E7433 		.ascii	"int32_t\000"
 3435      325F7400 
 3436              	.LASF19:
 3437 0208 424C5545 		.ascii	"BLUE\000"
 3437      00
 3438              	.LASF27:
 3439 020d 63617074 		.ascii	"capture_thresh_image\000"
 3439      7572655F 
 3439      74687265 
 3439      73685F69 
 3439      6D616765 
 3440              	.LASF42:
 3441 0222 74687265 		.ascii	"threshold_image\000"
 3441      73686F6C 
 3441      645F696D 
 3441      61676500 
 3442              	.LASF29:
 3443 0232 6C6F6361 		.ascii	"locals\000"
 3443      6C7300
 3444              	.LASF52:
 3445 0239 47524545 		.ascii	"GREEN_U\000"
 3445      4E5F5500 
 3446              	.LASF53:
 3447 0241 47524545 		.ascii	"GREEN_V\000"
 3447      4E5F5600 
 3448              	.LASF12:
 3449 0249 75696E74 		.ascii	"uint32\000"
 3449      333200
 3450              	.LASF5:
 3451 0250 6C6F6E67 		.ascii	"long unsigned int\000"
 3451      20756E73 
 3451      69676E65 
 3451      6420696E 
 3451      7400
 3452              	.LASF14:
 3453 0262 646F7562 		.ascii	"double\000"
 3453      6C6500
 3454              	.LASF45:
 3455 0269 64697370 		.ascii	"display\000"
 3455      6C617900 
 3456              	.LASF21:
 3457 0271 73697A65 		.ascii	"size\000"
 3457      00
 3458              	.LASF36:
 3459 0276 636F756E 		.ascii	"count\000"
 3459      7400
 3460              	.LASF9:
 3461 027c 5F5F696E 		.ascii	"__int32_t\000"
 3461      7433325F 
ARM GAS  C:\Users\xavieran\AppData\Local\Temp\ccoJxSQI.s 			page 71


 3461      7400
 3462              	.LASF64:
 3463 0286 696E7374 		.ascii	"instruction_read\000"
 3463      72756374 
 3463      696F6E5F 
 3463      72656164 
 3463      00
 3464              	.LASF17:
 3465 0297 4E4F4E45 		.ascii	"NONE\000"
 3465      00
 3466              	.LASF32:
 3467 029c 7365745F 		.ascii	"set_gain_exposure\000"
 3467      6761696E 
 3467      5F657870 
 3467      6F737572 
 3467      6500
 3468              	.LASF57:
 3469 02ae 425F4741 		.ascii	"B_GAIN\000"
 3469      494E00
 3470              	.LASF39:
 3471 02b5 6964656E 		.ascii	"identify_colour_instructions\000"
 3471      74696679 
 3471      5F636F6C 
 3471      6F75725F 
 3471      696E7374 
 3472              	.LASF20:
 3473 02d2 636F6C6F 		.ascii	"colour\000"
 3473      757200
 3474              	.LASF48:
 3475 02d9 43616D65 		.ascii	"Camera_framebuffer\000"
 3475      72615F66 
 3475      72616D65 
 3475      62756666 
 3475      657200
 3476              	.LASF26:
 3477 02ec 63617074 		.ascii	"capture_image\000"
 3477      7572655F 
 3477      696D6167 
 3477      6500
 3478              	.LASF47:
 3479 02fa 49544D5F 		.ascii	"ITM_RxBuffer\000"
 3479      52784275 
 3479      66666572 
 3479      00
 3480              	.LASF18:
 3481 0307 47524545 		.ascii	"GREEN\000"
 3481      4E00
 3482              	.LASF43:
 3483 030d 74687265 		.ascii	"threshold_black\000"
 3483      73686F6C 
 3483      645F626C 
 3483      61636B00 
 3484              	.LASF63:
 3485 031d 433A5C55 		.ascii	"C:\\Users\\xavieran\\Desktop\\ECE3091\\PSOCProjects"
 3485      73657273 
 3485      5C786176 
 3485      69657261 
ARM GAS  C:\Users\xavieran\AppData\Local\Temp\ccoJxSQI.s 			page 72


 3485      6E5C4465 
 3486 034b 5C454E47 		.ascii	"\\ENG3091_MandM\\camera_test.cydsn\000"
 3486      33303931 
 3486      5F4D616E 
 3486      644D5C63 
 3486      616D6572 
 3487              	.LASF30:
 3488 036c 636F6C6F 		.ascii	"colours\000"
 3488      75727300 
 3489              	.LASF23:
 3490 0374 795F7375 		.ascii	"y_sum\000"
 3490      6D00
 3491              		.ident	"GCC: (GNU Tools for ARM Embedded Processors) 4.8.4 20140526 (release) [ARM/embedded-4_8-br
