ARM GAS  C:\Users\xavieran\AppData\Local\Temp\ccvmSsf1.s 			page 1


   1              		.syntax unified
   2              		.cpu cortex-m3
   3              		.fpu softvfp
   4              		.eabi_attribute 20, 1
   5              		.eabi_attribute 21, 1
   6              		.eabi_attribute 23, 3
   7              		.eabi_attribute 24, 1
   8              		.eabi_attribute 25, 1
   9              		.eabi_attribute 26, 1
  10              		.eabi_attribute 30, 6
  11              		.eabi_attribute 34, 1
  12              		.eabi_attribute 18, 4
  13              		.thumb
  14              		.file	"navigation.c"
  15              		.text
  16              	.Ltext0:
  17              		.cfi_sections	.debug_frame
  18              		.comm	Camera_framebuffer,50688,4
  19              		.comm	location,12,4
  20              		.comm	delta_y_distance,4,4
  21              		.global	__aeabi_dcmpge
  22              		.section	.text.signum,"ax",%progbits
  23              		.align	2
  24              		.global	signum
  25              		.thumb
  26              		.thumb_func
  27              		.type	signum, %function
  28              	signum:
  29              	.LFB63:
  30              		.file 1 ".\\navigation.c"
   1:.\navigation.c **** /* ========================================
   2:.\navigation.c ****  *
   3:.\navigation.c ****  * Copyright YOUR COMPANY, THE YEAR
   4:.\navigation.c ****  * All Rights Reserved
   5:.\navigation.c ****  * UNPUBLISHED, LICENSED SOFTWARE.
   6:.\navigation.c ****  *
   7:.\navigation.c ****  * CONFIDENTIAL AND PROPRIETARY INFORMATION
   8:.\navigation.c ****  * WHICH IS THE PROPERTY OF your company.
   9:.\navigation.c ****  *
  10:.\navigation.c ****  * ========================================
  11:.\navigation.c **** */
  12:.\navigation.c **** 
  13:.\navigation.c **** /******* IMPORTANT ***********
  14:.\navigation.c ****  * The mouse on the _left_ shall be entitled mouse A
  15:.\navigation.c ****  */
  16:.\navigation.c **** 
  17:.\navigation.c **** #include <project.h>
  18:.\navigation.c **** #include <math.h>
  19:.\navigation.c **** #include <stdlib.h>
  20:.\navigation.c **** 
  21:.\navigation.c **** #include <navigation.h>
  22:.\navigation.c **** #include <compass.h>
  23:.\navigation.c **** #include <motor.h>
  24:.\navigation.c **** 
  25:.\navigation.c **** //These are in compass.c
  26:.\navigation.c **** extern int16 compass_heading;
  27:.\navigation.c **** extern double SinDeg[];
ARM GAS  C:\Users\xavieran\AppData\Local\Temp\ccvmSsf1.s 			page 2


  28:.\navigation.c **** extern double CosDeg[];
  29:.\navigation.c **** 
  30:.\navigation.c **** //this is in mouse_a.c
  31:.\navigation.c **** extern volatile int32 loc_x_a;
  32:.\navigation.c **** extern volatile int32 loc_y_a;
  33:.\navigation.c **** extern volatile uint8 data_ready_a;
  34:.\navigation.c **** //this is in mouse_b.c
  35:.\navigation.c **** extern volatile int32 loc_x_b;
  36:.\navigation.c **** extern volatile int32 loc_y_b;
  37:.\navigation.c **** extern volatile uint8 data_ready_b;
  38:.\navigation.c **** 
  39:.\navigation.c **** //We store the navigation info here
  40:.\navigation.c **** struct Position location;
  41:.\navigation.c **** //The straight line distance the mouse has gone. This is continually incremented by loc_y_...
  42:.\navigation.c **** //Reset it to 0 for measurement purposes.
  43:.\navigation.c **** int32 delta_y_distance; 
  44:.\navigation.c **** 
  45:.\navigation.c **** 
  46:.\navigation.c **** struct Position calculate_dposition(double dxl, double dyl, double dxr, double dyr);
  47:.\navigation.c **** 
  48:.\navigation.c **** //9.4cm = 94mm = 94*4 counts/mm = 376.0 counts
  49:.\navigation.c **** #define SEPARATION 400
  50:.\navigation.c **** 
  51:.\navigation.c **** double signum(double x){
  31              		.loc 1 51 0
  32              		.cfi_startproc
  33              		@ args = 0, pretend = 0, frame = 8
  34              		@ frame_needed = 1, uses_anonymous_args = 0
  35 0000 80B5     		push	{r7, lr}
  36              		.cfi_def_cfa_offset 8
  37              		.cfi_offset 7, -8
  38              		.cfi_offset 14, -4
  39 0002 82B0     		sub	sp, sp, #8
  40              		.cfi_def_cfa_offset 16
  41 0004 00AF     		add	r7, sp, #0
  42              		.cfi_def_cfa_register 7
  43 0006 C7E90001 		strd	r0, [r7]
  52:.\navigation.c ****     if (x >= 0){
  44              		.loc 1 52 0
  45 000a D7E90001 		ldrd	r0, [r7]
  46 000e 4FF00002 		mov	r2, #0
  47 0012 4FF00003 		mov	r3, #0
  48 0016 FFF7FEFF 		bl	__aeabi_dcmpge
  49 001a 0346     		mov	r3, r0
  50 001c 002B     		cmp	r3, #0
  51 001e 03D0     		beq	.L6
  53:.\navigation.c ****         return 1.0; 
  52              		.loc 1 53 0
  53 0020 4FF00002 		mov	r2, #0
  54 0024 044B     		ldr	r3, .L7
  55 0026 02E0     		b	.L4
  56              	.L6:
  54:.\navigation.c ****     } else {
  55:.\navigation.c ****         return -1.0;
  57              		.loc 1 55 0
  58 0028 4FF00002 		mov	r2, #0
  59 002c 034B     		ldr	r3, .L7+4
ARM GAS  C:\Users\xavieran\AppData\Local\Temp\ccvmSsf1.s 			page 3


  60              	.L4:
  56:.\navigation.c ****     }
  57:.\navigation.c **** }
  61              		.loc 1 57 0
  62 002e 1046     		mov	r0, r2
  63 0030 1946     		mov	r1, r3
  64 0032 0837     		adds	r7, r7, #8
  65 0034 BD46     		mov	sp, r7
  66              		@ sp needed
  67 0036 80BD     		pop	{r7, pc}
  68              	.L8:
  69              		.align	2
  70              	.L7:
  71 0038 0000F03F 		.word	1072693248
  72 003c 0000F0BF 		.word	-1074790400
  73              		.cfi_endproc
  74              	.LFE63:
  75              		.size	signum, .-signum
  76              		.global	__aeabi_i2d
  77              		.global	__aeabi_dmul
  78              		.global	__aeabi_d2iz
  79              		.section	.text.update_position,"ax",%progbits
  80              		.align	2
  81              		.global	update_position
  82              		.thumb
  83              		.thumb_func
  84              		.type	update_position, %function
  85              	update_position:
  86              	.LFB64:
  58:.\navigation.c **** 
  59:.\navigation.c **** void update_position(){
  87              		.loc 1 59 0
  88              		.cfi_startproc
  89              		@ args = 0, pretend = 0, frame = 0
  90              		@ frame_needed = 1, uses_anonymous_args = 0
  91 0000 F8B5     		push	{r3, r4, r5, r6, r7, lr}
  92              		.cfi_def_cfa_offset 24
  93              		.cfi_offset 3, -24
  94              		.cfi_offset 4, -20
  95              		.cfi_offset 5, -16
  96              		.cfi_offset 6, -12
  97              		.cfi_offset 7, -8
  98              		.cfi_offset 14, -4
  99 0002 00AF     		add	r7, sp, #0
 100              		.cfi_def_cfa_register 7
  60:.\navigation.c ****     if (!isRotating()){//We rotate on the spot so y should not change
 101              		.loc 1 60 0
 102 0004 FFF7FEFF 		bl	isRotating
 103 0008 0346     		mov	r3, r0
 104 000a 002B     		cmp	r3, #0
 105 000c 3DD1     		bne	.L10
  61:.\navigation.c ****         location.x += (int32) (CosDeg[compass_heading]*((double) loc_y_a)); 
 106              		.loc 1 61 0
 107 000e 264B     		ldr	r3, .L11
 108 0010 1E68     		ldr	r6, [r3]
 109 0012 264B     		ldr	r3, .L11+4
 110 0014 1B88     		ldrh	r3, [r3]
ARM GAS  C:\Users\xavieran\AppData\Local\Temp\ccvmSsf1.s 			page 4


 111 0016 1BB2     		sxth	r3, r3
 112 0018 254A     		ldr	r2, .L11+8
 113 001a DB00     		lsls	r3, r3, #3
 114 001c 1344     		add	r3, r3, r2
 115 001e D3E90045 		ldrd	r4, [r3]
 116 0022 244B     		ldr	r3, .L11+12
 117 0024 1B68     		ldr	r3, [r3]
 118 0026 1846     		mov	r0, r3
 119 0028 FFF7FEFF 		bl	__aeabi_i2d
 120 002c 0246     		mov	r2, r0
 121 002e 0B46     		mov	r3, r1
 122 0030 2046     		mov	r0, r4
 123 0032 2946     		mov	r1, r5
 124 0034 FFF7FEFF 		bl	__aeabi_dmul
 125 0038 0246     		mov	r2, r0
 126 003a 0B46     		mov	r3, r1
 127 003c 1046     		mov	r0, r2
 128 003e 1946     		mov	r1, r3
 129 0040 FFF7FEFF 		bl	__aeabi_d2iz
 130 0044 0346     		mov	r3, r0
 131 0046 F218     		adds	r2, r6, r3
 132 0048 174B     		ldr	r3, .L11
 133 004a 1A60     		str	r2, [r3]
  62:.\navigation.c ****         location.y += (int32) (SinDeg[compass_heading]*((double) loc_y_a));
 134              		.loc 1 62 0
 135 004c 164B     		ldr	r3, .L11
 136 004e 5E68     		ldr	r6, [r3, #4]
 137 0050 164B     		ldr	r3, .L11+4
 138 0052 1B88     		ldrh	r3, [r3]
 139 0054 1BB2     		sxth	r3, r3
 140 0056 184A     		ldr	r2, .L11+16
 141 0058 DB00     		lsls	r3, r3, #3
 142 005a 1344     		add	r3, r3, r2
 143 005c D3E90045 		ldrd	r4, [r3]
 144 0060 144B     		ldr	r3, .L11+12
 145 0062 1B68     		ldr	r3, [r3]
 146 0064 1846     		mov	r0, r3
 147 0066 FFF7FEFF 		bl	__aeabi_i2d
 148 006a 0246     		mov	r2, r0
 149 006c 0B46     		mov	r3, r1
 150 006e 2046     		mov	r0, r4
 151 0070 2946     		mov	r1, r5
 152 0072 FFF7FEFF 		bl	__aeabi_dmul
 153 0076 0246     		mov	r2, r0
 154 0078 0B46     		mov	r3, r1
 155 007a 1046     		mov	r0, r2
 156 007c 1946     		mov	r1, r3
 157 007e FFF7FEFF 		bl	__aeabi_d2iz
 158 0082 0346     		mov	r3, r0
 159 0084 F218     		adds	r2, r6, r3
 160 0086 084B     		ldr	r3, .L11
 161 0088 5A60     		str	r2, [r3, #4]
 162              	.L10:
  63:.\navigation.c ****     }
  64:.\navigation.c ****     location.angle = compass_heading;
 163              		.loc 1 64 0
 164 008a 084B     		ldr	r3, .L11+4
ARM GAS  C:\Users\xavieran\AppData\Local\Temp\ccvmSsf1.s 			page 5


 165 008c 1A88     		ldrh	r2, [r3]
 166 008e 064B     		ldr	r3, .L11
 167 0090 1A81     		strh	r2, [r3, #8]	@ movhi
  65:.\navigation.c ****     delta_y_distance += loc_y_a;
 168              		.loc 1 65 0
 169 0092 0A4B     		ldr	r3, .L11+20
 170 0094 1A68     		ldr	r2, [r3]
 171 0096 074B     		ldr	r3, .L11+12
 172 0098 1B68     		ldr	r3, [r3]
 173 009a 1A44     		add	r2, r2, r3
 174 009c 074B     		ldr	r3, .L11+20
 175 009e 1A60     		str	r2, [r3]
  66:.\navigation.c ****     loc_y_a = 0;
 176              		.loc 1 66 0
 177 00a0 044B     		ldr	r3, .L11+12
 178 00a2 0022     		movs	r2, #0
 179 00a4 1A60     		str	r2, [r3]
  67:.\navigation.c **** }
 180              		.loc 1 67 0
 181 00a6 F8BD     		pop	{r3, r4, r5, r6, r7, pc}
 182              	.L12:
 183              		.align	2
 184              	.L11:
 185 00a8 00000000 		.word	location
 186 00ac 00000000 		.word	compass_heading
 187 00b0 00000000 		.word	CosDeg
 188 00b4 00000000 		.word	loc_y_a
 189 00b8 00000000 		.word	SinDeg
 190 00bc 00000000 		.word	delta_y_distance
 191              		.cfi_endproc
 192              	.LFE64:
 193              		.size	update_position, .-update_position
 194              		.section	.text.reset_delta_y_distance,"ax",%progbits
 195              		.align	2
 196              		.global	reset_delta_y_distance
 197              		.thumb
 198              		.thumb_func
 199              		.type	reset_delta_y_distance, %function
 200              	reset_delta_y_distance:
 201              	.LFB65:
  68:.\navigation.c **** 
  69:.\navigation.c **** void reset_delta_y_distance(){
 202              		.loc 1 69 0
 203              		.cfi_startproc
 204              		@ args = 0, pretend = 0, frame = 0
 205              		@ frame_needed = 1, uses_anonymous_args = 0
 206              		@ link register save eliminated.
 207 0000 80B4     		push	{r7}
 208              		.cfi_def_cfa_offset 4
 209              		.cfi_offset 7, -4
 210 0002 00AF     		add	r7, sp, #0
 211              		.cfi_def_cfa_register 7
  70:.\navigation.c ****     delta_y_distance = 0;
 212              		.loc 1 70 0
 213 0004 034B     		ldr	r3, .L14
 214 0006 0022     		movs	r2, #0
 215 0008 1A60     		str	r2, [r3]
ARM GAS  C:\Users\xavieran\AppData\Local\Temp\ccvmSsf1.s 			page 6


  71:.\navigation.c **** }
 216              		.loc 1 71 0
 217 000a BD46     		mov	sp, r7
 218              		@ sp needed
 219 000c 5DF8047B 		ldr	r7, [sp], #4
 220 0010 7047     		bx	lr
 221              	.L15:
 222 0012 00BF     		.align	2
 223              	.L14:
 224 0014 00000000 		.word	delta_y_distance
 225              		.cfi_endproc
 226              	.LFE65:
 227              		.size	reset_delta_y_distance, .-reset_delta_y_distance
 228              		.section	.text.reset_navigation,"ax",%progbits
 229              		.align	2
 230              		.global	reset_navigation
 231              		.thumb
 232              		.thumb_func
 233              		.type	reset_navigation, %function
 234              	reset_navigation:
 235              	.LFB66:
  72:.\navigation.c **** 
  73:.\navigation.c **** void reset_navigation(){
 236              		.loc 1 73 0
 237              		.cfi_startproc
 238              		@ args = 0, pretend = 0, frame = 0
 239              		@ frame_needed = 1, uses_anonymous_args = 0
 240              		@ link register save eliminated.
 241 0000 80B4     		push	{r7}
 242              		.cfi_def_cfa_offset 4
 243              		.cfi_offset 7, -4
 244 0002 00AF     		add	r7, sp, #0
 245              		.cfi_def_cfa_register 7
  74:.\navigation.c ****     loc_x_a = 0;
 246              		.loc 1 74 0
 247 0004 104B     		ldr	r3, .L17
 248 0006 0022     		movs	r2, #0
 249 0008 1A60     		str	r2, [r3]
  75:.\navigation.c ****     loc_y_a = 0;
 250              		.loc 1 75 0
 251 000a 104B     		ldr	r3, .L17+4
 252 000c 0022     		movs	r2, #0
 253 000e 1A60     		str	r2, [r3]
  76:.\navigation.c ****     data_ready_a = 0;
 254              		.loc 1 76 0
 255 0010 0F4B     		ldr	r3, .L17+8
 256 0012 0022     		movs	r2, #0
 257 0014 1A70     		strb	r2, [r3]
  77:.\navigation.c ****     loc_x_b = 0;
 258              		.loc 1 77 0
 259 0016 0F4B     		ldr	r3, .L17+12
 260 0018 0022     		movs	r2, #0
 261 001a 1A60     		str	r2, [r3]
  78:.\navigation.c ****     loc_y_b = 0;
 262              		.loc 1 78 0
 263 001c 0E4B     		ldr	r3, .L17+16
 264 001e 0022     		movs	r2, #0
ARM GAS  C:\Users\xavieran\AppData\Local\Temp\ccvmSsf1.s 			page 7


 265 0020 1A60     		str	r2, [r3]
  79:.\navigation.c ****     data_ready_b = 0;
 266              		.loc 1 79 0
 267 0022 0E4B     		ldr	r3, .L17+20
 268 0024 0022     		movs	r2, #0
 269 0026 1A70     		strb	r2, [r3]
  80:.\navigation.c ****     
  81:.\navigation.c ****     delta_y_distance = 0;
 270              		.loc 1 81 0
 271 0028 0D4B     		ldr	r3, .L17+24
 272 002a 0022     		movs	r2, #0
 273 002c 1A60     		str	r2, [r3]
  82:.\navigation.c ****     
  83:.\navigation.c ****     location.x = 0;
 274              		.loc 1 83 0
 275 002e 0D4B     		ldr	r3, .L17+28
 276 0030 0022     		movs	r2, #0
 277 0032 1A60     		str	r2, [r3]
  84:.\navigation.c ****     location.y = 0;
 278              		.loc 1 84 0
 279 0034 0B4B     		ldr	r3, .L17+28
 280 0036 0022     		movs	r2, #0
 281 0038 5A60     		str	r2, [r3, #4]
  85:.\navigation.c ****     location.angle = 0;
 282              		.loc 1 85 0
 283 003a 0A4B     		ldr	r3, .L17+28
 284 003c 0022     		movs	r2, #0
 285 003e 1A81     		strh	r2, [r3, #8]	@ movhi
  86:.\navigation.c **** }
 286              		.loc 1 86 0
 287 0040 BD46     		mov	sp, r7
 288              		@ sp needed
 289 0042 5DF8047B 		ldr	r7, [sp], #4
 290 0046 7047     		bx	lr
 291              	.L18:
 292              		.align	2
 293              	.L17:
 294 0048 00000000 		.word	loc_x_a
 295 004c 00000000 		.word	loc_y_a
 296 0050 00000000 		.word	data_ready_a
 297 0054 00000000 		.word	loc_x_b
 298 0058 00000000 		.word	loc_y_b
 299 005c 00000000 		.word	data_ready_b
 300 0060 00000000 		.word	delta_y_distance
 301 0064 00000000 		.word	location
 302              		.cfi_endproc
 303              	.LFE66:
 304              		.size	reset_navigation, .-reset_navigation
 305              		.section	.text.start_navigation,"ax",%progbits
 306              		.align	2
 307              		.global	start_navigation
 308              		.thumb
 309              		.thumb_func
 310              		.type	start_navigation, %function
 311              	start_navigation:
 312              	.LFB67:
  87:.\navigation.c **** 
ARM GAS  C:\Users\xavieran\AppData\Local\Temp\ccvmSsf1.s 			page 8


  88:.\navigation.c **** void start_navigation(){
 313              		.loc 1 88 0
 314              		.cfi_startproc
 315              		@ args = 0, pretend = 0, frame = 0
 316              		@ frame_needed = 1, uses_anonymous_args = 0
 317 0000 80B5     		push	{r7, lr}
 318              		.cfi_def_cfa_offset 8
 319              		.cfi_offset 7, -8
 320              		.cfi_offset 14, -4
 321 0002 00AF     		add	r7, sp, #0
 322              		.cfi_def_cfa_register 7
  89:.\navigation.c ****     reset_navigation();
 323              		.loc 1 89 0
 324 0004 FFF7FEFF 		bl	reset_navigation
  90:.\navigation.c **** }
 325              		.loc 1 90 0
 326 0008 80BD     		pop	{r7, pc}
 327              		.cfi_endproc
 328              	.LFE67:
 329              		.size	start_navigation, .-start_navigation
 330 000a 00BF     		.text
 331              	.Letext0:
 332              		.file 2 "c:\\program files (x86)\\cypress\\psoc creator\\3.2\\psoc creator\\import\\gnu\\arm\\4.8.
 333              		.file 3 "c:\\program files (x86)\\cypress\\psoc creator\\3.2\\psoc creator\\import\\gnu\\arm\\4.8.
 334              		.file 4 "Generated_Source\\PSoC5/cytypes.h"
 335              		.file 5 "./navigation.h"
 336              		.file 6 "Generated_Source\\PSoC5/core_cm3.h"
 337              		.file 7 "Generated_Source\\PSoC5/Camera.h"