ARM GAS  C:\Users\xavieran\AppData\Local\Temp\cccrv2V1.s 			page 1


   1              		.syntax unified
   2              		.cpu cortex-m3
   3              		.fpu softvfp
   4              		.eabi_attribute 20, 1
   5              		.eabi_attribute 21, 1
   6              		.eabi_attribute 23, 3
   7              		.eabi_attribute 24, 1
   8              		.eabi_attribute 25, 1
   9              		.eabi_attribute 26, 1
  10              		.eabi_attribute 30, 6
  11              		.eabi_attribute 34, 1
  12              		.eabi_attribute 18, 4
  13              		.thumb
  14              		.file	"ultrasonic_s.c"
  15              		.text
  16              	.Ltext0:
  17              		.cfi_sections	.debug_frame
  18              		.comm	Camera_framebuffer,50688,4
  19              		.comm	ultra_s,20,4
  20              		.global	ultra_i_s
  21              		.bss
  22              		.align	2
  23              		.type	ultra_i_s, %object
  24              		.size	ultra_i_s, 4
  25              	ultra_i_s:
  26 0000 00000000 		.space	4
  27              		.comm	ultra_distance_s,2,2
  28              		.global	var_ultra_s
  29              		.align	1
  30              		.type	var_ultra_s, %object
  31              		.size	var_ultra_s, 2
  32              	var_ultra_s:
  33 0004 0000     		.space	2
  34              		.comm	outString,16,4
  35 0006 0000     		.section	.text.get_mean_ultra_s,"ax",%progbits
  36              		.align	2
  37              		.global	get_mean_ultra_s
  38              		.thumb
  39              		.thumb_func
  40              		.type	get_mean_ultra_s, %function
  41              	get_mean_ultra_s:
  42              	.LFB63:
  43              		.file 1 ".\\ultrasonic_s.c"
   1:.\ultrasonic_s.c **** /* ========================================
   2:.\ultrasonic_s.c ****  *
   3:.\ultrasonic_s.c ****  * Copyright YOUR COMPANY, THE YEAR
   4:.\ultrasonic_s.c ****  * All Rights Reserved
   5:.\ultrasonic_s.c ****  * UNPUBLISHED, LICENSED SOFTWARE.
   6:.\ultrasonic_s.c ****  *
   7:.\ultrasonic_s.c ****  * CONFIDENTIAL AND PROPRIETARY INFORMATION
   8:.\ultrasonic_s.c ****  * WHICH IS THE PROPERTY OF your company.
   9:.\ultrasonic_s.c ****  *
  10:.\ultrasonic_s.c ****  * ========================================
  11:.\ultrasonic_s.c **** */
  12:.\ultrasonic_s.c **** #include <project.h>
  13:.\ultrasonic_s.c **** #include <stdio.h>
  14:.\ultrasonic_s.c **** #include <math.h>
ARM GAS  C:\Users\xavieran\AppData\Local\Temp\cccrv2V1.s 			page 2


  15:.\ultrasonic_s.c **** 
  16:.\ultrasonic_s.c **** #define MAX_COUNT 50000u
  17:.\ultrasonic_s.c **** //d = vt, v=340m/s=340mm/ms=.34mm/us
  18:.\ultrasonic_s.c **** //t=pulse/2, d = 1.7cm/us*pulse
  19:.\ultrasonic_s.c **** #define DIST_CORRECTION 58.0
  20:.\ultrasonic_s.c **** 
  21:.\ultrasonic_s.c **** volatile uint16 ultra_s[10];
  22:.\ultrasonic_s.c **** volatile int ultra_i_s = 0;
  23:.\ultrasonic_s.c **** volatile uint16 ultra_distance_s;
  24:.\ultrasonic_s.c **** volatile uint16 var_ultra_s = 0;
  25:.\ultrasonic_s.c **** 
  26:.\ultrasonic_s.c **** /* ** How to use this module ** 
  27:.\ultrasonic_s.c ****  * 1. Start the library with start_ultrasonic();
  28:.\ultrasonic_s.c ****  * 2. The module functions automatically through an ISR, so 
  29:.\ultrasonic_s.c ****  *    just monitor ultra_distance which will give the distance from the
  30:.\ultrasonic_s.c ****  *    device to the obstacle in cm
  31:.\ultrasonic_s.c ****  */
  32:.\ultrasonic_s.c **** 
  33:.\ultrasonic_s.c **** char outString[16];
  34:.\ultrasonic_s.c **** 
  35:.\ultrasonic_s.c **** #define POS_PRINTF(R,C,X,...) \
  36:.\ultrasonic_s.c ****  {sprintf(outString, X, __VA_ARGS__); LCD_Position(R, C); LCD_PrintString(outString);}
  37:.\ultrasonic_s.c **** 
  38:.\ultrasonic_s.c **** uint16 get_mean_ultra_s(void){
  44              		.loc 1 38 0
  45              		.cfi_startproc
  46              		@ args = 0, pretend = 0, frame = 0
  47              		@ frame_needed = 1, uses_anonymous_args = 0
  48              		@ link register save eliminated.
  49 0000 80B4     		push	{r7}
  50              		.cfi_def_cfa_offset 4
  51              		.cfi_offset 7, -4
  52 0002 00AF     		add	r7, sp, #0
  53              		.cfi_def_cfa_register 7
  39:.\ultrasonic_s.c ****     return ultra_distance_s;
  54              		.loc 1 39 0
  55 0004 034B     		ldr	r3, .L3
  56 0006 1B88     		ldrh	r3, [r3]	@ movhi
  57 0008 9BB2     		uxth	r3, r3
  40:.\ultrasonic_s.c **** }
  58              		.loc 1 40 0
  59 000a 1846     		mov	r0, r3
  60 000c BD46     		mov	sp, r7
  61              		@ sp needed
  62 000e 5DF8047B 		ldr	r7, [sp], #4
  63 0012 7047     		bx	lr
  64              	.L4:
  65              		.align	2
  66              	.L3:
  67 0014 00000000 		.word	ultra_distance_s
  68              		.cfi_endproc
  69              	.LFE63:
  70              		.size	get_mean_ultra_s, .-get_mean_ultra_s
  71              		.section	.text.get_var_ultra_s,"ax",%progbits
  72              		.align	2
  73              		.global	get_var_ultra_s
  74              		.thumb
ARM GAS  C:\Users\xavieran\AppData\Local\Temp\cccrv2V1.s 			page 3


  75              		.thumb_func
  76              		.type	get_var_ultra_s, %function
  77              	get_var_ultra_s:
  78              	.LFB64:
  41:.\ultrasonic_s.c **** 
  42:.\ultrasonic_s.c **** uint16 get_var_ultra_s(){
  79              		.loc 1 42 0
  80              		.cfi_startproc
  81              		@ args = 0, pretend = 0, frame = 0
  82              		@ frame_needed = 1, uses_anonymous_args = 0
  83              		@ link register save eliminated.
  84 0000 80B4     		push	{r7}
  85              		.cfi_def_cfa_offset 4
  86              		.cfi_offset 7, -4
  87 0002 00AF     		add	r7, sp, #0
  88              		.cfi_def_cfa_register 7
  43:.\ultrasonic_s.c ****     return var_ultra_s;
  89              		.loc 1 43 0
  90 0004 034B     		ldr	r3, .L7
  91 0006 1B88     		ldrh	r3, [r3]	@ movhi
  92 0008 9BB2     		uxth	r3, r3
  44:.\ultrasonic_s.c **** }
  93              		.loc 1 44 0
  94 000a 1846     		mov	r0, r3
  95 000c BD46     		mov	sp, r7
  96              		@ sp needed
  97 000e 5DF8047B 		ldr	r7, [sp], #4
  98 0012 7047     		bx	lr
  99              	.L8:
 100              		.align	2
 101              	.L7:
 102 0014 00000000 		.word	var_ultra_s
 103              		.cfi_endproc
 104              	.LFE64:
 105              		.size	get_var_ultra_s, .-get_var_ultra_s
 106              		.section	.text.myabss,"ax",%progbits
 107              		.align	2
 108              		.global	myabss
 109              		.thumb
 110              		.thumb_func
 111              		.type	myabss, %function
 112              	myabss:
 113              	.LFB65:
  45:.\ultrasonic_s.c **** 
  46:.\ultrasonic_s.c **** 
  47:.\ultrasonic_s.c **** int myabss(x){
 114              		.loc 1 47 0
 115              		.cfi_startproc
 116              		@ args = 0, pretend = 0, frame = 8
 117              		@ frame_needed = 1, uses_anonymous_args = 0
 118              		@ link register save eliminated.
 119 0000 80B4     		push	{r7}
 120              		.cfi_def_cfa_offset 4
 121              		.cfi_offset 7, -4
 122 0002 83B0     		sub	sp, sp, #12
 123              		.cfi_def_cfa_offset 16
 124 0004 00AF     		add	r7, sp, #0
ARM GAS  C:\Users\xavieran\AppData\Local\Temp\cccrv2V1.s 			page 4


 125              		.cfi_def_cfa_register 7
 126 0006 7860     		str	r0, [r7, #4]
  48:.\ultrasonic_s.c ****     if (x < 0){
 127              		.loc 1 48 0
 128 0008 7B68     		ldr	r3, [r7, #4]
 129 000a 002B     		cmp	r3, #0
 130 000c 02DA     		bge	.L10
  49:.\ultrasonic_s.c ****         return -x;
 131              		.loc 1 49 0
 132 000e 7B68     		ldr	r3, [r7, #4]
 133 0010 5B42     		negs	r3, r3
 134 0012 00E0     		b	.L11
 135              	.L10:
  50:.\ultrasonic_s.c ****     } else {
  51:.\ultrasonic_s.c ****         return x;
 136              		.loc 1 51 0
 137 0014 7B68     		ldr	r3, [r7, #4]
 138              	.L11:
  52:.\ultrasonic_s.c ****     }
  53:.\ultrasonic_s.c **** }
 139              		.loc 1 53 0
 140 0016 1846     		mov	r0, r3
 141 0018 0C37     		adds	r7, r7, #12
 142 001a BD46     		mov	sp, r7
 143              		@ sp needed
 144 001c 5DF8047B 		ldr	r7, [sp], #4
 145 0020 7047     		bx	lr
 146              		.cfi_endproc
 147              	.LFE65:
 148              		.size	myabss, .-myabss
 149              		.global	__aeabi_ui2d
 150              		.global	__aeabi_ddiv
 151              		.global	__aeabi_d2uiz
 152 0022 00BF     		.section	.text.HC_TRIG_ISR_S,"ax",%progbits
 153              		.align	2
 154              		.global	HC_TRIG_ISR_S
 155              		.thumb
 156              		.thumb_func
 157              		.type	HC_TRIG_ISR_S, %function
 158              	HC_TRIG_ISR_S:
 159              	.LFB66:
  54:.\ultrasonic_s.c **** 
  55:.\ultrasonic_s.c **** CY_ISR(HC_TRIG_ISR_S){
 160              		.loc 1 55 0
 161              		.cfi_startproc
 162              		@ args = 0, pretend = 0, frame = 8
 163              		@ frame_needed = 1, uses_anonymous_args = 0
 164 0000 80B5     		push	{r7, lr}
 165              		.cfi_def_cfa_offset 8
 166              		.cfi_offset 7, -8
 167              		.cfi_offset 14, -4
 168 0002 82B0     		sub	sp, sp, #8
 169              		.cfi_def_cfa_offset 16
 170 0004 00AF     		add	r7, sp, #0
 171              		.cfi_def_cfa_register 7
  56:.\ultrasonic_s.c ****     ultra_distance_s = (MAX_COUNT - HC_Timer_S_ReadCounter()) / DIST_CORRECTION;
 172              		.loc 1 56 0
ARM GAS  C:\Users\xavieran\AppData\Local\Temp\cccrv2V1.s 			page 5


 173 0006 FFF7FEFF 		bl	HC_Timer_S_ReadCounter
 174 000a 0346     		mov	r3, r0
 175 000c C3F54343 		rsb	r3, r3, #49920
 176 0010 5033     		adds	r3, r3, #80
 177 0012 1846     		mov	r0, r3
 178 0014 FFF7FEFF 		bl	__aeabi_ui2d
 179 0018 0246     		mov	r2, r0
 180 001a 0B46     		mov	r3, r1
 181 001c 1046     		mov	r0, r2
 182 001e 1946     		mov	r1, r3
 183 0020 4FF00002 		mov	r2, #0
 184 0024 354B     		ldr	r3, .L17
 185 0026 FFF7FEFF 		bl	__aeabi_ddiv
 186 002a 0246     		mov	r2, r0
 187 002c 0B46     		mov	r3, r1
 188 002e 1046     		mov	r0, r2
 189 0030 1946     		mov	r1, r3
 190 0032 FFF7FEFF 		bl	__aeabi_d2uiz
 191 0036 0346     		mov	r3, r0
 192 0038 9AB2     		uxth	r2, r3
 193 003a 314B     		ldr	r3, .L17+4
 194 003c 1A80     		strh	r2, [r3]	@ movhi
  57:.\ultrasonic_s.c ****     ultra_s[ultra_i_s] = ultra_distance_s;
 195              		.loc 1 57 0
 196 003e 314B     		ldr	r3, .L17+8
 197 0040 1A68     		ldr	r2, [r3]
 198 0042 2F4B     		ldr	r3, .L17+4
 199 0044 1B88     		ldrh	r3, [r3]	@ movhi
 200 0046 99B2     		uxth	r1, r3
 201 0048 2F4B     		ldr	r3, .L17+12
 202 004a 23F81210 		strh	r1, [r3, r2, lsl #1]	@ movhi
  58:.\ultrasonic_s.c ****     ultra_i_s = (ultra_i_s + 1) % 10;
 203              		.loc 1 58 0
 204 004e 2D4B     		ldr	r3, .L17+8
 205 0050 1B68     		ldr	r3, [r3]
 206 0052 591C     		adds	r1, r3, #1
 207 0054 2D4B     		ldr	r3, .L17+16
 208 0056 83FB0123 		smull	r2, r3, r3, r1
 209 005a 9A10     		asrs	r2, r3, #2
 210 005c CB17     		asrs	r3, r1, #31
 211 005e D21A     		subs	r2, r2, r3
 212 0060 1346     		mov	r3, r2
 213 0062 9B00     		lsls	r3, r3, #2
 214 0064 1344     		add	r3, r3, r2
 215 0066 5B00     		lsls	r3, r3, #1
 216 0068 CA1A     		subs	r2, r1, r3
 217 006a 264B     		ldr	r3, .L17+8
 218 006c 1A60     		str	r2, [r3]
  59:.\ultrasonic_s.c ****     int i;
  60:.\ultrasonic_s.c ****     for (i = 0; i < 10; i++){
 219              		.loc 1 60 0
 220 006e 0023     		movs	r3, #0
 221 0070 7B60     		str	r3, [r7, #4]
 222 0072 0EE0     		b	.L13
 223              	.L14:
  61:.\ultrasonic_s.c ****         ultra_distance_s += ultra_s[i];
 224              		.loc 1 61 0 discriminator 2
ARM GAS  C:\Users\xavieran\AppData\Local\Temp\cccrv2V1.s 			page 6


 225 0074 244B     		ldr	r3, .L17+12
 226 0076 7A68     		ldr	r2, [r7, #4]
 227 0078 33F81230 		ldrh	r3, [r3, r2, lsl #1]	@ movhi
 228 007c 9AB2     		uxth	r2, r3
 229 007e 204B     		ldr	r3, .L17+4
 230 0080 1B88     		ldrh	r3, [r3]	@ movhi
 231 0082 9BB2     		uxth	r3, r3
 232 0084 1344     		add	r3, r3, r2
 233 0086 9AB2     		uxth	r2, r3
 234 0088 1D4B     		ldr	r3, .L17+4
 235 008a 1A80     		strh	r2, [r3]	@ movhi
  60:.\ultrasonic_s.c ****     for (i = 0; i < 10; i++){
 236              		.loc 1 60 0 discriminator 2
 237 008c 7B68     		ldr	r3, [r7, #4]
 238 008e 0133     		adds	r3, r3, #1
 239 0090 7B60     		str	r3, [r7, #4]
 240              	.L13:
  60:.\ultrasonic_s.c ****     for (i = 0; i < 10; i++){
 241              		.loc 1 60 0 is_stmt 0 discriminator 1
 242 0092 7B68     		ldr	r3, [r7, #4]
 243 0094 092B     		cmp	r3, #9
 244 0096 EDDD     		ble	.L14
  62:.\ultrasonic_s.c ****     } 
  63:.\ultrasonic_s.c ****     ultra_distance_s /= 10;
 245              		.loc 1 63 0 is_stmt 1
 246 0098 194B     		ldr	r3, .L17+4
 247 009a 1B88     		ldrh	r3, [r3]	@ movhi
 248 009c 9AB2     		uxth	r2, r3
 249 009e 1C4B     		ldr	r3, .L17+20
 250 00a0 A3FB0213 		umull	r1, r3, r3, r2
 251 00a4 DB08     		lsrs	r3, r3, #3
 252 00a6 9AB2     		uxth	r2, r3
 253 00a8 154B     		ldr	r3, .L17+4
 254 00aa 1A80     		strh	r2, [r3]	@ movhi
  64:.\ultrasonic_s.c ****     var_ultra_s = 0;
 255              		.loc 1 64 0
 256 00ac 194B     		ldr	r3, .L17+24
 257 00ae 0022     		movs	r2, #0
 258 00b0 1A80     		strh	r2, [r3]	@ movhi
  65:.\ultrasonic_s.c ****     for (i = 0; i < 10; i++){
 259              		.loc 1 65 0
 260 00b2 0023     		movs	r3, #0
 261 00b4 7B60     		str	r3, [r7, #4]
 262 00b6 18E0     		b	.L15
 263              	.L16:
  66:.\ultrasonic_s.c ****         var_ultra_s += myabss(ultra_distance_s - ultra_s[i]);
 264              		.loc 1 66 0 discriminator 2
 265 00b8 114B     		ldr	r3, .L17+4
 266 00ba 1B88     		ldrh	r3, [r3]	@ movhi
 267 00bc 9BB2     		uxth	r3, r3
 268 00be 1A46     		mov	r2, r3
 269 00c0 114B     		ldr	r3, .L17+12
 270 00c2 7968     		ldr	r1, [r7, #4]
 271 00c4 33F81130 		ldrh	r3, [r3, r1, lsl #1]	@ movhi
 272 00c8 9BB2     		uxth	r3, r3
 273 00ca D31A     		subs	r3, r2, r3
 274 00cc 1846     		mov	r0, r3
ARM GAS  C:\Users\xavieran\AppData\Local\Temp\cccrv2V1.s 			page 7


 275 00ce FFF7FEFF 		bl	myabss
 276 00d2 0346     		mov	r3, r0
 277 00d4 9AB2     		uxth	r2, r3
 278 00d6 0F4B     		ldr	r3, .L17+24
 279 00d8 1B88     		ldrh	r3, [r3]	@ movhi
 280 00da 9BB2     		uxth	r3, r3
 281 00dc 1344     		add	r3, r3, r2
 282 00de 9AB2     		uxth	r2, r3
 283 00e0 0C4B     		ldr	r3, .L17+24
 284 00e2 1A80     		strh	r2, [r3]	@ movhi
  65:.\ultrasonic_s.c ****     for (i = 0; i < 10; i++){
 285              		.loc 1 65 0 discriminator 2
 286 00e4 7B68     		ldr	r3, [r7, #4]
 287 00e6 0133     		adds	r3, r3, #1
 288 00e8 7B60     		str	r3, [r7, #4]
 289              	.L15:
  65:.\ultrasonic_s.c ****     for (i = 0; i < 10; i++){
 290              		.loc 1 65 0 is_stmt 0 discriminator 1
 291 00ea 7B68     		ldr	r3, [r7, #4]
 292 00ec 092B     		cmp	r3, #9
 293 00ee E3DD     		ble	.L16
  67:.\ultrasonic_s.c ****     }
  68:.\ultrasonic_s.c ****     HC_ISR_S_ClearPending();
 294              		.loc 1 68 0 is_stmt 1
 295 00f0 FFF7FEFF 		bl	HC_ISR_S_ClearPending
  69:.\ultrasonic_s.c **** }
 296              		.loc 1 69 0
 297 00f4 0837     		adds	r7, r7, #8
 298 00f6 BD46     		mov	sp, r7
 299              		@ sp needed
 300 00f8 80BD     		pop	{r7, pc}
 301              	.L18:
 302 00fa 00BF     		.align	2
 303              	.L17:
 304 00fc 00004D40 		.word	1078788096
 305 0100 00000000 		.word	ultra_distance_s
 306 0104 00000000 		.word	ultra_i_s
 307 0108 00000000 		.word	ultra_s
 308 010c 67666666 		.word	1717986919
 309 0110 CDCCCCCC 		.word	-858993459
 310 0114 00000000 		.word	var_ultra_s
 311              		.cfi_endproc
 312              	.LFE66:
 313              		.size	HC_TRIG_ISR_S, .-HC_TRIG_ISR_S
 314              		.section	.text.start_ultrasonic_s,"ax",%progbits
 315              		.align	2
 316              		.global	start_ultrasonic_s
 317              		.thumb
 318              		.thumb_func
 319              		.type	start_ultrasonic_s, %function
 320              	start_ultrasonic_s:
 321              	.LFB67:
  70:.\ultrasonic_s.c **** 
  71:.\ultrasonic_s.c **** void start_ultrasonic_s(){
 322              		.loc 1 71 0
 323              		.cfi_startproc
 324              		@ args = 0, pretend = 0, frame = 0
ARM GAS  C:\Users\xavieran\AppData\Local\Temp\cccrv2V1.s 			page 8


 325              		@ frame_needed = 1, uses_anonymous_args = 0
 326 0000 80B5     		push	{r7, lr}
 327              		.cfi_def_cfa_offset 8
 328              		.cfi_offset 7, -8
 329              		.cfi_offset 14, -4
 330 0002 00AF     		add	r7, sp, #0
 331              		.cfi_def_cfa_register 7
  72:.\ultrasonic_s.c ****     ultra_i_s = 0;
 332              		.loc 1 72 0
 333 0004 064B     		ldr	r3, .L20
 334 0006 0022     		movs	r2, #0
 335 0008 1A60     		str	r2, [r3]
  73:.\ultrasonic_s.c ****     ultra_distance_s = 0;
 336              		.loc 1 73 0
 337 000a 064B     		ldr	r3, .L20+4
 338 000c 0022     		movs	r2, #0
 339 000e 1A80     		strh	r2, [r3]	@ movhi
  74:.\ultrasonic_s.c ****     HC_Timer_S_Start();
 340              		.loc 1 74 0
 341 0010 FFF7FEFF 		bl	HC_Timer_S_Start
  75:.\ultrasonic_s.c ****     HC_PWM_S_Start();
 342              		.loc 1 75 0
 343 0014 FFF7FEFF 		bl	HC_PWM_S_Start
  76:.\ultrasonic_s.c ****     HC_ISR_S_StartEx(HC_TRIG_ISR_S);
 344              		.loc 1 76 0
 345 0018 0348     		ldr	r0, .L20+8
 346 001a FFF7FEFF 		bl	HC_ISR_S_StartEx
  77:.\ultrasonic_s.c **** }
 347              		.loc 1 77 0
 348 001e 80BD     		pop	{r7, pc}
 349              	.L21:
 350              		.align	2
 351              	.L20:
 352 0020 00000000 		.word	ultra_i_s
 353 0024 00000000 		.word	ultra_distance_s
 354 0028 00000000 		.word	HC_TRIG_ISR_S
 355              		.cfi_endproc
 356              	.LFE67:
 357              		.size	start_ultrasonic_s, .-start_ultrasonic_s
 358              		.section	.text.stop_ultrasonic_s,"ax",%progbits
 359              		.align	2
 360              		.global	stop_ultrasonic_s
 361              		.thumb
 362              		.thumb_func
 363              		.type	stop_ultrasonic_s, %function
 364              	stop_ultrasonic_s:
 365              	.LFB68:
  78:.\ultrasonic_s.c **** 
  79:.\ultrasonic_s.c **** void stop_ultrasonic_s(){
 366              		.loc 1 79 0
 367              		.cfi_startproc
 368              		@ args = 0, pretend = 0, frame = 0
 369              		@ frame_needed = 1, uses_anonymous_args = 0
 370 0000 80B5     		push	{r7, lr}
 371              		.cfi_def_cfa_offset 8
 372              		.cfi_offset 7, -8
 373              		.cfi_offset 14, -4
ARM GAS  C:\Users\xavieran\AppData\Local\Temp\cccrv2V1.s 			page 9


 374 0002 00AF     		add	r7, sp, #0
 375              		.cfi_def_cfa_register 7
  80:.\ultrasonic_s.c ****     HC_Timer_S_Stop();
 376              		.loc 1 80 0
 377 0004 FFF7FEFF 		bl	HC_Timer_S_Stop
  81:.\ultrasonic_s.c ****     HC_PWM_S_Stop();
 378              		.loc 1 81 0
 379 0008 FFF7FEFF 		bl	HC_PWM_S_Stop
  82:.\ultrasonic_s.c ****     HC_ISR_S_Stop();
 380              		.loc 1 82 0
 381 000c FFF7FEFF 		bl	HC_ISR_S_Stop
  83:.\ultrasonic_s.c **** }
 382              		.loc 1 83 0
 383 0010 80BD     		pop	{r7, pc}
 384              		.cfi_endproc
 385              	.LFE68:
 386              		.size	stop_ultrasonic_s, .-stop_ultrasonic_s
 387 0012 00BF     		.text
 388              	.Letext0:
 389              		.file 2 "c:\\program files (x86)\\cypress\\psoc creator\\3.2\\psoc creator\\import\\gnu\\arm\\4.8.
 390              		.file 3 "c:\\program files (x86)\\cypress\\psoc creator\\3.2\\psoc creator\\import\\gnu\\arm\\4.8.
 391              		.file 4 "Generated_Source\\PSoC5/cytypes.h"
 392              		.file 5 "Generated_Source\\PSoC5/core_cm3.h"
 393              		.file 6 "Generated_Source\\PSoC5/Camera.h"