ARM GAS  C:\Users\xavieran\AppData\Local\Temp\ccXEiOGw.s 			page 1


   1              		.syntax unified
   2              		.cpu cortex-m3
   3              		.fpu softvfp
   4              		.eabi_attribute 20, 1
   5              		.eabi_attribute 21, 1
   6              		.eabi_attribute 23, 3
   7              		.eabi_attribute 24, 1
   8              		.eabi_attribute 25, 1
   9              		.eabi_attribute 26, 1
  10              		.eabi_attribute 30, 6
  11              		.eabi_attribute 34, 1
  12              		.eabi_attribute 18, 4
  13              		.thumb
  14              		.file	"ultrasonic.c"
  15              		.text
  16              	.Ltext0:
  17              		.cfi_sections	.debug_frame
  18              		.comm	Camera_framebuffer,50688,4
  19              		.comm	ultra,20,4
  20              		.global	ultra_i
  21              		.bss
  22              		.align	2
  23              		.type	ultra_i, %object
  24              		.size	ultra_i, 4
  25              	ultra_i:
  26 0000 00000000 		.space	4
  27              		.comm	ultra_distance,2,2
  28              		.global	var_ultra
  29              		.align	1
  30              		.type	var_ultra, %object
  31              		.size	var_ultra, 2
  32              	var_ultra:
  33 0004 0000     		.space	2
  34              		.comm	outString,16,4
  35 0006 0000     		.section	.text.get_mean_ultra,"ax",%progbits
  36              		.align	2
  37              		.global	get_mean_ultra
  38              		.thumb
  39              		.thumb_func
  40              		.type	get_mean_ultra, %function
  41              	get_mean_ultra:
  42              	.LFB63:
  43              		.file 1 ".\\ultrasonic.c"
   1:.\ultrasonic.c **** /* ========================================
   2:.\ultrasonic.c ****  *
   3:.\ultrasonic.c ****  * Copyright YOUR COMPANY, THE YEAR
   4:.\ultrasonic.c ****  * All Rights Reserved
   5:.\ultrasonic.c ****  * UNPUBLISHED, LICENSED SOFTWARE.
   6:.\ultrasonic.c ****  *
   7:.\ultrasonic.c ****  * CONFIDENTIAL AND PROPRIETARY INFORMATION
   8:.\ultrasonic.c ****  * WHICH IS THE PROPERTY OF your company.
   9:.\ultrasonic.c ****  *
  10:.\ultrasonic.c ****  * ========================================
  11:.\ultrasonic.c **** */
  12:.\ultrasonic.c **** #include <project.h>
  13:.\ultrasonic.c **** #include <stdio.h>
  14:.\ultrasonic.c **** #include <math.h>
ARM GAS  C:\Users\xavieran\AppData\Local\Temp\ccXEiOGw.s 			page 2


  15:.\ultrasonic.c **** #include <ultrasonic_s.h>
  16:.\ultrasonic.c **** 
  17:.\ultrasonic.c **** #define MAX_COUNT 50000u
  18:.\ultrasonic.c **** //d = vt, v=340m/s=340mm/ms=.34mm/us
  19:.\ultrasonic.c **** //t=pulse/2, d = 1.7cm/us*pulse
  20:.\ultrasonic.c **** #define DIST_CORRECTION 58.0
  21:.\ultrasonic.c **** 
  22:.\ultrasonic.c **** volatile uint16 ultra[10];
  23:.\ultrasonic.c **** volatile int ultra_i = 0;
  24:.\ultrasonic.c **** volatile uint16 ultra_distance;
  25:.\ultrasonic.c **** volatile uint16 var_ultra = 0;
  26:.\ultrasonic.c **** 
  27:.\ultrasonic.c **** /* ** How to use this module ** 
  28:.\ultrasonic.c ****  * 1. Start the library with start_ultrasonic();
  29:.\ultrasonic.c ****  * 2. The module functions automatically through an ISR, so 
  30:.\ultrasonic.c ****  *    just monitor ultra_distance which will give the distance from the
  31:.\ultrasonic.c ****  *    device to the obstacle in cm
  32:.\ultrasonic.c ****  */
  33:.\ultrasonic.c **** 
  34:.\ultrasonic.c **** char outString[16];
  35:.\ultrasonic.c **** 
  36:.\ultrasonic.c **** #define POS_PRINTF(R,C,X,...) \
  37:.\ultrasonic.c ****  {sprintf(outString, X, __VA_ARGS__); LCD_Position(R, C); LCD_PrintString(outString);}
  38:.\ultrasonic.c **** 
  39:.\ultrasonic.c **** uint16 get_mean_ultra(void){
  44              		.loc 1 39 0
  45              		.cfi_startproc
  46              		@ args = 0, pretend = 0, frame = 0
  47              		@ frame_needed = 1, uses_anonymous_args = 0
  48              		@ link register save eliminated.
  49 0000 80B4     		push	{r7}
  50              		.cfi_def_cfa_offset 4
  51              		.cfi_offset 7, -4
  52 0002 00AF     		add	r7, sp, #0
  53              		.cfi_def_cfa_register 7
  40:.\ultrasonic.c ****     return ultra_distance;
  54              		.loc 1 40 0
  55 0004 034B     		ldr	r3, .L3
  56 0006 1B88     		ldrh	r3, [r3]	@ movhi
  57 0008 9BB2     		uxth	r3, r3
  41:.\ultrasonic.c **** }
  58              		.loc 1 41 0
  59 000a 1846     		mov	r0, r3
  60 000c BD46     		mov	sp, r7
  61              		@ sp needed
  62 000e 5DF8047B 		ldr	r7, [sp], #4
  63 0012 7047     		bx	lr
  64              	.L4:
  65              		.align	2
  66              	.L3:
  67 0014 00000000 		.word	ultra_distance
  68              		.cfi_endproc
  69              	.LFE63:
  70              		.size	get_mean_ultra, .-get_mean_ultra
  71              		.section	.text.get_var_ultra,"ax",%progbits
  72              		.align	2
  73              		.global	get_var_ultra
ARM GAS  C:\Users\xavieran\AppData\Local\Temp\ccXEiOGw.s 			page 3


  74              		.thumb
  75              		.thumb_func
  76              		.type	get_var_ultra, %function
  77              	get_var_ultra:
  78              	.LFB64:
  42:.\ultrasonic.c **** 
  43:.\ultrasonic.c **** uint16 get_var_ultra(){
  79              		.loc 1 43 0
  80              		.cfi_startproc
  81              		@ args = 0, pretend = 0, frame = 0
  82              		@ frame_needed = 1, uses_anonymous_args = 0
  83              		@ link register save eliminated.
  84 0000 80B4     		push	{r7}
  85              		.cfi_def_cfa_offset 4
  86              		.cfi_offset 7, -4
  87 0002 00AF     		add	r7, sp, #0
  88              		.cfi_def_cfa_register 7
  44:.\ultrasonic.c ****     return var_ultra;
  89              		.loc 1 44 0
  90 0004 034B     		ldr	r3, .L7
  91 0006 1B88     		ldrh	r3, [r3]	@ movhi
  92 0008 9BB2     		uxth	r3, r3
  45:.\ultrasonic.c **** }
  93              		.loc 1 45 0
  94 000a 1846     		mov	r0, r3
  95 000c BD46     		mov	sp, r7
  96              		@ sp needed
  97 000e 5DF8047B 		ldr	r7, [sp], #4
  98 0012 7047     		bx	lr
  99              	.L8:
 100              		.align	2
 101              	.L7:
 102 0014 00000000 		.word	var_ultra
 103              		.cfi_endproc
 104              	.LFE64:
 105              		.size	get_var_ultra, .-get_var_ultra
 106              		.section	.text.myabs,"ax",%progbits
 107              		.align	2
 108              		.global	myabs
 109              		.thumb
 110              		.thumb_func
 111              		.type	myabs, %function
 112              	myabs:
 113              	.LFB65:
  46:.\ultrasonic.c **** 
  47:.\ultrasonic.c **** 
  48:.\ultrasonic.c **** int myabs(x){
 114              		.loc 1 48 0
 115              		.cfi_startproc
 116              		@ args = 0, pretend = 0, frame = 8
 117              		@ frame_needed = 1, uses_anonymous_args = 0
 118              		@ link register save eliminated.
 119 0000 80B4     		push	{r7}
 120              		.cfi_def_cfa_offset 4
 121              		.cfi_offset 7, -4
 122 0002 83B0     		sub	sp, sp, #12
 123              		.cfi_def_cfa_offset 16
ARM GAS  C:\Users\xavieran\AppData\Local\Temp\ccXEiOGw.s 			page 4


 124 0004 00AF     		add	r7, sp, #0
 125              		.cfi_def_cfa_register 7
 126 0006 7860     		str	r0, [r7, #4]
  49:.\ultrasonic.c ****     if (x < 0){
 127              		.loc 1 49 0
 128 0008 7B68     		ldr	r3, [r7, #4]
 129 000a 002B     		cmp	r3, #0
 130 000c 02DA     		bge	.L10
  50:.\ultrasonic.c ****         return -x;
 131              		.loc 1 50 0
 132 000e 7B68     		ldr	r3, [r7, #4]
 133 0010 5B42     		negs	r3, r3
 134 0012 00E0     		b	.L11
 135              	.L10:
  51:.\ultrasonic.c ****     } else {
  52:.\ultrasonic.c ****         return x;
 136              		.loc 1 52 0
 137 0014 7B68     		ldr	r3, [r7, #4]
 138              	.L11:
  53:.\ultrasonic.c ****     }
  54:.\ultrasonic.c **** }
 139              		.loc 1 54 0
 140 0016 1846     		mov	r0, r3
 141 0018 0C37     		adds	r7, r7, #12
 142 001a BD46     		mov	sp, r7
 143              		@ sp needed
 144 001c 5DF8047B 		ldr	r7, [sp], #4
 145 0020 7047     		bx	lr
 146              		.cfi_endproc
 147              	.LFE65:
 148              		.size	myabs, .-myabs
 149 0022 00BF     		.section	.text.get_avg_mean_ultra,"ax",%progbits
 150              		.align	2
 151              		.global	get_avg_mean_ultra
 152              		.thumb
 153              		.thumb_func
 154              		.type	get_avg_mean_ultra, %function
 155              	get_avg_mean_ultra:
 156              	.LFB66:
  55:.\ultrasonic.c **** 
  56:.\ultrasonic.c **** uint16 get_avg_mean_ultra(){
 157              		.loc 1 56 0
 158              		.cfi_startproc
 159              		@ args = 0, pretend = 0, frame = 0
 160              		@ frame_needed = 1, uses_anonymous_args = 0
 161 0000 98B5     		push	{r3, r4, r7, lr}
 162              		.cfi_def_cfa_offset 16
 163              		.cfi_offset 3, -16
 164              		.cfi_offset 4, -12
 165              		.cfi_offset 7, -8
 166              		.cfi_offset 14, -4
 167 0002 00AF     		add	r7, sp, #0
 168              		.cfi_def_cfa_register 7
  57:.\ultrasonic.c ****     return (get_mean_ultra() + (get_mean_ultra_s() - 5))/2;
 169              		.loc 1 57 0
 170 0004 FFF7FEFF 		bl	get_mean_ultra
 171 0008 0346     		mov	r3, r0
ARM GAS  C:\Users\xavieran\AppData\Local\Temp\ccXEiOGw.s 			page 5


 172 000a 1C46     		mov	r4, r3
 173 000c FFF7FEFF 		bl	get_mean_ultra_s
 174 0010 0346     		mov	r3, r0
 175 0012 053B     		subs	r3, r3, #5
 176 0014 2344     		add	r3, r3, r4
 177 0016 DA0F     		lsrs	r2, r3, #31
 178 0018 1344     		add	r3, r3, r2
 179 001a 5B10     		asrs	r3, r3, #1
 180 001c 9BB2     		uxth	r3, r3
  58:.\ultrasonic.c **** }
 181              		.loc 1 58 0
 182 001e 1846     		mov	r0, r3
 183 0020 98BD     		pop	{r3, r4, r7, pc}
 184              		.cfi_endproc
 185              	.LFE66:
 186              		.size	get_avg_mean_ultra, .-get_avg_mean_ultra
 187              		.global	__aeabi_ui2d
 188              		.global	__aeabi_ddiv
 189              		.global	__aeabi_d2uiz
 190 0022 00BF     		.section	.text.HC_TRIG_ISR,"ax",%progbits
 191              		.align	2
 192              		.global	HC_TRIG_ISR
 193              		.thumb
 194              		.thumb_func
 195              		.type	HC_TRIG_ISR, %function
 196              	HC_TRIG_ISR:
 197              	.LFB67:
  59:.\ultrasonic.c **** 
  60:.\ultrasonic.c **** CY_ISR(HC_TRIG_ISR){
 198              		.loc 1 60 0
 199              		.cfi_startproc
 200              		@ args = 0, pretend = 0, frame = 8
 201              		@ frame_needed = 1, uses_anonymous_args = 0
 202 0000 80B5     		push	{r7, lr}
 203              		.cfi_def_cfa_offset 8
 204              		.cfi_offset 7, -8
 205              		.cfi_offset 14, -4
 206 0002 82B0     		sub	sp, sp, #8
 207              		.cfi_def_cfa_offset 16
 208 0004 00AF     		add	r7, sp, #0
 209              		.cfi_def_cfa_register 7
  61:.\ultrasonic.c ****     ultra_distance = (MAX_COUNT - HC_Timer_ReadCounter()) / DIST_CORRECTION;
 210              		.loc 1 61 0
 211 0006 FFF7FEFF 		bl	HC_Timer_ReadCounter
 212 000a 0346     		mov	r3, r0
 213 000c C3F54343 		rsb	r3, r3, #49920
 214 0010 5033     		adds	r3, r3, #80
 215 0012 1846     		mov	r0, r3
 216 0014 FFF7FEFF 		bl	__aeabi_ui2d
 217 0018 0246     		mov	r2, r0
 218 001a 0B46     		mov	r3, r1
 219 001c 1046     		mov	r0, r2
 220 001e 1946     		mov	r1, r3
 221 0020 4FF00002 		mov	r2, #0
 222 0024 354B     		ldr	r3, .L19
 223 0026 FFF7FEFF 		bl	__aeabi_ddiv
 224 002a 0246     		mov	r2, r0
ARM GAS  C:\Users\xavieran\AppData\Local\Temp\ccXEiOGw.s 			page 6


 225 002c 0B46     		mov	r3, r1
 226 002e 1046     		mov	r0, r2
 227 0030 1946     		mov	r1, r3
 228 0032 FFF7FEFF 		bl	__aeabi_d2uiz
 229 0036 0346     		mov	r3, r0
 230 0038 9AB2     		uxth	r2, r3
 231 003a 314B     		ldr	r3, .L19+4
 232 003c 1A80     		strh	r2, [r3]	@ movhi
  62:.\ultrasonic.c ****     ultra[ultra_i] = ultra_distance;
 233              		.loc 1 62 0
 234 003e 314B     		ldr	r3, .L19+8
 235 0040 1A68     		ldr	r2, [r3]
 236 0042 2F4B     		ldr	r3, .L19+4
 237 0044 1B88     		ldrh	r3, [r3]	@ movhi
 238 0046 99B2     		uxth	r1, r3
 239 0048 2F4B     		ldr	r3, .L19+12
 240 004a 23F81210 		strh	r1, [r3, r2, lsl #1]	@ movhi
  63:.\ultrasonic.c ****     ultra_i = (ultra_i + 1) % 10;
 241              		.loc 1 63 0
 242 004e 2D4B     		ldr	r3, .L19+8
 243 0050 1B68     		ldr	r3, [r3]
 244 0052 591C     		adds	r1, r3, #1
 245 0054 2D4B     		ldr	r3, .L19+16
 246 0056 83FB0123 		smull	r2, r3, r3, r1
 247 005a 9A10     		asrs	r2, r3, #2
 248 005c CB17     		asrs	r3, r1, #31
 249 005e D21A     		subs	r2, r2, r3
 250 0060 1346     		mov	r3, r2
 251 0062 9B00     		lsls	r3, r3, #2
 252 0064 1344     		add	r3, r3, r2
 253 0066 5B00     		lsls	r3, r3, #1
 254 0068 CA1A     		subs	r2, r1, r3
 255 006a 264B     		ldr	r3, .L19+8
 256 006c 1A60     		str	r2, [r3]
  64:.\ultrasonic.c ****     int i;
  65:.\ultrasonic.c ****     for (i = 0; i < 10; i++){
 257              		.loc 1 65 0
 258 006e 0023     		movs	r3, #0
 259 0070 7B60     		str	r3, [r7, #4]
 260 0072 0EE0     		b	.L15
 261              	.L16:
  66:.\ultrasonic.c ****         ultra_distance += ultra[i];
 262              		.loc 1 66 0 discriminator 2
 263 0074 244B     		ldr	r3, .L19+12
 264 0076 7A68     		ldr	r2, [r7, #4]
 265 0078 33F81230 		ldrh	r3, [r3, r2, lsl #1]	@ movhi
 266 007c 9AB2     		uxth	r2, r3
 267 007e 204B     		ldr	r3, .L19+4
 268 0080 1B88     		ldrh	r3, [r3]	@ movhi
 269 0082 9BB2     		uxth	r3, r3
 270 0084 1344     		add	r3, r3, r2
 271 0086 9AB2     		uxth	r2, r3
 272 0088 1D4B     		ldr	r3, .L19+4
 273 008a 1A80     		strh	r2, [r3]	@ movhi
  65:.\ultrasonic.c ****     for (i = 0; i < 10; i++){
 274              		.loc 1 65 0 discriminator 2
 275 008c 7B68     		ldr	r3, [r7, #4]
ARM GAS  C:\Users\xavieran\AppData\Local\Temp\ccXEiOGw.s 			page 7


 276 008e 0133     		adds	r3, r3, #1
 277 0090 7B60     		str	r3, [r7, #4]
 278              	.L15:
  65:.\ultrasonic.c ****     for (i = 0; i < 10; i++){
 279              		.loc 1 65 0 is_stmt 0 discriminator 1
 280 0092 7B68     		ldr	r3, [r7, #4]
 281 0094 092B     		cmp	r3, #9
 282 0096 EDDD     		ble	.L16
  67:.\ultrasonic.c ****     } 
  68:.\ultrasonic.c ****     ultra_distance /= 10;
 283              		.loc 1 68 0 is_stmt 1
 284 0098 194B     		ldr	r3, .L19+4
 285 009a 1B88     		ldrh	r3, [r3]	@ movhi
 286 009c 9AB2     		uxth	r2, r3
 287 009e 1C4B     		ldr	r3, .L19+20
 288 00a0 A3FB0213 		umull	r1, r3, r3, r2
 289 00a4 DB08     		lsrs	r3, r3, #3
 290 00a6 9AB2     		uxth	r2, r3
 291 00a8 154B     		ldr	r3, .L19+4
 292 00aa 1A80     		strh	r2, [r3]	@ movhi
  69:.\ultrasonic.c ****     var_ultra = 0;
 293              		.loc 1 69 0
 294 00ac 194B     		ldr	r3, .L19+24
 295 00ae 0022     		movs	r2, #0
 296 00b0 1A80     		strh	r2, [r3]	@ movhi
  70:.\ultrasonic.c ****     for (i = 0; i < 10; i++){
 297              		.loc 1 70 0
 298 00b2 0023     		movs	r3, #0
 299 00b4 7B60     		str	r3, [r7, #4]
 300 00b6 18E0     		b	.L17
 301              	.L18:
  71:.\ultrasonic.c ****         var_ultra += myabs(ultra_distance - ultra[i]);
 302              		.loc 1 71 0 discriminator 2
 303 00b8 114B     		ldr	r3, .L19+4
 304 00ba 1B88     		ldrh	r3, [r3]	@ movhi
 305 00bc 9BB2     		uxth	r3, r3
 306 00be 1A46     		mov	r2, r3
 307 00c0 114B     		ldr	r3, .L19+12
 308 00c2 7968     		ldr	r1, [r7, #4]
 309 00c4 33F81130 		ldrh	r3, [r3, r1, lsl #1]	@ movhi
 310 00c8 9BB2     		uxth	r3, r3
 311 00ca D31A     		subs	r3, r2, r3
 312 00cc 1846     		mov	r0, r3
 313 00ce FFF7FEFF 		bl	myabs
 314 00d2 0346     		mov	r3, r0
 315 00d4 9AB2     		uxth	r2, r3
 316 00d6 0F4B     		ldr	r3, .L19+24
 317 00d8 1B88     		ldrh	r3, [r3]	@ movhi
 318 00da 9BB2     		uxth	r3, r3
 319 00dc 1344     		add	r3, r3, r2
 320 00de 9AB2     		uxth	r2, r3
 321 00e0 0C4B     		ldr	r3, .L19+24
 322 00e2 1A80     		strh	r2, [r3]	@ movhi
  70:.\ultrasonic.c ****     for (i = 0; i < 10; i++){
 323              		.loc 1 70 0 discriminator 2
 324 00e4 7B68     		ldr	r3, [r7, #4]
 325 00e6 0133     		adds	r3, r3, #1
ARM GAS  C:\Users\xavieran\AppData\Local\Temp\ccXEiOGw.s 			page 8


 326 00e8 7B60     		str	r3, [r7, #4]
 327              	.L17:
  70:.\ultrasonic.c ****     for (i = 0; i < 10; i++){
 328              		.loc 1 70 0 is_stmt 0 discriminator 1
 329 00ea 7B68     		ldr	r3, [r7, #4]
 330 00ec 092B     		cmp	r3, #9
 331 00ee E3DD     		ble	.L18
  72:.\ultrasonic.c ****     }
  73:.\ultrasonic.c ****     HC_ISR_ClearPending();
 332              		.loc 1 73 0 is_stmt 1
 333 00f0 FFF7FEFF 		bl	HC_ISR_ClearPending
  74:.\ultrasonic.c **** }
 334              		.loc 1 74 0
 335 00f4 0837     		adds	r7, r7, #8
 336 00f6 BD46     		mov	sp, r7
 337              		@ sp needed
 338 00f8 80BD     		pop	{r7, pc}
 339              	.L20:
 340 00fa 00BF     		.align	2
 341              	.L19:
 342 00fc 00004D40 		.word	1078788096
 343 0100 00000000 		.word	ultra_distance
 344 0104 00000000 		.word	ultra_i
 345 0108 00000000 		.word	ultra
 346 010c 67666666 		.word	1717986919
 347 0110 CDCCCCCC 		.word	-858993459
 348 0114 00000000 		.word	var_ultra
 349              		.cfi_endproc
 350              	.LFE67:
 351              		.size	HC_TRIG_ISR, .-HC_TRIG_ISR
 352              		.section	.text.start_ultrasonic,"ax",%progbits
 353              		.align	2
 354              		.global	start_ultrasonic
 355              		.thumb
 356              		.thumb_func
 357              		.type	start_ultrasonic, %function
 358              	start_ultrasonic:
 359              	.LFB68:
  75:.\ultrasonic.c **** 
  76:.\ultrasonic.c **** void start_ultrasonic(){
 360              		.loc 1 76 0
 361              		.cfi_startproc
 362              		@ args = 0, pretend = 0, frame = 0
 363              		@ frame_needed = 1, uses_anonymous_args = 0
 364 0000 80B5     		push	{r7, lr}
 365              		.cfi_def_cfa_offset 8
 366              		.cfi_offset 7, -8
 367              		.cfi_offset 14, -4
 368 0002 00AF     		add	r7, sp, #0
 369              		.cfi_def_cfa_register 7
  77:.\ultrasonic.c ****     ultra_i = 0;
 370              		.loc 1 77 0
 371 0004 064B     		ldr	r3, .L22
 372 0006 0022     		movs	r2, #0
 373 0008 1A60     		str	r2, [r3]
  78:.\ultrasonic.c ****     ultra_distance = 0;
 374              		.loc 1 78 0
ARM GAS  C:\Users\xavieran\AppData\Local\Temp\ccXEiOGw.s 			page 9


 375 000a 064B     		ldr	r3, .L22+4
 376 000c 0022     		movs	r2, #0
 377 000e 1A80     		strh	r2, [r3]	@ movhi
  79:.\ultrasonic.c ****     HC_Timer_Start();
 378              		.loc 1 79 0
 379 0010 FFF7FEFF 		bl	HC_Timer_Start
  80:.\ultrasonic.c ****     HC_PWM_Start();
 380              		.loc 1 80 0
 381 0014 FFF7FEFF 		bl	HC_PWM_Start
  81:.\ultrasonic.c ****     HC_ISR_StartEx(HC_TRIG_ISR);
 382              		.loc 1 81 0
 383 0018 0348     		ldr	r0, .L22+8
 384 001a FFF7FEFF 		bl	HC_ISR_StartEx
  82:.\ultrasonic.c **** }
 385              		.loc 1 82 0
 386 001e 80BD     		pop	{r7, pc}
 387              	.L23:
 388              		.align	2
 389              	.L22:
 390 0020 00000000 		.word	ultra_i
 391 0024 00000000 		.word	ultra_distance
 392 0028 00000000 		.word	HC_TRIG_ISR
 393              		.cfi_endproc
 394              	.LFE68:
 395              		.size	start_ultrasonic, .-start_ultrasonic
 396              		.section	.text.stop_ultrasonic,"ax",%progbits
 397              		.align	2
 398              		.global	stop_ultrasonic
 399              		.thumb
 400              		.thumb_func
 401              		.type	stop_ultrasonic, %function
 402              	stop_ultrasonic:
 403              	.LFB69:
  83:.\ultrasonic.c **** 
  84:.\ultrasonic.c **** void stop_ultrasonic(){
 404              		.loc 1 84 0
 405              		.cfi_startproc
 406              		@ args = 0, pretend = 0, frame = 0
 407              		@ frame_needed = 1, uses_anonymous_args = 0
 408 0000 80B5     		push	{r7, lr}
 409              		.cfi_def_cfa_offset 8
 410              		.cfi_offset 7, -8
 411              		.cfi_offset 14, -4
 412 0002 00AF     		add	r7, sp, #0
 413              		.cfi_def_cfa_register 7
  85:.\ultrasonic.c ****     HC_Timer_Stop();
 414              		.loc 1 85 0
 415 0004 FFF7FEFF 		bl	HC_Timer_Stop
  86:.\ultrasonic.c ****     HC_PWM_Stop();
 416              		.loc 1 86 0
 417 0008 FFF7FEFF 		bl	HC_PWM_Stop
  87:.\ultrasonic.c ****     HC_ISR_Stop();
 418              		.loc 1 87 0
 419 000c FFF7FEFF 		bl	HC_ISR_Stop
  88:.\ultrasonic.c **** }
 420              		.loc 1 88 0
 421 0010 80BD     		pop	{r7, pc}
ARM GAS  C:\Users\xavieran\AppData\Local\Temp\ccXEiOGw.s 			page 10


 422              		.cfi_endproc
 423              	.LFE69:
 424              		.size	stop_ultrasonic, .-stop_ultrasonic
 425 0012 00BF     		.text
 426              	.Letext0:
 427              		.file 2 "c:\\program files (x86)\\cypress\\psoc creator\\3.2\\psoc creator\\import\\gnu\\arm\\4.8.
 428              		.file 3 "c:\\program files (x86)\\cypress\\psoc creator\\3.2\\psoc creator\\import\\gnu\\arm\\4.8.
 429              		.file 4 "Generated_Source\\PSoC5/cytypes.h"
 430              		.file 5 "Generated_Source\\PSoC5/core_cm3.h"
 431              		.file 6 "Generated_Source\\PSoC5/Camera.h"