ARM GAS  C:\Users\xavieran\AppData\Local\Temp\cc74LRoi.s 			page 1


   1              		.syntax unified
   2              		.cpu cortex-m3
   3              		.fpu softvfp
   4              		.eabi_attribute 20, 1
   5              		.eabi_attribute 21, 1
   6              		.eabi_attribute 23, 3
   7              		.eabi_attribute 24, 1
   8              		.eabi_attribute 25, 1
   9              		.eabi_attribute 26, 1
  10              		.eabi_attribute 30, 6
  11              		.eabi_attribute 34, 1
  12              		.eabi_attribute 18, 4
  13              		.thumb
  14              		.file	"ultrasonic2.c"
  15              		.text
  16              	.Ltext0:
  17              		.cfi_sections	.debug_frame
  18              		.comm	Camera_framebuffer,50688,4
  19              		.comm	ultra,10,4
  20              		.global	ultra_i
  21              		.bss
  22              		.align	2
  23              		.type	ultra_i, %object
  24              		.size	ultra_i, 4
  25              	ultra_i:
  26 0000 00000000 		.space	4
  27              		.comm	ultra_distance_2,2,2
  28              		.global	__aeabi_ui2d
  29              		.global	__aeabi_ddiv
  30              		.global	__aeabi_d2uiz
  31              		.section	.text.HC_TRIG_ISR_2,"ax",%progbits
  32              		.align	2
  33              		.global	HC_TRIG_ISR_2
  34              		.thumb
  35              		.thumb_func
  36              		.type	HC_TRIG_ISR_2, %function
  37              	HC_TRIG_ISR_2:
  38              	.LFB63:
  39              		.file 1 ".\\ultrasonic2.c"
   1:.\ultrasonic2.c **** /* ========================================
   2:.\ultrasonic2.c ****  *
   3:.\ultrasonic2.c ****  * Copyright YOUR COMPANY, THE YEAR
   4:.\ultrasonic2.c ****  * All Rights Reserved
   5:.\ultrasonic2.c ****  * UNPUBLISHED, LICENSED SOFTWARE.
   6:.\ultrasonic2.c ****  *
   7:.\ultrasonic2.c ****  * CONFIDENTIAL AND PROPRIETARY INFORMATION
   8:.\ultrasonic2.c ****  * WHICH IS THE PROPERTY OF your company.
   9:.\ultrasonic2.c ****  *
  10:.\ultrasonic2.c ****  * ========================================
  11:.\ultrasonic2.c **** */
  12:.\ultrasonic2.c **** #include <project.h>
  13:.\ultrasonic2.c **** 
  14:.\ultrasonic2.c **** #define MAX_COUNT 50000u
  15:.\ultrasonic2.c **** //d = vt, v=340m/s=340mm/ms=.34mm/us
  16:.\ultrasonic2.c **** //t=pulse/2, d = 1.7cm/us*pulse
  17:.\ultrasonic2.c **** #define DIST_CORRECTION 58.0
  18:.\ultrasonic2.c **** 
ARM GAS  C:\Users\xavieran\AppData\Local\Temp\cc74LRoi.s 			page 2


  19:.\ultrasonic2.c **** volatile uint16 ultra[5];
  20:.\ultrasonic2.c **** volatile int ultra_i = 0;
  21:.\ultrasonic2.c **** volatile uint16 ultra_distance_2;
  22:.\ultrasonic2.c **** 
  23:.\ultrasonic2.c **** /* ** How to use this module ** 
  24:.\ultrasonic2.c ****  * 1. Start the library with start_ultrasonic();
  25:.\ultrasonic2.c ****  * 2. The module functions automatically through an ISR, so 
  26:.\ultrasonic2.c ****  *    just monitor ultra_distance which will give the distance from the
  27:.\ultrasonic2.c ****  *    device to the obstacle in cm
  28:.\ultrasonic2.c ****  */
  29:.\ultrasonic2.c **** CY_ISR(HC_TRIG_ISR_2){
  40              		.loc 1 29 0
  41              		.cfi_startproc
  42              		@ args = 0, pretend = 0, frame = 8
  43              		@ frame_needed = 1, uses_anonymous_args = 0
  44 0000 80B5     		push	{r7, lr}
  45              		.cfi_def_cfa_offset 8
  46              		.cfi_offset 7, -8
  47              		.cfi_offset 14, -4
  48 0002 82B0     		sub	sp, sp, #8
  49              		.cfi_def_cfa_offset 16
  50 0004 00AF     		add	r7, sp, #0
  51              		.cfi_def_cfa_register 7
  30:.\ultrasonic2.c ****     ultra_distance_2 = (MAX_COUNT - HC_Timer_2_ReadCounter()) / DIST_CORRECTION;
  52              		.loc 1 30 0
  53 0006 FFF7FEFF 		bl	HC_Timer_2_ReadCounter
  54 000a 0346     		mov	r3, r0
  55 000c C3F54343 		rsb	r3, r3, #49920
  56 0010 5033     		adds	r3, r3, #80
  57 0012 1846     		mov	r0, r3
  58 0014 FFF7FEFF 		bl	__aeabi_ui2d
  59 0018 0246     		mov	r2, r0
  60 001a 0B46     		mov	r3, r1
  61 001c 1046     		mov	r0, r2
  62 001e 1946     		mov	r1, r3
  63 0020 4FF00002 		mov	r2, #0
  64 0024 244B     		ldr	r3, .L4
  65 0026 FFF7FEFF 		bl	__aeabi_ddiv
  66 002a 0246     		mov	r2, r0
  67 002c 0B46     		mov	r3, r1
  68 002e 1046     		mov	r0, r2
  69 0030 1946     		mov	r1, r3
  70 0032 FFF7FEFF 		bl	__aeabi_d2uiz
  71 0036 0346     		mov	r3, r0
  72 0038 9AB2     		uxth	r2, r3
  73 003a 204B     		ldr	r3, .L4+4
  74 003c 1A80     		strh	r2, [r3]	@ movhi
  31:.\ultrasonic2.c ****     ultra[ultra_i] = ultra_distance_2;
  75              		.loc 1 31 0
  76 003e 204B     		ldr	r3, .L4+8
  77 0040 1A68     		ldr	r2, [r3]
  78 0042 1E4B     		ldr	r3, .L4+4
  79 0044 1B88     		ldrh	r3, [r3]	@ movhi
  80 0046 99B2     		uxth	r1, r3
  81 0048 1E4B     		ldr	r3, .L4+12
  82 004a 23F81210 		strh	r1, [r3, r2, lsl #1]	@ movhi
  32:.\ultrasonic2.c ****     ultra_i = (ultra_i + 1) % 5;
ARM GAS  C:\Users\xavieran\AppData\Local\Temp\cc74LRoi.s 			page 3


  83              		.loc 1 32 0
  84 004e 1C4B     		ldr	r3, .L4+8
  85 0050 1B68     		ldr	r3, [r3]
  86 0052 591C     		adds	r1, r3, #1
  87 0054 1C4B     		ldr	r3, .L4+16
  88 0056 83FB0123 		smull	r2, r3, r3, r1
  89 005a 5A10     		asrs	r2, r3, #1
  90 005c CB17     		asrs	r3, r1, #31
  91 005e D21A     		subs	r2, r2, r3
  92 0060 1346     		mov	r3, r2
  93 0062 9B00     		lsls	r3, r3, #2
  94 0064 1344     		add	r3, r3, r2
  95 0066 CA1A     		subs	r2, r1, r3
  96 0068 154B     		ldr	r3, .L4+8
  97 006a 1A60     		str	r2, [r3]
  33:.\ultrasonic2.c ****     int i;
  34:.\ultrasonic2.c ****     for (i = 0; i < 5; i++){
  98              		.loc 1 34 0
  99 006c 0023     		movs	r3, #0
 100 006e 7B60     		str	r3, [r7, #4]
 101 0070 0FE0     		b	.L2
 102              	.L3:
  35:.\ultrasonic2.c ****         ultra_distance_2 += ultra[ultra_i];
 103              		.loc 1 35 0 discriminator 2
 104 0072 134B     		ldr	r3, .L4+8
 105 0074 1A68     		ldr	r2, [r3]
 106 0076 134B     		ldr	r3, .L4+12
 107 0078 33F81230 		ldrh	r3, [r3, r2, lsl #1]	@ movhi
 108 007c 9AB2     		uxth	r2, r3
 109 007e 0F4B     		ldr	r3, .L4+4
 110 0080 1B88     		ldrh	r3, [r3]	@ movhi
 111 0082 9BB2     		uxth	r3, r3
 112 0084 1344     		add	r3, r3, r2
 113 0086 9AB2     		uxth	r2, r3
 114 0088 0C4B     		ldr	r3, .L4+4
 115 008a 1A80     		strh	r2, [r3]	@ movhi
  34:.\ultrasonic2.c ****     for (i = 0; i < 5; i++){
 116              		.loc 1 34 0 discriminator 2
 117 008c 7B68     		ldr	r3, [r7, #4]
 118 008e 0133     		adds	r3, r3, #1
 119 0090 7B60     		str	r3, [r7, #4]
 120              	.L2:
  34:.\ultrasonic2.c ****     for (i = 0; i < 5; i++){
 121              		.loc 1 34 0 is_stmt 0 discriminator 1
 122 0092 7B68     		ldr	r3, [r7, #4]
 123 0094 042B     		cmp	r3, #4
 124 0096 ECDD     		ble	.L3
  36:.\ultrasonic2.c ****     } 
  37:.\ultrasonic2.c ****     ultra_distance_2 /= 5;
 125              		.loc 1 37 0 is_stmt 1
 126 0098 084B     		ldr	r3, .L4+4
 127 009a 1B88     		ldrh	r3, [r3]	@ movhi
 128 009c 9AB2     		uxth	r2, r3
 129 009e 0B4B     		ldr	r3, .L4+20
 130 00a0 A3FB0213 		umull	r1, r3, r3, r2
 131 00a4 9B08     		lsrs	r3, r3, #2
 132 00a6 9AB2     		uxth	r2, r3
ARM GAS  C:\Users\xavieran\AppData\Local\Temp\cc74LRoi.s 			page 4


 133 00a8 044B     		ldr	r3, .L4+4
 134 00aa 1A80     		strh	r2, [r3]	@ movhi
  38:.\ultrasonic2.c ****     HC_ISR_2_ClearPending();
 135              		.loc 1 38 0
 136 00ac FFF7FEFF 		bl	HC_ISR_2_ClearPending
  39:.\ultrasonic2.c **** }
 137              		.loc 1 39 0
 138 00b0 0837     		adds	r7, r7, #8
 139 00b2 BD46     		mov	sp, r7
 140              		@ sp needed
 141 00b4 80BD     		pop	{r7, pc}
 142              	.L5:
 143 00b6 00BF     		.align	2
 144              	.L4:
 145 00b8 00004D40 		.word	1078788096
 146 00bc 00000000 		.word	ultra_distance_2
 147 00c0 00000000 		.word	ultra_i
 148 00c4 00000000 		.word	ultra
 149 00c8 67666666 		.word	1717986919
 150 00cc CDCCCCCC 		.word	-858993459
 151              		.cfi_endproc
 152              	.LFE63:
 153              		.size	HC_TRIG_ISR_2, .-HC_TRIG_ISR_2
 154              		.section	.text.get_ultrasonic_2,"ax",%progbits
 155              		.align	2
 156              		.global	get_ultrasonic_2
 157              		.thumb
 158              		.thumb_func
 159              		.type	get_ultrasonic_2, %function
 160              	get_ultrasonic_2:
 161              	.LFB64:
  40:.\ultrasonic2.c **** 
  41:.\ultrasonic2.c **** uint16 get_ultrasonic_2(void){
 162              		.loc 1 41 0
 163              		.cfi_startproc
 164              		@ args = 0, pretend = 0, frame = 0
 165              		@ frame_needed = 1, uses_anonymous_args = 0
 166              		@ link register save eliminated.
 167 0000 80B4     		push	{r7}
 168              		.cfi_def_cfa_offset 4
 169              		.cfi_offset 7, -4
 170 0002 00AF     		add	r7, sp, #0
 171              		.cfi_def_cfa_register 7
  42:.\ultrasonic2.c ****     return ultra_distance_2;
 172              		.loc 1 42 0
 173 0004 034B     		ldr	r3, .L8
 174 0006 1B88     		ldrh	r3, [r3]	@ movhi
 175 0008 9BB2     		uxth	r3, r3
  43:.\ultrasonic2.c **** }
 176              		.loc 1 43 0
 177 000a 1846     		mov	r0, r3
 178 000c BD46     		mov	sp, r7
 179              		@ sp needed
 180 000e 5DF8047B 		ldr	r7, [sp], #4
 181 0012 7047     		bx	lr
 182              	.L9:
 183              		.align	2
ARM GAS  C:\Users\xavieran\AppData\Local\Temp\cc74LRoi.s 			page 5


 184              	.L8:
 185 0014 00000000 		.word	ultra_distance_2
 186              		.cfi_endproc
 187              	.LFE64:
 188              		.size	get_ultrasonic_2, .-get_ultrasonic_2
 189              		.section	.text.start_ultrasonic_2,"ax",%progbits
 190              		.align	2
 191              		.global	start_ultrasonic_2
 192              		.thumb
 193              		.thumb_func
 194              		.type	start_ultrasonic_2, %function
 195              	start_ultrasonic_2:
 196              	.LFB65:
  44:.\ultrasonic2.c **** 
  45:.\ultrasonic2.c **** void start_ultrasonic_2(){
 197              		.loc 1 45 0
 198              		.cfi_startproc
 199              		@ args = 0, pretend = 0, frame = 0
 200              		@ frame_needed = 1, uses_anonymous_args = 0
 201 0000 80B5     		push	{r7, lr}
 202              		.cfi_def_cfa_offset 8
 203              		.cfi_offset 7, -8
 204              		.cfi_offset 14, -4
 205 0002 00AF     		add	r7, sp, #0
 206              		.cfi_def_cfa_register 7
  46:.\ultrasonic2.c ****     ultra_i = 0;
 207              		.loc 1 46 0
 208 0004 064B     		ldr	r3, .L11
 209 0006 0022     		movs	r2, #0
 210 0008 1A60     		str	r2, [r3]
  47:.\ultrasonic2.c ****     ultra_distance_2 = 0;
 211              		.loc 1 47 0
 212 000a 064B     		ldr	r3, .L11+4
 213 000c 0022     		movs	r2, #0
 214 000e 1A80     		strh	r2, [r3]	@ movhi
  48:.\ultrasonic2.c ****     HC_Timer_2_Start();
 215              		.loc 1 48 0
 216 0010 FFF7FEFF 		bl	HC_Timer_2_Start
  49:.\ultrasonic2.c ****     HC_PWM_2_Start();
 217              		.loc 1 49 0
 218 0014 FFF7FEFF 		bl	HC_PWM_2_Start
  50:.\ultrasonic2.c ****     HC_ISR_2_StartEx(HC_TRIG_ISR_2);
 219              		.loc 1 50 0
 220 0018 0348     		ldr	r0, .L11+8
 221 001a FFF7FEFF 		bl	HC_ISR_2_StartEx
  51:.\ultrasonic2.c **** }
 222              		.loc 1 51 0
 223 001e 80BD     		pop	{r7, pc}
 224              	.L12:
 225              		.align	2
 226              	.L11:
 227 0020 00000000 		.word	ultra_i
 228 0024 00000000 		.word	ultra_distance_2
 229 0028 00000000 		.word	HC_TRIG_ISR_2
 230              		.cfi_endproc
 231              	.LFE65:
 232              		.size	start_ultrasonic_2, .-start_ultrasonic_2
ARM GAS  C:\Users\xavieran\AppData\Local\Temp\cc74LRoi.s 			page 6


 233              		.section	.text.stop_ultrasonic_2,"ax",%progbits
 234              		.align	2
 235              		.global	stop_ultrasonic_2
 236              		.thumb
 237              		.thumb_func
 238              		.type	stop_ultrasonic_2, %function
 239              	stop_ultrasonic_2:
 240              	.LFB66:
  52:.\ultrasonic2.c **** 
  53:.\ultrasonic2.c **** void stop_ultrasonic_2(){
 241              		.loc 1 53 0
 242              		.cfi_startproc
 243              		@ args = 0, pretend = 0, frame = 0
 244              		@ frame_needed = 1, uses_anonymous_args = 0
 245 0000 80B5     		push	{r7, lr}
 246              		.cfi_def_cfa_offset 8
 247              		.cfi_offset 7, -8
 248              		.cfi_offset 14, -4
 249 0002 00AF     		add	r7, sp, #0
 250              		.cfi_def_cfa_register 7
  54:.\ultrasonic2.c ****     HC_Timer_2_Stop();
 251              		.loc 1 54 0
 252 0004 FFF7FEFF 		bl	HC_Timer_2_Stop
  55:.\ultrasonic2.c ****     HC_PWM_2_Stop();
 253              		.loc 1 55 0
 254 0008 FFF7FEFF 		bl	HC_PWM_2_Stop
  56:.\ultrasonic2.c ****     HC_ISR_2_Stop();
 255              		.loc 1 56 0
 256 000c FFF7FEFF 		bl	HC_ISR_2_Stop
  57:.\ultrasonic2.c **** }
 257              		.loc 1 57 0
 258 0010 80BD     		pop	{r7, pc}
 259              		.cfi_endproc
 260              	.LFE66:
 261              		.size	stop_ultrasonic_2, .-stop_ultrasonic_2
 262 0012 00BF     		.text
 263              	.Letext0:
 264              		.file 2 "c:\\program files (x86)\\cypress\\psoc creator\\3.2\\psoc creator\\import\\gnu\\arm\\4.8.
 265              		.file 3 "c:\\program files (x86)\\cypress\\psoc creator\\3.2\\psoc creator\\import\\gnu\\arm\\4.8.
 266              		.file 4 "Generated_Source\\PSoC5/cytypes.h"
 267              		.file 5 "Generated_Source\\PSoC5/core_cm3.h"
 268              		.file 6 "Generated_Source\\PSoC5/Camera.h"