ARM GAS  C:\Users\xavieran\AppData\Local\Temp\ccI0Xc8f.s 			page 1


   1              		.syntax unified
   2              		.cpu cortex-m3
   3              		.fpu softvfp
   4              		.eabi_attribute 20, 1
   5              		.eabi_attribute 21, 1
   6              		.eabi_attribute 23, 3
   7              		.eabi_attribute 24, 1
   8              		.eabi_attribute 25, 1
   9              		.eabi_attribute 26, 1
  10              		.eabi_attribute 30, 6
  11              		.eabi_attribute 34, 1
  12              		.eabi_attribute 18, 4
  13              		.thumb
  14              		.file	"USB_pm.c"
  15              		.text
  16              	.Ltext0:
  17              		.cfi_sections	.debug_frame
  18              		.comm	Camera_framebuffer,50688,4
  19              		.bss
  20              		.align	2
  21              	USB_backup:
  22 0000 0000     		.space	2
  23 0002 0000     		.section	.text.USB_DP_ISR,"ax",%progbits
  24              		.align	2
  25              		.global	USB_DP_ISR
  26              		.thumb
  27              		.thumb_func
  28              		.type	USB_DP_ISR, %function
  29              	USB_DP_ISR:
  30              	.LFB63:
  31              		.file 1 ".\\Generated_Source\\PSoC5\\USB_pm.c"
   1:.\Generated_Source\PSoC5/USB_pm.c **** /*******************************************************************************
   2:.\Generated_Source\PSoC5/USB_pm.c **** * File Name: USB_pm.c
   3:.\Generated_Source\PSoC5/USB_pm.c **** * Version 2.80
   4:.\Generated_Source\PSoC5/USB_pm.c **** *
   5:.\Generated_Source\PSoC5/USB_pm.c **** * Description:
   6:.\Generated_Source\PSoC5/USB_pm.c **** *  This file provides Suspend/Resume APIs functionality.
   7:.\Generated_Source\PSoC5/USB_pm.c **** *
   8:.\Generated_Source\PSoC5/USB_pm.c **** * Note:
   9:.\Generated_Source\PSoC5/USB_pm.c **** *
  10:.\Generated_Source\PSoC5/USB_pm.c **** ********************************************************************************
  11:.\Generated_Source\PSoC5/USB_pm.c **** * Copyright 2008-2014, Cypress Semiconductor Corporation.  All rights reserved.
  12:.\Generated_Source\PSoC5/USB_pm.c **** * You may use this file only in accordance with the license, terms, conditions,
  13:.\Generated_Source\PSoC5/USB_pm.c **** * disclaimers, and limitations in the end user license agreement accompanying
  14:.\Generated_Source\PSoC5/USB_pm.c **** * the software package with which this file was provided.
  15:.\Generated_Source\PSoC5/USB_pm.c **** *******************************************************************************/
  16:.\Generated_Source\PSoC5/USB_pm.c **** 
  17:.\Generated_Source\PSoC5/USB_pm.c **** #include "project.h"
  18:.\Generated_Source\PSoC5/USB_pm.c **** #include "USB.h"
  19:.\Generated_Source\PSoC5/USB_pm.c **** #include "USB_pvt.h"
  20:.\Generated_Source\PSoC5/USB_pm.c **** 
  21:.\Generated_Source\PSoC5/USB_pm.c **** 
  22:.\Generated_Source\PSoC5/USB_pm.c **** /***************************************
  23:.\Generated_Source\PSoC5/USB_pm.c **** * Custom Declarations
  24:.\Generated_Source\PSoC5/USB_pm.c **** ***************************************/
  25:.\Generated_Source\PSoC5/USB_pm.c **** /* `#START PM_CUSTOM_DECLARATIONS` Place your declaration here */
  26:.\Generated_Source\PSoC5/USB_pm.c **** 
ARM GAS  C:\Users\xavieran\AppData\Local\Temp\ccI0Xc8f.s 			page 2


  27:.\Generated_Source\PSoC5/USB_pm.c **** /* `#END` */
  28:.\Generated_Source\PSoC5/USB_pm.c **** 
  29:.\Generated_Source\PSoC5/USB_pm.c **** 
  30:.\Generated_Source\PSoC5/USB_pm.c **** /***************************************
  31:.\Generated_Source\PSoC5/USB_pm.c **** * Local data allocation
  32:.\Generated_Source\PSoC5/USB_pm.c **** ***************************************/
  33:.\Generated_Source\PSoC5/USB_pm.c **** 
  34:.\Generated_Source\PSoC5/USB_pm.c **** static USB_BACKUP_STRUCT  USB_backup;
  35:.\Generated_Source\PSoC5/USB_pm.c **** 
  36:.\Generated_Source\PSoC5/USB_pm.c **** 
  37:.\Generated_Source\PSoC5/USB_pm.c **** #if(USB_DP_ISR_REMOVE == 0u)
  38:.\Generated_Source\PSoC5/USB_pm.c **** 
  39:.\Generated_Source\PSoC5/USB_pm.c ****     /*******************************************************************************
  40:.\Generated_Source\PSoC5/USB_pm.c ****     * Function Name: USB_DP_Interrupt
  41:.\Generated_Source\PSoC5/USB_pm.c ****     ********************************************************************************
  42:.\Generated_Source\PSoC5/USB_pm.c ****     *
  43:.\Generated_Source\PSoC5/USB_pm.c ****     * Summary:
  44:.\Generated_Source\PSoC5/USB_pm.c ****     *  This Interrupt Service Routine handles DP pin changes for wake-up from
  45:.\Generated_Source\PSoC5/USB_pm.c ****     *  the sleep mode.
  46:.\Generated_Source\PSoC5/USB_pm.c ****     *
  47:.\Generated_Source\PSoC5/USB_pm.c ****     * Parameters:
  48:.\Generated_Source\PSoC5/USB_pm.c ****     *  None.
  49:.\Generated_Source\PSoC5/USB_pm.c ****     *
  50:.\Generated_Source\PSoC5/USB_pm.c ****     * Return:
  51:.\Generated_Source\PSoC5/USB_pm.c ****     *  None.
  52:.\Generated_Source\PSoC5/USB_pm.c ****     *
  53:.\Generated_Source\PSoC5/USB_pm.c ****     *******************************************************************************/
  54:.\Generated_Source\PSoC5/USB_pm.c ****     CY_ISR(USB_DP_ISR)
  55:.\Generated_Source\PSoC5/USB_pm.c ****     {
  32              		.loc 1 55 0
  33              		.cfi_startproc
  34              		@ args = 0, pretend = 0, frame = 0
  35              		@ frame_needed = 1, uses_anonymous_args = 0
  36              		@ link register save eliminated.
  37 0000 80B4     		push	{r7}
  38              		.cfi_def_cfa_offset 4
  39              		.cfi_offset 7, -4
  40 0002 00AF     		add	r7, sp, #0
  41              		.cfi_def_cfa_register 7
  56:.\Generated_Source\PSoC5/USB_pm.c ****         /* `#START DP_USER_CODE` Place your code here */
  57:.\Generated_Source\PSoC5/USB_pm.c **** 
  58:.\Generated_Source\PSoC5/USB_pm.c ****         /* `#END` */
  59:.\Generated_Source\PSoC5/USB_pm.c **** 
  60:.\Generated_Source\PSoC5/USB_pm.c ****         /* Clears active interrupt */
  61:.\Generated_Source\PSoC5/USB_pm.c ****         CY_GET_REG8(USB_DP_INTSTAT_PTR);
  42              		.loc 1 61 0
  43 0004 024B     		ldr	r3, .L2
  44 0006 1B78     		ldrb	r3, [r3]
  62:.\Generated_Source\PSoC5/USB_pm.c ****     }
  45              		.loc 1 62 0
  46 0008 BD46     		mov	sp, r7
  47              		@ sp needed
  48 000a 5DF8047B 		ldr	r7, [sp], #4
  49 000e 7047     		bx	lr
  50              	.L3:
  51              		.align	2
  52              	.L2:
ARM GAS  C:\Users\xavieran\AppData\Local\Temp\ccI0Xc8f.s 			page 3


  53 0010 8F450040 		.word	1073759631
  54              		.cfi_endproc
  55              	.LFE63:
  56              		.size	USB_DP_ISR, .-USB_DP_ISR
  57              		.section	.text.USB_SaveConfig,"ax",%progbits
  58              		.align	2
  59              		.global	USB_SaveConfig
  60              		.thumb
  61              		.thumb_func
  62              		.type	USB_SaveConfig, %function
  63              	USB_SaveConfig:
  64              	.LFB64:
  63:.\Generated_Source\PSoC5/USB_pm.c **** 
  64:.\Generated_Source\PSoC5/USB_pm.c **** #endif /* (USB_DP_ISR_REMOVE == 0u) */
  65:.\Generated_Source\PSoC5/USB_pm.c **** 
  66:.\Generated_Source\PSoC5/USB_pm.c **** 
  67:.\Generated_Source\PSoC5/USB_pm.c **** /*******************************************************************************
  68:.\Generated_Source\PSoC5/USB_pm.c **** * Function Name: USB_SaveConfig
  69:.\Generated_Source\PSoC5/USB_pm.c **** ********************************************************************************
  70:.\Generated_Source\PSoC5/USB_pm.c **** *
  71:.\Generated_Source\PSoC5/USB_pm.c **** * Summary:
  72:.\Generated_Source\PSoC5/USB_pm.c **** *  Saves the current user configuration.
  73:.\Generated_Source\PSoC5/USB_pm.c **** *
  74:.\Generated_Source\PSoC5/USB_pm.c **** * Parameters:
  75:.\Generated_Source\PSoC5/USB_pm.c **** *  None.
  76:.\Generated_Source\PSoC5/USB_pm.c **** *
  77:.\Generated_Source\PSoC5/USB_pm.c **** * Return:
  78:.\Generated_Source\PSoC5/USB_pm.c **** *  None.
  79:.\Generated_Source\PSoC5/USB_pm.c **** *
  80:.\Generated_Source\PSoC5/USB_pm.c **** * Reentrant:
  81:.\Generated_Source\PSoC5/USB_pm.c **** *  No.
  82:.\Generated_Source\PSoC5/USB_pm.c **** *
  83:.\Generated_Source\PSoC5/USB_pm.c **** *******************************************************************************/
  84:.\Generated_Source\PSoC5/USB_pm.c **** void USB_SaveConfig(void) 
  85:.\Generated_Source\PSoC5/USB_pm.c **** {
  65              		.loc 1 85 0
  66              		.cfi_startproc
  67              		@ args = 0, pretend = 0, frame = 0
  68              		@ frame_needed = 1, uses_anonymous_args = 0
  69              		@ link register save eliminated.
  70 0000 80B4     		push	{r7}
  71              		.cfi_def_cfa_offset 4
  72              		.cfi_offset 7, -4
  73 0002 00AF     		add	r7, sp, #0
  74              		.cfi_def_cfa_register 7
  86:.\Generated_Source\PSoC5/USB_pm.c **** 
  87:.\Generated_Source\PSoC5/USB_pm.c **** }
  75              		.loc 1 87 0
  76 0004 BD46     		mov	sp, r7
  77              		@ sp needed
  78 0006 5DF8047B 		ldr	r7, [sp], #4
  79 000a 7047     		bx	lr
  80              		.cfi_endproc
  81              	.LFE64:
  82              		.size	USB_SaveConfig, .-USB_SaveConfig
  83              		.section	.text.USB_RestoreConfig,"ax",%progbits
  84              		.align	2
ARM GAS  C:\Users\xavieran\AppData\Local\Temp\ccI0Xc8f.s 			page 4


  85              		.global	USB_RestoreConfig
  86              		.thumb
  87              		.thumb_func
  88              		.type	USB_RestoreConfig, %function
  89              	USB_RestoreConfig:
  90              	.LFB65:
  88:.\Generated_Source\PSoC5/USB_pm.c **** 
  89:.\Generated_Source\PSoC5/USB_pm.c **** 
  90:.\Generated_Source\PSoC5/USB_pm.c **** /*******************************************************************************
  91:.\Generated_Source\PSoC5/USB_pm.c **** * Function Name: USB_RestoreConfig
  92:.\Generated_Source\PSoC5/USB_pm.c **** ********************************************************************************
  93:.\Generated_Source\PSoC5/USB_pm.c **** *
  94:.\Generated_Source\PSoC5/USB_pm.c **** * Summary:
  95:.\Generated_Source\PSoC5/USB_pm.c **** *  Restores the current user configuration.
  96:.\Generated_Source\PSoC5/USB_pm.c **** *
  97:.\Generated_Source\PSoC5/USB_pm.c **** * Parameters:
  98:.\Generated_Source\PSoC5/USB_pm.c **** *  None.
  99:.\Generated_Source\PSoC5/USB_pm.c **** *
 100:.\Generated_Source\PSoC5/USB_pm.c **** * Return:
 101:.\Generated_Source\PSoC5/USB_pm.c **** *  None.
 102:.\Generated_Source\PSoC5/USB_pm.c **** *
 103:.\Generated_Source\PSoC5/USB_pm.c **** * Reentrant:
 104:.\Generated_Source\PSoC5/USB_pm.c **** *  No.
 105:.\Generated_Source\PSoC5/USB_pm.c **** *
 106:.\Generated_Source\PSoC5/USB_pm.c **** *******************************************************************************/
 107:.\Generated_Source\PSoC5/USB_pm.c **** void USB_RestoreConfig(void) 
 108:.\Generated_Source\PSoC5/USB_pm.c **** {
  91              		.loc 1 108 0
  92              		.cfi_startproc
  93              		@ args = 0, pretend = 0, frame = 0
  94              		@ frame_needed = 1, uses_anonymous_args = 0
  95 0000 80B5     		push	{r7, lr}
  96              		.cfi_def_cfa_offset 8
  97              		.cfi_offset 7, -8
  98              		.cfi_offset 14, -4
  99 0002 00AF     		add	r7, sp, #0
 100              		.cfi_def_cfa_register 7
 109:.\Generated_Source\PSoC5/USB_pm.c ****     if(USB_configuration != 0u)
 101              		.loc 1 109 0
 102 0004 034B     		ldr	r3, .L7
 103 0006 1B78     		ldrb	r3, [r3]
 104 0008 DBB2     		uxtb	r3, r3
 105 000a 002B     		cmp	r3, #0
 106 000c 01D0     		beq	.L5
 110:.\Generated_Source\PSoC5/USB_pm.c ****     {
 111:.\Generated_Source\PSoC5/USB_pm.c ****         USB_ConfigReg();
 107              		.loc 1 111 0
 108 000e FFF7FEFF 		bl	USB_ConfigReg
 109              	.L5:
 112:.\Generated_Source\PSoC5/USB_pm.c ****     }
 113:.\Generated_Source\PSoC5/USB_pm.c **** }
 110              		.loc 1 113 0
 111 0012 80BD     		pop	{r7, pc}
 112              	.L8:
 113              		.align	2
 114              	.L7:
 115 0014 00000000 		.word	USB_configuration
ARM GAS  C:\Users\xavieran\AppData\Local\Temp\ccI0Xc8f.s 			page 5


 116              		.cfi_endproc
 117              	.LFE65:
 118              		.size	USB_RestoreConfig, .-USB_RestoreConfig
 119              		.section	.text.USB_Suspend,"ax",%progbits
 120              		.align	2
 121              		.global	USB_Suspend
 122              		.thumb
 123              		.thumb_func
 124              		.type	USB_Suspend, %function
 125              	USB_Suspend:
 126              	.LFB66:
 114:.\Generated_Source\PSoC5/USB_pm.c **** 
 115:.\Generated_Source\PSoC5/USB_pm.c **** 
 116:.\Generated_Source\PSoC5/USB_pm.c **** /*******************************************************************************
 117:.\Generated_Source\PSoC5/USB_pm.c **** * Function Name: USB_Suspend
 118:.\Generated_Source\PSoC5/USB_pm.c **** ********************************************************************************
 119:.\Generated_Source\PSoC5/USB_pm.c **** *
 120:.\Generated_Source\PSoC5/USB_pm.c **** * Summary:
 121:.\Generated_Source\PSoC5/USB_pm.c **** *  This function disables the USBFS block and prepares for power down mode.
 122:.\Generated_Source\PSoC5/USB_pm.c **** *
 123:.\Generated_Source\PSoC5/USB_pm.c **** * Parameters:
 124:.\Generated_Source\PSoC5/USB_pm.c **** *  None.
 125:.\Generated_Source\PSoC5/USB_pm.c **** *
 126:.\Generated_Source\PSoC5/USB_pm.c **** * Return:
 127:.\Generated_Source\PSoC5/USB_pm.c **** *   None.
 128:.\Generated_Source\PSoC5/USB_pm.c **** *
 129:.\Generated_Source\PSoC5/USB_pm.c **** * Global variables:
 130:.\Generated_Source\PSoC5/USB_pm.c **** *  USB_backup.enable:  modified.
 131:.\Generated_Source\PSoC5/USB_pm.c **** *
 132:.\Generated_Source\PSoC5/USB_pm.c **** * Reentrant:
 133:.\Generated_Source\PSoC5/USB_pm.c **** *  No.
 134:.\Generated_Source\PSoC5/USB_pm.c **** *
 135:.\Generated_Source\PSoC5/USB_pm.c **** *******************************************************************************/
 136:.\Generated_Source\PSoC5/USB_pm.c **** void USB_Suspend(void) 
 137:.\Generated_Source\PSoC5/USB_pm.c **** {
 127              		.loc 1 137 0
 128              		.cfi_startproc
 129              		@ args = 0, pretend = 0, frame = 8
 130              		@ frame_needed = 1, uses_anonymous_args = 0
 131 0000 80B5     		push	{r7, lr}
 132              		.cfi_def_cfa_offset 8
 133              		.cfi_offset 7, -8
 134              		.cfi_offset 14, -4
 135 0002 82B0     		sub	sp, sp, #8
 136              		.cfi_def_cfa_offset 16
 137 0004 00AF     		add	r7, sp, #0
 138              		.cfi_def_cfa_register 7
 138:.\Generated_Source\PSoC5/USB_pm.c ****     uint8 enableInterrupts;
 139:.\Generated_Source\PSoC5/USB_pm.c ****     enableInterrupts = CyEnterCriticalSection();
 139              		.loc 1 139 0
 140 0006 FFF7FEFF 		bl	CyEnterCriticalSection
 141 000a 0346     		mov	r3, r0
 142 000c FB71     		strb	r3, [r7, #7]
 140:.\Generated_Source\PSoC5/USB_pm.c **** 
 141:.\Generated_Source\PSoC5/USB_pm.c ****     if((CY_GET_REG8(USB_CR0_PTR) & USB_CR0_ENABLE) != 0u)
 143              		.loc 1 141 0
 144 000e 3C4B     		ldr	r3, .L12
ARM GAS  C:\Users\xavieran\AppData\Local\Temp\ccI0Xc8f.s 			page 6


 145 0010 1B78     		ldrb	r3, [r3]
 146 0012 DBB2     		uxtb	r3, r3
 147 0014 DBB2     		uxtb	r3, r3
 148 0016 5BB2     		sxtb	r3, r3
 149 0018 002B     		cmp	r3, #0
 150 001a 57DA     		bge	.L10
 142:.\Generated_Source\PSoC5/USB_pm.c ****     {   /* USB block is enabled */
 143:.\Generated_Source\PSoC5/USB_pm.c ****         USB_backup.enableState = 1u;
 151              		.loc 1 143 0
 152 001c 394B     		ldr	r3, .L12+4
 153 001e 0122     		movs	r2, #1
 154 0020 1A70     		strb	r2, [r3]
 144:.\Generated_Source\PSoC5/USB_pm.c **** 
 145:.\Generated_Source\PSoC5/USB_pm.c ****         #if(USB_EP_MM != USB__EP_MANUAL)
 146:.\Generated_Source\PSoC5/USB_pm.c ****             USB_Stop_DMA(USB_MAX_EP);     /* Stop all DMAs */
 147:.\Generated_Source\PSoC5/USB_pm.c ****         #endif   /*  USB_EP_MM != USB__EP_MANUAL */
 148:.\Generated_Source\PSoC5/USB_pm.c **** 
 149:.\Generated_Source\PSoC5/USB_pm.c ****         /* Ensure USB transmit enable is low (USB_USBIO_CR0.ten). - Manual Transmission - Disabled 
 150:.\Generated_Source\PSoC5/USB_pm.c ****         USB_USBIO_CR0_REG &= (uint8)~USB_USBIO_CR0_TEN;
 155              		.loc 1 150 0
 156 0022 394B     		ldr	r3, .L12+8
 157 0024 384A     		ldr	r2, .L12+8
 158 0026 1278     		ldrb	r2, [r2]
 159 0028 D2B2     		uxtb	r2, r2
 160 002a 02F07F02 		and	r2, r2, #127
 161 002e D2B2     		uxtb	r2, r2
 162 0030 1A70     		strb	r2, [r3]
 151:.\Generated_Source\PSoC5/USB_pm.c ****         CyDelayUs(0u);  /*~50ns delay */
 163              		.loc 1 151 0
 164 0032 0020     		movs	r0, #0
 165 0034 FFF7FEFF 		bl	CyDelayUs
 152:.\Generated_Source\PSoC5/USB_pm.c **** 
 153:.\Generated_Source\PSoC5/USB_pm.c ****         /* Disable the USBIO by asserting PM.USB_CR0.fsusbio_pd_n(Inverted) and pd_pullup_hv(Invert
 154:.\Generated_Source\PSoC5/USB_pm.c ****         USB_PM_USB_CR0_REG &=
 166              		.loc 1 154 0
 167 0038 344B     		ldr	r3, .L12+12
 168 003a 344A     		ldr	r2, .L12+12
 169 003c 1278     		ldrb	r2, [r2]
 170 003e D2B2     		uxtb	r2, r2
 171 0040 22F00602 		bic	r2, r2, #6
 172 0044 D2B2     		uxtb	r2, r2
 173 0046 1A70     		strb	r2, [r3]
 155:.\Generated_Source\PSoC5/USB_pm.c ****                                 (uint8)~(USB_PM_USB_CR0_PD_N | USB_PM_USB_CR0_PD_PULLUP_N);
 156:.\Generated_Source\PSoC5/USB_pm.c **** 
 157:.\Generated_Source\PSoC5/USB_pm.c ****         /* Disable the SIE */
 158:.\Generated_Source\PSoC5/USB_pm.c ****         USB_CR0_REG &= (uint8)~USB_CR0_ENABLE;
 174              		.loc 1 158 0
 175 0048 2D4B     		ldr	r3, .L12
 176 004a 2D4A     		ldr	r2, .L12
 177 004c 1278     		ldrb	r2, [r2]
 178 004e D2B2     		uxtb	r2, r2
 179 0050 02F07F02 		and	r2, r2, #127
 180 0054 D2B2     		uxtb	r2, r2
 181 0056 1A70     		strb	r2, [r3]
 159:.\Generated_Source\PSoC5/USB_pm.c **** 
 160:.\Generated_Source\PSoC5/USB_pm.c ****         CyDelayUs(0u);  /* ~50ns delay */
 182              		.loc 1 160 0
ARM GAS  C:\Users\xavieran\AppData\Local\Temp\ccI0Xc8f.s 			page 7


 183 0058 0020     		movs	r0, #0
 184 005a FFF7FEFF 		bl	CyDelayUs
 161:.\Generated_Source\PSoC5/USB_pm.c ****         /* Store mode and Disable VRegulator*/
 162:.\Generated_Source\PSoC5/USB_pm.c ****         USB_backup.mode = USB_CR1_REG & USB_CR1_REG_ENABLE;
 185              		.loc 1 162 0
 186 005e 2C4B     		ldr	r3, .L12+16
 187 0060 1B78     		ldrb	r3, [r3]
 188 0062 DBB2     		uxtb	r3, r3
 189 0064 03F00103 		and	r3, r3, #1
 190 0068 DAB2     		uxtb	r2, r3
 191 006a 264B     		ldr	r3, .L12+4
 192 006c 5A70     		strb	r2, [r3, #1]
 163:.\Generated_Source\PSoC5/USB_pm.c ****         USB_CR1_REG &= (uint8)~USB_CR1_REG_ENABLE;
 193              		.loc 1 163 0
 194 006e 284B     		ldr	r3, .L12+16
 195 0070 274A     		ldr	r2, .L12+16
 196 0072 1278     		ldrb	r2, [r2]
 197 0074 D2B2     		uxtb	r2, r2
 198 0076 22F00102 		bic	r2, r2, #1
 199 007a D2B2     		uxtb	r2, r2
 200 007c 1A70     		strb	r2, [r3]
 164:.\Generated_Source\PSoC5/USB_pm.c **** 
 165:.\Generated_Source\PSoC5/USB_pm.c ****         CyDelayUs(1u);  /* 0.5 us min delay */
 201              		.loc 1 165 0
 202 007e 0120     		movs	r0, #1
 203 0080 FFF7FEFF 		bl	CyDelayUs
 166:.\Generated_Source\PSoC5/USB_pm.c ****         /* Disable the USBIO reference by setting PM.USB_CR0.fsusbio_ref_en.*/
 167:.\Generated_Source\PSoC5/USB_pm.c ****         USB_PM_USB_CR0_REG &= (uint8)~USB_PM_USB_CR0_REF_EN;
 204              		.loc 1 167 0
 205 0084 214B     		ldr	r3, .L12+12
 206 0086 214A     		ldr	r2, .L12+12
 207 0088 1278     		ldrb	r2, [r2]
 208 008a D2B2     		uxtb	r2, r2
 209 008c 22F00102 		bic	r2, r2, #1
 210 0090 D2B2     		uxtb	r2, r2
 211 0092 1A70     		strb	r2, [r3]
 168:.\Generated_Source\PSoC5/USB_pm.c **** 
 169:.\Generated_Source\PSoC5/USB_pm.c ****         /* Switch DP and DM terminals to GPIO mode and disconnect 1.5k pullup*/
 170:.\Generated_Source\PSoC5/USB_pm.c ****         USB_USBIO_CR1_REG |= USB_USBIO_CR1_IOMODE;
 212              		.loc 1 170 0
 213 0094 1F4B     		ldr	r3, .L12+20
 214 0096 1F4A     		ldr	r2, .L12+20
 215 0098 1278     		ldrb	r2, [r2]
 216 009a D2B2     		uxtb	r2, r2
 217 009c 42F02002 		orr	r2, r2, #32
 218 00a0 D2B2     		uxtb	r2, r2
 219 00a2 1A70     		strb	r2, [r3]
 171:.\Generated_Source\PSoC5/USB_pm.c **** 
 172:.\Generated_Source\PSoC5/USB_pm.c ****         /* Disable USB in ACT PM */
 173:.\Generated_Source\PSoC5/USB_pm.c ****         USB_PM_ACT_CFG_REG &= (uint8)~USB_PM_ACT_EN_FSUSB;
 220              		.loc 1 173 0
 221 00a4 1C4B     		ldr	r3, .L12+24
 222 00a6 1C4A     		ldr	r2, .L12+24
 223 00a8 1278     		ldrb	r2, [r2]
 224 00aa D2B2     		uxtb	r2, r2
 225 00ac 22F00102 		bic	r2, r2, #1
 226 00b0 D2B2     		uxtb	r2, r2
ARM GAS  C:\Users\xavieran\AppData\Local\Temp\ccI0Xc8f.s 			page 8


 227 00b2 1A70     		strb	r2, [r3]
 174:.\Generated_Source\PSoC5/USB_pm.c ****         /* Disable USB block for Standby Power Mode */
 175:.\Generated_Source\PSoC5/USB_pm.c ****         USB_PM_STBY_CFG_REG &= (uint8)~USB_PM_STBY_EN_FSUSB;
 228              		.loc 1 175 0
 229 00b4 194B     		ldr	r3, .L12+28
 230 00b6 194A     		ldr	r2, .L12+28
 231 00b8 1278     		ldrb	r2, [r2]
 232 00ba D2B2     		uxtb	r2, r2
 233 00bc 22F00102 		bic	r2, r2, #1
 234 00c0 D2B2     		uxtb	r2, r2
 235 00c2 1A70     		strb	r2, [r3]
 176:.\Generated_Source\PSoC5/USB_pm.c ****         CyDelayUs(1u); /* min  0.5us delay required */
 236              		.loc 1 176 0
 237 00c4 0120     		movs	r0, #1
 238 00c6 FFF7FEFF 		bl	CyDelayUs
 239 00ca 02E0     		b	.L11
 240              	.L10:
 177:.\Generated_Source\PSoC5/USB_pm.c **** 
 178:.\Generated_Source\PSoC5/USB_pm.c ****     }
 179:.\Generated_Source\PSoC5/USB_pm.c ****     else
 180:.\Generated_Source\PSoC5/USB_pm.c ****     {
 181:.\Generated_Source\PSoC5/USB_pm.c ****         USB_backup.enableState = 0u;
 241              		.loc 1 181 0
 242 00cc 0D4B     		ldr	r3, .L12+4
 243 00ce 0022     		movs	r2, #0
 244 00d0 1A70     		strb	r2, [r3]
 245              	.L11:
 182:.\Generated_Source\PSoC5/USB_pm.c ****     }
 183:.\Generated_Source\PSoC5/USB_pm.c **** 
 184:.\Generated_Source\PSoC5/USB_pm.c ****     CyExitCriticalSection(enableInterrupts);
 246              		.loc 1 184 0
 247 00d2 FB79     		ldrb	r3, [r7, #7]	@ zero_extendqisi2
 248 00d4 1846     		mov	r0, r3
 249 00d6 FFF7FEFF 		bl	CyExitCriticalSection
 185:.\Generated_Source\PSoC5/USB_pm.c **** 
 186:.\Generated_Source\PSoC5/USB_pm.c ****     /* Set the DP Interrupt for wake-up from sleep mode. */
 187:.\Generated_Source\PSoC5/USB_pm.c ****     #if(USB_DP_ISR_REMOVE == 0u)
 188:.\Generated_Source\PSoC5/USB_pm.c ****         (void) CyIntSetVector(USB_DP_INTC_VECT_NUM, &USB_DP_ISR);
 250              		.loc 1 188 0
 251 00da 0C20     		movs	r0, #12
 252 00dc 1049     		ldr	r1, .L12+32
 253 00de FFF7FEFF 		bl	CyIntSetVector
 189:.\Generated_Source\PSoC5/USB_pm.c ****         CyIntSetPriority(USB_DP_INTC_VECT_NUM, USB_DP_INTC_PRIOR);
 254              		.loc 1 189 0
 255 00e2 0C20     		movs	r0, #12
 256 00e4 0721     		movs	r1, #7
 257 00e6 FFF7FEFF 		bl	CyIntSetPriority
 190:.\Generated_Source\PSoC5/USB_pm.c ****         CyIntClearPending(USB_DP_INTC_VECT_NUM);
 258              		.loc 1 190 0
 259 00ea 0E4B     		ldr	r3, .L12+36
 260 00ec 4FF48052 		mov	r2, #4096
 261 00f0 1A60     		str	r2, [r3]
 191:.\Generated_Source\PSoC5/USB_pm.c ****         CyIntEnable(USB_DP_INTC_VECT_NUM);
 262              		.loc 1 191 0
 263 00f2 0D4B     		ldr	r3, .L12+40
 264 00f4 4FF48052 		mov	r2, #4096
 265 00f8 1A60     		str	r2, [r3]
ARM GAS  C:\Users\xavieran\AppData\Local\Temp\ccI0Xc8f.s 			page 9


 192:.\Generated_Source\PSoC5/USB_pm.c ****     #endif /* (USB_DP_ISR_REMOVE == 0u) */
 193:.\Generated_Source\PSoC5/USB_pm.c **** }
 266              		.loc 1 193 0
 267 00fa 0837     		adds	r7, r7, #8
 268 00fc BD46     		mov	sp, r7
 269              		@ sp needed
 270 00fe 80BD     		pop	{r7, pc}
 271              	.L13:
 272              		.align	2
 273              	.L12:
 274 0100 08600040 		.word	1073766408
 275 0104 00000000 		.word	USB_backup
 276 0108 10600040 		.word	1073766416
 277 010c 94430040 		.word	1073759124
 278 0110 09600040 		.word	1073766409
 279 0114 12600040 		.word	1073766418
 280 0118 A5430040 		.word	1073759141
 281 011c B5430040 		.word	1073759157
 282 0120 00000000 		.word	USB_DP_ISR
 283 0124 80E200E0 		.word	-536812928
 284 0128 00E100E0 		.word	-536813312
 285              		.cfi_endproc
 286              	.LFE66:
 287              		.size	USB_Suspend, .-USB_Suspend
 288              		.section	.text.USB_Resume,"ax",%progbits
 289              		.align	2
 290              		.global	USB_Resume
 291              		.thumb
 292              		.thumb_func
 293              		.type	USB_Resume, %function
 294              	USB_Resume:
 295              	.LFB67:
 194:.\Generated_Source\PSoC5/USB_pm.c **** 
 195:.\Generated_Source\PSoC5/USB_pm.c **** 
 196:.\Generated_Source\PSoC5/USB_pm.c **** /*******************************************************************************
 197:.\Generated_Source\PSoC5/USB_pm.c **** * Function Name: USB_Resume
 198:.\Generated_Source\PSoC5/USB_pm.c **** ********************************************************************************
 199:.\Generated_Source\PSoC5/USB_pm.c **** *
 200:.\Generated_Source\PSoC5/USB_pm.c **** * Summary:
 201:.\Generated_Source\PSoC5/USB_pm.c **** *  This function enables the USBFS block after power down mode.
 202:.\Generated_Source\PSoC5/USB_pm.c **** *
 203:.\Generated_Source\PSoC5/USB_pm.c **** * Parameters:
 204:.\Generated_Source\PSoC5/USB_pm.c **** *  None.
 205:.\Generated_Source\PSoC5/USB_pm.c **** *
 206:.\Generated_Source\PSoC5/USB_pm.c **** * Return:
 207:.\Generated_Source\PSoC5/USB_pm.c **** *  None.
 208:.\Generated_Source\PSoC5/USB_pm.c **** *
 209:.\Generated_Source\PSoC5/USB_pm.c **** * Global variables:
 210:.\Generated_Source\PSoC5/USB_pm.c **** *  USB_backup - checked.
 211:.\Generated_Source\PSoC5/USB_pm.c **** *
 212:.\Generated_Source\PSoC5/USB_pm.c **** * Reentrant:
 213:.\Generated_Source\PSoC5/USB_pm.c **** *  No.
 214:.\Generated_Source\PSoC5/USB_pm.c **** *
 215:.\Generated_Source\PSoC5/USB_pm.c **** *******************************************************************************/
 216:.\Generated_Source\PSoC5/USB_pm.c **** void USB_Resume(void) 
 217:.\Generated_Source\PSoC5/USB_pm.c **** {
 296              		.loc 1 217 0
ARM GAS  C:\Users\xavieran\AppData\Local\Temp\ccI0Xc8f.s 			page 10


 297              		.cfi_startproc
 298              		@ args = 0, pretend = 0, frame = 8
 299              		@ frame_needed = 1, uses_anonymous_args = 0
 300 0000 80B5     		push	{r7, lr}
 301              		.cfi_def_cfa_offset 8
 302              		.cfi_offset 7, -8
 303              		.cfi_offset 14, -4
 304 0002 82B0     		sub	sp, sp, #8
 305              		.cfi_def_cfa_offset 16
 306 0004 00AF     		add	r7, sp, #0
 307              		.cfi_def_cfa_register 7
 218:.\Generated_Source\PSoC5/USB_pm.c ****     uint8 enableInterrupts;
 219:.\Generated_Source\PSoC5/USB_pm.c ****     enableInterrupts = CyEnterCriticalSection();
 308              		.loc 1 219 0
 309 0006 FFF7FEFF 		bl	CyEnterCriticalSection
 310 000a 0346     		mov	r3, r0
 311 000c FB71     		strb	r3, [r7, #7]
 220:.\Generated_Source\PSoC5/USB_pm.c **** 
 221:.\Generated_Source\PSoC5/USB_pm.c ****     if(USB_backup.enableState != 0u)
 312              		.loc 1 221 0
 313 000e 324B     		ldr	r3, .L16
 314 0010 1B78     		ldrb	r3, [r3]	@ zero_extendqisi2
 315 0012 002B     		cmp	r3, #0
 316 0014 58D0     		beq	.L15
 222:.\Generated_Source\PSoC5/USB_pm.c ****     {
 223:.\Generated_Source\PSoC5/USB_pm.c ****         #if(USB_DP_ISR_REMOVE == 0u)
 224:.\Generated_Source\PSoC5/USB_pm.c ****             CyIntDisable(USB_DP_INTC_VECT_NUM);
 317              		.loc 1 224 0
 318 0016 314B     		ldr	r3, .L16+4
 319 0018 4FF48052 		mov	r2, #4096
 320 001c 1A60     		str	r2, [r3]
 225:.\Generated_Source\PSoC5/USB_pm.c ****         #endif /*  USB_DP_ISR_REMOVE */
 226:.\Generated_Source\PSoC5/USB_pm.c **** 
 227:.\Generated_Source\PSoC5/USB_pm.c ****         /* Enable USB block */
 228:.\Generated_Source\PSoC5/USB_pm.c ****         USB_PM_ACT_CFG_REG |= USB_PM_ACT_EN_FSUSB;
 321              		.loc 1 228 0
 322 001e 304B     		ldr	r3, .L16+8
 323 0020 2F4A     		ldr	r2, .L16+8
 324 0022 1278     		ldrb	r2, [r2]
 325 0024 D2B2     		uxtb	r2, r2
 326 0026 42F00102 		orr	r2, r2, #1
 327 002a D2B2     		uxtb	r2, r2
 328 002c 1A70     		strb	r2, [r3]
 229:.\Generated_Source\PSoC5/USB_pm.c ****         /* Enable USB block for Standby Power Mode */
 230:.\Generated_Source\PSoC5/USB_pm.c ****         USB_PM_STBY_CFG_REG |= USB_PM_STBY_EN_FSUSB;
 329              		.loc 1 230 0
 330 002e 2D4B     		ldr	r3, .L16+12
 331 0030 2C4A     		ldr	r2, .L16+12
 332 0032 1278     		ldrb	r2, [r2]
 333 0034 D2B2     		uxtb	r2, r2
 334 0036 42F00102 		orr	r2, r2, #1
 335 003a D2B2     		uxtb	r2, r2
 336 003c 1A70     		strb	r2, [r3]
 231:.\Generated_Source\PSoC5/USB_pm.c ****         /* Enable core clock */
 232:.\Generated_Source\PSoC5/USB_pm.c ****         USB_USB_CLK_EN_REG |= USB_USB_CLK_ENABLE;
 337              		.loc 1 232 0
 338 003e 2A4B     		ldr	r3, .L16+16
ARM GAS  C:\Users\xavieran\AppData\Local\Temp\ccI0Xc8f.s 			page 11


 339 0040 294A     		ldr	r2, .L16+16
 340 0042 1278     		ldrb	r2, [r2]
 341 0044 D2B2     		uxtb	r2, r2
 342 0046 42F00102 		orr	r2, r2, #1
 343 004a D2B2     		uxtb	r2, r2
 344 004c 1A70     		strb	r2, [r3]
 233:.\Generated_Source\PSoC5/USB_pm.c **** 
 234:.\Generated_Source\PSoC5/USB_pm.c ****         /* Enable the USBIO reference by setting PM.USB_CR0.fsusbio_ref_en.*/
 235:.\Generated_Source\PSoC5/USB_pm.c ****         USB_PM_USB_CR0_REG |= USB_PM_USB_CR0_REF_EN;
 345              		.loc 1 235 0
 346 004e 274B     		ldr	r3, .L16+20
 347 0050 264A     		ldr	r2, .L16+20
 348 0052 1278     		ldrb	r2, [r2]
 349 0054 D2B2     		uxtb	r2, r2
 350 0056 42F00102 		orr	r2, r2, #1
 351 005a D2B2     		uxtb	r2, r2
 352 005c 1A70     		strb	r2, [r3]
 236:.\Generated_Source\PSoC5/USB_pm.c ****         /* The reference will be available ~40us after power restored */
 237:.\Generated_Source\PSoC5/USB_pm.c ****         CyDelayUs(40u);
 353              		.loc 1 237 0
 354 005e 2820     		movs	r0, #40
 355 0060 FFF7FEFF 		bl	CyDelayUs
 238:.\Generated_Source\PSoC5/USB_pm.c ****         /* Return VRegulator*/
 239:.\Generated_Source\PSoC5/USB_pm.c ****         USB_CR1_REG |= USB_backup.mode;
 356              		.loc 1 239 0
 357 0064 224B     		ldr	r3, .L16+24
 358 0066 224A     		ldr	r2, .L16+24
 359 0068 1278     		ldrb	r2, [r2]
 360 006a D1B2     		uxtb	r1, r2
 361 006c 1A4A     		ldr	r2, .L16
 362 006e 5278     		ldrb	r2, [r2, #1]	@ zero_extendqisi2
 363 0070 0A43     		orrs	r2, r2, r1
 364 0072 D2B2     		uxtb	r2, r2
 365 0074 1A70     		strb	r2, [r3]
 240:.\Generated_Source\PSoC5/USB_pm.c ****         CyDelayUs(0u);  /*~50ns delay */
 366              		.loc 1 240 0
 367 0076 0020     		movs	r0, #0
 368 0078 FFF7FEFF 		bl	CyDelayUs
 241:.\Generated_Source\PSoC5/USB_pm.c ****         /* Enable USBIO */
 242:.\Generated_Source\PSoC5/USB_pm.c ****         USB_PM_USB_CR0_REG |= USB_PM_USB_CR0_PD_N;
 369              		.loc 1 242 0
 370 007c 1B4B     		ldr	r3, .L16+20
 371 007e 1B4A     		ldr	r2, .L16+20
 372 0080 1278     		ldrb	r2, [r2]
 373 0082 D2B2     		uxtb	r2, r2
 374 0084 42F00202 		orr	r2, r2, #2
 375 0088 D2B2     		uxtb	r2, r2
 376 008a 1A70     		strb	r2, [r3]
 243:.\Generated_Source\PSoC5/USB_pm.c ****         CyDelayUs(2u);
 377              		.loc 1 243 0
 378 008c 0220     		movs	r0, #2
 379 008e FFF7FEFF 		bl	CyDelayUs
 244:.\Generated_Source\PSoC5/USB_pm.c ****         /* Set the USBIO pull-up enable */
 245:.\Generated_Source\PSoC5/USB_pm.c ****         USB_PM_USB_CR0_REG |= USB_PM_USB_CR0_PD_PULLUP_N;
 380              		.loc 1 245 0
 381 0092 164B     		ldr	r3, .L16+20
 382 0094 154A     		ldr	r2, .L16+20
ARM GAS  C:\Users\xavieran\AppData\Local\Temp\ccI0Xc8f.s 			page 12


 383 0096 1278     		ldrb	r2, [r2]
 384 0098 D2B2     		uxtb	r2, r2
 385 009a 42F00402 		orr	r2, r2, #4
 386 009e D2B2     		uxtb	r2, r2
 387 00a0 1A70     		strb	r2, [r3]
 246:.\Generated_Source\PSoC5/USB_pm.c **** 
 247:.\Generated_Source\PSoC5/USB_pm.c ****         /* Re-init Arbiter configuration for DMA transfers */
 248:.\Generated_Source\PSoC5/USB_pm.c ****         #if(USB_EP_MM != USB__EP_MANUAL)
 249:.\Generated_Source\PSoC5/USB_pm.c ****             /* Usb arb interrupt enable */
 250:.\Generated_Source\PSoC5/USB_pm.c ****             USB_ARB_INT_EN_REG = USB_ARB_INT_MASK;
 251:.\Generated_Source\PSoC5/USB_pm.c ****             #if(USB_EP_MM == USB__EP_DMAMANUAL)
 252:.\Generated_Source\PSoC5/USB_pm.c ****                 USB_ARB_CFG_REG = USB_ARB_CFG_MANUAL_DMA;
 253:.\Generated_Source\PSoC5/USB_pm.c ****             #endif   /*  USB_EP_MM == USB__EP_DMAMANUAL */
 254:.\Generated_Source\PSoC5/USB_pm.c ****             #if(USB_EP_MM == USB__EP_DMAAUTO)
 255:.\Generated_Source\PSoC5/USB_pm.c ****                 /*Set cfg cmplt this rises DMA request when the full configuration is done */
 256:.\Generated_Source\PSoC5/USB_pm.c ****                 USB_ARB_CFG_REG = USB_ARB_CFG_AUTO_DMA | USB_ARB_CFG_AUTO_MEM;
 257:.\Generated_Source\PSoC5/USB_pm.c ****             #endif   /*  USB_EP_MM == USB__EP_DMAAUTO */
 258:.\Generated_Source\PSoC5/USB_pm.c ****         #endif   /*  USB_EP_MM != USB__EP_MANUAL */
 259:.\Generated_Source\PSoC5/USB_pm.c **** 
 260:.\Generated_Source\PSoC5/USB_pm.c ****         /* STALL_IN_OUT */
 261:.\Generated_Source\PSoC5/USB_pm.c ****         CY_SET_REG8(USB_EP0_CR_PTR, USB_MODE_STALL_IN_OUT);
 388              		.loc 1 261 0
 389 00a2 144B     		ldr	r3, .L16+28
 390 00a4 0322     		movs	r2, #3
 391 00a6 1A70     		strb	r2, [r3]
 262:.\Generated_Source\PSoC5/USB_pm.c ****         /* Enable the SIE with a last address */
 263:.\Generated_Source\PSoC5/USB_pm.c ****         USB_CR0_REG |= USB_CR0_ENABLE;
 392              		.loc 1 263 0
 393 00a8 134B     		ldr	r3, .L16+32
 394 00aa 134A     		ldr	r2, .L16+32
 395 00ac 1278     		ldrb	r2, [r2]
 396 00ae D2B2     		uxtb	r2, r2
 397 00b0 62F07F02 		orn	r2, r2, #127
 398 00b4 D2B2     		uxtb	r2, r2
 399 00b6 1A70     		strb	r2, [r3]
 264:.\Generated_Source\PSoC5/USB_pm.c ****         CyDelayCycles(1u);
 400              		.loc 1 264 0
 401 00b8 0120     		movs	r0, #1
 402 00ba FFF7FEFF 		bl	CyDelayCycles
 265:.\Generated_Source\PSoC5/USB_pm.c ****         /* Finally, Enable d+ pullup and select iomode to USB mode*/
 266:.\Generated_Source\PSoC5/USB_pm.c ****         CY_SET_REG8(USB_USBIO_CR1_PTR, USB_USBIO_CR1_USBPUEN);
 403              		.loc 1 266 0
 404 00be 0F4B     		ldr	r3, .L16+36
 405 00c0 0422     		movs	r2, #4
 406 00c2 1A70     		strb	r2, [r3]
 267:.\Generated_Source\PSoC5/USB_pm.c **** 
 268:.\Generated_Source\PSoC5/USB_pm.c ****         /* Restore USB register settings */
 269:.\Generated_Source\PSoC5/USB_pm.c ****         USB_RestoreConfig();
 407              		.loc 1 269 0
 408 00c4 FFF7FEFF 		bl	USB_RestoreConfig
 409              	.L15:
 270:.\Generated_Source\PSoC5/USB_pm.c ****     }
 271:.\Generated_Source\PSoC5/USB_pm.c **** 
 272:.\Generated_Source\PSoC5/USB_pm.c ****     CyExitCriticalSection(enableInterrupts);
 410              		.loc 1 272 0
 411 00c8 FB79     		ldrb	r3, [r7, #7]	@ zero_extendqisi2
 412 00ca 1846     		mov	r0, r3
ARM GAS  C:\Users\xavieran\AppData\Local\Temp\ccI0Xc8f.s 			page 13


 413 00cc FFF7FEFF 		bl	CyExitCriticalSection
 273:.\Generated_Source\PSoC5/USB_pm.c **** }
 414              		.loc 1 273 0
 415 00d0 0837     		adds	r7, r7, #8
 416 00d2 BD46     		mov	sp, r7
 417              		@ sp needed
 418 00d4 80BD     		pop	{r7, pc}
 419              	.L17:
 420 00d6 00BF     		.align	2
 421              	.L16:
 422 00d8 00000000 		.word	USB_backup
 423 00dc 80E100E0 		.word	-536813184
 424 00e0 A5430040 		.word	1073759141
 425 00e4 B5430040 		.word	1073759157
 426 00e8 9D600040 		.word	1073766557
 427 00ec 94430040 		.word	1073759124
 428 00f0 09600040 		.word	1073766409
 429 00f4 28600040 		.word	1073766440
 430 00f8 08600040 		.word	1073766408
 431 00fc 12600040 		.word	1073766418
 432              		.cfi_endproc
 433              	.LFE67:
 434              		.size	USB_Resume, .-USB_Resume
 435              		.text
 436              	.Letext0:
 437              		.file 2 "c:\\program files (x86)\\cypress\\psoc creator\\3.2\\psoc creator\\import\\gnu\\arm\\4.8.
 438              		.file 3 "c:\\program files (x86)\\cypress\\psoc creator\\3.2\\psoc creator\\import\\gnu\\arm\\4.8.
 439              		.file 4 ".\\Generated_Source\\PSoC5\\cytypes.h"
 440              		.file 5 "Generated_Source\\PSoC5/USB.h"
 441              		.file 6 "Generated_Source\\PSoC5/core_cm3.h"
 442              		.file 7 ".\\Generated_Source\\PSoC5\\Camera.h"