ARM GAS  C:\Users\xavieran\AppData\Local\Temp\ccbgUBIz.s 			page 1


   1              		.syntax unified
   2              		.cpu cortex-m3
   3              		.fpu softvfp
   4              		.eabi_attribute 20, 1
   5              		.eabi_attribute 21, 1
   6              		.eabi_attribute 23, 3
   7              		.eabi_attribute 24, 1
   8              		.eabi_attribute 25, 1
   9              		.eabi_attribute 26, 1
  10              		.eabi_attribute 30, 1
  11              		.eabi_attribute 34, 1
  12              		.eabi_attribute 18, 4
  13              		.thumb
  14              		.file	"arm.c"
  15              		.text
  16              	.Ltext0:
  17              		.cfi_sections	.debug_frame
  18              		.section	.text.arm_set_level,"ax",%progbits
  19              		.align	2
  20              		.global	arm_set_level
  21              		.thumb
  22              		.thumb_func
  23              		.type	arm_set_level, %function
  24              	arm_set_level:
  25              	.LFB63:
  26              		.file 1 ".\\arm.c"
   1:.\arm.c       **** /* ========================================
   2:.\arm.c       ****  *
   3:.\arm.c       ****  * Copyright YOUR COMPANY, THE YEAR
   4:.\arm.c       ****  * All Rights Reserved
   5:.\arm.c       ****  * UNPUBLISHED, LICENSED SOFTWARE.
   6:.\arm.c       ****  *
   7:.\arm.c       ****  * CONFIDENTIAL AND PROPRIETARY INFORMATION
   8:.\arm.c       ****  * WHICH IS THE PROPERTY OF your company.
   9:.\arm.c       ****  *
  10:.\arm.c       ****  * ========================================
  11:.\arm.c       **** */
  12:.\arm.c       **** /* ========================================
  13:.\arm.c       ****  *
  14:.\arm.c       ****  * Copyright YOUR COMPANY, THE YEAR
  15:.\arm.c       ****  * All Rights Reserved
  16:.\arm.c       ****  * UNPUBLISHED, LICENSED SOFTWARE.
  17:.\arm.c       ****  *
  18:.\arm.c       ****  * CONFIDENTIAL AND PROPRIETARY INFORMATION
  19:.\arm.c       ****  * WHICH IS THE PROPERTY OF your company.
  20:.\arm.c       ****  *
  21:.\arm.c       ****  * ========================================
  22:.\arm.c       **** */
  23:.\arm.c       **** 
  24:.\arm.c       **** /* [] END OF FILE */
  25:.\arm.c       **** 
  26:.\arm.c       **** #include <project.h>
  27:.\arm.c       **** #include <stdio.h>
  28:.\arm.c       **** 
  29:.\arm.c       **** /* ***** ARM IS THE BLUE CABLE ******/
  30:.\arm.c       **** 
  31:.\arm.c       **** /* SERVO CONSTANTS */
ARM GAS  C:\Users\xavieran\AppData\Local\Temp\ccbgUBIz.s 			page 2


  32:.\arm.c       **** #define PERIOD 799
  33:.\arm.c       **** /* EXTRA CONSTANTS */
  34:.\arm.c       **** #define PAUSE 50
  35:.\arm.c       ****  
  36:.\arm.c       **** uint8 arm_levels[6] = {22, 30, 35, 40, 45, 50};
  37:.\arm.c       **** 
  38:.\arm.c       **** int PWM_VAL = 25;
  39:.\arm.c       **** char outString[40];
  40:.\arm.c       **** 
  41:.\arm.c       **** 
  42:.\arm.c       **** void arm_set_level(int level){
  27              		.loc 1 42 0
  28              		.cfi_startproc
  29              		@ args = 0, pretend = 0, frame = 0
  30              		@ frame_needed = 0, uses_anonymous_args = 0
  31              	.LVL0:
  32 0000 08B5     		push	{r3, lr}
  33              		.cfi_def_cfa_offset 8
  34              		.cfi_offset 3, -8
  35              		.cfi_offset 14, -4
  43:.\arm.c       ****     Arm_PWM_WriteCompare(arm_levels[level]);
  36              		.loc 1 43 0
  37 0002 024B     		ldr	r3, .L2
  38 0004 185C     		ldrb	r0, [r3, r0]	@ zero_extendqisi2
  39              	.LVL1:
  40 0006 FFF7FEFF 		bl	Arm_PWM_WriteCompare
  41              	.LVL2:
  42 000a 08BD     		pop	{r3, pc}
  43              	.L3:
  44              		.align	2
  45              	.L2:
  46 000c 00000000 		.word	.LANCHOR0
  47              		.cfi_endproc
  48              	.LFE63:
  49              		.size	arm_set_level, .-arm_set_level
  50              		.section	.text.start_arm,"ax",%progbits
  51              		.align	2
  52              		.global	start_arm
  53              		.thumb
  54              		.thumb_func
  55              		.type	start_arm, %function
  56              	start_arm:
  57              	.LFB64:
  44:.\arm.c       **** }
  45:.\arm.c       **** 
  46:.\arm.c       **** void start_arm(){
  58              		.loc 1 46 0
  59              		.cfi_startproc
  60              		@ args = 0, pretend = 0, frame = 0
  61              		@ frame_needed = 0, uses_anonymous_args = 0
  62 0000 08B5     		push	{r3, lr}
  63              		.cfi_def_cfa_offset 8
  64              		.cfi_offset 3, -8
  65              		.cfi_offset 14, -4
  47:.\arm.c       ****     int i;
  48:.\arm.c       ****     /* Initialize the motor controller */
  49:.\arm.c       ****     Arm_PWM_Start();
ARM GAS  C:\Users\xavieran\AppData\Local\Temp\ccbgUBIz.s 			page 3


  66              		.loc 1 49 0
  67 0002 FFF7FEFF 		bl	Arm_PWM_Start
  68              	.LVL3:
  50:.\arm.c       ****     arm_set_level(0);
  69              		.loc 1 50 0
  70 0006 0020     		movs	r0, #0
  71 0008 FFF7FEFF 		bl	arm_set_level
  72              	.LVL4:
  73 000c 08BD     		pop	{r3, pc}
  74              		.cfi_endproc
  75              	.LFE64:
  76              		.size	start_arm, .-start_arm
  77              		.comm	outString,40,4
  78              		.global	PWM_VAL
  79              		.global	arm_levels
  80              		.comm	Camera_framebuffer,50688,4
  81 000e 00BF     		.data
  82              		.align	2
  83              		.set	.LANCHOR0,. + 0
  84              		.type	arm_levels, %object
  85              		.size	arm_levels, 6
  86              	arm_levels:
  87 0000 16       		.byte	22
  88 0001 1E       		.byte	30
  89 0002 23       		.byte	35
  90 0003 28       		.byte	40
  91 0004 2D       		.byte	45
  92 0005 32       		.byte	50
  93 0006 0000     		.space	2
  94              		.type	PWM_VAL, %object
  95              		.size	PWM_VAL, 4
  96              	PWM_VAL:
  97 0008 19000000 		.word	25
  98              		.text
  99              	.Letext0:
 100              		.file 2 "c:\\program files (x86)\\cypress\\psoc creator\\3.2\\psoc creator\\import\\gnu\\arm\\4.8.
 101              		.file 3 "c:\\program files (x86)\\cypress\\psoc creator\\3.2\\psoc creator\\import\\gnu\\arm\\4.8.
 102              		.file 4 "Generated_Source\\PSoC5/cytypes.h"
 103              		.file 5 "Generated_Source\\PSoC5/core_cm3.h"
 104              		.file 6 "Generated_Source\\PSoC5/Camera.h"
 105              		.file 7 "Generated_Source\\PSoC5/Arm_PWM.h"