ARM GAS  C:\Users\xavieran\AppData\Local\Temp\ccg1FnRU.s 			page 1


   1              		.syntax unified
   2              		.cpu cortex-m3
   3              		.fpu softvfp
   4              		.eabi_attribute 20, 1
   5              		.eabi_attribute 21, 1
   6              		.eabi_attribute 23, 3
   7              		.eabi_attribute 24, 1
   8              		.eabi_attribute 25, 1
   9              		.eabi_attribute 26, 1
  10              		.eabi_attribute 30, 1
  11              		.eabi_attribute 34, 1
  12              		.eabi_attribute 18, 4
  13              		.thumb
  14              		.file	"buttons.c"
  15              		.text
  16              	.Ltext0:
  17              		.cfi_sections	.debug_frame
  18              		.section	.text.INC_ISR,"ax",%progbits
  19              		.align	2
  20              		.global	INC_ISR
  21              		.thumb
  22              		.thumb_func
  23              		.type	INC_ISR, %function
  24              	INC_ISR:
  25              	.LFB63:
  26              		.file 1 ".\\buttons.c"
   1:.\buttons.c   **** /* ========================================
   2:.\buttons.c   ****  *
   3:.\buttons.c   ****  * Copyright YOUR COMPANY, THE YEAR
   4:.\buttons.c   ****  * All Rights Reserved
   5:.\buttons.c   ****  * UNPUBLISHED, LICENSED SOFTWARE.
   6:.\buttons.c   ****  *
   7:.\buttons.c   ****  * CONFIDENTIAL AND PROPRIETARY INFORMATION
   8:.\buttons.c   ****  * WHICH IS THE PROPERTY OF your company.
   9:.\buttons.c   ****  *
  10:.\buttons.c   ****  * ========================================
  11:.\buttons.c   **** */
  12:.\buttons.c   **** #include <project.h>
  13:.\buttons.c   **** 
  14:.\buttons.c   **** volatile uint8 but0_b;
  15:.\buttons.c   **** volatile uint8 but1_b;
  16:.\buttons.c   **** 
  17:.\buttons.c   **** CY_ISR(INC_ISR){
  27              		.loc 1 17 0
  28              		.cfi_startproc
  29              		@ args = 0, pretend = 0, frame = 0
  30              		@ frame_needed = 0, uses_anonymous_args = 0
  31 0000 08B5     		push	{r3, lr}
  32              		.cfi_def_cfa_offset 8
  33              		.cfi_offset 3, -8
  34              		.cfi_offset 14, -4
  18:.\buttons.c   ****     but0_b = 1;
  35              		.loc 1 18 0
  36 0002 0122     		movs	r2, #1
  37 0004 024B     		ldr	r3, .L2
  38 0006 1A70     		strb	r2, [r3]
  19:.\buttons.c   ****     but0_ClearPending();
ARM GAS  C:\Users\xavieran\AppData\Local\Temp\ccg1FnRU.s 			page 2


  39              		.loc 1 19 0
  40 0008 FFF7FEFF 		bl	but0_ClearPending
  41              	.LVL0:
  42 000c 08BD     		pop	{r3, pc}
  43              	.L3:
  44 000e 00BF     		.align	2
  45              	.L2:
  46 0010 00000000 		.word	but0_b
  47              		.cfi_endproc
  48              	.LFE63:
  49              		.size	INC_ISR, .-INC_ISR
  50              		.section	.text.DEC_ISR,"ax",%progbits
  51              		.align	2
  52              		.global	DEC_ISR
  53              		.thumb
  54              		.thumb_func
  55              		.type	DEC_ISR, %function
  56              	DEC_ISR:
  57              	.LFB64:
  20:.\buttons.c   **** }
  21:.\buttons.c   **** 
  22:.\buttons.c   **** CY_ISR(DEC_ISR){
  58              		.loc 1 22 0
  59              		.cfi_startproc
  60              		@ args = 0, pretend = 0, frame = 0
  61              		@ frame_needed = 0, uses_anonymous_args = 0
  62 0000 08B5     		push	{r3, lr}
  63              		.cfi_def_cfa_offset 8
  64              		.cfi_offset 3, -8
  65              		.cfi_offset 14, -4
  23:.\buttons.c   ****     but1_b = 1;
  66              		.loc 1 23 0
  67 0002 0122     		movs	r2, #1
  68 0004 024B     		ldr	r3, .L5
  69 0006 1A70     		strb	r2, [r3]
  24:.\buttons.c   ****     but1_ClearPending();
  70              		.loc 1 24 0
  71 0008 FFF7FEFF 		bl	but1_ClearPending
  72              	.LVL1:
  73 000c 08BD     		pop	{r3, pc}
  74              	.L6:
  75 000e 00BF     		.align	2
  76              	.L5:
  77 0010 00000000 		.word	but1_b
  78              		.cfi_endproc
  79              	.LFE64:
  80              		.size	DEC_ISR, .-DEC_ISR
  81              		.section	.text.start_buttons,"ax",%progbits
  82              		.align	2
  83              		.global	start_buttons
  84              		.thumb
  85              		.thumb_func
  86              		.type	start_buttons, %function
  87              	start_buttons:
  88              	.LFB65:
  25:.\buttons.c   **** }
  26:.\buttons.c   **** 
ARM GAS  C:\Users\xavieran\AppData\Local\Temp\ccg1FnRU.s 			page 3


  27:.\buttons.c   **** void start_buttons(){
  89              		.loc 1 27 0
  90              		.cfi_startproc
  91              		@ args = 0, pretend = 0, frame = 0
  92              		@ frame_needed = 0, uses_anonymous_args = 0
  93 0000 08B5     		push	{r3, lr}
  94              		.cfi_def_cfa_offset 8
  95              		.cfi_offset 3, -8
  96              		.cfi_offset 14, -4
  28:.\buttons.c   ****     Button_Start();
  97              		.loc 1 28 0
  98 0002 FFF7FEFF 		bl	Button_PWM_Start
  99              	.LVL2:
  29:.\buttons.c   ****     but0_StartEx(INC_ISR);
 100              		.loc 1 29 0
 101 0006 0648     		ldr	r0, .L8
 102 0008 FFF7FEFF 		bl	but0_StartEx
 103              	.LVL3:
  30:.\buttons.c   ****     but1_StartEx(DEC_ISR);
 104              		.loc 1 30 0
 105 000c 0548     		ldr	r0, .L8+4
 106 000e FFF7FEFF 		bl	but1_StartEx
 107              	.LVL4:
  31:.\buttons.c   ****     
  32:.\buttons.c   ****     but1_b = 0;
 108              		.loc 1 32 0
 109 0012 0023     		movs	r3, #0
 110 0014 044A     		ldr	r2, .L8+8
 111 0016 1370     		strb	r3, [r2]
  33:.\buttons.c   ****     but0_b = 0;
 112              		.loc 1 33 0
 113 0018 044A     		ldr	r2, .L8+12
 114 001a 1370     		strb	r3, [r2]
 115 001c 08BD     		pop	{r3, pc}
 116              	.L9:
 117 001e 00BF     		.align	2
 118              	.L8:
 119 0020 00000000 		.word	INC_ISR
 120 0024 00000000 		.word	DEC_ISR
 121 0028 00000000 		.word	but1_b
 122 002c 00000000 		.word	but0_b
 123              		.cfi_endproc
 124              	.LFE65:
 125              		.size	start_buttons, .-start_buttons
 126              		.comm	but1_b,1,1
 127              		.comm	but0_b,1,1
 128              		.comm	OV9650_1_framebuffer,50688,4
 129              		.text
 130              	.Letext0:
 131              		.file 2 "c:\\program files (x86)\\cypress\\psoc creator\\3.2\\psoc creator\\import\\gnu\\arm\\4.8.
 132              		.file 3 "c:\\program files (x86)\\cypress\\psoc creator\\3.2\\psoc creator\\import\\gnu\\arm\\4.8.
 133              		.file 4 "Generated_Source\\PSoC5/cytypes.h"
 134              		.file 5 "Generated_Source\\PSoC5/core_cm3.h"
 135              		.file 6 "Generated_Source\\PSoC5/OV9650_1.h"
 136              		.file 7 "Generated_Source\\PSoC5/but0.h"
 137              		.file 8 "Generated_Source\\PSoC5/but1.h"
 138              		.file 9 "Generated_Source\\PSoC5/Button_PWM.h"
ARM GAS  C:\Users\xavieran\AppData\Local\Temp\ccg1FnRU.s 			page 4

