ARM GAS  C:\Users\xavieran\AppData\Local\Temp\ccXQpnxb.s 			page 1


   1              		.syntax unified
   2              		.cpu cortex-m3
   3              		.fpu softvfp
   4              		.eabi_attribute 20, 1
   5              		.eabi_attribute 21, 1
   6              		.eabi_attribute 23, 3
   7              		.eabi_attribute 24, 1
   8              		.eabi_attribute 25, 1
   9              		.eabi_attribute 26, 1
  10              		.eabi_attribute 30, 1
  11              		.eabi_attribute 34, 1
  12              		.eabi_attribute 18, 4
  13              		.thumb
  14              		.file	"compass.c"
  15              		.text
  16              	.Ltext0:
  17              		.cfi_sections	.debug_frame
  18              		.section	.text.DRDY_INTERRUPT,"ax",%progbits
  19              		.align	2
  20              		.global	DRDY_INTERRUPT
  21              		.thumb
  22              		.thumb_func
  23              		.type	DRDY_INTERRUPT, %function
  24              	DRDY_INTERRUPT:
  25              	.LFB63:
  26              		.file 1 ".\\compass.c"
   1:.\compass.c   **** /* ========================================
   2:.\compass.c   ****  *
   3:.\compass.c   ****  * Copyright YOUR COMPANY, THE YEAR
   4:.\compass.c   ****  * All Rights Reserved
   5:.\compass.c   ****  * UNPUBLISHED, LICENSED SOFTWARE.
   6:.\compass.c   ****  *
   7:.\compass.c   ****  * CONFIDENTIAL AND PROPRIETARY INFORMATION
   8:.\compass.c   ****  * WHICH IS THE PROPERTY OF your company.
   9:.\compass.c   ****  *
  10:.\compass.c   ****  * ========================================
  11:.\compass.c   **** */
  12:.\compass.c   **** 
  13:.\compass.c   **** /** HOW TO USE THIS MODULE **
  14:.\compass.c   ****  * 1. Start the compass with start_compass()
  15:.\compass.c   ****  * 2. Monitor the compass_ready variable, if it is true, then you
  16:.\compass.c   ****  *    can call compass_read() to refresh the compass data
  17:.\compass.c   ****  * 3. Read from compass x,y,z and heading to get the heading info
  18:.\compass.c   ****  */
  19:.\compass.c   **** 
  20:.\compass.c   **** /* Example code to put in main loop
  21:.\compass.c   **** //Read the compass when it is ready for reading
  22:.\compass.c   **** if (compass_ready){
  23:.\compass.c   ****     compass_ready = 0;
  24:.\compass.c   ****     compass_read();
  25:.\compass.c   ****     //Access compass_x, compass_y, etc.
  26:.\compass.c   **** }
  27:.\compass.c   **** */
  28:.\compass.c   **** 
  29:.\compass.c   **** #include <project.h>
  30:.\compass.c   **** #include <compass.h>
  31:.\compass.c   **** #include <math.h>
ARM GAS  C:\Users\xavieran\AppData\Local\Temp\ccXQpnxb.s 			page 2


  32:.\compass.c   **** 
  33:.\compass.c   **** int16 compass_x;
  34:.\compass.c   **** int16 compass_y;
  35:.\compass.c   **** int16 compass_z;
  36:.\compass.c   **** int16 compass_heading; //0-360 degrees
  37:.\compass.c   **** volatile uint8 compass_ready;
  38:.\compass.c   **** 
  39:.\compass.c   **** int16 original_compass_heading; //this makes our compass relative
  40:.\compass.c   **** 
  41:.\compass.c   **** // These calibration values can be found by plotting the x,y pairs
  42:.\compass.c   **** // whilst turning the compass through 360 degrees, then moving the 
  43:.\compass.c   **** // resulting circle to center on the origin
  44:.\compass.c   **** //AT HOME
  45:.\compass.c   **** //#define CALIBRATION_X -25
  46:.\compass.c   **** //#define CALIBRATION_Y 50
  47:.\compass.c   **** //AT THE LAB/ARENA
  48:.\compass.c   **** #define CALIBRATION_X 25
  49:.\compass.c   **** #define CALIBRATION_Y -25
  50:.\compass.c   **** CY_ISR(DRDY_INTERRUPT){
  27              		.loc 1 50 0
  28              		.cfi_startproc
  29              		@ args = 0, pretend = 0, frame = 0
  30              		@ frame_needed = 0, uses_anonymous_args = 0
  31 0000 08B5     		push	{r3, lr}
  32              		.cfi_def_cfa_offset 8
  33              		.cfi_offset 3, -8
  34              		.cfi_offset 14, -4
  51:.\compass.c   ****     compass_ready = 1;
  35              		.loc 1 51 0
  36 0002 0122     		movs	r2, #1
  37 0004 024B     		ldr	r3, .L2
  38 0006 1A70     		strb	r2, [r3]
  52:.\compass.c   ****     Compass_DRDY_ISR_ClearPending();
  39              		.loc 1 52 0
  40 0008 FFF7FEFF 		bl	Compass_DRDY_ISR_ClearPending
  41              	.LVL0:
  42 000c 08BD     		pop	{r3, pc}
  43              	.L3:
  44 000e 00BF     		.align	2
  45              	.L2:
  46 0010 00000000 		.word	compass_ready
  47              		.cfi_endproc
  48              	.LFE63:
  49              		.size	DRDY_INTERRUPT, .-DRDY_INTERRUPT
  50              		.global	__aeabi_i2d
  51              		.global	__aeabi_dsub
  52              		.global	__aeabi_dmul
  53              		.section	.text.calculate_circular_functions,"ax",%progbits
  54              		.align	2
  55              		.global	calculate_circular_functions
  56              		.thumb
  57              		.thumb_func
  58              		.type	calculate_circular_functions, %function
  59              	calculate_circular_functions:
  60              	.LFB64:
  53:.\compass.c   **** }
  54:.\compass.c   **** 
ARM GAS  C:\Users\xavieran\AppData\Local\Temp\ccXQpnxb.s 			page 3


  55:.\compass.c   **** //These are lookup tables storing sin and cos values in degrees
  56:.\compass.c   **** double SinDeg[360];
  57:.\compass.c   **** double CosDeg[360];
  58:.\compass.c   **** 
  59:.\compass.c   **** void calculate_circular_functions(){
  61              		.loc 1 59 0
  62              		.cfi_startproc
  63              		@ args = 0, pretend = 0, frame = 0
  64              		@ frame_needed = 0, uses_anonymous_args = 0
  65 0000 2DE9F84F 		push	{r3, r4, r5, r6, r7, r8, r9, r10, fp, lr}
  66              		.cfi_def_cfa_offset 40
  67              		.cfi_offset 3, -40
  68              		.cfi_offset 4, -36
  69              		.cfi_offset 5, -32
  70              		.cfi_offset 6, -28
  71              		.cfi_offset 7, -24
  72              		.cfi_offset 8, -20
  73              		.cfi_offset 9, -16
  74              		.cfi_offset 10, -12
  75              		.cfi_offset 11, -8
  76              		.cfi_offset 14, -4
  77              	.LVL1:
  60:.\compass.c   ****     int i;
  61:.\compass.c   ****     for (i = 0; i < 360; i++){
  78              		.loc 1 61 0
  79 0004 4FF0000A 		mov	r10, #0
  62:.\compass.c   ****         SinDeg[i] = sin((((double) i) - 180) * (M_PI / 180.0));
  80              		.loc 1 62 0
  81 0008 0026     		movs	r6, #0
  82 000a 174F     		ldr	r7, .L7+8
  83 000c 0FF25009 		adr	r9, .L7
  84 0010 D9E90089 		ldrd	r8, [r9]
  61:.\compass.c   ****     for (i = 0; i < 360; i++){
  85              		.loc 1 61 0
  86 0014 1EE0     		b	.L5
  87              	.LVL2:
  88              	.L6:
  89              		.loc 1 62 0 discriminator 2
  90 0016 5046     		mov	r0, r10
  91 0018 FFF7FEFF 		bl	__aeabi_i2d
  92              	.LVL3:
  93 001c 3246     		mov	r2, r6
  94 001e 3B46     		mov	r3, r7
  95 0020 FFF7FEFF 		bl	__aeabi_dsub
  96              	.LVL4:
  97 0024 4246     		mov	r2, r8
  98 0026 4B46     		mov	r3, r9
  99 0028 FFF7FEFF 		bl	__aeabi_dmul
 100              	.LVL5:
 101 002c 0446     		mov	r4, r0
 102 002e 0D46     		mov	r5, r1
 103 0030 FFF7FEFF 		bl	sin
 104              	.LVL6:
 105 0034 4FEACA0B 		lsl	fp, r10, #3
 106 0038 0C4B     		ldr	r3, .L7+12
 107 003a 5B44     		add	r3, r3, fp
 108 003c C3E90001 		strd	r0, [r3]
ARM GAS  C:\Users\xavieran\AppData\Local\Temp\ccXQpnxb.s 			page 4


  63:.\compass.c   ****         CosDeg[i] = cos((((double) i) - 180) * (M_PI / 180.0));
 109              		.loc 1 63 0 discriminator 2
 110 0040 2046     		mov	r0, r4
 111 0042 2946     		mov	r1, r5
 112 0044 FFF7FEFF 		bl	cos
 113              	.LVL7:
 114 0048 094B     		ldr	r3, .L7+16
 115 004a 9B44     		add	fp, fp, r3
 116 004c CBE90001 		strd	r0, [fp]
  61:.\compass.c   ****     for (i = 0; i < 360; i++){
 117              		.loc 1 61 0 discriminator 2
 118 0050 0AF1010A 		add	r10, r10, #1
 119              	.LVL8:
 120              	.L5:
  61:.\compass.c   ****     for (i = 0; i < 360; i++){
 121              		.loc 1 61 0 is_stmt 0 discriminator 1
 122 0054 BAF5B47F 		cmp	r10, #360
 123 0058 DDDB     		blt	.L6
  64:.\compass.c   ****     }
  65:.\compass.c   **** }
 124              		.loc 1 65 0 is_stmt 1
 125 005a BDE8F88F 		pop	{r3, r4, r5, r6, r7, r8, r9, r10, fp, pc}
 126              	.LVL9:
 127              	.L8:
 128 005e 00BF     		.align	3
 129              	.L7:
 130 0060 399D52A2 		.word	-1571644103
 131 0064 46DF913F 		.word	1066524486
 132 0068 00806640 		.word	1080459264
 133 006c 00000000 		.word	SinDeg
 134 0070 00000000 		.word	CosDeg
 135              		.cfi_endproc
 136              	.LFE64:
 137              		.size	calculate_circular_functions, .-calculate_circular_functions
 138 0074 AFF30080 		.section	.text.start_compass,"ax",%progbits
 139              		.align	2
 140              		.global	start_compass
 141              		.thumb
 142              		.thumb_func
 143              		.type	start_compass, %function
 144              	start_compass:
 145              	.LFB65:
  66:.\compass.c   **** 
  67:.\compass.c   **** void start_compass(){
 146              		.loc 1 67 0
 147              		.cfi_startproc
 148              		@ args = 0, pretend = 0, frame = 0
 149              		@ frame_needed = 0, uses_anonymous_args = 0
 150 0000 10B5     		push	{r4, lr}
 151              		.cfi_def_cfa_offset 8
 152              		.cfi_offset 4, -8
 153              		.cfi_offset 14, -4
  68:.\compass.c   ****     compass_ready = 0;
 154              		.loc 1 68 0
 155 0002 0024     		movs	r4, #0
 156 0004 1A4B     		ldr	r3, .L10
 157 0006 1C70     		strb	r4, [r3]
ARM GAS  C:\Users\xavieran\AppData\Local\Temp\ccXQpnxb.s 			page 5


  69:.\compass.c   ****     compass_x = 0;
 158              		.loc 1 69 0
 159 0008 1A4B     		ldr	r3, .L10+4
 160 000a 1C80     		strh	r4, [r3]	@ movhi
  70:.\compass.c   ****     compass_y = 0;
 161              		.loc 1 70 0
 162 000c 1A4B     		ldr	r3, .L10+8
 163 000e 1C80     		strh	r4, [r3]	@ movhi
  71:.\compass.c   ****     compass_z = 0;
 164              		.loc 1 71 0
 165 0010 1A4B     		ldr	r3, .L10+12
 166 0012 1C80     		strh	r4, [r3]	@ movhi
  72:.\compass.c   ****     compass_heading = 0;
 167              		.loc 1 72 0
 168 0014 1A4B     		ldr	r3, .L10+16
 169 0016 1C80     		strh	r4, [r3]	@ movhi
  73:.\compass.c   ****     original_compass_heading = 0;
 170              		.loc 1 73 0
 171 0018 1A4B     		ldr	r3, .L10+20
 172 001a 1C80     		strh	r4, [r3]	@ movhi
  74:.\compass.c   ****     
  75:.\compass.c   ****     I2C_Start();
 173              		.loc 1 75 0
 174 001c FFF7FEFF 		bl	I2C_Start
 175              	.LVL10:
  76:.\compass.c   ****     //Write configuration register A
  77:.\compass.c   ****     I2C_MasterSendStart(COMPASS_ADDR, I2C_WRITE_XFER_MODE); 
 176              		.loc 1 77 0
 177 0020 1E20     		movs	r0, #30
 178 0022 2146     		mov	r1, r4
 179 0024 FFF7FEFF 		bl	I2C_MasterSendStart
 180              	.LVL11:
  78:.\compass.c   ****     I2C_MasterWriteByte(COMPASS_REG_CONF_A);
 181              		.loc 1 78 0
 182 0028 2046     		mov	r0, r4
 183 002a FFF7FEFF 		bl	I2C_MasterWriteByte
 184              	.LVL12:
  79:.\compass.c   ****     I2C_MasterWriteByte(COMPASS_DAT_CONF_A);
 185              		.loc 1 79 0
 186 002e 7020     		movs	r0, #112
 187 0030 FFF7FEFF 		bl	I2C_MasterWriteByte
 188              	.LVL13:
  80:.\compass.c   ****     I2C_MasterSendStop();
 189              		.loc 1 80 0
 190 0034 FFF7FEFF 		bl	I2C_MasterSendStop
 191              	.LVL14:
  81:.\compass.c   ****     //Write configuration register A    
  82:.\compass.c   ****     I2C_MasterSendStart(COMPASS_ADDR, I2C_WRITE_XFER_MODE); 
 192              		.loc 1 82 0
 193 0038 1E20     		movs	r0, #30
 194 003a 2146     		mov	r1, r4
 195 003c FFF7FEFF 		bl	I2C_MasterSendStart
 196              	.LVL15:
  83:.\compass.c   ****     I2C_MasterWriteByte(COMPASS_REG_CONF_B);
 197              		.loc 1 83 0
 198 0040 0120     		movs	r0, #1
 199 0042 FFF7FEFF 		bl	I2C_MasterWriteByte
ARM GAS  C:\Users\xavieran\AppData\Local\Temp\ccXQpnxb.s 			page 6


 200              	.LVL16:
  84:.\compass.c   ****     I2C_MasterWriteByte(COMPASS_DAT_CONF_B);
 201              		.loc 1 84 0
 202 0046 2020     		movs	r0, #32
 203 0048 FFF7FEFF 		bl	I2C_MasterWriteByte
 204              	.LVL17:
  85:.\compass.c   ****     I2C_MasterSendStop();
 205              		.loc 1 85 0
 206 004c FFF7FEFF 		bl	I2C_MasterSendStop
 207              	.LVL18:
  86:.\compass.c   ****     //Write mode register
  87:.\compass.c   ****     I2C_MasterSendStart(COMPASS_ADDR, I2C_WRITE_XFER_MODE); 
 208              		.loc 1 87 0
 209 0050 1E20     		movs	r0, #30
 210 0052 2146     		mov	r1, r4
 211 0054 FFF7FEFF 		bl	I2C_MasterSendStart
 212              	.LVL19:
  88:.\compass.c   ****     I2C_MasterWriteByte(COMPASS_REG_MODE);
 213              		.loc 1 88 0
 214 0058 0220     		movs	r0, #2
 215 005a FFF7FEFF 		bl	I2C_MasterWriteByte
 216              	.LVL20:
  89:.\compass.c   ****     I2C_MasterWriteByte(COMPASS_DAT_MODE);
 217              		.loc 1 89 0
 218 005e 2046     		mov	r0, r4
 219 0060 FFF7FEFF 		bl	I2C_MasterWriteByte
 220              	.LVL21:
  90:.\compass.c   ****     I2C_MasterSendStop();
 221              		.loc 1 90 0
 222 0064 FFF7FEFF 		bl	I2C_MasterSendStop
 223              	.LVL22:
  91:.\compass.c   ****     
  92:.\compass.c   ****     Compass_DRDY_ISR_StartEx(DRDY_INTERRUPT);
 224              		.loc 1 92 0
 225 0068 0748     		ldr	r0, .L10+24
 226 006a FFF7FEFF 		bl	Compass_DRDY_ISR_StartEx
 227              	.LVL23:
 228 006e 10BD     		pop	{r4, pc}
 229              	.L11:
 230              		.align	2
 231              	.L10:
 232 0070 00000000 		.word	compass_ready
 233 0074 00000000 		.word	compass_x
 234 0078 00000000 		.word	compass_y
 235 007c 00000000 		.word	compass_z
 236 0080 00000000 		.word	compass_heading
 237 0084 00000000 		.word	original_compass_heading
 238 0088 00000000 		.word	DRDY_INTERRUPT
 239              		.cfi_endproc
 240              	.LFE65:
 241              		.size	start_compass, .-start_compass
 242              		.global	__aeabi_dadd
 243              		.global	__aeabi_d2iz
 244              		.section	.text.compass_read,"ax",%progbits
 245              		.align	2
 246              		.global	compass_read
 247              		.thumb
ARM GAS  C:\Users\xavieran\AppData\Local\Temp\ccXQpnxb.s 			page 7


 248              		.thumb_func
 249              		.type	compass_read, %function
 250              	compass_read:
 251              	.LFB66:
  93:.\compass.c   **** }
  94:.\compass.c   **** 
  95:.\compass.c   **** 
  96:.\compass.c   **** void compass_read(){
 252              		.loc 1 96 0
 253              		.cfi_startproc
 254              		@ args = 0, pretend = 0, frame = 0
 255              		@ frame_needed = 0, uses_anonymous_args = 0
 256 0000 2DE9F843 		push	{r3, r4, r5, r6, r7, r8, r9, lr}
 257              		.cfi_def_cfa_offset 32
 258              		.cfi_offset 3, -32
 259              		.cfi_offset 4, -28
 260              		.cfi_offset 5, -24
 261              		.cfi_offset 6, -20
 262              		.cfi_offset 7, -16
 263              		.cfi_offset 8, -12
 264              		.cfi_offset 9, -8
 265              		.cfi_offset 14, -4
  97:.\compass.c   ****     uint8 data[6] = {0, 0, 0, 0, 0, 0};
  98:.\compass.c   ****     //Set the compass internal address pointer to xh
  99:.\compass.c   ****     I2C_MasterSendStart(COMPASS_ADDR, I2C_WRITE_XFER_MODE);
 266              		.loc 1 99 0
 267 0004 1E20     		movs	r0, #30
 268 0006 0021     		movs	r1, #0
 269 0008 FFF7FEFF 		bl	I2C_MasterSendStart
 270              	.LVL24:
 100:.\compass.c   ****     I2C_MasterWriteByte(0x03);
 271              		.loc 1 100 0
 272 000c 0320     		movs	r0, #3
 273 000e FFF7FEFF 		bl	I2C_MasterWriteByte
 274              	.LVL25:
 101:.\compass.c   ****     I2C_MasterSendStop();
 275              		.loc 1 101 0
 276 0012 FFF7FEFF 		bl	I2C_MasterSendStop
 277              	.LVL26:
 102:.\compass.c   ****     //Read six bytes
 103:.\compass.c   ****     I2C_MasterSendStart(COMPASS_ADDR, I2C_READ_XFER_MODE);
 278              		.loc 1 103 0
 279 0016 1E20     		movs	r0, #30
 280 0018 0121     		movs	r1, #1
 281 001a FFF7FEFF 		bl	I2C_MasterSendStart
 282              	.LVL27:
 104:.\compass.c   ****     data[0] = I2C_MasterReadByte(I2C_ACK_DATA);
 283              		.loc 1 104 0
 284 001e 0120     		movs	r0, #1
 285 0020 FFF7FEFF 		bl	I2C_MasterReadByte
 286              	.LVL28:
 287 0024 8146     		mov	r9, r0
 105:.\compass.c   ****     data[1] = I2C_MasterReadByte(I2C_ACK_DATA);
 288              		.loc 1 105 0
 289 0026 0120     		movs	r0, #1
 290 0028 FFF7FEFF 		bl	I2C_MasterReadByte
 291              	.LVL29:
ARM GAS  C:\Users\xavieran\AppData\Local\Temp\ccXQpnxb.s 			page 8


 292 002c 8046     		mov	r8, r0
 106:.\compass.c   ****     data[2] = I2C_MasterReadByte(I2C_ACK_DATA);
 293              		.loc 1 106 0
 294 002e 0120     		movs	r0, #1
 295 0030 FFF7FEFF 		bl	I2C_MasterReadByte
 296              	.LVL30:
 297 0034 0746     		mov	r7, r0
 107:.\compass.c   ****     data[3] = I2C_MasterReadByte(I2C_ACK_DATA);
 298              		.loc 1 107 0
 299 0036 0120     		movs	r0, #1
 300 0038 FFF7FEFF 		bl	I2C_MasterReadByte
 301              	.LVL31:
 302 003c 0646     		mov	r6, r0
 108:.\compass.c   ****     data[4] = I2C_MasterReadByte(I2C_ACK_DATA);
 303              		.loc 1 108 0
 304 003e 0120     		movs	r0, #1
 305 0040 FFF7FEFF 		bl	I2C_MasterReadByte
 306              	.LVL32:
 307 0044 0546     		mov	r5, r0
 109:.\compass.c   ****     data[5] = I2C_MasterReadByte(I2C_NAK_DATA);
 308              		.loc 1 109 0
 309 0046 0020     		movs	r0, #0
 310 0048 FFF7FEFF 		bl	I2C_MasterReadByte
 311              	.LVL33:
 312 004c 0446     		mov	r4, r0
 110:.\compass.c   ****     I2C_MasterSendStop();
 313              		.loc 1 110 0
 314 004e FFF7FEFF 		bl	I2C_MasterSendStop
 315              	.LVL34:
 111:.\compass.c   ****     
 112:.\compass.c   ****     compass_x = ((data[0] << 8) | data[1]);
 316              		.loc 1 112 0
 317 0052 48EA0923 		orr	r3, r8, r9, lsl #8
 318 0056 9BB2     		uxth	r3, r3
 319 0058 1F4A     		ldr	r2, .L13+8
 320 005a 1380     		strh	r3, [r2]	@ movhi
 113:.\compass.c   ****     compass_z = (data[2] << 8) | data[3];//Bizarrely, the device reads x,z,y...
 321              		.loc 1 113 0
 322 005c 46EA0726 		orr	r6, r6, r7, lsl #8
 323 0060 1E4A     		ldr	r2, .L13+12
 324 0062 1680     		strh	r6, [r2]	@ movhi
 114:.\compass.c   ****     compass_y = ((data[4] << 8) | data[5]);
 325              		.loc 1 114 0
 326 0064 44EA0520 		orr	r0, r4, r5, lsl #8
 327 0068 80B2     		uxth	r0, r0
 328 006a 1D4A     		ldr	r2, .L13+16
 329 006c 1080     		strh	r0, [r2]	@ movhi
 115:.\compass.c   ****     compass_heading = atan2((double) (compass_y + CALIBRATION_Y), 
 330              		.loc 1 115 0
 331 006e 00B2     		sxth	r0, r0
 116:.\compass.c   ****                             (double) (compass_x + CALIBRATION_X)) * 
 332              		.loc 1 116 0
 333 0070 1BB2     		sxth	r3, r3
 334 0072 03F11906 		add	r6, r3, #25
 115:.\compass.c   ****     compass_heading = atan2((double) (compass_y + CALIBRATION_Y), 
 335              		.loc 1 115 0
 336 0076 1938     		subs	r0, r0, #25
ARM GAS  C:\Users\xavieran\AppData\Local\Temp\ccXQpnxb.s 			page 9


 337 0078 FFF7FEFF 		bl	__aeabi_i2d
 338              	.LVL35:
 339 007c 0446     		mov	r4, r0
 340 007e 0D46     		mov	r5, r1
 341 0080 3046     		mov	r0, r6
 342 0082 FFF7FEFF 		bl	__aeabi_i2d
 343              	.LVL36:
 344 0086 0246     		mov	r2, r0
 345 0088 0B46     		mov	r3, r1
 346 008a 2046     		mov	r0, r4
 347 008c 2946     		mov	r1, r5
 348 008e FFF7FEFF 		bl	atan2
 349              	.LVL37:
 350              		.loc 1 116 0
 351 0092 0FA3     		adr	r3, .L13
 352 0094 D3E90023 		ldrd	r2, [r3]
 353 0098 FFF7FEFF 		bl	__aeabi_dmul
 354              	.LVL38:
 117:.\compass.c   ****                             (180/M_PI) + 180 - original_compass_heading;
 355              		.loc 1 117 0
 356 009c 0022     		movs	r2, #0
 357 009e 114B     		ldr	r3, .L13+20
 358 00a0 FFF7FEFF 		bl	__aeabi_dadd
 359              	.LVL39:
 360 00a4 0446     		mov	r4, r0
 361 00a6 0D46     		mov	r5, r1
 362 00a8 0F4B     		ldr	r3, .L13+24
 363 00aa B3F90000 		ldrsh	r0, [r3]
 364 00ae FFF7FEFF 		bl	__aeabi_i2d
 365              	.LVL40:
 366 00b2 0246     		mov	r2, r0
 367 00b4 0B46     		mov	r3, r1
 368 00b6 2046     		mov	r0, r4
 369 00b8 2946     		mov	r1, r5
 370 00ba FFF7FEFF 		bl	__aeabi_dsub
 371              	.LVL41:
 115:.\compass.c   ****     compass_heading = atan2((double) (compass_y + CALIBRATION_Y), 
 372              		.loc 1 115 0
 373 00be FFF7FEFF 		bl	__aeabi_d2iz
 374              	.LVL42:
 375 00c2 0A4B     		ldr	r3, .L13+28
 376 00c4 1880     		strh	r0, [r3]	@ movhi
 377 00c6 BDE8F883 		pop	{r3, r4, r5, r6, r7, r8, r9, pc}
 378              	.L14:
 379 00ca 00BFAFF3 		.align	3
 379      0080
 380              	.L13:
 381 00d0 F8C1631A 		.word	442745336
 382 00d4 DCA54C40 		.word	1078765020
 383 00d8 00000000 		.word	compass_x
 384 00dc 00000000 		.word	compass_z
 385 00e0 00000000 		.word	compass_y
 386 00e4 00806640 		.word	1080459264
 387 00e8 00000000 		.word	original_compass_heading
 388 00ec 00000000 		.word	compass_heading
 389              		.cfi_endproc
 390              	.LFE66:
ARM GAS  C:\Users\xavieran\AppData\Local\Temp\ccXQpnxb.s 			page 10


 391              		.size	compass_read, .-compass_read
 392              		.comm	CosDeg,2880,8
 393              		.comm	SinDeg,2880,8
 394              		.comm	original_compass_heading,2,2
 395              		.comm	compass_ready,1,1
 396              		.comm	compass_heading,2,2
 397              		.comm	compass_z,2,2
 398              		.comm	compass_y,2,2
 399              		.comm	compass_x,2,2
 400              		.comm	Camera_framebuffer,50688,4
 401              		.text
 402              	.Letext0:
 403              		.file 2 "c:\\program files (x86)\\cypress\\psoc creator\\3.2\\psoc creator\\import\\gnu\\arm\\4.8.
 404              		.file 3 "c:\\program files (x86)\\cypress\\psoc creator\\3.2\\psoc creator\\import\\gnu\\arm\\4.8.
 405              		.file 4 "Generated_Source\\PSoC5/cytypes.h"
 406              		.file 5 "Generated_Source\\PSoC5/core_cm3.h"
 407              		.file 6 "Generated_Source\\PSoC5/Camera.h"
 408              		.file 7 "c:\\program files (x86)\\cypress\\psoc creator\\3.2\\psoc creator\\import\\gnu\\arm\\4.8.
 409              		.file 8 "Generated_Source\\PSoC5/Compass_DRDY_ISR.h"
 410              		.file 9 "Generated_Source\\PSoC5/I2C.h"