ARM GAS  C:\Users\xavieran\AppData\Local\Temp\ccJfmadl.s 			page 1


   1              		.syntax unified
   2              		.cpu cortex-m3
   3              		.fpu softvfp
   4              		.eabi_attribute 20, 1
   5              		.eabi_attribute 21, 1
   6              		.eabi_attribute 23, 3
   7              		.eabi_attribute 24, 1
   8              		.eabi_attribute 25, 1
   9              		.eabi_attribute 26, 1
  10              		.eabi_attribute 30, 1
  11              		.eabi_attribute 34, 1
  12              		.eabi_attribute 18, 4
  13              		.thumb
  14              		.file	"cyfitter_cfg.c"
  15              		.text
  16              	.Ltext0:
  17              		.cfi_sections	.debug_frame
  18              		.section	.text.CyClockStartupError,"ax",%progbits
  19              		.align	2
  20              		.thumb
  21              		.thumb_func
  22              		.type	CyClockStartupError, %function
  23              	CyClockStartupError:
  24              	.LFB3:
  25              		.file 1 ".\\Generated_Source\\PSoC5\\cyfitter_cfg.c"
   1:.\Generated_Source\PSoC5/cyfitter_cfg.c **** /*******************************************************************************
   2:.\Generated_Source\PSoC5/cyfitter_cfg.c **** * FILENAME: cyfitter_cfg.c
   3:.\Generated_Source\PSoC5/cyfitter_cfg.c **** * 
   4:.\Generated_Source\PSoC5/cyfitter_cfg.c **** * PSoC Creator  3.2 SP1
   5:.\Generated_Source\PSoC5/cyfitter_cfg.c **** *
   6:.\Generated_Source\PSoC5/cyfitter_cfg.c **** * DESCRIPTION:
   7:.\Generated_Source\PSoC5/cyfitter_cfg.c **** * This file contains device initialization code.
   8:.\Generated_Source\PSoC5/cyfitter_cfg.c **** * Except for the user defined sections in CyClockStartupError(), this file should not be modified.
   9:.\Generated_Source\PSoC5/cyfitter_cfg.c **** * This file is automatically generated by PSoC Creator.
  10:.\Generated_Source\PSoC5/cyfitter_cfg.c **** *
  11:.\Generated_Source\PSoC5/cyfitter_cfg.c **** ********************************************************************************
  12:.\Generated_Source\PSoC5/cyfitter_cfg.c **** * Copyright (c) 2007-2015 Cypress Semiconductor.  All rights reserved.
  13:.\Generated_Source\PSoC5/cyfitter_cfg.c **** * You may use this file only in accordance with the license, terms, conditions, 
  14:.\Generated_Source\PSoC5/cyfitter_cfg.c **** * disclaimers, and limitations in the end user license agreement accompanying 
  15:.\Generated_Source\PSoC5/cyfitter_cfg.c **** * the software package with which this file was provided.
  16:.\Generated_Source\PSoC5/cyfitter_cfg.c **** ********************************************************************************/
  17:.\Generated_Source\PSoC5/cyfitter_cfg.c **** 
  18:.\Generated_Source\PSoC5/cyfitter_cfg.c **** #include <string.h>
  19:.\Generated_Source\PSoC5/cyfitter_cfg.c **** #include "cytypes.h"
  20:.\Generated_Source\PSoC5/cyfitter_cfg.c **** #include "cydevice_trm.h"
  21:.\Generated_Source\PSoC5/cyfitter_cfg.c **** #include "cyfitter.h"
  22:.\Generated_Source\PSoC5/cyfitter_cfg.c **** #include "CyLib.h"
  23:.\Generated_Source\PSoC5/cyfitter_cfg.c **** #include "cyfitter_cfg.h"
  24:.\Generated_Source\PSoC5/cyfitter_cfg.c **** 
  25:.\Generated_Source\PSoC5/cyfitter_cfg.c **** #define CY_NEED_CYCLOCKSTARTUPERROR 1
  26:.\Generated_Source\PSoC5/cyfitter_cfg.c **** 
  27:.\Generated_Source\PSoC5/cyfitter_cfg.c **** 
  28:.\Generated_Source\PSoC5/cyfitter_cfg.c **** #if defined(__GNUC__) || defined(__ARMCC_VERSION)
  29:.\Generated_Source\PSoC5/cyfitter_cfg.c ****     #define CYPACKED 
  30:.\Generated_Source\PSoC5/cyfitter_cfg.c ****     #define CYPACKED_ATTR __attribute__ ((packed))
  31:.\Generated_Source\PSoC5/cyfitter_cfg.c ****     #define CYALIGNED __attribute__ ((aligned))
  32:.\Generated_Source\PSoC5/cyfitter_cfg.c ****     #define CY_CFG_UNUSED __attribute__ ((unused))
ARM GAS  C:\Users\xavieran\AppData\Local\Temp\ccJfmadl.s 			page 2


  33:.\Generated_Source\PSoC5/cyfitter_cfg.c ****     #define CY_CFG_SECTION __attribute__ ((section(".psocinit")))
  34:.\Generated_Source\PSoC5/cyfitter_cfg.c ****     
  35:.\Generated_Source\PSoC5/cyfitter_cfg.c ****     #if defined(__ARMCC_VERSION)
  36:.\Generated_Source\PSoC5/cyfitter_cfg.c ****         #define CY_CFG_MEMORY_BARRIER() __memory_changed()
  37:.\Generated_Source\PSoC5/cyfitter_cfg.c ****     #else
  38:.\Generated_Source\PSoC5/cyfitter_cfg.c ****         #define CY_CFG_MEMORY_BARRIER() __sync_synchronize()
  39:.\Generated_Source\PSoC5/cyfitter_cfg.c ****     #endif
  40:.\Generated_Source\PSoC5/cyfitter_cfg.c ****     
  41:.\Generated_Source\PSoC5/cyfitter_cfg.c **** #elif defined(__ICCARM__)
  42:.\Generated_Source\PSoC5/cyfitter_cfg.c ****     #include <intrinsics.h>
  43:.\Generated_Source\PSoC5/cyfitter_cfg.c **** 
  44:.\Generated_Source\PSoC5/cyfitter_cfg.c ****     #define CYPACKED __packed
  45:.\Generated_Source\PSoC5/cyfitter_cfg.c ****     #define CYPACKED_ATTR 
  46:.\Generated_Source\PSoC5/cyfitter_cfg.c ****     #define CYALIGNED _Pragma("data_alignment=4")
  47:.\Generated_Source\PSoC5/cyfitter_cfg.c ****     #define CY_CFG_UNUSED _Pragma("diag_suppress=Pe177")
  48:.\Generated_Source\PSoC5/cyfitter_cfg.c ****     #define CY_CFG_SECTION _Pragma("location=\".psocinit\"")
  49:.\Generated_Source\PSoC5/cyfitter_cfg.c ****     
  50:.\Generated_Source\PSoC5/cyfitter_cfg.c ****     #define CY_CFG_MEMORY_BARRIER() __DMB()
  51:.\Generated_Source\PSoC5/cyfitter_cfg.c ****     
  52:.\Generated_Source\PSoC5/cyfitter_cfg.c **** #else
  53:.\Generated_Source\PSoC5/cyfitter_cfg.c ****     #error Unsupported toolchain
  54:.\Generated_Source\PSoC5/cyfitter_cfg.c **** #endif
  55:.\Generated_Source\PSoC5/cyfitter_cfg.c **** 
  56:.\Generated_Source\PSoC5/cyfitter_cfg.c **** 
  57:.\Generated_Source\PSoC5/cyfitter_cfg.c **** CY_CFG_UNUSED
  58:.\Generated_Source\PSoC5/cyfitter_cfg.c **** static void CYMEMZERO(void *s, size_t n);
  59:.\Generated_Source\PSoC5/cyfitter_cfg.c **** CY_CFG_UNUSED
  60:.\Generated_Source\PSoC5/cyfitter_cfg.c **** static void CYMEMZERO(void *s, size_t n)
  61:.\Generated_Source\PSoC5/cyfitter_cfg.c **** {
  62:.\Generated_Source\PSoC5/cyfitter_cfg.c **** 	(void)memset(s, 0, n);
  63:.\Generated_Source\PSoC5/cyfitter_cfg.c **** }
  64:.\Generated_Source\PSoC5/cyfitter_cfg.c **** CY_CFG_UNUSED
  65:.\Generated_Source\PSoC5/cyfitter_cfg.c **** static void CYCONFIGCPY(void *dest, const void *src, size_t n);
  66:.\Generated_Source\PSoC5/cyfitter_cfg.c **** CY_CFG_UNUSED
  67:.\Generated_Source\PSoC5/cyfitter_cfg.c **** static void CYCONFIGCPY(void *dest, const void *src, size_t n)
  68:.\Generated_Source\PSoC5/cyfitter_cfg.c **** {
  69:.\Generated_Source\PSoC5/cyfitter_cfg.c **** 	(void)memcpy(dest, src, n);
  70:.\Generated_Source\PSoC5/cyfitter_cfg.c **** }
  71:.\Generated_Source\PSoC5/cyfitter_cfg.c **** CY_CFG_UNUSED
  72:.\Generated_Source\PSoC5/cyfitter_cfg.c **** static void CYCONFIGCPYCODE(void *dest, const void *src, size_t n);
  73:.\Generated_Source\PSoC5/cyfitter_cfg.c **** CY_CFG_UNUSED
  74:.\Generated_Source\PSoC5/cyfitter_cfg.c **** static void CYCONFIGCPYCODE(void *dest, const void *src, size_t n)
  75:.\Generated_Source\PSoC5/cyfitter_cfg.c **** {
  76:.\Generated_Source\PSoC5/cyfitter_cfg.c **** 	(void)memcpy(dest, src, n);
  77:.\Generated_Source\PSoC5/cyfitter_cfg.c **** }
  78:.\Generated_Source\PSoC5/cyfitter_cfg.c **** 
  79:.\Generated_Source\PSoC5/cyfitter_cfg.c **** 
  80:.\Generated_Source\PSoC5/cyfitter_cfg.c **** 
  81:.\Generated_Source\PSoC5/cyfitter_cfg.c **** /* Clock startup error codes                                                   */
  82:.\Generated_Source\PSoC5/cyfitter_cfg.c **** #define CYCLOCKSTART_NO_ERROR    0u
  83:.\Generated_Source\PSoC5/cyfitter_cfg.c **** #define CYCLOCKSTART_XTAL_ERROR  1u
  84:.\Generated_Source\PSoC5/cyfitter_cfg.c **** #define CYCLOCKSTART_32KHZ_ERROR 2u
  85:.\Generated_Source\PSoC5/cyfitter_cfg.c **** #define CYCLOCKSTART_PLL_ERROR   3u
  86:.\Generated_Source\PSoC5/cyfitter_cfg.c **** 
  87:.\Generated_Source\PSoC5/cyfitter_cfg.c **** #ifdef CY_NEED_CYCLOCKSTARTUPERROR
  88:.\Generated_Source\PSoC5/cyfitter_cfg.c **** /*******************************************************************************
  89:.\Generated_Source\PSoC5/cyfitter_cfg.c **** * Function Name: CyClockStartupError
ARM GAS  C:\Users\xavieran\AppData\Local\Temp\ccJfmadl.s 			page 3


  90:.\Generated_Source\PSoC5/cyfitter_cfg.c **** ********************************************************************************
  91:.\Generated_Source\PSoC5/cyfitter_cfg.c **** * Summary:
  92:.\Generated_Source\PSoC5/cyfitter_cfg.c **** *  If an error is encountered during clock configuration (crystal startup error,
  93:.\Generated_Source\PSoC5/cyfitter_cfg.c **** *  PLL lock error, etc.), the system will end up here.  Unless reimplemented by
  94:.\Generated_Source\PSoC5/cyfitter_cfg.c **** *  the customer, this function will stop in an infinite loop.
  95:.\Generated_Source\PSoC5/cyfitter_cfg.c **** *
  96:.\Generated_Source\PSoC5/cyfitter_cfg.c **** * Parameters:
  97:.\Generated_Source\PSoC5/cyfitter_cfg.c **** *   void
  98:.\Generated_Source\PSoC5/cyfitter_cfg.c **** *
  99:.\Generated_Source\PSoC5/cyfitter_cfg.c **** * Return:
 100:.\Generated_Source\PSoC5/cyfitter_cfg.c **** *   void
 101:.\Generated_Source\PSoC5/cyfitter_cfg.c **** *
 102:.\Generated_Source\PSoC5/cyfitter_cfg.c **** *******************************************************************************/
 103:.\Generated_Source\PSoC5/cyfitter_cfg.c **** CY_CFG_UNUSED
 104:.\Generated_Source\PSoC5/cyfitter_cfg.c **** static void CyClockStartupError(uint8 errorCode);
 105:.\Generated_Source\PSoC5/cyfitter_cfg.c **** CY_CFG_UNUSED
 106:.\Generated_Source\PSoC5/cyfitter_cfg.c **** static void CyClockStartupError(uint8 errorCode)
 107:.\Generated_Source\PSoC5/cyfitter_cfg.c **** {
  26              		.loc 1 107 0
  27              		.cfi_startproc
  28              		@ Volatile: function does not return.
  29              		@ args = 0, pretend = 0, frame = 0
  30              		@ frame_needed = 0, uses_anonymous_args = 0
  31              		@ link register save eliminated.
  32              	.LVL0:
  33              	.L2:
  34 0000 FEE7     		b	.L2
  35              		.cfi_endproc
  36              	.LFE3:
  37              		.size	CyClockStartupError, .-CyClockStartupError
  38 0002 00BF     		.section	.text.cfg_write_bytes32,"ax",%progbits
  39              		.align	2
  40              		.thumb
  41              		.thumb_func
  42              		.type	cfg_write_bytes32, %function
  43              	cfg_write_bytes32:
  44              	.LFB4:
 108:.\Generated_Source\PSoC5/cyfitter_cfg.c ****     /* To remove the compiler warning if errorCode not used.                */
 109:.\Generated_Source\PSoC5/cyfitter_cfg.c ****     errorCode = errorCode;
 110:.\Generated_Source\PSoC5/cyfitter_cfg.c **** 
 111:.\Generated_Source\PSoC5/cyfitter_cfg.c ****     /* `#START CyClockStartupError` */
 112:.\Generated_Source\PSoC5/cyfitter_cfg.c **** 
 113:.\Generated_Source\PSoC5/cyfitter_cfg.c ****     /* If we have a clock startup error (bad MHz crystal, PLL lock, etc.),  */
 114:.\Generated_Source\PSoC5/cyfitter_cfg.c ****     /* we will end up here to allow the customer to implement something to  */
 115:.\Generated_Source\PSoC5/cyfitter_cfg.c ****     /* deal with the clock condition.                                       */
 116:.\Generated_Source\PSoC5/cyfitter_cfg.c **** 
 117:.\Generated_Source\PSoC5/cyfitter_cfg.c ****     /* `#END` */
 118:.\Generated_Source\PSoC5/cyfitter_cfg.c **** 
 119:.\Generated_Source\PSoC5/cyfitter_cfg.c ****     /* If nothing else, stop here since the clocks have not started         */
 120:.\Generated_Source\PSoC5/cyfitter_cfg.c ****     /* correctly.                                                           */
 121:.\Generated_Source\PSoC5/cyfitter_cfg.c ****     while(1) {}
 122:.\Generated_Source\PSoC5/cyfitter_cfg.c **** }
 123:.\Generated_Source\PSoC5/cyfitter_cfg.c **** #endif
 124:.\Generated_Source\PSoC5/cyfitter_cfg.c **** 
 125:.\Generated_Source\PSoC5/cyfitter_cfg.c **** #define CY_CFG_BASE_ADDR_COUNT 40u
 126:.\Generated_Source\PSoC5/cyfitter_cfg.c **** CYPACKED typedef struct
 127:.\Generated_Source\PSoC5/cyfitter_cfg.c **** {
ARM GAS  C:\Users\xavieran\AppData\Local\Temp\ccJfmadl.s 			page 4


 128:.\Generated_Source\PSoC5/cyfitter_cfg.c **** 	uint8 offset;
 129:.\Generated_Source\PSoC5/cyfitter_cfg.c **** 	uint8 value;
 130:.\Generated_Source\PSoC5/cyfitter_cfg.c **** } CYPACKED_ATTR cy_cfg_addrvalue_t;
 131:.\Generated_Source\PSoC5/cyfitter_cfg.c **** 
 132:.\Generated_Source\PSoC5/cyfitter_cfg.c **** 
 133:.\Generated_Source\PSoC5/cyfitter_cfg.c **** 
 134:.\Generated_Source\PSoC5/cyfitter_cfg.c **** /*******************************************************************************
 135:.\Generated_Source\PSoC5/cyfitter_cfg.c **** * Function Name: cfg_write_bytes32
 136:.\Generated_Source\PSoC5/cyfitter_cfg.c **** ********************************************************************************
 137:.\Generated_Source\PSoC5/cyfitter_cfg.c **** * Summary:
 138:.\Generated_Source\PSoC5/cyfitter_cfg.c **** *  This function is used for setting up the chip configuration areas that
 139:.\Generated_Source\PSoC5/cyfitter_cfg.c **** *  contain relatively sparse data.
 140:.\Generated_Source\PSoC5/cyfitter_cfg.c **** *
 141:.\Generated_Source\PSoC5/cyfitter_cfg.c **** * Parameters:
 142:.\Generated_Source\PSoC5/cyfitter_cfg.c **** *   void
 143:.\Generated_Source\PSoC5/cyfitter_cfg.c **** *
 144:.\Generated_Source\PSoC5/cyfitter_cfg.c **** * Return:
 145:.\Generated_Source\PSoC5/cyfitter_cfg.c **** *   void
 146:.\Generated_Source\PSoC5/cyfitter_cfg.c **** *
 147:.\Generated_Source\PSoC5/cyfitter_cfg.c **** *******************************************************************************/
 148:.\Generated_Source\PSoC5/cyfitter_cfg.c **** static void cfg_write_bytes32(const uint32 addr_table[], const cy_cfg_addrvalue_t data_table[]);
 149:.\Generated_Source\PSoC5/cyfitter_cfg.c **** static void cfg_write_bytes32(const uint32 addr_table[], const cy_cfg_addrvalue_t data_table[])
 150:.\Generated_Source\PSoC5/cyfitter_cfg.c **** {
  45              		.loc 1 150 0
  46              		.cfi_startproc
  47              		@ args = 0, pretend = 0, frame = 0
  48              		@ frame_needed = 0, uses_anonymous_args = 0
  49              		@ link register save eliminated.
  50              	.LVL1:
  51              		.loc 1 150 0
  52 0000 F0B4     		push	{r4, r5, r6, r7}
  53              		.cfi_def_cfa_offset 16
  54              		.cfi_offset 4, -16
  55              		.cfi_offset 5, -12
  56              		.cfi_offset 6, -8
  57              		.cfi_offset 7, -4
  58              	.LVL2:
 151:.\Generated_Source\PSoC5/cyfitter_cfg.c **** 	/* For 32-bit little-endian architectures */
 152:.\Generated_Source\PSoC5/cyfitter_cfg.c **** 	uint32 i, j = 0u;
  59              		.loc 1 152 0
  60 0002 0023     		movs	r3, #0
 153:.\Generated_Source\PSoC5/cyfitter_cfg.c **** 	for (i = 0u; i < CY_CFG_BASE_ADDR_COUNT; i++)
  61              		.loc 1 153 0
  62 0004 1F46     		mov	r7, r3
  63 0006 11E0     		b	.L4
  64              	.LVL3:
  65              	.L7:
  66              	.LBB2:
 154:.\Generated_Source\PSoC5/cyfitter_cfg.c **** 	{
 155:.\Generated_Source\PSoC5/cyfitter_cfg.c **** 		uint32 baseAddr = addr_table[i];
  67              		.loc 1 155 0
  68 0008 50F82760 		ldr	r6, [r0, r7, lsl #2]
  69              	.LVL4:
 156:.\Generated_Source\PSoC5/cyfitter_cfg.c **** 		uint8 count = (uint8)baseAddr;
  70              		.loc 1 156 0
  71 000c F2B2     		uxtb	r2, r6
  72              	.LVL5:
ARM GAS  C:\Users\xavieran\AppData\Local\Temp\ccJfmadl.s 			page 5


 157:.\Generated_Source\PSoC5/cyfitter_cfg.c **** 		baseAddr &= 0xFFFFFF00u;
  73              		.loc 1 157 0
  74 000e 26F0FF06 		bic	r6, r6, #255
  75              	.LVL6:
 158:.\Generated_Source\PSoC5/cyfitter_cfg.c **** 		while (count != 0u)
  76              		.loc 1 158 0
  77 0012 08E0     		b	.L5
  78              	.L6:
 159:.\Generated_Source\PSoC5/cyfitter_cfg.c **** 		{
 160:.\Generated_Source\PSoC5/cyfitter_cfg.c **** 			CY_SET_XTND_REG8((void CYFAR *)(baseAddr + data_table[j].offset), data_table[j].value);
  79              		.loc 1 160 0
  80 0014 01EB4305 		add	r5, r1, r3, lsl #1
  81 0018 11F81340 		ldrb	r4, [r1, r3, lsl #1]	@ zero_extendqisi2
  82 001c 6D78     		ldrb	r5, [r5, #1]	@ zero_extendqisi2
  83 001e A555     		strb	r5, [r4, r6]
 161:.\Generated_Source\PSoC5/cyfitter_cfg.c **** 			j++;
  84              		.loc 1 161 0
  85 0020 0133     		adds	r3, r3, #1
  86              	.LVL7:
 162:.\Generated_Source\PSoC5/cyfitter_cfg.c **** 			count--;
  87              		.loc 1 162 0
  88 0022 013A     		subs	r2, r2, #1
  89              	.LVL8:
  90 0024 D2B2     		uxtb	r2, r2
  91              	.LVL9:
  92              	.L5:
 158:.\Generated_Source\PSoC5/cyfitter_cfg.c **** 		while (count != 0u)
  93              		.loc 1 158 0 discriminator 1
  94 0026 002A     		cmp	r2, #0
  95 0028 F4D1     		bne	.L6
  96              	.LBE2:
 153:.\Generated_Source\PSoC5/cyfitter_cfg.c **** 	for (i = 0u; i < CY_CFG_BASE_ADDR_COUNT; i++)
  97              		.loc 1 153 0
  98 002a 0137     		adds	r7, r7, #1
  99              	.LVL10:
 100              	.L4:
 153:.\Generated_Source\PSoC5/cyfitter_cfg.c **** 	for (i = 0u; i < CY_CFG_BASE_ADDR_COUNT; i++)
 101              		.loc 1 153 0 is_stmt 0 discriminator 1
 102 002c 272F     		cmp	r7, #39
 103 002e EBD9     		bls	.L7
 163:.\Generated_Source\PSoC5/cyfitter_cfg.c **** 		}
 164:.\Generated_Source\PSoC5/cyfitter_cfg.c **** 	}
 165:.\Generated_Source\PSoC5/cyfitter_cfg.c **** }
 104              		.loc 1 165 0 is_stmt 1
 105 0030 F0BC     		pop	{r4, r5, r6, r7}
 106              	.LVL11:
 107 0032 7047     		bx	lr
 108              		.cfi_endproc
 109              	.LFE4:
 110              		.size	cfg_write_bytes32, .-cfg_write_bytes32
 111              		.section	.text.AnalogSetDefault,"ax",%progbits
 112              		.align	2
 113              		.thumb
 114              		.thumb_func
 115              		.type	AnalogSetDefault, %function
 116              	AnalogSetDefault:
 117              	.LFB6:
ARM GAS  C:\Users\xavieran\AppData\Local\Temp\ccJfmadl.s 			page 6


 166:.\Generated_Source\PSoC5/cyfitter_cfg.c **** 
 167:.\Generated_Source\PSoC5/cyfitter_cfg.c **** /*******************************************************************************
 168:.\Generated_Source\PSoC5/cyfitter_cfg.c **** * Function Name: ClockSetup
 169:.\Generated_Source\PSoC5/cyfitter_cfg.c **** ********************************************************************************
 170:.\Generated_Source\PSoC5/cyfitter_cfg.c **** *
 171:.\Generated_Source\PSoC5/cyfitter_cfg.c **** * Summary:
 172:.\Generated_Source\PSoC5/cyfitter_cfg.c **** *  Performs the initialization of all of the clocks in the device based on the
 173:.\Generated_Source\PSoC5/cyfitter_cfg.c **** *  settings in the Clock tab of the DWR.  This includes enabling the requested
 174:.\Generated_Source\PSoC5/cyfitter_cfg.c **** *  clocks and setting the necessary dividers to produce the desired frequency. 
 175:.\Generated_Source\PSoC5/cyfitter_cfg.c **** *
 176:.\Generated_Source\PSoC5/cyfitter_cfg.c **** * Parameters:
 177:.\Generated_Source\PSoC5/cyfitter_cfg.c **** *  void
 178:.\Generated_Source\PSoC5/cyfitter_cfg.c **** *
 179:.\Generated_Source\PSoC5/cyfitter_cfg.c **** * Return:
 180:.\Generated_Source\PSoC5/cyfitter_cfg.c **** *  void
 181:.\Generated_Source\PSoC5/cyfitter_cfg.c **** *
 182:.\Generated_Source\PSoC5/cyfitter_cfg.c **** *******************************************************************************/
 183:.\Generated_Source\PSoC5/cyfitter_cfg.c **** static void ClockSetup(void);
 184:.\Generated_Source\PSoC5/cyfitter_cfg.c **** static void ClockSetup(void)
 185:.\Generated_Source\PSoC5/cyfitter_cfg.c **** {
 186:.\Generated_Source\PSoC5/cyfitter_cfg.c **** 	uint32 timeout;
 187:.\Generated_Source\PSoC5/cyfitter_cfg.c **** 	uint8 pllLock;
 188:.\Generated_Source\PSoC5/cyfitter_cfg.c **** 
 189:.\Generated_Source\PSoC5/cyfitter_cfg.c **** 
 190:.\Generated_Source\PSoC5/cyfitter_cfg.c **** 	/* Configure Digital Clocks based on settings from Clock DWR */
 191:.\Generated_Source\PSoC5/cyfitter_cfg.c **** 	CY_SET_XTND_REG16((void CYFAR *)(CYREG_CLKDIST_DCFG0_CFG0), 0x0000u);
 192:.\Generated_Source\PSoC5/cyfitter_cfg.c **** 	CY_SET_XTND_REG8((void CYFAR *)(CYREG_CLKDIST_DCFG0_CFG0 + 0x2u), 0x58u);
 193:.\Generated_Source\PSoC5/cyfitter_cfg.c **** 	CY_SET_XTND_REG16((void CYFAR *)(CYREG_CLKDIST_DCFG1_CFG0), 0x0001u);
 194:.\Generated_Source\PSoC5/cyfitter_cfg.c **** 	CY_SET_XTND_REG8((void CYFAR *)(CYREG_CLKDIST_DCFG1_CFG0 + 0x2u), 0x18u);
 195:.\Generated_Source\PSoC5/cyfitter_cfg.c **** 	CY_SET_XTND_REG16((void CYFAR *)(CYREG_CLKDIST_DCFG2_CFG0), 0x0003u);
 196:.\Generated_Source\PSoC5/cyfitter_cfg.c **** 	CY_SET_XTND_REG8((void CYFAR *)(CYREG_CLKDIST_DCFG2_CFG0 + 0x2u), 0x18u);
 197:.\Generated_Source\PSoC5/cyfitter_cfg.c **** 	CY_SET_XTND_REG16((void CYFAR *)(CYREG_CLKDIST_DCFG3_CFG0), 0x0017u);
 198:.\Generated_Source\PSoC5/cyfitter_cfg.c **** 	CY_SET_XTND_REG8((void CYFAR *)(CYREG_CLKDIST_DCFG3_CFG0 + 0x2u), 0x18u);
 199:.\Generated_Source\PSoC5/cyfitter_cfg.c **** 	CY_SET_XTND_REG16((void CYFAR *)(CYREG_CLKDIST_DCFG4_CFG0), 0x0257u);
 200:.\Generated_Source\PSoC5/cyfitter_cfg.c **** 	CY_SET_XTND_REG8((void CYFAR *)(CYREG_CLKDIST_DCFG4_CFG0 + 0x2u), 0x18u);
 201:.\Generated_Source\PSoC5/cyfitter_cfg.c **** 	CY_SET_XTND_REG16((void CYFAR *)(CYREG_CLKDIST_DCFG5_CFG0), 0x095Fu);
 202:.\Generated_Source\PSoC5/cyfitter_cfg.c **** 	CY_SET_XTND_REG8((void CYFAR *)(CYREG_CLKDIST_DCFG5_CFG0 + 0x2u), 0x18u);
 203:.\Generated_Source\PSoC5/cyfitter_cfg.c **** 
 204:.\Generated_Source\PSoC5/cyfitter_cfg.c **** 	/* Configure ILO based on settings from Clock DWR */
 205:.\Generated_Source\PSoC5/cyfitter_cfg.c **** 	CY_SET_XTND_REG8((void CYFAR *)(CYREG_SLOWCLK_ILO_CR0), 0x06u);
 206:.\Generated_Source\PSoC5/cyfitter_cfg.c **** 
 207:.\Generated_Source\PSoC5/cyfitter_cfg.c **** 	/* Configure IMO based on settings from Clock DWR */
 208:.\Generated_Source\PSoC5/cyfitter_cfg.c **** 	CY_SET_XTND_REG8((void CYFAR *)(CYREG_FASTCLK_IMO_CR), 0x52u);
 209:.\Generated_Source\PSoC5/cyfitter_cfg.c **** 	CY_SET_XTND_REG8((void CYFAR *)(CYREG_IMO_TR1), (CY_GET_XTND_REG8((void CYFAR *)CYREG_FLSHID_CUST_
 210:.\Generated_Source\PSoC5/cyfitter_cfg.c **** 
 211:.\Generated_Source\PSoC5/cyfitter_cfg.c **** 	/* Configure PLL based on settings from Clock DWR */
 212:.\Generated_Source\PSoC5/cyfitter_cfg.c **** 	CY_SET_XTND_REG16((void CYFAR *)(CYREG_FASTCLK_PLL_P), 0x0708u);
 213:.\Generated_Source\PSoC5/cyfitter_cfg.c **** 	CY_SET_XTND_REG16((void CYFAR *)(CYREG_FASTCLK_PLL_CFG0), 0x1251u);
 214:.\Generated_Source\PSoC5/cyfitter_cfg.c **** 	/* Wait up to 250us for the PLL to lock */
 215:.\Generated_Source\PSoC5/cyfitter_cfg.c **** 	pllLock = 0u;
 216:.\Generated_Source\PSoC5/cyfitter_cfg.c **** 	for (timeout = 250u / 10u; (timeout > 0u) && (pllLock != 0x03u); timeout--)
 217:.\Generated_Source\PSoC5/cyfitter_cfg.c **** 	{ 
 218:.\Generated_Source\PSoC5/cyfitter_cfg.c **** 		pllLock = 0x03u & ((uint8)((uint8)pllLock << 1) | ((CY_GET_XTND_REG8((void CYFAR *)CYREG_FASTCLK_
 219:.\Generated_Source\PSoC5/cyfitter_cfg.c **** 		CyDelayCycles(10u * 48u); /* Delay 10us based on 48MHz clock */
 220:.\Generated_Source\PSoC5/cyfitter_cfg.c **** 	}
 221:.\Generated_Source\PSoC5/cyfitter_cfg.c **** 	/* If we ran out of time the PLL didn't lock so go to the error function */
 222:.\Generated_Source\PSoC5/cyfitter_cfg.c **** 	if (timeout == 0u)
ARM GAS  C:\Users\xavieran\AppData\Local\Temp\ccJfmadl.s 			page 7


 223:.\Generated_Source\PSoC5/cyfitter_cfg.c **** 	{
 224:.\Generated_Source\PSoC5/cyfitter_cfg.c **** 		CyClockStartupError(CYCLOCKSTART_PLL_ERROR);
 225:.\Generated_Source\PSoC5/cyfitter_cfg.c **** 	}
 226:.\Generated_Source\PSoC5/cyfitter_cfg.c **** 
 227:.\Generated_Source\PSoC5/cyfitter_cfg.c **** 	/* Configure Bus/Master Clock based on settings from Clock DWR */
 228:.\Generated_Source\PSoC5/cyfitter_cfg.c **** 	CY_SET_XTND_REG16((void CYFAR *)(CYREG_CLKDIST_MSTR0), 0x0100u);
 229:.\Generated_Source\PSoC5/cyfitter_cfg.c **** 	CY_SET_XTND_REG8((void CYFAR *)(CYREG_CLKDIST_MSTR0), 0x07u);
 230:.\Generated_Source\PSoC5/cyfitter_cfg.c **** 	CY_SET_XTND_REG8((void CYFAR *)(CYREG_CLKDIST_BCFG0), 0x00u);
 231:.\Generated_Source\PSoC5/cyfitter_cfg.c **** 	CY_SET_XTND_REG8((void CYFAR *)(CYREG_CLKDIST_BCFG2), 0x48u);
 232:.\Generated_Source\PSoC5/cyfitter_cfg.c **** 	CY_SET_XTND_REG8((void CYFAR *)(CYREG_CLKDIST_MSTR0), 0x00u);
 233:.\Generated_Source\PSoC5/cyfitter_cfg.c **** 
 234:.\Generated_Source\PSoC5/cyfitter_cfg.c **** 	/* Configure USB Clock based on settings from Clock DWR */
 235:.\Generated_Source\PSoC5/cyfitter_cfg.c **** 	CY_SET_XTND_REG8((void CYFAR *)(CYREG_CLKDIST_UCFG), 0x00u);
 236:.\Generated_Source\PSoC5/cyfitter_cfg.c **** 	CY_SET_XTND_REG8((void CYFAR *)(CYREG_CLKDIST_LD), 0x02u);
 237:.\Generated_Source\PSoC5/cyfitter_cfg.c **** 
 238:.\Generated_Source\PSoC5/cyfitter_cfg.c **** 	CY_SET_XTND_REG8((void CYFAR *)(CYREG_PM_ACT_CFG2), ((CY_GET_XTND_REG8((void CYFAR *)CYREG_PM_ACT_
 239:.\Generated_Source\PSoC5/cyfitter_cfg.c **** }
 240:.\Generated_Source\PSoC5/cyfitter_cfg.c **** 
 241:.\Generated_Source\PSoC5/cyfitter_cfg.c **** 
 242:.\Generated_Source\PSoC5/cyfitter_cfg.c **** /* Analog API Functions */
 243:.\Generated_Source\PSoC5/cyfitter_cfg.c **** 
 244:.\Generated_Source\PSoC5/cyfitter_cfg.c **** 
 245:.\Generated_Source\PSoC5/cyfitter_cfg.c **** /*******************************************************************************
 246:.\Generated_Source\PSoC5/cyfitter_cfg.c **** * Function Name: AnalogSetDefault
 247:.\Generated_Source\PSoC5/cyfitter_cfg.c **** ********************************************************************************
 248:.\Generated_Source\PSoC5/cyfitter_cfg.c **** *
 249:.\Generated_Source\PSoC5/cyfitter_cfg.c **** * Summary:
 250:.\Generated_Source\PSoC5/cyfitter_cfg.c **** *  Sets up the analog portions of the chip to default values based on chip
 251:.\Generated_Source\PSoC5/cyfitter_cfg.c **** *  configuration options from the project.
 252:.\Generated_Source\PSoC5/cyfitter_cfg.c **** *
 253:.\Generated_Source\PSoC5/cyfitter_cfg.c **** * Parameters:
 254:.\Generated_Source\PSoC5/cyfitter_cfg.c **** *  void
 255:.\Generated_Source\PSoC5/cyfitter_cfg.c **** *
 256:.\Generated_Source\PSoC5/cyfitter_cfg.c **** * Return:
 257:.\Generated_Source\PSoC5/cyfitter_cfg.c **** *  void
 258:.\Generated_Source\PSoC5/cyfitter_cfg.c **** *
 259:.\Generated_Source\PSoC5/cyfitter_cfg.c **** *******************************************************************************/
 260:.\Generated_Source\PSoC5/cyfitter_cfg.c **** static void AnalogSetDefault(void);
 261:.\Generated_Source\PSoC5/cyfitter_cfg.c **** static void AnalogSetDefault(void)
 262:.\Generated_Source\PSoC5/cyfitter_cfg.c **** {
 118              		.loc 1 262 0
 119              		.cfi_startproc
 120              		@ args = 0, pretend = 0, frame = 0
 121              		@ frame_needed = 0, uses_anonymous_args = 0
 122              		@ link register save eliminated.
 263:.\Generated_Source\PSoC5/cyfitter_cfg.c **** 	uint8 bg_xover_inl_trim = CY_GET_XTND_REG8((void CYFAR *)(CYREG_FLSHID_MFG_CFG_BG_XOVER_INL_TRIM +
 123              		.loc 1 263 0
 124 0000 064B     		ldr	r3, .L9
 125 0002 1B78     		ldrb	r3, [r3]	@ zero_extendqisi2
 126 0004 DBB2     		uxtb	r3, r3
 127              	.LVL12:
 264:.\Generated_Source\PSoC5/cyfitter_cfg.c **** 	CY_SET_XTND_REG8((void CYFAR *)(CYREG_BG_DFT0), (bg_xover_inl_trim & 0x07u));
 128              		.loc 1 264 0
 129 0006 03F00701 		and	r1, r3, #7
 130 000a 054A     		ldr	r2, .L9+4
 131 000c 1170     		strb	r1, [r2]
 265:.\Generated_Source\PSoC5/cyfitter_cfg.c **** 	CY_SET_XTND_REG8((void CYFAR *)(CYREG_BG_DFT1), ((bg_xover_inl_trim >> 4) & 0x0Fu));
ARM GAS  C:\Users\xavieran\AppData\Local\Temp\ccJfmadl.s 			page 8


 132              		.loc 1 265 0
 133 000e 1B09     		lsrs	r3, r3, #4
 134              	.LVL13:
 135 0010 0132     		adds	r2, r2, #1
 136 0012 1370     		strb	r3, [r2]
 266:.\Generated_Source\PSoC5/cyfitter_cfg.c **** 	CY_SET_XTND_REG8((void CYFAR *)CYREG_PUMP_CR0, 0x44u);
 137              		.loc 1 266 0
 138 0014 4422     		movs	r2, #68
 139 0016 034B     		ldr	r3, .L9+8
 140 0018 1A70     		strb	r2, [r3]
 141 001a 7047     		bx	lr
 142              	.L10:
 143              		.align	2
 144              	.L9:
 145 001c CF010049 		.word	1224737231
 146 0020 6E580040 		.word	1073764462
 147 0024 76580040 		.word	1073764470
 148              		.cfi_endproc
 149              	.LFE6:
 150              		.size	AnalogSetDefault, .-AnalogSetDefault
 151              		.section	.text.CYMEMZERO,"ax",%progbits
 152              		.align	2
 153              		.thumb
 154              		.thumb_func
 155              		.type	CYMEMZERO, %function
 156              	CYMEMZERO:
 157              	.LFB0:
  61:.\Generated_Source\PSoC5/cyfitter_cfg.c **** {
 158              		.loc 1 61 0
 159              		.cfi_startproc
 160              		@ args = 0, pretend = 0, frame = 0
 161              		@ frame_needed = 0, uses_anonymous_args = 0
 162              	.LVL14:
 163 0000 08B5     		push	{r3, lr}
 164              		.cfi_def_cfa_offset 8
 165              		.cfi_offset 3, -8
 166              		.cfi_offset 14, -4
 167 0002 0A46     		mov	r2, r1
  62:.\Generated_Source\PSoC5/cyfitter_cfg.c **** 	(void)memset(s, 0, n);
 168              		.loc 1 62 0
 169 0004 0021     		movs	r1, #0
 170              	.LVL15:
 171 0006 FFF7FEFF 		bl	memset
 172              	.LVL16:
 173 000a 08BD     		pop	{r3, pc}
 174              		.cfi_endproc
 175              	.LFE0:
 176              		.size	CYMEMZERO, .-CYMEMZERO
 177              		.section	.text.CYCONFIGCPYCODE,"ax",%progbits
 178              		.align	2
 179              		.thumb
 180              		.thumb_func
 181              		.type	CYCONFIGCPYCODE, %function
 182              	CYCONFIGCPYCODE:
 183              	.LFB2:
  75:.\Generated_Source\PSoC5/cyfitter_cfg.c **** {
 184              		.loc 1 75 0
ARM GAS  C:\Users\xavieran\AppData\Local\Temp\ccJfmadl.s 			page 9


 185              		.cfi_startproc
 186              		@ args = 0, pretend = 0, frame = 0
 187              		@ frame_needed = 0, uses_anonymous_args = 0
 188              	.LVL17:
 189 0000 08B5     		push	{r3, lr}
 190              		.cfi_def_cfa_offset 8
 191              		.cfi_offset 3, -8
 192              		.cfi_offset 14, -4
  76:.\Generated_Source\PSoC5/cyfitter_cfg.c **** 	(void)memcpy(dest, src, n);
 193              		.loc 1 76 0
 194 0002 FFF7FEFF 		bl	memcpy
 195              	.LVL18:
 196 0006 08BD     		pop	{r3, pc}
 197              		.cfi_endproc
 198              	.LFE2:
 199              		.size	CYCONFIGCPYCODE, .-CYCONFIGCPYCODE
 200              		.section	.text.CYCONFIGCPY,"ax",%progbits
 201              		.align	2
 202              		.thumb
 203              		.thumb_func
 204              		.type	CYCONFIGCPY, %function
 205              	CYCONFIGCPY:
 206              	.LFB1:
  68:.\Generated_Source\PSoC5/cyfitter_cfg.c **** {
 207              		.loc 1 68 0
 208              		.cfi_startproc
 209              		@ args = 0, pretend = 0, frame = 0
 210              		@ frame_needed = 0, uses_anonymous_args = 0
 211              	.LVL19:
 212 0000 08B5     		push	{r3, lr}
 213              		.cfi_def_cfa_offset 8
 214              		.cfi_offset 3, -8
 215              		.cfi_offset 14, -4
  69:.\Generated_Source\PSoC5/cyfitter_cfg.c **** 	(void)memcpy(dest, src, n);
 216              		.loc 1 69 0
 217 0002 FFF7FEFF 		bl	memcpy
 218              	.LVL20:
 219 0006 08BD     		pop	{r3, pc}
 220              		.cfi_endproc
 221              	.LFE1:
 222              		.size	CYCONFIGCPY, .-CYCONFIGCPY
 223              		.section	.text.ClockSetup,"ax",%progbits
 224              		.align	2
 225              		.thumb
 226              		.thumb_func
 227              		.type	ClockSetup, %function
 228              	ClockSetup:
 229              	.LFB5:
 185:.\Generated_Source\PSoC5/cyfitter_cfg.c **** {
 230              		.loc 1 185 0
 231              		.cfi_startproc
 232              		@ args = 0, pretend = 0, frame = 0
 233              		@ frame_needed = 0, uses_anonymous_args = 0
 234 0000 F8B5     		push	{r3, r4, r5, r6, r7, lr}
 235              		.cfi_def_cfa_offset 24
 236              		.cfi_offset 3, -24
 237              		.cfi_offset 4, -20
ARM GAS  C:\Users\xavieran\AppData\Local\Temp\ccJfmadl.s 			page 10


 238              		.cfi_offset 5, -16
 239              		.cfi_offset 6, -12
 240              		.cfi_offset 7, -8
 241              		.cfi_offset 14, -4
 191:.\Generated_Source\PSoC5/cyfitter_cfg.c **** 	CY_SET_XTND_REG16((void CYFAR *)(CYREG_CLKDIST_DCFG0_CFG0), 0x0000u);
 242              		.loc 1 191 0
 243 0002 0025     		movs	r5, #0
 244 0004 324B     		ldr	r3, .L19
 245 0006 1D80     		strh	r5, [r3]	@ movhi
 192:.\Generated_Source\PSoC5/cyfitter_cfg.c **** 	CY_SET_XTND_REG8((void CYFAR *)(CYREG_CLKDIST_DCFG0_CFG0 + 0x2u), 0x58u);
 246              		.loc 1 192 0
 247 0008 5822     		movs	r2, #88
 248 000a 0233     		adds	r3, r3, #2
 249 000c 1A70     		strb	r2, [r3]
 193:.\Generated_Source\PSoC5/cyfitter_cfg.c **** 	CY_SET_XTND_REG16((void CYFAR *)(CYREG_CLKDIST_DCFG1_CFG0), 0x0001u);
 250              		.loc 1 193 0
 251 000e 0122     		movs	r2, #1
 252 0010 0233     		adds	r3, r3, #2
 253 0012 1A80     		strh	r2, [r3]	@ movhi
 194:.\Generated_Source\PSoC5/cyfitter_cfg.c **** 	CY_SET_XTND_REG8((void CYFAR *)(CYREG_CLKDIST_DCFG1_CFG0 + 0x2u), 0x18u);
 254              		.loc 1 194 0
 255 0014 1823     		movs	r3, #24
 256 0016 2F4A     		ldr	r2, .L19+4
 257 0018 1370     		strb	r3, [r2]
 195:.\Generated_Source\PSoC5/cyfitter_cfg.c **** 	CY_SET_XTND_REG16((void CYFAR *)(CYREG_CLKDIST_DCFG2_CFG0), 0x0003u);
 258              		.loc 1 195 0
 259 001a 0321     		movs	r1, #3
 260 001c 0232     		adds	r2, r2, #2
 261 001e 1180     		strh	r1, [r2]	@ movhi
 196:.\Generated_Source\PSoC5/cyfitter_cfg.c **** 	CY_SET_XTND_REG8((void CYFAR *)(CYREG_CLKDIST_DCFG2_CFG0 + 0x2u), 0x18u);
 262              		.loc 1 196 0
 263 0020 0232     		adds	r2, r2, #2
 264 0022 1370     		strb	r3, [r2]
 197:.\Generated_Source\PSoC5/cyfitter_cfg.c **** 	CY_SET_XTND_REG16((void CYFAR *)(CYREG_CLKDIST_DCFG3_CFG0), 0x0017u);
 265              		.loc 1 197 0
 266 0024 1721     		movs	r1, #23
 267 0026 0232     		adds	r2, r2, #2
 268 0028 1180     		strh	r1, [r2]	@ movhi
 198:.\Generated_Source\PSoC5/cyfitter_cfg.c **** 	CY_SET_XTND_REG8((void CYFAR *)(CYREG_CLKDIST_DCFG3_CFG0 + 0x2u), 0x18u);
 269              		.loc 1 198 0
 270 002a 0232     		adds	r2, r2, #2
 271 002c 1370     		strb	r3, [r2]
 199:.\Generated_Source\PSoC5/cyfitter_cfg.c **** 	CY_SET_XTND_REG16((void CYFAR *)(CYREG_CLKDIST_DCFG4_CFG0), 0x0257u);
 272              		.loc 1 199 0
 273 002e 40F25721 		movw	r1, #599
 274 0032 0232     		adds	r2, r2, #2
 275 0034 1180     		strh	r1, [r2]	@ movhi
 200:.\Generated_Source\PSoC5/cyfitter_cfg.c **** 	CY_SET_XTND_REG8((void CYFAR *)(CYREG_CLKDIST_DCFG4_CFG0 + 0x2u), 0x18u);
 276              		.loc 1 200 0
 277 0036 0232     		adds	r2, r2, #2
 278 0038 1370     		strb	r3, [r2]
 201:.\Generated_Source\PSoC5/cyfitter_cfg.c **** 	CY_SET_XTND_REG16((void CYFAR *)(CYREG_CLKDIST_DCFG5_CFG0), 0x095Fu);
 279              		.loc 1 201 0
 280 003a 40F65F11 		movw	r1, #2399
 281 003e 0232     		adds	r2, r2, #2
 282 0040 1180     		strh	r1, [r2]	@ movhi
 202:.\Generated_Source\PSoC5/cyfitter_cfg.c **** 	CY_SET_XTND_REG8((void CYFAR *)(CYREG_CLKDIST_DCFG5_CFG0 + 0x2u), 0x18u);
ARM GAS  C:\Users\xavieran\AppData\Local\Temp\ccJfmadl.s 			page 11


 283              		.loc 1 202 0
 284 0042 0232     		adds	r2, r2, #2
 285 0044 1370     		strb	r3, [r2]
 205:.\Generated_Source\PSoC5/cyfitter_cfg.c **** 	CY_SET_XTND_REG8((void CYFAR *)(CYREG_SLOWCLK_ILO_CR0), 0x06u);
 286              		.loc 1 205 0
 287 0046 0622     		movs	r2, #6
 288 0048 234B     		ldr	r3, .L19+8
 289 004a 1A70     		strb	r2, [r3]
 208:.\Generated_Source\PSoC5/cyfitter_cfg.c **** 	CY_SET_XTND_REG8((void CYFAR *)(CYREG_FASTCLK_IMO_CR), 0x52u);
 290              		.loc 1 208 0
 291 004c 5222     		movs	r2, #82
 292 004e A3F58073 		sub	r3, r3, #256
 293 0052 1A70     		strb	r2, [r3]
 209:.\Generated_Source\PSoC5/cyfitter_cfg.c **** 	CY_SET_XTND_REG8((void CYFAR *)(CYREG_IMO_TR1), (CY_GET_XTND_REG8((void CYFAR *)CYREG_FLSHID_CUST_
 294              		.loc 1 209 0
 295 0054 214B     		ldr	r3, .L19+12
 296 0056 1A78     		ldrb	r2, [r3]	@ zero_extendqisi2
 297 0058 D2B2     		uxtb	r2, r2
 298 005a 214B     		ldr	r3, .L19+16
 299 005c 1A70     		strb	r2, [r3]
 212:.\Generated_Source\PSoC5/cyfitter_cfg.c **** 	CY_SET_XTND_REG16((void CYFAR *)(CYREG_FASTCLK_PLL_P), 0x0708u);
 300              		.loc 1 212 0
 301 005e 4FF4E162 		mov	r2, #1800
 302 0062 A3F27F43 		subw	r3, r3, #1151
 303 0066 1A80     		strh	r2, [r3]	@ movhi
 213:.\Generated_Source\PSoC5/cyfitter_cfg.c **** 	CY_SET_XTND_REG16((void CYFAR *)(CYREG_FASTCLK_PLL_CFG0), 0x1251u);
 304              		.loc 1 213 0
 305 0068 41F25122 		movw	r2, #4689
 306 006c 023B     		subs	r3, r3, #2
 307 006e 1A80     		strh	r2, [r3]	@ movhi
 308              	.LVL21:
 216:.\Generated_Source\PSoC5/cyfitter_cfg.c **** 	for (timeout = 250u / 10u; (timeout > 0u) && (pllLock != 0x03u); timeout--)
 309              		.loc 1 216 0
 310 0070 1924     		movs	r4, #25
 218:.\Generated_Source\PSoC5/cyfitter_cfg.c **** 		pllLock = 0x03u & ((uint8)((uint8)pllLock << 1) | ((CY_GET_XTND_REG8((void CYFAR *)CYREG_FASTCLK_
 311              		.loc 1 218 0
 312 0072 1C4F     		ldr	r7, .L19+20
 219:.\Generated_Source\PSoC5/cyfitter_cfg.c **** 		CyDelayCycles(10u * 48u); /* Delay 10us based on 48MHz clock */
 313              		.loc 1 219 0
 314 0074 4FF4F076 		mov	r6, #480
 216:.\Generated_Source\PSoC5/cyfitter_cfg.c **** 	for (timeout = 250u / 10u; (timeout > 0u) && (pllLock != 0x03u); timeout--)
 315              		.loc 1 216 0
 316 0078 0AE0     		b	.L15
 317              	.LVL22:
 318              	.L17:
 218:.\Generated_Source\PSoC5/cyfitter_cfg.c **** 		pllLock = 0x03u & ((uint8)((uint8)pllLock << 1) | ((CY_GET_XTND_REG8((void CYFAR *)CYREG_FASTCLK_
 319              		.loc 1 218 0 discriminator 1
 320 007a 3B78     		ldrb	r3, [r7]	@ zero_extendqisi2
 321 007c 03F00103 		and	r3, r3, #1
 322 0080 43EA4505 		orr	r5, r3, r5, lsl #1
 323              	.LVL23:
 324 0084 05F00305 		and	r5, r5, #3
 325              	.LVL24:
 219:.\Generated_Source\PSoC5/cyfitter_cfg.c **** 		CyDelayCycles(10u * 48u); /* Delay 10us based on 48MHz clock */
 326              		.loc 1 219 0 discriminator 1
 327 0088 3046     		mov	r0, r6
 328 008a FFF7FEFF 		bl	CyDelayCycles
ARM GAS  C:\Users\xavieran\AppData\Local\Temp\ccJfmadl.s 			page 12


 329              	.LVL25:
 216:.\Generated_Source\PSoC5/cyfitter_cfg.c **** 	for (timeout = 250u / 10u; (timeout > 0u) && (pllLock != 0x03u); timeout--)
 330              		.loc 1 216 0 discriminator 1
 331 008e 013C     		subs	r4, r4, #1
 332              	.LVL26:
 333              	.L15:
 334 0090 0CB1     		cbz	r4, .L16
 216:.\Generated_Source\PSoC5/cyfitter_cfg.c **** 	for (timeout = 250u / 10u; (timeout > 0u) && (pllLock != 0x03u); timeout--)
 335              		.loc 1 216 0 is_stmt 0 discriminator 2
 336 0092 032D     		cmp	r5, #3
 337 0094 F1D1     		bne	.L17
 338              	.L16:
 222:.\Generated_Source\PSoC5/cyfitter_cfg.c **** 	if (timeout == 0u)
 339              		.loc 1 222 0 is_stmt 1
 340 0096 14B9     		cbnz	r4, .L18
 224:.\Generated_Source\PSoC5/cyfitter_cfg.c **** 		CyClockStartupError(CYCLOCKSTART_PLL_ERROR);
 341              		.loc 1 224 0
 342 0098 0320     		movs	r0, #3
 343 009a FFF7FEFF 		bl	CyClockStartupError
 344              	.LVL27:
 345              	.L18:
 228:.\Generated_Source\PSoC5/cyfitter_cfg.c **** 	CY_SET_XTND_REG16((void CYFAR *)(CYREG_CLKDIST_MSTR0), 0x0100u);
 346              		.loc 1 228 0
 347 009e 124A     		ldr	r2, .L19+24
 348 00a0 4FF48073 		mov	r3, #256
 349 00a4 1380     		strh	r3, [r2]	@ movhi
 229:.\Generated_Source\PSoC5/cyfitter_cfg.c **** 	CY_SET_XTND_REG8((void CYFAR *)(CYREG_CLKDIST_MSTR0), 0x07u);
 350              		.loc 1 229 0
 351 00a6 0723     		movs	r3, #7
 352 00a8 1370     		strb	r3, [r2]
 230:.\Generated_Source\PSoC5/cyfitter_cfg.c **** 	CY_SET_XTND_REG8((void CYFAR *)(CYREG_CLKDIST_BCFG0), 0x00u);
 353              		.loc 1 230 0
 354 00aa 0023     		movs	r3, #0
 355 00ac 0F49     		ldr	r1, .L19+28
 356 00ae 0B70     		strb	r3, [r1]
 231:.\Generated_Source\PSoC5/cyfitter_cfg.c **** 	CY_SET_XTND_REG8((void CYFAR *)(CYREG_CLKDIST_BCFG2), 0x48u);
 357              		.loc 1 231 0
 358 00b0 4820     		movs	r0, #72
 359 00b2 0231     		adds	r1, r1, #2
 360 00b4 0870     		strb	r0, [r1]
 232:.\Generated_Source\PSoC5/cyfitter_cfg.c **** 	CY_SET_XTND_REG8((void CYFAR *)(CYREG_CLKDIST_MSTR0), 0x00u);
 361              		.loc 1 232 0
 362 00b6 1370     		strb	r3, [r2]
 235:.\Generated_Source\PSoC5/cyfitter_cfg.c **** 	CY_SET_XTND_REG8((void CYFAR *)(CYREG_CLKDIST_UCFG), 0x00u);
 363              		.loc 1 235 0
 364 00b8 0532     		adds	r2, r2, #5
 365 00ba 1370     		strb	r3, [r2]
 236:.\Generated_Source\PSoC5/cyfitter_cfg.c **** 	CY_SET_XTND_REG8((void CYFAR *)(CYREG_CLKDIST_LD), 0x02u);
 366              		.loc 1 236 0
 367 00bc 0222     		movs	r2, #2
 368 00be 0C4B     		ldr	r3, .L19+32
 369 00c0 1A70     		strb	r2, [r3]
 238:.\Generated_Source\PSoC5/cyfitter_cfg.c **** 	CY_SET_XTND_REG8((void CYFAR *)(CYREG_PM_ACT_CFG2), ((CY_GET_XTND_REG8((void CYFAR *)CYREG_PM_ACT_
 370              		.loc 1 238 0
 371 00c2 03F2A133 		addw	r3, r3, #929
 372 00c6 1A78     		ldrb	r2, [r3]	@ zero_extendqisi2
 373 00c8 42F03F02 		orr	r2, r2, #63
ARM GAS  C:\Users\xavieran\AppData\Local\Temp\ccJfmadl.s 			page 13


 374 00cc 1A70     		strb	r2, [r3]
 375 00ce F8BD     		pop	{r3, r4, r5, r6, r7, pc}
 376              	.LVL28:
 377              	.L20:
 378              		.align	2
 379              	.L19:
 380 00d0 80400040 		.word	1073758336
 381 00d4 86400040 		.word	1073758342
 382 00d8 00430040 		.word	1073758976
 383 00dc 0F010049 		.word	1224737039
 384 00e0 A1460040 		.word	1073759905
 385 00e4 25420040 		.word	1073758757
 386 00e8 04400040 		.word	1073758212
 387 00ec 06400040 		.word	1073758214
 388 00f0 01400040 		.word	1073758209
 389              		.cfi_endproc
 390              	.LFE5:
 391              		.size	ClockSetup, .-ClockSetup
 392              		.section	.text.SetAnalogRoutingPumps,"ax",%progbits
 393              		.align	2
 394              		.global	SetAnalogRoutingPumps
 395              		.thumb
 396              		.thumb_func
 397              		.type	SetAnalogRoutingPumps, %function
 398              	SetAnalogRoutingPumps:
 399              	.LFB7:
 267:.\Generated_Source\PSoC5/cyfitter_cfg.c **** }
 268:.\Generated_Source\PSoC5/cyfitter_cfg.c **** 
 269:.\Generated_Source\PSoC5/cyfitter_cfg.c **** 
 270:.\Generated_Source\PSoC5/cyfitter_cfg.c **** /*******************************************************************************
 271:.\Generated_Source\PSoC5/cyfitter_cfg.c **** * Function Name: SetAnalogRoutingPumps
 272:.\Generated_Source\PSoC5/cyfitter_cfg.c **** ********************************************************************************
 273:.\Generated_Source\PSoC5/cyfitter_cfg.c **** *
 274:.\Generated_Source\PSoC5/cyfitter_cfg.c **** * Summary:
 275:.\Generated_Source\PSoC5/cyfitter_cfg.c **** * Enables or disables the analog pumps feeding analog routing switches.
 276:.\Generated_Source\PSoC5/cyfitter_cfg.c **** * Intended to be called at startup, based on the Vdda system configuration;
 277:.\Generated_Source\PSoC5/cyfitter_cfg.c **** * may be called during operation when the user informs us that the Vdda voltage
 278:.\Generated_Source\PSoC5/cyfitter_cfg.c **** * crossed the pump threshold.
 279:.\Generated_Source\PSoC5/cyfitter_cfg.c **** *
 280:.\Generated_Source\PSoC5/cyfitter_cfg.c **** * Parameters:
 281:.\Generated_Source\PSoC5/cyfitter_cfg.c **** *  enabled - 1 to enable the pumps, 0 to disable the pumps
 282:.\Generated_Source\PSoC5/cyfitter_cfg.c **** *
 283:.\Generated_Source\PSoC5/cyfitter_cfg.c **** * Return:
 284:.\Generated_Source\PSoC5/cyfitter_cfg.c **** *  void
 285:.\Generated_Source\PSoC5/cyfitter_cfg.c **** *
 286:.\Generated_Source\PSoC5/cyfitter_cfg.c **** *******************************************************************************/
 287:.\Generated_Source\PSoC5/cyfitter_cfg.c **** void SetAnalogRoutingPumps(uint8 enabled)
 288:.\Generated_Source\PSoC5/cyfitter_cfg.c **** {
 400              		.loc 1 288 0
 401              		.cfi_startproc
 402              		@ args = 0, pretend = 0, frame = 0
 403              		@ frame_needed = 0, uses_anonymous_args = 0
 404              		@ link register save eliminated.
 405              	.LVL29:
 289:.\Generated_Source\PSoC5/cyfitter_cfg.c **** 	uint8 regValue = CY_GET_XTND_REG8((void CYFAR *)CYREG_PUMP_CR0);
 406              		.loc 1 289 0
 407 0000 024B     		ldr	r3, .L22
ARM GAS  C:\Users\xavieran\AppData\Local\Temp\ccJfmadl.s 			page 14


 408 0002 1A78     		ldrb	r2, [r3]	@ zero_extendqisi2
 409 0004 D2B2     		uxtb	r2, r2
 410              	.LVL30:
 290:.\Generated_Source\PSoC5/cyfitter_cfg.c **** 	if (enabled != 0u)
 291:.\Generated_Source\PSoC5/cyfitter_cfg.c **** 	{
 292:.\Generated_Source\PSoC5/cyfitter_cfg.c **** 		regValue |= 0x00u;
 293:.\Generated_Source\PSoC5/cyfitter_cfg.c **** 	}
 294:.\Generated_Source\PSoC5/cyfitter_cfg.c **** 	else
 295:.\Generated_Source\PSoC5/cyfitter_cfg.c **** 	{
 296:.\Generated_Source\PSoC5/cyfitter_cfg.c **** 		regValue &= (uint8)~0x00u;
 297:.\Generated_Source\PSoC5/cyfitter_cfg.c **** 	}
 298:.\Generated_Source\PSoC5/cyfitter_cfg.c **** 	CY_SET_XTND_REG8((void CYFAR *)CYREG_PUMP_CR0, regValue);
 411              		.loc 1 298 0
 412 0006 1A70     		strb	r2, [r3]
 413 0008 7047     		bx	lr
 414              	.L23:
 415 000a 00BF     		.align	2
 416              	.L22:
 417 000c 76580040 		.word	1073764470
 418              		.cfi_endproc
 419              	.LFE7:
 420              		.size	SetAnalogRoutingPumps, .-SetAnalogRoutingPumps
 421              		.section	.text.cyfitter_cfg,"ax",%progbits
 422              		.align	2
 423              		.global	cyfitter_cfg
 424              		.thumb
 425              		.thumb_func
 426              		.type	cyfitter_cfg, %function
 427              	cyfitter_cfg:
 428              	.LFB8:
 299:.\Generated_Source\PSoC5/cyfitter_cfg.c **** }
 300:.\Generated_Source\PSoC5/cyfitter_cfg.c **** 
 301:.\Generated_Source\PSoC5/cyfitter_cfg.c **** #define CY_AMUX_UNUSED CYREG_BOOST_SR
 302:.\Generated_Source\PSoC5/cyfitter_cfg.c **** 
 303:.\Generated_Source\PSoC5/cyfitter_cfg.c **** 
 304:.\Generated_Source\PSoC5/cyfitter_cfg.c **** /*******************************************************************************
 305:.\Generated_Source\PSoC5/cyfitter_cfg.c **** * Function Name: cyfitter_cfg
 306:.\Generated_Source\PSoC5/cyfitter_cfg.c **** ********************************************************************************
 307:.\Generated_Source\PSoC5/cyfitter_cfg.c **** * Summary:
 308:.\Generated_Source\PSoC5/cyfitter_cfg.c **** *  This function is called by the start-up code for the selected device. It
 309:.\Generated_Source\PSoC5/cyfitter_cfg.c **** *  performs all of the necessary device configuration based on the design
 310:.\Generated_Source\PSoC5/cyfitter_cfg.c **** *  settings.  This includes settings from the Design Wide Resources (DWR) such
 311:.\Generated_Source\PSoC5/cyfitter_cfg.c **** *  as Clocks and Pins as well as any component configuration that is necessary.
 312:.\Generated_Source\PSoC5/cyfitter_cfg.c **** *
 313:.\Generated_Source\PSoC5/cyfitter_cfg.c **** * Parameters:  
 314:.\Generated_Source\PSoC5/cyfitter_cfg.c **** *   void
 315:.\Generated_Source\PSoC5/cyfitter_cfg.c **** *
 316:.\Generated_Source\PSoC5/cyfitter_cfg.c **** * Return:
 317:.\Generated_Source\PSoC5/cyfitter_cfg.c **** *   void
 318:.\Generated_Source\PSoC5/cyfitter_cfg.c **** *
 319:.\Generated_Source\PSoC5/cyfitter_cfg.c **** *******************************************************************************/
 320:.\Generated_Source\PSoC5/cyfitter_cfg.c **** 
 321:.\Generated_Source\PSoC5/cyfitter_cfg.c **** void cyfitter_cfg(void)
 322:.\Generated_Source\PSoC5/cyfitter_cfg.c **** {
 429              		.loc 1 322 0
 430              		.cfi_startproc
 431              		@ args = 0, pretend = 0, frame = 0
ARM GAS  C:\Users\xavieran\AppData\Local\Temp\ccJfmadl.s 			page 15


 432              		@ frame_needed = 0, uses_anonymous_args = 0
 433 0000 38B5     		push	{r3, r4, r5, lr}
 434              		.cfi_def_cfa_offset 16
 435              		.cfi_offset 3, -16
 436              		.cfi_offset 4, -12
 437              		.cfi_offset 5, -8
 438              		.cfi_offset 14, -4
 323:.\Generated_Source\PSoC5/cyfitter_cfg.c **** 	/* IOPINS0_0 Address: CYREG_PRT0_DR Size (bytes): 10 */
 324:.\Generated_Source\PSoC5/cyfitter_cfg.c **** 	static const uint8 CYCODE BS_IOPINS0_0_VAL[] = {
 325:.\Generated_Source\PSoC5/cyfitter_cfg.c **** 		0x03u, 0x00u, 0x00u, 0xF4u, 0xF7u, 0x00u, 0xF0u, 0x00u, 0x00u, 0x00u};
 326:.\Generated_Source\PSoC5/cyfitter_cfg.c **** 
 327:.\Generated_Source\PSoC5/cyfitter_cfg.c **** 	/* IOPINS0_7 Address: CYREG_PRT12_DR Size (bytes): 10 */
 328:.\Generated_Source\PSoC5/cyfitter_cfg.c **** 	static const uint8 CYCODE BS_IOPINS0_7_VAL[] = {
 329:.\Generated_Source\PSoC5/cyfitter_cfg.c **** 		0x03u, 0x00u, 0xC0u, 0x2Cu, 0xAFu, 0x00u, 0x2Cu, 0x00u, 0x00u, 0x00u};
 330:.\Generated_Source\PSoC5/cyfitter_cfg.c **** 
 331:.\Generated_Source\PSoC5/cyfitter_cfg.c **** 	/* IOPINS0_8 Address: CYREG_PRT15_DR Size (bytes): 10 */
 332:.\Generated_Source\PSoC5/cyfitter_cfg.c **** 	static const uint8 CYCODE BS_IOPINS0_8_VAL[] = {
 333:.\Generated_Source\PSoC5/cyfitter_cfg.c **** 		0x00u, 0x00u, 0x20u, 0x18u, 0x18u, 0x00u, 0x18u, 0x00u, 0xC0u, 0x00u};
 334:.\Generated_Source\PSoC5/cyfitter_cfg.c **** 
 335:.\Generated_Source\PSoC5/cyfitter_cfg.c **** 	/* IOPINS0_1 Address: CYREG_PRT1_DR Size (bytes): 10 */
 336:.\Generated_Source\PSoC5/cyfitter_cfg.c **** 	static const uint8 CYCODE BS_IOPINS0_1_VAL[] = {
 337:.\Generated_Source\PSoC5/cyfitter_cfg.c **** 		0xC0u, 0x00u, 0x00u, 0x00u, 0xC0u, 0x00u, 0xC0u, 0x00u, 0x00u, 0x00u};
 338:.\Generated_Source\PSoC5/cyfitter_cfg.c **** 
 339:.\Generated_Source\PSoC5/cyfitter_cfg.c **** 	/* IOPINS0_2 Address: CYREG_PRT2_DR Size (bytes): 10 */
 340:.\Generated_Source\PSoC5/cyfitter_cfg.c **** 	static const uint8 CYCODE BS_IOPINS0_2_VAL[] = {
 341:.\Generated_Source\PSoC5/cyfitter_cfg.c **** 		0x28u, 0x00u, 0x05u, 0x00u, 0x28u, 0x00u, 0x28u, 0x00u, 0x00u, 0x00u};
 342:.\Generated_Source\PSoC5/cyfitter_cfg.c **** 
 343:.\Generated_Source\PSoC5/cyfitter_cfg.c **** 	/* IOPINS0_3 Address: CYREG_PRT3_DR Size (bytes): 10 */
 344:.\Generated_Source\PSoC5/cyfitter_cfg.c **** 	static const uint8 CYCODE BS_IOPINS0_3_VAL[] = {
 345:.\Generated_Source\PSoC5/cyfitter_cfg.c **** 		0x08u, 0x00u, 0x04u, 0x08u, 0x08u, 0x00u, 0x08u, 0x00u, 0x00u, 0x00u};
 346:.\Generated_Source\PSoC5/cyfitter_cfg.c **** 
 347:.\Generated_Source\PSoC5/cyfitter_cfg.c **** 	/* IOPINS0_4 Address: CYREG_PRT4_DM0 Size (bytes): 8 */
 348:.\Generated_Source\PSoC5/cyfitter_cfg.c **** 	static const uint8 CYCODE BS_IOPINS0_4_VAL[] = {
 349:.\Generated_Source\PSoC5/cyfitter_cfg.c **** 		0xF0u, 0x03u, 0x03u, 0x00u, 0x03u, 0x00u, 0x00u, 0x01u};
 350:.\Generated_Source\PSoC5/cyfitter_cfg.c **** 
 351:.\Generated_Source\PSoC5/cyfitter_cfg.c **** 	/* IOPINS0_5 Address: CYREG_PRT5_DM0 Size (bytes): 8 */
 352:.\Generated_Source\PSoC5/cyfitter_cfg.c **** 	static const uint8 CYCODE BS_IOPINS0_5_VAL[] = {
 353:.\Generated_Source\PSoC5/cyfitter_cfg.c **** 		0xD0u, 0xA3u, 0x73u, 0x00u, 0x82u, 0x00u, 0x00u, 0x00u};
 354:.\Generated_Source\PSoC5/cyfitter_cfg.c **** 
 355:.\Generated_Source\PSoC5/cyfitter_cfg.c **** 	/* IOPINS0_6 Address: CYREG_PRT6_DM0 Size (bytes): 8 */
 356:.\Generated_Source\PSoC5/cyfitter_cfg.c **** 	static const uint8 CYCODE BS_IOPINS0_6_VAL[] = {
 357:.\Generated_Source\PSoC5/cyfitter_cfg.c **** 		0x1Fu, 0xF0u, 0xE0u, 0x00u, 0x10u, 0x00u, 0x00u, 0x00u};
 358:.\Generated_Source\PSoC5/cyfitter_cfg.c **** 
 359:.\Generated_Source\PSoC5/cyfitter_cfg.c **** #ifdef CYGlobalIntDisable
 360:.\Generated_Source\PSoC5/cyfitter_cfg.c **** 	/* Disable interrupts by default. Let user enable if/when they want. */
 361:.\Generated_Source\PSoC5/cyfitter_cfg.c **** 	CYGlobalIntDisable
 439              		.loc 1 361 0
 440              	@ 361 ".\Generated_Source\PSoC5\cyfitter_cfg.c" 1
 441 0002 72B6     		CPSID   i
 442              	@ 0 "" 2
 443              	.LVL31:
 444              		.thumb
 445              	.LBB3:
 362:.\Generated_Source\PSoC5/cyfitter_cfg.c **** #endif
 363:.\Generated_Source\PSoC5/cyfitter_cfg.c **** 
 364:.\Generated_Source\PSoC5/cyfitter_cfg.c **** 	{
 365:.\Generated_Source\PSoC5/cyfitter_cfg.c **** 		static const uint32 CYCODE cy_cfg_addr_table[] = {
ARM GAS  C:\Users\xavieran\AppData\Local\Temp\ccJfmadl.s 			page 16


 366:.\Generated_Source\PSoC5/cyfitter_cfg.c **** 			0x40004503u, /* Base address: 0x40004500 Count: 3 */
 367:.\Generated_Source\PSoC5/cyfitter_cfg.c **** 			0x40004F08u, /* Base address: 0x40004F00 Count: 8 */
 368:.\Generated_Source\PSoC5/cyfitter_cfg.c **** 			0x40005211u, /* Base address: 0x40005200 Count: 17 */
 369:.\Generated_Source\PSoC5/cyfitter_cfg.c **** 			0x40006405u, /* Base address: 0x40006400 Count: 5 */
 370:.\Generated_Source\PSoC5/cyfitter_cfg.c **** 			0x40006502u, /* Base address: 0x40006500 Count: 2 */
 371:.\Generated_Source\PSoC5/cyfitter_cfg.c **** 			0x40010106u, /* Base address: 0x40010100 Count: 6 */
 372:.\Generated_Source\PSoC5/cyfitter_cfg.c **** 			0x40010255u, /* Base address: 0x40010200 Count: 85 */
 373:.\Generated_Source\PSoC5/cyfitter_cfg.c **** 			0x40010333u, /* Base address: 0x40010300 Count: 51 */
 374:.\Generated_Source\PSoC5/cyfitter_cfg.c **** 			0x40010451u, /* Base address: 0x40010400 Count: 81 */
 375:.\Generated_Source\PSoC5/cyfitter_cfg.c **** 			0x40010546u, /* Base address: 0x40010500 Count: 70 */
 376:.\Generated_Source\PSoC5/cyfitter_cfg.c **** 			0x4001063Bu, /* Base address: 0x40010600 Count: 59 */
 377:.\Generated_Source\PSoC5/cyfitter_cfg.c **** 			0x40010748u, /* Base address: 0x40010700 Count: 72 */
 378:.\Generated_Source\PSoC5/cyfitter_cfg.c **** 			0x40010859u, /* Base address: 0x40010800 Count: 89 */
 379:.\Generated_Source\PSoC5/cyfitter_cfg.c **** 			0x40010955u, /* Base address: 0x40010900 Count: 85 */
 380:.\Generated_Source\PSoC5/cyfitter_cfg.c **** 			0x40010A53u, /* Base address: 0x40010A00 Count: 83 */
 381:.\Generated_Source\PSoC5/cyfitter_cfg.c **** 			0x40010B46u, /* Base address: 0x40010B00 Count: 70 */
 382:.\Generated_Source\PSoC5/cyfitter_cfg.c **** 			0x40010C40u, /* Base address: 0x40010C00 Count: 64 */
 383:.\Generated_Source\PSoC5/cyfitter_cfg.c **** 			0x40010D4Eu, /* Base address: 0x40010D00 Count: 78 */
 384:.\Generated_Source\PSoC5/cyfitter_cfg.c **** 			0x40010E49u, /* Base address: 0x40010E00 Count: 73 */
 385:.\Generated_Source\PSoC5/cyfitter_cfg.c **** 			0x40010F39u, /* Base address: 0x40010F00 Count: 57 */
 386:.\Generated_Source\PSoC5/cyfitter_cfg.c **** 			0x4001143Bu, /* Base address: 0x40011400 Count: 59 */
 387:.\Generated_Source\PSoC5/cyfitter_cfg.c **** 			0x40011529u, /* Base address: 0x40011500 Count: 41 */
 388:.\Generated_Source\PSoC5/cyfitter_cfg.c **** 			0x40011647u, /* Base address: 0x40011600 Count: 71 */
 389:.\Generated_Source\PSoC5/cyfitter_cfg.c **** 			0x40011728u, /* Base address: 0x40011700 Count: 40 */
 390:.\Generated_Source\PSoC5/cyfitter_cfg.c **** 			0x4001190Fu, /* Base address: 0x40011900 Count: 15 */
 391:.\Generated_Source\PSoC5/cyfitter_cfg.c **** 			0x40011B07u, /* Base address: 0x40011B00 Count: 7 */
 392:.\Generated_Source\PSoC5/cyfitter_cfg.c **** 			0x40014013u, /* Base address: 0x40014000 Count: 19 */
 393:.\Generated_Source\PSoC5/cyfitter_cfg.c **** 			0x40014114u, /* Base address: 0x40014100 Count: 20 */
 394:.\Generated_Source\PSoC5/cyfitter_cfg.c **** 			0x40014218u, /* Base address: 0x40014200 Count: 24 */
 395:.\Generated_Source\PSoC5/cyfitter_cfg.c **** 			0x40014312u, /* Base address: 0x40014300 Count: 18 */
 396:.\Generated_Source\PSoC5/cyfitter_cfg.c **** 			0x4001440Cu, /* Base address: 0x40014400 Count: 12 */
 397:.\Generated_Source\PSoC5/cyfitter_cfg.c **** 			0x40014511u, /* Base address: 0x40014500 Count: 17 */
 398:.\Generated_Source\PSoC5/cyfitter_cfg.c **** 			0x4001460Cu, /* Base address: 0x40014600 Count: 12 */
 399:.\Generated_Source\PSoC5/cyfitter_cfg.c **** 			0x4001470Eu, /* Base address: 0x40014700 Count: 14 */
 400:.\Generated_Source\PSoC5/cyfitter_cfg.c **** 			0x40014810u, /* Base address: 0x40014800 Count: 16 */
 401:.\Generated_Source\PSoC5/cyfitter_cfg.c **** 			0x40014915u, /* Base address: 0x40014900 Count: 21 */
 402:.\Generated_Source\PSoC5/cyfitter_cfg.c **** 			0x40014C1Cu, /* Base address: 0x40014C00 Count: 28 */
 403:.\Generated_Source\PSoC5/cyfitter_cfg.c **** 			0x40014D16u, /* Base address: 0x40014D00 Count: 22 */
 404:.\Generated_Source\PSoC5/cyfitter_cfg.c **** 			0x40015007u, /* Base address: 0x40015000 Count: 7 */
 405:.\Generated_Source\PSoC5/cyfitter_cfg.c **** 			0x40015101u, /* Base address: 0x40015100 Count: 1 */
 406:.\Generated_Source\PSoC5/cyfitter_cfg.c **** 		};
 407:.\Generated_Source\PSoC5/cyfitter_cfg.c **** 
 408:.\Generated_Source\PSoC5/cyfitter_cfg.c **** 		static const cy_cfg_addrvalue_t CYCODE cy_cfg_data_table[] = {
 409:.\Generated_Source\PSoC5/cyfitter_cfg.c **** 			{0x00u, 0x02u},
 410:.\Generated_Source\PSoC5/cyfitter_cfg.c **** 			{0x60u, 0x02u},
 411:.\Generated_Source\PSoC5/cyfitter_cfg.c **** 			{0x7Eu, 0x02u},
 412:.\Generated_Source\PSoC5/cyfitter_cfg.c **** 			{0x01u, 0x10u},
 413:.\Generated_Source\PSoC5/cyfitter_cfg.c **** 			{0x0Au, 0x4Bu},
 414:.\Generated_Source\PSoC5/cyfitter_cfg.c **** 			{0x0Du, 0x40u},
 415:.\Generated_Source\PSoC5/cyfitter_cfg.c **** 			{0x16u, 0x4Bu},
 416:.\Generated_Source\PSoC5/cyfitter_cfg.c **** 			{0x19u, 0x40u},
 417:.\Generated_Source\PSoC5/cyfitter_cfg.c **** 			{0x22u, 0x4Bu},
 418:.\Generated_Source\PSoC5/cyfitter_cfg.c **** 			{0x25u, 0x40u},
 419:.\Generated_Source\PSoC5/cyfitter_cfg.c **** 			{0x2Eu, 0x4Bu},
 420:.\Generated_Source\PSoC5/cyfitter_cfg.c **** 			{0x00u, 0x60u},
 421:.\Generated_Source\PSoC5/cyfitter_cfg.c **** 			{0x01u, 0x50u},
 422:.\Generated_Source\PSoC5/cyfitter_cfg.c **** 			{0x04u, 0x03u},
ARM GAS  C:\Users\xavieran\AppData\Local\Temp\ccJfmadl.s 			page 17


 423:.\Generated_Source\PSoC5/cyfitter_cfg.c **** 			{0x08u, 0xC0u},
 424:.\Generated_Source\PSoC5/cyfitter_cfg.c **** 			{0x09u, 0x40u},
 425:.\Generated_Source\PSoC5/cyfitter_cfg.c **** 			{0x0Cu, 0xC0u},
 426:.\Generated_Source\PSoC5/cyfitter_cfg.c **** 			{0x10u, 0x28u},
 427:.\Generated_Source\PSoC5/cyfitter_cfg.c **** 			{0x14u, 0x28u},
 428:.\Generated_Source\PSoC5/cyfitter_cfg.c **** 			{0x19u, 0x08u},
 429:.\Generated_Source\PSoC5/cyfitter_cfg.c **** 			{0x1Cu, 0x04u},
 430:.\Generated_Source\PSoC5/cyfitter_cfg.c **** 			{0x20u, 0x03u},
 431:.\Generated_Source\PSoC5/cyfitter_cfg.c **** 			{0x21u, 0x02u},
 432:.\Generated_Source\PSoC5/cyfitter_cfg.c **** 			{0x28u, 0x02u},
 433:.\Generated_Source\PSoC5/cyfitter_cfg.c **** 			{0x29u, 0x80u},
 434:.\Generated_Source\PSoC5/cyfitter_cfg.c **** 			{0x31u, 0x10u},
 435:.\Generated_Source\PSoC5/cyfitter_cfg.c **** 			{0x79u, 0x18u},
 436:.\Generated_Source\PSoC5/cyfitter_cfg.c **** 			{0x7Cu, 0x40u},
 437:.\Generated_Source\PSoC5/cyfitter_cfg.c **** 			{0x28u, 0x04u},
 438:.\Generated_Source\PSoC5/cyfitter_cfg.c **** 			{0x2Au, 0x0Fu},
 439:.\Generated_Source\PSoC5/cyfitter_cfg.c **** 			{0x3Au, 0x08u},
 440:.\Generated_Source\PSoC5/cyfitter_cfg.c **** 			{0x83u, 0x0Du},
 441:.\Generated_Source\PSoC5/cyfitter_cfg.c **** 			{0x86u, 0x0Du},
 442:.\Generated_Source\PSoC5/cyfitter_cfg.c **** 			{0x86u, 0x0Du},
 443:.\Generated_Source\PSoC5/cyfitter_cfg.c **** 			{0x87u, 0x0Fu},
 444:.\Generated_Source\PSoC5/cyfitter_cfg.c **** 			{0x82u, 0x80u},
 445:.\Generated_Source\PSoC5/cyfitter_cfg.c **** 			{0x83u, 0x04u},
 446:.\Generated_Source\PSoC5/cyfitter_cfg.c **** 			{0x87u, 0x02u},
 447:.\Generated_Source\PSoC5/cyfitter_cfg.c **** 			{0xE0u, 0x02u},
 448:.\Generated_Source\PSoC5/cyfitter_cfg.c **** 			{0xE2u, 0x14u},
 449:.\Generated_Source\PSoC5/cyfitter_cfg.c **** 			{0xE4u, 0x44u},
 450:.\Generated_Source\PSoC5/cyfitter_cfg.c **** 			{0x0Au, 0x01u},
 451:.\Generated_Source\PSoC5/cyfitter_cfg.c **** 			{0x1Au, 0x01u},
 452:.\Generated_Source\PSoC5/cyfitter_cfg.c **** 			{0x32u, 0x01u},
 453:.\Generated_Source\PSoC5/cyfitter_cfg.c **** 			{0x40u, 0x60u},
 454:.\Generated_Source\PSoC5/cyfitter_cfg.c **** 			{0x41u, 0x02u},
 455:.\Generated_Source\PSoC5/cyfitter_cfg.c **** 			{0x49u, 0xFFu},
 456:.\Generated_Source\PSoC5/cyfitter_cfg.c **** 			{0x4Au, 0xFFu},
 457:.\Generated_Source\PSoC5/cyfitter_cfg.c **** 			{0x4Bu, 0xFFu},
 458:.\Generated_Source\PSoC5/cyfitter_cfg.c **** 			{0x4Du, 0xA0u},
 459:.\Generated_Source\PSoC5/cyfitter_cfg.c **** 			{0x4Fu, 0x04u},
 460:.\Generated_Source\PSoC5/cyfitter_cfg.c **** 			{0x50u, 0x18u},
 461:.\Generated_Source\PSoC5/cyfitter_cfg.c **** 			{0x58u, 0x04u},
 462:.\Generated_Source\PSoC5/cyfitter_cfg.c **** 			{0x5Au, 0x04u},
 463:.\Generated_Source\PSoC5/cyfitter_cfg.c **** 			{0x5Bu, 0x04u},
 464:.\Generated_Source\PSoC5/cyfitter_cfg.c **** 			{0x5Cu, 0x04u},
 465:.\Generated_Source\PSoC5/cyfitter_cfg.c **** 			{0x5Du, 0x04u},
 466:.\Generated_Source\PSoC5/cyfitter_cfg.c **** 			{0x5Fu, 0x01u},
 467:.\Generated_Source\PSoC5/cyfitter_cfg.c **** 			{0x60u, 0x40u},
 468:.\Generated_Source\PSoC5/cyfitter_cfg.c **** 			{0x62u, 0xC0u},
 469:.\Generated_Source\PSoC5/cyfitter_cfg.c **** 			{0x64u, 0x40u},
 470:.\Generated_Source\PSoC5/cyfitter_cfg.c **** 			{0x65u, 0x40u},
 471:.\Generated_Source\PSoC5/cyfitter_cfg.c **** 			{0x66u, 0xC0u},
 472:.\Generated_Source\PSoC5/cyfitter_cfg.c **** 			{0x68u, 0xC0u},
 473:.\Generated_Source\PSoC5/cyfitter_cfg.c **** 			{0x6Au, 0xC0u},
 474:.\Generated_Source\PSoC5/cyfitter_cfg.c **** 			{0x6Cu, 0xC0u},
 475:.\Generated_Source\PSoC5/cyfitter_cfg.c **** 			{0x6Eu, 0xC0u},
 476:.\Generated_Source\PSoC5/cyfitter_cfg.c **** 			{0x83u, 0x04u},
 477:.\Generated_Source\PSoC5/cyfitter_cfg.c **** 			{0x86u, 0x02u},
 478:.\Generated_Source\PSoC5/cyfitter_cfg.c **** 			{0x87u, 0x02u},
 479:.\Generated_Source\PSoC5/cyfitter_cfg.c **** 			{0x89u, 0xCCu},
ARM GAS  C:\Users\xavieran\AppData\Local\Temp\ccJfmadl.s 			page 18


 480:.\Generated_Source\PSoC5/cyfitter_cfg.c **** 			{0x8Bu, 0x13u},
 481:.\Generated_Source\PSoC5/cyfitter_cfg.c **** 			{0x8Du, 0xA5u},
 482:.\Generated_Source\PSoC5/cyfitter_cfg.c **** 			{0x8Fu, 0x4Au},
 483:.\Generated_Source\PSoC5/cyfitter_cfg.c **** 			{0x91u, 0x02u},
 484:.\Generated_Source\PSoC5/cyfitter_cfg.c **** 			{0x92u, 0x01u},
 485:.\Generated_Source\PSoC5/cyfitter_cfg.c **** 			{0x94u, 0x04u},
 486:.\Generated_Source\PSoC5/cyfitter_cfg.c **** 			{0x95u, 0x4Du},
 487:.\Generated_Source\PSoC5/cyfitter_cfg.c **** 			{0x97u, 0x92u},
 488:.\Generated_Source\PSoC5/cyfitter_cfg.c **** 			{0x99u, 0xA9u},
 489:.\Generated_Source\PSoC5/cyfitter_cfg.c **** 			{0x9Bu, 0x54u},
 490:.\Generated_Source\PSoC5/cyfitter_cfg.c **** 			{0x9Du, 0xFFu},
 491:.\Generated_Source\PSoC5/cyfitter_cfg.c **** 			{0xA3u, 0xB5u},
 492:.\Generated_Source\PSoC5/cyfitter_cfg.c **** 			{0xA5u, 0x1Au},
 493:.\Generated_Source\PSoC5/cyfitter_cfg.c **** 			{0xA6u, 0x0Cu},
 494:.\Generated_Source\PSoC5/cyfitter_cfg.c **** 			{0xA7u, 0x60u},
 495:.\Generated_Source\PSoC5/cyfitter_cfg.c **** 			{0xA9u, 0x04u},
 496:.\Generated_Source\PSoC5/cyfitter_cfg.c **** 			{0xAAu, 0x02u},
 497:.\Generated_Source\PSoC5/cyfitter_cfg.c **** 			{0xAFu, 0x01u},
 498:.\Generated_Source\PSoC5/cyfitter_cfg.c **** 			{0xB0u, 0x02u},
 499:.\Generated_Source\PSoC5/cyfitter_cfg.c **** 			{0xB2u, 0x08u},
 500:.\Generated_Source\PSoC5/cyfitter_cfg.c **** 			{0xB4u, 0x01u},
 501:.\Generated_Source\PSoC5/cyfitter_cfg.c **** 			{0xB6u, 0x04u},
 502:.\Generated_Source\PSoC5/cyfitter_cfg.c **** 			{0xB7u, 0xFFu},
 503:.\Generated_Source\PSoC5/cyfitter_cfg.c **** 			{0xBEu, 0x01u},
 504:.\Generated_Source\PSoC5/cyfitter_cfg.c **** 			{0xBFu, 0x40u},
 505:.\Generated_Source\PSoC5/cyfitter_cfg.c **** 			{0xC0u, 0x20u},
 506:.\Generated_Source\PSoC5/cyfitter_cfg.c **** 			{0xC1u, 0x06u},
 507:.\Generated_Source\PSoC5/cyfitter_cfg.c **** 			{0xC5u, 0xD1u},
 508:.\Generated_Source\PSoC5/cyfitter_cfg.c **** 			{0xC7u, 0x02u},
 509:.\Generated_Source\PSoC5/cyfitter_cfg.c **** 			{0xC8u, 0x13u},
 510:.\Generated_Source\PSoC5/cyfitter_cfg.c **** 			{0xC9u, 0xFFu},
 511:.\Generated_Source\PSoC5/cyfitter_cfg.c **** 			{0xCAu, 0xFFu},
 512:.\Generated_Source\PSoC5/cyfitter_cfg.c **** 			{0xCBu, 0xFFu},
 513:.\Generated_Source\PSoC5/cyfitter_cfg.c **** 			{0xCDu, 0xAFu},
 514:.\Generated_Source\PSoC5/cyfitter_cfg.c **** 			{0xCEu, 0x0Fu},
 515:.\Generated_Source\PSoC5/cyfitter_cfg.c **** 			{0xCFu, 0x04u},
 516:.\Generated_Source\PSoC5/cyfitter_cfg.c **** 			{0xD0u, 0x18u},
 517:.\Generated_Source\PSoC5/cyfitter_cfg.c **** 			{0xD2u, 0x80u},
 518:.\Generated_Source\PSoC5/cyfitter_cfg.c **** 			{0xD4u, 0x05u},
 519:.\Generated_Source\PSoC5/cyfitter_cfg.c **** 			{0xD8u, 0x04u},
 520:.\Generated_Source\PSoC5/cyfitter_cfg.c **** 			{0xD9u, 0x04u},
 521:.\Generated_Source\PSoC5/cyfitter_cfg.c **** 			{0xDAu, 0x04u},
 522:.\Generated_Source\PSoC5/cyfitter_cfg.c **** 			{0xDBu, 0x04u},
 523:.\Generated_Source\PSoC5/cyfitter_cfg.c **** 			{0xDCu, 0x04u},
 524:.\Generated_Source\PSoC5/cyfitter_cfg.c **** 			{0xDDu, 0x44u},
 525:.\Generated_Source\PSoC5/cyfitter_cfg.c **** 			{0xDFu, 0x01u},
 526:.\Generated_Source\PSoC5/cyfitter_cfg.c **** 			{0xE0u, 0x40u},
 527:.\Generated_Source\PSoC5/cyfitter_cfg.c **** 			{0xE2u, 0xC0u},
 528:.\Generated_Source\PSoC5/cyfitter_cfg.c **** 			{0xE4u, 0x40u},
 529:.\Generated_Source\PSoC5/cyfitter_cfg.c **** 			{0xE5u, 0x40u},
 530:.\Generated_Source\PSoC5/cyfitter_cfg.c **** 			{0xE6u, 0xC0u},
 531:.\Generated_Source\PSoC5/cyfitter_cfg.c **** 			{0xE8u, 0xC0u},
 532:.\Generated_Source\PSoC5/cyfitter_cfg.c **** 			{0xEAu, 0xC0u},
 533:.\Generated_Source\PSoC5/cyfitter_cfg.c **** 			{0xECu, 0xC0u},
 534:.\Generated_Source\PSoC5/cyfitter_cfg.c **** 			{0xEEu, 0xC0u},
 535:.\Generated_Source\PSoC5/cyfitter_cfg.c **** 			{0x03u, 0x20u},
 536:.\Generated_Source\PSoC5/cyfitter_cfg.c **** 			{0x05u, 0x20u},
ARM GAS  C:\Users\xavieran\AppData\Local\Temp\ccJfmadl.s 			page 19


 537:.\Generated_Source\PSoC5/cyfitter_cfg.c **** 			{0x0Au, 0x50u},
 538:.\Generated_Source\PSoC5/cyfitter_cfg.c **** 			{0x0Cu, 0x20u},
 539:.\Generated_Source\PSoC5/cyfitter_cfg.c **** 			{0x10u, 0x20u},
 540:.\Generated_Source\PSoC5/cyfitter_cfg.c **** 			{0x12u, 0x04u},
 541:.\Generated_Source\PSoC5/cyfitter_cfg.c **** 			{0x19u, 0xA2u},
 542:.\Generated_Source\PSoC5/cyfitter_cfg.c **** 			{0x1Au, 0x10u},
 543:.\Generated_Source\PSoC5/cyfitter_cfg.c **** 			{0x1Bu, 0x20u},
 544:.\Generated_Source\PSoC5/cyfitter_cfg.c **** 			{0x1Fu, 0x08u},
 545:.\Generated_Source\PSoC5/cyfitter_cfg.c **** 			{0x20u, 0x02u},
 546:.\Generated_Source\PSoC5/cyfitter_cfg.c **** 			{0x29u, 0x14u},
 547:.\Generated_Source\PSoC5/cyfitter_cfg.c **** 			{0x2Au, 0x80u},
 548:.\Generated_Source\PSoC5/cyfitter_cfg.c **** 			{0x2Bu, 0x80u},
 549:.\Generated_Source\PSoC5/cyfitter_cfg.c **** 			{0x31u, 0x48u},
 550:.\Generated_Source\PSoC5/cyfitter_cfg.c **** 			{0x32u, 0xA1u},
 551:.\Generated_Source\PSoC5/cyfitter_cfg.c **** 			{0x38u, 0x48u},
 552:.\Generated_Source\PSoC5/cyfitter_cfg.c **** 			{0x3Au, 0x12u},
 553:.\Generated_Source\PSoC5/cyfitter_cfg.c **** 			{0x43u, 0x20u},
 554:.\Generated_Source\PSoC5/cyfitter_cfg.c **** 			{0x46u, 0x04u},
 555:.\Generated_Source\PSoC5/cyfitter_cfg.c **** 			{0x48u, 0x28u},
 556:.\Generated_Source\PSoC5/cyfitter_cfg.c **** 			{0x49u, 0x01u},
 557:.\Generated_Source\PSoC5/cyfitter_cfg.c **** 			{0x4Du, 0x20u},
 558:.\Generated_Source\PSoC5/cyfitter_cfg.c **** 			{0x50u, 0x08u},
 559:.\Generated_Source\PSoC5/cyfitter_cfg.c **** 			{0x52u, 0x04u},
 560:.\Generated_Source\PSoC5/cyfitter_cfg.c **** 			{0x58u, 0x08u},
 561:.\Generated_Source\PSoC5/cyfitter_cfg.c **** 			{0x59u, 0x81u},
 562:.\Generated_Source\PSoC5/cyfitter_cfg.c **** 			{0x6Cu, 0x10u},
 563:.\Generated_Source\PSoC5/cyfitter_cfg.c **** 			{0x6Eu, 0x01u},
 564:.\Generated_Source\PSoC5/cyfitter_cfg.c **** 			{0x6Fu, 0x06u},
 565:.\Generated_Source\PSoC5/cyfitter_cfg.c **** 			{0x72u, 0x40u},
 566:.\Generated_Source\PSoC5/cyfitter_cfg.c **** 			{0x76u, 0x08u},
 567:.\Generated_Source\PSoC5/cyfitter_cfg.c **** 			{0x77u, 0x02u},
 568:.\Generated_Source\PSoC5/cyfitter_cfg.c **** 			{0x83u, 0x02u},
 569:.\Generated_Source\PSoC5/cyfitter_cfg.c **** 			{0x87u, 0x80u},
 570:.\Generated_Source\PSoC5/cyfitter_cfg.c **** 			{0x8Cu, 0x40u},
 571:.\Generated_Source\PSoC5/cyfitter_cfg.c **** 			{0x9Fu, 0x04u},
 572:.\Generated_Source\PSoC5/cyfitter_cfg.c **** 			{0xA6u, 0x80u},
 573:.\Generated_Source\PSoC5/cyfitter_cfg.c **** 			{0xA7u, 0x02u},
 574:.\Generated_Source\PSoC5/cyfitter_cfg.c **** 			{0xC0u, 0x44u},
 575:.\Generated_Source\PSoC5/cyfitter_cfg.c **** 			{0xC2u, 0x4Cu},
 576:.\Generated_Source\PSoC5/cyfitter_cfg.c **** 			{0xC4u, 0x06u},
 577:.\Generated_Source\PSoC5/cyfitter_cfg.c **** 			{0xCAu, 0x0Fu},
 578:.\Generated_Source\PSoC5/cyfitter_cfg.c **** 			{0xCCu, 0x0Fu},
 579:.\Generated_Source\PSoC5/cyfitter_cfg.c **** 			{0xCEu, 0x0Fu},
 580:.\Generated_Source\PSoC5/cyfitter_cfg.c **** 			{0xD0u, 0x24u},
 581:.\Generated_Source\PSoC5/cyfitter_cfg.c **** 			{0xD2u, 0x24u},
 582:.\Generated_Source\PSoC5/cyfitter_cfg.c **** 			{0xD6u, 0x0Bu},
 583:.\Generated_Source\PSoC5/cyfitter_cfg.c **** 			{0xE2u, 0x04u},
 584:.\Generated_Source\PSoC5/cyfitter_cfg.c **** 			{0xE6u, 0x08u},
 585:.\Generated_Source\PSoC5/cyfitter_cfg.c **** 			{0xE8u, 0x05u},
 586:.\Generated_Source\PSoC5/cyfitter_cfg.c **** 			{0x00u, 0x22u},
 587:.\Generated_Source\PSoC5/cyfitter_cfg.c **** 			{0x01u, 0x02u},
 588:.\Generated_Source\PSoC5/cyfitter_cfg.c **** 			{0x02u, 0x05u},
 589:.\Generated_Source\PSoC5/cyfitter_cfg.c **** 			{0x03u, 0x09u},
 590:.\Generated_Source\PSoC5/cyfitter_cfg.c **** 			{0x04u, 0x3Au},
 591:.\Generated_Source\PSoC5/cyfitter_cfg.c **** 			{0x06u, 0x04u},
 592:.\Generated_Source\PSoC5/cyfitter_cfg.c **** 			{0x07u, 0x01u},
 593:.\Generated_Source\PSoC5/cyfitter_cfg.c **** 			{0x08u, 0x03u},
ARM GAS  C:\Users\xavieran\AppData\Local\Temp\ccJfmadl.s 			page 20


 594:.\Generated_Source\PSoC5/cyfitter_cfg.c **** 			{0x09u, 0x01u},
 595:.\Generated_Source\PSoC5/cyfitter_cfg.c **** 			{0x0Cu, 0x01u},
 596:.\Generated_Source\PSoC5/cyfitter_cfg.c **** 			{0x0Du, 0x01u},
 597:.\Generated_Source\PSoC5/cyfitter_cfg.c **** 			{0x10u, 0x40u},
 598:.\Generated_Source\PSoC5/cyfitter_cfg.c **** 			{0x11u, 0x03u},
 599:.\Generated_Source\PSoC5/cyfitter_cfg.c **** 			{0x12u, 0x07u},
 600:.\Generated_Source\PSoC5/cyfitter_cfg.c **** 			{0x14u, 0x08u},
 601:.\Generated_Source\PSoC5/cyfitter_cfg.c **** 			{0x15u, 0x08u},
 602:.\Generated_Source\PSoC5/cyfitter_cfg.c **** 			{0x16u, 0x07u},
 603:.\Generated_Source\PSoC5/cyfitter_cfg.c **** 			{0x17u, 0x02u},
 604:.\Generated_Source\PSoC5/cyfitter_cfg.c **** 			{0x18u, 0x10u},
 605:.\Generated_Source\PSoC5/cyfitter_cfg.c **** 			{0x19u, 0x03u},
 606:.\Generated_Source\PSoC5/cyfitter_cfg.c **** 			{0x1Au, 0x07u},
 607:.\Generated_Source\PSoC5/cyfitter_cfg.c **** 			{0x1Cu, 0x03u},
 608:.\Generated_Source\PSoC5/cyfitter_cfg.c **** 			{0x1Fu, 0x14u},
 609:.\Generated_Source\PSoC5/cyfitter_cfg.c **** 			{0x20u, 0x7Fu},
 610:.\Generated_Source\PSoC5/cyfitter_cfg.c **** 			{0x21u, 0x1Fu},
 611:.\Generated_Source\PSoC5/cyfitter_cfg.c **** 			{0x24u, 0x01u},
 612:.\Generated_Source\PSoC5/cyfitter_cfg.c **** 			{0x25u, 0x0Fu},
 613:.\Generated_Source\PSoC5/cyfitter_cfg.c **** 			{0x28u, 0x01u},
 614:.\Generated_Source\PSoC5/cyfitter_cfg.c **** 			{0x2Bu, 0x0Bu},
 615:.\Generated_Source\PSoC5/cyfitter_cfg.c **** 			{0x2Cu, 0x05u},
 616:.\Generated_Source\PSoC5/cyfitter_cfg.c **** 			{0x2Du, 0x10u},
 617:.\Generated_Source\PSoC5/cyfitter_cfg.c **** 			{0x2Eu, 0x78u},
 618:.\Generated_Source\PSoC5/cyfitter_cfg.c **** 			{0x2Fu, 0x0Bu},
 619:.\Generated_Source\PSoC5/cyfitter_cfg.c **** 			{0x35u, 0x1Fu},
 620:.\Generated_Source\PSoC5/cyfitter_cfg.c **** 			{0x36u, 0x7Fu},
 621:.\Generated_Source\PSoC5/cyfitter_cfg.c **** 			{0x39u, 0x08u},
 622:.\Generated_Source\PSoC5/cyfitter_cfg.c **** 			{0x3Eu, 0x40u},
 623:.\Generated_Source\PSoC5/cyfitter_cfg.c **** 			{0x3Fu, 0x04u},
 624:.\Generated_Source\PSoC5/cyfitter_cfg.c **** 			{0x40u, 0x51u},
 625:.\Generated_Source\PSoC5/cyfitter_cfg.c **** 			{0x49u, 0xFFu},
 626:.\Generated_Source\PSoC5/cyfitter_cfg.c **** 			{0x4Au, 0xFFu},
 627:.\Generated_Source\PSoC5/cyfitter_cfg.c **** 			{0x4Bu, 0xFFu},
 628:.\Generated_Source\PSoC5/cyfitter_cfg.c **** 			{0x4Fu, 0x01u},
 629:.\Generated_Source\PSoC5/cyfitter_cfg.c **** 			{0x50u, 0x18u},
 630:.\Generated_Source\PSoC5/cyfitter_cfg.c **** 			{0x52u, 0xF6u},
 631:.\Generated_Source\PSoC5/cyfitter_cfg.c **** 			{0x58u, 0x04u},
 632:.\Generated_Source\PSoC5/cyfitter_cfg.c **** 			{0x59u, 0x04u},
 633:.\Generated_Source\PSoC5/cyfitter_cfg.c **** 			{0x5Au, 0x04u},
 634:.\Generated_Source\PSoC5/cyfitter_cfg.c **** 			{0x5Bu, 0x04u},
 635:.\Generated_Source\PSoC5/cyfitter_cfg.c **** 			{0x5Cu, 0x20u},
 636:.\Generated_Source\PSoC5/cyfitter_cfg.c **** 			{0x5Du, 0x25u},
 637:.\Generated_Source\PSoC5/cyfitter_cfg.c **** 			{0x5Fu, 0x01u},
 638:.\Generated_Source\PSoC5/cyfitter_cfg.c **** 			{0x60u, 0x40u},
 639:.\Generated_Source\PSoC5/cyfitter_cfg.c **** 			{0x62u, 0x40u},
 640:.\Generated_Source\PSoC5/cyfitter_cfg.c **** 			{0x64u, 0x40u},
 641:.\Generated_Source\PSoC5/cyfitter_cfg.c **** 			{0x65u, 0x40u},
 642:.\Generated_Source\PSoC5/cyfitter_cfg.c **** 			{0x66u, 0x80u},
 643:.\Generated_Source\PSoC5/cyfitter_cfg.c **** 			{0x68u, 0x80u},
 644:.\Generated_Source\PSoC5/cyfitter_cfg.c **** 			{0x6Au, 0x80u},
 645:.\Generated_Source\PSoC5/cyfitter_cfg.c **** 			{0x6Cu, 0x80u},
 646:.\Generated_Source\PSoC5/cyfitter_cfg.c **** 			{0x6Eu, 0x80u},
 647:.\Generated_Source\PSoC5/cyfitter_cfg.c **** 			{0xC0u, 0x51u},
 648:.\Generated_Source\PSoC5/cyfitter_cfg.c **** 			{0xC9u, 0xFFu},
 649:.\Generated_Source\PSoC5/cyfitter_cfg.c **** 			{0xCAu, 0xFFu},
 650:.\Generated_Source\PSoC5/cyfitter_cfg.c **** 			{0xCBu, 0xFFu},
ARM GAS  C:\Users\xavieran\AppData\Local\Temp\ccJfmadl.s 			page 21


 651:.\Generated_Source\PSoC5/cyfitter_cfg.c **** 			{0xCDu, 0x83u},
 652:.\Generated_Source\PSoC5/cyfitter_cfg.c **** 			{0xCEu, 0x03u},
 653:.\Generated_Source\PSoC5/cyfitter_cfg.c **** 			{0xCFu, 0x01u},
 654:.\Generated_Source\PSoC5/cyfitter_cfg.c **** 			{0xD0u, 0x18u},
 655:.\Generated_Source\PSoC5/cyfitter_cfg.c **** 			{0xDAu, 0x04u},
 656:.\Generated_Source\PSoC5/cyfitter_cfg.c **** 			{0xDDu, 0x05u},
 657:.\Generated_Source\PSoC5/cyfitter_cfg.c **** 			{0xDFu, 0x01u},
 658:.\Generated_Source\PSoC5/cyfitter_cfg.c **** 			{0xE0u, 0x40u},
 659:.\Generated_Source\PSoC5/cyfitter_cfg.c **** 			{0xE2u, 0x40u},
 660:.\Generated_Source\PSoC5/cyfitter_cfg.c **** 			{0xE4u, 0x40u},
 661:.\Generated_Source\PSoC5/cyfitter_cfg.c **** 			{0xE5u, 0x40u},
 662:.\Generated_Source\PSoC5/cyfitter_cfg.c **** 			{0xE6u, 0x80u},
 663:.\Generated_Source\PSoC5/cyfitter_cfg.c **** 			{0xE8u, 0x80u},
 664:.\Generated_Source\PSoC5/cyfitter_cfg.c **** 			{0xEAu, 0x80u},
 665:.\Generated_Source\PSoC5/cyfitter_cfg.c **** 			{0xECu, 0x80u},
 666:.\Generated_Source\PSoC5/cyfitter_cfg.c **** 			{0xEEu, 0x80u},
 667:.\Generated_Source\PSoC5/cyfitter_cfg.c **** 			{0x00u, 0x40u},
 668:.\Generated_Source\PSoC5/cyfitter_cfg.c **** 			{0x01u, 0x02u},
 669:.\Generated_Source\PSoC5/cyfitter_cfg.c **** 			{0x02u, 0x20u},
 670:.\Generated_Source\PSoC5/cyfitter_cfg.c **** 			{0x03u, 0x04u},
 671:.\Generated_Source\PSoC5/cyfitter_cfg.c **** 			{0x08u, 0x01u},
 672:.\Generated_Source\PSoC5/cyfitter_cfg.c **** 			{0x09u, 0x08u},
 673:.\Generated_Source\PSoC5/cyfitter_cfg.c **** 			{0x0Au, 0x02u},
 674:.\Generated_Source\PSoC5/cyfitter_cfg.c **** 			{0x0Bu, 0x04u},
 675:.\Generated_Source\PSoC5/cyfitter_cfg.c **** 			{0x11u, 0x04u},
 676:.\Generated_Source\PSoC5/cyfitter_cfg.c **** 			{0x12u, 0x82u},
 677:.\Generated_Source\PSoC5/cyfitter_cfg.c **** 			{0x13u, 0x10u},
 678:.\Generated_Source\PSoC5/cyfitter_cfg.c **** 			{0x1Au, 0x01u},
 679:.\Generated_Source\PSoC5/cyfitter_cfg.c **** 			{0x20u, 0x20u},
 680:.\Generated_Source\PSoC5/cyfitter_cfg.c **** 			{0x21u, 0x10u},
 681:.\Generated_Source\PSoC5/cyfitter_cfg.c **** 			{0x22u, 0x20u},
 682:.\Generated_Source\PSoC5/cyfitter_cfg.c **** 			{0x28u, 0x01u},
 683:.\Generated_Source\PSoC5/cyfitter_cfg.c **** 			{0x29u, 0x04u},
 684:.\Generated_Source\PSoC5/cyfitter_cfg.c **** 			{0x2Au, 0x10u},
 685:.\Generated_Source\PSoC5/cyfitter_cfg.c **** 			{0x2Bu, 0x80u},
 686:.\Generated_Source\PSoC5/cyfitter_cfg.c **** 			{0x30u, 0x10u},
 687:.\Generated_Source\PSoC5/cyfitter_cfg.c **** 			{0x31u, 0x08u},
 688:.\Generated_Source\PSoC5/cyfitter_cfg.c **** 			{0x32u, 0x01u},
 689:.\Generated_Source\PSoC5/cyfitter_cfg.c **** 			{0x33u, 0x40u},
 690:.\Generated_Source\PSoC5/cyfitter_cfg.c **** 			{0x38u, 0x40u},
 691:.\Generated_Source\PSoC5/cyfitter_cfg.c **** 			{0x39u, 0x04u},
 692:.\Generated_Source\PSoC5/cyfitter_cfg.c **** 			{0x3Bu, 0x12u},
 693:.\Generated_Source\PSoC5/cyfitter_cfg.c **** 			{0x41u, 0x80u},
 694:.\Generated_Source\PSoC5/cyfitter_cfg.c **** 			{0x44u, 0x10u},
 695:.\Generated_Source\PSoC5/cyfitter_cfg.c **** 			{0x45u, 0x80u},
 696:.\Generated_Source\PSoC5/cyfitter_cfg.c **** 			{0x47u, 0x04u},
 697:.\Generated_Source\PSoC5/cyfitter_cfg.c **** 			{0x48u, 0x02u},
 698:.\Generated_Source\PSoC5/cyfitter_cfg.c **** 			{0x4Cu, 0x02u},
 699:.\Generated_Source\PSoC5/cyfitter_cfg.c **** 			{0x69u, 0x14u},
 700:.\Generated_Source\PSoC5/cyfitter_cfg.c **** 			{0x70u, 0x84u},
 701:.\Generated_Source\PSoC5/cyfitter_cfg.c **** 			{0x71u, 0x10u},
 702:.\Generated_Source\PSoC5/cyfitter_cfg.c **** 			{0x72u, 0x82u},
 703:.\Generated_Source\PSoC5/cyfitter_cfg.c **** 			{0x73u, 0x10u},
 704:.\Generated_Source\PSoC5/cyfitter_cfg.c **** 			{0x81u, 0x02u},
 705:.\Generated_Source\PSoC5/cyfitter_cfg.c **** 			{0x82u, 0x12u},
 706:.\Generated_Source\PSoC5/cyfitter_cfg.c **** 			{0x83u, 0x01u},
 707:.\Generated_Source\PSoC5/cyfitter_cfg.c **** 			{0x84u, 0x01u},
ARM GAS  C:\Users\xavieran\AppData\Local\Temp\ccJfmadl.s 			page 22


 708:.\Generated_Source\PSoC5/cyfitter_cfg.c **** 			{0x8Au, 0x02u},
 709:.\Generated_Source\PSoC5/cyfitter_cfg.c **** 			{0x8Cu, 0x04u},
 710:.\Generated_Source\PSoC5/cyfitter_cfg.c **** 			{0x94u, 0x08u},
 711:.\Generated_Source\PSoC5/cyfitter_cfg.c **** 			{0x96u, 0x02u},
 712:.\Generated_Source\PSoC5/cyfitter_cfg.c **** 			{0x9Au, 0x08u},
 713:.\Generated_Source\PSoC5/cyfitter_cfg.c **** 			{0x9Du, 0x54u},
 714:.\Generated_Source\PSoC5/cyfitter_cfg.c **** 			{0x9Eu, 0x92u},
 715:.\Generated_Source\PSoC5/cyfitter_cfg.c **** 			{0xA2u, 0x80u},
 716:.\Generated_Source\PSoC5/cyfitter_cfg.c **** 			{0xA5u, 0x08u},
 717:.\Generated_Source\PSoC5/cyfitter_cfg.c **** 			{0xA6u, 0x20u},
 718:.\Generated_Source\PSoC5/cyfitter_cfg.c **** 			{0xA8u, 0x08u},
 719:.\Generated_Source\PSoC5/cyfitter_cfg.c **** 			{0xA9u, 0x02u},
 720:.\Generated_Source\PSoC5/cyfitter_cfg.c **** 			{0xABu, 0x08u},
 721:.\Generated_Source\PSoC5/cyfitter_cfg.c **** 			{0xB0u, 0x01u},
 722:.\Generated_Source\PSoC5/cyfitter_cfg.c **** 			{0xB2u, 0x01u},
 723:.\Generated_Source\PSoC5/cyfitter_cfg.c **** 			{0xB4u, 0x10u},
 724:.\Generated_Source\PSoC5/cyfitter_cfg.c **** 			{0xC0u, 0x0Fu},
 725:.\Generated_Source\PSoC5/cyfitter_cfg.c **** 			{0xC2u, 0x0Fu},
 726:.\Generated_Source\PSoC5/cyfitter_cfg.c **** 			{0xC4u, 0x0Fu},
 727:.\Generated_Source\PSoC5/cyfitter_cfg.c **** 			{0xCAu, 0x0Fu},
 728:.\Generated_Source\PSoC5/cyfitter_cfg.c **** 			{0xCCu, 0x0Fu},
 729:.\Generated_Source\PSoC5/cyfitter_cfg.c **** 			{0xCEu, 0x0Fu},
 730:.\Generated_Source\PSoC5/cyfitter_cfg.c **** 			{0xD0u, 0x18u},
 731:.\Generated_Source\PSoC5/cyfitter_cfg.c **** 			{0xD2u, 0x18u},
 732:.\Generated_Source\PSoC5/cyfitter_cfg.c **** 			{0xE0u, 0x01u},
 733:.\Generated_Source\PSoC5/cyfitter_cfg.c **** 			{0xE2u, 0x02u},
 734:.\Generated_Source\PSoC5/cyfitter_cfg.c **** 			{0xE6u, 0x04u},
 735:.\Generated_Source\PSoC5/cyfitter_cfg.c **** 			{0xEAu, 0x04u},
 736:.\Generated_Source\PSoC5/cyfitter_cfg.c **** 			{0xEEu, 0xC2u},
 737:.\Generated_Source\PSoC5/cyfitter_cfg.c **** 			{0x12u, 0x01u},
 738:.\Generated_Source\PSoC5/cyfitter_cfg.c **** 			{0x1Eu, 0x01u},
 739:.\Generated_Source\PSoC5/cyfitter_cfg.c **** 			{0x30u, 0x01u},
 740:.\Generated_Source\PSoC5/cyfitter_cfg.c **** 			{0x3Eu, 0x01u},
 741:.\Generated_Source\PSoC5/cyfitter_cfg.c **** 			{0x40u, 0x51u},
 742:.\Generated_Source\PSoC5/cyfitter_cfg.c **** 			{0x45u, 0xECu},
 743:.\Generated_Source\PSoC5/cyfitter_cfg.c **** 			{0x46u, 0x02u},
 744:.\Generated_Source\PSoC5/cyfitter_cfg.c **** 			{0x48u, 0x07u},
 745:.\Generated_Source\PSoC5/cyfitter_cfg.c **** 			{0x49u, 0xFFu},
 746:.\Generated_Source\PSoC5/cyfitter_cfg.c **** 			{0x4Au, 0xFFu},
 747:.\Generated_Source\PSoC5/cyfitter_cfg.c **** 			{0x4Bu, 0xFFu},
 748:.\Generated_Source\PSoC5/cyfitter_cfg.c **** 			{0x4Du, 0x83u},
 749:.\Generated_Source\PSoC5/cyfitter_cfg.c **** 			{0x4Eu, 0x03u},
 750:.\Generated_Source\PSoC5/cyfitter_cfg.c **** 			{0x4Fu, 0x01u},
 751:.\Generated_Source\PSoC5/cyfitter_cfg.c **** 			{0x50u, 0x18u},
 752:.\Generated_Source\PSoC5/cyfitter_cfg.c **** 			{0x52u, 0x80u},
 753:.\Generated_Source\PSoC5/cyfitter_cfg.c **** 			{0x54u, 0x01u},
 754:.\Generated_Source\PSoC5/cyfitter_cfg.c **** 			{0x58u, 0x04u},
 755:.\Generated_Source\PSoC5/cyfitter_cfg.c **** 			{0x5Au, 0x04u},
 756:.\Generated_Source\PSoC5/cyfitter_cfg.c **** 			{0x5Bu, 0x04u},
 757:.\Generated_Source\PSoC5/cyfitter_cfg.c **** 			{0x5Du, 0x55u},
 758:.\Generated_Source\PSoC5/cyfitter_cfg.c **** 			{0x5Fu, 0x01u},
 759:.\Generated_Source\PSoC5/cyfitter_cfg.c **** 			{0x60u, 0x40u},
 760:.\Generated_Source\PSoC5/cyfitter_cfg.c **** 			{0x62u, 0x40u},
 761:.\Generated_Source\PSoC5/cyfitter_cfg.c **** 			{0x64u, 0x40u},
 762:.\Generated_Source\PSoC5/cyfitter_cfg.c **** 			{0x65u, 0x40u},
 763:.\Generated_Source\PSoC5/cyfitter_cfg.c **** 			{0x66u, 0x80u},
 764:.\Generated_Source\PSoC5/cyfitter_cfg.c **** 			{0x68u, 0x80u},
ARM GAS  C:\Users\xavieran\AppData\Local\Temp\ccJfmadl.s 			page 23


 765:.\Generated_Source\PSoC5/cyfitter_cfg.c **** 			{0x6Au, 0x80u},
 766:.\Generated_Source\PSoC5/cyfitter_cfg.c **** 			{0x6Cu, 0x80u},
 767:.\Generated_Source\PSoC5/cyfitter_cfg.c **** 			{0x6Eu, 0x80u},
 768:.\Generated_Source\PSoC5/cyfitter_cfg.c **** 			{0x80u, 0x01u},
 769:.\Generated_Source\PSoC5/cyfitter_cfg.c **** 			{0x85u, 0x08u},
 770:.\Generated_Source\PSoC5/cyfitter_cfg.c **** 			{0x86u, 0x01u},
 771:.\Generated_Source\PSoC5/cyfitter_cfg.c **** 			{0x89u, 0x02u},
 772:.\Generated_Source\PSoC5/cyfitter_cfg.c **** 			{0x8Cu, 0x01u},
 773:.\Generated_Source\PSoC5/cyfitter_cfg.c **** 			{0x8Fu, 0x01u},
 774:.\Generated_Source\PSoC5/cyfitter_cfg.c **** 			{0x93u, 0x08u},
 775:.\Generated_Source\PSoC5/cyfitter_cfg.c **** 			{0x94u, 0x01u},
 776:.\Generated_Source\PSoC5/cyfitter_cfg.c **** 			{0x95u, 0x02u},
 777:.\Generated_Source\PSoC5/cyfitter_cfg.c **** 			{0x99u, 0x02u},
 778:.\Generated_Source\PSoC5/cyfitter_cfg.c **** 			{0x9Du, 0x08u},
 779:.\Generated_Source\PSoC5/cyfitter_cfg.c **** 			{0x9Eu, 0x02u},
 780:.\Generated_Source\PSoC5/cyfitter_cfg.c **** 			{0xA0u, 0x01u},
 781:.\Generated_Source\PSoC5/cyfitter_cfg.c **** 			{0xA1u, 0x02u},
 782:.\Generated_Source\PSoC5/cyfitter_cfg.c **** 			{0xA4u, 0x01u},
 783:.\Generated_Source\PSoC5/cyfitter_cfg.c **** 			{0xA8u, 0x04u},
 784:.\Generated_Source\PSoC5/cyfitter_cfg.c **** 			{0xA9u, 0x02u},
 785:.\Generated_Source\PSoC5/cyfitter_cfg.c **** 			{0xADu, 0x04u},
 786:.\Generated_Source\PSoC5/cyfitter_cfg.c **** 			{0xB1u, 0x08u},
 787:.\Generated_Source\PSoC5/cyfitter_cfg.c **** 			{0xB2u, 0x03u},
 788:.\Generated_Source\PSoC5/cyfitter_cfg.c **** 			{0xB3u, 0x07u},
 789:.\Generated_Source\PSoC5/cyfitter_cfg.c **** 			{0xB6u, 0x04u},
 790:.\Generated_Source\PSoC5/cyfitter_cfg.c **** 			{0xB9u, 0x08u},
 791:.\Generated_Source\PSoC5/cyfitter_cfg.c **** 			{0xBFu, 0x04u},
 792:.\Generated_Source\PSoC5/cyfitter_cfg.c **** 			{0xD8u, 0x04u},
 793:.\Generated_Source\PSoC5/cyfitter_cfg.c **** 			{0xD9u, 0x04u},
 794:.\Generated_Source\PSoC5/cyfitter_cfg.c **** 			{0xDCu, 0x22u},
 795:.\Generated_Source\PSoC5/cyfitter_cfg.c **** 			{0xDFu, 0x01u},
 796:.\Generated_Source\PSoC5/cyfitter_cfg.c **** 			{0x01u, 0x8Au},
 797:.\Generated_Source\PSoC5/cyfitter_cfg.c **** 			{0x09u, 0x08u},
 798:.\Generated_Source\PSoC5/cyfitter_cfg.c **** 			{0x0Au, 0x01u},
 799:.\Generated_Source\PSoC5/cyfitter_cfg.c **** 			{0x0Cu, 0x02u},
 800:.\Generated_Source\PSoC5/cyfitter_cfg.c **** 			{0x0Du, 0x80u},
 801:.\Generated_Source\PSoC5/cyfitter_cfg.c **** 			{0x10u, 0xA0u},
 802:.\Generated_Source\PSoC5/cyfitter_cfg.c **** 			{0x11u, 0x10u},
 803:.\Generated_Source\PSoC5/cyfitter_cfg.c **** 			{0x19u, 0xCCu},
 804:.\Generated_Source\PSoC5/cyfitter_cfg.c **** 			{0x1Au, 0x10u},
 805:.\Generated_Source\PSoC5/cyfitter_cfg.c **** 			{0x1Bu, 0x04u},
 806:.\Generated_Source\PSoC5/cyfitter_cfg.c **** 			{0x1Eu, 0x80u},
 807:.\Generated_Source\PSoC5/cyfitter_cfg.c **** 			{0x20u, 0x20u},
 808:.\Generated_Source\PSoC5/cyfitter_cfg.c **** 			{0x21u, 0x04u},
 809:.\Generated_Source\PSoC5/cyfitter_cfg.c **** 			{0x22u, 0x01u},
 810:.\Generated_Source\PSoC5/cyfitter_cfg.c **** 			{0x28u, 0x01u},
 811:.\Generated_Source\PSoC5/cyfitter_cfg.c **** 			{0x29u, 0x02u},
 812:.\Generated_Source\PSoC5/cyfitter_cfg.c **** 			{0x2Bu, 0x04u},
 813:.\Generated_Source\PSoC5/cyfitter_cfg.c **** 			{0x30u, 0x20u},
 814:.\Generated_Source\PSoC5/cyfitter_cfg.c **** 			{0x31u, 0x48u},
 815:.\Generated_Source\PSoC5/cyfitter_cfg.c **** 			{0x32u, 0x01u},
 816:.\Generated_Source\PSoC5/cyfitter_cfg.c **** 			{0x39u, 0xA8u},
 817:.\Generated_Source\PSoC5/cyfitter_cfg.c **** 			{0x45u, 0x80u},
 818:.\Generated_Source\PSoC5/cyfitter_cfg.c **** 			{0x4Cu, 0x02u},
 819:.\Generated_Source\PSoC5/cyfitter_cfg.c **** 			{0x4Du, 0x04u},
 820:.\Generated_Source\PSoC5/cyfitter_cfg.c **** 			{0x4Fu, 0x01u},
 821:.\Generated_Source\PSoC5/cyfitter_cfg.c **** 			{0x55u, 0x80u},
ARM GAS  C:\Users\xavieran\AppData\Local\Temp\ccJfmadl.s 			page 24


 822:.\Generated_Source\PSoC5/cyfitter_cfg.c **** 			{0x5Du, 0x04u},
 823:.\Generated_Source\PSoC5/cyfitter_cfg.c **** 			{0x5Eu, 0x80u},
 824:.\Generated_Source\PSoC5/cyfitter_cfg.c **** 			{0x5Fu, 0x01u},
 825:.\Generated_Source\PSoC5/cyfitter_cfg.c **** 			{0x74u, 0x02u},
 826:.\Generated_Source\PSoC5/cyfitter_cfg.c **** 			{0x83u, 0x04u},
 827:.\Generated_Source\PSoC5/cyfitter_cfg.c **** 			{0x86u, 0x08u},
 828:.\Generated_Source\PSoC5/cyfitter_cfg.c **** 			{0x88u, 0x20u},
 829:.\Generated_Source\PSoC5/cyfitter_cfg.c **** 			{0x8Au, 0x10u},
 830:.\Generated_Source\PSoC5/cyfitter_cfg.c **** 			{0x8Bu, 0x04u},
 831:.\Generated_Source\PSoC5/cyfitter_cfg.c **** 			{0x8Du, 0x40u},
 832:.\Generated_Source\PSoC5/cyfitter_cfg.c **** 			{0x8Fu, 0x04u},
 833:.\Generated_Source\PSoC5/cyfitter_cfg.c **** 			{0x91u, 0x30u},
 834:.\Generated_Source\PSoC5/cyfitter_cfg.c **** 			{0x92u, 0x01u},
 835:.\Generated_Source\PSoC5/cyfitter_cfg.c **** 			{0x96u, 0x12u},
 836:.\Generated_Source\PSoC5/cyfitter_cfg.c **** 			{0x97u, 0x04u},
 837:.\Generated_Source\PSoC5/cyfitter_cfg.c **** 			{0x98u, 0x01u},
 838:.\Generated_Source\PSoC5/cyfitter_cfg.c **** 			{0x99u, 0x02u},
 839:.\Generated_Source\PSoC5/cyfitter_cfg.c **** 			{0x9Au, 0x08u},
 840:.\Generated_Source\PSoC5/cyfitter_cfg.c **** 			{0x9Du, 0x44u},
 841:.\Generated_Source\PSoC5/cyfitter_cfg.c **** 			{0x9Eu, 0x10u},
 842:.\Generated_Source\PSoC5/cyfitter_cfg.c **** 			{0x9Fu, 0x04u},
 843:.\Generated_Source\PSoC5/cyfitter_cfg.c **** 			{0xA0u, 0x80u},
 844:.\Generated_Source\PSoC5/cyfitter_cfg.c **** 			{0xA1u, 0x08u},
 845:.\Generated_Source\PSoC5/cyfitter_cfg.c **** 			{0xA4u, 0x02u},
 846:.\Generated_Source\PSoC5/cyfitter_cfg.c **** 			{0xA5u, 0x80u},
 847:.\Generated_Source\PSoC5/cyfitter_cfg.c **** 			{0xACu, 0x10u},
 848:.\Generated_Source\PSoC5/cyfitter_cfg.c **** 			{0xADu, 0x40u},
 849:.\Generated_Source\PSoC5/cyfitter_cfg.c **** 			{0xAFu, 0x80u},
 850:.\Generated_Source\PSoC5/cyfitter_cfg.c **** 			{0xB1u, 0x08u},
 851:.\Generated_Source\PSoC5/cyfitter_cfg.c **** 			{0xB2u, 0x01u},
 852:.\Generated_Source\PSoC5/cyfitter_cfg.c **** 			{0xB4u, 0x40u},
 853:.\Generated_Source\PSoC5/cyfitter_cfg.c **** 			{0xB5u, 0x10u},
 854:.\Generated_Source\PSoC5/cyfitter_cfg.c **** 			{0xB6u, 0x20u},
 855:.\Generated_Source\PSoC5/cyfitter_cfg.c **** 			{0xB7u, 0x40u},
 856:.\Generated_Source\PSoC5/cyfitter_cfg.c **** 			{0xC0u, 0x0Du},
 857:.\Generated_Source\PSoC5/cyfitter_cfg.c **** 			{0xC2u, 0x95u},
 858:.\Generated_Source\PSoC5/cyfitter_cfg.c **** 			{0xC4u, 0x0Eu},
 859:.\Generated_Source\PSoC5/cyfitter_cfg.c **** 			{0xCAu, 0x0Du},
 860:.\Generated_Source\PSoC5/cyfitter_cfg.c **** 			{0xCCu, 0x0Fu},
 861:.\Generated_Source\PSoC5/cyfitter_cfg.c **** 			{0xCEu, 0x0Eu},
 862:.\Generated_Source\PSoC5/cyfitter_cfg.c **** 			{0xD0u, 0x10u},
 863:.\Generated_Source\PSoC5/cyfitter_cfg.c **** 			{0xD2u, 0x10u},
 864:.\Generated_Source\PSoC5/cyfitter_cfg.c **** 			{0xD6u, 0xD0u},
 865:.\Generated_Source\PSoC5/cyfitter_cfg.c **** 			{0xE2u, 0x04u},
 866:.\Generated_Source\PSoC5/cyfitter_cfg.c **** 			{0xE4u, 0x04u},
 867:.\Generated_Source\PSoC5/cyfitter_cfg.c **** 			{0xECu, 0x08u},
 868:.\Generated_Source\PSoC5/cyfitter_cfg.c **** 			{0x01u, 0x02u},
 869:.\Generated_Source\PSoC5/cyfitter_cfg.c **** 			{0x03u, 0x18u},
 870:.\Generated_Source\PSoC5/cyfitter_cfg.c **** 			{0x04u, 0x04u},
 871:.\Generated_Source\PSoC5/cyfitter_cfg.c **** 			{0x05u, 0x01u},
 872:.\Generated_Source\PSoC5/cyfitter_cfg.c **** 			{0x06u, 0x03u},
 873:.\Generated_Source\PSoC5/cyfitter_cfg.c **** 			{0x08u, 0x06u},
 874:.\Generated_Source\PSoC5/cyfitter_cfg.c **** 			{0x09u, 0x18u},
 875:.\Generated_Source\PSoC5/cyfitter_cfg.c **** 			{0x0Bu, 0x06u},
 876:.\Generated_Source\PSoC5/cyfitter_cfg.c **** 			{0x0Cu, 0x02u},
 877:.\Generated_Source\PSoC5/cyfitter_cfg.c **** 			{0x0Du, 0x04u},
 878:.\Generated_Source\PSoC5/cyfitter_cfg.c **** 			{0x0Eu, 0x08u},
ARM GAS  C:\Users\xavieran\AppData\Local\Temp\ccJfmadl.s 			page 25


 879:.\Generated_Source\PSoC5/cyfitter_cfg.c **** 			{0x11u, 0x02u},
 880:.\Generated_Source\PSoC5/cyfitter_cfg.c **** 			{0x14u, 0x02u},
 881:.\Generated_Source\PSoC5/cyfitter_cfg.c **** 			{0x15u, 0x1Cu},
 882:.\Generated_Source\PSoC5/cyfitter_cfg.c **** 			{0x16u, 0x0Cu},
 883:.\Generated_Source\PSoC5/cyfitter_cfg.c **** 			{0x17u, 0x02u},
 884:.\Generated_Source\PSoC5/cyfitter_cfg.c **** 			{0x19u, 0x0Au},
 885:.\Generated_Source\PSoC5/cyfitter_cfg.c **** 			{0x1Au, 0x06u},
 886:.\Generated_Source\PSoC5/cyfitter_cfg.c **** 			{0x1Bu, 0x10u},
 887:.\Generated_Source\PSoC5/cyfitter_cfg.c **** 			{0x1Du, 0x01u},
 888:.\Generated_Source\PSoC5/cyfitter_cfg.c **** 			{0x1Fu, 0x1Eu},
 889:.\Generated_Source\PSoC5/cyfitter_cfg.c **** 			{0x21u, 0x3Fu},
 890:.\Generated_Source\PSoC5/cyfitter_cfg.c **** 			{0x22u, 0x06u},
 891:.\Generated_Source\PSoC5/cyfitter_cfg.c **** 			{0x24u, 0x06u},
 892:.\Generated_Source\PSoC5/cyfitter_cfg.c **** 			{0x25u, 0x06u},
 893:.\Generated_Source\PSoC5/cyfitter_cfg.c **** 			{0x29u, 0x20u},
 894:.\Generated_Source\PSoC5/cyfitter_cfg.c **** 			{0x2Au, 0x06u},
 895:.\Generated_Source\PSoC5/cyfitter_cfg.c **** 			{0x2Du, 0x12u},
 896:.\Generated_Source\PSoC5/cyfitter_cfg.c **** 			{0x2Eu, 0x06u},
 897:.\Generated_Source\PSoC5/cyfitter_cfg.c **** 			{0x2Fu, 0x08u},
 898:.\Generated_Source\PSoC5/cyfitter_cfg.c **** 			{0x32u, 0x0Eu},
 899:.\Generated_Source\PSoC5/cyfitter_cfg.c **** 			{0x33u, 0x1Fu},
 900:.\Generated_Source\PSoC5/cyfitter_cfg.c **** 			{0x36u, 0x01u},
 901:.\Generated_Source\PSoC5/cyfitter_cfg.c **** 			{0x37u, 0x20u},
 902:.\Generated_Source\PSoC5/cyfitter_cfg.c **** 			{0x39u, 0x88u},
 903:.\Generated_Source\PSoC5/cyfitter_cfg.c **** 			{0x3Au, 0x08u},
 904:.\Generated_Source\PSoC5/cyfitter_cfg.c **** 			{0x40u, 0x25u},
 905:.\Generated_Source\PSoC5/cyfitter_cfg.c **** 			{0x44u, 0x01u},
 906:.\Generated_Source\PSoC5/cyfitter_cfg.c **** 			{0x46u, 0x0Bu},
 907:.\Generated_Source\PSoC5/cyfitter_cfg.c **** 			{0x47u, 0x0Du},
 908:.\Generated_Source\PSoC5/cyfitter_cfg.c **** 			{0x48u, 0x14u},
 909:.\Generated_Source\PSoC5/cyfitter_cfg.c **** 			{0x49u, 0xFFu},
 910:.\Generated_Source\PSoC5/cyfitter_cfg.c **** 			{0x4Au, 0x7Fu},
 911:.\Generated_Source\PSoC5/cyfitter_cfg.c **** 			{0x4Bu, 0xFFu},
 912:.\Generated_Source\PSoC5/cyfitter_cfg.c **** 			{0x4Cu, 0x42u},
 913:.\Generated_Source\PSoC5/cyfitter_cfg.c **** 			{0x4Du, 0xA0u},
 914:.\Generated_Source\PSoC5/cyfitter_cfg.c **** 			{0x4Eu, 0x70u},
 915:.\Generated_Source\PSoC5/cyfitter_cfg.c **** 			{0x50u, 0x0Cu},
 916:.\Generated_Source\PSoC5/cyfitter_cfg.c **** 			{0x58u, 0x04u},
 917:.\Generated_Source\PSoC5/cyfitter_cfg.c **** 			{0x59u, 0x04u},
 918:.\Generated_Source\PSoC5/cyfitter_cfg.c **** 			{0x5Au, 0x04u},
 919:.\Generated_Source\PSoC5/cyfitter_cfg.c **** 			{0x5Cu, 0x22u},
 920:.\Generated_Source\PSoC5/cyfitter_cfg.c **** 			{0x5Du, 0x02u},
 921:.\Generated_Source\PSoC5/cyfitter_cfg.c **** 			{0x5Fu, 0x01u},
 922:.\Generated_Source\PSoC5/cyfitter_cfg.c **** 			{0x61u, 0x09u},
 923:.\Generated_Source\PSoC5/cyfitter_cfg.c **** 			{0x62u, 0x40u},
 924:.\Generated_Source\PSoC5/cyfitter_cfg.c **** 			{0x63u, 0x09u},
 925:.\Generated_Source\PSoC5/cyfitter_cfg.c **** 			{0x64u, 0x30u},
 926:.\Generated_Source\PSoC5/cyfitter_cfg.c **** 			{0x65u, 0x09u},
 927:.\Generated_Source\PSoC5/cyfitter_cfg.c **** 			{0x81u, 0x0Eu},
 928:.\Generated_Source\PSoC5/cyfitter_cfg.c **** 			{0x83u, 0x30u},
 929:.\Generated_Source\PSoC5/cyfitter_cfg.c **** 			{0x86u, 0x01u},
 930:.\Generated_Source\PSoC5/cyfitter_cfg.c **** 			{0x89u, 0x40u},
 931:.\Generated_Source\PSoC5/cyfitter_cfg.c **** 			{0x8Bu, 0x13u},
 932:.\Generated_Source\PSoC5/cyfitter_cfg.c **** 			{0x94u, 0x02u},
 933:.\Generated_Source\PSoC5/cyfitter_cfg.c **** 			{0x97u, 0x01u},
 934:.\Generated_Source\PSoC5/cyfitter_cfg.c **** 			{0x99u, 0x2Au},
 935:.\Generated_Source\PSoC5/cyfitter_cfg.c **** 			{0x9Bu, 0x54u},
ARM GAS  C:\Users\xavieran\AppData\Local\Temp\ccJfmadl.s 			page 26


 936:.\Generated_Source\PSoC5/cyfitter_cfg.c **** 			{0x9Cu, 0x04u},
 937:.\Generated_Source\PSoC5/cyfitter_cfg.c **** 			{0x9Eu, 0x08u},
 938:.\Generated_Source\PSoC5/cyfitter_cfg.c **** 			{0xA0u, 0x04u},
 939:.\Generated_Source\PSoC5/cyfitter_cfg.c **** 			{0xA1u, 0xFFu},
 940:.\Generated_Source\PSoC5/cyfitter_cfg.c **** 			{0xA2u, 0x08u},
 941:.\Generated_Source\PSoC5/cyfitter_cfg.c **** 			{0xA5u, 0x33u},
 942:.\Generated_Source\PSoC5/cyfitter_cfg.c **** 			{0xA7u, 0x0Cu},
 943:.\Generated_Source\PSoC5/cyfitter_cfg.c **** 			{0xA9u, 0x80u},
 944:.\Generated_Source\PSoC5/cyfitter_cfg.c **** 			{0xABu, 0x56u},
 945:.\Generated_Source\PSoC5/cyfitter_cfg.c **** 			{0xACu, 0x02u},
 946:.\Generated_Source\PSoC5/cyfitter_cfg.c **** 			{0xADu, 0x46u},
 947:.\Generated_Source\PSoC5/cyfitter_cfg.c **** 			{0xAFu, 0xA9u},
 948:.\Generated_Source\PSoC5/cyfitter_cfg.c **** 			{0xB0u, 0x01u},
 949:.\Generated_Source\PSoC5/cyfitter_cfg.c **** 			{0xB5u, 0xFFu},
 950:.\Generated_Source\PSoC5/cyfitter_cfg.c **** 			{0xB6u, 0x0Eu},
 951:.\Generated_Source\PSoC5/cyfitter_cfg.c **** 			{0xB8u, 0x80u},
 952:.\Generated_Source\PSoC5/cyfitter_cfg.c **** 			{0xBEu, 0x40u},
 953:.\Generated_Source\PSoC5/cyfitter_cfg.c **** 			{0xD8u, 0x04u},
 954:.\Generated_Source\PSoC5/cyfitter_cfg.c **** 			{0xD9u, 0x04u},
 955:.\Generated_Source\PSoC5/cyfitter_cfg.c **** 			{0xDCu, 0x28u},
 956:.\Generated_Source\PSoC5/cyfitter_cfg.c **** 			{0xDFu, 0x31u},
 957:.\Generated_Source\PSoC5/cyfitter_cfg.c **** 			{0x00u, 0x08u},
 958:.\Generated_Source\PSoC5/cyfitter_cfg.c **** 			{0x05u, 0x58u},
 959:.\Generated_Source\PSoC5/cyfitter_cfg.c **** 			{0x09u, 0x08u},
 960:.\Generated_Source\PSoC5/cyfitter_cfg.c **** 			{0x0Bu, 0x02u},
 961:.\Generated_Source\PSoC5/cyfitter_cfg.c **** 			{0x0Eu, 0x28u},
 962:.\Generated_Source\PSoC5/cyfitter_cfg.c **** 			{0x10u, 0x02u},
 963:.\Generated_Source\PSoC5/cyfitter_cfg.c **** 			{0x11u, 0x02u},
 964:.\Generated_Source\PSoC5/cyfitter_cfg.c **** 			{0x13u, 0x02u},
 965:.\Generated_Source\PSoC5/cyfitter_cfg.c **** 			{0x16u, 0x02u},
 966:.\Generated_Source\PSoC5/cyfitter_cfg.c **** 			{0x17u, 0x2Au},
 967:.\Generated_Source\PSoC5/cyfitter_cfg.c **** 			{0x18u, 0x80u},
 968:.\Generated_Source\PSoC5/cyfitter_cfg.c **** 			{0x1Au, 0x02u},
 969:.\Generated_Source\PSoC5/cyfitter_cfg.c **** 			{0x1Du, 0x80u},
 970:.\Generated_Source\PSoC5/cyfitter_cfg.c **** 			{0x1Eu, 0x20u},
 971:.\Generated_Source\PSoC5/cyfitter_cfg.c **** 			{0x21u, 0x10u},
 972:.\Generated_Source\PSoC5/cyfitter_cfg.c **** 			{0x23u, 0x08u},
 973:.\Generated_Source\PSoC5/cyfitter_cfg.c **** 			{0x25u, 0x04u},
 974:.\Generated_Source\PSoC5/cyfitter_cfg.c **** 			{0x26u, 0x80u},
 975:.\Generated_Source\PSoC5/cyfitter_cfg.c **** 			{0x28u, 0x40u},
 976:.\Generated_Source\PSoC5/cyfitter_cfg.c **** 			{0x29u, 0x20u},
 977:.\Generated_Source\PSoC5/cyfitter_cfg.c **** 			{0x2Au, 0x80u},
 978:.\Generated_Source\PSoC5/cyfitter_cfg.c **** 			{0x2Bu, 0x10u},
 979:.\Generated_Source\PSoC5/cyfitter_cfg.c **** 			{0x2Cu, 0x40u},
 980:.\Generated_Source\PSoC5/cyfitter_cfg.c **** 			{0x2Du, 0x20u},
 981:.\Generated_Source\PSoC5/cyfitter_cfg.c **** 			{0x2Eu, 0x80u},
 982:.\Generated_Source\PSoC5/cyfitter_cfg.c **** 			{0x2Fu, 0x10u},
 983:.\Generated_Source\PSoC5/cyfitter_cfg.c **** 			{0x30u, 0x08u},
 984:.\Generated_Source\PSoC5/cyfitter_cfg.c **** 			{0x32u, 0x10u},
 985:.\Generated_Source\PSoC5/cyfitter_cfg.c **** 			{0x35u, 0x12u},
 986:.\Generated_Source\PSoC5/cyfitter_cfg.c **** 			{0x36u, 0x84u},
 987:.\Generated_Source\PSoC5/cyfitter_cfg.c **** 			{0x3Au, 0x10u},
 988:.\Generated_Source\PSoC5/cyfitter_cfg.c **** 			{0x3Bu, 0x02u},
 989:.\Generated_Source\PSoC5/cyfitter_cfg.c **** 			{0x3Du, 0x08u},
 990:.\Generated_Source\PSoC5/cyfitter_cfg.c **** 			{0x3Eu, 0x02u},
 991:.\Generated_Source\PSoC5/cyfitter_cfg.c **** 			{0x3Fu, 0xA0u},
 992:.\Generated_Source\PSoC5/cyfitter_cfg.c **** 			{0x45u, 0xA0u},
ARM GAS  C:\Users\xavieran\AppData\Local\Temp\ccJfmadl.s 			page 27


 993:.\Generated_Source\PSoC5/cyfitter_cfg.c **** 			{0x47u, 0x40u},
 994:.\Generated_Source\PSoC5/cyfitter_cfg.c **** 			{0x4Eu, 0x01u},
 995:.\Generated_Source\PSoC5/cyfitter_cfg.c **** 			{0x54u, 0x08u},
 996:.\Generated_Source\PSoC5/cyfitter_cfg.c **** 			{0x56u, 0x04u},
 997:.\Generated_Source\PSoC5/cyfitter_cfg.c **** 			{0x57u, 0x40u},
 998:.\Generated_Source\PSoC5/cyfitter_cfg.c **** 			{0x78u, 0x01u},
 999:.\Generated_Source\PSoC5/cyfitter_cfg.c **** 			{0x82u, 0x04u},
1000:.\Generated_Source\PSoC5/cyfitter_cfg.c **** 			{0x83u, 0x01u},
1001:.\Generated_Source\PSoC5/cyfitter_cfg.c **** 			{0x89u, 0x10u},
1002:.\Generated_Source\PSoC5/cyfitter_cfg.c **** 			{0x8Au, 0x80u},
1003:.\Generated_Source\PSoC5/cyfitter_cfg.c **** 			{0x8Du, 0x10u},
1004:.\Generated_Source\PSoC5/cyfitter_cfg.c **** 			{0x8Eu, 0x04u},
1005:.\Generated_Source\PSoC5/cyfitter_cfg.c **** 			{0x92u, 0x60u},
1006:.\Generated_Source\PSoC5/cyfitter_cfg.c **** 			{0x93u, 0x20u},
1007:.\Generated_Source\PSoC5/cyfitter_cfg.c **** 			{0x95u, 0x20u},
1008:.\Generated_Source\PSoC5/cyfitter_cfg.c **** 			{0x97u, 0x02u},
1009:.\Generated_Source\PSoC5/cyfitter_cfg.c **** 			{0x98u, 0x40u},
1010:.\Generated_Source\PSoC5/cyfitter_cfg.c **** 			{0x99u, 0x72u},
1011:.\Generated_Source\PSoC5/cyfitter_cfg.c **** 			{0x9Au, 0x12u},
1012:.\Generated_Source\PSoC5/cyfitter_cfg.c **** 			{0x9Bu, 0x20u},
1013:.\Generated_Source\PSoC5/cyfitter_cfg.c **** 			{0x9Cu, 0x81u},
1014:.\Generated_Source\PSoC5/cyfitter_cfg.c **** 			{0x9Eu, 0x04u},
1015:.\Generated_Source\PSoC5/cyfitter_cfg.c **** 			{0x9Fu, 0x48u},
1016:.\Generated_Source\PSoC5/cyfitter_cfg.c **** 			{0xA0u, 0x02u},
1017:.\Generated_Source\PSoC5/cyfitter_cfg.c **** 			{0xA1u, 0x09u},
1018:.\Generated_Source\PSoC5/cyfitter_cfg.c **** 			{0xA3u, 0x10u},
1019:.\Generated_Source\PSoC5/cyfitter_cfg.c **** 			{0xA5u, 0x10u},
1020:.\Generated_Source\PSoC5/cyfitter_cfg.c **** 			{0xA6u, 0x10u},
1021:.\Generated_Source\PSoC5/cyfitter_cfg.c **** 			{0xA7u, 0x02u},
1022:.\Generated_Source\PSoC5/cyfitter_cfg.c **** 			{0xACu, 0x40u},
1023:.\Generated_Source\PSoC5/cyfitter_cfg.c **** 			{0xAEu, 0x80u},
1024:.\Generated_Source\PSoC5/cyfitter_cfg.c **** 			{0xB2u, 0x04u},
1025:.\Generated_Source\PSoC5/cyfitter_cfg.c **** 			{0xB3u, 0x12u},
1026:.\Generated_Source\PSoC5/cyfitter_cfg.c **** 			{0xB5u, 0x41u},
1027:.\Generated_Source\PSoC5/cyfitter_cfg.c **** 			{0xB6u, 0x40u},
1028:.\Generated_Source\PSoC5/cyfitter_cfg.c **** 			{0xB7u, 0x10u},
1029:.\Generated_Source\PSoC5/cyfitter_cfg.c **** 			{0xC0u, 0xE4u},
1030:.\Generated_Source\PSoC5/cyfitter_cfg.c **** 			{0xC2u, 0x65u},
1031:.\Generated_Source\PSoC5/cyfitter_cfg.c **** 			{0xC4u, 0xF9u},
1032:.\Generated_Source\PSoC5/cyfitter_cfg.c **** 			{0xCAu, 0xFFu},
1033:.\Generated_Source\PSoC5/cyfitter_cfg.c **** 			{0xCCu, 0xF6u},
1034:.\Generated_Source\PSoC5/cyfitter_cfg.c **** 			{0xCEu, 0xF5u},
1035:.\Generated_Source\PSoC5/cyfitter_cfg.c **** 			{0xD0u, 0x30u},
1036:.\Generated_Source\PSoC5/cyfitter_cfg.c **** 			{0xD2u, 0x10u},
1037:.\Generated_Source\PSoC5/cyfitter_cfg.c **** 			{0xDEu, 0x01u},
1038:.\Generated_Source\PSoC5/cyfitter_cfg.c **** 			{0xE2u, 0x04u},
1039:.\Generated_Source\PSoC5/cyfitter_cfg.c **** 			{0xE6u, 0x30u},
1040:.\Generated_Source\PSoC5/cyfitter_cfg.c **** 			{0xE8u, 0x70u},
1041:.\Generated_Source\PSoC5/cyfitter_cfg.c **** 			{0xEEu, 0x20u},
1042:.\Generated_Source\PSoC5/cyfitter_cfg.c **** 			{0x07u, 0x02u},
1043:.\Generated_Source\PSoC5/cyfitter_cfg.c **** 			{0x09u, 0x02u},
1044:.\Generated_Source\PSoC5/cyfitter_cfg.c **** 			{0x0Du, 0x02u},
1045:.\Generated_Source\PSoC5/cyfitter_cfg.c **** 			{0x10u, 0x01u},
1046:.\Generated_Source\PSoC5/cyfitter_cfg.c **** 			{0x11u, 0x01u},
1047:.\Generated_Source\PSoC5/cyfitter_cfg.c **** 			{0x12u, 0x02u},
1048:.\Generated_Source\PSoC5/cyfitter_cfg.c **** 			{0x14u, 0x04u},
1049:.\Generated_Source\PSoC5/cyfitter_cfg.c **** 			{0x15u, 0x01u},
ARM GAS  C:\Users\xavieran\AppData\Local\Temp\ccJfmadl.s 			page 28


1050:.\Generated_Source\PSoC5/cyfitter_cfg.c **** 			{0x19u, 0x02u},
1051:.\Generated_Source\PSoC5/cyfitter_cfg.c **** 			{0x1Cu, 0x01u},
1052:.\Generated_Source\PSoC5/cyfitter_cfg.c **** 			{0x1Du, 0x02u},
1053:.\Generated_Source\PSoC5/cyfitter_cfg.c **** 			{0x1Eu, 0x02u},
1054:.\Generated_Source\PSoC5/cyfitter_cfg.c **** 			{0x23u, 0x08u},
1055:.\Generated_Source\PSoC5/cyfitter_cfg.c **** 			{0x25u, 0x04u},
1056:.\Generated_Source\PSoC5/cyfitter_cfg.c **** 			{0x29u, 0x02u},
1057:.\Generated_Source\PSoC5/cyfitter_cfg.c **** 			{0x2Cu, 0x04u},
1058:.\Generated_Source\PSoC5/cyfitter_cfg.c **** 			{0x2Du, 0x01u},
1059:.\Generated_Source\PSoC5/cyfitter_cfg.c **** 			{0x31u, 0x08u},
1060:.\Generated_Source\PSoC5/cyfitter_cfg.c **** 			{0x32u, 0x03u},
1061:.\Generated_Source\PSoC5/cyfitter_cfg.c **** 			{0x33u, 0x01u},
1062:.\Generated_Source\PSoC5/cyfitter_cfg.c **** 			{0x35u, 0x06u},
1063:.\Generated_Source\PSoC5/cyfitter_cfg.c **** 			{0x36u, 0x04u},
1064:.\Generated_Source\PSoC5/cyfitter_cfg.c **** 			{0x38u, 0x80u},
1065:.\Generated_Source\PSoC5/cyfitter_cfg.c **** 			{0x39u, 0x28u},
1066:.\Generated_Source\PSoC5/cyfitter_cfg.c **** 			{0x3Eu, 0x40u},
1067:.\Generated_Source\PSoC5/cyfitter_cfg.c **** 			{0x3Fu, 0x10u},
1068:.\Generated_Source\PSoC5/cyfitter_cfg.c **** 			{0x40u, 0x52u},
1069:.\Generated_Source\PSoC5/cyfitter_cfg.c **** 			{0x47u, 0x25u},
1070:.\Generated_Source\PSoC5/cyfitter_cfg.c **** 			{0x48u, 0x30u},
1071:.\Generated_Source\PSoC5/cyfitter_cfg.c **** 			{0x49u, 0xFFu},
1072:.\Generated_Source\PSoC5/cyfitter_cfg.c **** 			{0x4Au, 0xFFu},
1073:.\Generated_Source\PSoC5/cyfitter_cfg.c **** 			{0x4Bu, 0xFFu},
1074:.\Generated_Source\PSoC5/cyfitter_cfg.c **** 			{0x4Cu, 0x42u},
1075:.\Generated_Source\PSoC5/cyfitter_cfg.c **** 			{0x4Du, 0xA0u},
1076:.\Generated_Source\PSoC5/cyfitter_cfg.c **** 			{0x4Eu, 0x70u},
1077:.\Generated_Source\PSoC5/cyfitter_cfg.c **** 			{0x50u, 0x08u},
1078:.\Generated_Source\PSoC5/cyfitter_cfg.c **** 			{0x51u, 0x10u},
1079:.\Generated_Source\PSoC5/cyfitter_cfg.c **** 			{0x58u, 0x04u},
1080:.\Generated_Source\PSoC5/cyfitter_cfg.c **** 			{0x59u, 0x04u},
1081:.\Generated_Source\PSoC5/cyfitter_cfg.c **** 			{0x5Au, 0x04u},
1082:.\Generated_Source\PSoC5/cyfitter_cfg.c **** 			{0x5Cu, 0x22u},
1083:.\Generated_Source\PSoC5/cyfitter_cfg.c **** 			{0x5Du, 0x02u},
1084:.\Generated_Source\PSoC5/cyfitter_cfg.c **** 			{0x5Fu, 0x01u},
1085:.\Generated_Source\PSoC5/cyfitter_cfg.c **** 			{0x61u, 0x48u},
1086:.\Generated_Source\PSoC5/cyfitter_cfg.c **** 			{0x62u, 0x40u},
1087:.\Generated_Source\PSoC5/cyfitter_cfg.c **** 			{0x63u, 0x48u},
1088:.\Generated_Source\PSoC5/cyfitter_cfg.c **** 			{0x64u, 0x80u},
1089:.\Generated_Source\PSoC5/cyfitter_cfg.c **** 			{0x65u, 0x48u},
1090:.\Generated_Source\PSoC5/cyfitter_cfg.c **** 			{0x66u, 0x80u},
1091:.\Generated_Source\PSoC5/cyfitter_cfg.c **** 			{0x67u, 0x48u},
1092:.\Generated_Source\PSoC5/cyfitter_cfg.c **** 			{0x81u, 0x5Du},
1093:.\Generated_Source\PSoC5/cyfitter_cfg.c **** 			{0x82u, 0x01u},
1094:.\Generated_Source\PSoC5/cyfitter_cfg.c **** 			{0x83u, 0xA2u},
1095:.\Generated_Source\PSoC5/cyfitter_cfg.c **** 			{0x85u, 0x40u},
1096:.\Generated_Source\PSoC5/cyfitter_cfg.c **** 			{0x87u, 0x1Du},
1097:.\Generated_Source\PSoC5/cyfitter_cfg.c **** 			{0x89u, 0x0Du},
1098:.\Generated_Source\PSoC5/cyfitter_cfg.c **** 			{0x8Du, 0x01u},
1099:.\Generated_Source\PSoC5/cyfitter_cfg.c **** 			{0x8Eu, 0x02u},
1100:.\Generated_Source\PSoC5/cyfitter_cfg.c **** 			{0x93u, 0x08u},
1101:.\Generated_Source\PSoC5/cyfitter_cfg.c **** 			{0x95u, 0x92u},
1102:.\Generated_Source\PSoC5/cyfitter_cfg.c **** 			{0x96u, 0x02u},
1103:.\Generated_Source\PSoC5/cyfitter_cfg.c **** 			{0x97u, 0x60u},
1104:.\Generated_Source\PSoC5/cyfitter_cfg.c **** 			{0x9Au, 0x06u},
1105:.\Generated_Source\PSoC5/cyfitter_cfg.c **** 			{0x9Bu, 0xFFu},
1106:.\Generated_Source\PSoC5/cyfitter_cfg.c **** 			{0x9Du, 0xE2u},
ARM GAS  C:\Users\xavieran\AppData\Local\Temp\ccJfmadl.s 			page 29


1107:.\Generated_Source\PSoC5/cyfitter_cfg.c **** 			{0x9Eu, 0x04u},
1108:.\Generated_Source\PSoC5/cyfitter_cfg.c **** 			{0xA3u, 0x02u},
1109:.\Generated_Source\PSoC5/cyfitter_cfg.c **** 			{0xA5u, 0x04u},
1110:.\Generated_Source\PSoC5/cyfitter_cfg.c **** 			{0xA7u, 0xE0u},
1111:.\Generated_Source\PSoC5/cyfitter_cfg.c **** 			{0xA9u, 0x01u},
1112:.\Generated_Source\PSoC5/cyfitter_cfg.c **** 			{0xAAu, 0x02u},
1113:.\Generated_Source\PSoC5/cyfitter_cfg.c **** 			{0xADu, 0x3Du},
1114:.\Generated_Source\PSoC5/cyfitter_cfg.c **** 			{0xAEu, 0x08u},
1115:.\Generated_Source\PSoC5/cyfitter_cfg.c **** 			{0xAFu, 0xC2u},
1116:.\Generated_Source\PSoC5/cyfitter_cfg.c **** 			{0xB0u, 0x01u},
1117:.\Generated_Source\PSoC5/cyfitter_cfg.c **** 			{0xB1u, 0xFFu},
1118:.\Generated_Source\PSoC5/cyfitter_cfg.c **** 			{0xB4u, 0x0Eu},
1119:.\Generated_Source\PSoC5/cyfitter_cfg.c **** 			{0xBAu, 0x20u},
1120:.\Generated_Source\PSoC5/cyfitter_cfg.c **** 			{0xBFu, 0x01u},
1121:.\Generated_Source\PSoC5/cyfitter_cfg.c **** 			{0xD8u, 0x04u},
1122:.\Generated_Source\PSoC5/cyfitter_cfg.c **** 			{0xD9u, 0x04u},
1123:.\Generated_Source\PSoC5/cyfitter_cfg.c **** 			{0xDCu, 0x02u},
1124:.\Generated_Source\PSoC5/cyfitter_cfg.c **** 			{0xDFu, 0x01u},
1125:.\Generated_Source\PSoC5/cyfitter_cfg.c **** 			{0x04u, 0x80u},
1126:.\Generated_Source\PSoC5/cyfitter_cfg.c **** 			{0x07u, 0x40u},
1127:.\Generated_Source\PSoC5/cyfitter_cfg.c **** 			{0x08u, 0x80u},
1128:.\Generated_Source\PSoC5/cyfitter_cfg.c **** 			{0x09u, 0x08u},
1129:.\Generated_Source\PSoC5/cyfitter_cfg.c **** 			{0x0Au, 0x40u},
1130:.\Generated_Source\PSoC5/cyfitter_cfg.c **** 			{0x0Cu, 0x40u},
1131:.\Generated_Source\PSoC5/cyfitter_cfg.c **** 			{0x0Eu, 0x04u},
1132:.\Generated_Source\PSoC5/cyfitter_cfg.c **** 			{0x0Fu, 0x20u},
1133:.\Generated_Source\PSoC5/cyfitter_cfg.c **** 			{0x10u, 0x02u},
1134:.\Generated_Source\PSoC5/cyfitter_cfg.c **** 			{0x17u, 0xA0u},
1135:.\Generated_Source\PSoC5/cyfitter_cfg.c **** 			{0x19u, 0x88u},
1136:.\Generated_Source\PSoC5/cyfitter_cfg.c **** 			{0x1Du, 0x11u},
1137:.\Generated_Source\PSoC5/cyfitter_cfg.c **** 			{0x1Eu, 0x04u},
1138:.\Generated_Source\PSoC5/cyfitter_cfg.c **** 			{0x21u, 0x20u},
1139:.\Generated_Source\PSoC5/cyfitter_cfg.c **** 			{0x22u, 0x05u},
1140:.\Generated_Source\PSoC5/cyfitter_cfg.c **** 			{0x23u, 0x20u},
1141:.\Generated_Source\PSoC5/cyfitter_cfg.c **** 			{0x27u, 0x80u},
1142:.\Generated_Source\PSoC5/cyfitter_cfg.c **** 			{0x28u, 0x80u},
1143:.\Generated_Source\PSoC5/cyfitter_cfg.c **** 			{0x29u, 0x58u},
1144:.\Generated_Source\PSoC5/cyfitter_cfg.c **** 			{0x2Au, 0x10u},
1145:.\Generated_Source\PSoC5/cyfitter_cfg.c **** 			{0x2Cu, 0x20u},
1146:.\Generated_Source\PSoC5/cyfitter_cfg.c **** 			{0x2Du, 0x02u},
1147:.\Generated_Source\PSoC5/cyfitter_cfg.c **** 			{0x2Fu, 0x09u},
1148:.\Generated_Source\PSoC5/cyfitter_cfg.c **** 			{0x30u, 0x02u},
1149:.\Generated_Source\PSoC5/cyfitter_cfg.c **** 			{0x31u, 0x08u},
1150:.\Generated_Source\PSoC5/cyfitter_cfg.c **** 			{0x32u, 0x50u},
1151:.\Generated_Source\PSoC5/cyfitter_cfg.c **** 			{0x35u, 0x60u},
1152:.\Generated_Source\PSoC5/cyfitter_cfg.c **** 			{0x36u, 0x80u},
1153:.\Generated_Source\PSoC5/cyfitter_cfg.c **** 			{0x37u, 0x2Au},
1154:.\Generated_Source\PSoC5/cyfitter_cfg.c **** 			{0x38u, 0x80u},
1155:.\Generated_Source\PSoC5/cyfitter_cfg.c **** 			{0x39u, 0x20u},
1156:.\Generated_Source\PSoC5/cyfitter_cfg.c **** 			{0x3Au, 0x04u},
1157:.\Generated_Source\PSoC5/cyfitter_cfg.c **** 			{0x3Du, 0x62u},
1158:.\Generated_Source\PSoC5/cyfitter_cfg.c **** 			{0x3Eu, 0x04u},
1159:.\Generated_Source\PSoC5/cyfitter_cfg.c **** 			{0x3Fu, 0x10u},
1160:.\Generated_Source\PSoC5/cyfitter_cfg.c **** 			{0x41u, 0x20u},
1161:.\Generated_Source\PSoC5/cyfitter_cfg.c **** 			{0x49u, 0x80u},
1162:.\Generated_Source\PSoC5/cyfitter_cfg.c **** 			{0x50u, 0x02u},
1163:.\Generated_Source\PSoC5/cyfitter_cfg.c **** 			{0x52u, 0x08u},
ARM GAS  C:\Users\xavieran\AppData\Local\Temp\ccJfmadl.s 			page 30


1164:.\Generated_Source\PSoC5/cyfitter_cfg.c **** 			{0x80u, 0x40u},
1165:.\Generated_Source\PSoC5/cyfitter_cfg.c **** 			{0x82u, 0x12u},
1166:.\Generated_Source\PSoC5/cyfitter_cfg.c **** 			{0x87u, 0x20u},
1167:.\Generated_Source\PSoC5/cyfitter_cfg.c **** 			{0x89u, 0x02u},
1168:.\Generated_Source\PSoC5/cyfitter_cfg.c **** 			{0x8Fu, 0x08u},
1169:.\Generated_Source\PSoC5/cyfitter_cfg.c **** 			{0x92u, 0x60u},
1170:.\Generated_Source\PSoC5/cyfitter_cfg.c **** 			{0x94u, 0x80u},
1171:.\Generated_Source\PSoC5/cyfitter_cfg.c **** 			{0x95u, 0x20u},
1172:.\Generated_Source\PSoC5/cyfitter_cfg.c **** 			{0x96u, 0x0Au},
1173:.\Generated_Source\PSoC5/cyfitter_cfg.c **** 			{0x97u, 0x12u},
1174:.\Generated_Source\PSoC5/cyfitter_cfg.c **** 			{0x9Cu, 0x01u},
1175:.\Generated_Source\PSoC5/cyfitter_cfg.c **** 			{0x9Du, 0x11u},
1176:.\Generated_Source\PSoC5/cyfitter_cfg.c **** 			{0xA0u, 0x20u},
1177:.\Generated_Source\PSoC5/cyfitter_cfg.c **** 			{0xA1u, 0x08u},
1178:.\Generated_Source\PSoC5/cyfitter_cfg.c **** 			{0xA5u, 0x01u},
1179:.\Generated_Source\PSoC5/cyfitter_cfg.c **** 			{0xA6u, 0x98u},
1180:.\Generated_Source\PSoC5/cyfitter_cfg.c **** 			{0xA7u, 0x12u},
1181:.\Generated_Source\PSoC5/cyfitter_cfg.c **** 			{0xAAu, 0x09u},
1182:.\Generated_Source\PSoC5/cyfitter_cfg.c **** 			{0xB0u, 0x40u},
1183:.\Generated_Source\PSoC5/cyfitter_cfg.c **** 			{0xB7u, 0x84u},
1184:.\Generated_Source\PSoC5/cyfitter_cfg.c **** 			{0xC0u, 0x90u},
1185:.\Generated_Source\PSoC5/cyfitter_cfg.c **** 			{0xC2u, 0xEDu},
1186:.\Generated_Source\PSoC5/cyfitter_cfg.c **** 			{0xC4u, 0xC1u},
1187:.\Generated_Source\PSoC5/cyfitter_cfg.c **** 			{0xCAu, 0xFFu},
1188:.\Generated_Source\PSoC5/cyfitter_cfg.c **** 			{0xCCu, 0xFFu},
1189:.\Generated_Source\PSoC5/cyfitter_cfg.c **** 			{0xCEu, 0xFEu},
1190:.\Generated_Source\PSoC5/cyfitter_cfg.c **** 			{0xD0u, 0x04u},
1191:.\Generated_Source\PSoC5/cyfitter_cfg.c **** 			{0xD2u, 0x08u},
1192:.\Generated_Source\PSoC5/cyfitter_cfg.c **** 			{0xE0u, 0x90u},
1193:.\Generated_Source\PSoC5/cyfitter_cfg.c **** 			{0xE8u, 0x80u},
1194:.\Generated_Source\PSoC5/cyfitter_cfg.c **** 			{0xEEu, 0x03u},
1195:.\Generated_Source\PSoC5/cyfitter_cfg.c **** 			{0x00u, 0x01u},
1196:.\Generated_Source\PSoC5/cyfitter_cfg.c **** 			{0x01u, 0x02u},
1197:.\Generated_Source\PSoC5/cyfitter_cfg.c **** 			{0x02u, 0x02u},
1198:.\Generated_Source\PSoC5/cyfitter_cfg.c **** 			{0x08u, 0x05u},
1199:.\Generated_Source\PSoC5/cyfitter_cfg.c **** 			{0x0Bu, 0x02u},
1200:.\Generated_Source\PSoC5/cyfitter_cfg.c **** 			{0x0Du, 0x02u},
1201:.\Generated_Source\PSoC5/cyfitter_cfg.c **** 			{0x0Eu, 0x10u},
1202:.\Generated_Source\PSoC5/cyfitter_cfg.c **** 			{0x10u, 0x01u},
1203:.\Generated_Source\PSoC5/cyfitter_cfg.c **** 			{0x12u, 0x0Eu},
1204:.\Generated_Source\PSoC5/cyfitter_cfg.c **** 			{0x14u, 0x05u},
1205:.\Generated_Source\PSoC5/cyfitter_cfg.c **** 			{0x17u, 0x01u},
1206:.\Generated_Source\PSoC5/cyfitter_cfg.c **** 			{0x18u, 0x04u},
1207:.\Generated_Source\PSoC5/cyfitter_cfg.c **** 			{0x1Au, 0x01u},
1208:.\Generated_Source\PSoC5/cyfitter_cfg.c **** 			{0x1Bu, 0x02u},
1209:.\Generated_Source\PSoC5/cyfitter_cfg.c **** 			{0x1Cu, 0x05u},
1210:.\Generated_Source\PSoC5/cyfitter_cfg.c **** 			{0x1Du, 0x03u},
1211:.\Generated_Source\PSoC5/cyfitter_cfg.c **** 			{0x28u, 0x04u},
1212:.\Generated_Source\PSoC5/cyfitter_cfg.c **** 			{0x2Au, 0x01u},
1213:.\Generated_Source\PSoC5/cyfitter_cfg.c **** 			{0x2Cu, 0x01u},
1214:.\Generated_Source\PSoC5/cyfitter_cfg.c **** 			{0x2Du, 0x03u},
1215:.\Generated_Source\PSoC5/cyfitter_cfg.c **** 			{0x2Eu, 0x08u},
1216:.\Generated_Source\PSoC5/cyfitter_cfg.c **** 			{0x30u, 0x0Fu},
1217:.\Generated_Source\PSoC5/cyfitter_cfg.c **** 			{0x32u, 0x10u},
1218:.\Generated_Source\PSoC5/cyfitter_cfg.c **** 			{0x35u, 0x03u},
1219:.\Generated_Source\PSoC5/cyfitter_cfg.c **** 			{0x3Au, 0x02u},
1220:.\Generated_Source\PSoC5/cyfitter_cfg.c **** 			{0x54u, 0x20u},
ARM GAS  C:\Users\xavieran\AppData\Local\Temp\ccJfmadl.s 			page 31


1221:.\Generated_Source\PSoC5/cyfitter_cfg.c **** 			{0x56u, 0x04u},
1222:.\Generated_Source\PSoC5/cyfitter_cfg.c **** 			{0x58u, 0x04u},
1223:.\Generated_Source\PSoC5/cyfitter_cfg.c **** 			{0x59u, 0x04u},
1224:.\Generated_Source\PSoC5/cyfitter_cfg.c **** 			{0x5Bu, 0x04u},
1225:.\Generated_Source\PSoC5/cyfitter_cfg.c **** 			{0x5Cu, 0x22u},
1226:.\Generated_Source\PSoC5/cyfitter_cfg.c **** 			{0x5Du, 0x20u},
1227:.\Generated_Source\PSoC5/cyfitter_cfg.c **** 			{0x5Fu, 0x01u},
1228:.\Generated_Source\PSoC5/cyfitter_cfg.c **** 			{0x83u, 0x10u},
1229:.\Generated_Source\PSoC5/cyfitter_cfg.c **** 			{0x86u, 0x14u},
1230:.\Generated_Source\PSoC5/cyfitter_cfg.c **** 			{0x87u, 0x0Fu},
1231:.\Generated_Source\PSoC5/cyfitter_cfg.c **** 			{0x8Au, 0x18u},
1232:.\Generated_Source\PSoC5/cyfitter_cfg.c **** 			{0x8Bu, 0x08u},
1233:.\Generated_Source\PSoC5/cyfitter_cfg.c **** 			{0x8Fu, 0x01u},
1234:.\Generated_Source\PSoC5/cyfitter_cfg.c **** 			{0x91u, 0x0Fu},
1235:.\Generated_Source\PSoC5/cyfitter_cfg.c **** 			{0x95u, 0x0Fu},
1236:.\Generated_Source\PSoC5/cyfitter_cfg.c **** 			{0x96u, 0x20u},
1237:.\Generated_Source\PSoC5/cyfitter_cfg.c **** 			{0x98u, 0x04u},
1238:.\Generated_Source\PSoC5/cyfitter_cfg.c **** 			{0x9Au, 0x08u},
1239:.\Generated_Source\PSoC5/cyfitter_cfg.c **** 			{0x9Bu, 0x08u},
1240:.\Generated_Source\PSoC5/cyfitter_cfg.c **** 			{0x9Cu, 0x3Fu},
1241:.\Generated_Source\PSoC5/cyfitter_cfg.c **** 			{0x9Fu, 0x0Fu},
1242:.\Generated_Source\PSoC5/cyfitter_cfg.c **** 			{0xA0u, 0x10u},
1243:.\Generated_Source\PSoC5/cyfitter_cfg.c **** 			{0xA2u, 0x02u},
1244:.\Generated_Source\PSoC5/cyfitter_cfg.c **** 			{0xA6u, 0x08u},
1245:.\Generated_Source\PSoC5/cyfitter_cfg.c **** 			{0xA7u, 0x02u},
1246:.\Generated_Source\PSoC5/cyfitter_cfg.c **** 			{0xA8u, 0x0Fu},
1247:.\Generated_Source\PSoC5/cyfitter_cfg.c **** 			{0xABu, 0x04u},
1248:.\Generated_Source\PSoC5/cyfitter_cfg.c **** 			{0xACu, 0x10u},
1249:.\Generated_Source\PSoC5/cyfitter_cfg.c **** 			{0xAEu, 0x01u},
1250:.\Generated_Source\PSoC5/cyfitter_cfg.c **** 			{0xB0u, 0x3Fu},
1251:.\Generated_Source\PSoC5/cyfitter_cfg.c **** 			{0xB3u, 0x0Fu},
1252:.\Generated_Source\PSoC5/cyfitter_cfg.c **** 			{0xB5u, 0x10u},
1253:.\Generated_Source\PSoC5/cyfitter_cfg.c **** 			{0xB8u, 0x02u},
1254:.\Generated_Source\PSoC5/cyfitter_cfg.c **** 			{0xBFu, 0x04u},
1255:.\Generated_Source\PSoC5/cyfitter_cfg.c **** 			{0xD8u, 0x04u},
1256:.\Generated_Source\PSoC5/cyfitter_cfg.c **** 			{0xD9u, 0x04u},
1257:.\Generated_Source\PSoC5/cyfitter_cfg.c **** 			{0xDCu, 0x82u},
1258:.\Generated_Source\PSoC5/cyfitter_cfg.c **** 			{0xDFu, 0x31u},
1259:.\Generated_Source\PSoC5/cyfitter_cfg.c **** 			{0x00u, 0x10u},
1260:.\Generated_Source\PSoC5/cyfitter_cfg.c **** 			{0x02u, 0x10u},
1261:.\Generated_Source\PSoC5/cyfitter_cfg.c **** 			{0x05u, 0x10u},
1262:.\Generated_Source\PSoC5/cyfitter_cfg.c **** 			{0x06u, 0x80u},
1263:.\Generated_Source\PSoC5/cyfitter_cfg.c **** 			{0x07u, 0x01u},
1264:.\Generated_Source\PSoC5/cyfitter_cfg.c **** 			{0x08u, 0x80u},
1265:.\Generated_Source\PSoC5/cyfitter_cfg.c **** 			{0x09u, 0x08u},
1266:.\Generated_Source\PSoC5/cyfitter_cfg.c **** 			{0x0Au, 0x08u},
1267:.\Generated_Source\PSoC5/cyfitter_cfg.c **** 			{0x0Cu, 0x20u},
1268:.\Generated_Source\PSoC5/cyfitter_cfg.c **** 			{0x0Du, 0x40u},
1269:.\Generated_Source\PSoC5/cyfitter_cfg.c **** 			{0x0Eu, 0x80u},
1270:.\Generated_Source\PSoC5/cyfitter_cfg.c **** 			{0x0Fu, 0x20u},
1271:.\Generated_Source\PSoC5/cyfitter_cfg.c **** 			{0x10u, 0x20u},
1272:.\Generated_Source\PSoC5/cyfitter_cfg.c **** 			{0x11u, 0x42u},
1273:.\Generated_Source\PSoC5/cyfitter_cfg.c **** 			{0x12u, 0x08u},
1274:.\Generated_Source\PSoC5/cyfitter_cfg.c **** 			{0x15u, 0x20u},
1275:.\Generated_Source\PSoC5/cyfitter_cfg.c **** 			{0x17u, 0x40u},
1276:.\Generated_Source\PSoC5/cyfitter_cfg.c **** 			{0x1Au, 0xC0u},
1277:.\Generated_Source\PSoC5/cyfitter_cfg.c **** 			{0x1Eu, 0x90u},
ARM GAS  C:\Users\xavieran\AppData\Local\Temp\ccJfmadl.s 			page 32


1278:.\Generated_Source\PSoC5/cyfitter_cfg.c **** 			{0x1Fu, 0x04u},
1279:.\Generated_Source\PSoC5/cyfitter_cfg.c **** 			{0x21u, 0x28u},
1280:.\Generated_Source\PSoC5/cyfitter_cfg.c **** 			{0x27u, 0x04u},
1281:.\Generated_Source\PSoC5/cyfitter_cfg.c **** 			{0x29u, 0x10u},
1282:.\Generated_Source\PSoC5/cyfitter_cfg.c **** 			{0x2Au, 0x10u},
1283:.\Generated_Source\PSoC5/cyfitter_cfg.c **** 			{0x2Bu, 0x10u},
1284:.\Generated_Source\PSoC5/cyfitter_cfg.c **** 			{0x2Eu, 0x80u},
1285:.\Generated_Source\PSoC5/cyfitter_cfg.c **** 			{0x2Fu, 0x02u},
1286:.\Generated_Source\PSoC5/cyfitter_cfg.c **** 			{0x30u, 0x22u},
1287:.\Generated_Source\PSoC5/cyfitter_cfg.c **** 			{0x32u, 0x55u},
1288:.\Generated_Source\PSoC5/cyfitter_cfg.c **** 			{0x33u, 0x01u},
1289:.\Generated_Source\PSoC5/cyfitter_cfg.c **** 			{0x34u, 0x80u},
1290:.\Generated_Source\PSoC5/cyfitter_cfg.c **** 			{0x35u, 0x10u},
1291:.\Generated_Source\PSoC5/cyfitter_cfg.c **** 			{0x36u, 0x80u},
1292:.\Generated_Source\PSoC5/cyfitter_cfg.c **** 			{0x37u, 0x44u},
1293:.\Generated_Source\PSoC5/cyfitter_cfg.c **** 			{0x38u, 0x92u},
1294:.\Generated_Source\PSoC5/cyfitter_cfg.c **** 			{0x39u, 0xE0u},
1295:.\Generated_Source\PSoC5/cyfitter_cfg.c **** 			{0x3Au, 0x20u},
1296:.\Generated_Source\PSoC5/cyfitter_cfg.c **** 			{0x3Bu, 0x08u},
1297:.\Generated_Source\PSoC5/cyfitter_cfg.c **** 			{0x3Du, 0x42u},
1298:.\Generated_Source\PSoC5/cyfitter_cfg.c **** 			{0x3Eu, 0x20u},
1299:.\Generated_Source\PSoC5/cyfitter_cfg.c **** 			{0x5Eu, 0x28u},
1300:.\Generated_Source\PSoC5/cyfitter_cfg.c **** 			{0x5Fu, 0x82u},
1301:.\Generated_Source\PSoC5/cyfitter_cfg.c **** 			{0x66u, 0x41u},
1302:.\Generated_Source\PSoC5/cyfitter_cfg.c **** 			{0x67u, 0x04u},
1303:.\Generated_Source\PSoC5/cyfitter_cfg.c **** 			{0x78u, 0x01u},
1304:.\Generated_Source\PSoC5/cyfitter_cfg.c **** 			{0x81u, 0x20u},
1305:.\Generated_Source\PSoC5/cyfitter_cfg.c **** 			{0x86u, 0x04u},
1306:.\Generated_Source\PSoC5/cyfitter_cfg.c **** 			{0x8Au, 0x40u},
1307:.\Generated_Source\PSoC5/cyfitter_cfg.c **** 			{0x8Bu, 0x02u},
1308:.\Generated_Source\PSoC5/cyfitter_cfg.c **** 			{0x8Eu, 0x10u},
1309:.\Generated_Source\PSoC5/cyfitter_cfg.c **** 			{0x8Fu, 0x40u},
1310:.\Generated_Source\PSoC5/cyfitter_cfg.c **** 			{0x90u, 0x02u},
1311:.\Generated_Source\PSoC5/cyfitter_cfg.c **** 			{0x92u, 0x20u},
1312:.\Generated_Source\PSoC5/cyfitter_cfg.c **** 			{0x93u, 0x04u},
1313:.\Generated_Source\PSoC5/cyfitter_cfg.c **** 			{0x95u, 0x20u},
1314:.\Generated_Source\PSoC5/cyfitter_cfg.c **** 			{0x96u, 0x18u},
1315:.\Generated_Source\PSoC5/cyfitter_cfg.c **** 			{0x97u, 0x12u},
1316:.\Generated_Source\PSoC5/cyfitter_cfg.c **** 			{0x9Au, 0x40u},
1317:.\Generated_Source\PSoC5/cyfitter_cfg.c **** 			{0x9Cu, 0x40u},
1318:.\Generated_Source\PSoC5/cyfitter_cfg.c **** 			{0x9Du, 0x11u},
1319:.\Generated_Source\PSoC5/cyfitter_cfg.c **** 			{0x9Eu, 0x28u},
1320:.\Generated_Source\PSoC5/cyfitter_cfg.c **** 			{0xA2u, 0x04u},
1321:.\Generated_Source\PSoC5/cyfitter_cfg.c **** 			{0xA4u, 0x02u},
1322:.\Generated_Source\PSoC5/cyfitter_cfg.c **** 			{0xA7u, 0x50u},
1323:.\Generated_Source\PSoC5/cyfitter_cfg.c **** 			{0xABu, 0x34u},
1324:.\Generated_Source\PSoC5/cyfitter_cfg.c **** 			{0xAFu, 0x01u},
1325:.\Generated_Source\PSoC5/cyfitter_cfg.c **** 			{0xB4u, 0x01u},
1326:.\Generated_Source\PSoC5/cyfitter_cfg.c **** 			{0xC0u, 0xD6u},
1327:.\Generated_Source\PSoC5/cyfitter_cfg.c **** 			{0xC2u, 0xF7u},
1328:.\Generated_Source\PSoC5/cyfitter_cfg.c **** 			{0xC4u, 0xCFu},
1329:.\Generated_Source\PSoC5/cyfitter_cfg.c **** 			{0xCAu, 0x16u},
1330:.\Generated_Source\PSoC5/cyfitter_cfg.c **** 			{0xCCu, 0x7Fu},
1331:.\Generated_Source\PSoC5/cyfitter_cfg.c **** 			{0xCEu, 0xBFu},
1332:.\Generated_Source\PSoC5/cyfitter_cfg.c **** 			{0xD6u, 0xF0u},
1333:.\Generated_Source\PSoC5/cyfitter_cfg.c **** 			{0xD8u, 0xB0u},
1334:.\Generated_Source\PSoC5/cyfitter_cfg.c **** 			{0xDEu, 0x01u},
ARM GAS  C:\Users\xavieran\AppData\Local\Temp\ccJfmadl.s 			page 33


1335:.\Generated_Source\PSoC5/cyfitter_cfg.c **** 			{0xE2u, 0x40u},
1336:.\Generated_Source\PSoC5/cyfitter_cfg.c **** 			{0xEEu, 0x0Cu},
1337:.\Generated_Source\PSoC5/cyfitter_cfg.c **** 			{0x01u, 0x06u},
1338:.\Generated_Source\PSoC5/cyfitter_cfg.c **** 			{0x05u, 0x05u},
1339:.\Generated_Source\PSoC5/cyfitter_cfg.c **** 			{0x07u, 0x0Au},
1340:.\Generated_Source\PSoC5/cyfitter_cfg.c **** 			{0x09u, 0x01u},
1341:.\Generated_Source\PSoC5/cyfitter_cfg.c **** 			{0x0Bu, 0x02u},
1342:.\Generated_Source\PSoC5/cyfitter_cfg.c **** 			{0x0Du, 0x0Fu},
1343:.\Generated_Source\PSoC5/cyfitter_cfg.c **** 			{0x15u, 0x08u},
1344:.\Generated_Source\PSoC5/cyfitter_cfg.c **** 			{0x17u, 0x05u},
1345:.\Generated_Source\PSoC5/cyfitter_cfg.c **** 			{0x1Bu, 0x02u},
1346:.\Generated_Source\PSoC5/cyfitter_cfg.c **** 			{0x23u, 0x10u},
1347:.\Generated_Source\PSoC5/cyfitter_cfg.c **** 			{0x25u, 0x01u},
1348:.\Generated_Source\PSoC5/cyfitter_cfg.c **** 			{0x27u, 0x04u},
1349:.\Generated_Source\PSoC5/cyfitter_cfg.c **** 			{0x29u, 0x01u},
1350:.\Generated_Source\PSoC5/cyfitter_cfg.c **** 			{0x2Bu, 0x02u},
1351:.\Generated_Source\PSoC5/cyfitter_cfg.c **** 			{0x35u, 0x1Fu},
1352:.\Generated_Source\PSoC5/cyfitter_cfg.c **** 			{0x42u, 0x02u},
1353:.\Generated_Source\PSoC5/cyfitter_cfg.c **** 			{0x47u, 0xE0u},
1354:.\Generated_Source\PSoC5/cyfitter_cfg.c **** 			{0x48u, 0x20u},
1355:.\Generated_Source\PSoC5/cyfitter_cfg.c **** 			{0x49u, 0xFFu},
1356:.\Generated_Source\PSoC5/cyfitter_cfg.c **** 			{0x4Au, 0xFFu},
1357:.\Generated_Source\PSoC5/cyfitter_cfg.c **** 			{0x4Bu, 0xFFu},
1358:.\Generated_Source\PSoC5/cyfitter_cfg.c **** 			{0x4Fu, 0x83u},
1359:.\Generated_Source\PSoC5/cyfitter_cfg.c **** 			{0x59u, 0x04u},
1360:.\Generated_Source\PSoC5/cyfitter_cfg.c **** 			{0x5Au, 0x04u},
1361:.\Generated_Source\PSoC5/cyfitter_cfg.c **** 			{0x5Bu, 0x04u},
1362:.\Generated_Source\PSoC5/cyfitter_cfg.c **** 			{0x5Cu, 0x20u},
1363:.\Generated_Source\PSoC5/cyfitter_cfg.c **** 			{0x5Du, 0x08u},
1364:.\Generated_Source\PSoC5/cyfitter_cfg.c **** 			{0x5Fu, 0x21u},
1365:.\Generated_Source\PSoC5/cyfitter_cfg.c **** 			{0x81u, 0x0Au},
1366:.\Generated_Source\PSoC5/cyfitter_cfg.c **** 			{0x82u, 0x20u},
1367:.\Generated_Source\PSoC5/cyfitter_cfg.c **** 			{0x83u, 0x01u},
1368:.\Generated_Source\PSoC5/cyfitter_cfg.c **** 			{0x84u, 0x04u},
1369:.\Generated_Source\PSoC5/cyfitter_cfg.c **** 			{0x85u, 0x10u},
1370:.\Generated_Source\PSoC5/cyfitter_cfg.c **** 			{0x86u, 0x0Au},
1371:.\Generated_Source\PSoC5/cyfitter_cfg.c **** 			{0x88u, 0x06u},
1372:.\Generated_Source\PSoC5/cyfitter_cfg.c **** 			{0x8Au, 0x08u},
1373:.\Generated_Source\PSoC5/cyfitter_cfg.c **** 			{0x8Bu, 0x0Bu},
1374:.\Generated_Source\PSoC5/cyfitter_cfg.c **** 			{0x8Du, 0x01u},
1375:.\Generated_Source\PSoC5/cyfitter_cfg.c **** 			{0x8Fu, 0x04u},
1376:.\Generated_Source\PSoC5/cyfitter_cfg.c **** 			{0x90u, 0x02u},
1377:.\Generated_Source\PSoC5/cyfitter_cfg.c **** 			{0x91u, 0x01u},
1378:.\Generated_Source\PSoC5/cyfitter_cfg.c **** 			{0x92u, 0x1Cu},
1379:.\Generated_Source\PSoC5/cyfitter_cfg.c **** 			{0x93u, 0x0Au},
1380:.\Generated_Source\PSoC5/cyfitter_cfg.c **** 			{0x95u, 0x10u},
1381:.\Generated_Source\PSoC5/cyfitter_cfg.c **** 			{0x96u, 0x01u},
1382:.\Generated_Source\PSoC5/cyfitter_cfg.c **** 			{0x99u, 0x10u},
1383:.\Generated_Source\PSoC5/cyfitter_cfg.c **** 			{0x9Du, 0x01u},
1384:.\Generated_Source\PSoC5/cyfitter_cfg.c **** 			{0x9Fu, 0x06u},
1385:.\Generated_Source\PSoC5/cyfitter_cfg.c **** 			{0xA0u, 0x0Eu},
1386:.\Generated_Source\PSoC5/cyfitter_cfg.c **** 			{0xA1u, 0x10u},
1387:.\Generated_Source\PSoC5/cyfitter_cfg.c **** 			{0xA4u, 0x0Eu},
1388:.\Generated_Source\PSoC5/cyfitter_cfg.c **** 			{0xA5u, 0x10u},
1389:.\Generated_Source\PSoC5/cyfitter_cfg.c **** 			{0xA8u, 0x0Cu},
1390:.\Generated_Source\PSoC5/cyfitter_cfg.c **** 			{0xAAu, 0x02u},
1391:.\Generated_Source\PSoC5/cyfitter_cfg.c **** 			{0xABu, 0x0Bu},
ARM GAS  C:\Users\xavieran\AppData\Local\Temp\ccJfmadl.s 			page 34


1392:.\Generated_Source\PSoC5/cyfitter_cfg.c **** 			{0xACu, 0x02u},
1393:.\Generated_Source\PSoC5/cyfitter_cfg.c **** 			{0xAEu, 0x10u},
1394:.\Generated_Source\PSoC5/cyfitter_cfg.c **** 			{0xAFu, 0x0Bu},
1395:.\Generated_Source\PSoC5/cyfitter_cfg.c **** 			{0xB0u, 0x1Eu},
1396:.\Generated_Source\PSoC5/cyfitter_cfg.c **** 			{0xB1u, 0x07u},
1397:.\Generated_Source\PSoC5/cyfitter_cfg.c **** 			{0xB2u, 0x01u},
1398:.\Generated_Source\PSoC5/cyfitter_cfg.c **** 			{0xB4u, 0x1Eu},
1399:.\Generated_Source\PSoC5/cyfitter_cfg.c **** 			{0xB5u, 0x08u},
1400:.\Generated_Source\PSoC5/cyfitter_cfg.c **** 			{0xB6u, 0x20u},
1401:.\Generated_Source\PSoC5/cyfitter_cfg.c **** 			{0xB7u, 0x10u},
1402:.\Generated_Source\PSoC5/cyfitter_cfg.c **** 			{0xB9u, 0x80u},
1403:.\Generated_Source\PSoC5/cyfitter_cfg.c **** 			{0xBAu, 0x22u},
1404:.\Generated_Source\PSoC5/cyfitter_cfg.c **** 			{0xBBu, 0x02u},
1405:.\Generated_Source\PSoC5/cyfitter_cfg.c **** 			{0xBFu, 0x50u},
1406:.\Generated_Source\PSoC5/cyfitter_cfg.c **** 			{0xD8u, 0x04u},
1407:.\Generated_Source\PSoC5/cyfitter_cfg.c **** 			{0xD9u, 0x04u},
1408:.\Generated_Source\PSoC5/cyfitter_cfg.c **** 			{0xDCu, 0x22u},
1409:.\Generated_Source\PSoC5/cyfitter_cfg.c **** 			{0xDFu, 0x01u},
1410:.\Generated_Source\PSoC5/cyfitter_cfg.c **** 			{0x04u, 0x04u},
1411:.\Generated_Source\PSoC5/cyfitter_cfg.c **** 			{0x05u, 0x11u},
1412:.\Generated_Source\PSoC5/cyfitter_cfg.c **** 			{0x0Eu, 0x90u},
1413:.\Generated_Source\PSoC5/cyfitter_cfg.c **** 			{0x13u, 0x0Cu},
1414:.\Generated_Source\PSoC5/cyfitter_cfg.c **** 			{0x14u, 0x24u},
1415:.\Generated_Source\PSoC5/cyfitter_cfg.c **** 			{0x15u, 0x62u},
1416:.\Generated_Source\PSoC5/cyfitter_cfg.c **** 			{0x1Eu, 0x89u},
1417:.\Generated_Source\PSoC5/cyfitter_cfg.c **** 			{0x1Fu, 0x04u},
1418:.\Generated_Source\PSoC5/cyfitter_cfg.c **** 			{0x20u, 0x04u},
1419:.\Generated_Source\PSoC5/cyfitter_cfg.c **** 			{0x22u, 0x10u},
1420:.\Generated_Source\PSoC5/cyfitter_cfg.c **** 			{0x27u, 0x8Au},
1421:.\Generated_Source\PSoC5/cyfitter_cfg.c **** 			{0x28u, 0x60u},
1422:.\Generated_Source\PSoC5/cyfitter_cfg.c **** 			{0x2Au, 0x20u},
1423:.\Generated_Source\PSoC5/cyfitter_cfg.c **** 			{0x2Bu, 0x10u},
1424:.\Generated_Source\PSoC5/cyfitter_cfg.c **** 			{0x2Cu, 0x12u},
1425:.\Generated_Source\PSoC5/cyfitter_cfg.c **** 			{0x2Eu, 0x02u},
1426:.\Generated_Source\PSoC5/cyfitter_cfg.c **** 			{0x2Fu, 0x04u},
1427:.\Generated_Source\PSoC5/cyfitter_cfg.c **** 			{0x30u, 0x10u},
1428:.\Generated_Source\PSoC5/cyfitter_cfg.c **** 			{0x31u, 0x10u},
1429:.\Generated_Source\PSoC5/cyfitter_cfg.c **** 			{0x32u, 0x04u},
1430:.\Generated_Source\PSoC5/cyfitter_cfg.c **** 			{0x34u, 0x24u},
1431:.\Generated_Source\PSoC5/cyfitter_cfg.c **** 			{0x35u, 0x01u},
1432:.\Generated_Source\PSoC5/cyfitter_cfg.c **** 			{0x37u, 0x80u},
1433:.\Generated_Source\PSoC5/cyfitter_cfg.c **** 			{0x38u, 0x04u},
1434:.\Generated_Source\PSoC5/cyfitter_cfg.c **** 			{0x39u, 0x42u},
1435:.\Generated_Source\PSoC5/cyfitter_cfg.c **** 			{0x3Au, 0x02u},
1436:.\Generated_Source\PSoC5/cyfitter_cfg.c **** 			{0x3Bu, 0x12u},
1437:.\Generated_Source\PSoC5/cyfitter_cfg.c **** 			{0x3Cu, 0x04u},
1438:.\Generated_Source\PSoC5/cyfitter_cfg.c **** 			{0x3Du, 0x40u},
1439:.\Generated_Source\PSoC5/cyfitter_cfg.c **** 			{0x3Eu, 0x11u},
1440:.\Generated_Source\PSoC5/cyfitter_cfg.c **** 			{0x42u, 0x08u},
1441:.\Generated_Source\PSoC5/cyfitter_cfg.c **** 			{0x46u, 0x40u},
1442:.\Generated_Source\PSoC5/cyfitter_cfg.c **** 			{0x47u, 0x02u},
1443:.\Generated_Source\PSoC5/cyfitter_cfg.c **** 			{0x52u, 0x01u},
1444:.\Generated_Source\PSoC5/cyfitter_cfg.c **** 			{0x5Au, 0x40u},
1445:.\Generated_Source\PSoC5/cyfitter_cfg.c **** 			{0x5Bu, 0x15u},
1446:.\Generated_Source\PSoC5/cyfitter_cfg.c **** 			{0x60u, 0x08u},
1447:.\Generated_Source\PSoC5/cyfitter_cfg.c **** 			{0x62u, 0x04u},
1448:.\Generated_Source\PSoC5/cyfitter_cfg.c **** 			{0x63u, 0x82u},
ARM GAS  C:\Users\xavieran\AppData\Local\Temp\ccJfmadl.s 			page 35


1449:.\Generated_Source\PSoC5/cyfitter_cfg.c **** 			{0x7Bu, 0x20u},
1450:.\Generated_Source\PSoC5/cyfitter_cfg.c **** 			{0x81u, 0x40u},
1451:.\Generated_Source\PSoC5/cyfitter_cfg.c **** 			{0x82u, 0x05u},
1452:.\Generated_Source\PSoC5/cyfitter_cfg.c **** 			{0x87u, 0x01u},
1453:.\Generated_Source\PSoC5/cyfitter_cfg.c **** 			{0x8Cu, 0x08u},
1454:.\Generated_Source\PSoC5/cyfitter_cfg.c **** 			{0x8Eu, 0x40u},
1455:.\Generated_Source\PSoC5/cyfitter_cfg.c **** 			{0xC0u, 0x70u},
1456:.\Generated_Source\PSoC5/cyfitter_cfg.c **** 			{0xC2u, 0x30u},
1457:.\Generated_Source\PSoC5/cyfitter_cfg.c **** 			{0xC4u, 0xF0u},
1458:.\Generated_Source\PSoC5/cyfitter_cfg.c **** 			{0xCAu, 0xF7u},
1459:.\Generated_Source\PSoC5/cyfitter_cfg.c **** 			{0xCCu, 0xF6u},
1460:.\Generated_Source\PSoC5/cyfitter_cfg.c **** 			{0xCEu, 0xFFu},
1461:.\Generated_Source\PSoC5/cyfitter_cfg.c **** 			{0xD0u, 0x04u},
1462:.\Generated_Source\PSoC5/cyfitter_cfg.c **** 			{0xD6u, 0x0Fu},
1463:.\Generated_Source\PSoC5/cyfitter_cfg.c **** 			{0xD8u, 0x0Fu},
1464:.\Generated_Source\PSoC5/cyfitter_cfg.c **** 			{0xDEu, 0x02u},
1465:.\Generated_Source\PSoC5/cyfitter_cfg.c **** 			{0xE2u, 0x11u},
1466:.\Generated_Source\PSoC5/cyfitter_cfg.c **** 			{0xE4u, 0x40u},
1467:.\Generated_Source\PSoC5/cyfitter_cfg.c **** 			{0x0Au, 0x02u},
1468:.\Generated_Source\PSoC5/cyfitter_cfg.c **** 			{0x0Bu, 0x01u},
1469:.\Generated_Source\PSoC5/cyfitter_cfg.c **** 			{0x12u, 0x04u},
1470:.\Generated_Source\PSoC5/cyfitter_cfg.c **** 			{0x20u, 0x02u},
1471:.\Generated_Source\PSoC5/cyfitter_cfg.c **** 			{0x28u, 0x01u},
1472:.\Generated_Source\PSoC5/cyfitter_cfg.c **** 			{0x2Bu, 0x01u},
1473:.\Generated_Source\PSoC5/cyfitter_cfg.c **** 			{0x31u, 0x01u},
1474:.\Generated_Source\PSoC5/cyfitter_cfg.c **** 			{0x32u, 0x04u},
1475:.\Generated_Source\PSoC5/cyfitter_cfg.c **** 			{0x34u, 0x02u},
1476:.\Generated_Source\PSoC5/cyfitter_cfg.c **** 			{0x36u, 0x01u},
1477:.\Generated_Source\PSoC5/cyfitter_cfg.c **** 			{0x3Eu, 0x40u},
1478:.\Generated_Source\PSoC5/cyfitter_cfg.c **** 			{0x40u, 0x54u},
1479:.\Generated_Source\PSoC5/cyfitter_cfg.c **** 			{0x41u, 0x02u},
1480:.\Generated_Source\PSoC5/cyfitter_cfg.c **** 			{0x49u, 0xFFu},
1481:.\Generated_Source\PSoC5/cyfitter_cfg.c **** 			{0x4Au, 0xFFu},
1482:.\Generated_Source\PSoC5/cyfitter_cfg.c **** 			{0x4Bu, 0xFFu},
1483:.\Generated_Source\PSoC5/cyfitter_cfg.c **** 			{0x4Fu, 0x01u},
1484:.\Generated_Source\PSoC5/cyfitter_cfg.c **** 			{0x50u, 0x18u},
1485:.\Generated_Source\PSoC5/cyfitter_cfg.c **** 			{0x52u, 0x80u},
1486:.\Generated_Source\PSoC5/cyfitter_cfg.c **** 			{0x58u, 0x04u},
1487:.\Generated_Source\PSoC5/cyfitter_cfg.c **** 			{0x59u, 0x04u},
1488:.\Generated_Source\PSoC5/cyfitter_cfg.c **** 			{0x5Au, 0x04u},
1489:.\Generated_Source\PSoC5/cyfitter_cfg.c **** 			{0x5Bu, 0x04u},
1490:.\Generated_Source\PSoC5/cyfitter_cfg.c **** 			{0x5Cu, 0x33u},
1491:.\Generated_Source\PSoC5/cyfitter_cfg.c **** 			{0x5Du, 0x33u},
1492:.\Generated_Source\PSoC5/cyfitter_cfg.c **** 			{0x5Fu, 0x01u},
1493:.\Generated_Source\PSoC5/cyfitter_cfg.c **** 			{0x60u, 0x40u},
1494:.\Generated_Source\PSoC5/cyfitter_cfg.c **** 			{0x62u, 0x40u},
1495:.\Generated_Source\PSoC5/cyfitter_cfg.c **** 			{0x64u, 0x40u},
1496:.\Generated_Source\PSoC5/cyfitter_cfg.c **** 			{0x65u, 0x40u},
1497:.\Generated_Source\PSoC5/cyfitter_cfg.c **** 			{0x66u, 0x80u},
1498:.\Generated_Source\PSoC5/cyfitter_cfg.c **** 			{0x68u, 0x80u},
1499:.\Generated_Source\PSoC5/cyfitter_cfg.c **** 			{0x6Au, 0x80u},
1500:.\Generated_Source\PSoC5/cyfitter_cfg.c **** 			{0x6Cu, 0x80u},
1501:.\Generated_Source\PSoC5/cyfitter_cfg.c **** 			{0x6Eu, 0x80u},
1502:.\Generated_Source\PSoC5/cyfitter_cfg.c **** 			{0xC0u, 0x34u},
1503:.\Generated_Source\PSoC5/cyfitter_cfg.c **** 			{0xC1u, 0x06u},
1504:.\Generated_Source\PSoC5/cyfitter_cfg.c **** 			{0xC5u, 0xECu},
1505:.\Generated_Source\PSoC5/cyfitter_cfg.c **** 			{0xC6u, 0x02u},
ARM GAS  C:\Users\xavieran\AppData\Local\Temp\ccJfmadl.s 			page 36


1506:.\Generated_Source\PSoC5/cyfitter_cfg.c **** 			{0xC8u, 0x07u},
1507:.\Generated_Source\PSoC5/cyfitter_cfg.c **** 			{0xC9u, 0xFFu},
1508:.\Generated_Source\PSoC5/cyfitter_cfg.c **** 			{0xCAu, 0xFFu},
1509:.\Generated_Source\PSoC5/cyfitter_cfg.c **** 			{0xCBu, 0xFFu},
1510:.\Generated_Source\PSoC5/cyfitter_cfg.c **** 			{0xCDu, 0x83u},
1511:.\Generated_Source\PSoC5/cyfitter_cfg.c **** 			{0xCEu, 0x03u},
1512:.\Generated_Source\PSoC5/cyfitter_cfg.c **** 			{0xCFu, 0x01u},
1513:.\Generated_Source\PSoC5/cyfitter_cfg.c **** 			{0xD0u, 0x18u},
1514:.\Generated_Source\PSoC5/cyfitter_cfg.c **** 			{0xDAu, 0x04u},
1515:.\Generated_Source\PSoC5/cyfitter_cfg.c **** 			{0xDDu, 0x03u},
1516:.\Generated_Source\PSoC5/cyfitter_cfg.c **** 			{0xDFu, 0x01u},
1517:.\Generated_Source\PSoC5/cyfitter_cfg.c **** 			{0xE0u, 0x40u},
1518:.\Generated_Source\PSoC5/cyfitter_cfg.c **** 			{0xE2u, 0x40u},
1519:.\Generated_Source\PSoC5/cyfitter_cfg.c **** 			{0xE4u, 0x40u},
1520:.\Generated_Source\PSoC5/cyfitter_cfg.c **** 			{0xE5u, 0x40u},
1521:.\Generated_Source\PSoC5/cyfitter_cfg.c **** 			{0xE6u, 0x80u},
1522:.\Generated_Source\PSoC5/cyfitter_cfg.c **** 			{0xE8u, 0x80u},
1523:.\Generated_Source\PSoC5/cyfitter_cfg.c **** 			{0xEAu, 0x80u},
1524:.\Generated_Source\PSoC5/cyfitter_cfg.c **** 			{0xECu, 0x80u},
1525:.\Generated_Source\PSoC5/cyfitter_cfg.c **** 			{0xEEu, 0x80u},
1526:.\Generated_Source\PSoC5/cyfitter_cfg.c **** 			{0x03u, 0x08u},
1527:.\Generated_Source\PSoC5/cyfitter_cfg.c **** 			{0x0Au, 0x40u},
1528:.\Generated_Source\PSoC5/cyfitter_cfg.c **** 			{0x10u, 0x80u},
1529:.\Generated_Source\PSoC5/cyfitter_cfg.c **** 			{0x12u, 0x08u},
1530:.\Generated_Source\PSoC5/cyfitter_cfg.c **** 			{0x18u, 0x04u},
1531:.\Generated_Source\PSoC5/cyfitter_cfg.c **** 			{0x19u, 0x40u},
1532:.\Generated_Source\PSoC5/cyfitter_cfg.c **** 			{0x1Bu, 0x18u},
1533:.\Generated_Source\PSoC5/cyfitter_cfg.c **** 			{0x21u, 0x02u},
1534:.\Generated_Source\PSoC5/cyfitter_cfg.c **** 			{0x2Bu, 0x08u},
1535:.\Generated_Source\PSoC5/cyfitter_cfg.c **** 			{0x38u, 0x20u},
1536:.\Generated_Source\PSoC5/cyfitter_cfg.c **** 			{0x40u, 0x04u},
1537:.\Generated_Source\PSoC5/cyfitter_cfg.c **** 			{0x42u, 0x80u},
1538:.\Generated_Source\PSoC5/cyfitter_cfg.c **** 			{0x43u, 0x0Cu},
1539:.\Generated_Source\PSoC5/cyfitter_cfg.c **** 			{0x46u, 0x80u},
1540:.\Generated_Source\PSoC5/cyfitter_cfg.c **** 			{0x47u, 0x08u},
1541:.\Generated_Source\PSoC5/cyfitter_cfg.c **** 			{0x49u, 0x80u},
1542:.\Generated_Source\PSoC5/cyfitter_cfg.c **** 			{0x4Fu, 0x25u},
1543:.\Generated_Source\PSoC5/cyfitter_cfg.c **** 			{0x56u, 0x80u},
1544:.\Generated_Source\PSoC5/cyfitter_cfg.c **** 			{0x72u, 0x40u},
1545:.\Generated_Source\PSoC5/cyfitter_cfg.c **** 			{0x81u, 0x80u},
1546:.\Generated_Source\PSoC5/cyfitter_cfg.c **** 			{0x83u, 0x08u},
1547:.\Generated_Source\PSoC5/cyfitter_cfg.c **** 			{0x85u, 0x42u},
1548:.\Generated_Source\PSoC5/cyfitter_cfg.c **** 			{0x8Au, 0x08u},
1549:.\Generated_Source\PSoC5/cyfitter_cfg.c **** 			{0x8Cu, 0x04u},
1550:.\Generated_Source\PSoC5/cyfitter_cfg.c **** 			{0x90u, 0x20u},
1551:.\Generated_Source\PSoC5/cyfitter_cfg.c **** 			{0x94u, 0x04u},
1552:.\Generated_Source\PSoC5/cyfitter_cfg.c **** 			{0x97u, 0x05u},
1553:.\Generated_Source\PSoC5/cyfitter_cfg.c **** 			{0x9Du, 0x80u},
1554:.\Generated_Source\PSoC5/cyfitter_cfg.c **** 			{0x9Eu, 0x80u},
1555:.\Generated_Source\PSoC5/cyfitter_cfg.c **** 			{0x9Fu, 0x04u},
1556:.\Generated_Source\PSoC5/cyfitter_cfg.c **** 			{0xA0u, 0x80u},
1557:.\Generated_Source\PSoC5/cyfitter_cfg.c **** 			{0xC0u, 0x02u},
1558:.\Generated_Source\PSoC5/cyfitter_cfg.c **** 			{0xC2u, 0x08u},
1559:.\Generated_Source\PSoC5/cyfitter_cfg.c **** 			{0xC4u, 0x0Au},
1560:.\Generated_Source\PSoC5/cyfitter_cfg.c **** 			{0xCAu, 0x04u},
1561:.\Generated_Source\PSoC5/cyfitter_cfg.c **** 			{0xCEu, 0x04u},
1562:.\Generated_Source\PSoC5/cyfitter_cfg.c **** 			{0xD0u, 0xC5u},
ARM GAS  C:\Users\xavieran\AppData\Local\Temp\ccJfmadl.s 			page 37


1563:.\Generated_Source\PSoC5/cyfitter_cfg.c **** 			{0xD2u, 0x28u},
1564:.\Generated_Source\PSoC5/cyfitter_cfg.c **** 			{0xE0u, 0x80u},
1565:.\Generated_Source\PSoC5/cyfitter_cfg.c **** 			{0xE6u, 0x40u},
1566:.\Generated_Source\PSoC5/cyfitter_cfg.c **** 			{0xEAu, 0x01u},
1567:.\Generated_Source\PSoC5/cyfitter_cfg.c **** 			{0x02u, 0x01u},
1568:.\Generated_Source\PSoC5/cyfitter_cfg.c **** 			{0x0Eu, 0x01u},
1569:.\Generated_Source\PSoC5/cyfitter_cfg.c **** 			{0x30u, 0x01u},
1570:.\Generated_Source\PSoC5/cyfitter_cfg.c **** 			{0x3Eu, 0x01u},
1571:.\Generated_Source\PSoC5/cyfitter_cfg.c **** 			{0x40u, 0x30u},
1572:.\Generated_Source\PSoC5/cyfitter_cfg.c **** 			{0x41u, 0x06u},
1573:.\Generated_Source\PSoC5/cyfitter_cfg.c **** 			{0x49u, 0xFFu},
1574:.\Generated_Source\PSoC5/cyfitter_cfg.c **** 			{0x4Au, 0xFFu},
1575:.\Generated_Source\PSoC5/cyfitter_cfg.c **** 			{0x4Bu, 0xFFu},
1576:.\Generated_Source\PSoC5/cyfitter_cfg.c **** 			{0x4Du, 0xA0u},
1577:.\Generated_Source\PSoC5/cyfitter_cfg.c **** 			{0x4Fu, 0x04u},
1578:.\Generated_Source\PSoC5/cyfitter_cfg.c **** 			{0x50u, 0x18u},
1579:.\Generated_Source\PSoC5/cyfitter_cfg.c **** 			{0x54u, 0x01u},
1580:.\Generated_Source\PSoC5/cyfitter_cfg.c **** 			{0x58u, 0x04u},
1581:.\Generated_Source\PSoC5/cyfitter_cfg.c **** 			{0x5Au, 0x04u},
1582:.\Generated_Source\PSoC5/cyfitter_cfg.c **** 			{0x5Bu, 0x04u},
1583:.\Generated_Source\PSoC5/cyfitter_cfg.c **** 			{0x5Du, 0x33u},
1584:.\Generated_Source\PSoC5/cyfitter_cfg.c **** 			{0x5Fu, 0x05u},
1585:.\Generated_Source\PSoC5/cyfitter_cfg.c **** 			{0x60u, 0x40u},
1586:.\Generated_Source\PSoC5/cyfitter_cfg.c **** 			{0x62u, 0xC0u},
1587:.\Generated_Source\PSoC5/cyfitter_cfg.c **** 			{0x64u, 0x40u},
1588:.\Generated_Source\PSoC5/cyfitter_cfg.c **** 			{0x65u, 0x40u},
1589:.\Generated_Source\PSoC5/cyfitter_cfg.c **** 			{0x66u, 0xC0u},
1590:.\Generated_Source\PSoC5/cyfitter_cfg.c **** 			{0x68u, 0xC0u},
1591:.\Generated_Source\PSoC5/cyfitter_cfg.c **** 			{0x6Au, 0xC0u},
1592:.\Generated_Source\PSoC5/cyfitter_cfg.c **** 			{0x6Cu, 0xC0u},
1593:.\Generated_Source\PSoC5/cyfitter_cfg.c **** 			{0x6Eu, 0xC0u},
1594:.\Generated_Source\PSoC5/cyfitter_cfg.c **** 			{0x8Au, 0x04u},
1595:.\Generated_Source\PSoC5/cyfitter_cfg.c **** 			{0x8Bu, 0x01u},
1596:.\Generated_Source\PSoC5/cyfitter_cfg.c **** 			{0x94u, 0x01u},
1597:.\Generated_Source\PSoC5/cyfitter_cfg.c **** 			{0x9Du, 0x02u},
1598:.\Generated_Source\PSoC5/cyfitter_cfg.c **** 			{0xA0u, 0x02u},
1599:.\Generated_Source\PSoC5/cyfitter_cfg.c **** 			{0xA1u, 0x02u},
1600:.\Generated_Source\PSoC5/cyfitter_cfg.c **** 			{0xA6u, 0x01u},
1601:.\Generated_Source\PSoC5/cyfitter_cfg.c **** 			{0xAAu, 0x04u},
1602:.\Generated_Source\PSoC5/cyfitter_cfg.c **** 			{0xB0u, 0x02u},
1603:.\Generated_Source\PSoC5/cyfitter_cfg.c **** 			{0xB1u, 0x02u},
1604:.\Generated_Source\PSoC5/cyfitter_cfg.c **** 			{0xB2u, 0x04u},
1605:.\Generated_Source\PSoC5/cyfitter_cfg.c **** 			{0xB3u, 0x01u},
1606:.\Generated_Source\PSoC5/cyfitter_cfg.c **** 			{0xB4u, 0x01u},
1607:.\Generated_Source\PSoC5/cyfitter_cfg.c **** 			{0xBEu, 0x04u},
1608:.\Generated_Source\PSoC5/cyfitter_cfg.c **** 			{0xC0u, 0x30u},
1609:.\Generated_Source\PSoC5/cyfitter_cfg.c **** 			{0xC1u, 0x06u},
1610:.\Generated_Source\PSoC5/cyfitter_cfg.c **** 			{0xC5u, 0xD0u},
1611:.\Generated_Source\PSoC5/cyfitter_cfg.c **** 			{0xC6u, 0x51u},
1612:.\Generated_Source\PSoC5/cyfitter_cfg.c **** 			{0xC7u, 0x02u},
1613:.\Generated_Source\PSoC5/cyfitter_cfg.c **** 			{0xC8u, 0x1Eu},
1614:.\Generated_Source\PSoC5/cyfitter_cfg.c **** 			{0xC9u, 0xFFu},
1615:.\Generated_Source\PSoC5/cyfitter_cfg.c **** 			{0xCAu, 0xFFu},
1616:.\Generated_Source\PSoC5/cyfitter_cfg.c **** 			{0xCBu, 0xFFu},
1617:.\Generated_Source\PSoC5/cyfitter_cfg.c **** 			{0xCDu, 0xAFu},
1618:.\Generated_Source\PSoC5/cyfitter_cfg.c **** 			{0xCEu, 0x0Fu},
1619:.\Generated_Source\PSoC5/cyfitter_cfg.c **** 			{0xCFu, 0x04u},
ARM GAS  C:\Users\xavieran\AppData\Local\Temp\ccJfmadl.s 			page 38


1620:.\Generated_Source\PSoC5/cyfitter_cfg.c **** 			{0xD0u, 0x18u},
1621:.\Generated_Source\PSoC5/cyfitter_cfg.c **** 			{0xD4u, 0x07u},
1622:.\Generated_Source\PSoC5/cyfitter_cfg.c **** 			{0xD8u, 0x04u},
1623:.\Generated_Source\PSoC5/cyfitter_cfg.c **** 			{0xD9u, 0x04u},
1624:.\Generated_Source\PSoC5/cyfitter_cfg.c **** 			{0xDAu, 0x04u},
1625:.\Generated_Source\PSoC5/cyfitter_cfg.c **** 			{0xDBu, 0x04u},
1626:.\Generated_Source\PSoC5/cyfitter_cfg.c **** 			{0xDCu, 0x33u},
1627:.\Generated_Source\PSoC5/cyfitter_cfg.c **** 			{0xDDu, 0x33u},
1628:.\Generated_Source\PSoC5/cyfitter_cfg.c **** 			{0xDFu, 0x01u},
1629:.\Generated_Source\PSoC5/cyfitter_cfg.c **** 			{0xE0u, 0x40u},
1630:.\Generated_Source\PSoC5/cyfitter_cfg.c **** 			{0xE2u, 0xC0u},
1631:.\Generated_Source\PSoC5/cyfitter_cfg.c **** 			{0xE4u, 0x40u},
1632:.\Generated_Source\PSoC5/cyfitter_cfg.c **** 			{0xE5u, 0x40u},
1633:.\Generated_Source\PSoC5/cyfitter_cfg.c **** 			{0xE6u, 0xC0u},
1634:.\Generated_Source\PSoC5/cyfitter_cfg.c **** 			{0xE8u, 0xC0u},
1635:.\Generated_Source\PSoC5/cyfitter_cfg.c **** 			{0xEAu, 0xC0u},
1636:.\Generated_Source\PSoC5/cyfitter_cfg.c **** 			{0xECu, 0xC0u},
1637:.\Generated_Source\PSoC5/cyfitter_cfg.c **** 			{0xEEu, 0xC0u},
1638:.\Generated_Source\PSoC5/cyfitter_cfg.c **** 			{0x03u, 0x04u},
1639:.\Generated_Source\PSoC5/cyfitter_cfg.c **** 			{0x05u, 0x80u},
1640:.\Generated_Source\PSoC5/cyfitter_cfg.c **** 			{0x06u, 0x80u},
1641:.\Generated_Source\PSoC5/cyfitter_cfg.c **** 			{0x09u, 0x08u},
1642:.\Generated_Source\PSoC5/cyfitter_cfg.c **** 			{0x10u, 0xA0u},
1643:.\Generated_Source\PSoC5/cyfitter_cfg.c **** 			{0x12u, 0x08u},
1644:.\Generated_Source\PSoC5/cyfitter_cfg.c **** 			{0x19u, 0x16u},
1645:.\Generated_Source\PSoC5/cyfitter_cfg.c **** 			{0x1Eu, 0x80u},
1646:.\Generated_Source\PSoC5/cyfitter_cfg.c **** 			{0x21u, 0x08u},
1647:.\Generated_Source\PSoC5/cyfitter_cfg.c **** 			{0x23u, 0x80u},
1648:.\Generated_Source\PSoC5/cyfitter_cfg.c **** 			{0x29u, 0x02u},
1649:.\Generated_Source\PSoC5/cyfitter_cfg.c **** 			{0x30u, 0x80u},
1650:.\Generated_Source\PSoC5/cyfitter_cfg.c **** 			{0x38u, 0x20u},
1651:.\Generated_Source\PSoC5/cyfitter_cfg.c **** 			{0x43u, 0x04u},
1652:.\Generated_Source\PSoC5/cyfitter_cfg.c **** 			{0x47u, 0x04u},
1653:.\Generated_Source\PSoC5/cyfitter_cfg.c **** 			{0x49u, 0x01u},
1654:.\Generated_Source\PSoC5/cyfitter_cfg.c **** 			{0x4Au, 0x08u},
1655:.\Generated_Source\PSoC5/cyfitter_cfg.c **** 			{0x4Eu, 0x08u},
1656:.\Generated_Source\PSoC5/cyfitter_cfg.c **** 			{0x50u, 0xB0u},
1657:.\Generated_Source\PSoC5/cyfitter_cfg.c **** 			{0x52u, 0x08u},
1658:.\Generated_Source\PSoC5/cyfitter_cfg.c **** 			{0x59u, 0x15u},
1659:.\Generated_Source\PSoC5/cyfitter_cfg.c **** 			{0x5Bu, 0x80u},
1660:.\Generated_Source\PSoC5/cyfitter_cfg.c **** 			{0x5Eu, 0x80u},
1661:.\Generated_Source\PSoC5/cyfitter_cfg.c **** 			{0x5Fu, 0x05u},
1662:.\Generated_Source\PSoC5/cyfitter_cfg.c **** 			{0x7Cu, 0x04u},
1663:.\Generated_Source\PSoC5/cyfitter_cfg.c **** 			{0xB0u, 0x10u},
1664:.\Generated_Source\PSoC5/cyfitter_cfg.c **** 			{0xC0u, 0x92u},
1665:.\Generated_Source\PSoC5/cyfitter_cfg.c **** 			{0xC2u, 0x04u},
1666:.\Generated_Source\PSoC5/cyfitter_cfg.c **** 			{0xC4u, 0x0Eu},
1667:.\Generated_Source\PSoC5/cyfitter_cfg.c **** 			{0xCAu, 0x01u},
1668:.\Generated_Source\PSoC5/cyfitter_cfg.c **** 			{0xCCu, 0x08u},
1669:.\Generated_Source\PSoC5/cyfitter_cfg.c **** 			{0xCEu, 0x04u},
1670:.\Generated_Source\PSoC5/cyfitter_cfg.c **** 			{0xD0u, 0x42u},
1671:.\Generated_Source\PSoC5/cyfitter_cfg.c **** 			{0xD2u, 0x24u},
1672:.\Generated_Source\PSoC5/cyfitter_cfg.c **** 			{0xD6u, 0xDFu},
1673:.\Generated_Source\PSoC5/cyfitter_cfg.c **** 			{0xDEu, 0x40u},
1674:.\Generated_Source\PSoC5/cyfitter_cfg.c **** 			{0xE4u, 0x80u},
1675:.\Generated_Source\PSoC5/cyfitter_cfg.c **** 			{0xE8u, 0x14u},
1676:.\Generated_Source\PSoC5/cyfitter_cfg.c **** 			{0xEAu, 0x01u},
ARM GAS  C:\Users\xavieran\AppData\Local\Temp\ccJfmadl.s 			page 39


1677:.\Generated_Source\PSoC5/cyfitter_cfg.c **** 			{0xECu, 0x20u},
1678:.\Generated_Source\PSoC5/cyfitter_cfg.c **** 			{0x81u, 0x04u},
1679:.\Generated_Source\PSoC5/cyfitter_cfg.c **** 			{0x8Eu, 0x40u},
1680:.\Generated_Source\PSoC5/cyfitter_cfg.c **** 			{0x92u, 0x40u},
1681:.\Generated_Source\PSoC5/cyfitter_cfg.c **** 			{0x9Cu, 0x80u},
1682:.\Generated_Source\PSoC5/cyfitter_cfg.c **** 			{0x9Du, 0x08u},
1683:.\Generated_Source\PSoC5/cyfitter_cfg.c **** 			{0xA1u, 0x04u},
1684:.\Generated_Source\PSoC5/cyfitter_cfg.c **** 			{0xA4u, 0x04u},
1685:.\Generated_Source\PSoC5/cyfitter_cfg.c **** 			{0xA8u, 0x40u},
1686:.\Generated_Source\PSoC5/cyfitter_cfg.c **** 			{0xB0u, 0x01u},
1687:.\Generated_Source\PSoC5/cyfitter_cfg.c **** 			{0xB1u, 0x20u},
1688:.\Generated_Source\PSoC5/cyfitter_cfg.c **** 			{0xB3u, 0x02u},
1689:.\Generated_Source\PSoC5/cyfitter_cfg.c **** 			{0xE0u, 0x04u},
1690:.\Generated_Source\PSoC5/cyfitter_cfg.c **** 			{0xE4u, 0x80u},
1691:.\Generated_Source\PSoC5/cyfitter_cfg.c **** 			{0xE8u, 0x14u},
1692:.\Generated_Source\PSoC5/cyfitter_cfg.c **** 			{0xECu, 0xA0u},
1693:.\Generated_Source\PSoC5/cyfitter_cfg.c **** 			{0x88u, 0x04u},
1694:.\Generated_Source\PSoC5/cyfitter_cfg.c **** 			{0xA4u, 0x04u},
1695:.\Generated_Source\PSoC5/cyfitter_cfg.c **** 			{0xB0u, 0x80u},
1696:.\Generated_Source\PSoC5/cyfitter_cfg.c **** 			{0xB5u, 0x08u},
1697:.\Generated_Source\PSoC5/cyfitter_cfg.c **** 			{0xE0u, 0x80u},
1698:.\Generated_Source\PSoC5/cyfitter_cfg.c **** 			{0xE6u, 0x80u},
1699:.\Generated_Source\PSoC5/cyfitter_cfg.c **** 			{0xEAu, 0x01u},
1700:.\Generated_Source\PSoC5/cyfitter_cfg.c **** 			{0x0Au, 0x14u},
1701:.\Generated_Source\PSoC5/cyfitter_cfg.c **** 			{0x0Cu, 0x80u},
1702:.\Generated_Source\PSoC5/cyfitter_cfg.c **** 			{0x0Eu, 0x40u},
1703:.\Generated_Source\PSoC5/cyfitter_cfg.c **** 			{0x30u, 0x42u},
1704:.\Generated_Source\PSoC5/cyfitter_cfg.c **** 			{0x34u, 0x02u},
1705:.\Generated_Source\PSoC5/cyfitter_cfg.c **** 			{0x37u, 0x80u},
1706:.\Generated_Source\PSoC5/cyfitter_cfg.c **** 			{0x3Fu, 0x80u},
1707:.\Generated_Source\PSoC5/cyfitter_cfg.c **** 			{0x56u, 0x20u},
1708:.\Generated_Source\PSoC5/cyfitter_cfg.c **** 			{0x5Fu, 0x20u},
1709:.\Generated_Source\PSoC5/cyfitter_cfg.c **** 			{0x83u, 0x60u},
1710:.\Generated_Source\PSoC5/cyfitter_cfg.c **** 			{0x86u, 0x24u},
1711:.\Generated_Source\PSoC5/cyfitter_cfg.c **** 			{0x8Cu, 0x82u},
1712:.\Generated_Source\PSoC5/cyfitter_cfg.c **** 			{0xC2u, 0xF0u},
1713:.\Generated_Source\PSoC5/cyfitter_cfg.c **** 			{0xCCu, 0xF0u},
1714:.\Generated_Source\PSoC5/cyfitter_cfg.c **** 			{0xCEu, 0x20u},
1715:.\Generated_Source\PSoC5/cyfitter_cfg.c **** 			{0xD4u, 0x40u},
1716:.\Generated_Source\PSoC5/cyfitter_cfg.c **** 			{0xD6u, 0x20u},
1717:.\Generated_Source\PSoC5/cyfitter_cfg.c **** 			{0xE0u, 0x40u},
1718:.\Generated_Source\PSoC5/cyfitter_cfg.c **** 			{0xE2u, 0xB0u},
1719:.\Generated_Source\PSoC5/cyfitter_cfg.c **** 			{0x31u, 0x02u},
1720:.\Generated_Source\PSoC5/cyfitter_cfg.c **** 			{0x33u, 0x10u},
1721:.\Generated_Source\PSoC5/cyfitter_cfg.c **** 			{0x35u, 0x20u},
1722:.\Generated_Source\PSoC5/cyfitter_cfg.c **** 			{0x36u, 0x08u},
1723:.\Generated_Source\PSoC5/cyfitter_cfg.c **** 			{0x58u, 0x04u},
1724:.\Generated_Source\PSoC5/cyfitter_cfg.c **** 			{0x63u, 0x20u},
1725:.\Generated_Source\PSoC5/cyfitter_cfg.c **** 			{0x65u, 0x01u},
1726:.\Generated_Source\PSoC5/cyfitter_cfg.c **** 			{0x67u, 0x02u},
1727:.\Generated_Source\PSoC5/cyfitter_cfg.c **** 			{0x81u, 0x80u},
1728:.\Generated_Source\PSoC5/cyfitter_cfg.c **** 			{0x82u, 0x08u},
1729:.\Generated_Source\PSoC5/cyfitter_cfg.c **** 			{0x9Cu, 0x40u},
1730:.\Generated_Source\PSoC5/cyfitter_cfg.c **** 			{0x9Fu, 0x80u},
1731:.\Generated_Source\PSoC5/cyfitter_cfg.c **** 			{0xA4u, 0x02u},
1732:.\Generated_Source\PSoC5/cyfitter_cfg.c **** 			{0xAAu, 0x50u},
1733:.\Generated_Source\PSoC5/cyfitter_cfg.c **** 			{0xCCu, 0xF0u},
ARM GAS  C:\Users\xavieran\AppData\Local\Temp\ccJfmadl.s 			page 40


1734:.\Generated_Source\PSoC5/cyfitter_cfg.c **** 			{0xD6u, 0xC0u},
1735:.\Generated_Source\PSoC5/cyfitter_cfg.c **** 			{0xD8u, 0xC0u},
1736:.\Generated_Source\PSoC5/cyfitter_cfg.c **** 			{0xE2u, 0x20u},
1737:.\Generated_Source\PSoC5/cyfitter_cfg.c **** 			{0xE6u, 0x80u},
1738:.\Generated_Source\PSoC5/cyfitter_cfg.c **** 			{0xE8u, 0xA0u},
1739:.\Generated_Source\PSoC5/cyfitter_cfg.c **** 			{0x10u, 0x20u},
1740:.\Generated_Source\PSoC5/cyfitter_cfg.c **** 			{0x3Eu, 0x10u},
1741:.\Generated_Source\PSoC5/cyfitter_cfg.c **** 			{0x51u, 0x80u},
1742:.\Generated_Source\PSoC5/cyfitter_cfg.c **** 			{0x58u, 0x04u},
1743:.\Generated_Source\PSoC5/cyfitter_cfg.c **** 			{0x5Du, 0x01u},
1744:.\Generated_Source\PSoC5/cyfitter_cfg.c **** 			{0x62u, 0x08u},
1745:.\Generated_Source\PSoC5/cyfitter_cfg.c **** 			{0x64u, 0x04u},
1746:.\Generated_Source\PSoC5/cyfitter_cfg.c **** 			{0x97u, 0x02u},
1747:.\Generated_Source\PSoC5/cyfitter_cfg.c **** 			{0x9Cu, 0x40u},
1748:.\Generated_Source\PSoC5/cyfitter_cfg.c **** 			{0x9Fu, 0x90u},
1749:.\Generated_Source\PSoC5/cyfitter_cfg.c **** 			{0xA1u, 0x80u},
1750:.\Generated_Source\PSoC5/cyfitter_cfg.c **** 			{0xA5u, 0x02u},
1751:.\Generated_Source\PSoC5/cyfitter_cfg.c **** 			{0xA8u, 0x02u},
1752:.\Generated_Source\PSoC5/cyfitter_cfg.c **** 			{0xABu, 0x10u},
1753:.\Generated_Source\PSoC5/cyfitter_cfg.c **** 			{0xADu, 0x20u},
1754:.\Generated_Source\PSoC5/cyfitter_cfg.c **** 			{0xB0u, 0x04u},
1755:.\Generated_Source\PSoC5/cyfitter_cfg.c **** 			{0xB5u, 0x01u},
1756:.\Generated_Source\PSoC5/cyfitter_cfg.c **** 			{0xC4u, 0x10u},
1757:.\Generated_Source\PSoC5/cyfitter_cfg.c **** 			{0xCEu, 0x20u},
1758:.\Generated_Source\PSoC5/cyfitter_cfg.c **** 			{0xD4u, 0x20u},
1759:.\Generated_Source\PSoC5/cyfitter_cfg.c **** 			{0xD6u, 0xC0u},
1760:.\Generated_Source\PSoC5/cyfitter_cfg.c **** 			{0xD8u, 0xC0u},
1761:.\Generated_Source\PSoC5/cyfitter_cfg.c **** 			{0xEAu, 0x20u},
1762:.\Generated_Source\PSoC5/cyfitter_cfg.c **** 			{0xEEu, 0xC0u},
1763:.\Generated_Source\PSoC5/cyfitter_cfg.c **** 			{0x18u, 0x10u},
1764:.\Generated_Source\PSoC5/cyfitter_cfg.c **** 			{0x1Bu, 0x40u},
1765:.\Generated_Source\PSoC5/cyfitter_cfg.c **** 			{0x1Fu, 0x81u},
1766:.\Generated_Source\PSoC5/cyfitter_cfg.c **** 			{0x83u, 0x10u},
1767:.\Generated_Source\PSoC5/cyfitter_cfg.c **** 			{0x84u, 0x10u},
1768:.\Generated_Source\PSoC5/cyfitter_cfg.c **** 			{0x96u, 0x10u},
1769:.\Generated_Source\PSoC5/cyfitter_cfg.c **** 			{0x97u, 0x02u},
1770:.\Generated_Source\PSoC5/cyfitter_cfg.c **** 			{0x9Cu, 0x40u},
1771:.\Generated_Source\PSoC5/cyfitter_cfg.c **** 			{0x9Fu, 0x90u},
1772:.\Generated_Source\PSoC5/cyfitter_cfg.c **** 			{0xA0u, 0x20u},
1773:.\Generated_Source\PSoC5/cyfitter_cfg.c **** 			{0xA5u, 0x02u},
1774:.\Generated_Source\PSoC5/cyfitter_cfg.c **** 			{0xACu, 0x04u},
1775:.\Generated_Source\PSoC5/cyfitter_cfg.c **** 			{0xADu, 0x01u},
1776:.\Generated_Source\PSoC5/cyfitter_cfg.c **** 			{0xAEu, 0x08u},
1777:.\Generated_Source\PSoC5/cyfitter_cfg.c **** 			{0xC6u, 0xF0u},
1778:.\Generated_Source\PSoC5/cyfitter_cfg.c **** 			{0xE2u, 0x20u},
1779:.\Generated_Source\PSoC5/cyfitter_cfg.c **** 			{0xE6u, 0x40u},
1780:.\Generated_Source\PSoC5/cyfitter_cfg.c **** 			{0xEAu, 0x10u},
1781:.\Generated_Source\PSoC5/cyfitter_cfg.c **** 			{0x00u, 0x02u},
1782:.\Generated_Source\PSoC5/cyfitter_cfg.c **** 			{0x01u, 0x40u},
1783:.\Generated_Source\PSoC5/cyfitter_cfg.c **** 			{0x04u, 0x02u},
1784:.\Generated_Source\PSoC5/cyfitter_cfg.c **** 			{0x07u, 0x04u},
1785:.\Generated_Source\PSoC5/cyfitter_cfg.c **** 			{0x08u, 0x08u},
1786:.\Generated_Source\PSoC5/cyfitter_cfg.c **** 			{0x60u, 0x80u},
1787:.\Generated_Source\PSoC5/cyfitter_cfg.c **** 			{0x83u, 0x04u},
1788:.\Generated_Source\PSoC5/cyfitter_cfg.c **** 			{0x8Du, 0x41u},
1789:.\Generated_Source\PSoC5/cyfitter_cfg.c **** 			{0xC0u, 0x0Fu},
1790:.\Generated_Source\PSoC5/cyfitter_cfg.c **** 			{0xC2u, 0x08u},
ARM GAS  C:\Users\xavieran\AppData\Local\Temp\ccJfmadl.s 			page 41


1791:.\Generated_Source\PSoC5/cyfitter_cfg.c **** 			{0xD8u, 0x02u},
1792:.\Generated_Source\PSoC5/cyfitter_cfg.c **** 			{0xE2u, 0x0Au},
1793:.\Generated_Source\PSoC5/cyfitter_cfg.c **** 			{0x02u, 0x20u},
1794:.\Generated_Source\PSoC5/cyfitter_cfg.c **** 			{0x05u, 0x80u},
1795:.\Generated_Source\PSoC5/cyfitter_cfg.c **** 			{0x0Du, 0x01u},
1796:.\Generated_Source\PSoC5/cyfitter_cfg.c **** 			{0x54u, 0x20u},
1797:.\Generated_Source\PSoC5/cyfitter_cfg.c **** 			{0x5Du, 0x01u},
1798:.\Generated_Source\PSoC5/cyfitter_cfg.c **** 			{0x8Fu, 0x10u},
1799:.\Generated_Source\PSoC5/cyfitter_cfg.c **** 			{0x9Cu, 0x80u},
1800:.\Generated_Source\PSoC5/cyfitter_cfg.c **** 			{0xA5u, 0x01u},
1801:.\Generated_Source\PSoC5/cyfitter_cfg.c **** 			{0xA8u, 0x01u},
1802:.\Generated_Source\PSoC5/cyfitter_cfg.c **** 			{0xACu, 0x01u},
1803:.\Generated_Source\PSoC5/cyfitter_cfg.c **** 			{0xB4u, 0x08u},
1804:.\Generated_Source\PSoC5/cyfitter_cfg.c **** 			{0xC0u, 0x09u},
1805:.\Generated_Source\PSoC5/cyfitter_cfg.c **** 			{0xC2u, 0x04u},
1806:.\Generated_Source\PSoC5/cyfitter_cfg.c **** 			{0xD4u, 0x02u},
1807:.\Generated_Source\PSoC5/cyfitter_cfg.c **** 			{0xD6u, 0x01u},
1808:.\Generated_Source\PSoC5/cyfitter_cfg.c **** 			{0xE6u, 0x02u},
1809:.\Generated_Source\PSoC5/cyfitter_cfg.c **** 			{0xEAu, 0x02u},
1810:.\Generated_Source\PSoC5/cyfitter_cfg.c **** 			{0x07u, 0x10u},
1811:.\Generated_Source\PSoC5/cyfitter_cfg.c **** 			{0x91u, 0x0Au},
1812:.\Generated_Source\PSoC5/cyfitter_cfg.c **** 			{0x95u, 0x01u},
1813:.\Generated_Source\PSoC5/cyfitter_cfg.c **** 			{0x96u, 0x02u},
1814:.\Generated_Source\PSoC5/cyfitter_cfg.c **** 			{0x9Cu, 0x80u},
1815:.\Generated_Source\PSoC5/cyfitter_cfg.c **** 			{0x9Fu, 0x10u},
1816:.\Generated_Source\PSoC5/cyfitter_cfg.c **** 			{0xA4u, 0x20u},
1817:.\Generated_Source\PSoC5/cyfitter_cfg.c **** 			{0xA5u, 0x01u},
1818:.\Generated_Source\PSoC5/cyfitter_cfg.c **** 			{0xAAu, 0x20u},
1819:.\Generated_Source\PSoC5/cyfitter_cfg.c **** 			{0xAEu, 0x01u},
1820:.\Generated_Source\PSoC5/cyfitter_cfg.c **** 			{0xB1u, 0x84u},
1821:.\Generated_Source\PSoC5/cyfitter_cfg.c **** 			{0xC0u, 0x04u},
1822:.\Generated_Source\PSoC5/cyfitter_cfg.c **** 			{0x09u, 0x01u},
1823:.\Generated_Source\PSoC5/cyfitter_cfg.c **** 			{0x0Au, 0x02u},
1824:.\Generated_Source\PSoC5/cyfitter_cfg.c **** 			{0x0Fu, 0x80u},
1825:.\Generated_Source\PSoC5/cyfitter_cfg.c **** 			{0x83u, 0x40u},
1826:.\Generated_Source\PSoC5/cyfitter_cfg.c **** 			{0x91u, 0x08u},
1827:.\Generated_Source\PSoC5/cyfitter_cfg.c **** 			{0x93u, 0x20u},
1828:.\Generated_Source\PSoC5/cyfitter_cfg.c **** 			{0x95u, 0x01u},
1829:.\Generated_Source\PSoC5/cyfitter_cfg.c **** 			{0x96u, 0x02u},
1830:.\Generated_Source\PSoC5/cyfitter_cfg.c **** 			{0x9Cu, 0x80u},
1831:.\Generated_Source\PSoC5/cyfitter_cfg.c **** 			{0xA4u, 0x20u},
1832:.\Generated_Source\PSoC5/cyfitter_cfg.c **** 			{0xA5u, 0x01u},
1833:.\Generated_Source\PSoC5/cyfitter_cfg.c **** 			{0xADu, 0x01u},
1834:.\Generated_Source\PSoC5/cyfitter_cfg.c **** 			{0xAFu, 0x10u},
1835:.\Generated_Source\PSoC5/cyfitter_cfg.c **** 			{0xC2u, 0x0Eu},
1836:.\Generated_Source\PSoC5/cyfitter_cfg.c **** 			{0x25u, 0x20u},
1837:.\Generated_Source\PSoC5/cyfitter_cfg.c **** 			{0x58u, 0x10u},
1838:.\Generated_Source\PSoC5/cyfitter_cfg.c **** 			{0x89u, 0x20u},
1839:.\Generated_Source\PSoC5/cyfitter_cfg.c **** 			{0x96u, 0x10u},
1840:.\Generated_Source\PSoC5/cyfitter_cfg.c **** 			{0x98u, 0x10u},
1841:.\Generated_Source\PSoC5/cyfitter_cfg.c **** 			{0x9Cu, 0x40u},
1842:.\Generated_Source\PSoC5/cyfitter_cfg.c **** 			{0x9Fu, 0x80u},
1843:.\Generated_Source\PSoC5/cyfitter_cfg.c **** 			{0xA3u, 0x80u},
1844:.\Generated_Source\PSoC5/cyfitter_cfg.c **** 			{0xA9u, 0x02u},
1845:.\Generated_Source\PSoC5/cyfitter_cfg.c **** 			{0xABu, 0x40u},
1846:.\Generated_Source\PSoC5/cyfitter_cfg.c **** 			{0xB0u, 0x20u},
1847:.\Generated_Source\PSoC5/cyfitter_cfg.c **** 			{0xB4u, 0x10u},
ARM GAS  C:\Users\xavieran\AppData\Local\Temp\ccJfmadl.s 			page 42


1848:.\Generated_Source\PSoC5/cyfitter_cfg.c **** 			{0xC8u, 0x20u},
1849:.\Generated_Source\PSoC5/cyfitter_cfg.c **** 			{0xD4u, 0x80u},
1850:.\Generated_Source\PSoC5/cyfitter_cfg.c **** 			{0xE8u, 0x20u},
1851:.\Generated_Source\PSoC5/cyfitter_cfg.c **** 			{0xEAu, 0x80u},
1852:.\Generated_Source\PSoC5/cyfitter_cfg.c **** 			{0x03u, 0x02u},
1853:.\Generated_Source\PSoC5/cyfitter_cfg.c **** 			{0x21u, 0x40u},
1854:.\Generated_Source\PSoC5/cyfitter_cfg.c **** 			{0x50u, 0x02u},
1855:.\Generated_Source\PSoC5/cyfitter_cfg.c **** 			{0x79u, 0x80u},
1856:.\Generated_Source\PSoC5/cyfitter_cfg.c **** 			{0x83u, 0x02u},
1857:.\Generated_Source\PSoC5/cyfitter_cfg.c **** 			{0x84u, 0x40u},
1858:.\Generated_Source\PSoC5/cyfitter_cfg.c **** 			{0x87u, 0x80u},
1859:.\Generated_Source\PSoC5/cyfitter_cfg.c **** 			{0x8Bu, 0x80u},
1860:.\Generated_Source\PSoC5/cyfitter_cfg.c **** 			{0x8Cu, 0x02u},
1861:.\Generated_Source\PSoC5/cyfitter_cfg.c **** 			{0x9Cu, 0x40u},
1862:.\Generated_Source\PSoC5/cyfitter_cfg.c **** 			{0x9Fu, 0x80u},
1863:.\Generated_Source\PSoC5/cyfitter_cfg.c **** 			{0xA3u, 0x80u},
1864:.\Generated_Source\PSoC5/cyfitter_cfg.c **** 			{0xAAu, 0x10u},
1865:.\Generated_Source\PSoC5/cyfitter_cfg.c **** 			{0xC0u, 0x40u},
1866:.\Generated_Source\PSoC5/cyfitter_cfg.c **** 			{0xC8u, 0x10u},
1867:.\Generated_Source\PSoC5/cyfitter_cfg.c **** 			{0xD4u, 0x80u},
1868:.\Generated_Source\PSoC5/cyfitter_cfg.c **** 			{0xDCu, 0x80u},
1869:.\Generated_Source\PSoC5/cyfitter_cfg.c **** 			{0xE0u, 0x20u},
1870:.\Generated_Source\PSoC5/cyfitter_cfg.c **** 			{0xE2u, 0x40u},
1871:.\Generated_Source\PSoC5/cyfitter_cfg.c **** 			{0xE6u, 0x10u},
1872:.\Generated_Source\PSoC5/cyfitter_cfg.c **** 			{0xEAu, 0x80u},
1873:.\Generated_Source\PSoC5/cyfitter_cfg.c **** 			{0x0Bu, 0x02u},
1874:.\Generated_Source\PSoC5/cyfitter_cfg.c **** 			{0x0Cu, 0x10u},
1875:.\Generated_Source\PSoC5/cyfitter_cfg.c **** 			{0x10u, 0x20u},
1876:.\Generated_Source\PSoC5/cyfitter_cfg.c **** 			{0x13u, 0x20u},
1877:.\Generated_Source\PSoC5/cyfitter_cfg.c **** 			{0x15u, 0x01u},
1878:.\Generated_Source\PSoC5/cyfitter_cfg.c **** 			{0x65u, 0x81u},
1879:.\Generated_Source\PSoC5/cyfitter_cfg.c **** 			{0x72u, 0x20u},
1880:.\Generated_Source\PSoC5/cyfitter_cfg.c **** 			{0x79u, 0x08u},
1881:.\Generated_Source\PSoC5/cyfitter_cfg.c **** 			{0x7Fu, 0x10u},
1882:.\Generated_Source\PSoC5/cyfitter_cfg.c **** 			{0x81u, 0x01u},
1883:.\Generated_Source\PSoC5/cyfitter_cfg.c **** 			{0x8Au, 0x20u},
1884:.\Generated_Source\PSoC5/cyfitter_cfg.c **** 			{0x8Du, 0x80u},
1885:.\Generated_Source\PSoC5/cyfitter_cfg.c **** 			{0x91u, 0x08u},
1886:.\Generated_Source\PSoC5/cyfitter_cfg.c **** 			{0x93u, 0x20u},
1887:.\Generated_Source\PSoC5/cyfitter_cfg.c **** 			{0x95u, 0x01u},
1888:.\Generated_Source\PSoC5/cyfitter_cfg.c **** 			{0x98u, 0x80u},
1889:.\Generated_Source\PSoC5/cyfitter_cfg.c **** 			{0x9Bu, 0x10u},
1890:.\Generated_Source\PSoC5/cyfitter_cfg.c **** 			{0xA4u, 0x20u},
1891:.\Generated_Source\PSoC5/cyfitter_cfg.c **** 			{0xABu, 0x10u},
1892:.\Generated_Source\PSoC5/cyfitter_cfg.c **** 			{0xB4u, 0x80u},
1893:.\Generated_Source\PSoC5/cyfitter_cfg.c **** 			{0xC2u, 0x03u},
1894:.\Generated_Source\PSoC5/cyfitter_cfg.c **** 			{0xC4u, 0x0Eu},
1895:.\Generated_Source\PSoC5/cyfitter_cfg.c **** 			{0xD6u, 0x01u},
1896:.\Generated_Source\PSoC5/cyfitter_cfg.c **** 			{0xD8u, 0x01u},
1897:.\Generated_Source\PSoC5/cyfitter_cfg.c **** 			{0xDCu, 0x01u},
1898:.\Generated_Source\PSoC5/cyfitter_cfg.c **** 			{0xDEu, 0x03u},
1899:.\Generated_Source\PSoC5/cyfitter_cfg.c **** 			{0xE4u, 0x03u},
1900:.\Generated_Source\PSoC5/cyfitter_cfg.c **** 			{0xE8u, 0x08u},
1901:.\Generated_Source\PSoC5/cyfitter_cfg.c **** 			{0x0Cu, 0x10u},
1902:.\Generated_Source\PSoC5/cyfitter_cfg.c **** 			{0x12u, 0x40u},
1903:.\Generated_Source\PSoC5/cyfitter_cfg.c **** 			{0x57u, 0x20u},
1904:.\Generated_Source\PSoC5/cyfitter_cfg.c **** 			{0x60u, 0x80u},
ARM GAS  C:\Users\xavieran\AppData\Local\Temp\ccJfmadl.s 			page 43


1905:.\Generated_Source\PSoC5/cyfitter_cfg.c **** 			{0x77u, 0x10u},
1906:.\Generated_Source\PSoC5/cyfitter_cfg.c **** 			{0x88u, 0x10u},
1907:.\Generated_Source\PSoC5/cyfitter_cfg.c **** 			{0x8Au, 0x40u},
1908:.\Generated_Source\PSoC5/cyfitter_cfg.c **** 			{0x8Bu, 0x20u},
1909:.\Generated_Source\PSoC5/cyfitter_cfg.c **** 			{0x98u, 0x80u},
1910:.\Generated_Source\PSoC5/cyfitter_cfg.c **** 			{0x9Bu, 0x10u},
1911:.\Generated_Source\PSoC5/cyfitter_cfg.c **** 			{0xABu, 0x20u},
1912:.\Generated_Source\PSoC5/cyfitter_cfg.c **** 			{0xB0u, 0x10u},
1913:.\Generated_Source\PSoC5/cyfitter_cfg.c **** 			{0xB7u, 0x01u},
1914:.\Generated_Source\PSoC5/cyfitter_cfg.c **** 			{0xC2u, 0x01u},
1915:.\Generated_Source\PSoC5/cyfitter_cfg.c **** 			{0xC4u, 0x08u},
1916:.\Generated_Source\PSoC5/cyfitter_cfg.c **** 			{0xD4u, 0x02u},
1917:.\Generated_Source\PSoC5/cyfitter_cfg.c **** 			{0xD8u, 0x02u},
1918:.\Generated_Source\PSoC5/cyfitter_cfg.c **** 			{0xDEu, 0x04u},
1919:.\Generated_Source\PSoC5/cyfitter_cfg.c **** 			{0xE0u, 0x01u},
1920:.\Generated_Source\PSoC5/cyfitter_cfg.c **** 			{0xE2u, 0x04u},
1921:.\Generated_Source\PSoC5/cyfitter_cfg.c **** 			{0xE6u, 0x01u},
1922:.\Generated_Source\PSoC5/cyfitter_cfg.c **** 			{0xEAu, 0x06u},
1923:.\Generated_Source\PSoC5/cyfitter_cfg.c **** 			{0x00u, 0x34u},
1924:.\Generated_Source\PSoC5/cyfitter_cfg.c **** 			{0x08u, 0x10u},
1925:.\Generated_Source\PSoC5/cyfitter_cfg.c **** 			{0x0Au, 0x24u},
1926:.\Generated_Source\PSoC5/cyfitter_cfg.c **** 			{0x0Cu, 0x04u},
1927:.\Generated_Source\PSoC5/cyfitter_cfg.c **** 			{0x0Eu, 0x04u},
1928:.\Generated_Source\PSoC5/cyfitter_cfg.c **** 			{0x10u, 0x08u},
1929:.\Generated_Source\PSoC5/cyfitter_cfg.c **** 			{0x1Au, 0x08u},
1930:.\Generated_Source\PSoC5/cyfitter_cfg.c **** 			{0x10u, 0x01u},
1931:.\Generated_Source\PSoC5/cyfitter_cfg.c **** 		};
1932:.\Generated_Source\PSoC5/cyfitter_cfg.c **** 
1933:.\Generated_Source\PSoC5/cyfitter_cfg.c **** 
1934:.\Generated_Source\PSoC5/cyfitter_cfg.c **** 
1935:.\Generated_Source\PSoC5/cyfitter_cfg.c **** 		CYPACKED typedef struct {
1936:.\Generated_Source\PSoC5/cyfitter_cfg.c **** 			void CYFAR *address;
1937:.\Generated_Source\PSoC5/cyfitter_cfg.c **** 			uint16 size;
1938:.\Generated_Source\PSoC5/cyfitter_cfg.c **** 		} CYPACKED_ATTR cfg_memset_t;
1939:.\Generated_Source\PSoC5/cyfitter_cfg.c **** 
1940:.\Generated_Source\PSoC5/cyfitter_cfg.c **** 
1941:.\Generated_Source\PSoC5/cyfitter_cfg.c **** 		CYPACKED typedef struct {
1942:.\Generated_Source\PSoC5/cyfitter_cfg.c **** 			void CYFAR *dest;
1943:.\Generated_Source\PSoC5/cyfitter_cfg.c **** 			const void CYCODE *src;
1944:.\Generated_Source\PSoC5/cyfitter_cfg.c **** 			uint16 size;
1945:.\Generated_Source\PSoC5/cyfitter_cfg.c **** 		} CYPACKED_ATTR cfg_memcpy_t;
1946:.\Generated_Source\PSoC5/cyfitter_cfg.c **** 
1947:.\Generated_Source\PSoC5/cyfitter_cfg.c **** 		static const cfg_memset_t CYCODE cfg_memset_list [] = {
1948:.\Generated_Source\PSoC5/cyfitter_cfg.c **** 			/* address, size */
1949:.\Generated_Source\PSoC5/cyfitter_cfg.c **** 			{(void CYFAR *)(CYREG_I2C_XCFG), 25u},
1950:.\Generated_Source\PSoC5/cyfitter_cfg.c **** 			{(void CYFAR *)(CYREG_TMR0_CFG0), 48u},
1951:.\Generated_Source\PSoC5/cyfitter_cfg.c **** 			{(void CYFAR *)(CYDEV_UCFG_B0_P0_U0_BASE), 4096u},
1952:.\Generated_Source\PSoC5/cyfitter_cfg.c **** 			{(void CYFAR *)(CYDEV_UCFG_B1_P2_U0_BASE), 2048u},
1953:.\Generated_Source\PSoC5/cyfitter_cfg.c **** 			{(void CYFAR *)(CYDEV_UCFG_DSI0_BASE), 2560u},
1954:.\Generated_Source\PSoC5/cyfitter_cfg.c **** 			{(void CYFAR *)(CYDEV_UCFG_DSI12_BASE), 512u},
1955:.\Generated_Source\PSoC5/cyfitter_cfg.c **** 			{(void CYFAR *)(CYREG_BCTL0_MDCLK_EN), 32u},
1956:.\Generated_Source\PSoC5/cyfitter_cfg.c **** 		};
1957:.\Generated_Source\PSoC5/cyfitter_cfg.c **** 
1958:.\Generated_Source\PSoC5/cyfitter_cfg.c **** 		/* IOPORT_7 Address: CYDEV_PRTDSI_PRT12_BASE Size (bytes): 6 */
1959:.\Generated_Source\PSoC5/cyfitter_cfg.c **** 		static const uint8 CYCODE BS_IOPORT_7_VAL[] = {
1960:.\Generated_Source\PSoC5/cyfitter_cfg.c **** 			0x23u, 0x24u, 0x00u, 0x00u, 0x43u, 0x00u};
1961:.\Generated_Source\PSoC5/cyfitter_cfg.c **** 
ARM GAS  C:\Users\xavieran\AppData\Local\Temp\ccJfmadl.s 			page 44


1962:.\Generated_Source\PSoC5/cyfitter_cfg.c **** 		/* IDMUX_IRQ Address: CYREG_IDMUX_IRQ_CTL0 Size (bytes): 8 */
1963:.\Generated_Source\PSoC5/cyfitter_cfg.c **** 		static const uint8 CYCODE BS_IDMUX_IRQ_VAL[] = {
1964:.\Generated_Source\PSoC5/cyfitter_cfg.c **** 			0xBFu, 0xE8u, 0x03u, 0xC0u, 0x00u, 0x00u, 0x00u, 0x00u};
1965:.\Generated_Source\PSoC5/cyfitter_cfg.c **** 
1966:.\Generated_Source\PSoC5/cyfitter_cfg.c **** 		static const cfg_memcpy_t CYCODE cfg_memcpy_list [] = {
1967:.\Generated_Source\PSoC5/cyfitter_cfg.c **** 			/* dest, src, size */
1968:.\Generated_Source\PSoC5/cyfitter_cfg.c **** 			{(void CYFAR *)(CYDEV_PRTDSI_PRT12_BASE), BS_IOPORT_7_VAL, 6u},
1969:.\Generated_Source\PSoC5/cyfitter_cfg.c **** 			{(void CYFAR *)(CYREG_IDMUX_IRQ_CTL0), BS_IDMUX_IRQ_VAL, 8u},
1970:.\Generated_Source\PSoC5/cyfitter_cfg.c **** 		};
1971:.\Generated_Source\PSoC5/cyfitter_cfg.c **** 
1972:.\Generated_Source\PSoC5/cyfitter_cfg.c **** 		uint8 CYDATA i;
1973:.\Generated_Source\PSoC5/cyfitter_cfg.c **** 
1974:.\Generated_Source\PSoC5/cyfitter_cfg.c **** 		/* Zero out critical memory blocks before beginning configuration */
1975:.\Generated_Source\PSoC5/cyfitter_cfg.c **** 		for (i = 0u; i < (sizeof(cfg_memset_list)/sizeof(cfg_memset_list[0])); i++)
 446              		.loc 1 1975 0
 447 0004 0024     		movs	r4, #0
 448              	.LBB4:
1976:.\Generated_Source\PSoC5/cyfitter_cfg.c **** 		{
1977:.\Generated_Source\PSoC5/cyfitter_cfg.c **** 			const cfg_memset_t CYCODE * CYDATA ms = &cfg_memset_list[i];
 449              		.loc 1 1977 0
 450 0006 464D     		ldr	r5, .L29
 451              	.LBE4:
1975:.\Generated_Source\PSoC5/cyfitter_cfg.c **** 		for (i = 0u; i < (sizeof(cfg_memset_list)/sizeof(cfg_memset_list[0])); i++)
 452              		.loc 1 1975 0
 453 0008 09E0     		b	.L25
 454              	.LVL32:
 455              	.L26:
 456              	.LBB5:
 457              		.loc 1 1977 0 discriminator 2
 458 000a 04EB4403 		add	r3, r4, r4, lsl #1
 459 000e 5B00     		lsls	r3, r3, #1
 460 0010 2B44     		add	r3, r3, r5
 461              	.LVL33:
1978:.\Generated_Source\PSoC5/cyfitter_cfg.c **** 			CYMEMZERO(ms->address, (size_t)(uint32)(ms->size));
 462              		.loc 1 1978 0 discriminator 2
 463 0012 1868     		ldr	r0, [r3]	@ unaligned
 464 0014 9988     		ldrh	r1, [r3, #4]
 465 0016 FFF7FEFF 		bl	CYMEMZERO
 466              	.LVL34:
 467              	.LBE5:
1975:.\Generated_Source\PSoC5/cyfitter_cfg.c **** 		for (i = 0u; i < (sizeof(cfg_memset_list)/sizeof(cfg_memset_list[0])); i++)
 468              		.loc 1 1975 0 discriminator 2
 469 001a 0134     		adds	r4, r4, #1
 470              	.LVL35:
 471 001c E4B2     		uxtb	r4, r4
 472              	.LVL36:
 473              	.L25:
1975:.\Generated_Source\PSoC5/cyfitter_cfg.c **** 		for (i = 0u; i < (sizeof(cfg_memset_list)/sizeof(cfg_memset_list[0])); i++)
 474              		.loc 1 1975 0 is_stmt 0 discriminator 1
 475 001e 062C     		cmp	r4, #6
 476 0020 F3D9     		bls	.L26
 477 0022 0024     		movs	r4, #0
 478              	.LVL37:
 479              	.LBB6:
1979:.\Generated_Source\PSoC5/cyfitter_cfg.c **** 		}
1980:.\Generated_Source\PSoC5/cyfitter_cfg.c **** 
1981:.\Generated_Source\PSoC5/cyfitter_cfg.c **** 		/* Copy device configuration data into registers */
ARM GAS  C:\Users\xavieran\AppData\Local\Temp\ccJfmadl.s 			page 45


1982:.\Generated_Source\PSoC5/cyfitter_cfg.c **** 		for (i = 0u; i < (sizeof(cfg_memcpy_list)/sizeof(cfg_memcpy_list[0])); i++)
1983:.\Generated_Source\PSoC5/cyfitter_cfg.c **** 		{
1984:.\Generated_Source\PSoC5/cyfitter_cfg.c **** 			const cfg_memcpy_t CYCODE * CYDATA mc = &cfg_memcpy_list[i];
 480              		.loc 1 1984 0 is_stmt 1
 481 0024 3F4D     		ldr	r5, .L29+4
 482 0026 0AE0     		b	.L27
 483              	.LVL38:
 484              	.L28:
 485              		.loc 1 1984 0 is_stmt 0 discriminator 2
 486 0028 04EB8403 		add	r3, r4, r4, lsl #2
 487 002c 5B00     		lsls	r3, r3, #1
 488 002e 2B44     		add	r3, r3, r5
 489              	.LVL39:
1985:.\Generated_Source\PSoC5/cyfitter_cfg.c **** 			void * CYDATA destPtr = mc->dest;
1986:.\Generated_Source\PSoC5/cyfitter_cfg.c **** 			const void CYCODE * CYDATA srcPtr = mc->src;
1987:.\Generated_Source\PSoC5/cyfitter_cfg.c **** 			uint16 CYDATA numBytes = mc->size;
1988:.\Generated_Source\PSoC5/cyfitter_cfg.c **** 			CYCONFIGCPYCODE(destPtr, srcPtr, numBytes);
 490              		.loc 1 1988 0 is_stmt 1 discriminator 2
 491 0030 1868     		ldr	r0, [r3]	@ unaligned
 492              	.LVL40:
 493 0032 5968     		ldr	r1, [r3, #4]	@ unaligned
 494              	.LVL41:
 495 0034 1A89     		ldrh	r2, [r3, #8]
 496 0036 FFF7FEFF 		bl	CYCONFIGCPYCODE
 497              	.LVL42:
 498              	.LBE6:
1982:.\Generated_Source\PSoC5/cyfitter_cfg.c **** 		for (i = 0u; i < (sizeof(cfg_memcpy_list)/sizeof(cfg_memcpy_list[0])); i++)
 499              		.loc 1 1982 0 discriminator 2
 500 003a 0134     		adds	r4, r4, #1
 501              	.LVL43:
 502 003c E4B2     		uxtb	r4, r4
 503              	.LVL44:
 504              	.L27:
1982:.\Generated_Source\PSoC5/cyfitter_cfg.c **** 		for (i = 0u; i < (sizeof(cfg_memcpy_list)/sizeof(cfg_memcpy_list[0])); i++)
 505              		.loc 1 1982 0 is_stmt 0 discriminator 1
 506 003e 012C     		cmp	r4, #1
 507 0040 F2D9     		bls	.L28
1989:.\Generated_Source\PSoC5/cyfitter_cfg.c **** 		}
1990:.\Generated_Source\PSoC5/cyfitter_cfg.c **** 
1991:.\Generated_Source\PSoC5/cyfitter_cfg.c **** 		cfg_write_bytes32(cy_cfg_addr_table, cy_cfg_data_table);
 508              		.loc 1 1991 0 is_stmt 1
 509 0042 374C     		ldr	r4, .L29
 510              	.LVL45:
 511 0044 04F14000 		add	r0, r4, #64
 512 0048 04F1E001 		add	r1, r4, #224
 513 004c FFF7FEFF 		bl	cfg_write_bytes32
 514              	.LVL46:
1992:.\Generated_Source\PSoC5/cyfitter_cfg.c **** 
1993:.\Generated_Source\PSoC5/cyfitter_cfg.c **** 		/* Perform normal device configuration. Order is not critical for these items. */
1994:.\Generated_Source\PSoC5/cyfitter_cfg.c **** 		CYMEMZERO((void CYFAR *)(CYREG_PHUB_CFGMEM0_CFG0), 4u);
 515              		.loc 1 1994 0
 516 0050 3548     		ldr	r0, .L29+8
 517 0052 0421     		movs	r1, #4
 518 0054 FFF7FEFF 		bl	CYMEMZERO
 519              	.LVL47:
1995:.\Generated_Source\PSoC5/cyfitter_cfg.c **** 
1996:.\Generated_Source\PSoC5/cyfitter_cfg.c **** 		/* Enable digital routing */
ARM GAS  C:\Users\xavieran\AppData\Local\Temp\ccJfmadl.s 			page 46


1997:.\Generated_Source\PSoC5/cyfitter_cfg.c **** 		CY_SET_XTND_REG8((void CYFAR *)CYREG_BCTL0_BANK_CTL, CY_GET_XTND_REG8((void CYFAR *)CYREG_BCTL0_B
 520              		.loc 1 1997 0
 521 0058 344B     		ldr	r3, .L29+12
 522 005a 1A78     		ldrb	r2, [r3]	@ zero_extendqisi2
 523 005c 42F00202 		orr	r2, r2, #2
 524 0060 1A70     		strb	r2, [r3]
1998:.\Generated_Source\PSoC5/cyfitter_cfg.c **** 		CY_SET_XTND_REG8((void CYFAR *)CYREG_BCTL1_BANK_CTL, CY_GET_XTND_REG8((void CYFAR *)CYREG_BCTL1_B
 525              		.loc 1 1998 0
 526 0062 1033     		adds	r3, r3, #16
 527 0064 1A78     		ldrb	r2, [r3]	@ zero_extendqisi2
 528 0066 42F00202 		orr	r2, r2, #2
 529 006a 1A70     		strb	r2, [r3]
1999:.\Generated_Source\PSoC5/cyfitter_cfg.c **** 
2000:.\Generated_Source\PSoC5/cyfitter_cfg.c **** 		/* Enable UDB array */
2001:.\Generated_Source\PSoC5/cyfitter_cfg.c **** 		CY_SET_XTND_REG8((void CYFAR *)CYREG_PM_ACT_CFG0, CY_GET_XTND_REG8((void CYFAR *)CYREG_PM_ACT_CFG
 530              		.loc 1 2001 0
 531 006c 304D     		ldr	r5, .L29+16
 532 006e 2B78     		ldrb	r3, [r5]	@ zero_extendqisi2
 533 0070 43F04003 		orr	r3, r3, #64
 534 0074 2B70     		strb	r3, [r5]
2002:.\Generated_Source\PSoC5/cyfitter_cfg.c **** 		CY_SET_XTND_REG8((void CYFAR *)CYREG_PM_AVAIL_CR2, CY_GET_XTND_REG8((void CYFAR *)CYREG_PM_AVAIL_
 535              		.loc 1 2002 0
 536 0076 2F4B     		ldr	r3, .L29+20
 537 0078 1A78     		ldrb	r2, [r3]	@ zero_extendqisi2
 538 007a 42F01002 		orr	r2, r2, #16
 539 007e 1A70     		strb	r2, [r3]
 540              	.LBE3:
2003:.\Generated_Source\PSoC5/cyfitter_cfg.c **** 	}
2004:.\Generated_Source\PSoC5/cyfitter_cfg.c **** 
2005:.\Generated_Source\PSoC5/cyfitter_cfg.c **** 
2006:.\Generated_Source\PSoC5/cyfitter_cfg.c **** 	/* Perform second pass device configuration. These items must be configured in specific order afte
2007:.\Generated_Source\PSoC5/cyfitter_cfg.c **** 	CYCONFIGCPYCODE((void CYFAR *)(CYREG_PRT0_DR), (const void CYCODE *)(BS_IOPINS0_0_VAL), 10u);
 541              		.loc 1 2007 0
 542 0080 2D48     		ldr	r0, .L29+24
 543 0082 04F6C441 		addw	r1, r4, #3268
 544 0086 0A22     		movs	r2, #10
 545 0088 FFF7FEFF 		bl	CYCONFIGCPYCODE
 546              	.LVL48:
2008:.\Generated_Source\PSoC5/cyfitter_cfg.c **** 	CYCONFIGCPYCODE((void CYFAR *)(CYREG_PRT12_DR), (const void CYCODE *)(BS_IOPINS0_7_VAL), 10u);
 547              		.loc 1 2008 0
 548 008c 2B48     		ldr	r0, .L29+28
 549 008e 04F54D61 		add	r1, r4, #3280
 550 0092 0A22     		movs	r2, #10
 551 0094 FFF7FEFF 		bl	CYCONFIGCPYCODE
 552              	.LVL49:
2009:.\Generated_Source\PSoC5/cyfitter_cfg.c **** 	CYCONFIGCPYCODE((void CYFAR *)(CYREG_PRT15_DR), (const void CYCODE *)(BS_IOPINS0_8_VAL), 10u);
 553              		.loc 1 2009 0
 554 0098 2948     		ldr	r0, .L29+32
 555 009a 04F6DC41 		addw	r1, r4, #3292
 556 009e 0A22     		movs	r2, #10
 557 00a0 FFF7FEFF 		bl	CYCONFIGCPYCODE
 558              	.LVL50:
2010:.\Generated_Source\PSoC5/cyfitter_cfg.c **** 	CYCONFIGCPYCODE((void CYFAR *)(CYREG_PRT1_DR), (const void CYCODE *)(BS_IOPINS0_1_VAL), 10u);
 559              		.loc 1 2010 0
 560 00a4 2748     		ldr	r0, .L29+36
 561 00a6 04F6E841 		addw	r1, r4, #3304
 562 00aa 0A22     		movs	r2, #10
ARM GAS  C:\Users\xavieran\AppData\Local\Temp\ccJfmadl.s 			page 47


 563 00ac FFF7FEFF 		bl	CYCONFIGCPYCODE
 564              	.LVL51:
2011:.\Generated_Source\PSoC5/cyfitter_cfg.c **** 	CYCONFIGCPYCODE((void CYFAR *)(CYREG_PRT2_DR), (const void CYCODE *)(BS_IOPINS0_2_VAL), 10u);
 565              		.loc 1 2011 0
 566 00b0 2548     		ldr	r0, .L29+40
 567 00b2 04F6F441 		addw	r1, r4, #3316
 568 00b6 0A22     		movs	r2, #10
 569 00b8 FFF7FEFF 		bl	CYCONFIGCPYCODE
 570              	.LVL52:
2012:.\Generated_Source\PSoC5/cyfitter_cfg.c **** 	CYCONFIGCPYCODE((void CYFAR *)(CYREG_PRT3_DR), (const void CYCODE *)(BS_IOPINS0_3_VAL), 10u);
 571              		.loc 1 2012 0
 572 00bc 2348     		ldr	r0, .L29+44
 573 00be 04F55061 		add	r1, r4, #3328
 574 00c2 0A22     		movs	r2, #10
 575 00c4 FFF7FEFF 		bl	CYCONFIGCPYCODE
 576              	.LVL53:
2013:.\Generated_Source\PSoC5/cyfitter_cfg.c **** 	CYCONFIGCPYCODE((void CYFAR *)(CYREG_PRT4_DM0), (const void CYCODE *)(BS_IOPINS0_4_VAL), 8u);
 577              		.loc 1 2013 0
 578 00c8 2148     		ldr	r0, .L29+48
 579 00ca 04F60C51 		addw	r1, r4, #3340
 580 00ce 0822     		movs	r2, #8
 581 00d0 FFF7FEFF 		bl	CYCONFIGCPYCODE
 582              	.LVL54:
2014:.\Generated_Source\PSoC5/cyfitter_cfg.c **** 	CYCONFIGCPYCODE((void CYFAR *)(CYREG_PRT5_DM0), (const void CYCODE *)(BS_IOPINS0_5_VAL), 8u);
 583              		.loc 1 2014 0
 584 00d4 1F48     		ldr	r0, .L29+52
 585 00d6 04F61451 		addw	r1, r4, #3348
 586 00da 0822     		movs	r2, #8
 587 00dc FFF7FEFF 		bl	CYCONFIGCPYCODE
 588              	.LVL55:
2015:.\Generated_Source\PSoC5/cyfitter_cfg.c **** 	CYCONFIGCPYCODE((void CYFAR *)(CYREG_PRT6_DM0), (const void CYCODE *)(BS_IOPINS0_6_VAL), 8u);
 589              		.loc 1 2015 0
 590 00e0 1D48     		ldr	r0, .L29+56
 591 00e2 04F61C51 		addw	r1, r4, #3356
 592 00e6 0822     		movs	r2, #8
 593 00e8 FFF7FEFF 		bl	CYCONFIGCPYCODE
 594              	.LVL56:
2016:.\Generated_Source\PSoC5/cyfitter_cfg.c **** 	CY_SET_XTND_REG8((void CYFAR *)(CYREG_B1_P3_U0_CFG27), 0x84u);
 595              		.loc 1 2016 0
 596 00ec 8422     		movs	r2, #132
 597 00ee 1B4B     		ldr	r3, .L29+60
 598 00f0 1A70     		strb	r2, [r3]
2017:.\Generated_Source\PSoC5/cyfitter_cfg.c **** 	/* Switch Boost to the precision bandgap reference from its internal reference */
2018:.\Generated_Source\PSoC5/cyfitter_cfg.c **** 	CY_SET_REG8((void CYXDATA *)CYREG_BOOST_CR2, (CY_GET_REG8((void CYXDATA *)CYREG_BOOST_CR2) | 0x08u
 599              		.loc 1 2018 0
 600 00f2 A3F55343 		sub	r3, r3, #54016
 601 00f6 393B     		subs	r3, r3, #57
 602 00f8 1A78     		ldrb	r2, [r3]	@ zero_extendqisi2
 603 00fa 42F00802 		orr	r2, r2, #8
 604 00fe 1A70     		strb	r2, [r3]
2019:.\Generated_Source\PSoC5/cyfitter_cfg.c **** 
2020:.\Generated_Source\PSoC5/cyfitter_cfg.c **** 	/* Set Flash Cycles based on max possible frequency in case a glitch occurs during ClockSetup(). *
2021:.\Generated_Source\PSoC5/cyfitter_cfg.c **** 	CY_SET_XTND_REG8((void CYFAR *)(CYREG_CACHE_CC_CTL), (((CYDEV_INSTRUCT_CACHE_ENABLED) != 0) ? 0x61
 605              		.loc 1 2021 0
 606 0100 174C     		ldr	r4, .L29+64
 607 0102 6123     		movs	r3, #97
 608 0104 2370     		strb	r3, [r4]
ARM GAS  C:\Users\xavieran\AppData\Local\Temp\ccJfmadl.s 			page 48


2022:.\Generated_Source\PSoC5/cyfitter_cfg.c **** 	/* Setup clocks based on selections from Clock DWR */
2023:.\Generated_Source\PSoC5/cyfitter_cfg.c **** 	ClockSetup();
 609              		.loc 1 2023 0
 610 0106 FFF7FEFF 		bl	ClockSetup
 611              	.LVL57:
2024:.\Generated_Source\PSoC5/cyfitter_cfg.c **** 	/* Set Flash Cycles based on newly configured 24.00MHz Bus Clock. */
2025:.\Generated_Source\PSoC5/cyfitter_cfg.c **** 	CY_SET_XTND_REG8((void CYFAR *)(CYREG_CACHE_CC_CTL), (((CYDEV_INSTRUCT_CACHE_ENABLED) != 0) ? 0x81
 612              		.loc 1 2025 0
 613 010a 8123     		movs	r3, #129
 614 010c 2370     		strb	r3, [r4]
2026:.\Generated_Source\PSoC5/cyfitter_cfg.c **** 
2027:.\Generated_Source\PSoC5/cyfitter_cfg.c **** 	/* Perform basic analog initialization to defaults */
2028:.\Generated_Source\PSoC5/cyfitter_cfg.c **** 	AnalogSetDefault();
 615              		.loc 1 2028 0
 616 010e FFF7FEFF 		bl	AnalogSetDefault
 617              	.LVL58:
2029:.\Generated_Source\PSoC5/cyfitter_cfg.c **** 
2030:.\Generated_Source\PSoC5/cyfitter_cfg.c **** 	/* Configure alternate active mode */
2031:.\Generated_Source\PSoC5/cyfitter_cfg.c **** 	CYCONFIGCPY((void CYFAR *)CYDEV_PM_STBY_BASE, (const void CYFAR *)CYDEV_PM_ACT_BASE, 14u);
 618              		.loc 1 2031 0
 619 0112 1448     		ldr	r0, .L29+68
 620 0114 2946     		mov	r1, r5
 621 0116 0E22     		movs	r2, #14
 622 0118 FFF7FEFF 		bl	CYCONFIGCPY
 623              	.LVL59:
 624 011c 38BD     		pop	{r3, r4, r5, pc}
 625              	.L30:
 626 011e 00BF     		.align	2
 627              	.L29:
 628 0120 00000000 		.word	.LANCHOR0
 629 0124 2C000000 		.word	.LANCHOR0+44
 630 0128 00760040 		.word	1073772032
 631 012c 03500140 		.word	1073827843
 632 0130 A0430040 		.word	1073759136
 633 0134 C2430040 		.word	1073759170
 634 0138 00510040 		.word	1073762560
 635 013c C0510040 		.word	1073762752
 636 0140 F0510040 		.word	1073762800
 637 0144 10510040 		.word	1073762576
 638 0148 20510040 		.word	1073762592
 639 014c 30510040 		.word	1073762608
 640 0150 42510040 		.word	1073762626
 641 0154 52510040 		.word	1073762642
 642 0158 62510040 		.word	1073762658
 643 015c 5B160140 		.word	1073813083
 644 0160 00480040 		.word	1073760256
 645 0164 B0430040 		.word	1073759152
 646              		.cfi_endproc
 647              	.LFE8:
 648              		.size	cyfitter_cfg, .-cyfitter_cfg
 649              		.section	.rodata
 650              		.align	2
 651              		.set	.LANCHOR0,. + 0
 652              		.type	cfg_memset_list.4899, %object
 653              		.size	cfg_memset_list.4899, 42
 654              	cfg_memset_list.4899:
 655 0000 C8490040 		.word	1073760712
ARM GAS  C:\Users\xavieran\AppData\Local\Temp\ccJfmadl.s 			page 49


 656 0004 1900     		.short	25
 657 0006 004F0040 		.4byte	1073762048
 658 000a 3000     		.short	48
 659 000c 00000140 		.word	1073807360
 660 0010 0010     		.short	4096
 661 0012 00140140 		.4byte	1073812480
 662 0016 0008     		.short	2048
 663 0018 00400140 		.word	1073823744
 664 001c 000A     		.short	2560
 665 001e 004C0140 		.4byte	1073826816
 666 0022 0002     		.short	512
 667 0024 00500140 		.word	1073827840
 668 0028 2000     		.short	32
 669 002a 0000     		.space	2
 670              		.type	cfg_memcpy_list.4902, %object
 671              		.size	cfg_memcpy_list.4902, 20
 672              	cfg_memcpy_list.4902:
 673 002c 60520040 		.word	1073762912
 674 0030 240D0000 		.word	BS_IOPORT_7_VAL.4900
 675 0034 0600     		.short	6
 676 0036 00510140 		.4byte	1073828096
 677 003a 2C0D0000 		.4byte	BS_IDMUX_IRQ_VAL.4901
 678 003e 0800     		.short	8
 679              		.type	cy_cfg_addr_table.4888, %object
 680              		.size	cy_cfg_addr_table.4888, 160
 681              	cy_cfg_addr_table.4888:
 682 0040 03450040 		.word	1073759491
 683 0044 084F0040 		.word	1073762056
 684 0048 11520040 		.word	1073762833
 685 004c 05640040 		.word	1073767429
 686 0050 02650040 		.word	1073767682
 687 0054 06010140 		.word	1073807622
 688 0058 55020140 		.word	1073807957
 689 005c 33030140 		.word	1073808179
 690 0060 51040140 		.word	1073808465
 691 0064 46050140 		.word	1073808710
 692 0068 3B060140 		.word	1073808955
 693 006c 48070140 		.word	1073809224
 694 0070 59080140 		.word	1073809497
 695 0074 55090140 		.word	1073809749
 696 0078 530A0140 		.word	1073810003
 697 007c 460B0140 		.word	1073810246
 698 0080 400C0140 		.word	1073810496
 699 0084 4E0D0140 		.word	1073810766
 700 0088 490E0140 		.word	1073811017
 701 008c 390F0140 		.word	1073811257
 702 0090 3B140140 		.word	1073812539
 703 0094 29150140 		.word	1073812777
 704 0098 47160140 		.word	1073813063
 705 009c 28170140 		.word	1073813288
 706 00a0 0F190140 		.word	1073813775
 707 00a4 071B0140 		.word	1073814279
 708 00a8 13400140 		.word	1073823763
 709 00ac 14410140 		.word	1073824020
 710 00b0 18420140 		.word	1073824280
 711 00b4 12430140 		.word	1073824530
 712 00b8 0C440140 		.word	1073824780
ARM GAS  C:\Users\xavieran\AppData\Local\Temp\ccJfmadl.s 			page 50


 713 00bc 11450140 		.word	1073825041
 714 00c0 0C460140 		.word	1073825292
 715 00c4 0E470140 		.word	1073825550
 716 00c8 10480140 		.word	1073825808
 717 00cc 15490140 		.word	1073826069
 718 00d0 1C4C0140 		.word	1073826844
 719 00d4 164D0140 		.word	1073827094
 720 00d8 07500140 		.word	1073827847
 721 00dc 01510140 		.word	1073828097
 722              		.type	cy_cfg_data_table.4889, %object
 723              		.size	cy_cfg_data_table.4889, 3044
 724              	cy_cfg_data_table.4889:
 725 00e0 00       		.byte	0
 726 00e1 02       		.byte	2
 727 00e2 60       		.byte	96
 728 00e3 02       		.byte	2
 729 00e4 7E       		.byte	126
 730 00e5 02       		.byte	2
 731 00e6 01       		.byte	1
 732 00e7 10       		.byte	16
 733 00e8 0A       		.byte	10
 734 00e9 4B       		.byte	75
 735 00ea 0D       		.byte	13
 736 00eb 40       		.byte	64
 737 00ec 16       		.byte	22
 738 00ed 4B       		.byte	75
 739 00ee 19       		.byte	25
 740 00ef 40       		.byte	64
 741 00f0 22       		.byte	34
 742 00f1 4B       		.byte	75
 743 00f2 25       		.byte	37
 744 00f3 40       		.byte	64
 745 00f4 2E       		.byte	46
 746 00f5 4B       		.byte	75
 747 00f6 00       		.byte	0
 748 00f7 60       		.byte	96
 749 00f8 01       		.byte	1
 750 00f9 50       		.byte	80
 751 00fa 04       		.byte	4
 752 00fb 03       		.byte	3
 753 00fc 08       		.byte	8
 754 00fd C0       		.byte	-64
 755 00fe 09       		.byte	9
 756 00ff 40       		.byte	64
 757 0100 0C       		.byte	12
 758 0101 C0       		.byte	-64
 759 0102 10       		.byte	16
 760 0103 28       		.byte	40
 761 0104 14       		.byte	20
 762 0105 28       		.byte	40
 763 0106 19       		.byte	25
 764 0107 08       		.byte	8
 765 0108 1C       		.byte	28
 766 0109 04       		.byte	4
 767 010a 20       		.byte	32
 768 010b 03       		.byte	3
 769 010c 21       		.byte	33
ARM GAS  C:\Users\xavieran\AppData\Local\Temp\ccJfmadl.s 			page 51


 770 010d 02       		.byte	2
 771 010e 28       		.byte	40
 772 010f 02       		.byte	2
 773 0110 29       		.byte	41
 774 0111 80       		.byte	-128
 775 0112 31       		.byte	49
 776 0113 10       		.byte	16
 777 0114 79       		.byte	121
 778 0115 18       		.byte	24
 779 0116 7C       		.byte	124
 780 0117 40       		.byte	64
 781 0118 28       		.byte	40
 782 0119 04       		.byte	4
 783 011a 2A       		.byte	42
 784 011b 0F       		.byte	15
 785 011c 3A       		.byte	58
 786 011d 08       		.byte	8
 787 011e 83       		.byte	-125
 788 011f 0D       		.byte	13
 789 0120 86       		.byte	-122
 790 0121 0D       		.byte	13
 791 0122 86       		.byte	-122
 792 0123 0D       		.byte	13
 793 0124 87       		.byte	-121
 794 0125 0F       		.byte	15
 795 0126 82       		.byte	-126
 796 0127 80       		.byte	-128
 797 0128 83       		.byte	-125
 798 0129 04       		.byte	4
 799 012a 87       		.byte	-121
 800 012b 02       		.byte	2
 801 012c E0       		.byte	-32
 802 012d 02       		.byte	2
 803 012e E2       		.byte	-30
 804 012f 14       		.byte	20
 805 0130 E4       		.byte	-28
 806 0131 44       		.byte	68
 807 0132 0A       		.byte	10
 808 0133 01       		.byte	1
 809 0134 1A       		.byte	26
 810 0135 01       		.byte	1
 811 0136 32       		.byte	50
 812 0137 01       		.byte	1
 813 0138 40       		.byte	64
 814 0139 60       		.byte	96
 815 013a 41       		.byte	65
 816 013b 02       		.byte	2
 817 013c 49       		.byte	73
 818 013d FF       		.byte	-1
 819 013e 4A       		.byte	74
 820 013f FF       		.byte	-1
 821 0140 4B       		.byte	75
 822 0141 FF       		.byte	-1
 823 0142 4D       		.byte	77
 824 0143 A0       		.byte	-96
 825 0144 4F       		.byte	79
 826 0145 04       		.byte	4
ARM GAS  C:\Users\xavieran\AppData\Local\Temp\ccJfmadl.s 			page 52


 827 0146 50       		.byte	80
 828 0147 18       		.byte	24
 829 0148 58       		.byte	88
 830 0149 04       		.byte	4
 831 014a 5A       		.byte	90
 832 014b 04       		.byte	4
 833 014c 5B       		.byte	91
 834 014d 04       		.byte	4
 835 014e 5C       		.byte	92
 836 014f 04       		.byte	4
 837 0150 5D       		.byte	93
 838 0151 04       		.byte	4
 839 0152 5F       		.byte	95
 840 0153 01       		.byte	1
 841 0154 60       		.byte	96
 842 0155 40       		.byte	64
 843 0156 62       		.byte	98
 844 0157 C0       		.byte	-64
 845 0158 64       		.byte	100
 846 0159 40       		.byte	64
 847 015a 65       		.byte	101
 848 015b 40       		.byte	64
 849 015c 66       		.byte	102
 850 015d C0       		.byte	-64
 851 015e 68       		.byte	104
 852 015f C0       		.byte	-64
 853 0160 6A       		.byte	106
 854 0161 C0       		.byte	-64
 855 0162 6C       		.byte	108
 856 0163 C0       		.byte	-64
 857 0164 6E       		.byte	110
 858 0165 C0       		.byte	-64
 859 0166 83       		.byte	-125
 860 0167 04       		.byte	4
 861 0168 86       		.byte	-122
 862 0169 02       		.byte	2
 863 016a 87       		.byte	-121
 864 016b 02       		.byte	2
 865 016c 89       		.byte	-119
 866 016d CC       		.byte	-52
 867 016e 8B       		.byte	-117
 868 016f 13       		.byte	19
 869 0170 8D       		.byte	-115
 870 0171 A5       		.byte	-91
 871 0172 8F       		.byte	-113
 872 0173 4A       		.byte	74
 873 0174 91       		.byte	-111
 874 0175 02       		.byte	2
 875 0176 92       		.byte	-110
 876 0177 01       		.byte	1
 877 0178 94       		.byte	-108
 878 0179 04       		.byte	4
 879 017a 95       		.byte	-107
 880 017b 4D       		.byte	77
 881 017c 97       		.byte	-105
 882 017d 92       		.byte	-110
 883 017e 99       		.byte	-103
ARM GAS  C:\Users\xavieran\AppData\Local\Temp\ccJfmadl.s 			page 53


 884 017f A9       		.byte	-87
 885 0180 9B       		.byte	-101
 886 0181 54       		.byte	84
 887 0182 9D       		.byte	-99
 888 0183 FF       		.byte	-1
 889 0184 A3       		.byte	-93
 890 0185 B5       		.byte	-75
 891 0186 A5       		.byte	-91
 892 0187 1A       		.byte	26
 893 0188 A6       		.byte	-90
 894 0189 0C       		.byte	12
 895 018a A7       		.byte	-89
 896 018b 60       		.byte	96
 897 018c A9       		.byte	-87
 898 018d 04       		.byte	4
 899 018e AA       		.byte	-86
 900 018f 02       		.byte	2
 901 0190 AF       		.byte	-81
 902 0191 01       		.byte	1
 903 0192 B0       		.byte	-80
 904 0193 02       		.byte	2
 905 0194 B2       		.byte	-78
 906 0195 08       		.byte	8
 907 0196 B4       		.byte	-76
 908 0197 01       		.byte	1
 909 0198 B6       		.byte	-74
 910 0199 04       		.byte	4
 911 019a B7       		.byte	-73
 912 019b FF       		.byte	-1
 913 019c BE       		.byte	-66
 914 019d 01       		.byte	1
 915 019e BF       		.byte	-65
 916 019f 40       		.byte	64
 917 01a0 C0       		.byte	-64
 918 01a1 20       		.byte	32
 919 01a2 C1       		.byte	-63
 920 01a3 06       		.byte	6
 921 01a4 C5       		.byte	-59
 922 01a5 D1       		.byte	-47
 923 01a6 C7       		.byte	-57
 924 01a7 02       		.byte	2
 925 01a8 C8       		.byte	-56
 926 01a9 13       		.byte	19
 927 01aa C9       		.byte	-55
 928 01ab FF       		.byte	-1
 929 01ac CA       		.byte	-54
 930 01ad FF       		.byte	-1
 931 01ae CB       		.byte	-53
 932 01af FF       		.byte	-1
 933 01b0 CD       		.byte	-51
 934 01b1 AF       		.byte	-81
 935 01b2 CE       		.byte	-50
 936 01b3 0F       		.byte	15
 937 01b4 CF       		.byte	-49
 938 01b5 04       		.byte	4
 939 01b6 D0       		.byte	-48
 940 01b7 18       		.byte	24
ARM GAS  C:\Users\xavieran\AppData\Local\Temp\ccJfmadl.s 			page 54


 941 01b8 D2       		.byte	-46
 942 01b9 80       		.byte	-128
 943 01ba D4       		.byte	-44
 944 01bb 05       		.byte	5
 945 01bc D8       		.byte	-40
 946 01bd 04       		.byte	4
 947 01be D9       		.byte	-39
 948 01bf 04       		.byte	4
 949 01c0 DA       		.byte	-38
 950 01c1 04       		.byte	4
 951 01c2 DB       		.byte	-37
 952 01c3 04       		.byte	4
 953 01c4 DC       		.byte	-36
 954 01c5 04       		.byte	4
 955 01c6 DD       		.byte	-35
 956 01c7 44       		.byte	68
 957 01c8 DF       		.byte	-33
 958 01c9 01       		.byte	1
 959 01ca E0       		.byte	-32
 960 01cb 40       		.byte	64
 961 01cc E2       		.byte	-30
 962 01cd C0       		.byte	-64
 963 01ce E4       		.byte	-28
 964 01cf 40       		.byte	64
 965 01d0 E5       		.byte	-27
 966 01d1 40       		.byte	64
 967 01d2 E6       		.byte	-26
 968 01d3 C0       		.byte	-64
 969 01d4 E8       		.byte	-24
 970 01d5 C0       		.byte	-64
 971 01d6 EA       		.byte	-22
 972 01d7 C0       		.byte	-64
 973 01d8 EC       		.byte	-20
 974 01d9 C0       		.byte	-64
 975 01da EE       		.byte	-18
 976 01db C0       		.byte	-64
 977 01dc 03       		.byte	3
 978 01dd 20       		.byte	32
 979 01de 05       		.byte	5
 980 01df 20       		.byte	32
 981 01e0 0A       		.byte	10
 982 01e1 50       		.byte	80
 983 01e2 0C       		.byte	12
 984 01e3 20       		.byte	32
 985 01e4 10       		.byte	16
 986 01e5 20       		.byte	32
 987 01e6 12       		.byte	18
 988 01e7 04       		.byte	4
 989 01e8 19       		.byte	25
 990 01e9 A2       		.byte	-94
 991 01ea 1A       		.byte	26
 992 01eb 10       		.byte	16
 993 01ec 1B       		.byte	27
 994 01ed 20       		.byte	32
 995 01ee 1F       		.byte	31
 996 01ef 08       		.byte	8
 997 01f0 20       		.byte	32
ARM GAS  C:\Users\xavieran\AppData\Local\Temp\ccJfmadl.s 			page 55


 998 01f1 02       		.byte	2
 999 01f2 29       		.byte	41
 1000 01f3 14       		.byte	20
 1001 01f4 2A       		.byte	42
 1002 01f5 80       		.byte	-128
 1003 01f6 2B       		.byte	43
 1004 01f7 80       		.byte	-128
 1005 01f8 31       		.byte	49
 1006 01f9 48       		.byte	72
 1007 01fa 32       		.byte	50
 1008 01fb A1       		.byte	-95
 1009 01fc 38       		.byte	56
 1010 01fd 48       		.byte	72
 1011 01fe 3A       		.byte	58
 1012 01ff 12       		.byte	18
 1013 0200 43       		.byte	67
 1014 0201 20       		.byte	32
 1015 0202 46       		.byte	70
 1016 0203 04       		.byte	4
 1017 0204 48       		.byte	72
 1018 0205 28       		.byte	40
 1019 0206 49       		.byte	73
 1020 0207 01       		.byte	1
 1021 0208 4D       		.byte	77
 1022 0209 20       		.byte	32
 1023 020a 50       		.byte	80
 1024 020b 08       		.byte	8
 1025 020c 52       		.byte	82
 1026 020d 04       		.byte	4
 1027 020e 58       		.byte	88
 1028 020f 08       		.byte	8
 1029 0210 59       		.byte	89
 1030 0211 81       		.byte	-127
 1031 0212 6C       		.byte	108
 1032 0213 10       		.byte	16
 1033 0214 6E       		.byte	110
 1034 0215 01       		.byte	1
 1035 0216 6F       		.byte	111
 1036 0217 06       		.byte	6
 1037 0218 72       		.byte	114
 1038 0219 40       		.byte	64
 1039 021a 76       		.byte	118
 1040 021b 08       		.byte	8
 1041 021c 77       		.byte	119
 1042 021d 02       		.byte	2
 1043 021e 83       		.byte	-125
 1044 021f 02       		.byte	2
 1045 0220 87       		.byte	-121
 1046 0221 80       		.byte	-128
 1047 0222 8C       		.byte	-116
 1048 0223 40       		.byte	64
 1049 0224 9F       		.byte	-97
 1050 0225 04       		.byte	4
 1051 0226 A6       		.byte	-90
 1052 0227 80       		.byte	-128
 1053 0228 A7       		.byte	-89
 1054 0229 02       		.byte	2
ARM GAS  C:\Users\xavieran\AppData\Local\Temp\ccJfmadl.s 			page 56


 1055 022a C0       		.byte	-64
 1056 022b 44       		.byte	68
 1057 022c C2       		.byte	-62
 1058 022d 4C       		.byte	76
 1059 022e C4       		.byte	-60
 1060 022f 06       		.byte	6
 1061 0230 CA       		.byte	-54
 1062 0231 0F       		.byte	15
 1063 0232 CC       		.byte	-52
 1064 0233 0F       		.byte	15
 1065 0234 CE       		.byte	-50
 1066 0235 0F       		.byte	15
 1067 0236 D0       		.byte	-48
 1068 0237 24       		.byte	36
 1069 0238 D2       		.byte	-46
 1070 0239 24       		.byte	36
 1071 023a D6       		.byte	-42
 1072 023b 0B       		.byte	11
 1073 023c E2       		.byte	-30
 1074 023d 04       		.byte	4
 1075 023e E6       		.byte	-26
 1076 023f 08       		.byte	8
 1077 0240 E8       		.byte	-24
 1078 0241 05       		.byte	5
 1079 0242 00       		.byte	0
 1080 0243 22       		.byte	34
 1081 0244 01       		.byte	1
 1082 0245 02       		.byte	2
 1083 0246 02       		.byte	2
 1084 0247 05       		.byte	5
 1085 0248 03       		.byte	3
 1086 0249 09       		.byte	9
 1087 024a 04       		.byte	4
 1088 024b 3A       		.byte	58
 1089 024c 06       		.byte	6
 1090 024d 04       		.byte	4
 1091 024e 07       		.byte	7
 1092 024f 01       		.byte	1
 1093 0250 08       		.byte	8
 1094 0251 03       		.byte	3
 1095 0252 09       		.byte	9
 1096 0253 01       		.byte	1
 1097 0254 0C       		.byte	12
 1098 0255 01       		.byte	1
 1099 0256 0D       		.byte	13
 1100 0257 01       		.byte	1
 1101 0258 10       		.byte	16
 1102 0259 40       		.byte	64
 1103 025a 11       		.byte	17
 1104 025b 03       		.byte	3
 1105 025c 12       		.byte	18
 1106 025d 07       		.byte	7
 1107 025e 14       		.byte	20
 1108 025f 08       		.byte	8
 1109 0260 15       		.byte	21
 1110 0261 08       		.byte	8
 1111 0262 16       		.byte	22
ARM GAS  C:\Users\xavieran\AppData\Local\Temp\ccJfmadl.s 			page 57


 1112 0263 07       		.byte	7
 1113 0264 17       		.byte	23
 1114 0265 02       		.byte	2
 1115 0266 18       		.byte	24
 1116 0267 10       		.byte	16
 1117 0268 19       		.byte	25
 1118 0269 03       		.byte	3
 1119 026a 1A       		.byte	26
 1120 026b 07       		.byte	7
 1121 026c 1C       		.byte	28
 1122 026d 03       		.byte	3
 1123 026e 1F       		.byte	31
 1124 026f 14       		.byte	20
 1125 0270 20       		.byte	32
 1126 0271 7F       		.byte	127
 1127 0272 21       		.byte	33
 1128 0273 1F       		.byte	31
 1129 0274 24       		.byte	36
 1130 0275 01       		.byte	1
 1131 0276 25       		.byte	37
 1132 0277 0F       		.byte	15
 1133 0278 28       		.byte	40
 1134 0279 01       		.byte	1
 1135 027a 2B       		.byte	43
 1136 027b 0B       		.byte	11
 1137 027c 2C       		.byte	44
 1138 027d 05       		.byte	5
 1139 027e 2D       		.byte	45
 1140 027f 10       		.byte	16
 1141 0280 2E       		.byte	46
 1142 0281 78       		.byte	120
 1143 0282 2F       		.byte	47
 1144 0283 0B       		.byte	11
 1145 0284 35       		.byte	53
 1146 0285 1F       		.byte	31
 1147 0286 36       		.byte	54
 1148 0287 7F       		.byte	127
 1149 0288 39       		.byte	57
 1150 0289 08       		.byte	8
 1151 028a 3E       		.byte	62
 1152 028b 40       		.byte	64
 1153 028c 3F       		.byte	63
 1154 028d 04       		.byte	4
 1155 028e 40       		.byte	64
 1156 028f 51       		.byte	81
 1157 0290 49       		.byte	73
 1158 0291 FF       		.byte	-1
 1159 0292 4A       		.byte	74
 1160 0293 FF       		.byte	-1
 1161 0294 4B       		.byte	75
 1162 0295 FF       		.byte	-1
 1163 0296 4F       		.byte	79
 1164 0297 01       		.byte	1
 1165 0298 50       		.byte	80
 1166 0299 18       		.byte	24
 1167 029a 52       		.byte	82
 1168 029b F6       		.byte	-10
ARM GAS  C:\Users\xavieran\AppData\Local\Temp\ccJfmadl.s 			page 58


 1169 029c 58       		.byte	88
 1170 029d 04       		.byte	4
 1171 029e 59       		.byte	89
 1172 029f 04       		.byte	4
 1173 02a0 5A       		.byte	90
 1174 02a1 04       		.byte	4
 1175 02a2 5B       		.byte	91
 1176 02a3 04       		.byte	4
 1177 02a4 5C       		.byte	92
 1178 02a5 20       		.byte	32
 1179 02a6 5D       		.byte	93
 1180 02a7 25       		.byte	37
 1181 02a8 5F       		.byte	95
 1182 02a9 01       		.byte	1
 1183 02aa 60       		.byte	96
 1184 02ab 40       		.byte	64
 1185 02ac 62       		.byte	98
 1186 02ad 40       		.byte	64
 1187 02ae 64       		.byte	100
 1188 02af 40       		.byte	64
 1189 02b0 65       		.byte	101
 1190 02b1 40       		.byte	64
 1191 02b2 66       		.byte	102
 1192 02b3 80       		.byte	-128
 1193 02b4 68       		.byte	104
 1194 02b5 80       		.byte	-128
 1195 02b6 6A       		.byte	106
 1196 02b7 80       		.byte	-128
 1197 02b8 6C       		.byte	108
 1198 02b9 80       		.byte	-128
 1199 02ba 6E       		.byte	110
 1200 02bb 80       		.byte	-128
 1201 02bc C0       		.byte	-64
 1202 02bd 51       		.byte	81
 1203 02be C9       		.byte	-55
 1204 02bf FF       		.byte	-1
 1205 02c0 CA       		.byte	-54
 1206 02c1 FF       		.byte	-1
 1207 02c2 CB       		.byte	-53
 1208 02c3 FF       		.byte	-1
 1209 02c4 CD       		.byte	-51
 1210 02c5 83       		.byte	-125
 1211 02c6 CE       		.byte	-50
 1212 02c7 03       		.byte	3
 1213 02c8 CF       		.byte	-49
 1214 02c9 01       		.byte	1
 1215 02ca D0       		.byte	-48
 1216 02cb 18       		.byte	24
 1217 02cc DA       		.byte	-38
 1218 02cd 04       		.byte	4
 1219 02ce DD       		.byte	-35
 1220 02cf 05       		.byte	5
 1221 02d0 DF       		.byte	-33
 1222 02d1 01       		.byte	1
 1223 02d2 E0       		.byte	-32
 1224 02d3 40       		.byte	64
 1225 02d4 E2       		.byte	-30
ARM GAS  C:\Users\xavieran\AppData\Local\Temp\ccJfmadl.s 			page 59


 1226 02d5 40       		.byte	64
 1227 02d6 E4       		.byte	-28
 1228 02d7 40       		.byte	64
 1229 02d8 E5       		.byte	-27
 1230 02d9 40       		.byte	64
 1231 02da E6       		.byte	-26
 1232 02db 80       		.byte	-128
 1233 02dc E8       		.byte	-24
 1234 02dd 80       		.byte	-128
 1235 02de EA       		.byte	-22
 1236 02df 80       		.byte	-128
 1237 02e0 EC       		.byte	-20
 1238 02e1 80       		.byte	-128
 1239 02e2 EE       		.byte	-18
 1240 02e3 80       		.byte	-128
 1241 02e4 00       		.byte	0
 1242 02e5 40       		.byte	64
 1243 02e6 01       		.byte	1
 1244 02e7 02       		.byte	2
 1245 02e8 02       		.byte	2
 1246 02e9 20       		.byte	32
 1247 02ea 03       		.byte	3
 1248 02eb 04       		.byte	4
 1249 02ec 08       		.byte	8
 1250 02ed 01       		.byte	1
 1251 02ee 09       		.byte	9
 1252 02ef 08       		.byte	8
 1253 02f0 0A       		.byte	10
 1254 02f1 02       		.byte	2
 1255 02f2 0B       		.byte	11
 1256 02f3 04       		.byte	4
 1257 02f4 11       		.byte	17
 1258 02f5 04       		.byte	4
 1259 02f6 12       		.byte	18
 1260 02f7 82       		.byte	-126
 1261 02f8 13       		.byte	19
 1262 02f9 10       		.byte	16
 1263 02fa 1A       		.byte	26
 1264 02fb 01       		.byte	1
 1265 02fc 20       		.byte	32
 1266 02fd 20       		.byte	32
 1267 02fe 21       		.byte	33
 1268 02ff 10       		.byte	16
 1269 0300 22       		.byte	34
 1270 0301 20       		.byte	32
 1271 0302 28       		.byte	40
 1272 0303 01       		.byte	1
 1273 0304 29       		.byte	41
 1274 0305 04       		.byte	4
 1275 0306 2A       		.byte	42
 1276 0307 10       		.byte	16
 1277 0308 2B       		.byte	43
 1278 0309 80       		.byte	-128
 1279 030a 30       		.byte	48
 1280 030b 10       		.byte	16
 1281 030c 31       		.byte	49
 1282 030d 08       		.byte	8
ARM GAS  C:\Users\xavieran\AppData\Local\Temp\ccJfmadl.s 			page 60


 1283 030e 32       		.byte	50
 1284 030f 01       		.byte	1
 1285 0310 33       		.byte	51
 1286 0311 40       		.byte	64
 1287 0312 38       		.byte	56
 1288 0313 40       		.byte	64
 1289 0314 39       		.byte	57
 1290 0315 04       		.byte	4
 1291 0316 3B       		.byte	59
 1292 0317 12       		.byte	18
 1293 0318 41       		.byte	65
 1294 0319 80       		.byte	-128
 1295 031a 44       		.byte	68
 1296 031b 10       		.byte	16
 1297 031c 45       		.byte	69
 1298 031d 80       		.byte	-128
 1299 031e 47       		.byte	71
 1300 031f 04       		.byte	4
 1301 0320 48       		.byte	72
 1302 0321 02       		.byte	2
 1303 0322 4C       		.byte	76
 1304 0323 02       		.byte	2
 1305 0324 69       		.byte	105
 1306 0325 14       		.byte	20
 1307 0326 70       		.byte	112
 1308 0327 84       		.byte	-124
 1309 0328 71       		.byte	113
 1310 0329 10       		.byte	16
 1311 032a 72       		.byte	114
 1312 032b 82       		.byte	-126
 1313 032c 73       		.byte	115
 1314 032d 10       		.byte	16
 1315 032e 81       		.byte	-127
 1316 032f 02       		.byte	2
 1317 0330 82       		.byte	-126
 1318 0331 12       		.byte	18
 1319 0332 83       		.byte	-125
 1320 0333 01       		.byte	1
 1321 0334 84       		.byte	-124
 1322 0335 01       		.byte	1
 1323 0336 8A       		.byte	-118
 1324 0337 02       		.byte	2
 1325 0338 8C       		.byte	-116
 1326 0339 04       		.byte	4
 1327 033a 94       		.byte	-108
 1328 033b 08       		.byte	8
 1329 033c 96       		.byte	-106
 1330 033d 02       		.byte	2
 1331 033e 9A       		.byte	-102
 1332 033f 08       		.byte	8
 1333 0340 9D       		.byte	-99
 1334 0341 54       		.byte	84
 1335 0342 9E       		.byte	-98
 1336 0343 92       		.byte	-110
 1337 0344 A2       		.byte	-94
 1338 0345 80       		.byte	-128
 1339 0346 A5       		.byte	-91
ARM GAS  C:\Users\xavieran\AppData\Local\Temp\ccJfmadl.s 			page 61


 1340 0347 08       		.byte	8
 1341 0348 A6       		.byte	-90
 1342 0349 20       		.byte	32
 1343 034a A8       		.byte	-88
 1344 034b 08       		.byte	8
 1345 034c A9       		.byte	-87
 1346 034d 02       		.byte	2
 1347 034e AB       		.byte	-85
 1348 034f 08       		.byte	8
 1349 0350 B0       		.byte	-80
 1350 0351 01       		.byte	1
 1351 0352 B2       		.byte	-78
 1352 0353 01       		.byte	1
 1353 0354 B4       		.byte	-76
 1354 0355 10       		.byte	16
 1355 0356 C0       		.byte	-64
 1356 0357 0F       		.byte	15
 1357 0358 C2       		.byte	-62
 1358 0359 0F       		.byte	15
 1359 035a C4       		.byte	-60
 1360 035b 0F       		.byte	15
 1361 035c CA       		.byte	-54
 1362 035d 0F       		.byte	15
 1363 035e CC       		.byte	-52
 1364 035f 0F       		.byte	15
 1365 0360 CE       		.byte	-50
 1366 0361 0F       		.byte	15
 1367 0362 D0       		.byte	-48
 1368 0363 18       		.byte	24
 1369 0364 D2       		.byte	-46
 1370 0365 18       		.byte	24
 1371 0366 E0       		.byte	-32
 1372 0367 01       		.byte	1
 1373 0368 E2       		.byte	-30
 1374 0369 02       		.byte	2
 1375 036a E6       		.byte	-26
 1376 036b 04       		.byte	4
 1377 036c EA       		.byte	-22
 1378 036d 04       		.byte	4
 1379 036e EE       		.byte	-18
 1380 036f C2       		.byte	-62
 1381 0370 12       		.byte	18
 1382 0371 01       		.byte	1
 1383 0372 1E       		.byte	30
 1384 0373 01       		.byte	1
 1385 0374 30       		.byte	48
 1386 0375 01       		.byte	1
 1387 0376 3E       		.byte	62
 1388 0377 01       		.byte	1
 1389 0378 40       		.byte	64
 1390 0379 51       		.byte	81
 1391 037a 45       		.byte	69
 1392 037b EC       		.byte	-20
 1393 037c 46       		.byte	70
 1394 037d 02       		.byte	2
 1395 037e 48       		.byte	72
 1396 037f 07       		.byte	7
ARM GAS  C:\Users\xavieran\AppData\Local\Temp\ccJfmadl.s 			page 62


 1397 0380 49       		.byte	73
 1398 0381 FF       		.byte	-1
 1399 0382 4A       		.byte	74
 1400 0383 FF       		.byte	-1
 1401 0384 4B       		.byte	75
 1402 0385 FF       		.byte	-1
 1403 0386 4D       		.byte	77
 1404 0387 83       		.byte	-125
 1405 0388 4E       		.byte	78
 1406 0389 03       		.byte	3
 1407 038a 4F       		.byte	79
 1408 038b 01       		.byte	1
 1409 038c 50       		.byte	80
 1410 038d 18       		.byte	24
 1411 038e 52       		.byte	82
 1412 038f 80       		.byte	-128
 1413 0390 54       		.byte	84
 1414 0391 01       		.byte	1
 1415 0392 58       		.byte	88
 1416 0393 04       		.byte	4
 1417 0394 5A       		.byte	90
 1418 0395 04       		.byte	4
 1419 0396 5B       		.byte	91
 1420 0397 04       		.byte	4
 1421 0398 5D       		.byte	93
 1422 0399 55       		.byte	85
 1423 039a 5F       		.byte	95
 1424 039b 01       		.byte	1
 1425 039c 60       		.byte	96
 1426 039d 40       		.byte	64
 1427 039e 62       		.byte	98
 1428 039f 40       		.byte	64
 1429 03a0 64       		.byte	100
 1430 03a1 40       		.byte	64
 1431 03a2 65       		.byte	101
 1432 03a3 40       		.byte	64
 1433 03a4 66       		.byte	102
 1434 03a5 80       		.byte	-128
 1435 03a6 68       		.byte	104
 1436 03a7 80       		.byte	-128
 1437 03a8 6A       		.byte	106
 1438 03a9 80       		.byte	-128
 1439 03aa 6C       		.byte	108
 1440 03ab 80       		.byte	-128
 1441 03ac 6E       		.byte	110
 1442 03ad 80       		.byte	-128
 1443 03ae 80       		.byte	-128
 1444 03af 01       		.byte	1
 1445 03b0 85       		.byte	-123
 1446 03b1 08       		.byte	8
 1447 03b2 86       		.byte	-122
 1448 03b3 01       		.byte	1
 1449 03b4 89       		.byte	-119
 1450 03b5 02       		.byte	2
 1451 03b6 8C       		.byte	-116
 1452 03b7 01       		.byte	1
 1453 03b8 8F       		.byte	-113
ARM GAS  C:\Users\xavieran\AppData\Local\Temp\ccJfmadl.s 			page 63


 1454 03b9 01       		.byte	1
 1455 03ba 93       		.byte	-109
 1456 03bb 08       		.byte	8
 1457 03bc 94       		.byte	-108
 1458 03bd 01       		.byte	1
 1459 03be 95       		.byte	-107
 1460 03bf 02       		.byte	2
 1461 03c0 99       		.byte	-103
 1462 03c1 02       		.byte	2
 1463 03c2 9D       		.byte	-99
 1464 03c3 08       		.byte	8
 1465 03c4 9E       		.byte	-98
 1466 03c5 02       		.byte	2
 1467 03c6 A0       		.byte	-96
 1468 03c7 01       		.byte	1
 1469 03c8 A1       		.byte	-95
 1470 03c9 02       		.byte	2
 1471 03ca A4       		.byte	-92
 1472 03cb 01       		.byte	1
 1473 03cc A8       		.byte	-88
 1474 03cd 04       		.byte	4
 1475 03ce A9       		.byte	-87
 1476 03cf 02       		.byte	2
 1477 03d0 AD       		.byte	-83
 1478 03d1 04       		.byte	4
 1479 03d2 B1       		.byte	-79
 1480 03d3 08       		.byte	8
 1481 03d4 B2       		.byte	-78
 1482 03d5 03       		.byte	3
 1483 03d6 B3       		.byte	-77
 1484 03d7 07       		.byte	7
 1485 03d8 B6       		.byte	-74
 1486 03d9 04       		.byte	4
 1487 03da B9       		.byte	-71
 1488 03db 08       		.byte	8
 1489 03dc BF       		.byte	-65
 1490 03dd 04       		.byte	4
 1491 03de D8       		.byte	-40
 1492 03df 04       		.byte	4
 1493 03e0 D9       		.byte	-39
 1494 03e1 04       		.byte	4
 1495 03e2 DC       		.byte	-36
 1496 03e3 22       		.byte	34
 1497 03e4 DF       		.byte	-33
 1498 03e5 01       		.byte	1
 1499 03e6 01       		.byte	1
 1500 03e7 8A       		.byte	-118
 1501 03e8 09       		.byte	9
 1502 03e9 08       		.byte	8
 1503 03ea 0A       		.byte	10
 1504 03eb 01       		.byte	1
 1505 03ec 0C       		.byte	12
 1506 03ed 02       		.byte	2
 1507 03ee 0D       		.byte	13
 1508 03ef 80       		.byte	-128
 1509 03f0 10       		.byte	16
 1510 03f1 A0       		.byte	-96
ARM GAS  C:\Users\xavieran\AppData\Local\Temp\ccJfmadl.s 			page 64


 1511 03f2 11       		.byte	17
 1512 03f3 10       		.byte	16
 1513 03f4 19       		.byte	25
 1514 03f5 CC       		.byte	-52
 1515 03f6 1A       		.byte	26
 1516 03f7 10       		.byte	16
 1517 03f8 1B       		.byte	27
 1518 03f9 04       		.byte	4
 1519 03fa 1E       		.byte	30
 1520 03fb 80       		.byte	-128
 1521 03fc 20       		.byte	32
 1522 03fd 20       		.byte	32
 1523 03fe 21       		.byte	33
 1524 03ff 04       		.byte	4
 1525 0400 22       		.byte	34
 1526 0401 01       		.byte	1
 1527 0402 28       		.byte	40
 1528 0403 01       		.byte	1
 1529 0404 29       		.byte	41
 1530 0405 02       		.byte	2
 1531 0406 2B       		.byte	43
 1532 0407 04       		.byte	4
 1533 0408 30       		.byte	48
 1534 0409 20       		.byte	32
 1535 040a 31       		.byte	49
 1536 040b 48       		.byte	72
 1537 040c 32       		.byte	50
 1538 040d 01       		.byte	1
 1539 040e 39       		.byte	57
 1540 040f A8       		.byte	-88
 1541 0410 45       		.byte	69
 1542 0411 80       		.byte	-128
 1543 0412 4C       		.byte	76
 1544 0413 02       		.byte	2
 1545 0414 4D       		.byte	77
 1546 0415 04       		.byte	4
 1547 0416 4F       		.byte	79
 1548 0417 01       		.byte	1
 1549 0418 55       		.byte	85
 1550 0419 80       		.byte	-128
 1551 041a 5D       		.byte	93
 1552 041b 04       		.byte	4
 1553 041c 5E       		.byte	94
 1554 041d 80       		.byte	-128
 1555 041e 5F       		.byte	95
 1556 041f 01       		.byte	1
 1557 0420 74       		.byte	116
 1558 0421 02       		.byte	2
 1559 0422 83       		.byte	-125
 1560 0423 04       		.byte	4
 1561 0424 86       		.byte	-122
 1562 0425 08       		.byte	8
 1563 0426 88       		.byte	-120
 1564 0427 20       		.byte	32
 1565 0428 8A       		.byte	-118
 1566 0429 10       		.byte	16
 1567 042a 8B       		.byte	-117
ARM GAS  C:\Users\xavieran\AppData\Local\Temp\ccJfmadl.s 			page 65


 1568 042b 04       		.byte	4
 1569 042c 8D       		.byte	-115
 1570 042d 40       		.byte	64
 1571 042e 8F       		.byte	-113
 1572 042f 04       		.byte	4
 1573 0430 91       		.byte	-111
 1574 0431 30       		.byte	48
 1575 0432 92       		.byte	-110
 1576 0433 01       		.byte	1
 1577 0434 96       		.byte	-106
 1578 0435 12       		.byte	18
 1579 0436 97       		.byte	-105
 1580 0437 04       		.byte	4
 1581 0438 98       		.byte	-104
 1582 0439 01       		.byte	1
 1583 043a 99       		.byte	-103
 1584 043b 02       		.byte	2
 1585 043c 9A       		.byte	-102
 1586 043d 08       		.byte	8
 1587 043e 9D       		.byte	-99
 1588 043f 44       		.byte	68
 1589 0440 9E       		.byte	-98
 1590 0441 10       		.byte	16
 1591 0442 9F       		.byte	-97
 1592 0443 04       		.byte	4
 1593 0444 A0       		.byte	-96
 1594 0445 80       		.byte	-128
 1595 0446 A1       		.byte	-95
 1596 0447 08       		.byte	8
 1597 0448 A4       		.byte	-92
 1598 0449 02       		.byte	2
 1599 044a A5       		.byte	-91
 1600 044b 80       		.byte	-128
 1601 044c AC       		.byte	-84
 1602 044d 10       		.byte	16
 1603 044e AD       		.byte	-83
 1604 044f 40       		.byte	64
 1605 0450 AF       		.byte	-81
 1606 0451 80       		.byte	-128
 1607 0452 B1       		.byte	-79
 1608 0453 08       		.byte	8
 1609 0454 B2       		.byte	-78
 1610 0455 01       		.byte	1
 1611 0456 B4       		.byte	-76
 1612 0457 40       		.byte	64
 1613 0458 B5       		.byte	-75
 1614 0459 10       		.byte	16
 1615 045a B6       		.byte	-74
 1616 045b 20       		.byte	32
 1617 045c B7       		.byte	-73
 1618 045d 40       		.byte	64
 1619 045e C0       		.byte	-64
 1620 045f 0D       		.byte	13
 1621 0460 C2       		.byte	-62
 1622 0461 95       		.byte	-107
 1623 0462 C4       		.byte	-60
 1624 0463 0E       		.byte	14
ARM GAS  C:\Users\xavieran\AppData\Local\Temp\ccJfmadl.s 			page 66


 1625 0464 CA       		.byte	-54
 1626 0465 0D       		.byte	13
 1627 0466 CC       		.byte	-52
 1628 0467 0F       		.byte	15
 1629 0468 CE       		.byte	-50
 1630 0469 0E       		.byte	14
 1631 046a D0       		.byte	-48
 1632 046b 10       		.byte	16
 1633 046c D2       		.byte	-46
 1634 046d 10       		.byte	16
 1635 046e D6       		.byte	-42
 1636 046f D0       		.byte	-48
 1637 0470 E2       		.byte	-30
 1638 0471 04       		.byte	4
 1639 0472 E4       		.byte	-28
 1640 0473 04       		.byte	4
 1641 0474 EC       		.byte	-20
 1642 0475 08       		.byte	8
 1643 0476 01       		.byte	1
 1644 0477 02       		.byte	2
 1645 0478 03       		.byte	3
 1646 0479 18       		.byte	24
 1647 047a 04       		.byte	4
 1648 047b 04       		.byte	4
 1649 047c 05       		.byte	5
 1650 047d 01       		.byte	1
 1651 047e 06       		.byte	6
 1652 047f 03       		.byte	3
 1653 0480 08       		.byte	8
 1654 0481 06       		.byte	6
 1655 0482 09       		.byte	9
 1656 0483 18       		.byte	24
 1657 0484 0B       		.byte	11
 1658 0485 06       		.byte	6
 1659 0486 0C       		.byte	12
 1660 0487 02       		.byte	2
 1661 0488 0D       		.byte	13
 1662 0489 04       		.byte	4
 1663 048a 0E       		.byte	14
 1664 048b 08       		.byte	8
 1665 048c 11       		.byte	17
 1666 048d 02       		.byte	2
 1667 048e 14       		.byte	20
 1668 048f 02       		.byte	2
 1669 0490 15       		.byte	21
 1670 0491 1C       		.byte	28
 1671 0492 16       		.byte	22
 1672 0493 0C       		.byte	12
 1673 0494 17       		.byte	23
 1674 0495 02       		.byte	2
 1675 0496 19       		.byte	25
 1676 0497 0A       		.byte	10
 1677 0498 1A       		.byte	26
 1678 0499 06       		.byte	6
 1679 049a 1B       		.byte	27
 1680 049b 10       		.byte	16
 1681 049c 1D       		.byte	29
ARM GAS  C:\Users\xavieran\AppData\Local\Temp\ccJfmadl.s 			page 67


 1682 049d 01       		.byte	1
 1683 049e 1F       		.byte	31
 1684 049f 1E       		.byte	30
 1685 04a0 21       		.byte	33
 1686 04a1 3F       		.byte	63
 1687 04a2 22       		.byte	34
 1688 04a3 06       		.byte	6
 1689 04a4 24       		.byte	36
 1690 04a5 06       		.byte	6
 1691 04a6 25       		.byte	37
 1692 04a7 06       		.byte	6
 1693 04a8 29       		.byte	41
 1694 04a9 20       		.byte	32
 1695 04aa 2A       		.byte	42
 1696 04ab 06       		.byte	6
 1697 04ac 2D       		.byte	45
 1698 04ad 12       		.byte	18
 1699 04ae 2E       		.byte	46
 1700 04af 06       		.byte	6
 1701 04b0 2F       		.byte	47
 1702 04b1 08       		.byte	8
 1703 04b2 32       		.byte	50
 1704 04b3 0E       		.byte	14
 1705 04b4 33       		.byte	51
 1706 04b5 1F       		.byte	31
 1707 04b6 36       		.byte	54
 1708 04b7 01       		.byte	1
 1709 04b8 37       		.byte	55
 1710 04b9 20       		.byte	32
 1711 04ba 39       		.byte	57
 1712 04bb 88       		.byte	-120
 1713 04bc 3A       		.byte	58
 1714 04bd 08       		.byte	8
 1715 04be 40       		.byte	64
 1716 04bf 25       		.byte	37
 1717 04c0 44       		.byte	68
 1718 04c1 01       		.byte	1
 1719 04c2 46       		.byte	70
 1720 04c3 0B       		.byte	11
 1721 04c4 47       		.byte	71
 1722 04c5 0D       		.byte	13
 1723 04c6 48       		.byte	72
 1724 04c7 14       		.byte	20
 1725 04c8 49       		.byte	73
 1726 04c9 FF       		.byte	-1
 1727 04ca 4A       		.byte	74
 1728 04cb 7F       		.byte	127
 1729 04cc 4B       		.byte	75
 1730 04cd FF       		.byte	-1
 1731 04ce 4C       		.byte	76
 1732 04cf 42       		.byte	66
 1733 04d0 4D       		.byte	77
 1734 04d1 A0       		.byte	-96
 1735 04d2 4E       		.byte	78
 1736 04d3 70       		.byte	112
 1737 04d4 50       		.byte	80
 1738 04d5 0C       		.byte	12
ARM GAS  C:\Users\xavieran\AppData\Local\Temp\ccJfmadl.s 			page 68


 1739 04d6 58       		.byte	88
 1740 04d7 04       		.byte	4
 1741 04d8 59       		.byte	89
 1742 04d9 04       		.byte	4
 1743 04da 5A       		.byte	90
 1744 04db 04       		.byte	4
 1745 04dc 5C       		.byte	92
 1746 04dd 22       		.byte	34
 1747 04de 5D       		.byte	93
 1748 04df 02       		.byte	2
 1749 04e0 5F       		.byte	95
 1750 04e1 01       		.byte	1
 1751 04e2 61       		.byte	97
 1752 04e3 09       		.byte	9
 1753 04e4 62       		.byte	98
 1754 04e5 40       		.byte	64
 1755 04e6 63       		.byte	99
 1756 04e7 09       		.byte	9
 1757 04e8 64       		.byte	100
 1758 04e9 30       		.byte	48
 1759 04ea 65       		.byte	101
 1760 04eb 09       		.byte	9
 1761 04ec 81       		.byte	-127
 1762 04ed 0E       		.byte	14
 1763 04ee 83       		.byte	-125
 1764 04ef 30       		.byte	48
 1765 04f0 86       		.byte	-122
 1766 04f1 01       		.byte	1
 1767 04f2 89       		.byte	-119
 1768 04f3 40       		.byte	64
 1769 04f4 8B       		.byte	-117
 1770 04f5 13       		.byte	19
 1771 04f6 94       		.byte	-108
 1772 04f7 02       		.byte	2
 1773 04f8 97       		.byte	-105
 1774 04f9 01       		.byte	1
 1775 04fa 99       		.byte	-103
 1776 04fb 2A       		.byte	42
 1777 04fc 9B       		.byte	-101
 1778 04fd 54       		.byte	84
 1779 04fe 9C       		.byte	-100
 1780 04ff 04       		.byte	4
 1781 0500 9E       		.byte	-98
 1782 0501 08       		.byte	8
 1783 0502 A0       		.byte	-96
 1784 0503 04       		.byte	4
 1785 0504 A1       		.byte	-95
 1786 0505 FF       		.byte	-1
 1787 0506 A2       		.byte	-94
 1788 0507 08       		.byte	8
 1789 0508 A5       		.byte	-91
 1790 0509 33       		.byte	51
 1791 050a A7       		.byte	-89
 1792 050b 0C       		.byte	12
 1793 050c A9       		.byte	-87
 1794 050d 80       		.byte	-128
 1795 050e AB       		.byte	-85
ARM GAS  C:\Users\xavieran\AppData\Local\Temp\ccJfmadl.s 			page 69


 1796 050f 56       		.byte	86
 1797 0510 AC       		.byte	-84
 1798 0511 02       		.byte	2
 1799 0512 AD       		.byte	-83
 1800 0513 46       		.byte	70
 1801 0514 AF       		.byte	-81
 1802 0515 A9       		.byte	-87
 1803 0516 B0       		.byte	-80
 1804 0517 01       		.byte	1
 1805 0518 B5       		.byte	-75
 1806 0519 FF       		.byte	-1
 1807 051a B6       		.byte	-74
 1808 051b 0E       		.byte	14
 1809 051c B8       		.byte	-72
 1810 051d 80       		.byte	-128
 1811 051e BE       		.byte	-66
 1812 051f 40       		.byte	64
 1813 0520 D8       		.byte	-40
 1814 0521 04       		.byte	4
 1815 0522 D9       		.byte	-39
 1816 0523 04       		.byte	4
 1817 0524 DC       		.byte	-36
 1818 0525 28       		.byte	40
 1819 0526 DF       		.byte	-33
 1820 0527 31       		.byte	49
 1821 0528 00       		.byte	0
 1822 0529 08       		.byte	8
 1823 052a 05       		.byte	5
 1824 052b 58       		.byte	88
 1825 052c 09       		.byte	9
 1826 052d 08       		.byte	8
 1827 052e 0B       		.byte	11
 1828 052f 02       		.byte	2
 1829 0530 0E       		.byte	14
 1830 0531 28       		.byte	40
 1831 0532 10       		.byte	16
 1832 0533 02       		.byte	2
 1833 0534 11       		.byte	17
 1834 0535 02       		.byte	2
 1835 0536 13       		.byte	19
 1836 0537 02       		.byte	2
 1837 0538 16       		.byte	22
 1838 0539 02       		.byte	2
 1839 053a 17       		.byte	23
 1840 053b 2A       		.byte	42
 1841 053c 18       		.byte	24
 1842 053d 80       		.byte	-128
 1843 053e 1A       		.byte	26
 1844 053f 02       		.byte	2
 1845 0540 1D       		.byte	29
 1846 0541 80       		.byte	-128
 1847 0542 1E       		.byte	30
 1848 0543 20       		.byte	32
 1849 0544 21       		.byte	33
 1850 0545 10       		.byte	16
 1851 0546 23       		.byte	35
 1852 0547 08       		.byte	8
ARM GAS  C:\Users\xavieran\AppData\Local\Temp\ccJfmadl.s 			page 70


 1853 0548 25       		.byte	37
 1854 0549 04       		.byte	4
 1855 054a 26       		.byte	38
 1856 054b 80       		.byte	-128
 1857 054c 28       		.byte	40
 1858 054d 40       		.byte	64
 1859 054e 29       		.byte	41
 1860 054f 20       		.byte	32
 1861 0550 2A       		.byte	42
 1862 0551 80       		.byte	-128
 1863 0552 2B       		.byte	43
 1864 0553 10       		.byte	16
 1865 0554 2C       		.byte	44
 1866 0555 40       		.byte	64
 1867 0556 2D       		.byte	45
 1868 0557 20       		.byte	32
 1869 0558 2E       		.byte	46
 1870 0559 80       		.byte	-128
 1871 055a 2F       		.byte	47
 1872 055b 10       		.byte	16
 1873 055c 30       		.byte	48
 1874 055d 08       		.byte	8
 1875 055e 32       		.byte	50
 1876 055f 10       		.byte	16
 1877 0560 35       		.byte	53
 1878 0561 12       		.byte	18
 1879 0562 36       		.byte	54
 1880 0563 84       		.byte	-124
 1881 0564 3A       		.byte	58
 1882 0565 10       		.byte	16
 1883 0566 3B       		.byte	59
 1884 0567 02       		.byte	2
 1885 0568 3D       		.byte	61
 1886 0569 08       		.byte	8
 1887 056a 3E       		.byte	62
 1888 056b 02       		.byte	2
 1889 056c 3F       		.byte	63
 1890 056d A0       		.byte	-96
 1891 056e 45       		.byte	69
 1892 056f A0       		.byte	-96
 1893 0570 47       		.byte	71
 1894 0571 40       		.byte	64
 1895 0572 4E       		.byte	78
 1896 0573 01       		.byte	1
 1897 0574 54       		.byte	84
 1898 0575 08       		.byte	8
 1899 0576 56       		.byte	86
 1900 0577 04       		.byte	4
 1901 0578 57       		.byte	87
 1902 0579 40       		.byte	64
 1903 057a 78       		.byte	120
 1904 057b 01       		.byte	1
 1905 057c 82       		.byte	-126
 1906 057d 04       		.byte	4
 1907 057e 83       		.byte	-125
 1908 057f 01       		.byte	1
 1909 0580 89       		.byte	-119
ARM GAS  C:\Users\xavieran\AppData\Local\Temp\ccJfmadl.s 			page 71


 1910 0581 10       		.byte	16
 1911 0582 8A       		.byte	-118
 1912 0583 80       		.byte	-128
 1913 0584 8D       		.byte	-115
 1914 0585 10       		.byte	16
 1915 0586 8E       		.byte	-114
 1916 0587 04       		.byte	4
 1917 0588 92       		.byte	-110
 1918 0589 60       		.byte	96
 1919 058a 93       		.byte	-109
 1920 058b 20       		.byte	32
 1921 058c 95       		.byte	-107
 1922 058d 20       		.byte	32
 1923 058e 97       		.byte	-105
 1924 058f 02       		.byte	2
 1925 0590 98       		.byte	-104
 1926 0591 40       		.byte	64
 1927 0592 99       		.byte	-103
 1928 0593 72       		.byte	114
 1929 0594 9A       		.byte	-102
 1930 0595 12       		.byte	18
 1931 0596 9B       		.byte	-101
 1932 0597 20       		.byte	32
 1933 0598 9C       		.byte	-100
 1934 0599 81       		.byte	-127
 1935 059a 9E       		.byte	-98
 1936 059b 04       		.byte	4
 1937 059c 9F       		.byte	-97
 1938 059d 48       		.byte	72
 1939 059e A0       		.byte	-96
 1940 059f 02       		.byte	2
 1941 05a0 A1       		.byte	-95
 1942 05a1 09       		.byte	9
 1943 05a2 A3       		.byte	-93
 1944 05a3 10       		.byte	16
 1945 05a4 A5       		.byte	-91
 1946 05a5 10       		.byte	16
 1947 05a6 A6       		.byte	-90
 1948 05a7 10       		.byte	16
 1949 05a8 A7       		.byte	-89
 1950 05a9 02       		.byte	2
 1951 05aa AC       		.byte	-84
 1952 05ab 40       		.byte	64
 1953 05ac AE       		.byte	-82
 1954 05ad 80       		.byte	-128
 1955 05ae B2       		.byte	-78
 1956 05af 04       		.byte	4
 1957 05b0 B3       		.byte	-77
 1958 05b1 12       		.byte	18
 1959 05b2 B5       		.byte	-75
 1960 05b3 41       		.byte	65
 1961 05b4 B6       		.byte	-74
 1962 05b5 40       		.byte	64
 1963 05b6 B7       		.byte	-73
 1964 05b7 10       		.byte	16
 1965 05b8 C0       		.byte	-64
 1966 05b9 E4       		.byte	-28
ARM GAS  C:\Users\xavieran\AppData\Local\Temp\ccJfmadl.s 			page 72


 1967 05ba C2       		.byte	-62
 1968 05bb 65       		.byte	101
 1969 05bc C4       		.byte	-60
 1970 05bd F9       		.byte	-7
 1971 05be CA       		.byte	-54
 1972 05bf FF       		.byte	-1
 1973 05c0 CC       		.byte	-52
 1974 05c1 F6       		.byte	-10
 1975 05c2 CE       		.byte	-50
 1976 05c3 F5       		.byte	-11
 1977 05c4 D0       		.byte	-48
 1978 05c5 30       		.byte	48
 1979 05c6 D2       		.byte	-46
 1980 05c7 10       		.byte	16
 1981 05c8 DE       		.byte	-34
 1982 05c9 01       		.byte	1
 1983 05ca E2       		.byte	-30
 1984 05cb 04       		.byte	4
 1985 05cc E6       		.byte	-26
 1986 05cd 30       		.byte	48
 1987 05ce E8       		.byte	-24
 1988 05cf 70       		.byte	112
 1989 05d0 EE       		.byte	-18
 1990 05d1 20       		.byte	32
 1991 05d2 07       		.byte	7
 1992 05d3 02       		.byte	2
 1993 05d4 09       		.byte	9
 1994 05d5 02       		.byte	2
 1995 05d6 0D       		.byte	13
 1996 05d7 02       		.byte	2
 1997 05d8 10       		.byte	16
 1998 05d9 01       		.byte	1
 1999 05da 11       		.byte	17
 2000 05db 01       		.byte	1
 2001 05dc 12       		.byte	18
 2002 05dd 02       		.byte	2
 2003 05de 14       		.byte	20
 2004 05df 04       		.byte	4
 2005 05e0 15       		.byte	21
 2006 05e1 01       		.byte	1
 2007 05e2 19       		.byte	25
 2008 05e3 02       		.byte	2
 2009 05e4 1C       		.byte	28
 2010 05e5 01       		.byte	1
 2011 05e6 1D       		.byte	29
 2012 05e7 02       		.byte	2
 2013 05e8 1E       		.byte	30
 2014 05e9 02       		.byte	2
 2015 05ea 23       		.byte	35
 2016 05eb 08       		.byte	8
 2017 05ec 25       		.byte	37
 2018 05ed 04       		.byte	4
 2019 05ee 29       		.byte	41
 2020 05ef 02       		.byte	2
 2021 05f0 2C       		.byte	44
 2022 05f1 04       		.byte	4
 2023 05f2 2D       		.byte	45
ARM GAS  C:\Users\xavieran\AppData\Local\Temp\ccJfmadl.s 			page 73


 2024 05f3 01       		.byte	1
 2025 05f4 31       		.byte	49
 2026 05f5 08       		.byte	8
 2027 05f6 32       		.byte	50
 2028 05f7 03       		.byte	3
 2029 05f8 33       		.byte	51
 2030 05f9 01       		.byte	1
 2031 05fa 35       		.byte	53
 2032 05fb 06       		.byte	6
 2033 05fc 36       		.byte	54
 2034 05fd 04       		.byte	4
 2035 05fe 38       		.byte	56
 2036 05ff 80       		.byte	-128
 2037 0600 39       		.byte	57
 2038 0601 28       		.byte	40
 2039 0602 3E       		.byte	62
 2040 0603 40       		.byte	64
 2041 0604 3F       		.byte	63
 2042 0605 10       		.byte	16
 2043 0606 40       		.byte	64
 2044 0607 52       		.byte	82
 2045 0608 47       		.byte	71
 2046 0609 25       		.byte	37
 2047 060a 48       		.byte	72
 2048 060b 30       		.byte	48
 2049 060c 49       		.byte	73
 2050 060d FF       		.byte	-1
 2051 060e 4A       		.byte	74
 2052 060f FF       		.byte	-1
 2053 0610 4B       		.byte	75
 2054 0611 FF       		.byte	-1
 2055 0612 4C       		.byte	76
 2056 0613 42       		.byte	66
 2057 0614 4D       		.byte	77
 2058 0615 A0       		.byte	-96
 2059 0616 4E       		.byte	78
 2060 0617 70       		.byte	112
 2061 0618 50       		.byte	80
 2062 0619 08       		.byte	8
 2063 061a 51       		.byte	81
 2064 061b 10       		.byte	16
 2065 061c 58       		.byte	88
 2066 061d 04       		.byte	4
 2067 061e 59       		.byte	89
 2068 061f 04       		.byte	4
 2069 0620 5A       		.byte	90
 2070 0621 04       		.byte	4
 2071 0622 5C       		.byte	92
 2072 0623 22       		.byte	34
 2073 0624 5D       		.byte	93
 2074 0625 02       		.byte	2
 2075 0626 5F       		.byte	95
 2076 0627 01       		.byte	1
 2077 0628 61       		.byte	97
 2078 0629 48       		.byte	72
 2079 062a 62       		.byte	98
 2080 062b 40       		.byte	64
ARM GAS  C:\Users\xavieran\AppData\Local\Temp\ccJfmadl.s 			page 74


 2081 062c 63       		.byte	99
 2082 062d 48       		.byte	72
 2083 062e 64       		.byte	100
 2084 062f 80       		.byte	-128
 2085 0630 65       		.byte	101
 2086 0631 48       		.byte	72
 2087 0632 66       		.byte	102
 2088 0633 80       		.byte	-128
 2089 0634 67       		.byte	103
 2090 0635 48       		.byte	72
 2091 0636 81       		.byte	-127
 2092 0637 5D       		.byte	93
 2093 0638 82       		.byte	-126
 2094 0639 01       		.byte	1
 2095 063a 83       		.byte	-125
 2096 063b A2       		.byte	-94
 2097 063c 85       		.byte	-123
 2098 063d 40       		.byte	64
 2099 063e 87       		.byte	-121
 2100 063f 1D       		.byte	29
 2101 0640 89       		.byte	-119
 2102 0641 0D       		.byte	13
 2103 0642 8D       		.byte	-115
 2104 0643 01       		.byte	1
 2105 0644 8E       		.byte	-114
 2106 0645 02       		.byte	2
 2107 0646 93       		.byte	-109
 2108 0647 08       		.byte	8
 2109 0648 95       		.byte	-107
 2110 0649 92       		.byte	-110
 2111 064a 96       		.byte	-106
 2112 064b 02       		.byte	2
 2113 064c 97       		.byte	-105
 2114 064d 60       		.byte	96
 2115 064e 9A       		.byte	-102
 2116 064f 06       		.byte	6
 2117 0650 9B       		.byte	-101
 2118 0651 FF       		.byte	-1
 2119 0652 9D       		.byte	-99
 2120 0653 E2       		.byte	-30
 2121 0654 9E       		.byte	-98
 2122 0655 04       		.byte	4
 2123 0656 A3       		.byte	-93
 2124 0657 02       		.byte	2
 2125 0658 A5       		.byte	-91
 2126 0659 04       		.byte	4
 2127 065a A7       		.byte	-89
 2128 065b E0       		.byte	-32
 2129 065c A9       		.byte	-87
 2130 065d 01       		.byte	1
 2131 065e AA       		.byte	-86
 2132 065f 02       		.byte	2
 2133 0660 AD       		.byte	-83
 2134 0661 3D       		.byte	61
 2135 0662 AE       		.byte	-82
 2136 0663 08       		.byte	8
 2137 0664 AF       		.byte	-81
ARM GAS  C:\Users\xavieran\AppData\Local\Temp\ccJfmadl.s 			page 75


 2138 0665 C2       		.byte	-62
 2139 0666 B0       		.byte	-80
 2140 0667 01       		.byte	1
 2141 0668 B1       		.byte	-79
 2142 0669 FF       		.byte	-1
 2143 066a B4       		.byte	-76
 2144 066b 0E       		.byte	14
 2145 066c BA       		.byte	-70
 2146 066d 20       		.byte	32
 2147 066e BF       		.byte	-65
 2148 066f 01       		.byte	1
 2149 0670 D8       		.byte	-40
 2150 0671 04       		.byte	4
 2151 0672 D9       		.byte	-39
 2152 0673 04       		.byte	4
 2153 0674 DC       		.byte	-36
 2154 0675 02       		.byte	2
 2155 0676 DF       		.byte	-33
 2156 0677 01       		.byte	1
 2157 0678 04       		.byte	4
 2158 0679 80       		.byte	-128
 2159 067a 07       		.byte	7
 2160 067b 40       		.byte	64
 2161 067c 08       		.byte	8
 2162 067d 80       		.byte	-128
 2163 067e 09       		.byte	9
 2164 067f 08       		.byte	8
 2165 0680 0A       		.byte	10
 2166 0681 40       		.byte	64
 2167 0682 0C       		.byte	12
 2168 0683 40       		.byte	64
 2169 0684 0E       		.byte	14
 2170 0685 04       		.byte	4
 2171 0686 0F       		.byte	15
 2172 0687 20       		.byte	32
 2173 0688 10       		.byte	16
 2174 0689 02       		.byte	2
 2175 068a 17       		.byte	23
 2176 068b A0       		.byte	-96
 2177 068c 19       		.byte	25
 2178 068d 88       		.byte	-120
 2179 068e 1D       		.byte	29
 2180 068f 11       		.byte	17
 2181 0690 1E       		.byte	30
 2182 0691 04       		.byte	4
 2183 0692 21       		.byte	33
 2184 0693 20       		.byte	32
 2185 0694 22       		.byte	34
 2186 0695 05       		.byte	5
 2187 0696 23       		.byte	35
 2188 0697 20       		.byte	32
 2189 0698 27       		.byte	39
 2190 0699 80       		.byte	-128
 2191 069a 28       		.byte	40
 2192 069b 80       		.byte	-128
 2193 069c 29       		.byte	41
 2194 069d 58       		.byte	88
ARM GAS  C:\Users\xavieran\AppData\Local\Temp\ccJfmadl.s 			page 76


 2195 069e 2A       		.byte	42
 2196 069f 10       		.byte	16
 2197 06a0 2C       		.byte	44
 2198 06a1 20       		.byte	32
 2199 06a2 2D       		.byte	45
 2200 06a3 02       		.byte	2
 2201 06a4 2F       		.byte	47
 2202 06a5 09       		.byte	9
 2203 06a6 30       		.byte	48
 2204 06a7 02       		.byte	2
 2205 06a8 31       		.byte	49
 2206 06a9 08       		.byte	8
 2207 06aa 32       		.byte	50
 2208 06ab 50       		.byte	80
 2209 06ac 35       		.byte	53
 2210 06ad 60       		.byte	96
 2211 06ae 36       		.byte	54
 2212 06af 80       		.byte	-128
 2213 06b0 37       		.byte	55
 2214 06b1 2A       		.byte	42
 2215 06b2 38       		.byte	56
 2216 06b3 80       		.byte	-128
 2217 06b4 39       		.byte	57
 2218 06b5 20       		.byte	32
 2219 06b6 3A       		.byte	58
 2220 06b7 04       		.byte	4
 2221 06b8 3D       		.byte	61
 2222 06b9 62       		.byte	98
 2223 06ba 3E       		.byte	62
 2224 06bb 04       		.byte	4
 2225 06bc 3F       		.byte	63
 2226 06bd 10       		.byte	16
 2227 06be 41       		.byte	65
 2228 06bf 20       		.byte	32
 2229 06c0 49       		.byte	73
 2230 06c1 80       		.byte	-128
 2231 06c2 50       		.byte	80
 2232 06c3 02       		.byte	2
 2233 06c4 52       		.byte	82
 2234 06c5 08       		.byte	8
 2235 06c6 80       		.byte	-128
 2236 06c7 40       		.byte	64
 2237 06c8 82       		.byte	-126
 2238 06c9 12       		.byte	18
 2239 06ca 87       		.byte	-121
 2240 06cb 20       		.byte	32
 2241 06cc 89       		.byte	-119
 2242 06cd 02       		.byte	2
 2243 06ce 8F       		.byte	-113
 2244 06cf 08       		.byte	8
 2245 06d0 92       		.byte	-110
 2246 06d1 60       		.byte	96
 2247 06d2 94       		.byte	-108
 2248 06d3 80       		.byte	-128
 2249 06d4 95       		.byte	-107
 2250 06d5 20       		.byte	32
 2251 06d6 96       		.byte	-106
ARM GAS  C:\Users\xavieran\AppData\Local\Temp\ccJfmadl.s 			page 77


 2252 06d7 0A       		.byte	10
 2253 06d8 97       		.byte	-105
 2254 06d9 12       		.byte	18
 2255 06da 9C       		.byte	-100
 2256 06db 01       		.byte	1
 2257 06dc 9D       		.byte	-99
 2258 06dd 11       		.byte	17
 2259 06de A0       		.byte	-96
 2260 06df 20       		.byte	32
 2261 06e0 A1       		.byte	-95
 2262 06e1 08       		.byte	8
 2263 06e2 A5       		.byte	-91
 2264 06e3 01       		.byte	1
 2265 06e4 A6       		.byte	-90
 2266 06e5 98       		.byte	-104
 2267 06e6 A7       		.byte	-89
 2268 06e7 12       		.byte	18
 2269 06e8 AA       		.byte	-86
 2270 06e9 09       		.byte	9
 2271 06ea B0       		.byte	-80
 2272 06eb 40       		.byte	64
 2273 06ec B7       		.byte	-73
 2274 06ed 84       		.byte	-124
 2275 06ee C0       		.byte	-64
 2276 06ef 90       		.byte	-112
 2277 06f0 C2       		.byte	-62
 2278 06f1 ED       		.byte	-19
 2279 06f2 C4       		.byte	-60
 2280 06f3 C1       		.byte	-63
 2281 06f4 CA       		.byte	-54
 2282 06f5 FF       		.byte	-1
 2283 06f6 CC       		.byte	-52
 2284 06f7 FF       		.byte	-1
 2285 06f8 CE       		.byte	-50
 2286 06f9 FE       		.byte	-2
 2287 06fa D0       		.byte	-48
 2288 06fb 04       		.byte	4
 2289 06fc D2       		.byte	-46
 2290 06fd 08       		.byte	8
 2291 06fe E0       		.byte	-32
 2292 06ff 90       		.byte	-112
 2293 0700 E8       		.byte	-24
 2294 0701 80       		.byte	-128
 2295 0702 EE       		.byte	-18
 2296 0703 03       		.byte	3
 2297 0704 00       		.byte	0
 2298 0705 01       		.byte	1
 2299 0706 01       		.byte	1
 2300 0707 02       		.byte	2
 2301 0708 02       		.byte	2
 2302 0709 02       		.byte	2
 2303 070a 08       		.byte	8
 2304 070b 05       		.byte	5
 2305 070c 0B       		.byte	11
 2306 070d 02       		.byte	2
 2307 070e 0D       		.byte	13
 2308 070f 02       		.byte	2
ARM GAS  C:\Users\xavieran\AppData\Local\Temp\ccJfmadl.s 			page 78


 2309 0710 0E       		.byte	14
 2310 0711 10       		.byte	16
 2311 0712 10       		.byte	16
 2312 0713 01       		.byte	1
 2313 0714 12       		.byte	18
 2314 0715 0E       		.byte	14
 2315 0716 14       		.byte	20
 2316 0717 05       		.byte	5
 2317 0718 17       		.byte	23
 2318 0719 01       		.byte	1
 2319 071a 18       		.byte	24
 2320 071b 04       		.byte	4
 2321 071c 1A       		.byte	26
 2322 071d 01       		.byte	1
 2323 071e 1B       		.byte	27
 2324 071f 02       		.byte	2
 2325 0720 1C       		.byte	28
 2326 0721 05       		.byte	5
 2327 0722 1D       		.byte	29
 2328 0723 03       		.byte	3
 2329 0724 28       		.byte	40
 2330 0725 04       		.byte	4
 2331 0726 2A       		.byte	42
 2332 0727 01       		.byte	1
 2333 0728 2C       		.byte	44
 2334 0729 01       		.byte	1
 2335 072a 2D       		.byte	45
 2336 072b 03       		.byte	3
 2337 072c 2E       		.byte	46
 2338 072d 08       		.byte	8
 2339 072e 30       		.byte	48
 2340 072f 0F       		.byte	15
 2341 0730 32       		.byte	50
 2342 0731 10       		.byte	16
 2343 0732 35       		.byte	53
 2344 0733 03       		.byte	3
 2345 0734 3A       		.byte	58
 2346 0735 02       		.byte	2
 2347 0736 54       		.byte	84
 2348 0737 20       		.byte	32
 2349 0738 56       		.byte	86
 2350 0739 04       		.byte	4
 2351 073a 58       		.byte	88
 2352 073b 04       		.byte	4
 2353 073c 59       		.byte	89
 2354 073d 04       		.byte	4
 2355 073e 5B       		.byte	91
 2356 073f 04       		.byte	4
 2357 0740 5C       		.byte	92
 2358 0741 22       		.byte	34
 2359 0742 5D       		.byte	93
 2360 0743 20       		.byte	32
 2361 0744 5F       		.byte	95
 2362 0745 01       		.byte	1
 2363 0746 83       		.byte	-125
 2364 0747 10       		.byte	16
 2365 0748 86       		.byte	-122
ARM GAS  C:\Users\xavieran\AppData\Local\Temp\ccJfmadl.s 			page 79


 2366 0749 14       		.byte	20
 2367 074a 87       		.byte	-121
 2368 074b 0F       		.byte	15
 2369 074c 8A       		.byte	-118
 2370 074d 18       		.byte	24
 2371 074e 8B       		.byte	-117
 2372 074f 08       		.byte	8
 2373 0750 8F       		.byte	-113
 2374 0751 01       		.byte	1
 2375 0752 91       		.byte	-111
 2376 0753 0F       		.byte	15
 2377 0754 95       		.byte	-107
 2378 0755 0F       		.byte	15
 2379 0756 96       		.byte	-106
 2380 0757 20       		.byte	32
 2381 0758 98       		.byte	-104
 2382 0759 04       		.byte	4
 2383 075a 9A       		.byte	-102
 2384 075b 08       		.byte	8
 2385 075c 9B       		.byte	-101
 2386 075d 08       		.byte	8
 2387 075e 9C       		.byte	-100
 2388 075f 3F       		.byte	63
 2389 0760 9F       		.byte	-97
 2390 0761 0F       		.byte	15
 2391 0762 A0       		.byte	-96
 2392 0763 10       		.byte	16
 2393 0764 A2       		.byte	-94
 2394 0765 02       		.byte	2
 2395 0766 A6       		.byte	-90
 2396 0767 08       		.byte	8
 2397 0768 A7       		.byte	-89
 2398 0769 02       		.byte	2
 2399 076a A8       		.byte	-88
 2400 076b 0F       		.byte	15
 2401 076c AB       		.byte	-85
 2402 076d 04       		.byte	4
 2403 076e AC       		.byte	-84
 2404 076f 10       		.byte	16
 2405 0770 AE       		.byte	-82
 2406 0771 01       		.byte	1
 2407 0772 B0       		.byte	-80
 2408 0773 3F       		.byte	63
 2409 0774 B3       		.byte	-77
 2410 0775 0F       		.byte	15
 2411 0776 B5       		.byte	-75
 2412 0777 10       		.byte	16
 2413 0778 B8       		.byte	-72
 2414 0779 02       		.byte	2
 2415 077a BF       		.byte	-65
 2416 077b 04       		.byte	4
 2417 077c D8       		.byte	-40
 2418 077d 04       		.byte	4
 2419 077e D9       		.byte	-39
 2420 077f 04       		.byte	4
 2421 0780 DC       		.byte	-36
 2422 0781 82       		.byte	-126
ARM GAS  C:\Users\xavieran\AppData\Local\Temp\ccJfmadl.s 			page 80


 2423 0782 DF       		.byte	-33
 2424 0783 31       		.byte	49
 2425 0784 00       		.byte	0
 2426 0785 10       		.byte	16
 2427 0786 02       		.byte	2
 2428 0787 10       		.byte	16
 2429 0788 05       		.byte	5
 2430 0789 10       		.byte	16
 2431 078a 06       		.byte	6
 2432 078b 80       		.byte	-128
 2433 078c 07       		.byte	7
 2434 078d 01       		.byte	1
 2435 078e 08       		.byte	8
 2436 078f 80       		.byte	-128
 2437 0790 09       		.byte	9
 2438 0791 08       		.byte	8
 2439 0792 0A       		.byte	10
 2440 0793 08       		.byte	8
 2441 0794 0C       		.byte	12
 2442 0795 20       		.byte	32
 2443 0796 0D       		.byte	13
 2444 0797 40       		.byte	64
 2445 0798 0E       		.byte	14
 2446 0799 80       		.byte	-128
 2447 079a 0F       		.byte	15
 2448 079b 20       		.byte	32
 2449 079c 10       		.byte	16
 2450 079d 20       		.byte	32
 2451 079e 11       		.byte	17
 2452 079f 42       		.byte	66
 2453 07a0 12       		.byte	18
 2454 07a1 08       		.byte	8
 2455 07a2 15       		.byte	21
 2456 07a3 20       		.byte	32
 2457 07a4 17       		.byte	23
 2458 07a5 40       		.byte	64
 2459 07a6 1A       		.byte	26
 2460 07a7 C0       		.byte	-64
 2461 07a8 1E       		.byte	30
 2462 07a9 90       		.byte	-112
 2463 07aa 1F       		.byte	31
 2464 07ab 04       		.byte	4
 2465 07ac 21       		.byte	33
 2466 07ad 28       		.byte	40
 2467 07ae 27       		.byte	39
 2468 07af 04       		.byte	4
 2469 07b0 29       		.byte	41
 2470 07b1 10       		.byte	16
 2471 07b2 2A       		.byte	42
 2472 07b3 10       		.byte	16
 2473 07b4 2B       		.byte	43
 2474 07b5 10       		.byte	16
 2475 07b6 2E       		.byte	46
 2476 07b7 80       		.byte	-128
 2477 07b8 2F       		.byte	47
 2478 07b9 02       		.byte	2
 2479 07ba 30       		.byte	48
ARM GAS  C:\Users\xavieran\AppData\Local\Temp\ccJfmadl.s 			page 81


 2480 07bb 22       		.byte	34
 2481 07bc 32       		.byte	50
 2482 07bd 55       		.byte	85
 2483 07be 33       		.byte	51
 2484 07bf 01       		.byte	1
 2485 07c0 34       		.byte	52
 2486 07c1 80       		.byte	-128
 2487 07c2 35       		.byte	53
 2488 07c3 10       		.byte	16
 2489 07c4 36       		.byte	54
 2490 07c5 80       		.byte	-128
 2491 07c6 37       		.byte	55
 2492 07c7 44       		.byte	68
 2493 07c8 38       		.byte	56
 2494 07c9 92       		.byte	-110
 2495 07ca 39       		.byte	57
 2496 07cb E0       		.byte	-32
 2497 07cc 3A       		.byte	58
 2498 07cd 20       		.byte	32
 2499 07ce 3B       		.byte	59
 2500 07cf 08       		.byte	8
 2501 07d0 3D       		.byte	61
 2502 07d1 42       		.byte	66
 2503 07d2 3E       		.byte	62
 2504 07d3 20       		.byte	32
 2505 07d4 5E       		.byte	94
 2506 07d5 28       		.byte	40
 2507 07d6 5F       		.byte	95
 2508 07d7 82       		.byte	-126
 2509 07d8 66       		.byte	102
 2510 07d9 41       		.byte	65
 2511 07da 67       		.byte	103
 2512 07db 04       		.byte	4
 2513 07dc 78       		.byte	120
 2514 07dd 01       		.byte	1
 2515 07de 81       		.byte	-127
 2516 07df 20       		.byte	32
 2517 07e0 86       		.byte	-122
 2518 07e1 04       		.byte	4
 2519 07e2 8A       		.byte	-118
 2520 07e3 40       		.byte	64
 2521 07e4 8B       		.byte	-117
 2522 07e5 02       		.byte	2
 2523 07e6 8E       		.byte	-114
 2524 07e7 10       		.byte	16
 2525 07e8 8F       		.byte	-113
 2526 07e9 40       		.byte	64
 2527 07ea 90       		.byte	-112
 2528 07eb 02       		.byte	2
 2529 07ec 92       		.byte	-110
 2530 07ed 20       		.byte	32
 2531 07ee 93       		.byte	-109
 2532 07ef 04       		.byte	4
 2533 07f0 95       		.byte	-107
 2534 07f1 20       		.byte	32
 2535 07f2 96       		.byte	-106
 2536 07f3 18       		.byte	24
ARM GAS  C:\Users\xavieran\AppData\Local\Temp\ccJfmadl.s 			page 82


 2537 07f4 97       		.byte	-105
 2538 07f5 12       		.byte	18
 2539 07f6 9A       		.byte	-102
 2540 07f7 40       		.byte	64
 2541 07f8 9C       		.byte	-100
 2542 07f9 40       		.byte	64
 2543 07fa 9D       		.byte	-99
 2544 07fb 11       		.byte	17
 2545 07fc 9E       		.byte	-98
 2546 07fd 28       		.byte	40
 2547 07fe A2       		.byte	-94
 2548 07ff 04       		.byte	4
 2549 0800 A4       		.byte	-92
 2550 0801 02       		.byte	2
 2551 0802 A7       		.byte	-89
 2552 0803 50       		.byte	80
 2553 0804 AB       		.byte	-85
 2554 0805 34       		.byte	52
 2555 0806 AF       		.byte	-81
 2556 0807 01       		.byte	1
 2557 0808 B4       		.byte	-76
 2558 0809 01       		.byte	1
 2559 080a C0       		.byte	-64
 2560 080b D6       		.byte	-42
 2561 080c C2       		.byte	-62
 2562 080d F7       		.byte	-9
 2563 080e C4       		.byte	-60
 2564 080f CF       		.byte	-49
 2565 0810 CA       		.byte	-54
 2566 0811 16       		.byte	22
 2567 0812 CC       		.byte	-52
 2568 0813 7F       		.byte	127
 2569 0814 CE       		.byte	-50
 2570 0815 BF       		.byte	-65
 2571 0816 D6       		.byte	-42
 2572 0817 F0       		.byte	-16
 2573 0818 D8       		.byte	-40
 2574 0819 B0       		.byte	-80
 2575 081a DE       		.byte	-34
 2576 081b 01       		.byte	1
 2577 081c E2       		.byte	-30
 2578 081d 40       		.byte	64
 2579 081e EE       		.byte	-18
 2580 081f 0C       		.byte	12
 2581 0820 01       		.byte	1
 2582 0821 06       		.byte	6
 2583 0822 05       		.byte	5
 2584 0823 05       		.byte	5
 2585 0824 07       		.byte	7
 2586 0825 0A       		.byte	10
 2587 0826 09       		.byte	9
 2588 0827 01       		.byte	1
 2589 0828 0B       		.byte	11
 2590 0829 02       		.byte	2
 2591 082a 0D       		.byte	13
 2592 082b 0F       		.byte	15
 2593 082c 15       		.byte	21
ARM GAS  C:\Users\xavieran\AppData\Local\Temp\ccJfmadl.s 			page 83


 2594 082d 08       		.byte	8
 2595 082e 17       		.byte	23
 2596 082f 05       		.byte	5
 2597 0830 1B       		.byte	27
 2598 0831 02       		.byte	2
 2599 0832 23       		.byte	35
 2600 0833 10       		.byte	16
 2601 0834 25       		.byte	37
 2602 0835 01       		.byte	1
 2603 0836 27       		.byte	39
 2604 0837 04       		.byte	4
 2605 0838 29       		.byte	41
 2606 0839 01       		.byte	1
 2607 083a 2B       		.byte	43
 2608 083b 02       		.byte	2
 2609 083c 35       		.byte	53
 2610 083d 1F       		.byte	31
 2611 083e 42       		.byte	66
 2612 083f 02       		.byte	2
 2613 0840 47       		.byte	71
 2614 0841 E0       		.byte	-32
 2615 0842 48       		.byte	72
 2616 0843 20       		.byte	32
 2617 0844 49       		.byte	73
 2618 0845 FF       		.byte	-1
 2619 0846 4A       		.byte	74
 2620 0847 FF       		.byte	-1
 2621 0848 4B       		.byte	75
 2622 0849 FF       		.byte	-1
 2623 084a 4F       		.byte	79
 2624 084b 83       		.byte	-125
 2625 084c 59       		.byte	89
 2626 084d 04       		.byte	4
 2627 084e 5A       		.byte	90
 2628 084f 04       		.byte	4
 2629 0850 5B       		.byte	91
 2630 0851 04       		.byte	4
 2631 0852 5C       		.byte	92
 2632 0853 20       		.byte	32
 2633 0854 5D       		.byte	93
 2634 0855 08       		.byte	8
 2635 0856 5F       		.byte	95
 2636 0857 21       		.byte	33
 2637 0858 81       		.byte	-127
 2638 0859 0A       		.byte	10
 2639 085a 82       		.byte	-126
 2640 085b 20       		.byte	32
 2641 085c 83       		.byte	-125
 2642 085d 01       		.byte	1
 2643 085e 84       		.byte	-124
 2644 085f 04       		.byte	4
 2645 0860 85       		.byte	-123
 2646 0861 10       		.byte	16
 2647 0862 86       		.byte	-122
 2648 0863 0A       		.byte	10
 2649 0864 88       		.byte	-120
 2650 0865 06       		.byte	6
ARM GAS  C:\Users\xavieran\AppData\Local\Temp\ccJfmadl.s 			page 84


 2651 0866 8A       		.byte	-118
 2652 0867 08       		.byte	8
 2653 0868 8B       		.byte	-117
 2654 0869 0B       		.byte	11
 2655 086a 8D       		.byte	-115
 2656 086b 01       		.byte	1
 2657 086c 8F       		.byte	-113
 2658 086d 04       		.byte	4
 2659 086e 90       		.byte	-112
 2660 086f 02       		.byte	2
 2661 0870 91       		.byte	-111
 2662 0871 01       		.byte	1
 2663 0872 92       		.byte	-110
 2664 0873 1C       		.byte	28
 2665 0874 93       		.byte	-109
 2666 0875 0A       		.byte	10
 2667 0876 95       		.byte	-107
 2668 0877 10       		.byte	16
 2669 0878 96       		.byte	-106
 2670 0879 01       		.byte	1
 2671 087a 99       		.byte	-103
 2672 087b 10       		.byte	16
 2673 087c 9D       		.byte	-99
 2674 087d 01       		.byte	1
 2675 087e 9F       		.byte	-97
 2676 087f 06       		.byte	6
 2677 0880 A0       		.byte	-96
 2678 0881 0E       		.byte	14
 2679 0882 A1       		.byte	-95
 2680 0883 10       		.byte	16
 2681 0884 A4       		.byte	-92
 2682 0885 0E       		.byte	14
 2683 0886 A5       		.byte	-91
 2684 0887 10       		.byte	16
 2685 0888 A8       		.byte	-88
 2686 0889 0C       		.byte	12
 2687 088a AA       		.byte	-86
 2688 088b 02       		.byte	2
 2689 088c AB       		.byte	-85
 2690 088d 0B       		.byte	11
 2691 088e AC       		.byte	-84
 2692 088f 02       		.byte	2
 2693 0890 AE       		.byte	-82
 2694 0891 10       		.byte	16
 2695 0892 AF       		.byte	-81
 2696 0893 0B       		.byte	11
 2697 0894 B0       		.byte	-80
 2698 0895 1E       		.byte	30
 2699 0896 B1       		.byte	-79
 2700 0897 07       		.byte	7
 2701 0898 B2       		.byte	-78
 2702 0899 01       		.byte	1
 2703 089a B4       		.byte	-76
 2704 089b 1E       		.byte	30
 2705 089c B5       		.byte	-75
 2706 089d 08       		.byte	8
 2707 089e B6       		.byte	-74
ARM GAS  C:\Users\xavieran\AppData\Local\Temp\ccJfmadl.s 			page 85


 2708 089f 20       		.byte	32
 2709 08a0 B7       		.byte	-73
 2710 08a1 10       		.byte	16
 2711 08a2 B9       		.byte	-71
 2712 08a3 80       		.byte	-128
 2713 08a4 BA       		.byte	-70
 2714 08a5 22       		.byte	34
 2715 08a6 BB       		.byte	-69
 2716 08a7 02       		.byte	2
 2717 08a8 BF       		.byte	-65
 2718 08a9 50       		.byte	80
 2719 08aa D8       		.byte	-40
 2720 08ab 04       		.byte	4
 2721 08ac D9       		.byte	-39
 2722 08ad 04       		.byte	4
 2723 08ae DC       		.byte	-36
 2724 08af 22       		.byte	34
 2725 08b0 DF       		.byte	-33
 2726 08b1 01       		.byte	1
 2727 08b2 04       		.byte	4
 2728 08b3 04       		.byte	4
 2729 08b4 05       		.byte	5
 2730 08b5 11       		.byte	17
 2731 08b6 0E       		.byte	14
 2732 08b7 90       		.byte	-112
 2733 08b8 13       		.byte	19
 2734 08b9 0C       		.byte	12
 2735 08ba 14       		.byte	20
 2736 08bb 24       		.byte	36
 2737 08bc 15       		.byte	21
 2738 08bd 62       		.byte	98
 2739 08be 1E       		.byte	30
 2740 08bf 89       		.byte	-119
 2741 08c0 1F       		.byte	31
 2742 08c1 04       		.byte	4
 2743 08c2 20       		.byte	32
 2744 08c3 04       		.byte	4
 2745 08c4 22       		.byte	34
 2746 08c5 10       		.byte	16
 2747 08c6 27       		.byte	39
 2748 08c7 8A       		.byte	-118
 2749 08c8 28       		.byte	40
 2750 08c9 60       		.byte	96
 2751 08ca 2A       		.byte	42
 2752 08cb 20       		.byte	32
 2753 08cc 2B       		.byte	43
 2754 08cd 10       		.byte	16
 2755 08ce 2C       		.byte	44
 2756 08cf 12       		.byte	18
 2757 08d0 2E       		.byte	46
 2758 08d1 02       		.byte	2
 2759 08d2 2F       		.byte	47
 2760 08d3 04       		.byte	4
 2761 08d4 30       		.byte	48
 2762 08d5 10       		.byte	16
 2763 08d6 31       		.byte	49
 2764 08d7 10       		.byte	16
ARM GAS  C:\Users\xavieran\AppData\Local\Temp\ccJfmadl.s 			page 86


 2765 08d8 32       		.byte	50
 2766 08d9 04       		.byte	4
 2767 08da 34       		.byte	52
 2768 08db 24       		.byte	36
 2769 08dc 35       		.byte	53
 2770 08dd 01       		.byte	1
 2771 08de 37       		.byte	55
 2772 08df 80       		.byte	-128
 2773 08e0 38       		.byte	56
 2774 08e1 04       		.byte	4
 2775 08e2 39       		.byte	57
 2776 08e3 42       		.byte	66
 2777 08e4 3A       		.byte	58
 2778 08e5 02       		.byte	2
 2779 08e6 3B       		.byte	59
 2780 08e7 12       		.byte	18
 2781 08e8 3C       		.byte	60
 2782 08e9 04       		.byte	4
 2783 08ea 3D       		.byte	61
 2784 08eb 40       		.byte	64
 2785 08ec 3E       		.byte	62
 2786 08ed 11       		.byte	17
 2787 08ee 42       		.byte	66
 2788 08ef 08       		.byte	8
 2789 08f0 46       		.byte	70
 2790 08f1 40       		.byte	64
 2791 08f2 47       		.byte	71
 2792 08f3 02       		.byte	2
 2793 08f4 52       		.byte	82
 2794 08f5 01       		.byte	1
 2795 08f6 5A       		.byte	90
 2796 08f7 40       		.byte	64
 2797 08f8 5B       		.byte	91
 2798 08f9 15       		.byte	21
 2799 08fa 60       		.byte	96
 2800 08fb 08       		.byte	8
 2801 08fc 62       		.byte	98
 2802 08fd 04       		.byte	4
 2803 08fe 63       		.byte	99
 2804 08ff 82       		.byte	-126
 2805 0900 7B       		.byte	123
 2806 0901 20       		.byte	32
 2807 0902 81       		.byte	-127
 2808 0903 40       		.byte	64
 2809 0904 82       		.byte	-126
 2810 0905 05       		.byte	5
 2811 0906 87       		.byte	-121
 2812 0907 01       		.byte	1
 2813 0908 8C       		.byte	-116
 2814 0909 08       		.byte	8
 2815 090a 8E       		.byte	-114
 2816 090b 40       		.byte	64
 2817 090c C0       		.byte	-64
 2818 090d 70       		.byte	112
 2819 090e C2       		.byte	-62
 2820 090f 30       		.byte	48
 2821 0910 C4       		.byte	-60
ARM GAS  C:\Users\xavieran\AppData\Local\Temp\ccJfmadl.s 			page 87


 2822 0911 F0       		.byte	-16
 2823 0912 CA       		.byte	-54
 2824 0913 F7       		.byte	-9
 2825 0914 CC       		.byte	-52
 2826 0915 F6       		.byte	-10
 2827 0916 CE       		.byte	-50
 2828 0917 FF       		.byte	-1
 2829 0918 D0       		.byte	-48
 2830 0919 04       		.byte	4
 2831 091a D6       		.byte	-42
 2832 091b 0F       		.byte	15
 2833 091c D8       		.byte	-40
 2834 091d 0F       		.byte	15
 2835 091e DE       		.byte	-34
 2836 091f 02       		.byte	2
 2837 0920 E2       		.byte	-30
 2838 0921 11       		.byte	17
 2839 0922 E4       		.byte	-28
 2840 0923 40       		.byte	64
 2841 0924 0A       		.byte	10
 2842 0925 02       		.byte	2
 2843 0926 0B       		.byte	11
 2844 0927 01       		.byte	1
 2845 0928 12       		.byte	18
 2846 0929 04       		.byte	4
 2847 092a 20       		.byte	32
 2848 092b 02       		.byte	2
 2849 092c 28       		.byte	40
 2850 092d 01       		.byte	1
 2851 092e 2B       		.byte	43
 2852 092f 01       		.byte	1
 2853 0930 31       		.byte	49
 2854 0931 01       		.byte	1
 2855 0932 32       		.byte	50
 2856 0933 04       		.byte	4
 2857 0934 34       		.byte	52
 2858 0935 02       		.byte	2
 2859 0936 36       		.byte	54
 2860 0937 01       		.byte	1
 2861 0938 3E       		.byte	62
 2862 0939 40       		.byte	64
 2863 093a 40       		.byte	64
 2864 093b 54       		.byte	84
 2865 093c 41       		.byte	65
 2866 093d 02       		.byte	2
 2867 093e 49       		.byte	73
 2868 093f FF       		.byte	-1
 2869 0940 4A       		.byte	74
 2870 0941 FF       		.byte	-1
 2871 0942 4B       		.byte	75
 2872 0943 FF       		.byte	-1
 2873 0944 4F       		.byte	79
 2874 0945 01       		.byte	1
 2875 0946 50       		.byte	80
 2876 0947 18       		.byte	24
 2877 0948 52       		.byte	82
 2878 0949 80       		.byte	-128
ARM GAS  C:\Users\xavieran\AppData\Local\Temp\ccJfmadl.s 			page 88


 2879 094a 58       		.byte	88
 2880 094b 04       		.byte	4
 2881 094c 59       		.byte	89
 2882 094d 04       		.byte	4
 2883 094e 5A       		.byte	90
 2884 094f 04       		.byte	4
 2885 0950 5B       		.byte	91
 2886 0951 04       		.byte	4
 2887 0952 5C       		.byte	92
 2888 0953 33       		.byte	51
 2889 0954 5D       		.byte	93
 2890 0955 33       		.byte	51
 2891 0956 5F       		.byte	95
 2892 0957 01       		.byte	1
 2893 0958 60       		.byte	96
 2894 0959 40       		.byte	64
 2895 095a 62       		.byte	98
 2896 095b 40       		.byte	64
 2897 095c 64       		.byte	100
 2898 095d 40       		.byte	64
 2899 095e 65       		.byte	101
 2900 095f 40       		.byte	64
 2901 0960 66       		.byte	102
 2902 0961 80       		.byte	-128
 2903 0962 68       		.byte	104
 2904 0963 80       		.byte	-128
 2905 0964 6A       		.byte	106
 2906 0965 80       		.byte	-128
 2907 0966 6C       		.byte	108
 2908 0967 80       		.byte	-128
 2909 0968 6E       		.byte	110
 2910 0969 80       		.byte	-128
 2911 096a C0       		.byte	-64
 2912 096b 34       		.byte	52
 2913 096c C1       		.byte	-63
 2914 096d 06       		.byte	6
 2915 096e C5       		.byte	-59
 2916 096f EC       		.byte	-20
 2917 0970 C6       		.byte	-58
 2918 0971 02       		.byte	2
 2919 0972 C8       		.byte	-56
 2920 0973 07       		.byte	7
 2921 0974 C9       		.byte	-55
 2922 0975 FF       		.byte	-1
 2923 0976 CA       		.byte	-54
 2924 0977 FF       		.byte	-1
 2925 0978 CB       		.byte	-53
 2926 0979 FF       		.byte	-1
 2927 097a CD       		.byte	-51
 2928 097b 83       		.byte	-125
 2929 097c CE       		.byte	-50
 2930 097d 03       		.byte	3
 2931 097e CF       		.byte	-49
 2932 097f 01       		.byte	1
 2933 0980 D0       		.byte	-48
 2934 0981 18       		.byte	24
 2935 0982 DA       		.byte	-38
ARM GAS  C:\Users\xavieran\AppData\Local\Temp\ccJfmadl.s 			page 89


 2936 0983 04       		.byte	4
 2937 0984 DD       		.byte	-35
 2938 0985 03       		.byte	3
 2939 0986 DF       		.byte	-33
 2940 0987 01       		.byte	1
 2941 0988 E0       		.byte	-32
 2942 0989 40       		.byte	64
 2943 098a E2       		.byte	-30
 2944 098b 40       		.byte	64
 2945 098c E4       		.byte	-28
 2946 098d 40       		.byte	64
 2947 098e E5       		.byte	-27
 2948 098f 40       		.byte	64
 2949 0990 E6       		.byte	-26
 2950 0991 80       		.byte	-128
 2951 0992 E8       		.byte	-24
 2952 0993 80       		.byte	-128
 2953 0994 EA       		.byte	-22
 2954 0995 80       		.byte	-128
 2955 0996 EC       		.byte	-20
 2956 0997 80       		.byte	-128
 2957 0998 EE       		.byte	-18
 2958 0999 80       		.byte	-128
 2959 099a 03       		.byte	3
 2960 099b 08       		.byte	8
 2961 099c 0A       		.byte	10
 2962 099d 40       		.byte	64
 2963 099e 10       		.byte	16
 2964 099f 80       		.byte	-128
 2965 09a0 12       		.byte	18
 2966 09a1 08       		.byte	8
 2967 09a2 18       		.byte	24
 2968 09a3 04       		.byte	4
 2969 09a4 19       		.byte	25
 2970 09a5 40       		.byte	64
 2971 09a6 1B       		.byte	27
 2972 09a7 18       		.byte	24
 2973 09a8 21       		.byte	33
 2974 09a9 02       		.byte	2
 2975 09aa 2B       		.byte	43
 2976 09ab 08       		.byte	8
 2977 09ac 38       		.byte	56
 2978 09ad 20       		.byte	32
 2979 09ae 40       		.byte	64
 2980 09af 04       		.byte	4
 2981 09b0 42       		.byte	66
 2982 09b1 80       		.byte	-128
 2983 09b2 43       		.byte	67
 2984 09b3 0C       		.byte	12
 2985 09b4 46       		.byte	70
 2986 09b5 80       		.byte	-128
 2987 09b6 47       		.byte	71
 2988 09b7 08       		.byte	8
 2989 09b8 49       		.byte	73
 2990 09b9 80       		.byte	-128
 2991 09ba 4F       		.byte	79
 2992 09bb 25       		.byte	37
ARM GAS  C:\Users\xavieran\AppData\Local\Temp\ccJfmadl.s 			page 90


 2993 09bc 56       		.byte	86
 2994 09bd 80       		.byte	-128
 2995 09be 72       		.byte	114
 2996 09bf 40       		.byte	64
 2997 09c0 81       		.byte	-127
 2998 09c1 80       		.byte	-128
 2999 09c2 83       		.byte	-125
 3000 09c3 08       		.byte	8
 3001 09c4 85       		.byte	-123
 3002 09c5 42       		.byte	66
 3003 09c6 8A       		.byte	-118
 3004 09c7 08       		.byte	8
 3005 09c8 8C       		.byte	-116
 3006 09c9 04       		.byte	4
 3007 09ca 90       		.byte	-112
 3008 09cb 20       		.byte	32
 3009 09cc 94       		.byte	-108
 3010 09cd 04       		.byte	4
 3011 09ce 97       		.byte	-105
 3012 09cf 05       		.byte	5
 3013 09d0 9D       		.byte	-99
 3014 09d1 80       		.byte	-128
 3015 09d2 9E       		.byte	-98
 3016 09d3 80       		.byte	-128
 3017 09d4 9F       		.byte	-97
 3018 09d5 04       		.byte	4
 3019 09d6 A0       		.byte	-96
 3020 09d7 80       		.byte	-128
 3021 09d8 C0       		.byte	-64
 3022 09d9 02       		.byte	2
 3023 09da C2       		.byte	-62
 3024 09db 08       		.byte	8
 3025 09dc C4       		.byte	-60
 3026 09dd 0A       		.byte	10
 3027 09de CA       		.byte	-54
 3028 09df 04       		.byte	4
 3029 09e0 CE       		.byte	-50
 3030 09e1 04       		.byte	4
 3031 09e2 D0       		.byte	-48
 3032 09e3 C5       		.byte	-59
 3033 09e4 D2       		.byte	-46
 3034 09e5 28       		.byte	40
 3035 09e6 E0       		.byte	-32
 3036 09e7 80       		.byte	-128
 3037 09e8 E6       		.byte	-26
 3038 09e9 40       		.byte	64
 3039 09ea EA       		.byte	-22
 3040 09eb 01       		.byte	1
 3041 09ec 02       		.byte	2
 3042 09ed 01       		.byte	1
 3043 09ee 0E       		.byte	14
 3044 09ef 01       		.byte	1
 3045 09f0 30       		.byte	48
 3046 09f1 01       		.byte	1
 3047 09f2 3E       		.byte	62
 3048 09f3 01       		.byte	1
 3049 09f4 40       		.byte	64
ARM GAS  C:\Users\xavieran\AppData\Local\Temp\ccJfmadl.s 			page 91


 3050 09f5 30       		.byte	48
 3051 09f6 41       		.byte	65
 3052 09f7 06       		.byte	6
 3053 09f8 49       		.byte	73
 3054 09f9 FF       		.byte	-1
 3055 09fa 4A       		.byte	74
 3056 09fb FF       		.byte	-1
 3057 09fc 4B       		.byte	75
 3058 09fd FF       		.byte	-1
 3059 09fe 4D       		.byte	77
 3060 09ff A0       		.byte	-96
 3061 0a00 4F       		.byte	79
 3062 0a01 04       		.byte	4
 3063 0a02 50       		.byte	80
 3064 0a03 18       		.byte	24
 3065 0a04 54       		.byte	84
 3066 0a05 01       		.byte	1
 3067 0a06 58       		.byte	88
 3068 0a07 04       		.byte	4
 3069 0a08 5A       		.byte	90
 3070 0a09 04       		.byte	4
 3071 0a0a 5B       		.byte	91
 3072 0a0b 04       		.byte	4
 3073 0a0c 5D       		.byte	93
 3074 0a0d 33       		.byte	51
 3075 0a0e 5F       		.byte	95
 3076 0a0f 05       		.byte	5
 3077 0a10 60       		.byte	96
 3078 0a11 40       		.byte	64
 3079 0a12 62       		.byte	98
 3080 0a13 C0       		.byte	-64
 3081 0a14 64       		.byte	100
 3082 0a15 40       		.byte	64
 3083 0a16 65       		.byte	101
 3084 0a17 40       		.byte	64
 3085 0a18 66       		.byte	102
 3086 0a19 C0       		.byte	-64
 3087 0a1a 68       		.byte	104
 3088 0a1b C0       		.byte	-64
 3089 0a1c 6A       		.byte	106
 3090 0a1d C0       		.byte	-64
 3091 0a1e 6C       		.byte	108
 3092 0a1f C0       		.byte	-64
 3093 0a20 6E       		.byte	110
 3094 0a21 C0       		.byte	-64
 3095 0a22 8A       		.byte	-118
 3096 0a23 04       		.byte	4
 3097 0a24 8B       		.byte	-117
 3098 0a25 01       		.byte	1
 3099 0a26 94       		.byte	-108
 3100 0a27 01       		.byte	1
 3101 0a28 9D       		.byte	-99
 3102 0a29 02       		.byte	2
 3103 0a2a A0       		.byte	-96
 3104 0a2b 02       		.byte	2
 3105 0a2c A1       		.byte	-95
 3106 0a2d 02       		.byte	2
ARM GAS  C:\Users\xavieran\AppData\Local\Temp\ccJfmadl.s 			page 92


 3107 0a2e A6       		.byte	-90
 3108 0a2f 01       		.byte	1
 3109 0a30 AA       		.byte	-86
 3110 0a31 04       		.byte	4
 3111 0a32 B0       		.byte	-80
 3112 0a33 02       		.byte	2
 3113 0a34 B1       		.byte	-79
 3114 0a35 02       		.byte	2
 3115 0a36 B2       		.byte	-78
 3116 0a37 04       		.byte	4
 3117 0a38 B3       		.byte	-77
 3118 0a39 01       		.byte	1
 3119 0a3a B4       		.byte	-76
 3120 0a3b 01       		.byte	1
 3121 0a3c BE       		.byte	-66
 3122 0a3d 04       		.byte	4
 3123 0a3e C0       		.byte	-64
 3124 0a3f 30       		.byte	48
 3125 0a40 C1       		.byte	-63
 3126 0a41 06       		.byte	6
 3127 0a42 C5       		.byte	-59
 3128 0a43 D0       		.byte	-48
 3129 0a44 C6       		.byte	-58
 3130 0a45 51       		.byte	81
 3131 0a46 C7       		.byte	-57
 3132 0a47 02       		.byte	2
 3133 0a48 C8       		.byte	-56
 3134 0a49 1E       		.byte	30
 3135 0a4a C9       		.byte	-55
 3136 0a4b FF       		.byte	-1
 3137 0a4c CA       		.byte	-54
 3138 0a4d FF       		.byte	-1
 3139 0a4e CB       		.byte	-53
 3140 0a4f FF       		.byte	-1
 3141 0a50 CD       		.byte	-51
 3142 0a51 AF       		.byte	-81
 3143 0a52 CE       		.byte	-50
 3144 0a53 0F       		.byte	15
 3145 0a54 CF       		.byte	-49
 3146 0a55 04       		.byte	4
 3147 0a56 D0       		.byte	-48
 3148 0a57 18       		.byte	24
 3149 0a58 D4       		.byte	-44
 3150 0a59 07       		.byte	7
 3151 0a5a D8       		.byte	-40
 3152 0a5b 04       		.byte	4
 3153 0a5c D9       		.byte	-39
 3154 0a5d 04       		.byte	4
 3155 0a5e DA       		.byte	-38
 3156 0a5f 04       		.byte	4
 3157 0a60 DB       		.byte	-37
 3158 0a61 04       		.byte	4
 3159 0a62 DC       		.byte	-36
 3160 0a63 33       		.byte	51
 3161 0a64 DD       		.byte	-35
 3162 0a65 33       		.byte	51
 3163 0a66 DF       		.byte	-33
ARM GAS  C:\Users\xavieran\AppData\Local\Temp\ccJfmadl.s 			page 93


 3164 0a67 01       		.byte	1
 3165 0a68 E0       		.byte	-32
 3166 0a69 40       		.byte	64
 3167 0a6a E2       		.byte	-30
 3168 0a6b C0       		.byte	-64
 3169 0a6c E4       		.byte	-28
 3170 0a6d 40       		.byte	64
 3171 0a6e E5       		.byte	-27
 3172 0a6f 40       		.byte	64
 3173 0a70 E6       		.byte	-26
 3174 0a71 C0       		.byte	-64
 3175 0a72 E8       		.byte	-24
 3176 0a73 C0       		.byte	-64
 3177 0a74 EA       		.byte	-22
 3178 0a75 C0       		.byte	-64
 3179 0a76 EC       		.byte	-20
 3180 0a77 C0       		.byte	-64
 3181 0a78 EE       		.byte	-18
 3182 0a79 C0       		.byte	-64
 3183 0a7a 03       		.byte	3
 3184 0a7b 04       		.byte	4
 3185 0a7c 05       		.byte	5
 3186 0a7d 80       		.byte	-128
 3187 0a7e 06       		.byte	6
 3188 0a7f 80       		.byte	-128
 3189 0a80 09       		.byte	9
 3190 0a81 08       		.byte	8
 3191 0a82 10       		.byte	16
 3192 0a83 A0       		.byte	-96
 3193 0a84 12       		.byte	18
 3194 0a85 08       		.byte	8
 3195 0a86 19       		.byte	25
 3196 0a87 16       		.byte	22
 3197 0a88 1E       		.byte	30
 3198 0a89 80       		.byte	-128
 3199 0a8a 21       		.byte	33
 3200 0a8b 08       		.byte	8
 3201 0a8c 23       		.byte	35
 3202 0a8d 80       		.byte	-128
 3203 0a8e 29       		.byte	41
 3204 0a8f 02       		.byte	2
 3205 0a90 30       		.byte	48
 3206 0a91 80       		.byte	-128
 3207 0a92 38       		.byte	56
 3208 0a93 20       		.byte	32
 3209 0a94 43       		.byte	67
 3210 0a95 04       		.byte	4
 3211 0a96 47       		.byte	71
 3212 0a97 04       		.byte	4
 3213 0a98 49       		.byte	73
 3214 0a99 01       		.byte	1
 3215 0a9a 4A       		.byte	74
 3216 0a9b 08       		.byte	8
 3217 0a9c 4E       		.byte	78
 3218 0a9d 08       		.byte	8
 3219 0a9e 50       		.byte	80
 3220 0a9f B0       		.byte	-80
ARM GAS  C:\Users\xavieran\AppData\Local\Temp\ccJfmadl.s 			page 94


 3221 0aa0 52       		.byte	82
 3222 0aa1 08       		.byte	8
 3223 0aa2 59       		.byte	89
 3224 0aa3 15       		.byte	21
 3225 0aa4 5B       		.byte	91
 3226 0aa5 80       		.byte	-128
 3227 0aa6 5E       		.byte	94
 3228 0aa7 80       		.byte	-128
 3229 0aa8 5F       		.byte	95
 3230 0aa9 05       		.byte	5
 3231 0aaa 7C       		.byte	124
 3232 0aab 04       		.byte	4
 3233 0aac B0       		.byte	-80
 3234 0aad 10       		.byte	16
 3235 0aae C0       		.byte	-64
 3236 0aaf 92       		.byte	-110
 3237 0ab0 C2       		.byte	-62
 3238 0ab1 04       		.byte	4
 3239 0ab2 C4       		.byte	-60
 3240 0ab3 0E       		.byte	14
 3241 0ab4 CA       		.byte	-54
 3242 0ab5 01       		.byte	1
 3243 0ab6 CC       		.byte	-52
 3244 0ab7 08       		.byte	8
 3245 0ab8 CE       		.byte	-50
 3246 0ab9 04       		.byte	4
 3247 0aba D0       		.byte	-48
 3248 0abb 42       		.byte	66
 3249 0abc D2       		.byte	-46
 3250 0abd 24       		.byte	36
 3251 0abe D6       		.byte	-42
 3252 0abf DF       		.byte	-33
 3253 0ac0 DE       		.byte	-34
 3254 0ac1 40       		.byte	64
 3255 0ac2 E4       		.byte	-28
 3256 0ac3 80       		.byte	-128
 3257 0ac4 E8       		.byte	-24
 3258 0ac5 14       		.byte	20
 3259 0ac6 EA       		.byte	-22
 3260 0ac7 01       		.byte	1
 3261 0ac8 EC       		.byte	-20
 3262 0ac9 20       		.byte	32
 3263 0aca 81       		.byte	-127
 3264 0acb 04       		.byte	4
 3265 0acc 8E       		.byte	-114
 3266 0acd 40       		.byte	64
 3267 0ace 92       		.byte	-110
 3268 0acf 40       		.byte	64
 3269 0ad0 9C       		.byte	-100
 3270 0ad1 80       		.byte	-128
 3271 0ad2 9D       		.byte	-99
 3272 0ad3 08       		.byte	8
 3273 0ad4 A1       		.byte	-95
 3274 0ad5 04       		.byte	4
 3275 0ad6 A4       		.byte	-92
 3276 0ad7 04       		.byte	4
 3277 0ad8 A8       		.byte	-88
ARM GAS  C:\Users\xavieran\AppData\Local\Temp\ccJfmadl.s 			page 95


 3278 0ad9 40       		.byte	64
 3279 0ada B0       		.byte	-80
 3280 0adb 01       		.byte	1
 3281 0adc B1       		.byte	-79
 3282 0add 20       		.byte	32
 3283 0ade B3       		.byte	-77
 3284 0adf 02       		.byte	2
 3285 0ae0 E0       		.byte	-32
 3286 0ae1 04       		.byte	4
 3287 0ae2 E4       		.byte	-28
 3288 0ae3 80       		.byte	-128
 3289 0ae4 E8       		.byte	-24
 3290 0ae5 14       		.byte	20
 3291 0ae6 EC       		.byte	-20
 3292 0ae7 A0       		.byte	-96
 3293 0ae8 88       		.byte	-120
 3294 0ae9 04       		.byte	4
 3295 0aea A4       		.byte	-92
 3296 0aeb 04       		.byte	4
 3297 0aec B0       		.byte	-80
 3298 0aed 80       		.byte	-128
 3299 0aee B5       		.byte	-75
 3300 0aef 08       		.byte	8
 3301 0af0 E0       		.byte	-32
 3302 0af1 80       		.byte	-128
 3303 0af2 E6       		.byte	-26
 3304 0af3 80       		.byte	-128
 3305 0af4 EA       		.byte	-22
 3306 0af5 01       		.byte	1
 3307 0af6 0A       		.byte	10
 3308 0af7 14       		.byte	20
 3309 0af8 0C       		.byte	12
 3310 0af9 80       		.byte	-128
 3311 0afa 0E       		.byte	14
 3312 0afb 40       		.byte	64
 3313 0afc 30       		.byte	48
 3314 0afd 42       		.byte	66
 3315 0afe 34       		.byte	52
 3316 0aff 02       		.byte	2
 3317 0b00 37       		.byte	55
 3318 0b01 80       		.byte	-128
 3319 0b02 3F       		.byte	63
 3320 0b03 80       		.byte	-128
 3321 0b04 56       		.byte	86
 3322 0b05 20       		.byte	32
 3323 0b06 5F       		.byte	95
 3324 0b07 20       		.byte	32
 3325 0b08 83       		.byte	-125
 3326 0b09 60       		.byte	96
 3327 0b0a 86       		.byte	-122
 3328 0b0b 24       		.byte	36
 3329 0b0c 8C       		.byte	-116
 3330 0b0d 82       		.byte	-126
 3331 0b0e C2       		.byte	-62
 3332 0b0f F0       		.byte	-16
 3333 0b10 CC       		.byte	-52
 3334 0b11 F0       		.byte	-16
ARM GAS  C:\Users\xavieran\AppData\Local\Temp\ccJfmadl.s 			page 96


 3335 0b12 CE       		.byte	-50
 3336 0b13 20       		.byte	32
 3337 0b14 D4       		.byte	-44
 3338 0b15 40       		.byte	64
 3339 0b16 D6       		.byte	-42
 3340 0b17 20       		.byte	32
 3341 0b18 E0       		.byte	-32
 3342 0b19 40       		.byte	64
 3343 0b1a E2       		.byte	-30
 3344 0b1b B0       		.byte	-80
 3345 0b1c 31       		.byte	49
 3346 0b1d 02       		.byte	2
 3347 0b1e 33       		.byte	51
 3348 0b1f 10       		.byte	16
 3349 0b20 35       		.byte	53
 3350 0b21 20       		.byte	32
 3351 0b22 36       		.byte	54
 3352 0b23 08       		.byte	8
 3353 0b24 58       		.byte	88
 3354 0b25 04       		.byte	4
 3355 0b26 63       		.byte	99
 3356 0b27 20       		.byte	32
 3357 0b28 65       		.byte	101
 3358 0b29 01       		.byte	1
 3359 0b2a 67       		.byte	103
 3360 0b2b 02       		.byte	2
 3361 0b2c 81       		.byte	-127
 3362 0b2d 80       		.byte	-128
 3363 0b2e 82       		.byte	-126
 3364 0b2f 08       		.byte	8
 3365 0b30 9C       		.byte	-100
 3366 0b31 40       		.byte	64
 3367 0b32 9F       		.byte	-97
 3368 0b33 80       		.byte	-128
 3369 0b34 A4       		.byte	-92
 3370 0b35 02       		.byte	2
 3371 0b36 AA       		.byte	-86
 3372 0b37 50       		.byte	80
 3373 0b38 CC       		.byte	-52
 3374 0b39 F0       		.byte	-16
 3375 0b3a D6       		.byte	-42
 3376 0b3b C0       		.byte	-64
 3377 0b3c D8       		.byte	-40
 3378 0b3d C0       		.byte	-64
 3379 0b3e E2       		.byte	-30
 3380 0b3f 20       		.byte	32
 3381 0b40 E6       		.byte	-26
 3382 0b41 80       		.byte	-128
 3383 0b42 E8       		.byte	-24
 3384 0b43 A0       		.byte	-96
 3385 0b44 10       		.byte	16
 3386 0b45 20       		.byte	32
 3387 0b46 3E       		.byte	62
 3388 0b47 10       		.byte	16
 3389 0b48 51       		.byte	81
 3390 0b49 80       		.byte	-128
 3391 0b4a 58       		.byte	88
ARM GAS  C:\Users\xavieran\AppData\Local\Temp\ccJfmadl.s 			page 97


 3392 0b4b 04       		.byte	4
 3393 0b4c 5D       		.byte	93
 3394 0b4d 01       		.byte	1
 3395 0b4e 62       		.byte	98
 3396 0b4f 08       		.byte	8
 3397 0b50 64       		.byte	100
 3398 0b51 04       		.byte	4
 3399 0b52 97       		.byte	-105
 3400 0b53 02       		.byte	2
 3401 0b54 9C       		.byte	-100
 3402 0b55 40       		.byte	64
 3403 0b56 9F       		.byte	-97
 3404 0b57 90       		.byte	-112
 3405 0b58 A1       		.byte	-95
 3406 0b59 80       		.byte	-128
 3407 0b5a A5       		.byte	-91
 3408 0b5b 02       		.byte	2
 3409 0b5c A8       		.byte	-88
 3410 0b5d 02       		.byte	2
 3411 0b5e AB       		.byte	-85
 3412 0b5f 10       		.byte	16
 3413 0b60 AD       		.byte	-83
 3414 0b61 20       		.byte	32
 3415 0b62 B0       		.byte	-80
 3416 0b63 04       		.byte	4
 3417 0b64 B5       		.byte	-75
 3418 0b65 01       		.byte	1
 3419 0b66 C4       		.byte	-60
 3420 0b67 10       		.byte	16
 3421 0b68 CE       		.byte	-50
 3422 0b69 20       		.byte	32
 3423 0b6a D4       		.byte	-44
 3424 0b6b 20       		.byte	32
 3425 0b6c D6       		.byte	-42
 3426 0b6d C0       		.byte	-64
 3427 0b6e D8       		.byte	-40
 3428 0b6f C0       		.byte	-64
 3429 0b70 EA       		.byte	-22
 3430 0b71 20       		.byte	32
 3431 0b72 EE       		.byte	-18
 3432 0b73 C0       		.byte	-64
 3433 0b74 18       		.byte	24
 3434 0b75 10       		.byte	16
 3435 0b76 1B       		.byte	27
 3436 0b77 40       		.byte	64
 3437 0b78 1F       		.byte	31
 3438 0b79 81       		.byte	-127
 3439 0b7a 83       		.byte	-125
 3440 0b7b 10       		.byte	16
 3441 0b7c 84       		.byte	-124
 3442 0b7d 10       		.byte	16
 3443 0b7e 96       		.byte	-106
 3444 0b7f 10       		.byte	16
 3445 0b80 97       		.byte	-105
 3446 0b81 02       		.byte	2
 3447 0b82 9C       		.byte	-100
 3448 0b83 40       		.byte	64
ARM GAS  C:\Users\xavieran\AppData\Local\Temp\ccJfmadl.s 			page 98


 3449 0b84 9F       		.byte	-97
 3450 0b85 90       		.byte	-112
 3451 0b86 A0       		.byte	-96
 3452 0b87 20       		.byte	32
 3453 0b88 A5       		.byte	-91
 3454 0b89 02       		.byte	2
 3455 0b8a AC       		.byte	-84
 3456 0b8b 04       		.byte	4
 3457 0b8c AD       		.byte	-83
 3458 0b8d 01       		.byte	1
 3459 0b8e AE       		.byte	-82
 3460 0b8f 08       		.byte	8
 3461 0b90 C6       		.byte	-58
 3462 0b91 F0       		.byte	-16
 3463 0b92 E2       		.byte	-30
 3464 0b93 20       		.byte	32
 3465 0b94 E6       		.byte	-26
 3466 0b95 40       		.byte	64
 3467 0b96 EA       		.byte	-22
 3468 0b97 10       		.byte	16
 3469 0b98 00       		.byte	0
 3470 0b99 02       		.byte	2
 3471 0b9a 01       		.byte	1
 3472 0b9b 40       		.byte	64
 3473 0b9c 04       		.byte	4
 3474 0b9d 02       		.byte	2
 3475 0b9e 07       		.byte	7
 3476 0b9f 04       		.byte	4
 3477 0ba0 08       		.byte	8
 3478 0ba1 08       		.byte	8
 3479 0ba2 60       		.byte	96
 3480 0ba3 80       		.byte	-128
 3481 0ba4 83       		.byte	-125
 3482 0ba5 04       		.byte	4
 3483 0ba6 8D       		.byte	-115
 3484 0ba7 41       		.byte	65
 3485 0ba8 C0       		.byte	-64
 3486 0ba9 0F       		.byte	15
 3487 0baa C2       		.byte	-62
 3488 0bab 08       		.byte	8
 3489 0bac D8       		.byte	-40
 3490 0bad 02       		.byte	2
 3491 0bae E2       		.byte	-30
 3492 0baf 0A       		.byte	10
 3493 0bb0 02       		.byte	2
 3494 0bb1 20       		.byte	32
 3495 0bb2 05       		.byte	5
 3496 0bb3 80       		.byte	-128
 3497 0bb4 0D       		.byte	13
 3498 0bb5 01       		.byte	1
 3499 0bb6 54       		.byte	84
 3500 0bb7 20       		.byte	32
 3501 0bb8 5D       		.byte	93
 3502 0bb9 01       		.byte	1
 3503 0bba 8F       		.byte	-113
 3504 0bbb 10       		.byte	16
 3505 0bbc 9C       		.byte	-100
ARM GAS  C:\Users\xavieran\AppData\Local\Temp\ccJfmadl.s 			page 99


 3506 0bbd 80       		.byte	-128
 3507 0bbe A5       		.byte	-91
 3508 0bbf 01       		.byte	1
 3509 0bc0 A8       		.byte	-88
 3510 0bc1 01       		.byte	1
 3511 0bc2 AC       		.byte	-84
 3512 0bc3 01       		.byte	1
 3513 0bc4 B4       		.byte	-76
 3514 0bc5 08       		.byte	8
 3515 0bc6 C0       		.byte	-64
 3516 0bc7 09       		.byte	9
 3517 0bc8 C2       		.byte	-62
 3518 0bc9 04       		.byte	4
 3519 0bca D4       		.byte	-44
 3520 0bcb 02       		.byte	2
 3521 0bcc D6       		.byte	-42
 3522 0bcd 01       		.byte	1
 3523 0bce E6       		.byte	-26
 3524 0bcf 02       		.byte	2
 3525 0bd0 EA       		.byte	-22
 3526 0bd1 02       		.byte	2
 3527 0bd2 07       		.byte	7
 3528 0bd3 10       		.byte	16
 3529 0bd4 91       		.byte	-111
 3530 0bd5 0A       		.byte	10
 3531 0bd6 95       		.byte	-107
 3532 0bd7 01       		.byte	1
 3533 0bd8 96       		.byte	-106
 3534 0bd9 02       		.byte	2
 3535 0bda 9C       		.byte	-100
 3536 0bdb 80       		.byte	-128
 3537 0bdc 9F       		.byte	-97
 3538 0bdd 10       		.byte	16
 3539 0bde A4       		.byte	-92
 3540 0bdf 20       		.byte	32
 3541 0be0 A5       		.byte	-91
 3542 0be1 01       		.byte	1
 3543 0be2 AA       		.byte	-86
 3544 0be3 20       		.byte	32
 3545 0be4 AE       		.byte	-82
 3546 0be5 01       		.byte	1
 3547 0be6 B1       		.byte	-79
 3548 0be7 84       		.byte	-124
 3549 0be8 C0       		.byte	-64
 3550 0be9 04       		.byte	4
 3551 0bea 09       		.byte	9
 3552 0beb 01       		.byte	1
 3553 0bec 0A       		.byte	10
 3554 0bed 02       		.byte	2
 3555 0bee 0F       		.byte	15
 3556 0bef 80       		.byte	-128
 3557 0bf0 83       		.byte	-125
 3558 0bf1 40       		.byte	64
 3559 0bf2 91       		.byte	-111
 3560 0bf3 08       		.byte	8
 3561 0bf4 93       		.byte	-109
 3562 0bf5 20       		.byte	32
ARM GAS  C:\Users\xavieran\AppData\Local\Temp\ccJfmadl.s 			page 100


 3563 0bf6 95       		.byte	-107
 3564 0bf7 01       		.byte	1
 3565 0bf8 96       		.byte	-106
 3566 0bf9 02       		.byte	2
 3567 0bfa 9C       		.byte	-100
 3568 0bfb 80       		.byte	-128
 3569 0bfc A4       		.byte	-92
 3570 0bfd 20       		.byte	32
 3571 0bfe A5       		.byte	-91
 3572 0bff 01       		.byte	1
 3573 0c00 AD       		.byte	-83
 3574 0c01 01       		.byte	1
 3575 0c02 AF       		.byte	-81
 3576 0c03 10       		.byte	16
 3577 0c04 C2       		.byte	-62
 3578 0c05 0E       		.byte	14
 3579 0c06 25       		.byte	37
 3580 0c07 20       		.byte	32
 3581 0c08 58       		.byte	88
 3582 0c09 10       		.byte	16
 3583 0c0a 89       		.byte	-119
 3584 0c0b 20       		.byte	32
 3585 0c0c 96       		.byte	-106
 3586 0c0d 10       		.byte	16
 3587 0c0e 98       		.byte	-104
 3588 0c0f 10       		.byte	16
 3589 0c10 9C       		.byte	-100
 3590 0c11 40       		.byte	64
 3591 0c12 9F       		.byte	-97
 3592 0c13 80       		.byte	-128
 3593 0c14 A3       		.byte	-93
 3594 0c15 80       		.byte	-128
 3595 0c16 A9       		.byte	-87
 3596 0c17 02       		.byte	2
 3597 0c18 AB       		.byte	-85
 3598 0c19 40       		.byte	64
 3599 0c1a B0       		.byte	-80
 3600 0c1b 20       		.byte	32
 3601 0c1c B4       		.byte	-76
 3602 0c1d 10       		.byte	16
 3603 0c1e C8       		.byte	-56
 3604 0c1f 20       		.byte	32
 3605 0c20 D4       		.byte	-44
 3606 0c21 80       		.byte	-128
 3607 0c22 E8       		.byte	-24
 3608 0c23 20       		.byte	32
 3609 0c24 EA       		.byte	-22
 3610 0c25 80       		.byte	-128
 3611 0c26 03       		.byte	3
 3612 0c27 02       		.byte	2
 3613 0c28 21       		.byte	33
 3614 0c29 40       		.byte	64
 3615 0c2a 50       		.byte	80
 3616 0c2b 02       		.byte	2
 3617 0c2c 79       		.byte	121
 3618 0c2d 80       		.byte	-128
 3619 0c2e 83       		.byte	-125
ARM GAS  C:\Users\xavieran\AppData\Local\Temp\ccJfmadl.s 			page 101


 3620 0c2f 02       		.byte	2
 3621 0c30 84       		.byte	-124
 3622 0c31 40       		.byte	64
 3623 0c32 87       		.byte	-121
 3624 0c33 80       		.byte	-128
 3625 0c34 8B       		.byte	-117
 3626 0c35 80       		.byte	-128
 3627 0c36 8C       		.byte	-116
 3628 0c37 02       		.byte	2
 3629 0c38 9C       		.byte	-100
 3630 0c39 40       		.byte	64
 3631 0c3a 9F       		.byte	-97
 3632 0c3b 80       		.byte	-128
 3633 0c3c A3       		.byte	-93
 3634 0c3d 80       		.byte	-128
 3635 0c3e AA       		.byte	-86
 3636 0c3f 10       		.byte	16
 3637 0c40 C0       		.byte	-64
 3638 0c41 40       		.byte	64
 3639 0c42 C8       		.byte	-56
 3640 0c43 10       		.byte	16
 3641 0c44 D4       		.byte	-44
 3642 0c45 80       		.byte	-128
 3643 0c46 DC       		.byte	-36
 3644 0c47 80       		.byte	-128
 3645 0c48 E0       		.byte	-32
 3646 0c49 20       		.byte	32
 3647 0c4a E2       		.byte	-30
 3648 0c4b 40       		.byte	64
 3649 0c4c E6       		.byte	-26
 3650 0c4d 10       		.byte	16
 3651 0c4e EA       		.byte	-22
 3652 0c4f 80       		.byte	-128
 3653 0c50 0B       		.byte	11
 3654 0c51 02       		.byte	2
 3655 0c52 0C       		.byte	12
 3656 0c53 10       		.byte	16
 3657 0c54 10       		.byte	16
 3658 0c55 20       		.byte	32
 3659 0c56 13       		.byte	19
 3660 0c57 20       		.byte	32
 3661 0c58 15       		.byte	21
 3662 0c59 01       		.byte	1
 3663 0c5a 65       		.byte	101
 3664 0c5b 81       		.byte	-127
 3665 0c5c 72       		.byte	114
 3666 0c5d 20       		.byte	32
 3667 0c5e 79       		.byte	121
 3668 0c5f 08       		.byte	8
 3669 0c60 7F       		.byte	127
 3670 0c61 10       		.byte	16
 3671 0c62 81       		.byte	-127
 3672 0c63 01       		.byte	1
 3673 0c64 8A       		.byte	-118
 3674 0c65 20       		.byte	32
 3675 0c66 8D       		.byte	-115
 3676 0c67 80       		.byte	-128
ARM GAS  C:\Users\xavieran\AppData\Local\Temp\ccJfmadl.s 			page 102


 3677 0c68 91       		.byte	-111
 3678 0c69 08       		.byte	8
 3679 0c6a 93       		.byte	-109
 3680 0c6b 20       		.byte	32
 3681 0c6c 95       		.byte	-107
 3682 0c6d 01       		.byte	1
 3683 0c6e 98       		.byte	-104
 3684 0c6f 80       		.byte	-128
 3685 0c70 9B       		.byte	-101
 3686 0c71 10       		.byte	16
 3687 0c72 A4       		.byte	-92
 3688 0c73 20       		.byte	32
 3689 0c74 AB       		.byte	-85
 3690 0c75 10       		.byte	16
 3691 0c76 B4       		.byte	-76
 3692 0c77 80       		.byte	-128
 3693 0c78 C2       		.byte	-62
 3694 0c79 03       		.byte	3
 3695 0c7a C4       		.byte	-60
 3696 0c7b 0E       		.byte	14
 3697 0c7c D6       		.byte	-42
 3698 0c7d 01       		.byte	1
 3699 0c7e D8       		.byte	-40
 3700 0c7f 01       		.byte	1
 3701 0c80 DC       		.byte	-36
 3702 0c81 01       		.byte	1
 3703 0c82 DE       		.byte	-34
 3704 0c83 03       		.byte	3
 3705 0c84 E4       		.byte	-28
 3706 0c85 03       		.byte	3
 3707 0c86 E8       		.byte	-24
 3708 0c87 08       		.byte	8
 3709 0c88 0C       		.byte	12
 3710 0c89 10       		.byte	16
 3711 0c8a 12       		.byte	18
 3712 0c8b 40       		.byte	64
 3713 0c8c 57       		.byte	87
 3714 0c8d 20       		.byte	32
 3715 0c8e 60       		.byte	96
 3716 0c8f 80       		.byte	-128
 3717 0c90 77       		.byte	119
 3718 0c91 10       		.byte	16
 3719 0c92 88       		.byte	-120
 3720 0c93 10       		.byte	16
 3721 0c94 8A       		.byte	-118
 3722 0c95 40       		.byte	64
 3723 0c96 8B       		.byte	-117
 3724 0c97 20       		.byte	32
 3725 0c98 98       		.byte	-104
 3726 0c99 80       		.byte	-128
 3727 0c9a 9B       		.byte	-101
 3728 0c9b 10       		.byte	16
 3729 0c9c AB       		.byte	-85
 3730 0c9d 20       		.byte	32
 3731 0c9e B0       		.byte	-80
 3732 0c9f 10       		.byte	16
 3733 0ca0 B7       		.byte	-73
ARM GAS  C:\Users\xavieran\AppData\Local\Temp\ccJfmadl.s 			page 103


 3734 0ca1 01       		.byte	1
 3735 0ca2 C2       		.byte	-62
 3736 0ca3 01       		.byte	1
 3737 0ca4 C4       		.byte	-60
 3738 0ca5 08       		.byte	8
 3739 0ca6 D4       		.byte	-44
 3740 0ca7 02       		.byte	2
 3741 0ca8 D8       		.byte	-40
 3742 0ca9 02       		.byte	2
 3743 0caa DE       		.byte	-34
 3744 0cab 04       		.byte	4
 3745 0cac E0       		.byte	-32
 3746 0cad 01       		.byte	1
 3747 0cae E2       		.byte	-30
 3748 0caf 04       		.byte	4
 3749 0cb0 E6       		.byte	-26
 3750 0cb1 01       		.byte	1
 3751 0cb2 EA       		.byte	-22
 3752 0cb3 06       		.byte	6
 3753 0cb4 00       		.byte	0
 3754 0cb5 34       		.byte	52
 3755 0cb6 08       		.byte	8
 3756 0cb7 10       		.byte	16
 3757 0cb8 0A       		.byte	10
 3758 0cb9 24       		.byte	36
 3759 0cba 0C       		.byte	12
 3760 0cbb 04       		.byte	4
 3761 0cbc 0E       		.byte	14
 3762 0cbd 04       		.byte	4
 3763 0cbe 10       		.byte	16
 3764 0cbf 08       		.byte	8
 3765 0cc0 1A       		.byte	26
 3766 0cc1 08       		.byte	8
 3767 0cc2 10       		.byte	16
 3768 0cc3 01       		.byte	1
 3769              		.type	BS_IOPINS0_0_VAL.4879, %object
 3770              		.size	BS_IOPINS0_0_VAL.4879, 10
 3771              	BS_IOPINS0_0_VAL.4879:
 3772 0cc4 03       		.byte	3
 3773 0cc5 00       		.byte	0
 3774 0cc6 00       		.byte	0
 3775 0cc7 F4       		.byte	-12
 3776 0cc8 F7       		.byte	-9
 3777 0cc9 00       		.byte	0
 3778 0cca F0       		.byte	-16
 3779 0ccb 00       		.byte	0
 3780 0ccc 00       		.byte	0
 3781 0ccd 00       		.byte	0
 3782 0cce 0000     		.space	2
 3783              		.type	BS_IOPINS0_7_VAL.4880, %object
 3784              		.size	BS_IOPINS0_7_VAL.4880, 10
 3785              	BS_IOPINS0_7_VAL.4880:
 3786 0cd0 03       		.byte	3
 3787 0cd1 00       		.byte	0
 3788 0cd2 C0       		.byte	-64
 3789 0cd3 2C       		.byte	44
 3790 0cd4 AF       		.byte	-81
ARM GAS  C:\Users\xavieran\AppData\Local\Temp\ccJfmadl.s 			page 104


 3791 0cd5 00       		.byte	0
 3792 0cd6 2C       		.byte	44
 3793 0cd7 00       		.byte	0
 3794 0cd8 00       		.byte	0
 3795 0cd9 00       		.byte	0
 3796 0cda 0000     		.space	2
 3797              		.type	BS_IOPINS0_8_VAL.4881, %object
 3798              		.size	BS_IOPINS0_8_VAL.4881, 10
 3799              	BS_IOPINS0_8_VAL.4881:
 3800 0cdc 00       		.byte	0
 3801 0cdd 00       		.byte	0
 3802 0cde 20       		.byte	32
 3803 0cdf 18       		.byte	24
 3804 0ce0 18       		.byte	24
 3805 0ce1 00       		.byte	0
 3806 0ce2 18       		.byte	24
 3807 0ce3 00       		.byte	0
 3808 0ce4 C0       		.byte	-64
 3809 0ce5 00       		.byte	0
 3810 0ce6 0000     		.space	2
 3811              		.type	BS_IOPINS0_1_VAL.4882, %object
 3812              		.size	BS_IOPINS0_1_VAL.4882, 10
 3813              	BS_IOPINS0_1_VAL.4882:
 3814 0ce8 C0       		.byte	-64
 3815 0ce9 00       		.byte	0
 3816 0cea 00       		.byte	0
 3817 0ceb 00       		.byte	0
 3818 0cec C0       		.byte	-64
 3819 0ced 00       		.byte	0
 3820 0cee C0       		.byte	-64
 3821 0cef 00       		.byte	0
 3822 0cf0 00       		.byte	0
 3823 0cf1 00       		.byte	0
 3824 0cf2 0000     		.space	2
 3825              		.type	BS_IOPINS0_2_VAL.4883, %object
 3826              		.size	BS_IOPINS0_2_VAL.4883, 10
 3827              	BS_IOPINS0_2_VAL.4883:
 3828 0cf4 28       		.byte	40
 3829 0cf5 00       		.byte	0
 3830 0cf6 05       		.byte	5
 3831 0cf7 00       		.byte	0
 3832 0cf8 28       		.byte	40
 3833 0cf9 00       		.byte	0
 3834 0cfa 28       		.byte	40
 3835 0cfb 00       		.byte	0
 3836 0cfc 00       		.byte	0
 3837 0cfd 00       		.byte	0
 3838 0cfe 0000     		.space	2
 3839              		.type	BS_IOPINS0_3_VAL.4884, %object
 3840              		.size	BS_IOPINS0_3_VAL.4884, 10
 3841              	BS_IOPINS0_3_VAL.4884:
 3842 0d00 08       		.byte	8
 3843 0d01 00       		.byte	0
 3844 0d02 04       		.byte	4
 3845 0d03 08       		.byte	8
 3846 0d04 08       		.byte	8
 3847 0d05 00       		.byte	0
ARM GAS  C:\Users\xavieran\AppData\Local\Temp\ccJfmadl.s 			page 105


 3848 0d06 08       		.byte	8
 3849 0d07 00       		.byte	0
 3850 0d08 00       		.byte	0
 3851 0d09 00       		.byte	0
 3852 0d0a 0000     		.space	2
 3853              		.type	BS_IOPINS0_4_VAL.4885, %object
 3854              		.size	BS_IOPINS0_4_VAL.4885, 8
 3855              	BS_IOPINS0_4_VAL.4885:
 3856 0d0c F0       		.byte	-16
 3857 0d0d 03       		.byte	3
 3858 0d0e 03       		.byte	3
 3859 0d0f 00       		.byte	0
 3860 0d10 03       		.byte	3
 3861 0d11 00       		.byte	0
 3862 0d12 00       		.byte	0
 3863 0d13 01       		.byte	1
 3864              		.type	BS_IOPINS0_5_VAL.4886, %object
 3865              		.size	BS_IOPINS0_5_VAL.4886, 8
 3866              	BS_IOPINS0_5_VAL.4886:
 3867 0d14 D0       		.byte	-48
 3868 0d15 A3       		.byte	-93
 3869 0d16 73       		.byte	115
 3870 0d17 00       		.byte	0
 3871 0d18 82       		.byte	-126
 3872 0d19 00       		.byte	0
 3873 0d1a 00       		.byte	0
 3874 0d1b 00       		.byte	0
 3875              		.type	BS_IOPINS0_6_VAL.4887, %object
 3876              		.size	BS_IOPINS0_6_VAL.4887, 8
 3877              	BS_IOPINS0_6_VAL.4887:
 3878 0d1c 1F       		.byte	31
 3879 0d1d F0       		.byte	-16
 3880 0d1e E0       		.byte	-32
 3881 0d1f 00       		.byte	0
 3882 0d20 10       		.byte	16
 3883 0d21 00       		.byte	0
 3884 0d22 00       		.byte	0
 3885 0d23 00       		.byte	0
 3886              		.type	BS_IOPORT_7_VAL.4900, %object
 3887              		.size	BS_IOPORT_7_VAL.4900, 6
 3888              	BS_IOPORT_7_VAL.4900:
 3889 0d24 23       		.byte	35
 3890 0d25 24       		.byte	36
 3891 0d26 00       		.byte	0
 3892 0d27 00       		.byte	0
 3893 0d28 43       		.byte	67
 3894 0d29 00       		.byte	0
 3895 0d2a 0000     		.space	2
 3896              		.type	BS_IDMUX_IRQ_VAL.4901, %object
 3897              		.size	BS_IDMUX_IRQ_VAL.4901, 8
 3898              	BS_IDMUX_IRQ_VAL.4901:
 3899 0d2c BF       		.byte	-65
 3900 0d2d E8       		.byte	-24
 3901 0d2e 03       		.byte	3
 3902 0d2f C0       		.byte	-64
 3903 0d30 00       		.byte	0
 3904 0d31 00       		.byte	0
ARM GAS  C:\Users\xavieran\AppData\Local\Temp\ccJfmadl.s 			page 106


 3905 0d32 00       		.byte	0
 3906 0d33 00       		.byte	0
 3907              		.text
 3908              	.Letext0:
 3909              		.file 2 "c:\\program files (x86)\\cypress\\psoc creator\\3.2\\psoc creator\\import\\gnu\\arm\\4.8.
 3910              		.file 3 ".\\Generated_Source\\PSoC5\\cytypes.h"
 3911              		.file 4 ".\\Generated_Source\\PSoC5\\CyLib.h"
 3912              		.section	.debug_info,"",%progbits
 3913              	.Ldebug_info0:
 3914 0000 4E080000 		.4byte	0x84e
 3915 0004 0400     		.2byte	0x4
 3916 0006 00000000 		.4byte	.Ldebug_abbrev0
 3917 000a 04       		.byte	0x4
 3918 000b 01       		.uleb128 0x1
 3919 000c 16000000 		.4byte	.LASF66
 3920 0010 01       		.byte	0x1
 3921 0011 DC010000 		.4byte	.LASF67
 3922 0015 38030000 		.4byte	.LASF68
 3923 0019 18000000 		.4byte	.Ldebug_ranges0+0x18
 3924 001d 00000000 		.4byte	0
 3925 0021 00000000 		.4byte	.Ldebug_line0
 3926 0025 02       		.uleb128 0x2
 3927 0026 04       		.byte	0x4
 3928 0027 05       		.byte	0x5
 3929 0028 696E7400 		.ascii	"int\000"
 3930 002c 03       		.uleb128 0x3
 3931 002d 92000000 		.4byte	.LASF11
 3932 0031 02       		.byte	0x2
 3933 0032 D4       		.byte	0xd4
 3934 0033 37000000 		.4byte	0x37
 3935 0037 04       		.uleb128 0x4
 3936 0038 04       		.byte	0x4
 3937 0039 07       		.byte	0x7
 3938 003a C6010000 		.4byte	.LASF0
 3939 003e 04       		.uleb128 0x4
 3940 003f 01       		.byte	0x1
 3941 0040 06       		.byte	0x6
 3942 0041 1C010000 		.4byte	.LASF1
 3943 0045 04       		.uleb128 0x4
 3944 0046 01       		.byte	0x1
 3945 0047 08       		.byte	0x8
 3946 0048 E3020000 		.4byte	.LASF2
 3947 004c 04       		.uleb128 0x4
 3948 004d 02       		.byte	0x2
 3949 004e 05       		.byte	0x5
 3950 004f F1020000 		.4byte	.LASF3
 3951 0053 04       		.uleb128 0x4
 3952 0054 02       		.byte	0x2
 3953 0055 07       		.byte	0x7
 3954 0056 30020000 		.4byte	.LASF4
 3955 005a 04       		.uleb128 0x4
 3956 005b 04       		.byte	0x4
 3957 005c 05       		.byte	0x5
 3958 005d 72010000 		.4byte	.LASF5
 3959 0061 04       		.uleb128 0x4
 3960 0062 04       		.byte	0x4
 3961 0063 07       		.byte	0x7
ARM GAS  C:\Users\xavieran\AppData\Local\Temp\ccJfmadl.s 			page 107


 3962 0064 04020000 		.4byte	.LASF6
 3963 0068 04       		.uleb128 0x4
 3964 0069 08       		.byte	0x8
 3965 006a 05       		.byte	0x5
 3966 006b 0E010000 		.4byte	.LASF7
 3967 006f 04       		.uleb128 0x4
 3968 0070 08       		.byte	0x8
 3969 0071 07       		.byte	0x7
 3970 0072 C9000000 		.4byte	.LASF8
 3971 0076 04       		.uleb128 0x4
 3972 0077 04       		.byte	0x4
 3973 0078 07       		.byte	0x7
 3974 0079 64020000 		.4byte	.LASF9
 3975 007d 05       		.uleb128 0x5
 3976 007e 04       		.byte	0x4
 3977 007f 04       		.uleb128 0x4
 3978 0080 01       		.byte	0x1
 3979 0081 08       		.byte	0x8
 3980 0082 89030000 		.4byte	.LASF10
 3981 0086 03       		.uleb128 0x3
 3982 0087 88010000 		.4byte	.LASF12
 3983 008b 03       		.byte	0x3
 3984 008c B3       		.byte	0xb3
 3985 008d 45000000 		.4byte	0x45
 3986 0091 03       		.uleb128 0x3
 3987 0092 06000000 		.4byte	.LASF13
 3988 0096 03       		.byte	0x3
 3989 0097 B4       		.byte	0xb4
 3990 0098 53000000 		.4byte	0x53
 3991 009c 03       		.uleb128 0x3
 3992 009d 9F010000 		.4byte	.LASF14
 3993 00a1 03       		.byte	0x3
 3994 00a2 B5       		.byte	0xb5
 3995 00a3 61000000 		.4byte	0x61
 3996 00a7 04       		.uleb128 0x4
 3997 00a8 04       		.byte	0x4
 3998 00a9 04       		.byte	0x4
 3999 00aa B2020000 		.4byte	.LASF15
 4000 00ae 04       		.uleb128 0x4
 4001 00af 08       		.byte	0x8
 4002 00b0 04       		.byte	0x4
 4003 00b1 8E010000 		.4byte	.LASF16
 4004 00b5 06       		.uleb128 0x6
 4005 00b6 DE020000 		.4byte	.LASF17
 4006 00ba 03       		.byte	0x3
 4007 00bb 5D01     		.2byte	0x15d
 4008 00bd C1000000 		.4byte	0xc1
 4009 00c1 07       		.uleb128 0x7
 4010 00c2 86000000 		.4byte	0x86
 4011 00c6 06       		.uleb128 0x6
 4012 00c7 7B010000 		.4byte	.LASF18
 4013 00cb 03       		.byte	0x3
 4014 00cc 5E01     		.2byte	0x15e
 4015 00ce D2000000 		.4byte	0xd2
 4016 00d2 07       		.uleb128 0x7
 4017 00d3 91000000 		.4byte	0x91
 4018 00d7 08       		.uleb128 0x8
ARM GAS  C:\Users\xavieran\AppData\Local\Temp\ccJfmadl.s 			page 108


 4019 00d8 02       		.byte	0x2
 4020 00d9 01       		.byte	0x1
 4021 00da 7E       		.byte	0x7e
 4022 00db F8000000 		.4byte	0xf8
 4023 00df 09       		.uleb128 0x9
 4024 00e0 AB030000 		.4byte	.LASF19
 4025 00e4 01       		.byte	0x1
 4026 00e5 80       		.byte	0x80
 4027 00e6 86000000 		.4byte	0x86
 4028 00ea 00       		.byte	0
 4029 00eb 09       		.uleb128 0x9
 4030 00ec C0010000 		.4byte	.LASF20
 4031 00f0 01       		.byte	0x1
 4032 00f1 81       		.byte	0x81
 4033 00f2 86000000 		.4byte	0x86
 4034 00f6 01       		.byte	0x1
 4035 00f7 00       		.byte	0
 4036 00f8 03       		.uleb128 0x3
 4037 00f9 25030000 		.4byte	.LASF21
 4038 00fd 01       		.byte	0x1
 4039 00fe 82       		.byte	0x82
 4040 00ff D7000000 		.4byte	0xd7
 4041 0103 0A       		.uleb128 0xa
 4042 0104 99000000 		.4byte	.LASF22
 4043 0108 01       		.byte	0x1
 4044 0109 6A       		.byte	0x6a
 4045 010a 00000000 		.4byte	.LFB3
 4046 010e 02000000 		.4byte	.LFE3-.LFB3
 4047 0112 01       		.uleb128 0x1
 4048 0113 9C       		.byte	0x9c
 4049 0114 26010000 		.4byte	0x126
 4050 0118 0B       		.uleb128 0xb
 4051 0119 57010000 		.4byte	.LASF24
 4052 011d 01       		.byte	0x1
 4053 011e 6A       		.byte	0x6a
 4054 011f 86000000 		.4byte	0x86
 4055 0123 01       		.uleb128 0x1
 4056 0124 50       		.byte	0x50
 4057 0125 00       		.byte	0
 4058 0126 0A       		.uleb128 0xa
 4059 0127 3A010000 		.4byte	.LASF23
 4060 012b 01       		.byte	0x1
 4061 012c 95       		.byte	0x95
 4062 012d 00000000 		.4byte	.LFB4
 4063 0131 34000000 		.4byte	.LFE4-.LFB4
 4064 0135 01       		.uleb128 0x1
 4065 0136 9C       		.byte	0x9c
 4066 0137 98010000 		.4byte	0x198
 4067 013b 0B       		.uleb128 0xb
 4068 013c E0000000 		.4byte	.LASF25
 4069 0140 01       		.byte	0x1
 4070 0141 95       		.byte	0x95
 4071 0142 98010000 		.4byte	0x198
 4072 0146 01       		.uleb128 0x1
 4073 0147 50       		.byte	0x50
 4074 0148 0B       		.uleb128 0xb
 4075 0149 BE000000 		.4byte	.LASF26
ARM GAS  C:\Users\xavieran\AppData\Local\Temp\ccJfmadl.s 			page 109


 4076 014d 01       		.byte	0x1
 4077 014e 95       		.byte	0x95
 4078 014f A3010000 		.4byte	0x1a3
 4079 0153 01       		.uleb128 0x1
 4080 0154 51       		.byte	0x51
 4081 0155 0C       		.uleb128 0xc
 4082 0156 6900     		.ascii	"i\000"
 4083 0158 01       		.byte	0x1
 4084 0159 98       		.byte	0x98
 4085 015a 9C000000 		.4byte	0x9c
 4086 015e 00000000 		.4byte	.LLST0
 4087 0162 0C       		.uleb128 0xc
 4088 0163 6A00     		.ascii	"j\000"
 4089 0165 01       		.byte	0x1
 4090 0166 98       		.byte	0x98
 4091 0167 9C000000 		.4byte	0x9c
 4092 016b 1F000000 		.4byte	.LLST1
 4093 016f 0D       		.uleb128 0xd
 4094 0170 08000000 		.4byte	.LBB2
 4095 0174 22000000 		.4byte	.LBE2-.LBB2
 4096 0178 0E       		.uleb128 0xe
 4097 0179 0D000000 		.4byte	.LASF27
 4098 017d 01       		.byte	0x1
 4099 017e 9B       		.byte	0x9b
 4100 017f 9C000000 		.4byte	0x9c
 4101 0183 3E000000 		.4byte	.LLST2
 4102 0187 0E       		.uleb128 0xe
 4103 0188 00000000 		.4byte	.LASF28
 4104 018c 01       		.byte	0x1
 4105 018d 9C       		.byte	0x9c
 4106 018e 86000000 		.4byte	0x86
 4107 0192 51000000 		.4byte	.LLST3
 4108 0196 00       		.byte	0
 4109 0197 00       		.byte	0
 4110 0198 0F       		.uleb128 0xf
 4111 0199 04       		.byte	0x4
 4112 019a 9E010000 		.4byte	0x19e
 4113 019e 10       		.uleb128 0x10
 4114 019f 9C000000 		.4byte	0x9c
 4115 01a3 0F       		.uleb128 0xf
 4116 01a4 04       		.byte	0x4
 4117 01a5 A9010000 		.4byte	0x1a9
 4118 01a9 10       		.uleb128 0x10
 4119 01aa F8000000 		.4byte	0xf8
 4120 01ae 11       		.uleb128 0x11
 4121 01af FD000000 		.4byte	.LASF29
 4122 01b3 01       		.byte	0x1
 4123 01b4 0501     		.2byte	0x105
 4124 01b6 00000000 		.4byte	.LFB6
 4125 01ba 28000000 		.4byte	.LFE6-.LFB6
 4126 01be 01       		.uleb128 0x1
 4127 01bf 9C       		.byte	0x9c
 4128 01c0 D5010000 		.4byte	0x1d5
 4129 01c4 12       		.uleb128 0x12
 4130 01c5 6D020000 		.4byte	.LASF30
 4131 01c9 01       		.byte	0x1
 4132 01ca 0701     		.2byte	0x107
ARM GAS  C:\Users\xavieran\AppData\Local\Temp\ccJfmadl.s 			page 110


 4133 01cc 86000000 		.4byte	0x86
 4134 01d0 87000000 		.4byte	.LLST4
 4135 01d4 00       		.byte	0
 4136 01d5 0A       		.uleb128 0xa
 4137 01d6 95010000 		.4byte	.LASF31
 4138 01da 01       		.byte	0x1
 4139 01db 3C       		.byte	0x3c
 4140 01dc 00000000 		.4byte	.LFB0
 4141 01e0 0C000000 		.4byte	.LFE0-.LFB0
 4142 01e4 01       		.uleb128 0x1
 4143 01e5 9C       		.byte	0x9c
 4144 01e6 22020000 		.4byte	0x222
 4145 01ea 13       		.uleb128 0x13
 4146 01eb 7300     		.ascii	"s\000"
 4147 01ed 01       		.byte	0x1
 4148 01ee 3C       		.byte	0x3c
 4149 01ef 7D000000 		.4byte	0x7d
 4150 01f3 9A000000 		.4byte	.LLST5
 4151 01f7 13       		.uleb128 0x13
 4152 01f8 6E00     		.ascii	"n\000"
 4153 01fa 01       		.byte	0x1
 4154 01fb 3C       		.byte	0x3c
 4155 01fc 2C000000 		.4byte	0x2c
 4156 0200 BB000000 		.4byte	.LLST6
 4157 0204 14       		.uleb128 0x14
 4158 0205 0A000000 		.4byte	.LVL16
 4159 0209 0A080000 		.4byte	0x80a
 4160 020d 15       		.uleb128 0x15
 4161 020e 01       		.uleb128 0x1
 4162 020f 52       		.byte	0x52
 4163 0210 03       		.uleb128 0x3
 4164 0211 F3       		.byte	0xf3
 4165 0212 01       		.uleb128 0x1
 4166 0213 51       		.byte	0x51
 4167 0214 15       		.uleb128 0x15
 4168 0215 01       		.uleb128 0x1
 4169 0216 51       		.byte	0x51
 4170 0217 01       		.uleb128 0x1
 4171 0218 30       		.byte	0x30
 4172 0219 15       		.uleb128 0x15
 4173 021a 01       		.uleb128 0x1
 4174 021b 50       		.byte	0x50
 4175 021c 03       		.uleb128 0x3
 4176 021d F3       		.byte	0xf3
 4177 021e 01       		.uleb128 0x1
 4178 021f 50       		.byte	0x50
 4179 0220 00       		.byte	0
 4180 0221 00       		.byte	0
 4181 0222 0A       		.uleb128 0xa
 4182 0223 54020000 		.4byte	.LASF32
 4183 0227 01       		.byte	0x1
 4184 0228 4A       		.byte	0x4a
 4185 0229 00000000 		.4byte	.LFB2
 4186 022d 08000000 		.4byte	.LFE2-.LFB2
 4187 0231 01       		.uleb128 0x1
 4188 0232 9C       		.byte	0x9c
 4189 0233 82020000 		.4byte	0x282
ARM GAS  C:\Users\xavieran\AppData\Local\Temp\ccJfmadl.s 			page 111


 4190 0237 16       		.uleb128 0x16
 4191 0238 AD020000 		.4byte	.LASF33
 4192 023c 01       		.byte	0x1
 4193 023d 4A       		.byte	0x4a
 4194 023e 7D000000 		.4byte	0x7d
 4195 0242 E7000000 		.4byte	.LLST7
 4196 0246 13       		.uleb128 0x13
 4197 0247 73726300 		.ascii	"src\000"
 4198 024b 01       		.byte	0x1
 4199 024c 4A       		.byte	0x4a
 4200 024d 82020000 		.4byte	0x282
 4201 0251 08010000 		.4byte	.LLST8
 4202 0255 13       		.uleb128 0x13
 4203 0256 6E00     		.ascii	"n\000"
 4204 0258 01       		.byte	0x1
 4205 0259 4A       		.byte	0x4a
 4206 025a 2C000000 		.4byte	0x2c
 4207 025e 29010000 		.4byte	.LLST9
 4208 0262 14       		.uleb128 0x14
 4209 0263 06000000 		.4byte	.LVL18
 4210 0267 27080000 		.4byte	0x827
 4211 026b 15       		.uleb128 0x15
 4212 026c 01       		.uleb128 0x1
 4213 026d 52       		.byte	0x52
 4214 026e 03       		.uleb128 0x3
 4215 026f F3       		.byte	0xf3
 4216 0270 01       		.uleb128 0x1
 4217 0271 52       		.byte	0x52
 4218 0272 15       		.uleb128 0x15
 4219 0273 01       		.uleb128 0x1
 4220 0274 51       		.byte	0x51
 4221 0275 03       		.uleb128 0x3
 4222 0276 F3       		.byte	0xf3
 4223 0277 01       		.uleb128 0x1
 4224 0278 51       		.byte	0x51
 4225 0279 15       		.uleb128 0x15
 4226 027a 01       		.uleb128 0x1
 4227 027b 50       		.byte	0x50
 4228 027c 03       		.uleb128 0x3
 4229 027d F3       		.byte	0xf3
 4230 027e 01       		.uleb128 0x1
 4231 027f 50       		.byte	0x50
 4232 0280 00       		.byte	0
 4233 0281 00       		.byte	0
 4234 0282 0F       		.uleb128 0xf
 4235 0283 04       		.byte	0x4
 4236 0284 88020000 		.4byte	0x288
 4237 0288 17       		.uleb128 0x17
 4238 0289 0A       		.uleb128 0xa
 4239 028a D2030000 		.4byte	.LASF34
 4240 028e 01       		.byte	0x1
 4241 028f 43       		.byte	0x43
 4242 0290 00000000 		.4byte	.LFB1
 4243 0294 08000000 		.4byte	.LFE1-.LFB1
 4244 0298 01       		.uleb128 0x1
 4245 0299 9C       		.byte	0x9c
 4246 029a E9020000 		.4byte	0x2e9
ARM GAS  C:\Users\xavieran\AppData\Local\Temp\ccJfmadl.s 			page 112


 4247 029e 16       		.uleb128 0x16
 4248 029f AD020000 		.4byte	.LASF33
 4249 02a3 01       		.byte	0x1
 4250 02a4 43       		.byte	0x43
 4251 02a5 7D000000 		.4byte	0x7d
 4252 02a9 4A010000 		.4byte	.LLST10
 4253 02ad 13       		.uleb128 0x13
 4254 02ae 73726300 		.ascii	"src\000"
 4255 02b2 01       		.byte	0x1
 4256 02b3 43       		.byte	0x43
 4257 02b4 82020000 		.4byte	0x282
 4258 02b8 6B010000 		.4byte	.LLST11
 4259 02bc 13       		.uleb128 0x13
 4260 02bd 6E00     		.ascii	"n\000"
 4261 02bf 01       		.byte	0x1
 4262 02c0 43       		.byte	0x43
 4263 02c1 2C000000 		.4byte	0x2c
 4264 02c5 8C010000 		.4byte	.LLST12
 4265 02c9 14       		.uleb128 0x14
 4266 02ca 06000000 		.4byte	.LVL20
 4267 02ce 27080000 		.4byte	0x827
 4268 02d2 15       		.uleb128 0x15
 4269 02d3 01       		.uleb128 0x1
 4270 02d4 52       		.byte	0x52
 4271 02d5 03       		.uleb128 0x3
 4272 02d6 F3       		.byte	0xf3
 4273 02d7 01       		.uleb128 0x1
 4274 02d8 52       		.byte	0x52
 4275 02d9 15       		.uleb128 0x15
 4276 02da 01       		.uleb128 0x1
 4277 02db 51       		.byte	0x51
 4278 02dc 03       		.uleb128 0x3
 4279 02dd F3       		.byte	0xf3
 4280 02de 01       		.uleb128 0x1
 4281 02df 51       		.byte	0x51
 4282 02e0 15       		.uleb128 0x15
 4283 02e1 01       		.uleb128 0x1
 4284 02e2 50       		.byte	0x50
 4285 02e3 03       		.uleb128 0x3
 4286 02e4 F3       		.byte	0xf3
 4287 02e5 01       		.uleb128 0x1
 4288 02e6 50       		.byte	0x50
 4289 02e7 00       		.byte	0
 4290 02e8 00       		.byte	0
 4291 02e9 0A       		.uleb128 0xa
 4292 02ea 4C010000 		.4byte	.LASF35
 4293 02ee 01       		.byte	0x1
 4294 02ef B8       		.byte	0xb8
 4295 02f0 00000000 		.4byte	.LFB5
 4296 02f4 F4000000 		.4byte	.LFE5-.LFB5
 4297 02f8 01       		.uleb128 0x1
 4298 02f9 9C       		.byte	0x9c
 4299 02fa 40030000 		.4byte	0x340
 4300 02fe 0E       		.uleb128 0xe
 4301 02ff 16020000 		.4byte	.LASF36
 4302 0303 01       		.byte	0x1
 4303 0304 BA       		.byte	0xba
ARM GAS  C:\Users\xavieran\AppData\Local\Temp\ccJfmadl.s 			page 113


 4304 0305 9C000000 		.4byte	0x9c
 4305 0309 AD010000 		.4byte	.LLST13
 4306 030d 0E       		.uleb128 0xe
 4307 030e 0C030000 		.4byte	.LASF37
 4308 0312 01       		.byte	0x1
 4309 0313 BB       		.byte	0xbb
 4310 0314 86000000 		.4byte	0x86
 4311 0318 CC010000 		.4byte	.LLST14
 4312 031c 18       		.uleb128 0x18
 4313 031d 8E000000 		.4byte	.LVL25
 4314 0321 44080000 		.4byte	0x844
 4315 0325 30030000 		.4byte	0x330
 4316 0329 15       		.uleb128 0x15
 4317 032a 01       		.uleb128 0x1
 4318 032b 50       		.byte	0x50
 4319 032c 02       		.uleb128 0x2
 4320 032d 76       		.byte	0x76
 4321 032e 00       		.sleb128 0
 4322 032f 00       		.byte	0
 4323 0330 14       		.uleb128 0x14
 4324 0331 9E000000 		.4byte	.LVL27
 4325 0335 03010000 		.4byte	0x103
 4326 0339 15       		.uleb128 0x15
 4327 033a 01       		.uleb128 0x1
 4328 033b 50       		.byte	0x50
 4329 033c 01       		.uleb128 0x1
 4330 033d 33       		.byte	0x33
 4331 033e 00       		.byte	0
 4332 033f 00       		.byte	0
 4333 0340 19       		.uleb128 0x19
 4334 0341 95030000 		.4byte	.LASF40
 4335 0345 01       		.byte	0x1
 4336 0346 1F01     		.2byte	0x11f
 4337 0348 00000000 		.4byte	.LFB7
 4338 034c 10000000 		.4byte	.LFE7-.LFB7
 4339 0350 01       		.uleb128 0x1
 4340 0351 9C       		.byte	0x9c
 4341 0352 73030000 		.4byte	0x373
 4342 0356 1A       		.uleb128 0x1a
 4343 0357 C3030000 		.4byte	.LASF38
 4344 035b 01       		.byte	0x1
 4345 035c 1F01     		.2byte	0x11f
 4346 035e 86000000 		.4byte	0x86
 4347 0362 01       		.uleb128 0x1
 4348 0363 50       		.byte	0x50
 4349 0364 1B       		.uleb128 0x1b
 4350 0365 A6010000 		.4byte	.LASF39
 4351 0369 01       		.byte	0x1
 4352 036a 2101     		.2byte	0x121
 4353 036c 86000000 		.4byte	0x86
 4354 0370 01       		.uleb128 0x1
 4355 0371 52       		.byte	0x52
 4356 0372 00       		.byte	0
 4357 0373 19       		.uleb128 0x19
 4358 0374 18040000 		.4byte	.LASF41
 4359 0378 01       		.byte	0x1
 4360 0379 4101     		.2byte	0x141
ARM GAS  C:\Users\xavieran\AppData\Local\Temp\ccJfmadl.s 			page 114


 4361 037b 00000000 		.4byte	.LFB8
 4362 037f 68010000 		.4byte	.LFE8-.LFB8
 4363 0383 01       		.uleb128 0x1
 4364 0384 9C       		.byte	0x9c
 4365 0385 78070000 		.4byte	0x778
 4366 0389 1B       		.uleb128 0x1b
 4367 038a FB020000 		.4byte	.LASF42
 4368 038e 01       		.byte	0x1
 4369 038f 4401     		.2byte	0x144
 4370 0391 88070000 		.4byte	0x788
 4371 0395 05       		.uleb128 0x5
 4372 0396 03       		.byte	0x3
 4373 0397 C40C0000 		.4byte	BS_IOPINS0_0_VAL.4879
 4374 039b 1B       		.uleb128 0x1b
 4375 039c AD000000 		.4byte	.LASF43
 4376 03a0 01       		.byte	0x1
 4377 03a1 4801     		.2byte	0x148
 4378 03a3 8D070000 		.4byte	0x78d
 4379 03a7 05       		.uleb128 0x5
 4380 03a8 03       		.byte	0x3
 4381 03a9 D00C0000 		.4byte	BS_IOPINS0_7_VAL.4880
 4382 03ad 1B       		.uleb128 0x1b
 4383 03ae 14030000 		.4byte	.LASF44
 4384 03b2 01       		.byte	0x1
 4385 03b3 4C01     		.2byte	0x14c
 4386 03b5 92070000 		.4byte	0x792
 4387 03b9 05       		.uleb128 0x5
 4388 03ba 03       		.byte	0x3
 4389 03bb DC0C0000 		.4byte	BS_IOPINS0_8_VAL.4881
 4390 03bf 1B       		.uleb128 0x1b
 4391 03c0 AF010000 		.4byte	.LASF45
 4392 03c4 01       		.byte	0x1
 4393 03c5 5001     		.2byte	0x150
 4394 03c7 97070000 		.4byte	0x797
 4395 03cb 05       		.uleb128 0x5
 4396 03cc 03       		.byte	0x3
 4397 03cd E80C0000 		.4byte	BS_IOPINS0_1_VAL.4882
 4398 03d1 1B       		.uleb128 0x1b
 4399 03d2 E6030000 		.4byte	.LASF46
 4400 03d6 01       		.byte	0x1
 4401 03d7 5401     		.2byte	0x154
 4402 03d9 9C070000 		.4byte	0x79c
 4403 03dd 05       		.uleb128 0x5
 4404 03de 03       		.byte	0x3
 4405 03df F40C0000 		.4byte	BS_IOPINS0_2_VAL.4883
 4406 03e3 1B       		.uleb128 0x1b
 4407 03e4 9C020000 		.4byte	.LASF47
 4408 03e8 01       		.byte	0x1
 4409 03e9 5801     		.2byte	0x158
 4410 03eb A1070000 		.4byte	0x7a1
 4411 03ef 05       		.uleb128 0x5
 4412 03f0 03       		.byte	0x3
 4413 03f1 000D0000 		.4byte	BS_IOPINS0_3_VAL.4884
 4414 03f5 1B       		.uleb128 0x1b
 4415 03f6 61010000 		.4byte	.LASF48
 4416 03fa 01       		.byte	0x1
 4417 03fb 5C01     		.2byte	0x15c
ARM GAS  C:\Users\xavieran\AppData\Local\Temp\ccJfmadl.s 			page 115


 4418 03fd B6070000 		.4byte	0x7b6
 4419 0401 05       		.uleb128 0x5
 4420 0402 03       		.byte	0x3
 4421 0403 0C0D0000 		.4byte	BS_IOPINS0_4_VAL.4885
 4422 0407 1B       		.uleb128 0x1b
 4423 0408 B2030000 		.4byte	.LASF49
 4424 040c 01       		.byte	0x1
 4425 040d 6001     		.2byte	0x160
 4426 040f BB070000 		.4byte	0x7bb
 4427 0413 05       		.uleb128 0x5
 4428 0414 03       		.byte	0x3
 4429 0415 140D0000 		.4byte	BS_IOPINS0_5_VAL.4886
 4430 0419 1B       		.uleb128 0x1b
 4431 041a 43020000 		.4byte	.LASF50
 4432 041e 01       		.byte	0x1
 4433 041f 6401     		.2byte	0x164
 4434 0421 C0070000 		.4byte	0x7c0
 4435 0425 05       		.uleb128 0x5
 4436 0426 03       		.byte	0x3
 4437 0427 1C0D0000 		.4byte	BS_IOPINS0_6_VAL.4887
 4438 042b 1C       		.uleb128 0x1c
 4439 042c 04000000 		.4byte	.LBB3
 4440 0430 7C000000 		.4byte	.LBE3-.LBB3
 4441 0434 0C060000 		.4byte	0x60c
 4442 0438 1B       		.uleb128 0x1b
 4443 0439 28010000 		.4byte	.LASF51
 4444 043d 01       		.byte	0x1
 4445 043e 6D01     		.2byte	0x16d
 4446 0440 D5070000 		.4byte	0x7d5
 4447 0444 05       		.uleb128 0x5
 4448 0445 03       		.byte	0x3
 4449 0446 40000000 		.4byte	cy_cfg_addr_table.4888
 4450 044a 1B       		.uleb128 0x1b
 4451 044b EB000000 		.4byte	.LASF52
 4452 044f 01       		.byte	0x1
 4453 0450 9801     		.2byte	0x198
 4454 0452 EB070000 		.4byte	0x7eb
 4455 0456 05       		.uleb128 0x5
 4456 0457 03       		.byte	0x3
 4457 0458 E0000000 		.4byte	cy_cfg_data_table.4889
 4458 045c 1D       		.uleb128 0x1d
 4459 045d 06       		.byte	0x6
 4460 045e 01       		.byte	0x1
 4461 045f 8F07     		.2byte	0x78f
 4462 0461 80040000 		.4byte	0x480
 4463 0465 1E       		.uleb128 0x1e
 4464 0466 DE030000 		.4byte	.LASF53
 4465 046a 01       		.byte	0x1
 4466 046b 9007     		.2byte	0x790
 4467 046d 7D000000 		.4byte	0x7d
 4468 0471 00       		.byte	0
 4469 0472 1E       		.uleb128 0x1e
 4470 0473 2B020000 		.4byte	.LASF54
 4471 0477 01       		.byte	0x1
 4472 0478 9107     		.2byte	0x791
 4473 047a 91000000 		.4byte	0x91
 4474 047e 04       		.byte	0x4
ARM GAS  C:\Users\xavieran\AppData\Local\Temp\ccJfmadl.s 			page 116


 4475 047f 00       		.byte	0
 4476 0480 06       		.uleb128 0x6
 4477 0481 7F020000 		.4byte	.LASF55
 4478 0485 01       		.byte	0x1
 4479 0486 9207     		.2byte	0x792
 4480 0488 5C040000 		.4byte	0x45c
 4481 048c 1D       		.uleb128 0x1d
 4482 048d 0A       		.byte	0xa
 4483 048e 01       		.byte	0x1
 4484 048f 9507     		.2byte	0x795
 4485 0491 BD040000 		.4byte	0x4bd
 4486 0495 1E       		.uleb128 0x1e
 4487 0496 AD020000 		.4byte	.LASF33
 4488 049a 01       		.byte	0x1
 4489 049b 9607     		.2byte	0x796
 4490 049d 7D000000 		.4byte	0x7d
 4491 04a1 00       		.byte	0
 4492 04a2 1F       		.uleb128 0x1f
 4493 04a3 73726300 		.ascii	"src\000"
 4494 04a7 01       		.byte	0x1
 4495 04a8 9707     		.2byte	0x797
 4496 04aa 82020000 		.4byte	0x282
 4497 04ae 04       		.byte	0x4
 4498 04af 1E       		.uleb128 0x1e
 4499 04b0 2B020000 		.4byte	.LASF54
 4500 04b4 01       		.byte	0x1
 4501 04b5 9807     		.2byte	0x798
 4502 04b7 91000000 		.4byte	0x91
 4503 04bb 08       		.byte	0x8
 4504 04bc 00       		.byte	0
 4505 04bd 06       		.uleb128 0x6
 4506 04be 1E020000 		.4byte	.LASF56
 4507 04c2 01       		.byte	0x1
 4508 04c3 9907     		.2byte	0x799
 4509 04c5 8C040000 		.4byte	0x48c
 4510 04c9 20       		.uleb128 0x20
 4511 04ca 80040000 		.4byte	0x480
 4512 04ce D9040000 		.4byte	0x4d9
 4513 04d2 21       		.uleb128 0x21
 4514 04d3 76000000 		.4byte	0x76
 4515 04d7 06       		.byte	0x6
 4516 04d8 00       		.byte	0
 4517 04d9 1B       		.uleb128 0x1b
 4518 04da 8C020000 		.4byte	.LASF57
 4519 04de 01       		.byte	0x1
 4520 04df 9B07     		.2byte	0x79b
 4521 04e1 EB040000 		.4byte	0x4eb
 4522 04e5 05       		.uleb128 0x5
 4523 04e6 03       		.byte	0x3
 4524 04e7 00000000 		.4byte	cfg_memset_list.4899
 4525 04eb 10       		.uleb128 0x10
 4526 04ec C9040000 		.4byte	0x4c9
 4527 04f0 1B       		.uleb128 0x1b
 4528 04f1 B8020000 		.4byte	.LASF58
 4529 04f5 01       		.byte	0x1
 4530 04f6 A707     		.2byte	0x7a7
 4531 04f8 00080000 		.4byte	0x800
ARM GAS  C:\Users\xavieran\AppData\Local\Temp\ccJfmadl.s 			page 117


 4532 04fc 05       		.uleb128 0x5
 4533 04fd 03       		.byte	0x3
 4534 04fe 240D0000 		.4byte	BS_IOPORT_7_VAL.4900
 4535 0502 1B       		.uleb128 0x1b
 4536 0503 F7030000 		.4byte	.LASF59
 4537 0507 01       		.byte	0x1
 4538 0508 AB07     		.2byte	0x7ab
 4539 050a 05080000 		.4byte	0x805
 4540 050e 05       		.uleb128 0x5
 4541 050f 03       		.byte	0x3
 4542 0510 2C0D0000 		.4byte	BS_IDMUX_IRQ_VAL.4901
 4543 0514 20       		.uleb128 0x20
 4544 0515 BD040000 		.4byte	0x4bd
 4545 0519 24050000 		.4byte	0x524
 4546 051d 21       		.uleb128 0x21
 4547 051e 76000000 		.4byte	0x76
 4548 0522 01       		.byte	0x1
 4549 0523 00       		.byte	0
 4550 0524 1B       		.uleb128 0x1b
 4551 0525 08040000 		.4byte	.LASF60
 4552 0529 01       		.byte	0x1
 4553 052a AE07     		.2byte	0x7ae
 4554 052c 36050000 		.4byte	0x536
 4555 0530 05       		.uleb128 0x5
 4556 0531 03       		.byte	0x3
 4557 0532 2C000000 		.4byte	cfg_memcpy_list.4902
 4558 0536 10       		.uleb128 0x10
 4559 0537 14050000 		.4byte	0x514
 4560 053b 22       		.uleb128 0x22
 4561 053c 6900     		.ascii	"i\000"
 4562 053e 01       		.byte	0x1
 4563 053f B407     		.2byte	0x7b4
 4564 0541 86000000 		.4byte	0x86
 4565 0545 F6010000 		.4byte	.LLST15
 4566 0549 23       		.uleb128 0x23
 4567 054a 00000000 		.4byte	.Ldebug_ranges0+0
 4568 054e 76050000 		.4byte	0x576
 4569 0552 22       		.uleb128 0x22
 4570 0553 6D7300   		.ascii	"ms\000"
 4571 0556 01       		.byte	0x1
 4572 0557 B907     		.2byte	0x7b9
 4573 0559 61050000 		.4byte	0x561
 4574 055d 50020000 		.4byte	.LLST16
 4575 0561 0F       		.uleb128 0xf
 4576 0562 04       		.byte	0x4
 4577 0563 67050000 		.4byte	0x567
 4578 0567 10       		.uleb128 0x10
 4579 0568 80040000 		.4byte	0x480
 4580 056c 24       		.uleb128 0x24
 4581 056d 1A000000 		.4byte	.LVL34
 4582 0571 D5010000 		.4byte	0x1d5
 4583 0575 00       		.byte	0
 4584 0576 1C       		.uleb128 0x1c
 4585 0577 24000000 		.4byte	.LBB6
 4586 057b 16000000 		.4byte	.LBE6-.LBB6
 4587 057f D7050000 		.4byte	0x5d7
 4588 0583 22       		.uleb128 0x22
ARM GAS  C:\Users\xavieran\AppData\Local\Temp\ccJfmadl.s 			page 118


 4589 0584 6D6300   		.ascii	"mc\000"
 4590 0587 01       		.byte	0x1
 4591 0588 C007     		.2byte	0x7c0
 4592 058a 92050000 		.4byte	0x592
 4593 058e 8E020000 		.4byte	.LLST17
 4594 0592 0F       		.uleb128 0xf
 4595 0593 04       		.byte	0x4
 4596 0594 98050000 		.4byte	0x598
 4597 0598 10       		.uleb128 0x10
 4598 0599 BD040000 		.4byte	0x4bd
 4599 059d 12       		.uleb128 0x12
 4600 059e D6020000 		.4byte	.LASF61
 4601 05a2 01       		.byte	0x1
 4602 05a3 C107     		.2byte	0x7c1
 4603 05a5 7D000000 		.4byte	0x7d
 4604 05a9 CC020000 		.4byte	.LLST18
 4605 05ad 12       		.uleb128 0x12
 4606 05ae 8E030000 		.4byte	.LASF62
 4607 05b2 01       		.byte	0x1
 4608 05b3 C207     		.2byte	0x7c2
 4609 05b5 82020000 		.4byte	0x282
 4610 05b9 DF020000 		.4byte	.LLST19
 4611 05bd 12       		.uleb128 0x12
 4612 05be D3010000 		.4byte	.LASF63
 4613 05c2 01       		.byte	0x1
 4614 05c3 C307     		.2byte	0x7c3
 4615 05c5 91000000 		.4byte	0x91
 4616 05c9 F2020000 		.4byte	.LLST20
 4617 05cd 24       		.uleb128 0x24
 4618 05ce 3A000000 		.4byte	.LVL42
 4619 05d2 22020000 		.4byte	0x222
 4620 05d6 00       		.byte	0
 4621 05d7 18       		.uleb128 0x18
 4622 05d8 50000000 		.4byte	.LVL46
 4623 05dc 26010000 		.4byte	0x126
 4624 05e0 F3050000 		.4byte	0x5f3
 4625 05e4 15       		.uleb128 0x15
 4626 05e5 01       		.uleb128 0x1
 4627 05e6 51       		.byte	0x51
 4628 05e7 03       		.uleb128 0x3
 4629 05e8 74       		.byte	0x74
 4630 05e9 E001     		.sleb128 224
 4631 05eb 15       		.uleb128 0x15
 4632 05ec 01       		.uleb128 0x1
 4633 05ed 50       		.byte	0x50
 4634 05ee 03       		.uleb128 0x3
 4635 05ef 74       		.byte	0x74
 4636 05f0 C000     		.sleb128 64
 4637 05f2 00       		.byte	0
 4638 05f3 14       		.uleb128 0x14
 4639 05f4 58000000 		.4byte	.LVL47
 4640 05f8 D5010000 		.4byte	0x1d5
 4641 05fc 15       		.uleb128 0x15
 4642 05fd 01       		.uleb128 0x1
 4643 05fe 51       		.byte	0x51
 4644 05ff 01       		.uleb128 0x1
 4645 0600 34       		.byte	0x34
ARM GAS  C:\Users\xavieran\AppData\Local\Temp\ccJfmadl.s 			page 119


 4646 0601 15       		.uleb128 0x15
 4647 0602 01       		.uleb128 0x1
 4648 0603 50       		.byte	0x50
 4649 0604 05       		.uleb128 0x5
 4650 0605 0C       		.byte	0xc
 4651 0606 00760040 		.4byte	0x40007600
 4652 060a 00       		.byte	0
 4653 060b 00       		.byte	0
 4654 060c 18       		.uleb128 0x18
 4655 060d 8C000000 		.4byte	.LVL48
 4656 0611 22020000 		.4byte	0x222
 4657 0615 2F060000 		.4byte	0x62f
 4658 0619 15       		.uleb128 0x15
 4659 061a 01       		.uleb128 0x1
 4660 061b 52       		.byte	0x52
 4661 061c 01       		.uleb128 0x1
 4662 061d 3A       		.byte	0x3a
 4663 061e 15       		.uleb128 0x15
 4664 061f 01       		.uleb128 0x1
 4665 0620 51       		.byte	0x51
 4666 0621 03       		.uleb128 0x3
 4667 0622 74       		.byte	0x74
 4668 0623 C419     		.sleb128 3268
 4669 0625 15       		.uleb128 0x15
 4670 0626 01       		.uleb128 0x1
 4671 0627 50       		.byte	0x50
 4672 0628 05       		.uleb128 0x5
 4673 0629 0C       		.byte	0xc
 4674 062a 00510040 		.4byte	0x40005100
 4675 062e 00       		.byte	0
 4676 062f 18       		.uleb128 0x18
 4677 0630 98000000 		.4byte	.LVL49
 4678 0634 22020000 		.4byte	0x222
 4679 0638 52060000 		.4byte	0x652
 4680 063c 15       		.uleb128 0x15
 4681 063d 01       		.uleb128 0x1
 4682 063e 52       		.byte	0x52
 4683 063f 01       		.uleb128 0x1
 4684 0640 3A       		.byte	0x3a
 4685 0641 15       		.uleb128 0x15
 4686 0642 01       		.uleb128 0x1
 4687 0643 51       		.byte	0x51
 4688 0644 03       		.uleb128 0x3
 4689 0645 74       		.byte	0x74
 4690 0646 D019     		.sleb128 3280
 4691 0648 15       		.uleb128 0x15
 4692 0649 01       		.uleb128 0x1
 4693 064a 50       		.byte	0x50
 4694 064b 05       		.uleb128 0x5
 4695 064c 0C       		.byte	0xc
 4696 064d C0510040 		.4byte	0x400051c0
 4697 0651 00       		.byte	0
 4698 0652 18       		.uleb128 0x18
 4699 0653 A4000000 		.4byte	.LVL50
 4700 0657 22020000 		.4byte	0x222
 4701 065b 75060000 		.4byte	0x675
 4702 065f 15       		.uleb128 0x15
ARM GAS  C:\Users\xavieran\AppData\Local\Temp\ccJfmadl.s 			page 120


 4703 0660 01       		.uleb128 0x1
 4704 0661 52       		.byte	0x52
 4705 0662 01       		.uleb128 0x1
 4706 0663 3A       		.byte	0x3a
 4707 0664 15       		.uleb128 0x15
 4708 0665 01       		.uleb128 0x1
 4709 0666 51       		.byte	0x51
 4710 0667 03       		.uleb128 0x3
 4711 0668 74       		.byte	0x74
 4712 0669 DC19     		.sleb128 3292
 4713 066b 15       		.uleb128 0x15
 4714 066c 01       		.uleb128 0x1
 4715 066d 50       		.byte	0x50
 4716 066e 05       		.uleb128 0x5
 4717 066f 0C       		.byte	0xc
 4718 0670 F0510040 		.4byte	0x400051f0
 4719 0674 00       		.byte	0
 4720 0675 18       		.uleb128 0x18
 4721 0676 B0000000 		.4byte	.LVL51
 4722 067a 22020000 		.4byte	0x222
 4723 067e 98060000 		.4byte	0x698
 4724 0682 15       		.uleb128 0x15
 4725 0683 01       		.uleb128 0x1
 4726 0684 52       		.byte	0x52
 4727 0685 01       		.uleb128 0x1
 4728 0686 3A       		.byte	0x3a
 4729 0687 15       		.uleb128 0x15
 4730 0688 01       		.uleb128 0x1
 4731 0689 51       		.byte	0x51
 4732 068a 03       		.uleb128 0x3
 4733 068b 74       		.byte	0x74
 4734 068c E819     		.sleb128 3304
 4735 068e 15       		.uleb128 0x15
 4736 068f 01       		.uleb128 0x1
 4737 0690 50       		.byte	0x50
 4738 0691 05       		.uleb128 0x5
 4739 0692 0C       		.byte	0xc
 4740 0693 10510040 		.4byte	0x40005110
 4741 0697 00       		.byte	0
 4742 0698 18       		.uleb128 0x18
 4743 0699 BC000000 		.4byte	.LVL52
 4744 069d 22020000 		.4byte	0x222
 4745 06a1 BB060000 		.4byte	0x6bb
 4746 06a5 15       		.uleb128 0x15
 4747 06a6 01       		.uleb128 0x1
 4748 06a7 52       		.byte	0x52
 4749 06a8 01       		.uleb128 0x1
 4750 06a9 3A       		.byte	0x3a
 4751 06aa 15       		.uleb128 0x15
 4752 06ab 01       		.uleb128 0x1
 4753 06ac 51       		.byte	0x51
 4754 06ad 03       		.uleb128 0x3
 4755 06ae 74       		.byte	0x74
 4756 06af F419     		.sleb128 3316
 4757 06b1 15       		.uleb128 0x15
 4758 06b2 01       		.uleb128 0x1
 4759 06b3 50       		.byte	0x50
ARM GAS  C:\Users\xavieran\AppData\Local\Temp\ccJfmadl.s 			page 121


 4760 06b4 05       		.uleb128 0x5
 4761 06b5 0C       		.byte	0xc
 4762 06b6 20510040 		.4byte	0x40005120
 4763 06ba 00       		.byte	0
 4764 06bb 18       		.uleb128 0x18
 4765 06bc C8000000 		.4byte	.LVL53
 4766 06c0 22020000 		.4byte	0x222
 4767 06c4 DE060000 		.4byte	0x6de
 4768 06c8 15       		.uleb128 0x15
 4769 06c9 01       		.uleb128 0x1
 4770 06ca 52       		.byte	0x52
 4771 06cb 01       		.uleb128 0x1
 4772 06cc 3A       		.byte	0x3a
 4773 06cd 15       		.uleb128 0x15
 4774 06ce 01       		.uleb128 0x1
 4775 06cf 51       		.byte	0x51
 4776 06d0 03       		.uleb128 0x3
 4777 06d1 74       		.byte	0x74
 4778 06d2 801A     		.sleb128 3328
 4779 06d4 15       		.uleb128 0x15
 4780 06d5 01       		.uleb128 0x1
 4781 06d6 50       		.byte	0x50
 4782 06d7 05       		.uleb128 0x5
 4783 06d8 0C       		.byte	0xc
 4784 06d9 30510040 		.4byte	0x40005130
 4785 06dd 00       		.byte	0
 4786 06de 18       		.uleb128 0x18
 4787 06df D4000000 		.4byte	.LVL54
 4788 06e3 22020000 		.4byte	0x222
 4789 06e7 01070000 		.4byte	0x701
 4790 06eb 15       		.uleb128 0x15
 4791 06ec 01       		.uleb128 0x1
 4792 06ed 52       		.byte	0x52
 4793 06ee 01       		.uleb128 0x1
 4794 06ef 38       		.byte	0x38
 4795 06f0 15       		.uleb128 0x15
 4796 06f1 01       		.uleb128 0x1
 4797 06f2 51       		.byte	0x51
 4798 06f3 03       		.uleb128 0x3
 4799 06f4 74       		.byte	0x74
 4800 06f5 8C1A     		.sleb128 3340
 4801 06f7 15       		.uleb128 0x15
 4802 06f8 01       		.uleb128 0x1
 4803 06f9 50       		.byte	0x50
 4804 06fa 05       		.uleb128 0x5
 4805 06fb 0C       		.byte	0xc
 4806 06fc 42510040 		.4byte	0x40005142
 4807 0700 00       		.byte	0
 4808 0701 18       		.uleb128 0x18
 4809 0702 E0000000 		.4byte	.LVL55
 4810 0706 22020000 		.4byte	0x222
 4811 070a 24070000 		.4byte	0x724
 4812 070e 15       		.uleb128 0x15
 4813 070f 01       		.uleb128 0x1
 4814 0710 52       		.byte	0x52
 4815 0711 01       		.uleb128 0x1
 4816 0712 38       		.byte	0x38
ARM GAS  C:\Users\xavieran\AppData\Local\Temp\ccJfmadl.s 			page 122


 4817 0713 15       		.uleb128 0x15
 4818 0714 01       		.uleb128 0x1
 4819 0715 51       		.byte	0x51
 4820 0716 03       		.uleb128 0x3
 4821 0717 74       		.byte	0x74
 4822 0718 941A     		.sleb128 3348
 4823 071a 15       		.uleb128 0x15
 4824 071b 01       		.uleb128 0x1
 4825 071c 50       		.byte	0x50
 4826 071d 05       		.uleb128 0x5
 4827 071e 0C       		.byte	0xc
 4828 071f 52510040 		.4byte	0x40005152
 4829 0723 00       		.byte	0
 4830 0724 18       		.uleb128 0x18
 4831 0725 EC000000 		.4byte	.LVL56
 4832 0729 22020000 		.4byte	0x222
 4833 072d 47070000 		.4byte	0x747
 4834 0731 15       		.uleb128 0x15
 4835 0732 01       		.uleb128 0x1
 4836 0733 52       		.byte	0x52
 4837 0734 01       		.uleb128 0x1
 4838 0735 38       		.byte	0x38
 4839 0736 15       		.uleb128 0x15
 4840 0737 01       		.uleb128 0x1
 4841 0738 51       		.byte	0x51
 4842 0739 03       		.uleb128 0x3
 4843 073a 74       		.byte	0x74
 4844 073b 9C1A     		.sleb128 3356
 4845 073d 15       		.uleb128 0x15
 4846 073e 01       		.uleb128 0x1
 4847 073f 50       		.byte	0x50
 4848 0740 05       		.uleb128 0x5
 4849 0741 0C       		.byte	0xc
 4850 0742 62510040 		.4byte	0x40005162
 4851 0746 00       		.byte	0
 4852 0747 24       		.uleb128 0x24
 4853 0748 0A010000 		.4byte	.LVL57
 4854 074c E9020000 		.4byte	0x2e9
 4855 0750 24       		.uleb128 0x24
 4856 0751 12010000 		.4byte	.LVL58
 4857 0755 AE010000 		.4byte	0x1ae
 4858 0759 14       		.uleb128 0x14
 4859 075a 1C010000 		.4byte	.LVL59
 4860 075e 89020000 		.4byte	0x289
 4861 0762 15       		.uleb128 0x15
 4862 0763 01       		.uleb128 0x1
 4863 0764 52       		.byte	0x52
 4864 0765 01       		.uleb128 0x1
 4865 0766 3E       		.byte	0x3e
 4866 0767 15       		.uleb128 0x15
 4867 0768 01       		.uleb128 0x1
 4868 0769 51       		.byte	0x51
 4869 076a 02       		.uleb128 0x2
 4870 076b 75       		.byte	0x75
 4871 076c 00       		.sleb128 0
 4872 076d 15       		.uleb128 0x15
 4873 076e 01       		.uleb128 0x1
ARM GAS  C:\Users\xavieran\AppData\Local\Temp\ccJfmadl.s 			page 123


 4874 076f 50       		.byte	0x50
 4875 0770 05       		.uleb128 0x5
 4876 0771 0C       		.byte	0xc
 4877 0772 B0430040 		.4byte	0x400043b0
 4878 0776 00       		.byte	0
 4879 0777 00       		.byte	0
 4880 0778 20       		.uleb128 0x20
 4881 0779 86000000 		.4byte	0x86
 4882 077d 88070000 		.4byte	0x788
 4883 0781 21       		.uleb128 0x21
 4884 0782 76000000 		.4byte	0x76
 4885 0786 09       		.byte	0x9
 4886 0787 00       		.byte	0
 4887 0788 10       		.uleb128 0x10
 4888 0789 78070000 		.4byte	0x778
 4889 078d 10       		.uleb128 0x10
 4890 078e 78070000 		.4byte	0x778
 4891 0792 10       		.uleb128 0x10
 4892 0793 78070000 		.4byte	0x778
 4893 0797 10       		.uleb128 0x10
 4894 0798 78070000 		.4byte	0x778
 4895 079c 10       		.uleb128 0x10
 4896 079d 78070000 		.4byte	0x778
 4897 07a1 10       		.uleb128 0x10
 4898 07a2 78070000 		.4byte	0x778
 4899 07a6 20       		.uleb128 0x20
 4900 07a7 86000000 		.4byte	0x86
 4901 07ab B6070000 		.4byte	0x7b6
 4902 07af 21       		.uleb128 0x21
 4903 07b0 76000000 		.4byte	0x76
 4904 07b4 07       		.byte	0x7
 4905 07b5 00       		.byte	0
 4906 07b6 10       		.uleb128 0x10
 4907 07b7 A6070000 		.4byte	0x7a6
 4908 07bb 10       		.uleb128 0x10
 4909 07bc A6070000 		.4byte	0x7a6
 4910 07c0 10       		.uleb128 0x10
 4911 07c1 A6070000 		.4byte	0x7a6
 4912 07c5 20       		.uleb128 0x20
 4913 07c6 9C000000 		.4byte	0x9c
 4914 07ca D5070000 		.4byte	0x7d5
 4915 07ce 21       		.uleb128 0x21
 4916 07cf 76000000 		.4byte	0x76
 4917 07d3 27       		.byte	0x27
 4918 07d4 00       		.byte	0
 4919 07d5 10       		.uleb128 0x10
 4920 07d6 C5070000 		.4byte	0x7c5
 4921 07da 20       		.uleb128 0x20
 4922 07db F8000000 		.4byte	0xf8
 4923 07df EB070000 		.4byte	0x7eb
 4924 07e3 25       		.uleb128 0x25
 4925 07e4 76000000 		.4byte	0x76
 4926 07e8 F105     		.2byte	0x5f1
 4927 07ea 00       		.byte	0
 4928 07eb 10       		.uleb128 0x10
 4929 07ec DA070000 		.4byte	0x7da
 4930 07f0 20       		.uleb128 0x20
ARM GAS  C:\Users\xavieran\AppData\Local\Temp\ccJfmadl.s 			page 124


 4931 07f1 86000000 		.4byte	0x86
 4932 07f5 00080000 		.4byte	0x800
 4933 07f9 21       		.uleb128 0x21
 4934 07fa 76000000 		.4byte	0x76
 4935 07fe 05       		.byte	0x5
 4936 07ff 00       		.byte	0
 4937 0800 10       		.uleb128 0x10
 4938 0801 F0070000 		.4byte	0x7f0
 4939 0805 10       		.uleb128 0x10
 4940 0806 A6070000 		.4byte	0x7a6
 4941 080a 26       		.uleb128 0x26
 4942 080b CB030000 		.4byte	.LASF64
 4943 080f 7D000000 		.4byte	0x7d
 4944 0813 27080000 		.4byte	0x827
 4945 0817 27       		.uleb128 0x27
 4946 0818 7D000000 		.4byte	0x7d
 4947 081c 27       		.uleb128 0x27
 4948 081d 25000000 		.4byte	0x25
 4949 0821 27       		.uleb128 0x27
 4950 0822 76000000 		.4byte	0x76
 4951 0826 00       		.byte	0
 4952 0827 26       		.uleb128 0x26
 4953 0828 81010000 		.4byte	.LASF65
 4954 082c 7D000000 		.4byte	0x7d
 4955 0830 44080000 		.4byte	0x844
 4956 0834 27       		.uleb128 0x27
 4957 0835 7D000000 		.4byte	0x7d
 4958 0839 27       		.uleb128 0x27
 4959 083a 82020000 		.4byte	0x282
 4960 083e 27       		.uleb128 0x27
 4961 083f 76000000 		.4byte	0x76
 4962 0843 00       		.byte	0
 4963 0844 28       		.uleb128 0x28
 4964 0845 C8020000 		.4byte	.LASF69
 4965 0849 04       		.byte	0x4
 4966 084a 7A       		.byte	0x7a
 4967 084b 27       		.uleb128 0x27
 4968 084c 9C000000 		.4byte	0x9c
 4969 0850 00       		.byte	0
 4970 0851 00       		.byte	0
 4971              		.section	.debug_abbrev,"",%progbits
 4972              	.Ldebug_abbrev0:
 4973 0000 01       		.uleb128 0x1
 4974 0001 11       		.uleb128 0x11
 4975 0002 01       		.byte	0x1
 4976 0003 25       		.uleb128 0x25
 4977 0004 0E       		.uleb128 0xe
 4978 0005 13       		.uleb128 0x13
 4979 0006 0B       		.uleb128 0xb
 4980 0007 03       		.uleb128 0x3
 4981 0008 0E       		.uleb128 0xe
 4982 0009 1B       		.uleb128 0x1b
 4983 000a 0E       		.uleb128 0xe
 4984 000b 55       		.uleb128 0x55
 4985 000c 17       		.uleb128 0x17
 4986 000d 11       		.uleb128 0x11
 4987 000e 01       		.uleb128 0x1
ARM GAS  C:\Users\xavieran\AppData\Local\Temp\ccJfmadl.s 			page 125


 4988 000f 10       		.uleb128 0x10
 4989 0010 17       		.uleb128 0x17
 4990 0011 00       		.byte	0
 4991 0012 00       		.byte	0
 4992 0013 02       		.uleb128 0x2
 4993 0014 24       		.uleb128 0x24
 4994 0015 00       		.byte	0
 4995 0016 0B       		.uleb128 0xb
 4996 0017 0B       		.uleb128 0xb
 4997 0018 3E       		.uleb128 0x3e
 4998 0019 0B       		.uleb128 0xb
 4999 001a 03       		.uleb128 0x3
 5000 001b 08       		.uleb128 0x8
 5001 001c 00       		.byte	0
 5002 001d 00       		.byte	0
 5003 001e 03       		.uleb128 0x3
 5004 001f 16       		.uleb128 0x16
 5005 0020 00       		.byte	0
 5006 0021 03       		.uleb128 0x3
 5007 0022 0E       		.uleb128 0xe
 5008 0023 3A       		.uleb128 0x3a
 5009 0024 0B       		.uleb128 0xb
 5010 0025 3B       		.uleb128 0x3b
 5011 0026 0B       		.uleb128 0xb
 5012 0027 49       		.uleb128 0x49
 5013 0028 13       		.uleb128 0x13
 5014 0029 00       		.byte	0
 5015 002a 00       		.byte	0
 5016 002b 04       		.uleb128 0x4
 5017 002c 24       		.uleb128 0x24
 5018 002d 00       		.byte	0
 5019 002e 0B       		.uleb128 0xb
 5020 002f 0B       		.uleb128 0xb
 5021 0030 3E       		.uleb128 0x3e
 5022 0031 0B       		.uleb128 0xb
 5023 0032 03       		.uleb128 0x3
 5024 0033 0E       		.uleb128 0xe
 5025 0034 00       		.byte	0
 5026 0035 00       		.byte	0
 5027 0036 05       		.uleb128 0x5
 5028 0037 0F       		.uleb128 0xf
 5029 0038 00       		.byte	0
 5030 0039 0B       		.uleb128 0xb
 5031 003a 0B       		.uleb128 0xb
 5032 003b 00       		.byte	0
 5033 003c 00       		.byte	0
 5034 003d 06       		.uleb128 0x6
 5035 003e 16       		.uleb128 0x16
 5036 003f 00       		.byte	0
 5037 0040 03       		.uleb128 0x3
 5038 0041 0E       		.uleb128 0xe
 5039 0042 3A       		.uleb128 0x3a
 5040 0043 0B       		.uleb128 0xb
 5041 0044 3B       		.uleb128 0x3b
 5042 0045 05       		.uleb128 0x5
 5043 0046 49       		.uleb128 0x49
 5044 0047 13       		.uleb128 0x13
ARM GAS  C:\Users\xavieran\AppData\Local\Temp\ccJfmadl.s 			page 126


 5045 0048 00       		.byte	0
 5046 0049 00       		.byte	0
 5047 004a 07       		.uleb128 0x7
 5048 004b 35       		.uleb128 0x35
 5049 004c 00       		.byte	0
 5050 004d 49       		.uleb128 0x49
 5051 004e 13       		.uleb128 0x13
 5052 004f 00       		.byte	0
 5053 0050 00       		.byte	0
 5054 0051 08       		.uleb128 0x8
 5055 0052 13       		.uleb128 0x13
 5056 0053 01       		.byte	0x1
 5057 0054 0B       		.uleb128 0xb
 5058 0055 0B       		.uleb128 0xb
 5059 0056 3A       		.uleb128 0x3a
 5060 0057 0B       		.uleb128 0xb
 5061 0058 3B       		.uleb128 0x3b
 5062 0059 0B       		.uleb128 0xb
 5063 005a 01       		.uleb128 0x1
 5064 005b 13       		.uleb128 0x13
 5065 005c 00       		.byte	0
 5066 005d 00       		.byte	0
 5067 005e 09       		.uleb128 0x9
 5068 005f 0D       		.uleb128 0xd
 5069 0060 00       		.byte	0
 5070 0061 03       		.uleb128 0x3
 5071 0062 0E       		.uleb128 0xe
 5072 0063 3A       		.uleb128 0x3a
 5073 0064 0B       		.uleb128 0xb
 5074 0065 3B       		.uleb128 0x3b
 5075 0066 0B       		.uleb128 0xb
 5076 0067 49       		.uleb128 0x49
 5077 0068 13       		.uleb128 0x13
 5078 0069 38       		.uleb128 0x38
 5079 006a 0B       		.uleb128 0xb
 5080 006b 00       		.byte	0
 5081 006c 00       		.byte	0
 5082 006d 0A       		.uleb128 0xa
 5083 006e 2E       		.uleb128 0x2e
 5084 006f 01       		.byte	0x1
 5085 0070 03       		.uleb128 0x3
 5086 0071 0E       		.uleb128 0xe
 5087 0072 3A       		.uleb128 0x3a
 5088 0073 0B       		.uleb128 0xb
 5089 0074 3B       		.uleb128 0x3b
 5090 0075 0B       		.uleb128 0xb
 5091 0076 27       		.uleb128 0x27
 5092 0077 19       		.uleb128 0x19
 5093 0078 11       		.uleb128 0x11
 5094 0079 01       		.uleb128 0x1
 5095 007a 12       		.uleb128 0x12
 5096 007b 06       		.uleb128 0x6
 5097 007c 40       		.uleb128 0x40
 5098 007d 18       		.uleb128 0x18
 5099 007e 9742     		.uleb128 0x2117
 5100 0080 19       		.uleb128 0x19
 5101 0081 01       		.uleb128 0x1
ARM GAS  C:\Users\xavieran\AppData\Local\Temp\ccJfmadl.s 			page 127


 5102 0082 13       		.uleb128 0x13
 5103 0083 00       		.byte	0
 5104 0084 00       		.byte	0
 5105 0085 0B       		.uleb128 0xb
 5106 0086 05       		.uleb128 0x5
 5107 0087 00       		.byte	0
 5108 0088 03       		.uleb128 0x3
 5109 0089 0E       		.uleb128 0xe
 5110 008a 3A       		.uleb128 0x3a
 5111 008b 0B       		.uleb128 0xb
 5112 008c 3B       		.uleb128 0x3b
 5113 008d 0B       		.uleb128 0xb
 5114 008e 49       		.uleb128 0x49
 5115 008f 13       		.uleb128 0x13
 5116 0090 02       		.uleb128 0x2
 5117 0091 18       		.uleb128 0x18
 5118 0092 00       		.byte	0
 5119 0093 00       		.byte	0
 5120 0094 0C       		.uleb128 0xc
 5121 0095 34       		.uleb128 0x34
 5122 0096 00       		.byte	0
 5123 0097 03       		.uleb128 0x3
 5124 0098 08       		.uleb128 0x8
 5125 0099 3A       		.uleb128 0x3a
 5126 009a 0B       		.uleb128 0xb
 5127 009b 3B       		.uleb128 0x3b
 5128 009c 0B       		.uleb128 0xb
 5129 009d 49       		.uleb128 0x49
 5130 009e 13       		.uleb128 0x13
 5131 009f 02       		.uleb128 0x2
 5132 00a0 17       		.uleb128 0x17
 5133 00a1 00       		.byte	0
 5134 00a2 00       		.byte	0
 5135 00a3 0D       		.uleb128 0xd
 5136 00a4 0B       		.uleb128 0xb
 5137 00a5 01       		.byte	0x1
 5138 00a6 11       		.uleb128 0x11
 5139 00a7 01       		.uleb128 0x1
 5140 00a8 12       		.uleb128 0x12
 5141 00a9 06       		.uleb128 0x6
 5142 00aa 00       		.byte	0
 5143 00ab 00       		.byte	0
 5144 00ac 0E       		.uleb128 0xe
 5145 00ad 34       		.uleb128 0x34
 5146 00ae 00       		.byte	0
 5147 00af 03       		.uleb128 0x3
 5148 00b0 0E       		.uleb128 0xe
 5149 00b1 3A       		.uleb128 0x3a
 5150 00b2 0B       		.uleb128 0xb
 5151 00b3 3B       		.uleb128 0x3b
 5152 00b4 0B       		.uleb128 0xb
 5153 00b5 49       		.uleb128 0x49
 5154 00b6 13       		.uleb128 0x13
 5155 00b7 02       		.uleb128 0x2
 5156 00b8 17       		.uleb128 0x17
 5157 00b9 00       		.byte	0
 5158 00ba 00       		.byte	0
ARM GAS  C:\Users\xavieran\AppData\Local\Temp\ccJfmadl.s 			page 128


 5159 00bb 0F       		.uleb128 0xf
 5160 00bc 0F       		.uleb128 0xf
 5161 00bd 00       		.byte	0
 5162 00be 0B       		.uleb128 0xb
 5163 00bf 0B       		.uleb128 0xb
 5164 00c0 49       		.uleb128 0x49
 5165 00c1 13       		.uleb128 0x13
 5166 00c2 00       		.byte	0
 5167 00c3 00       		.byte	0
 5168 00c4 10       		.uleb128 0x10
 5169 00c5 26       		.uleb128 0x26
 5170 00c6 00       		.byte	0
 5171 00c7 49       		.uleb128 0x49
 5172 00c8 13       		.uleb128 0x13
 5173 00c9 00       		.byte	0
 5174 00ca 00       		.byte	0
 5175 00cb 11       		.uleb128 0x11
 5176 00cc 2E       		.uleb128 0x2e
 5177 00cd 01       		.byte	0x1
 5178 00ce 03       		.uleb128 0x3
 5179 00cf 0E       		.uleb128 0xe
 5180 00d0 3A       		.uleb128 0x3a
 5181 00d1 0B       		.uleb128 0xb
 5182 00d2 3B       		.uleb128 0x3b
 5183 00d3 05       		.uleb128 0x5
 5184 00d4 27       		.uleb128 0x27
 5185 00d5 19       		.uleb128 0x19
 5186 00d6 11       		.uleb128 0x11
 5187 00d7 01       		.uleb128 0x1
 5188 00d8 12       		.uleb128 0x12
 5189 00d9 06       		.uleb128 0x6
 5190 00da 40       		.uleb128 0x40
 5191 00db 18       		.uleb128 0x18
 5192 00dc 9742     		.uleb128 0x2117
 5193 00de 19       		.uleb128 0x19
 5194 00df 01       		.uleb128 0x1
 5195 00e0 13       		.uleb128 0x13
 5196 00e1 00       		.byte	0
 5197 00e2 00       		.byte	0
 5198 00e3 12       		.uleb128 0x12
 5199 00e4 34       		.uleb128 0x34
 5200 00e5 00       		.byte	0
 5201 00e6 03       		.uleb128 0x3
 5202 00e7 0E       		.uleb128 0xe
 5203 00e8 3A       		.uleb128 0x3a
 5204 00e9 0B       		.uleb128 0xb
 5205 00ea 3B       		.uleb128 0x3b
 5206 00eb 05       		.uleb128 0x5
 5207 00ec 49       		.uleb128 0x49
 5208 00ed 13       		.uleb128 0x13
 5209 00ee 02       		.uleb128 0x2
 5210 00ef 17       		.uleb128 0x17
 5211 00f0 00       		.byte	0
 5212 00f1 00       		.byte	0
 5213 00f2 13       		.uleb128 0x13
 5214 00f3 05       		.uleb128 0x5
 5215 00f4 00       		.byte	0
ARM GAS  C:\Users\xavieran\AppData\Local\Temp\ccJfmadl.s 			page 129


 5216 00f5 03       		.uleb128 0x3
 5217 00f6 08       		.uleb128 0x8
 5218 00f7 3A       		.uleb128 0x3a
 5219 00f8 0B       		.uleb128 0xb
 5220 00f9 3B       		.uleb128 0x3b
 5221 00fa 0B       		.uleb128 0xb
 5222 00fb 49       		.uleb128 0x49
 5223 00fc 13       		.uleb128 0x13
 5224 00fd 02       		.uleb128 0x2
 5225 00fe 17       		.uleb128 0x17
 5226 00ff 00       		.byte	0
 5227 0100 00       		.byte	0
 5228 0101 14       		.uleb128 0x14
 5229 0102 898201   		.uleb128 0x4109
 5230 0105 01       		.byte	0x1
 5231 0106 11       		.uleb128 0x11
 5232 0107 01       		.uleb128 0x1
 5233 0108 31       		.uleb128 0x31
 5234 0109 13       		.uleb128 0x13
 5235 010a 00       		.byte	0
 5236 010b 00       		.byte	0
 5237 010c 15       		.uleb128 0x15
 5238 010d 8A8201   		.uleb128 0x410a
 5239 0110 00       		.byte	0
 5240 0111 02       		.uleb128 0x2
 5241 0112 18       		.uleb128 0x18
 5242 0113 9142     		.uleb128 0x2111
 5243 0115 18       		.uleb128 0x18
 5244 0116 00       		.byte	0
 5245 0117 00       		.byte	0
 5246 0118 16       		.uleb128 0x16
 5247 0119 05       		.uleb128 0x5
 5248 011a 00       		.byte	0
 5249 011b 03       		.uleb128 0x3
 5250 011c 0E       		.uleb128 0xe
 5251 011d 3A       		.uleb128 0x3a
 5252 011e 0B       		.uleb128 0xb
 5253 011f 3B       		.uleb128 0x3b
 5254 0120 0B       		.uleb128 0xb
 5255 0121 49       		.uleb128 0x49
 5256 0122 13       		.uleb128 0x13
 5257 0123 02       		.uleb128 0x2
 5258 0124 17       		.uleb128 0x17
 5259 0125 00       		.byte	0
 5260 0126 00       		.byte	0
 5261 0127 17       		.uleb128 0x17
 5262 0128 26       		.uleb128 0x26
 5263 0129 00       		.byte	0
 5264 012a 00       		.byte	0
 5265 012b 00       		.byte	0
 5266 012c 18       		.uleb128 0x18
 5267 012d 898201   		.uleb128 0x4109
 5268 0130 01       		.byte	0x1
 5269 0131 11       		.uleb128 0x11
 5270 0132 01       		.uleb128 0x1
 5271 0133 31       		.uleb128 0x31
 5272 0134 13       		.uleb128 0x13
ARM GAS  C:\Users\xavieran\AppData\Local\Temp\ccJfmadl.s 			page 130


 5273 0135 01       		.uleb128 0x1
 5274 0136 13       		.uleb128 0x13
 5275 0137 00       		.byte	0
 5276 0138 00       		.byte	0
 5277 0139 19       		.uleb128 0x19
 5278 013a 2E       		.uleb128 0x2e
 5279 013b 01       		.byte	0x1
 5280 013c 3F       		.uleb128 0x3f
 5281 013d 19       		.uleb128 0x19
 5282 013e 03       		.uleb128 0x3
 5283 013f 0E       		.uleb128 0xe
 5284 0140 3A       		.uleb128 0x3a
 5285 0141 0B       		.uleb128 0xb
 5286 0142 3B       		.uleb128 0x3b
 5287 0143 05       		.uleb128 0x5
 5288 0144 27       		.uleb128 0x27
 5289 0145 19       		.uleb128 0x19
 5290 0146 11       		.uleb128 0x11
 5291 0147 01       		.uleb128 0x1
 5292 0148 12       		.uleb128 0x12
 5293 0149 06       		.uleb128 0x6
 5294 014a 40       		.uleb128 0x40
 5295 014b 18       		.uleb128 0x18
 5296 014c 9742     		.uleb128 0x2117
 5297 014e 19       		.uleb128 0x19
 5298 014f 01       		.uleb128 0x1
 5299 0150 13       		.uleb128 0x13
 5300 0151 00       		.byte	0
 5301 0152 00       		.byte	0
 5302 0153 1A       		.uleb128 0x1a
 5303 0154 05       		.uleb128 0x5
 5304 0155 00       		.byte	0
 5305 0156 03       		.uleb128 0x3
 5306 0157 0E       		.uleb128 0xe
 5307 0158 3A       		.uleb128 0x3a
 5308 0159 0B       		.uleb128 0xb
 5309 015a 3B       		.uleb128 0x3b
 5310 015b 05       		.uleb128 0x5
 5311 015c 49       		.uleb128 0x49
 5312 015d 13       		.uleb128 0x13
 5313 015e 02       		.uleb128 0x2
 5314 015f 18       		.uleb128 0x18
 5315 0160 00       		.byte	0
 5316 0161 00       		.byte	0
 5317 0162 1B       		.uleb128 0x1b
 5318 0163 34       		.uleb128 0x34
 5319 0164 00       		.byte	0
 5320 0165 03       		.uleb128 0x3
 5321 0166 0E       		.uleb128 0xe
 5322 0167 3A       		.uleb128 0x3a
 5323 0168 0B       		.uleb128 0xb
 5324 0169 3B       		.uleb128 0x3b
 5325 016a 05       		.uleb128 0x5
 5326 016b 49       		.uleb128 0x49
 5327 016c 13       		.uleb128 0x13
 5328 016d 02       		.uleb128 0x2
 5329 016e 18       		.uleb128 0x18
ARM GAS  C:\Users\xavieran\AppData\Local\Temp\ccJfmadl.s 			page 131


 5330 016f 00       		.byte	0
 5331 0170 00       		.byte	0
 5332 0171 1C       		.uleb128 0x1c
 5333 0172 0B       		.uleb128 0xb
 5334 0173 01       		.byte	0x1
 5335 0174 11       		.uleb128 0x11
 5336 0175 01       		.uleb128 0x1
 5337 0176 12       		.uleb128 0x12
 5338 0177 06       		.uleb128 0x6
 5339 0178 01       		.uleb128 0x1
 5340 0179 13       		.uleb128 0x13
 5341 017a 00       		.byte	0
 5342 017b 00       		.byte	0
 5343 017c 1D       		.uleb128 0x1d
 5344 017d 13       		.uleb128 0x13
 5345 017e 01       		.byte	0x1
 5346 017f 0B       		.uleb128 0xb
 5347 0180 0B       		.uleb128 0xb
 5348 0181 3A       		.uleb128 0x3a
 5349 0182 0B       		.uleb128 0xb
 5350 0183 3B       		.uleb128 0x3b
 5351 0184 05       		.uleb128 0x5
 5352 0185 01       		.uleb128 0x1
 5353 0186 13       		.uleb128 0x13
 5354 0187 00       		.byte	0
 5355 0188 00       		.byte	0
 5356 0189 1E       		.uleb128 0x1e
 5357 018a 0D       		.uleb128 0xd
 5358 018b 00       		.byte	0
 5359 018c 03       		.uleb128 0x3
 5360 018d 0E       		.uleb128 0xe
 5361 018e 3A       		.uleb128 0x3a
 5362 018f 0B       		.uleb128 0xb
 5363 0190 3B       		.uleb128 0x3b
 5364 0191 05       		.uleb128 0x5
 5365 0192 49       		.uleb128 0x49
 5366 0193 13       		.uleb128 0x13
 5367 0194 38       		.uleb128 0x38
 5368 0195 0B       		.uleb128 0xb
 5369 0196 00       		.byte	0
 5370 0197 00       		.byte	0
 5371 0198 1F       		.uleb128 0x1f
 5372 0199 0D       		.uleb128 0xd
 5373 019a 00       		.byte	0
 5374 019b 03       		.uleb128 0x3
 5375 019c 08       		.uleb128 0x8
 5376 019d 3A       		.uleb128 0x3a
 5377 019e 0B       		.uleb128 0xb
 5378 019f 3B       		.uleb128 0x3b
 5379 01a0 05       		.uleb128 0x5
 5380 01a1 49       		.uleb128 0x49
 5381 01a2 13       		.uleb128 0x13
 5382 01a3 38       		.uleb128 0x38
 5383 01a4 0B       		.uleb128 0xb
 5384 01a5 00       		.byte	0
 5385 01a6 00       		.byte	0
 5386 01a7 20       		.uleb128 0x20
ARM GAS  C:\Users\xavieran\AppData\Local\Temp\ccJfmadl.s 			page 132


 5387 01a8 01       		.uleb128 0x1
 5388 01a9 01       		.byte	0x1
 5389 01aa 49       		.uleb128 0x49
 5390 01ab 13       		.uleb128 0x13
 5391 01ac 01       		.uleb128 0x1
 5392 01ad 13       		.uleb128 0x13
 5393 01ae 00       		.byte	0
 5394 01af 00       		.byte	0
 5395 01b0 21       		.uleb128 0x21
 5396 01b1 21       		.uleb128 0x21
 5397 01b2 00       		.byte	0
 5398 01b3 49       		.uleb128 0x49
 5399 01b4 13       		.uleb128 0x13
 5400 01b5 2F       		.uleb128 0x2f
 5401 01b6 0B       		.uleb128 0xb
 5402 01b7 00       		.byte	0
 5403 01b8 00       		.byte	0
 5404 01b9 22       		.uleb128 0x22
 5405 01ba 34       		.uleb128 0x34
 5406 01bb 00       		.byte	0
 5407 01bc 03       		.uleb128 0x3
 5408 01bd 08       		.uleb128 0x8
 5409 01be 3A       		.uleb128 0x3a
 5410 01bf 0B       		.uleb128 0xb
 5411 01c0 3B       		.uleb128 0x3b
 5412 01c1 05       		.uleb128 0x5
 5413 01c2 49       		.uleb128 0x49
 5414 01c3 13       		.uleb128 0x13
 5415 01c4 02       		.uleb128 0x2
 5416 01c5 17       		.uleb128 0x17
 5417 01c6 00       		.byte	0
 5418 01c7 00       		.byte	0
 5419 01c8 23       		.uleb128 0x23
 5420 01c9 0B       		.uleb128 0xb
 5421 01ca 01       		.byte	0x1
 5422 01cb 55       		.uleb128 0x55
 5423 01cc 17       		.uleb128 0x17
 5424 01cd 01       		.uleb128 0x1
 5425 01ce 13       		.uleb128 0x13
 5426 01cf 00       		.byte	0
 5427 01d0 00       		.byte	0
 5428 01d1 24       		.uleb128 0x24
 5429 01d2 898201   		.uleb128 0x4109
 5430 01d5 00       		.byte	0
 5431 01d6 11       		.uleb128 0x11
 5432 01d7 01       		.uleb128 0x1
 5433 01d8 31       		.uleb128 0x31
 5434 01d9 13       		.uleb128 0x13
 5435 01da 00       		.byte	0
 5436 01db 00       		.byte	0
 5437 01dc 25       		.uleb128 0x25
 5438 01dd 21       		.uleb128 0x21
 5439 01de 00       		.byte	0
 5440 01df 49       		.uleb128 0x49
 5441 01e0 13       		.uleb128 0x13
 5442 01e1 2F       		.uleb128 0x2f
 5443 01e2 05       		.uleb128 0x5
ARM GAS  C:\Users\xavieran\AppData\Local\Temp\ccJfmadl.s 			page 133


 5444 01e3 00       		.byte	0
 5445 01e4 00       		.byte	0
 5446 01e5 26       		.uleb128 0x26
 5447 01e6 2E       		.uleb128 0x2e
 5448 01e7 01       		.byte	0x1
 5449 01e8 3F       		.uleb128 0x3f
 5450 01e9 19       		.uleb128 0x19
 5451 01ea 03       		.uleb128 0x3
 5452 01eb 0E       		.uleb128 0xe
 5453 01ec 27       		.uleb128 0x27
 5454 01ed 19       		.uleb128 0x19
 5455 01ee 49       		.uleb128 0x49
 5456 01ef 13       		.uleb128 0x13
 5457 01f0 34       		.uleb128 0x34
 5458 01f1 19       		.uleb128 0x19
 5459 01f2 3C       		.uleb128 0x3c
 5460 01f3 19       		.uleb128 0x19
 5461 01f4 01       		.uleb128 0x1
 5462 01f5 13       		.uleb128 0x13
 5463 01f6 00       		.byte	0
 5464 01f7 00       		.byte	0
 5465 01f8 27       		.uleb128 0x27
 5466 01f9 05       		.uleb128 0x5
 5467 01fa 00       		.byte	0
 5468 01fb 49       		.uleb128 0x49
 5469 01fc 13       		.uleb128 0x13
 5470 01fd 00       		.byte	0
 5471 01fe 00       		.byte	0
 5472 01ff 28       		.uleb128 0x28
 5473 0200 2E       		.uleb128 0x2e
 5474 0201 01       		.byte	0x1
 5475 0202 3F       		.uleb128 0x3f
 5476 0203 19       		.uleb128 0x19
 5477 0204 03       		.uleb128 0x3
 5478 0205 0E       		.uleb128 0xe
 5479 0206 3A       		.uleb128 0x3a
 5480 0207 0B       		.uleb128 0xb
 5481 0208 3B       		.uleb128 0x3b
 5482 0209 0B       		.uleb128 0xb
 5483 020a 27       		.uleb128 0x27
 5484 020b 19       		.uleb128 0x19
 5485 020c 3C       		.uleb128 0x3c
 5486 020d 19       		.uleb128 0x19
 5487 020e 00       		.byte	0
 5488 020f 00       		.byte	0
 5489 0210 00       		.byte	0
 5490              		.section	.debug_loc,"",%progbits
 5491              	.Ldebug_loc0:
 5492              	.LLST0:
 5493 0000 02000000 		.4byte	.LVL2
 5494 0004 08000000 		.4byte	.LVL3
 5495 0008 0200     		.2byte	0x2
 5496 000a 30       		.byte	0x30
 5497 000b 9F       		.byte	0x9f
 5498 000c 08000000 		.4byte	.LVL3
 5499 0010 32000000 		.4byte	.LVL11
 5500 0014 0100     		.2byte	0x1
ARM GAS  C:\Users\xavieran\AppData\Local\Temp\ccJfmadl.s 			page 134


 5501 0016 57       		.byte	0x57
 5502 0017 00000000 		.4byte	0
 5503 001b 00000000 		.4byte	0
 5504              	.LLST1:
 5505 001f 02000000 		.4byte	.LVL2
 5506 0023 08000000 		.4byte	.LVL3
 5507 0027 0200     		.2byte	0x2
 5508 0029 30       		.byte	0x30
 5509 002a 9F       		.byte	0x9f
 5510 002b 08000000 		.4byte	.LVL3
 5511 002f 34000000 		.4byte	.LFE4
 5512 0033 0100     		.2byte	0x1
 5513 0035 53       		.byte	0x53
 5514 0036 00000000 		.4byte	0
 5515 003a 00000000 		.4byte	0
 5516              	.LLST2:
 5517 003e 0C000000 		.4byte	.LVL4
 5518 0042 2C000000 		.4byte	.LVL10
 5519 0046 0100     		.2byte	0x1
 5520 0048 56       		.byte	0x56
 5521 0049 00000000 		.4byte	0
 5522 004d 00000000 		.4byte	0
 5523              	.LLST3:
 5524 0051 0E000000 		.4byte	.LVL5
 5525 0055 12000000 		.4byte	.LVL6
 5526 0059 0100     		.2byte	0x1
 5527 005b 56       		.byte	0x56
 5528 005c 12000000 		.4byte	.LVL6
 5529 0060 24000000 		.4byte	.LVL8
 5530 0064 0100     		.2byte	0x1
 5531 0066 52       		.byte	0x52
 5532 0067 24000000 		.4byte	.LVL8
 5533 006b 26000000 		.4byte	.LVL9
 5534 006f 0300     		.2byte	0x3
 5535 0071 72       		.byte	0x72
 5536 0072 01       		.sleb128 1
 5537 0073 9F       		.byte	0x9f
 5538 0074 26000000 		.4byte	.LVL9
 5539 0078 2C000000 		.4byte	.LVL10
 5540 007c 0100     		.2byte	0x1
 5541 007e 52       		.byte	0x52
 5542 007f 00000000 		.4byte	0
 5543 0083 00000000 		.4byte	0
 5544              	.LLST4:
 5545 0087 06000000 		.4byte	.LVL12
 5546 008b 10000000 		.4byte	.LVL13
 5547 008f 0100     		.2byte	0x1
 5548 0091 53       		.byte	0x53
 5549 0092 00000000 		.4byte	0
 5550 0096 00000000 		.4byte	0
 5551              	.LLST5:
 5552 009a 00000000 		.4byte	.LVL14
 5553 009e 09000000 		.4byte	.LVL16-1
 5554 00a2 0100     		.2byte	0x1
 5555 00a4 50       		.byte	0x50
 5556 00a5 09000000 		.4byte	.LVL16-1
 5557 00a9 0C000000 		.4byte	.LFE0
ARM GAS  C:\Users\xavieran\AppData\Local\Temp\ccJfmadl.s 			page 135


 5558 00ad 0400     		.2byte	0x4
 5559 00af F3       		.byte	0xf3
 5560 00b0 01       		.uleb128 0x1
 5561 00b1 50       		.byte	0x50
 5562 00b2 9F       		.byte	0x9f
 5563 00b3 00000000 		.4byte	0
 5564 00b7 00000000 		.4byte	0
 5565              	.LLST6:
 5566 00bb 00000000 		.4byte	.LVL14
 5567 00bf 06000000 		.4byte	.LVL15
 5568 00c3 0100     		.2byte	0x1
 5569 00c5 51       		.byte	0x51
 5570 00c6 06000000 		.4byte	.LVL15
 5571 00ca 09000000 		.4byte	.LVL16-1
 5572 00ce 0100     		.2byte	0x1
 5573 00d0 52       		.byte	0x52
 5574 00d1 09000000 		.4byte	.LVL16-1
 5575 00d5 0C000000 		.4byte	.LFE0
 5576 00d9 0400     		.2byte	0x4
 5577 00db F3       		.byte	0xf3
 5578 00dc 01       		.uleb128 0x1
 5579 00dd 51       		.byte	0x51
 5580 00de 9F       		.byte	0x9f
 5581 00df 00000000 		.4byte	0
 5582 00e3 00000000 		.4byte	0
 5583              	.LLST7:
 5584 00e7 00000000 		.4byte	.LVL17
 5585 00eb 05000000 		.4byte	.LVL18-1
 5586 00ef 0100     		.2byte	0x1
 5587 00f1 50       		.byte	0x50
 5588 00f2 05000000 		.4byte	.LVL18-1
 5589 00f6 08000000 		.4byte	.LFE2
 5590 00fa 0400     		.2byte	0x4
 5591 00fc F3       		.byte	0xf3
 5592 00fd 01       		.uleb128 0x1
 5593 00fe 50       		.byte	0x50
 5594 00ff 9F       		.byte	0x9f
 5595 0100 00000000 		.4byte	0
 5596 0104 00000000 		.4byte	0
 5597              	.LLST8:
 5598 0108 00000000 		.4byte	.LVL17
 5599 010c 05000000 		.4byte	.LVL18-1
 5600 0110 0100     		.2byte	0x1
 5601 0112 51       		.byte	0x51
 5602 0113 05000000 		.4byte	.LVL18-1
 5603 0117 08000000 		.4byte	.LFE2
 5604 011b 0400     		.2byte	0x4
 5605 011d F3       		.byte	0xf3
 5606 011e 01       		.uleb128 0x1
 5607 011f 51       		.byte	0x51
 5608 0120 9F       		.byte	0x9f
 5609 0121 00000000 		.4byte	0
 5610 0125 00000000 		.4byte	0
 5611              	.LLST9:
 5612 0129 00000000 		.4byte	.LVL17
 5613 012d 05000000 		.4byte	.LVL18-1
 5614 0131 0100     		.2byte	0x1
ARM GAS  C:\Users\xavieran\AppData\Local\Temp\ccJfmadl.s 			page 136


 5615 0133 52       		.byte	0x52
 5616 0134 05000000 		.4byte	.LVL18-1
 5617 0138 08000000 		.4byte	.LFE2
 5618 013c 0400     		.2byte	0x4
 5619 013e F3       		.byte	0xf3
 5620 013f 01       		.uleb128 0x1
 5621 0140 52       		.byte	0x52
 5622 0141 9F       		.byte	0x9f
 5623 0142 00000000 		.4byte	0
 5624 0146 00000000 		.4byte	0
 5625              	.LLST10:
 5626 014a 00000000 		.4byte	.LVL19
 5627 014e 05000000 		.4byte	.LVL20-1
 5628 0152 0100     		.2byte	0x1
 5629 0154 50       		.byte	0x50
 5630 0155 05000000 		.4byte	.LVL20-1
 5631 0159 08000000 		.4byte	.LFE1
 5632 015d 0400     		.2byte	0x4
 5633 015f F3       		.byte	0xf3
 5634 0160 01       		.uleb128 0x1
 5635 0161 50       		.byte	0x50
 5636 0162 9F       		.byte	0x9f
 5637 0163 00000000 		.4byte	0
 5638 0167 00000000 		.4byte	0
 5639              	.LLST11:
 5640 016b 00000000 		.4byte	.LVL19
 5641 016f 05000000 		.4byte	.LVL20-1
 5642 0173 0100     		.2byte	0x1
 5643 0175 51       		.byte	0x51
 5644 0176 05000000 		.4byte	.LVL20-1
 5645 017a 08000000 		.4byte	.LFE1
 5646 017e 0400     		.2byte	0x4
 5647 0180 F3       		.byte	0xf3
 5648 0181 01       		.uleb128 0x1
 5649 0182 51       		.byte	0x51
 5650 0183 9F       		.byte	0x9f
 5651 0184 00000000 		.4byte	0
 5652 0188 00000000 		.4byte	0
 5653              	.LLST12:
 5654 018c 00000000 		.4byte	.LVL19
 5655 0190 05000000 		.4byte	.LVL20-1
 5656 0194 0100     		.2byte	0x1
 5657 0196 52       		.byte	0x52
 5658 0197 05000000 		.4byte	.LVL20-1
 5659 019b 08000000 		.4byte	.LFE1
 5660 019f 0400     		.2byte	0x4
 5661 01a1 F3       		.byte	0xf3
 5662 01a2 01       		.uleb128 0x1
 5663 01a3 52       		.byte	0x52
 5664 01a4 9F       		.byte	0x9f
 5665 01a5 00000000 		.4byte	0
 5666 01a9 00000000 		.4byte	0
 5667              	.LLST13:
 5668 01ad 70000000 		.4byte	.LVL21
 5669 01b1 7A000000 		.4byte	.LVL22
 5670 01b5 0200     		.2byte	0x2
 5671 01b7 49       		.byte	0x49
ARM GAS  C:\Users\xavieran\AppData\Local\Temp\ccJfmadl.s 			page 137


 5672 01b8 9F       		.byte	0x9f
 5673 01b9 7A000000 		.4byte	.LVL22
 5674 01bd D0000000 		.4byte	.LVL28
 5675 01c1 0100     		.2byte	0x1
 5676 01c3 54       		.byte	0x54
 5677 01c4 00000000 		.4byte	0
 5678 01c8 00000000 		.4byte	0
 5679              	.LLST14:
 5680 01cc 70000000 		.4byte	.LVL21
 5681 01d0 7A000000 		.4byte	.LVL22
 5682 01d4 0200     		.2byte	0x2
 5683 01d6 30       		.byte	0x30
 5684 01d7 9F       		.byte	0x9f
 5685 01d8 7A000000 		.4byte	.LVL22
 5686 01dc 84000000 		.4byte	.LVL23
 5687 01e0 0100     		.2byte	0x1
 5688 01e2 55       		.byte	0x55
 5689 01e3 88000000 		.4byte	.LVL24
 5690 01e7 D0000000 		.4byte	.LVL28
 5691 01eb 0100     		.2byte	0x1
 5692 01ed 55       		.byte	0x55
 5693 01ee 00000000 		.4byte	0
 5694 01f2 00000000 		.4byte	0
 5695              	.LLST15:
 5696 01f6 04000000 		.4byte	.LVL31
 5697 01fa 0A000000 		.4byte	.LVL32
 5698 01fe 0200     		.2byte	0x2
 5699 0200 30       		.byte	0x30
 5700 0201 9F       		.byte	0x9f
 5701 0202 0A000000 		.4byte	.LVL32
 5702 0206 1C000000 		.4byte	.LVL35
 5703 020a 0100     		.2byte	0x1
 5704 020c 54       		.byte	0x54
 5705 020d 1C000000 		.4byte	.LVL35
 5706 0211 1E000000 		.4byte	.LVL36
 5707 0215 0300     		.2byte	0x3
 5708 0217 74       		.byte	0x74
 5709 0218 7F       		.sleb128 -1
 5710 0219 9F       		.byte	0x9f
 5711 021a 1E000000 		.4byte	.LVL36
 5712 021e 24000000 		.4byte	.LVL37
 5713 0222 0100     		.2byte	0x1
 5714 0224 54       		.byte	0x54
 5715 0225 28000000 		.4byte	.LVL38
 5716 0229 3C000000 		.4byte	.LVL43
 5717 022d 0100     		.2byte	0x1
 5718 022f 54       		.byte	0x54
 5719 0230 3C000000 		.4byte	.LVL43
 5720 0234 3E000000 		.4byte	.LVL44
 5721 0238 0300     		.2byte	0x3
 5722 023a 74       		.byte	0x74
 5723 023b 7F       		.sleb128 -1
 5724 023c 9F       		.byte	0x9f
 5725 023d 3E000000 		.4byte	.LVL44
 5726 0241 44000000 		.4byte	.LVL45
 5727 0245 0100     		.2byte	0x1
 5728 0247 54       		.byte	0x54
ARM GAS  C:\Users\xavieran\AppData\Local\Temp\ccJfmadl.s 			page 138


 5729 0248 00000000 		.4byte	0
 5730 024c 00000000 		.4byte	0
 5731              	.LLST16:
 5732 0250 12000000 		.4byte	.LVL33
 5733 0254 19000000 		.4byte	.LVL34-1
 5734 0258 0100     		.2byte	0x1
 5735 025a 53       		.byte	0x53
 5736 025b 19000000 		.4byte	.LVL34-1
 5737 025f 1C000000 		.4byte	.LVL35
 5738 0263 0D00     		.2byte	0xd
 5739 0265 74       		.byte	0x74
 5740 0266 00       		.sleb128 0
 5741 0267 31       		.byte	0x31
 5742 0268 24       		.byte	0x24
 5743 0269 74       		.byte	0x74
 5744 026a 00       		.sleb128 0
 5745 026b 22       		.byte	0x22
 5746 026c 31       		.byte	0x31
 5747 026d 24       		.byte	0x24
 5748 026e 75       		.byte	0x75
 5749 026f 00       		.sleb128 0
 5750 0270 22       		.byte	0x22
 5751 0271 9F       		.byte	0x9f
 5752 0272 1C000000 		.4byte	.LVL35
 5753 0276 1E000000 		.4byte	.LVL36
 5754 027a 0A00     		.2byte	0xa
 5755 027c 74       		.byte	0x74
 5756 027d 7F       		.sleb128 -1
 5757 027e 33       		.byte	0x33
 5758 027f 1E       		.byte	0x1e
 5759 0280 31       		.byte	0x31
 5760 0281 24       		.byte	0x24
 5761 0282 75       		.byte	0x75
 5762 0283 00       		.sleb128 0
 5763 0284 22       		.byte	0x22
 5764 0285 9F       		.byte	0x9f
 5765 0286 00000000 		.4byte	0
 5766 028a 00000000 		.4byte	0
 5767              	.LLST17:
 5768 028e 30000000 		.4byte	.LVL39
 5769 0292 39000000 		.4byte	.LVL42-1
 5770 0296 0100     		.2byte	0x1
 5771 0298 53       		.byte	0x53
 5772 0299 39000000 		.4byte	.LVL42-1
 5773 029d 3C000000 		.4byte	.LVL43
 5774 02a1 0D00     		.2byte	0xd
 5775 02a3 74       		.byte	0x74
 5776 02a4 00       		.sleb128 0
 5777 02a5 32       		.byte	0x32
 5778 02a6 24       		.byte	0x24
 5779 02a7 74       		.byte	0x74
 5780 02a8 00       		.sleb128 0
 5781 02a9 22       		.byte	0x22
 5782 02aa 31       		.byte	0x31
 5783 02ab 24       		.byte	0x24
 5784 02ac 75       		.byte	0x75
 5785 02ad 00       		.sleb128 0
ARM GAS  C:\Users\xavieran\AppData\Local\Temp\ccJfmadl.s 			page 139


 5786 02ae 22       		.byte	0x22
 5787 02af 9F       		.byte	0x9f
 5788 02b0 3C000000 		.4byte	.LVL43
 5789 02b4 3E000000 		.4byte	.LVL44
 5790 02b8 0A00     		.2byte	0xa
 5791 02ba 74       		.byte	0x74
 5792 02bb 7F       		.sleb128 -1
 5793 02bc 35       		.byte	0x35
 5794 02bd 1E       		.byte	0x1e
 5795 02be 31       		.byte	0x31
 5796 02bf 24       		.byte	0x24
 5797 02c0 75       		.byte	0x75
 5798 02c1 00       		.sleb128 0
 5799 02c2 22       		.byte	0x22
 5800 02c3 9F       		.byte	0x9f
 5801 02c4 00000000 		.4byte	0
 5802 02c8 00000000 		.4byte	0
 5803              	.LLST18:
 5804 02cc 32000000 		.4byte	.LVL40
 5805 02d0 39000000 		.4byte	.LVL42-1
 5806 02d4 0100     		.2byte	0x1
 5807 02d6 50       		.byte	0x50
 5808 02d7 00000000 		.4byte	0
 5809 02db 00000000 		.4byte	0
 5810              	.LLST19:
 5811 02df 34000000 		.4byte	.LVL41
 5812 02e3 39000000 		.4byte	.LVL42-1
 5813 02e7 0100     		.2byte	0x1
 5814 02e9 51       		.byte	0x51
 5815 02ea 00000000 		.4byte	0
 5816 02ee 00000000 		.4byte	0
 5817              	.LLST20:
 5818 02f2 30000000 		.4byte	.LVL39
 5819 02f6 39000000 		.4byte	.LVL42-1
 5820 02fa 0200     		.2byte	0x2
 5821 02fc 73       		.byte	0x73
 5822 02fd 08       		.sleb128 8
 5823 02fe 00000000 		.4byte	0
 5824 0302 00000000 		.4byte	0
 5825              		.section	.debug_aranges,"",%progbits
 5826 0000 5C000000 		.4byte	0x5c
 5827 0004 0200     		.2byte	0x2
 5828 0006 00000000 		.4byte	.Ldebug_info0
 5829 000a 04       		.byte	0x4
 5830 000b 00       		.byte	0
 5831 000c 0000     		.2byte	0
 5832 000e 0000     		.2byte	0
 5833 0010 00000000 		.4byte	.LFB3
 5834 0014 02000000 		.4byte	.LFE3-.LFB3
 5835 0018 00000000 		.4byte	.LFB4
 5836 001c 34000000 		.4byte	.LFE4-.LFB4
 5837 0020 00000000 		.4byte	.LFB6
 5838 0024 28000000 		.4byte	.LFE6-.LFB6
 5839 0028 00000000 		.4byte	.LFB0
 5840 002c 0C000000 		.4byte	.LFE0-.LFB0
 5841 0030 00000000 		.4byte	.LFB2
 5842 0034 08000000 		.4byte	.LFE2-.LFB2
ARM GAS  C:\Users\xavieran\AppData\Local\Temp\ccJfmadl.s 			page 140


 5843 0038 00000000 		.4byte	.LFB1
 5844 003c 08000000 		.4byte	.LFE1-.LFB1
 5845 0040 00000000 		.4byte	.LFB5
 5846 0044 F4000000 		.4byte	.LFE5-.LFB5
 5847 0048 00000000 		.4byte	.LFB7
 5848 004c 10000000 		.4byte	.LFE7-.LFB7
 5849 0050 00000000 		.4byte	.LFB8
 5850 0054 68010000 		.4byte	.LFE8-.LFB8
 5851 0058 00000000 		.4byte	0
 5852 005c 00000000 		.4byte	0
 5853              		.section	.debug_ranges,"",%progbits
 5854              	.Ldebug_ranges0:
 5855 0000 06000000 		.4byte	.LBB4
 5856 0004 08000000 		.4byte	.LBE4
 5857 0008 0A000000 		.4byte	.LBB5
 5858 000c 1A000000 		.4byte	.LBE5
 5859 0010 00000000 		.4byte	0
 5860 0014 00000000 		.4byte	0
 5861 0018 00000000 		.4byte	.LFB3
 5862 001c 02000000 		.4byte	.LFE3
 5863 0020 00000000 		.4byte	.LFB4
 5864 0024 34000000 		.4byte	.LFE4
 5865 0028 00000000 		.4byte	.LFB6
 5866 002c 28000000 		.4byte	.LFE6
 5867 0030 00000000 		.4byte	.LFB0
 5868 0034 0C000000 		.4byte	.LFE0
 5869 0038 00000000 		.4byte	.LFB2
 5870 003c 08000000 		.4byte	.LFE2
 5871 0040 00000000 		.4byte	.LFB1
 5872 0044 08000000 		.4byte	.LFE1
 5873 0048 00000000 		.4byte	.LFB5
 5874 004c F4000000 		.4byte	.LFE5
 5875 0050 00000000 		.4byte	.LFB7
 5876 0054 10000000 		.4byte	.LFE7
 5877 0058 00000000 		.4byte	.LFB8
 5878 005c 68010000 		.4byte	.LFE8
 5879 0060 00000000 		.4byte	0
 5880 0064 00000000 		.4byte	0
 5881              		.section	.debug_line,"",%progbits
 5882              	.Ldebug_line0:
 5883 0000 1B020000 		.section	.debug_str,"MS",%progbits,1
 5883      0200D800 
 5883      00000201 
 5883      FB0E0D00 
 5883      01010101 
 5884              	.LASF28:
 5885 0000 636F756E 		.ascii	"count\000"
 5885      7400
 5886              	.LASF13:
 5887 0006 75696E74 		.ascii	"uint16\000"
 5887      313600
 5888              	.LASF27:
 5889 000d 62617365 		.ascii	"baseAddr\000"
 5889      41646472 
 5889      00
 5890              	.LASF66:
 5891 0016 474E5520 		.ascii	"GNU C 4.8.4 20140526 (release) [ARM/embedded-4_8-br"
ARM GAS  C:\Users\xavieran\AppData\Local\Temp\ccJfmadl.s 			page 141


 5891      4320342E 
 5891      382E3420 
 5891      32303134 
 5891      30353236 
 5892 0049 616E6368 		.ascii	"anch revision 211358] -mcpu=cortex-m3 -mthumb -g -O"
 5892      20726576 
 5892      6973696F 
 5892      6E203231 
 5892      31333538 
 5893 007c 67202D66 		.ascii	"g -ffunction-sections\000"
 5893      66756E63 
 5893      74696F6E 
 5893      2D736563 
 5893      74696F6E 
 5894              	.LASF11:
 5895 0092 73697A65 		.ascii	"size_t\000"
 5895      5F7400
 5896              	.LASF22:
 5897 0099 4379436C 		.ascii	"CyClockStartupError\000"
 5897      6F636B53 
 5897      74617274 
 5897      75704572 
 5897      726F7200 
 5898              	.LASF43:
 5899 00ad 42535F49 		.ascii	"BS_IOPINS0_7_VAL\000"
 5899      4F50494E 
 5899      53305F37 
 5899      5F56414C 
 5899      00
 5900              	.LASF26:
 5901 00be 64617461 		.ascii	"data_table\000"
 5901      5F746162 
 5901      6C6500
 5902              	.LASF8:
 5903 00c9 6C6F6E67 		.ascii	"long long unsigned int\000"
 5903      206C6F6E 
 5903      6720756E 
 5903      7369676E 
 5903      65642069 
 5904              	.LASF25:
 5905 00e0 61646472 		.ascii	"addr_table\000"
 5905      5F746162 
 5905      6C6500
 5906              	.LASF52:
 5907 00eb 63795F63 		.ascii	"cy_cfg_data_table\000"
 5907      66675F64 
 5907      6174615F 
 5907      7461626C 
 5907      6500
 5908              	.LASF29:
 5909 00fd 416E616C 		.ascii	"AnalogSetDefault\000"
 5909      6F675365 
 5909      74446566 
 5909      61756C74 
 5909      00
 5910              	.LASF7:
 5911 010e 6C6F6E67 		.ascii	"long long int\000"
ARM GAS  C:\Users\xavieran\AppData\Local\Temp\ccJfmadl.s 			page 142


 5911      206C6F6E 
 5911      6720696E 
 5911      7400
 5912              	.LASF1:
 5913 011c 7369676E 		.ascii	"signed char\000"
 5913      65642063 
 5913      68617200 
 5914              	.LASF51:
 5915 0128 63795F63 		.ascii	"cy_cfg_addr_table\000"
 5915      66675F61 
 5915      6464725F 
 5915      7461626C 
 5915      6500
 5916              	.LASF23:
 5917 013a 6366675F 		.ascii	"cfg_write_bytes32\000"
 5917      77726974 
 5917      655F6279 
 5917      74657333 
 5917      3200
 5918              	.LASF35:
 5919 014c 436C6F63 		.ascii	"ClockSetup\000"
 5919      6B536574 
 5919      757000
 5920              	.LASF24:
 5921 0157 6572726F 		.ascii	"errorCode\000"
 5921      72436F64 
 5921      6500
 5922              	.LASF48:
 5923 0161 42535F49 		.ascii	"BS_IOPINS0_4_VAL\000"
 5923      4F50494E 
 5923      53305F34 
 5923      5F56414C 
 5923      00
 5924              	.LASF5:
 5925 0172 6C6F6E67 		.ascii	"long int\000"
 5925      20696E74 
 5925      00
 5926              	.LASF18:
 5927 017b 72656731 		.ascii	"reg16\000"
 5927      3600
 5928              	.LASF65:
 5929 0181 6D656D63 		.ascii	"memcpy\000"
 5929      707900
 5930              	.LASF12:
 5931 0188 75696E74 		.ascii	"uint8\000"
 5931      3800
 5932              	.LASF16:
 5933 018e 646F7562 		.ascii	"double\000"
 5933      6C6500
 5934              	.LASF31:
 5935 0195 43594D45 		.ascii	"CYMEMZERO\000"
 5935      4D5A4552 
 5935      4F00
 5936              	.LASF14:
 5937 019f 75696E74 		.ascii	"uint32\000"
 5937      333200
 5938              	.LASF39:
ARM GAS  C:\Users\xavieran\AppData\Local\Temp\ccJfmadl.s 			page 143


 5939 01a6 72656756 		.ascii	"regValue\000"
 5939      616C7565 
 5939      00
 5940              	.LASF45:
 5941 01af 42535F49 		.ascii	"BS_IOPINS0_1_VAL\000"
 5941      4F50494E 
 5941      53305F31 
 5941      5F56414C 
 5941      00
 5942              	.LASF20:
 5943 01c0 76616C75 		.ascii	"value\000"
 5943      6500
 5944              	.LASF0:
 5945 01c6 756E7369 		.ascii	"unsigned int\000"
 5945      676E6564 
 5945      20696E74 
 5945      00
 5946              	.LASF63:
 5947 01d3 6E756D42 		.ascii	"numBytes\000"
 5947      79746573 
 5947      00
 5948              	.LASF67:
 5949 01dc 2E5C4765 		.ascii	".\\Generated_Source\\PSoC5\\cyfitter_cfg.c\000"
 5949      6E657261 
 5949      7465645F 
 5949      536F7572 
 5949      63655C50 
 5950              	.LASF6:
 5951 0204 6C6F6E67 		.ascii	"long unsigned int\000"
 5951      20756E73 
 5951      69676E65 
 5951      6420696E 
 5951      7400
 5952              	.LASF36:
 5953 0216 74696D65 		.ascii	"timeout\000"
 5953      6F757400 
 5954              	.LASF56:
 5955 021e 6366675F 		.ascii	"cfg_memcpy_t\000"
 5955      6D656D63 
 5955      70795F74 
 5955      00
 5956              	.LASF54:
 5957 022b 73697A65 		.ascii	"size\000"
 5957      00
 5958              	.LASF4:
 5959 0230 73686F72 		.ascii	"short unsigned int\000"
 5959      7420756E 
 5959      7369676E 
 5959      65642069 
 5959      6E7400
 5960              	.LASF50:
 5961 0243 42535F49 		.ascii	"BS_IOPINS0_6_VAL\000"
 5961      4F50494E 
 5961      53305F36 
 5961      5F56414C 
 5961      00
 5962              	.LASF32:
ARM GAS  C:\Users\xavieran\AppData\Local\Temp\ccJfmadl.s 			page 144


 5963 0254 4359434F 		.ascii	"CYCONFIGCPYCODE\000"
 5963      4E464947 
 5963      43505943 
 5963      4F444500 
 5964              	.LASF9:
 5965 0264 73697A65 		.ascii	"sizetype\000"
 5965      74797065 
 5965      00
 5966              	.LASF30:
 5967 026d 62675F78 		.ascii	"bg_xover_inl_trim\000"
 5967      6F766572 
 5967      5F696E6C 
 5967      5F747269 
 5967      6D00
 5968              	.LASF55:
 5969 027f 6366675F 		.ascii	"cfg_memset_t\000"
 5969      6D656D73 
 5969      65745F74 
 5969      00
 5970              	.LASF57:
 5971 028c 6366675F 		.ascii	"cfg_memset_list\000"
 5971      6D656D73 
 5971      65745F6C 
 5971      69737400 
 5972              	.LASF47:
 5973 029c 42535F49 		.ascii	"BS_IOPINS0_3_VAL\000"
 5973      4F50494E 
 5973      53305F33 
 5973      5F56414C 
 5973      00
 5974              	.LASF33:
 5975 02ad 64657374 		.ascii	"dest\000"
 5975      00
 5976              	.LASF15:
 5977 02b2 666C6F61 		.ascii	"float\000"
 5977      7400
 5978              	.LASF58:
 5979 02b8 42535F49 		.ascii	"BS_IOPORT_7_VAL\000"
 5979      4F504F52 
 5979      545F375F 
 5979      56414C00 
 5980              	.LASF69:
 5981 02c8 43794465 		.ascii	"CyDelayCycles\000"
 5981      6C617943 
 5981      79636C65 
 5981      7300
 5982              	.LASF61:
 5983 02d6 64657374 		.ascii	"destPtr\000"
 5983      50747200 
 5984              	.LASF17:
 5985 02de 72656738 		.ascii	"reg8\000"
 5985      00
 5986              	.LASF2:
 5987 02e3 756E7369 		.ascii	"unsigned char\000"
 5987      676E6564 
 5987      20636861 
 5987      7200
ARM GAS  C:\Users\xavieran\AppData\Local\Temp\ccJfmadl.s 			page 145


 5988              	.LASF3:
 5989 02f1 73686F72 		.ascii	"short int\000"
 5989      7420696E 
 5989      7400
 5990              	.LASF42:
 5991 02fb 42535F49 		.ascii	"BS_IOPINS0_0_VAL\000"
 5991      4F50494E 
 5991      53305F30 
 5991      5F56414C 
 5991      00
 5992              	.LASF37:
 5993 030c 706C6C4C 		.ascii	"pllLock\000"
 5993      6F636B00 
 5994              	.LASF44:
 5995 0314 42535F49 		.ascii	"BS_IOPINS0_8_VAL\000"
 5995      4F50494E 
 5995      53305F38 
 5995      5F56414C 
 5995      00
 5996              	.LASF21:
 5997 0325 63795F63 		.ascii	"cy_cfg_addrvalue_t\000"
 5997      66675F61 
 5997      64647276 
 5997      616C7565 
 5997      5F7400
 5998              	.LASF68:
 5999 0338 433A5C55 		.ascii	"C:\\Users\\xavieran\\Desktop\\ECE3091\\PSOCProjects"
 5999      73657273 
 5999      5C786176 
 5999      69657261 
 5999      6E5C4465 
 6000 0366 5C454E47 		.ascii	"\\ENG3091_MandM\\ENG3091_MandM.cydsn\000"
 6000      33303931 
 6000      5F4D616E 
 6000      644D5C45 
 6000      4E473330 
 6001              	.LASF10:
 6002 0389 63686172 		.ascii	"char\000"
 6002      00
 6003              	.LASF62:
 6004 038e 73726350 		.ascii	"srcPtr\000"
 6004      747200
 6005              	.LASF40:
 6006 0395 53657441 		.ascii	"SetAnalogRoutingPumps\000"
 6006      6E616C6F 
 6006      67526F75 
 6006      74696E67 
 6006      50756D70 
 6007              	.LASF19:
 6008 03ab 6F666673 		.ascii	"offset\000"
 6008      657400
 6009              	.LASF49:
 6010 03b2 42535F49 		.ascii	"BS_IOPINS0_5_VAL\000"
 6010      4F50494E 
 6010      53305F35 
 6010      5F56414C 
 6010      00
ARM GAS  C:\Users\xavieran\AppData\Local\Temp\ccJfmadl.s 			page 146


 6011              	.LASF38:
 6012 03c3 656E6162 		.ascii	"enabled\000"
 6012      6C656400 
 6013              	.LASF64:
 6014 03cb 6D656D73 		.ascii	"memset\000"
 6014      657400
 6015              	.LASF34:
 6016 03d2 4359434F 		.ascii	"CYCONFIGCPY\000"
 6016      4E464947 
 6016      43505900 
 6017              	.LASF53:
 6018 03de 61646472 		.ascii	"address\000"
 6018      65737300 
 6019              	.LASF46:
 6020 03e6 42535F49 		.ascii	"BS_IOPINS0_2_VAL\000"
 6020      4F50494E 
 6020      53305F32 
 6020      5F56414C 
 6020      00
 6021              	.LASF59:
 6022 03f7 42535F49 		.ascii	"BS_IDMUX_IRQ_VAL\000"
 6022      444D5558 
 6022      5F495251 
 6022      5F56414C 
 6022      00
 6023              	.LASF60:
 6024 0408 6366675F 		.ascii	"cfg_memcpy_list\000"
 6024      6D656D63 
 6024      70795F6C 
 6024      69737400 
 6025              	.LASF41:
 6026 0418 63796669 		.ascii	"cyfitter_cfg\000"
 6026      74746572 
 6026      5F636667 
 6026      00
 6027              		.ident	"GCC: (GNU Tools for ARM Embedded Processors) 4.8.4 20140526 (release) [ARM/embedded-4_8-br
