ARM GAS  C:\Users\xavieran\AppData\Local\Temp\ccbEwKhF.s 			page 1


   1              		.syntax unified
   2              		.cpu cortex-m3
   3              		.fpu softvfp
   4              		.eabi_attribute 20, 1
   5              		.eabi_attribute 21, 1
   6              		.eabi_attribute 23, 3
   7              		.eabi_attribute 24, 1
   8              		.eabi_attribute 25, 1
   9              		.eabi_attribute 26, 1
  10              		.eabi_attribute 30, 1
  11              		.eabi_attribute 34, 1
  12              		.eabi_attribute 18, 4
  13              		.thumb
  14              		.file	"cyfitter_cfg.c"
  15              		.text
  16              	.Ltext0:
  17              		.cfi_sections	.debug_frame
  18              		.section	.text.CyClockStartupError,"ax",%progbits
  19              		.align	2
  20              		.thumb
  21              		.thumb_func
  22              		.type	CyClockStartupError, %function
  23              	CyClockStartupError:
  24              	.LFB3:
  25              		.file 1 ".\\Generated_Source\\PSoC5\\cyfitter_cfg.c"
   1:.\Generated_Source\PSoC5/cyfitter_cfg.c **** /*******************************************************************************
   2:.\Generated_Source\PSoC5/cyfitter_cfg.c **** * FILENAME: cyfitter_cfg.c
   3:.\Generated_Source\PSoC5/cyfitter_cfg.c **** * 
   4:.\Generated_Source\PSoC5/cyfitter_cfg.c **** * PSoC Creator  3.2
   5:.\Generated_Source\PSoC5/cyfitter_cfg.c **** *
   6:.\Generated_Source\PSoC5/cyfitter_cfg.c **** * DESCRIPTION:
   7:.\Generated_Source\PSoC5/cyfitter_cfg.c **** * This file contains device initialization code.
   8:.\Generated_Source\PSoC5/cyfitter_cfg.c **** * Except for the user defined sections in CyClockStartupError(), this file should not be modified.
   9:.\Generated_Source\PSoC5/cyfitter_cfg.c **** * This file is automatically generated by PSoC Creator.
  10:.\Generated_Source\PSoC5/cyfitter_cfg.c **** *
  11:.\Generated_Source\PSoC5/cyfitter_cfg.c **** ********************************************************************************
  12:.\Generated_Source\PSoC5/cyfitter_cfg.c **** * Copyright (c) 2007-2015 Cypress Semiconductor.  All rights reserved.
  13:.\Generated_Source\PSoC5/cyfitter_cfg.c **** * You may use this file only in accordance with the license, terms, conditions, 
  14:.\Generated_Source\PSoC5/cyfitter_cfg.c **** * disclaimers, and limitations in the end user license agreement accompanying 
  15:.\Generated_Source\PSoC5/cyfitter_cfg.c **** * the software package with which this file was provided.
  16:.\Generated_Source\PSoC5/cyfitter_cfg.c **** ********************************************************************************/
  17:.\Generated_Source\PSoC5/cyfitter_cfg.c **** 
  18:.\Generated_Source\PSoC5/cyfitter_cfg.c **** #include <string.h>
  19:.\Generated_Source\PSoC5/cyfitter_cfg.c **** #include "cytypes.h"
  20:.\Generated_Source\PSoC5/cyfitter_cfg.c **** #include "cydevice_trm.h"
  21:.\Generated_Source\PSoC5/cyfitter_cfg.c **** #include "cyfitter.h"
  22:.\Generated_Source\PSoC5/cyfitter_cfg.c **** #include "CyLib.h"
  23:.\Generated_Source\PSoC5/cyfitter_cfg.c **** #include "cyfitter_cfg.h"
  24:.\Generated_Source\PSoC5/cyfitter_cfg.c **** 
  25:.\Generated_Source\PSoC5/cyfitter_cfg.c **** #define CY_NEED_CYCLOCKSTARTUPERROR 1
  26:.\Generated_Source\PSoC5/cyfitter_cfg.c **** 
  27:.\Generated_Source\PSoC5/cyfitter_cfg.c **** 
  28:.\Generated_Source\PSoC5/cyfitter_cfg.c **** #if defined(__GNUC__) || defined(__ARMCC_VERSION)
  29:.\Generated_Source\PSoC5/cyfitter_cfg.c ****     #define CYPACKED 
  30:.\Generated_Source\PSoC5/cyfitter_cfg.c ****     #define CYPACKED_ATTR __attribute__ ((packed))
  31:.\Generated_Source\PSoC5/cyfitter_cfg.c ****     #define CYALIGNED __attribute__ ((aligned))
  32:.\Generated_Source\PSoC5/cyfitter_cfg.c ****     #define CY_CFG_UNUSED __attribute__ ((unused))
ARM GAS  C:\Users\xavieran\AppData\Local\Temp\ccbEwKhF.s 			page 2


  33:.\Generated_Source\PSoC5/cyfitter_cfg.c ****     #define CY_CFG_SECTION __attribute__ ((section(".psocinit")))
  34:.\Generated_Source\PSoC5/cyfitter_cfg.c ****     
  35:.\Generated_Source\PSoC5/cyfitter_cfg.c ****     #if defined(__ARMCC_VERSION)
  36:.\Generated_Source\PSoC5/cyfitter_cfg.c ****         #define CY_CFG_MEMORY_BARRIER() __memory_changed()
  37:.\Generated_Source\PSoC5/cyfitter_cfg.c ****     #else
  38:.\Generated_Source\PSoC5/cyfitter_cfg.c ****         #define CY_CFG_MEMORY_BARRIER() __sync_synchronize()
  39:.\Generated_Source\PSoC5/cyfitter_cfg.c ****     #endif
  40:.\Generated_Source\PSoC5/cyfitter_cfg.c ****     
  41:.\Generated_Source\PSoC5/cyfitter_cfg.c **** #elif defined(__ICCARM__)
  42:.\Generated_Source\PSoC5/cyfitter_cfg.c ****     #include <intrinsics.h>
  43:.\Generated_Source\PSoC5/cyfitter_cfg.c **** 
  44:.\Generated_Source\PSoC5/cyfitter_cfg.c ****     #define CYPACKED __packed
  45:.\Generated_Source\PSoC5/cyfitter_cfg.c ****     #define CYPACKED_ATTR 
  46:.\Generated_Source\PSoC5/cyfitter_cfg.c ****     #define CYALIGNED _Pragma("data_alignment=4")
  47:.\Generated_Source\PSoC5/cyfitter_cfg.c ****     #define CY_CFG_UNUSED _Pragma("diag_suppress=Pe177")
  48:.\Generated_Source\PSoC5/cyfitter_cfg.c ****     #define CY_CFG_SECTION _Pragma("location=\".psocinit\"")
  49:.\Generated_Source\PSoC5/cyfitter_cfg.c ****     
  50:.\Generated_Source\PSoC5/cyfitter_cfg.c ****     #define CY_CFG_MEMORY_BARRIER() __DMB()
  51:.\Generated_Source\PSoC5/cyfitter_cfg.c ****     
  52:.\Generated_Source\PSoC5/cyfitter_cfg.c **** #else
  53:.\Generated_Source\PSoC5/cyfitter_cfg.c ****     #error Unsupported toolchain
  54:.\Generated_Source\PSoC5/cyfitter_cfg.c **** #endif
  55:.\Generated_Source\PSoC5/cyfitter_cfg.c **** 
  56:.\Generated_Source\PSoC5/cyfitter_cfg.c **** 
  57:.\Generated_Source\PSoC5/cyfitter_cfg.c **** CY_CFG_UNUSED
  58:.\Generated_Source\PSoC5/cyfitter_cfg.c **** static void CYMEMZERO(void *s, size_t n);
  59:.\Generated_Source\PSoC5/cyfitter_cfg.c **** CY_CFG_UNUSED
  60:.\Generated_Source\PSoC5/cyfitter_cfg.c **** static void CYMEMZERO(void *s, size_t n)
  61:.\Generated_Source\PSoC5/cyfitter_cfg.c **** {
  62:.\Generated_Source\PSoC5/cyfitter_cfg.c **** 	(void)memset(s, 0, n);
  63:.\Generated_Source\PSoC5/cyfitter_cfg.c **** }
  64:.\Generated_Source\PSoC5/cyfitter_cfg.c **** CY_CFG_UNUSED
  65:.\Generated_Source\PSoC5/cyfitter_cfg.c **** static void CYCONFIGCPY(void *dest, const void *src, size_t n);
  66:.\Generated_Source\PSoC5/cyfitter_cfg.c **** CY_CFG_UNUSED
  67:.\Generated_Source\PSoC5/cyfitter_cfg.c **** static void CYCONFIGCPY(void *dest, const void *src, size_t n)
  68:.\Generated_Source\PSoC5/cyfitter_cfg.c **** {
  69:.\Generated_Source\PSoC5/cyfitter_cfg.c **** 	(void)memcpy(dest, src, n);
  70:.\Generated_Source\PSoC5/cyfitter_cfg.c **** }
  71:.\Generated_Source\PSoC5/cyfitter_cfg.c **** CY_CFG_UNUSED
  72:.\Generated_Source\PSoC5/cyfitter_cfg.c **** static void CYCONFIGCPYCODE(void *dest, const void *src, size_t n);
  73:.\Generated_Source\PSoC5/cyfitter_cfg.c **** CY_CFG_UNUSED
  74:.\Generated_Source\PSoC5/cyfitter_cfg.c **** static void CYCONFIGCPYCODE(void *dest, const void *src, size_t n)
  75:.\Generated_Source\PSoC5/cyfitter_cfg.c **** {
  76:.\Generated_Source\PSoC5/cyfitter_cfg.c **** 	(void)memcpy(dest, src, n);
  77:.\Generated_Source\PSoC5/cyfitter_cfg.c **** }
  78:.\Generated_Source\PSoC5/cyfitter_cfg.c **** 
  79:.\Generated_Source\PSoC5/cyfitter_cfg.c **** 
  80:.\Generated_Source\PSoC5/cyfitter_cfg.c **** 
  81:.\Generated_Source\PSoC5/cyfitter_cfg.c **** /* Clock startup error codes                                                   */
  82:.\Generated_Source\PSoC5/cyfitter_cfg.c **** #define CYCLOCKSTART_NO_ERROR    0u
  83:.\Generated_Source\PSoC5/cyfitter_cfg.c **** #define CYCLOCKSTART_XTAL_ERROR  1u
  84:.\Generated_Source\PSoC5/cyfitter_cfg.c **** #define CYCLOCKSTART_32KHZ_ERROR 2u
  85:.\Generated_Source\PSoC5/cyfitter_cfg.c **** #define CYCLOCKSTART_PLL_ERROR   3u
  86:.\Generated_Source\PSoC5/cyfitter_cfg.c **** 
  87:.\Generated_Source\PSoC5/cyfitter_cfg.c **** #ifdef CY_NEED_CYCLOCKSTARTUPERROR
  88:.\Generated_Source\PSoC5/cyfitter_cfg.c **** /*******************************************************************************
  89:.\Generated_Source\PSoC5/cyfitter_cfg.c **** * Function Name: CyClockStartupError
ARM GAS  C:\Users\xavieran\AppData\Local\Temp\ccbEwKhF.s 			page 3


  90:.\Generated_Source\PSoC5/cyfitter_cfg.c **** ********************************************************************************
  91:.\Generated_Source\PSoC5/cyfitter_cfg.c **** * Summary:
  92:.\Generated_Source\PSoC5/cyfitter_cfg.c **** *  If an error is encountered during clock configuration (crystal startup error,
  93:.\Generated_Source\PSoC5/cyfitter_cfg.c **** *  PLL lock error, etc.), the system will end up here.  Unless reimplemented by
  94:.\Generated_Source\PSoC5/cyfitter_cfg.c **** *  the customer, this function will stop in an infinite loop.
  95:.\Generated_Source\PSoC5/cyfitter_cfg.c **** *
  96:.\Generated_Source\PSoC5/cyfitter_cfg.c **** * Parameters:
  97:.\Generated_Source\PSoC5/cyfitter_cfg.c **** *   void
  98:.\Generated_Source\PSoC5/cyfitter_cfg.c **** *
  99:.\Generated_Source\PSoC5/cyfitter_cfg.c **** * Return:
 100:.\Generated_Source\PSoC5/cyfitter_cfg.c **** *   void
 101:.\Generated_Source\PSoC5/cyfitter_cfg.c **** *
 102:.\Generated_Source\PSoC5/cyfitter_cfg.c **** *******************************************************************************/
 103:.\Generated_Source\PSoC5/cyfitter_cfg.c **** CY_CFG_UNUSED
 104:.\Generated_Source\PSoC5/cyfitter_cfg.c **** static void CyClockStartupError(uint8 errorCode);
 105:.\Generated_Source\PSoC5/cyfitter_cfg.c **** CY_CFG_UNUSED
 106:.\Generated_Source\PSoC5/cyfitter_cfg.c **** static void CyClockStartupError(uint8 errorCode)
 107:.\Generated_Source\PSoC5/cyfitter_cfg.c **** {
  26              		.loc 1 107 0
  27              		.cfi_startproc
  28              		@ Volatile: function does not return.
  29              		@ args = 0, pretend = 0, frame = 0
  30              		@ frame_needed = 0, uses_anonymous_args = 0
  31              		@ link register save eliminated.
  32              	.LVL0:
  33              	.L2:
  34 0000 FEE7     		b	.L2
  35              		.cfi_endproc
  36              	.LFE3:
  37              		.size	CyClockStartupError, .-CyClockStartupError
  38 0002 00BF     		.section	.text.cfg_write_bytes32,"ax",%progbits
  39              		.align	2
  40              		.thumb
  41              		.thumb_func
  42              		.type	cfg_write_bytes32, %function
  43              	cfg_write_bytes32:
  44              	.LFB4:
 108:.\Generated_Source\PSoC5/cyfitter_cfg.c ****     /* To remove the compiler warning if errorCode not used.                */
 109:.\Generated_Source\PSoC5/cyfitter_cfg.c ****     errorCode = errorCode;
 110:.\Generated_Source\PSoC5/cyfitter_cfg.c **** 
 111:.\Generated_Source\PSoC5/cyfitter_cfg.c ****     /* `#START CyClockStartupError` */
 112:.\Generated_Source\PSoC5/cyfitter_cfg.c **** 
 113:.\Generated_Source\PSoC5/cyfitter_cfg.c ****     /* If we have a clock startup error (bad MHz crystal, PLL lock, etc.),  */
 114:.\Generated_Source\PSoC5/cyfitter_cfg.c ****     /* we will end up here to allow the customer to implement something to  */
 115:.\Generated_Source\PSoC5/cyfitter_cfg.c ****     /* deal with the clock condition.                                       */
 116:.\Generated_Source\PSoC5/cyfitter_cfg.c **** 
 117:.\Generated_Source\PSoC5/cyfitter_cfg.c ****     /* `#END` */
 118:.\Generated_Source\PSoC5/cyfitter_cfg.c **** 
 119:.\Generated_Source\PSoC5/cyfitter_cfg.c ****     /* If nothing else, stop here since the clocks have not started         */
 120:.\Generated_Source\PSoC5/cyfitter_cfg.c ****     /* correctly.                                                           */
 121:.\Generated_Source\PSoC5/cyfitter_cfg.c ****     while(1) {}
 122:.\Generated_Source\PSoC5/cyfitter_cfg.c **** }
 123:.\Generated_Source\PSoC5/cyfitter_cfg.c **** #endif
 124:.\Generated_Source\PSoC5/cyfitter_cfg.c **** 
 125:.\Generated_Source\PSoC5/cyfitter_cfg.c **** #define CY_CFG_BASE_ADDR_COUNT 35u
 126:.\Generated_Source\PSoC5/cyfitter_cfg.c **** CYPACKED typedef struct
 127:.\Generated_Source\PSoC5/cyfitter_cfg.c **** {
ARM GAS  C:\Users\xavieran\AppData\Local\Temp\ccbEwKhF.s 			page 4


 128:.\Generated_Source\PSoC5/cyfitter_cfg.c **** 	uint8 offset;
 129:.\Generated_Source\PSoC5/cyfitter_cfg.c **** 	uint8 value;
 130:.\Generated_Source\PSoC5/cyfitter_cfg.c **** } CYPACKED_ATTR cy_cfg_addrvalue_t;
 131:.\Generated_Source\PSoC5/cyfitter_cfg.c **** 
 132:.\Generated_Source\PSoC5/cyfitter_cfg.c **** 
 133:.\Generated_Source\PSoC5/cyfitter_cfg.c **** 
 134:.\Generated_Source\PSoC5/cyfitter_cfg.c **** /*******************************************************************************
 135:.\Generated_Source\PSoC5/cyfitter_cfg.c **** * Function Name: cfg_write_bytes32
 136:.\Generated_Source\PSoC5/cyfitter_cfg.c **** ********************************************************************************
 137:.\Generated_Source\PSoC5/cyfitter_cfg.c **** * Summary:
 138:.\Generated_Source\PSoC5/cyfitter_cfg.c **** *  This function is used for setting up the chip configuration areas that
 139:.\Generated_Source\PSoC5/cyfitter_cfg.c **** *  contain relatively sparse data.
 140:.\Generated_Source\PSoC5/cyfitter_cfg.c **** *
 141:.\Generated_Source\PSoC5/cyfitter_cfg.c **** * Parameters:
 142:.\Generated_Source\PSoC5/cyfitter_cfg.c **** *   void
 143:.\Generated_Source\PSoC5/cyfitter_cfg.c **** *
 144:.\Generated_Source\PSoC5/cyfitter_cfg.c **** * Return:
 145:.\Generated_Source\PSoC5/cyfitter_cfg.c **** *   void
 146:.\Generated_Source\PSoC5/cyfitter_cfg.c **** *
 147:.\Generated_Source\PSoC5/cyfitter_cfg.c **** *******************************************************************************/
 148:.\Generated_Source\PSoC5/cyfitter_cfg.c **** static void cfg_write_bytes32(const uint32 addr_table[], const cy_cfg_addrvalue_t data_table[]);
 149:.\Generated_Source\PSoC5/cyfitter_cfg.c **** static void cfg_write_bytes32(const uint32 addr_table[], const cy_cfg_addrvalue_t data_table[])
 150:.\Generated_Source\PSoC5/cyfitter_cfg.c **** {
  45              		.loc 1 150 0
  46              		.cfi_startproc
  47              		@ args = 0, pretend = 0, frame = 0
  48              		@ frame_needed = 0, uses_anonymous_args = 0
  49              		@ link register save eliminated.
  50              	.LVL1:
  51              		.loc 1 150 0
  52 0000 F0B4     		push	{r4, r5, r6, r7}
  53              		.cfi_def_cfa_offset 16
  54              		.cfi_offset 4, -16
  55              		.cfi_offset 5, -12
  56              		.cfi_offset 6, -8
  57              		.cfi_offset 7, -4
  58              	.LVL2:
 151:.\Generated_Source\PSoC5/cyfitter_cfg.c **** 	/* For 32-bit little-endian architectures */
 152:.\Generated_Source\PSoC5/cyfitter_cfg.c **** 	uint32 i, j = 0u;
  59              		.loc 1 152 0
  60 0002 0023     		movs	r3, #0
 153:.\Generated_Source\PSoC5/cyfitter_cfg.c **** 	for (i = 0u; i < CY_CFG_BASE_ADDR_COUNT; i++)
  61              		.loc 1 153 0
  62 0004 1F46     		mov	r7, r3
  63 0006 11E0     		b	.L4
  64              	.LVL3:
  65              	.L7:
  66              	.LBB2:
 154:.\Generated_Source\PSoC5/cyfitter_cfg.c **** 	{
 155:.\Generated_Source\PSoC5/cyfitter_cfg.c **** 		uint32 baseAddr = addr_table[i];
  67              		.loc 1 155 0
  68 0008 50F82760 		ldr	r6, [r0, r7, lsl #2]
  69              	.LVL4:
 156:.\Generated_Source\PSoC5/cyfitter_cfg.c **** 		uint8 count = (uint8)baseAddr;
  70              		.loc 1 156 0
  71 000c F2B2     		uxtb	r2, r6
  72              	.LVL5:
ARM GAS  C:\Users\xavieran\AppData\Local\Temp\ccbEwKhF.s 			page 5


 157:.\Generated_Source\PSoC5/cyfitter_cfg.c **** 		baseAddr &= 0xFFFFFF00u;
  73              		.loc 1 157 0
  74 000e 26F0FF06 		bic	r6, r6, #255
  75              	.LVL6:
 158:.\Generated_Source\PSoC5/cyfitter_cfg.c **** 		while (count != 0u)
  76              		.loc 1 158 0
  77 0012 08E0     		b	.L5
  78              	.L6:
 159:.\Generated_Source\PSoC5/cyfitter_cfg.c **** 		{
 160:.\Generated_Source\PSoC5/cyfitter_cfg.c **** 			CY_SET_XTND_REG8((void CYFAR *)(baseAddr + data_table[j].offset), data_table[j].value);
  79              		.loc 1 160 0
  80 0014 01EB4305 		add	r5, r1, r3, lsl #1
  81 0018 11F81340 		ldrb	r4, [r1, r3, lsl #1]	@ zero_extendqisi2
  82 001c 6D78     		ldrb	r5, [r5, #1]	@ zero_extendqisi2
  83 001e A555     		strb	r5, [r4, r6]
 161:.\Generated_Source\PSoC5/cyfitter_cfg.c **** 			j++;
  84              		.loc 1 161 0
  85 0020 0133     		adds	r3, r3, #1
  86              	.LVL7:
 162:.\Generated_Source\PSoC5/cyfitter_cfg.c **** 			count--;
  87              		.loc 1 162 0
  88 0022 013A     		subs	r2, r2, #1
  89              	.LVL8:
  90 0024 D2B2     		uxtb	r2, r2
  91              	.LVL9:
  92              	.L5:
 158:.\Generated_Source\PSoC5/cyfitter_cfg.c **** 		while (count != 0u)
  93              		.loc 1 158 0 discriminator 1
  94 0026 002A     		cmp	r2, #0
  95 0028 F4D1     		bne	.L6
  96              	.LBE2:
 153:.\Generated_Source\PSoC5/cyfitter_cfg.c **** 	for (i = 0u; i < CY_CFG_BASE_ADDR_COUNT; i++)
  97              		.loc 1 153 0
  98 002a 0137     		adds	r7, r7, #1
  99              	.LVL10:
 100              	.L4:
 153:.\Generated_Source\PSoC5/cyfitter_cfg.c **** 	for (i = 0u; i < CY_CFG_BASE_ADDR_COUNT; i++)
 101              		.loc 1 153 0 is_stmt 0 discriminator 1
 102 002c 222F     		cmp	r7, #34
 103 002e EBD9     		bls	.L7
 163:.\Generated_Source\PSoC5/cyfitter_cfg.c **** 		}
 164:.\Generated_Source\PSoC5/cyfitter_cfg.c **** 	}
 165:.\Generated_Source\PSoC5/cyfitter_cfg.c **** }
 104              		.loc 1 165 0 is_stmt 1
 105 0030 F0BC     		pop	{r4, r5, r6, r7}
 106              	.LVL11:
 107 0032 7047     		bx	lr
 108              		.cfi_endproc
 109              	.LFE4:
 110              		.size	cfg_write_bytes32, .-cfg_write_bytes32
 111              		.section	.text.AnalogSetDefault,"ax",%progbits
 112              		.align	2
 113              		.thumb
 114              		.thumb_func
 115              		.type	AnalogSetDefault, %function
 116              	AnalogSetDefault:
 117              	.LFB6:
ARM GAS  C:\Users\xavieran\AppData\Local\Temp\ccbEwKhF.s 			page 6


 166:.\Generated_Source\PSoC5/cyfitter_cfg.c **** 
 167:.\Generated_Source\PSoC5/cyfitter_cfg.c **** /*******************************************************************************
 168:.\Generated_Source\PSoC5/cyfitter_cfg.c **** * Function Name: ClockSetup
 169:.\Generated_Source\PSoC5/cyfitter_cfg.c **** ********************************************************************************
 170:.\Generated_Source\PSoC5/cyfitter_cfg.c **** *
 171:.\Generated_Source\PSoC5/cyfitter_cfg.c **** * Summary:
 172:.\Generated_Source\PSoC5/cyfitter_cfg.c **** *  Performs the initialization of all of the clocks in the device based on the
 173:.\Generated_Source\PSoC5/cyfitter_cfg.c **** *  settings in the Clock tab of the DWR.  This includes enabling the requested
 174:.\Generated_Source\PSoC5/cyfitter_cfg.c **** *  clocks and setting the necessary dividers to produce the desired frequency. 
 175:.\Generated_Source\PSoC5/cyfitter_cfg.c **** *
 176:.\Generated_Source\PSoC5/cyfitter_cfg.c **** * Parameters:
 177:.\Generated_Source\PSoC5/cyfitter_cfg.c **** *  void
 178:.\Generated_Source\PSoC5/cyfitter_cfg.c **** *
 179:.\Generated_Source\PSoC5/cyfitter_cfg.c **** * Return:
 180:.\Generated_Source\PSoC5/cyfitter_cfg.c **** *  void
 181:.\Generated_Source\PSoC5/cyfitter_cfg.c **** *
 182:.\Generated_Source\PSoC5/cyfitter_cfg.c **** *******************************************************************************/
 183:.\Generated_Source\PSoC5/cyfitter_cfg.c **** static void ClockSetup(void);
 184:.\Generated_Source\PSoC5/cyfitter_cfg.c **** static void ClockSetup(void)
 185:.\Generated_Source\PSoC5/cyfitter_cfg.c **** {
 186:.\Generated_Source\PSoC5/cyfitter_cfg.c **** 	uint32 timeout;
 187:.\Generated_Source\PSoC5/cyfitter_cfg.c **** 	uint8 pllLock;
 188:.\Generated_Source\PSoC5/cyfitter_cfg.c **** 
 189:.\Generated_Source\PSoC5/cyfitter_cfg.c **** 
 190:.\Generated_Source\PSoC5/cyfitter_cfg.c **** 	/* Configure Digital Clocks based on settings from Clock DWR */
 191:.\Generated_Source\PSoC5/cyfitter_cfg.c **** 	CY_SET_XTND_REG16((void CYFAR *)(CYREG_CLKDIST_DCFG0_CFG0), 0x0000u);
 192:.\Generated_Source\PSoC5/cyfitter_cfg.c **** 	CY_SET_XTND_REG8((void CYFAR *)(CYREG_CLKDIST_DCFG0_CFG0 + 0x2u), 0x58u);
 193:.\Generated_Source\PSoC5/cyfitter_cfg.c **** 	CY_SET_XTND_REG16((void CYFAR *)(CYREG_CLKDIST_DCFG1_CFG0), 0x0001u);
 194:.\Generated_Source\PSoC5/cyfitter_cfg.c **** 	CY_SET_XTND_REG8((void CYFAR *)(CYREG_CLKDIST_DCFG1_CFG0 + 0x2u), 0x18u);
 195:.\Generated_Source\PSoC5/cyfitter_cfg.c **** 	CY_SET_XTND_REG16((void CYFAR *)(CYREG_CLKDIST_DCFG2_CFG0), 0x0257u);
 196:.\Generated_Source\PSoC5/cyfitter_cfg.c **** 	CY_SET_XTND_REG8((void CYFAR *)(CYREG_CLKDIST_DCFG2_CFG0 + 0x2u), 0x18u);
 197:.\Generated_Source\PSoC5/cyfitter_cfg.c **** 	CY_SET_XTND_REG16((void CYFAR *)(CYREG_CLKDIST_DCFG3_CFG0), 0x0257u);
 198:.\Generated_Source\PSoC5/cyfitter_cfg.c **** 	CY_SET_XTND_REG8((void CYFAR *)(CYREG_CLKDIST_DCFG3_CFG0 + 0x2u), 0x18u);
 199:.\Generated_Source\PSoC5/cyfitter_cfg.c **** 	CY_SET_XTND_REG16((void CYFAR *)(CYREG_CLKDIST_DCFG4_CFG0), 0x0257u);
 200:.\Generated_Source\PSoC5/cyfitter_cfg.c **** 	CY_SET_XTND_REG8((void CYFAR *)(CYREG_CLKDIST_DCFG4_CFG0 + 0x2u), 0x18u);
 201:.\Generated_Source\PSoC5/cyfitter_cfg.c **** 	CY_SET_XTND_REG16((void CYFAR *)(CYREG_CLKDIST_DCFG5_CFG0), 0x095Fu);
 202:.\Generated_Source\PSoC5/cyfitter_cfg.c **** 	CY_SET_XTND_REG8((void CYFAR *)(CYREG_CLKDIST_DCFG5_CFG0 + 0x2u), 0x18u);
 203:.\Generated_Source\PSoC5/cyfitter_cfg.c **** 	CY_SET_XTND_REG16((void CYFAR *)(CYREG_CLKDIST_DCFG6_CFG0), 0x095Fu);
 204:.\Generated_Source\PSoC5/cyfitter_cfg.c **** 	CY_SET_XTND_REG8((void CYFAR *)(CYREG_CLKDIST_DCFG6_CFG0 + 0x2u), 0x18u);
 205:.\Generated_Source\PSoC5/cyfitter_cfg.c **** 
 206:.\Generated_Source\PSoC5/cyfitter_cfg.c **** 	/* Configure ILO based on settings from Clock DWR */
 207:.\Generated_Source\PSoC5/cyfitter_cfg.c **** 	CY_SET_XTND_REG8((void CYFAR *)(CYREG_SLOWCLK_ILO_CR0), 0x06u);
 208:.\Generated_Source\PSoC5/cyfitter_cfg.c **** 
 209:.\Generated_Source\PSoC5/cyfitter_cfg.c **** 	/* Configure IMO based on settings from Clock DWR */
 210:.\Generated_Source\PSoC5/cyfitter_cfg.c **** 	CY_SET_XTND_REG8((void CYFAR *)(CYREG_FASTCLK_IMO_CR), 0x52u);
 211:.\Generated_Source\PSoC5/cyfitter_cfg.c **** 	CY_SET_XTND_REG8((void CYFAR *)(CYREG_IMO_TR1), (CY_GET_XTND_REG8((void CYFAR *)CYREG_FLSHID_CUST_
 212:.\Generated_Source\PSoC5/cyfitter_cfg.c **** 
 213:.\Generated_Source\PSoC5/cyfitter_cfg.c **** 	/* Configure PLL based on settings from Clock DWR */
 214:.\Generated_Source\PSoC5/cyfitter_cfg.c **** 	CY_SET_XTND_REG16((void CYFAR *)(CYREG_FASTCLK_PLL_P), 0x0708u);
 215:.\Generated_Source\PSoC5/cyfitter_cfg.c **** 	CY_SET_XTND_REG16((void CYFAR *)(CYREG_FASTCLK_PLL_CFG0), 0x1251u);
 216:.\Generated_Source\PSoC5/cyfitter_cfg.c **** 	/* Wait up to 250us for the PLL to lock */
 217:.\Generated_Source\PSoC5/cyfitter_cfg.c **** 	pllLock = 0u;
 218:.\Generated_Source\PSoC5/cyfitter_cfg.c **** 	for (timeout = 250u / 10u; (timeout > 0u) && (pllLock != 0x03u); timeout--)
 219:.\Generated_Source\PSoC5/cyfitter_cfg.c **** 	{ 
 220:.\Generated_Source\PSoC5/cyfitter_cfg.c **** 		pllLock = 0x03u & ((uint8)((uint8)pllLock << 1) | ((CY_GET_XTND_REG8((void CYFAR *)CYREG_FASTCLK_
 221:.\Generated_Source\PSoC5/cyfitter_cfg.c **** 		CyDelayCycles(10u * 48u); /* Delay 10us based on 48MHz clock */
 222:.\Generated_Source\PSoC5/cyfitter_cfg.c **** 	}
ARM GAS  C:\Users\xavieran\AppData\Local\Temp\ccbEwKhF.s 			page 7


 223:.\Generated_Source\PSoC5/cyfitter_cfg.c **** 	/* If we ran out of time the PLL didn't lock so go to the error function */
 224:.\Generated_Source\PSoC5/cyfitter_cfg.c **** 	if (timeout == 0u)
 225:.\Generated_Source\PSoC5/cyfitter_cfg.c **** 	{
 226:.\Generated_Source\PSoC5/cyfitter_cfg.c **** 		CyClockStartupError(CYCLOCKSTART_PLL_ERROR);
 227:.\Generated_Source\PSoC5/cyfitter_cfg.c **** 	}
 228:.\Generated_Source\PSoC5/cyfitter_cfg.c **** 
 229:.\Generated_Source\PSoC5/cyfitter_cfg.c **** 	/* Configure Bus/Master Clock based on settings from Clock DWR */
 230:.\Generated_Source\PSoC5/cyfitter_cfg.c **** 	CY_SET_XTND_REG16((void CYFAR *)(CYREG_CLKDIST_MSTR0), 0x0100u);
 231:.\Generated_Source\PSoC5/cyfitter_cfg.c **** 	CY_SET_XTND_REG8((void CYFAR *)(CYREG_CLKDIST_MSTR0), 0x07u);
 232:.\Generated_Source\PSoC5/cyfitter_cfg.c **** 	CY_SET_XTND_REG8((void CYFAR *)(CYREG_CLKDIST_BCFG0), 0x00u);
 233:.\Generated_Source\PSoC5/cyfitter_cfg.c **** 	CY_SET_XTND_REG8((void CYFAR *)(CYREG_CLKDIST_BCFG2), 0x48u);
 234:.\Generated_Source\PSoC5/cyfitter_cfg.c **** 	CY_SET_XTND_REG8((void CYFAR *)(CYREG_CLKDIST_MSTR0), 0x00u);
 235:.\Generated_Source\PSoC5/cyfitter_cfg.c **** 
 236:.\Generated_Source\PSoC5/cyfitter_cfg.c **** 	/* Configure USB Clock based on settings from Clock DWR */
 237:.\Generated_Source\PSoC5/cyfitter_cfg.c **** 	CY_SET_XTND_REG8((void CYFAR *)(CYREG_CLKDIST_UCFG), 0x00u);
 238:.\Generated_Source\PSoC5/cyfitter_cfg.c **** 	CY_SET_XTND_REG8((void CYFAR *)(CYREG_CLKDIST_LD), 0x02u);
 239:.\Generated_Source\PSoC5/cyfitter_cfg.c **** 
 240:.\Generated_Source\PSoC5/cyfitter_cfg.c **** 	CY_SET_XTND_REG8((void CYFAR *)(CYREG_PM_ACT_CFG2), ((CY_GET_XTND_REG8((void CYFAR *)CYREG_PM_ACT_
 241:.\Generated_Source\PSoC5/cyfitter_cfg.c **** }
 242:.\Generated_Source\PSoC5/cyfitter_cfg.c **** 
 243:.\Generated_Source\PSoC5/cyfitter_cfg.c **** 
 244:.\Generated_Source\PSoC5/cyfitter_cfg.c **** /* Analog API Functions */
 245:.\Generated_Source\PSoC5/cyfitter_cfg.c **** 
 246:.\Generated_Source\PSoC5/cyfitter_cfg.c **** 
 247:.\Generated_Source\PSoC5/cyfitter_cfg.c **** /*******************************************************************************
 248:.\Generated_Source\PSoC5/cyfitter_cfg.c **** * Function Name: AnalogSetDefault
 249:.\Generated_Source\PSoC5/cyfitter_cfg.c **** ********************************************************************************
 250:.\Generated_Source\PSoC5/cyfitter_cfg.c **** *
 251:.\Generated_Source\PSoC5/cyfitter_cfg.c **** * Summary:
 252:.\Generated_Source\PSoC5/cyfitter_cfg.c **** *  Sets up the analog portions of the chip to default values based on chip
 253:.\Generated_Source\PSoC5/cyfitter_cfg.c **** *  configuration options from the project.
 254:.\Generated_Source\PSoC5/cyfitter_cfg.c **** *
 255:.\Generated_Source\PSoC5/cyfitter_cfg.c **** * Parameters:
 256:.\Generated_Source\PSoC5/cyfitter_cfg.c **** *  void
 257:.\Generated_Source\PSoC5/cyfitter_cfg.c **** *
 258:.\Generated_Source\PSoC5/cyfitter_cfg.c **** * Return:
 259:.\Generated_Source\PSoC5/cyfitter_cfg.c **** *  void
 260:.\Generated_Source\PSoC5/cyfitter_cfg.c **** *
 261:.\Generated_Source\PSoC5/cyfitter_cfg.c **** *******************************************************************************/
 262:.\Generated_Source\PSoC5/cyfitter_cfg.c **** static void AnalogSetDefault(void);
 263:.\Generated_Source\PSoC5/cyfitter_cfg.c **** static void AnalogSetDefault(void)
 264:.\Generated_Source\PSoC5/cyfitter_cfg.c **** {
 118              		.loc 1 264 0
 119              		.cfi_startproc
 120              		@ args = 0, pretend = 0, frame = 0
 121              		@ frame_needed = 0, uses_anonymous_args = 0
 122              		@ link register save eliminated.
 265:.\Generated_Source\PSoC5/cyfitter_cfg.c **** 	uint8 bg_xover_inl_trim = CY_GET_XTND_REG8((void CYFAR *)(CYREG_FLSHID_MFG_CFG_BG_XOVER_INL_TRIM +
 123              		.loc 1 265 0
 124 0000 064B     		ldr	r3, .L9
 125 0002 1B78     		ldrb	r3, [r3]	@ zero_extendqisi2
 126 0004 DBB2     		uxtb	r3, r3
 127              	.LVL12:
 266:.\Generated_Source\PSoC5/cyfitter_cfg.c **** 	CY_SET_XTND_REG8((void CYFAR *)(CYREG_BG_DFT0), (bg_xover_inl_trim & 0x07u));
 128              		.loc 1 266 0
 129 0006 03F00701 		and	r1, r3, #7
 130 000a 054A     		ldr	r2, .L9+4
ARM GAS  C:\Users\xavieran\AppData\Local\Temp\ccbEwKhF.s 			page 8


 131 000c 1170     		strb	r1, [r2]
 267:.\Generated_Source\PSoC5/cyfitter_cfg.c **** 	CY_SET_XTND_REG8((void CYFAR *)(CYREG_BG_DFT1), ((bg_xover_inl_trim >> 4) & 0x0Fu));
 132              		.loc 1 267 0
 133 000e 1B09     		lsrs	r3, r3, #4
 134              	.LVL13:
 135 0010 0132     		adds	r2, r2, #1
 136 0012 1370     		strb	r3, [r2]
 268:.\Generated_Source\PSoC5/cyfitter_cfg.c **** 	CY_SET_XTND_REG8((void CYFAR *)CYREG_PUMP_CR0, 0x44u);
 137              		.loc 1 268 0
 138 0014 4422     		movs	r2, #68
 139 0016 034B     		ldr	r3, .L9+8
 140 0018 1A70     		strb	r2, [r3]
 141 001a 7047     		bx	lr
 142              	.L10:
 143              		.align	2
 144              	.L9:
 145 001c CF010049 		.word	1224737231
 146 0020 6E580040 		.word	1073764462
 147 0024 76580040 		.word	1073764470
 148              		.cfi_endproc
 149              	.LFE6:
 150              		.size	AnalogSetDefault, .-AnalogSetDefault
 151              		.section	.text.CYMEMZERO,"ax",%progbits
 152              		.align	2
 153              		.thumb
 154              		.thumb_func
 155              		.type	CYMEMZERO, %function
 156              	CYMEMZERO:
 157              	.LFB0:
  61:.\Generated_Source\PSoC5/cyfitter_cfg.c **** {
 158              		.loc 1 61 0
 159              		.cfi_startproc
 160              		@ args = 0, pretend = 0, frame = 0
 161              		@ frame_needed = 0, uses_anonymous_args = 0
 162              	.LVL14:
 163 0000 08B5     		push	{r3, lr}
 164              		.cfi_def_cfa_offset 8
 165              		.cfi_offset 3, -8
 166              		.cfi_offset 14, -4
 167 0002 0A46     		mov	r2, r1
  62:.\Generated_Source\PSoC5/cyfitter_cfg.c **** 	(void)memset(s, 0, n);
 168              		.loc 1 62 0
 169 0004 0021     		movs	r1, #0
 170              	.LVL15:
 171 0006 FFF7FEFF 		bl	memset
 172              	.LVL16:
 173 000a 08BD     		pop	{r3, pc}
 174              		.cfi_endproc
 175              	.LFE0:
 176              		.size	CYMEMZERO, .-CYMEMZERO
 177              		.section	.text.CYCONFIGCPYCODE,"ax",%progbits
 178              		.align	2
 179              		.thumb
 180              		.thumb_func
 181              		.type	CYCONFIGCPYCODE, %function
 182              	CYCONFIGCPYCODE:
 183              	.LFB2:
ARM GAS  C:\Users\xavieran\AppData\Local\Temp\ccbEwKhF.s 			page 9


  75:.\Generated_Source\PSoC5/cyfitter_cfg.c **** {
 184              		.loc 1 75 0
 185              		.cfi_startproc
 186              		@ args = 0, pretend = 0, frame = 0
 187              		@ frame_needed = 0, uses_anonymous_args = 0
 188              	.LVL17:
 189 0000 08B5     		push	{r3, lr}
 190              		.cfi_def_cfa_offset 8
 191              		.cfi_offset 3, -8
 192              		.cfi_offset 14, -4
  76:.\Generated_Source\PSoC5/cyfitter_cfg.c **** 	(void)memcpy(dest, src, n);
 193              		.loc 1 76 0
 194 0002 FFF7FEFF 		bl	memcpy
 195              	.LVL18:
 196 0006 08BD     		pop	{r3, pc}
 197              		.cfi_endproc
 198              	.LFE2:
 199              		.size	CYCONFIGCPYCODE, .-CYCONFIGCPYCODE
 200              		.section	.text.CYCONFIGCPY,"ax",%progbits
 201              		.align	2
 202              		.thumb
 203              		.thumb_func
 204              		.type	CYCONFIGCPY, %function
 205              	CYCONFIGCPY:
 206              	.LFB1:
  68:.\Generated_Source\PSoC5/cyfitter_cfg.c **** {
 207              		.loc 1 68 0
 208              		.cfi_startproc
 209              		@ args = 0, pretend = 0, frame = 0
 210              		@ frame_needed = 0, uses_anonymous_args = 0
 211              	.LVL19:
 212 0000 08B5     		push	{r3, lr}
 213              		.cfi_def_cfa_offset 8
 214              		.cfi_offset 3, -8
 215              		.cfi_offset 14, -4
  69:.\Generated_Source\PSoC5/cyfitter_cfg.c **** 	(void)memcpy(dest, src, n);
 216              		.loc 1 69 0
 217 0002 FFF7FEFF 		bl	memcpy
 218              	.LVL20:
 219 0006 08BD     		pop	{r3, pc}
 220              		.cfi_endproc
 221              	.LFE1:
 222              		.size	CYCONFIGCPY, .-CYCONFIGCPY
 223              		.section	.text.ClockSetup,"ax",%progbits
 224              		.align	2
 225              		.thumb
 226              		.thumb_func
 227              		.type	ClockSetup, %function
 228              	ClockSetup:
 229              	.LFB5:
 185:.\Generated_Source\PSoC5/cyfitter_cfg.c **** {
 230              		.loc 1 185 0
 231              		.cfi_startproc
 232              		@ args = 0, pretend = 0, frame = 0
 233              		@ frame_needed = 0, uses_anonymous_args = 0
 234 0000 F8B5     		push	{r3, r4, r5, r6, r7, lr}
 235              		.cfi_def_cfa_offset 24
ARM GAS  C:\Users\xavieran\AppData\Local\Temp\ccbEwKhF.s 			page 10


 236              		.cfi_offset 3, -24
 237              		.cfi_offset 4, -20
 238              		.cfi_offset 5, -16
 239              		.cfi_offset 6, -12
 240              		.cfi_offset 7, -8
 241              		.cfi_offset 14, -4
 191:.\Generated_Source\PSoC5/cyfitter_cfg.c **** 	CY_SET_XTND_REG16((void CYFAR *)(CYREG_CLKDIST_DCFG0_CFG0), 0x0000u);
 242              		.loc 1 191 0
 243 0002 0025     		movs	r5, #0
 244 0004 334B     		ldr	r3, .L19
 245 0006 1D80     		strh	r5, [r3]	@ movhi
 192:.\Generated_Source\PSoC5/cyfitter_cfg.c **** 	CY_SET_XTND_REG8((void CYFAR *)(CYREG_CLKDIST_DCFG0_CFG0 + 0x2u), 0x58u);
 246              		.loc 1 192 0
 247 0008 5822     		movs	r2, #88
 248 000a 0233     		adds	r3, r3, #2
 249 000c 1A70     		strb	r2, [r3]
 193:.\Generated_Source\PSoC5/cyfitter_cfg.c **** 	CY_SET_XTND_REG16((void CYFAR *)(CYREG_CLKDIST_DCFG1_CFG0), 0x0001u);
 250              		.loc 1 193 0
 251 000e 0122     		movs	r2, #1
 252 0010 0233     		adds	r3, r3, #2
 253 0012 1A80     		strh	r2, [r3]	@ movhi
 194:.\Generated_Source\PSoC5/cyfitter_cfg.c **** 	CY_SET_XTND_REG8((void CYFAR *)(CYREG_CLKDIST_DCFG1_CFG0 + 0x2u), 0x18u);
 254              		.loc 1 194 0
 255 0014 1823     		movs	r3, #24
 256 0016 304A     		ldr	r2, .L19+4
 257 0018 1370     		strb	r3, [r2]
 195:.\Generated_Source\PSoC5/cyfitter_cfg.c **** 	CY_SET_XTND_REG16((void CYFAR *)(CYREG_CLKDIST_DCFG2_CFG0), 0x0257u);
 258              		.loc 1 195 0
 259 001a 40F25722 		movw	r2, #599
 260 001e 2F49     		ldr	r1, .L19+8
 261 0020 0A80     		strh	r2, [r1]	@ movhi
 196:.\Generated_Source\PSoC5/cyfitter_cfg.c **** 	CY_SET_XTND_REG8((void CYFAR *)(CYREG_CLKDIST_DCFG2_CFG0 + 0x2u), 0x18u);
 262              		.loc 1 196 0
 263 0022 0231     		adds	r1, r1, #2
 264 0024 0B70     		strb	r3, [r1]
 197:.\Generated_Source\PSoC5/cyfitter_cfg.c **** 	CY_SET_XTND_REG16((void CYFAR *)(CYREG_CLKDIST_DCFG3_CFG0), 0x0257u);
 265              		.loc 1 197 0
 266 0026 0231     		adds	r1, r1, #2
 267 0028 0A80     		strh	r2, [r1]	@ movhi
 198:.\Generated_Source\PSoC5/cyfitter_cfg.c **** 	CY_SET_XTND_REG8((void CYFAR *)(CYREG_CLKDIST_DCFG3_CFG0 + 0x2u), 0x18u);
 268              		.loc 1 198 0
 269 002a 0231     		adds	r1, r1, #2
 270 002c 0B70     		strb	r3, [r1]
 199:.\Generated_Source\PSoC5/cyfitter_cfg.c **** 	CY_SET_XTND_REG16((void CYFAR *)(CYREG_CLKDIST_DCFG4_CFG0), 0x0257u);
 271              		.loc 1 199 0
 272 002e 0231     		adds	r1, r1, #2
 273 0030 0A80     		strh	r2, [r1]	@ movhi
 200:.\Generated_Source\PSoC5/cyfitter_cfg.c **** 	CY_SET_XTND_REG8((void CYFAR *)(CYREG_CLKDIST_DCFG4_CFG0 + 0x2u), 0x18u);
 274              		.loc 1 200 0
 275 0032 2B4A     		ldr	r2, .L19+12
 276 0034 1370     		strb	r3, [r2]
 201:.\Generated_Source\PSoC5/cyfitter_cfg.c **** 	CY_SET_XTND_REG16((void CYFAR *)(CYREG_CLKDIST_DCFG5_CFG0), 0x095Fu);
 277              		.loc 1 201 0
 278 0036 40F65F12 		movw	r2, #2399
 279 003a 0431     		adds	r1, r1, #4
 280 003c 0A80     		strh	r2, [r1]	@ movhi
 202:.\Generated_Source\PSoC5/cyfitter_cfg.c **** 	CY_SET_XTND_REG8((void CYFAR *)(CYREG_CLKDIST_DCFG5_CFG0 + 0x2u), 0x18u);
ARM GAS  C:\Users\xavieran\AppData\Local\Temp\ccbEwKhF.s 			page 11


 281              		.loc 1 202 0
 282 003e 0231     		adds	r1, r1, #2
 283 0040 0B70     		strb	r3, [r1]
 203:.\Generated_Source\PSoC5/cyfitter_cfg.c **** 	CY_SET_XTND_REG16((void CYFAR *)(CYREG_CLKDIST_DCFG6_CFG0), 0x095Fu);
 284              		.loc 1 203 0
 285 0042 0231     		adds	r1, r1, #2
 286 0044 0A80     		strh	r2, [r1]	@ movhi
 204:.\Generated_Source\PSoC5/cyfitter_cfg.c **** 	CY_SET_XTND_REG8((void CYFAR *)(CYREG_CLKDIST_DCFG6_CFG0 + 0x2u), 0x18u);
 287              		.loc 1 204 0
 288 0046 274A     		ldr	r2, .L19+16
 289 0048 1370     		strb	r3, [r2]
 207:.\Generated_Source\PSoC5/cyfitter_cfg.c **** 	CY_SET_XTND_REG8((void CYFAR *)(CYREG_SLOWCLK_ILO_CR0), 0x06u);
 290              		.loc 1 207 0
 291 004a 0622     		movs	r2, #6
 292 004c 264B     		ldr	r3, .L19+20
 293 004e 1A70     		strb	r2, [r3]
 210:.\Generated_Source\PSoC5/cyfitter_cfg.c **** 	CY_SET_XTND_REG8((void CYFAR *)(CYREG_FASTCLK_IMO_CR), 0x52u);
 294              		.loc 1 210 0
 295 0050 5222     		movs	r2, #82
 296 0052 A3F58073 		sub	r3, r3, #256
 297 0056 1A70     		strb	r2, [r3]
 211:.\Generated_Source\PSoC5/cyfitter_cfg.c **** 	CY_SET_XTND_REG8((void CYFAR *)(CYREG_IMO_TR1), (CY_GET_XTND_REG8((void CYFAR *)CYREG_FLSHID_CUST_
 298              		.loc 1 211 0
 299 0058 244B     		ldr	r3, .L19+24
 300 005a 1A78     		ldrb	r2, [r3]	@ zero_extendqisi2
 301 005c D2B2     		uxtb	r2, r2
 302 005e 244B     		ldr	r3, .L19+28
 303 0060 1A70     		strb	r2, [r3]
 214:.\Generated_Source\PSoC5/cyfitter_cfg.c **** 	CY_SET_XTND_REG16((void CYFAR *)(CYREG_FASTCLK_PLL_P), 0x0708u);
 304              		.loc 1 214 0
 305 0062 4FF4E162 		mov	r2, #1800
 306 0066 A3F27F43 		subw	r3, r3, #1151
 307 006a 1A80     		strh	r2, [r3]	@ movhi
 215:.\Generated_Source\PSoC5/cyfitter_cfg.c **** 	CY_SET_XTND_REG16((void CYFAR *)(CYREG_FASTCLK_PLL_CFG0), 0x1251u);
 308              		.loc 1 215 0
 309 006c 41F25122 		movw	r2, #4689
 310 0070 023B     		subs	r3, r3, #2
 311 0072 1A80     		strh	r2, [r3]	@ movhi
 312              	.LVL21:
 218:.\Generated_Source\PSoC5/cyfitter_cfg.c **** 	for (timeout = 250u / 10u; (timeout > 0u) && (pllLock != 0x03u); timeout--)
 313              		.loc 1 218 0
 314 0074 1924     		movs	r4, #25
 220:.\Generated_Source\PSoC5/cyfitter_cfg.c **** 		pllLock = 0x03u & ((uint8)((uint8)pllLock << 1) | ((CY_GET_XTND_REG8((void CYFAR *)CYREG_FASTCLK_
 315              		.loc 1 220 0
 316 0076 1F4F     		ldr	r7, .L19+32
 221:.\Generated_Source\PSoC5/cyfitter_cfg.c **** 		CyDelayCycles(10u * 48u); /* Delay 10us based on 48MHz clock */
 317              		.loc 1 221 0
 318 0078 4FF4F076 		mov	r6, #480
 218:.\Generated_Source\PSoC5/cyfitter_cfg.c **** 	for (timeout = 250u / 10u; (timeout > 0u) && (pllLock != 0x03u); timeout--)
 319              		.loc 1 218 0
 320 007c 0AE0     		b	.L15
 321              	.LVL22:
 322              	.L17:
 220:.\Generated_Source\PSoC5/cyfitter_cfg.c **** 		pllLock = 0x03u & ((uint8)((uint8)pllLock << 1) | ((CY_GET_XTND_REG8((void CYFAR *)CYREG_FASTCLK_
 323              		.loc 1 220 0 discriminator 1
 324 007e 3B78     		ldrb	r3, [r7]	@ zero_extendqisi2
 325 0080 03F00103 		and	r3, r3, #1
ARM GAS  C:\Users\xavieran\AppData\Local\Temp\ccbEwKhF.s 			page 12


 326 0084 43EA4505 		orr	r5, r3, r5, lsl #1
 327              	.LVL23:
 328 0088 05F00305 		and	r5, r5, #3
 329              	.LVL24:
 221:.\Generated_Source\PSoC5/cyfitter_cfg.c **** 		CyDelayCycles(10u * 48u); /* Delay 10us based on 48MHz clock */
 330              		.loc 1 221 0 discriminator 1
 331 008c 3046     		mov	r0, r6
 332 008e FFF7FEFF 		bl	CyDelayCycles
 333              	.LVL25:
 218:.\Generated_Source\PSoC5/cyfitter_cfg.c **** 	for (timeout = 250u / 10u; (timeout > 0u) && (pllLock != 0x03u); timeout--)
 334              		.loc 1 218 0 discriminator 1
 335 0092 013C     		subs	r4, r4, #1
 336              	.LVL26:
 337              	.L15:
 338 0094 0CB1     		cbz	r4, .L16
 218:.\Generated_Source\PSoC5/cyfitter_cfg.c **** 	for (timeout = 250u / 10u; (timeout > 0u) && (pllLock != 0x03u); timeout--)
 339              		.loc 1 218 0 is_stmt 0 discriminator 2
 340 0096 032D     		cmp	r5, #3
 341 0098 F1D1     		bne	.L17
 342              	.L16:
 224:.\Generated_Source\PSoC5/cyfitter_cfg.c **** 	if (timeout == 0u)
 343              		.loc 1 224 0 is_stmt 1
 344 009a 14B9     		cbnz	r4, .L18
 226:.\Generated_Source\PSoC5/cyfitter_cfg.c **** 		CyClockStartupError(CYCLOCKSTART_PLL_ERROR);
 345              		.loc 1 226 0
 346 009c 0320     		movs	r0, #3
 347 009e FFF7FEFF 		bl	CyClockStartupError
 348              	.LVL27:
 349              	.L18:
 230:.\Generated_Source\PSoC5/cyfitter_cfg.c **** 	CY_SET_XTND_REG16((void CYFAR *)(CYREG_CLKDIST_MSTR0), 0x0100u);
 350              		.loc 1 230 0
 351 00a2 154A     		ldr	r2, .L19+36
 352 00a4 4FF48073 		mov	r3, #256
 353 00a8 1380     		strh	r3, [r2]	@ movhi
 231:.\Generated_Source\PSoC5/cyfitter_cfg.c **** 	CY_SET_XTND_REG8((void CYFAR *)(CYREG_CLKDIST_MSTR0), 0x07u);
 354              		.loc 1 231 0
 355 00aa 0723     		movs	r3, #7
 356 00ac 1370     		strb	r3, [r2]
 232:.\Generated_Source\PSoC5/cyfitter_cfg.c **** 	CY_SET_XTND_REG8((void CYFAR *)(CYREG_CLKDIST_BCFG0), 0x00u);
 357              		.loc 1 232 0
 358 00ae 0023     		movs	r3, #0
 359 00b0 1249     		ldr	r1, .L19+40
 360 00b2 0B70     		strb	r3, [r1]
 233:.\Generated_Source\PSoC5/cyfitter_cfg.c **** 	CY_SET_XTND_REG8((void CYFAR *)(CYREG_CLKDIST_BCFG2), 0x48u);
 361              		.loc 1 233 0
 362 00b4 4820     		movs	r0, #72
 363 00b6 0231     		adds	r1, r1, #2
 364 00b8 0870     		strb	r0, [r1]
 234:.\Generated_Source\PSoC5/cyfitter_cfg.c **** 	CY_SET_XTND_REG8((void CYFAR *)(CYREG_CLKDIST_MSTR0), 0x00u);
 365              		.loc 1 234 0
 366 00ba 1370     		strb	r3, [r2]
 237:.\Generated_Source\PSoC5/cyfitter_cfg.c **** 	CY_SET_XTND_REG8((void CYFAR *)(CYREG_CLKDIST_UCFG), 0x00u);
 367              		.loc 1 237 0
 368 00bc 0532     		adds	r2, r2, #5
 369 00be 1370     		strb	r3, [r2]
 238:.\Generated_Source\PSoC5/cyfitter_cfg.c **** 	CY_SET_XTND_REG8((void CYFAR *)(CYREG_CLKDIST_LD), 0x02u);
 370              		.loc 1 238 0
ARM GAS  C:\Users\xavieran\AppData\Local\Temp\ccbEwKhF.s 			page 13


 371 00c0 0222     		movs	r2, #2
 372 00c2 0F4B     		ldr	r3, .L19+44
 373 00c4 1A70     		strb	r2, [r3]
 240:.\Generated_Source\PSoC5/cyfitter_cfg.c **** 	CY_SET_XTND_REG8((void CYFAR *)(CYREG_PM_ACT_CFG2), ((CY_GET_XTND_REG8((void CYFAR *)CYREG_PM_ACT_
 374              		.loc 1 240 0
 375 00c6 03F2A133 		addw	r3, r3, #929
 376 00ca 1A78     		ldrb	r2, [r3]	@ zero_extendqisi2
 377 00cc 42F07F02 		orr	r2, r2, #127
 378 00d0 1A70     		strb	r2, [r3]
 379 00d2 F8BD     		pop	{r3, r4, r5, r6, r7, pc}
 380              	.LVL28:
 381              	.L20:
 382              		.align	2
 383              	.L19:
 384 00d4 80400040 		.word	1073758336
 385 00d8 86400040 		.word	1073758342
 386 00dc 88400040 		.word	1073758344
 387 00e0 92400040 		.word	1073758354
 388 00e4 9A400040 		.word	1073758362
 389 00e8 00430040 		.word	1073758976
 390 00ec 0F010049 		.word	1224737039
 391 00f0 A1460040 		.word	1073759905
 392 00f4 25420040 		.word	1073758757
 393 00f8 04400040 		.word	1073758212
 394 00fc 06400040 		.word	1073758214
 395 0100 01400040 		.word	1073758209
 396              		.cfi_endproc
 397              	.LFE5:
 398              		.size	ClockSetup, .-ClockSetup
 399              		.section	.text.SetAnalogRoutingPumps,"ax",%progbits
 400              		.align	2
 401              		.global	SetAnalogRoutingPumps
 402              		.thumb
 403              		.thumb_func
 404              		.type	SetAnalogRoutingPumps, %function
 405              	SetAnalogRoutingPumps:
 406              	.LFB7:
 269:.\Generated_Source\PSoC5/cyfitter_cfg.c **** }
 270:.\Generated_Source\PSoC5/cyfitter_cfg.c **** 
 271:.\Generated_Source\PSoC5/cyfitter_cfg.c **** 
 272:.\Generated_Source\PSoC5/cyfitter_cfg.c **** /*******************************************************************************
 273:.\Generated_Source\PSoC5/cyfitter_cfg.c **** * Function Name: SetAnalogRoutingPumps
 274:.\Generated_Source\PSoC5/cyfitter_cfg.c **** ********************************************************************************
 275:.\Generated_Source\PSoC5/cyfitter_cfg.c **** *
 276:.\Generated_Source\PSoC5/cyfitter_cfg.c **** * Summary:
 277:.\Generated_Source\PSoC5/cyfitter_cfg.c **** * Enables or disables the analog pumps feeding analog routing switches.
 278:.\Generated_Source\PSoC5/cyfitter_cfg.c **** * Intended to be called at startup, based on the Vdda system configuration;
 279:.\Generated_Source\PSoC5/cyfitter_cfg.c **** * may be called during operation when the user informs us that the Vdda voltage
 280:.\Generated_Source\PSoC5/cyfitter_cfg.c **** * crossed the pump threshold.
 281:.\Generated_Source\PSoC5/cyfitter_cfg.c **** *
 282:.\Generated_Source\PSoC5/cyfitter_cfg.c **** * Parameters:
 283:.\Generated_Source\PSoC5/cyfitter_cfg.c **** *  enabled - 1 to enable the pumps, 0 to disable the pumps
 284:.\Generated_Source\PSoC5/cyfitter_cfg.c **** *
 285:.\Generated_Source\PSoC5/cyfitter_cfg.c **** * Return:
 286:.\Generated_Source\PSoC5/cyfitter_cfg.c **** *  void
 287:.\Generated_Source\PSoC5/cyfitter_cfg.c **** *
 288:.\Generated_Source\PSoC5/cyfitter_cfg.c **** *******************************************************************************/
ARM GAS  C:\Users\xavieran\AppData\Local\Temp\ccbEwKhF.s 			page 14


 289:.\Generated_Source\PSoC5/cyfitter_cfg.c **** void SetAnalogRoutingPumps(uint8 enabled)
 290:.\Generated_Source\PSoC5/cyfitter_cfg.c **** {
 407              		.loc 1 290 0
 408              		.cfi_startproc
 409              		@ args = 0, pretend = 0, frame = 0
 410              		@ frame_needed = 0, uses_anonymous_args = 0
 411              		@ link register save eliminated.
 412              	.LVL29:
 291:.\Generated_Source\PSoC5/cyfitter_cfg.c **** 	uint8 regValue = CY_GET_XTND_REG8((void CYFAR *)CYREG_PUMP_CR0);
 413              		.loc 1 291 0
 414 0000 024B     		ldr	r3, .L22
 415 0002 1A78     		ldrb	r2, [r3]	@ zero_extendqisi2
 416 0004 D2B2     		uxtb	r2, r2
 417              	.LVL30:
 292:.\Generated_Source\PSoC5/cyfitter_cfg.c **** 	if (enabled != 0u)
 293:.\Generated_Source\PSoC5/cyfitter_cfg.c **** 	{
 294:.\Generated_Source\PSoC5/cyfitter_cfg.c **** 		regValue |= 0x00u;
 295:.\Generated_Source\PSoC5/cyfitter_cfg.c **** 	}
 296:.\Generated_Source\PSoC5/cyfitter_cfg.c **** 	else
 297:.\Generated_Source\PSoC5/cyfitter_cfg.c **** 	{
 298:.\Generated_Source\PSoC5/cyfitter_cfg.c **** 		regValue &= (uint8)~0x00u;
 299:.\Generated_Source\PSoC5/cyfitter_cfg.c **** 	}
 300:.\Generated_Source\PSoC5/cyfitter_cfg.c **** 	CY_SET_XTND_REG8((void CYFAR *)CYREG_PUMP_CR0, regValue);
 418              		.loc 1 300 0
 419 0006 1A70     		strb	r2, [r3]
 420 0008 7047     		bx	lr
 421              	.L23:
 422 000a 00BF     		.align	2
 423              	.L22:
 424 000c 76580040 		.word	1073764470
 425              		.cfi_endproc
 426              	.LFE7:
 427              		.size	SetAnalogRoutingPumps, .-SetAnalogRoutingPumps
 428              		.section	.text.cyfitter_cfg,"ax",%progbits
 429              		.align	2
 430              		.global	cyfitter_cfg
 431              		.thumb
 432              		.thumb_func
 433              		.type	cyfitter_cfg, %function
 434              	cyfitter_cfg:
 435              	.LFB8:
 301:.\Generated_Source\PSoC5/cyfitter_cfg.c **** }
 302:.\Generated_Source\PSoC5/cyfitter_cfg.c **** 
 303:.\Generated_Source\PSoC5/cyfitter_cfg.c **** #define CY_AMUX_UNUSED CYREG_BOOST_SR
 304:.\Generated_Source\PSoC5/cyfitter_cfg.c **** 
 305:.\Generated_Source\PSoC5/cyfitter_cfg.c **** 
 306:.\Generated_Source\PSoC5/cyfitter_cfg.c **** /*******************************************************************************
 307:.\Generated_Source\PSoC5/cyfitter_cfg.c **** * Function Name: cyfitter_cfg
 308:.\Generated_Source\PSoC5/cyfitter_cfg.c **** ********************************************************************************
 309:.\Generated_Source\PSoC5/cyfitter_cfg.c **** * Summary:
 310:.\Generated_Source\PSoC5/cyfitter_cfg.c **** *  This function is called by the start-up code for the selected device. It
 311:.\Generated_Source\PSoC5/cyfitter_cfg.c **** *  performs all of the necessary device configuration based on the design
 312:.\Generated_Source\PSoC5/cyfitter_cfg.c **** *  settings.  This includes settings from the Design Wide Resources (DWR) such
 313:.\Generated_Source\PSoC5/cyfitter_cfg.c **** *  as Clocks and Pins as well as any component configuration that is necessary.
 314:.\Generated_Source\PSoC5/cyfitter_cfg.c **** *
 315:.\Generated_Source\PSoC5/cyfitter_cfg.c **** * Parameters:  
 316:.\Generated_Source\PSoC5/cyfitter_cfg.c **** *   void
ARM GAS  C:\Users\xavieran\AppData\Local\Temp\ccbEwKhF.s 			page 15


 317:.\Generated_Source\PSoC5/cyfitter_cfg.c **** *
 318:.\Generated_Source\PSoC5/cyfitter_cfg.c **** * Return:
 319:.\Generated_Source\PSoC5/cyfitter_cfg.c **** *   void
 320:.\Generated_Source\PSoC5/cyfitter_cfg.c **** *
 321:.\Generated_Source\PSoC5/cyfitter_cfg.c **** *******************************************************************************/
 322:.\Generated_Source\PSoC5/cyfitter_cfg.c **** 
 323:.\Generated_Source\PSoC5/cyfitter_cfg.c **** void cyfitter_cfg(void)
 324:.\Generated_Source\PSoC5/cyfitter_cfg.c **** {
 436              		.loc 1 324 0
 437              		.cfi_startproc
 438              		@ args = 0, pretend = 0, frame = 0
 439              		@ frame_needed = 0, uses_anonymous_args = 0
 440 0000 38B5     		push	{r3, r4, r5, lr}
 441              		.cfi_def_cfa_offset 16
 442              		.cfi_offset 3, -16
 443              		.cfi_offset 4, -12
 444              		.cfi_offset 5, -8
 445              		.cfi_offset 14, -4
 325:.\Generated_Source\PSoC5/cyfitter_cfg.c **** 	/* IOPINS0_0 Address: CYREG_PRT0_DR Size (bytes): 10 */
 326:.\Generated_Source\PSoC5/cyfitter_cfg.c **** 	static const uint8 CYCODE BS_IOPINS0_0_VAL[] = {
 327:.\Generated_Source\PSoC5/cyfitter_cfg.c **** 		0x03u, 0x00u, 0x00u, 0xF0u, 0xF3u, 0x00u, 0xE0u, 0x00u, 0x00u, 0x00u};
 328:.\Generated_Source\PSoC5/cyfitter_cfg.c **** 
 329:.\Generated_Source\PSoC5/cyfitter_cfg.c **** 	/* IOPINS0_7 Address: CYREG_PRT12_DR Size (bytes): 10 */
 330:.\Generated_Source\PSoC5/cyfitter_cfg.c **** 	static const uint8 CYCODE BS_IOPINS0_7_VAL[] = {
 331:.\Generated_Source\PSoC5/cyfitter_cfg.c **** 		0x03u, 0x00u, 0x80u, 0x2Cu, 0xAFu, 0x00u, 0x2Cu, 0x00u, 0x00u, 0x00u};
 332:.\Generated_Source\PSoC5/cyfitter_cfg.c **** 
 333:.\Generated_Source\PSoC5/cyfitter_cfg.c **** 	/* IOPINS0_8 Address: CYREG_PRT15_DR Size (bytes): 10 */
 334:.\Generated_Source\PSoC5/cyfitter_cfg.c **** 	static const uint8 CYCODE BS_IOPINS0_8_VAL[] = {
 335:.\Generated_Source\PSoC5/cyfitter_cfg.c **** 		0x00u, 0x00u, 0x20u, 0x18u, 0x18u, 0x00u, 0x18u, 0x00u, 0xC0u, 0x00u};
 336:.\Generated_Source\PSoC5/cyfitter_cfg.c **** 
 337:.\Generated_Source\PSoC5/cyfitter_cfg.c **** 	/* IOPINS0_2 Address: CYREG_PRT2_DR Size (bytes): 10 */
 338:.\Generated_Source\PSoC5/cyfitter_cfg.c **** 	static const uint8 CYCODE BS_IOPINS0_2_VAL[] = {
 339:.\Generated_Source\PSoC5/cyfitter_cfg.c **** 		0x30u, 0x00u, 0x05u, 0x00u, 0x30u, 0x00u, 0x30u, 0x00u, 0x00u, 0x00u};
 340:.\Generated_Source\PSoC5/cyfitter_cfg.c **** 
 341:.\Generated_Source\PSoC5/cyfitter_cfg.c **** 	/* IOPINS0_4 Address: CYREG_PRT4_DM0 Size (bytes): 8 */
 342:.\Generated_Source\PSoC5/cyfitter_cfg.c **** 	static const uint8 CYCODE BS_IOPINS0_4_VAL[] = {
 343:.\Generated_Source\PSoC5/cyfitter_cfg.c **** 		0xF0u, 0x03u, 0x03u, 0x00u, 0x03u, 0x00u, 0x00u, 0x01u};
 344:.\Generated_Source\PSoC5/cyfitter_cfg.c **** 
 345:.\Generated_Source\PSoC5/cyfitter_cfg.c **** 	/* IOPINS0_5 Address: CYREG_PRT5_DM0 Size (bytes): 8 */
 346:.\Generated_Source\PSoC5/cyfitter_cfg.c **** 	static const uint8 CYCODE BS_IOPINS0_5_VAL[] = {
 347:.\Generated_Source\PSoC5/cyfitter_cfg.c **** 		0xD0u, 0xA3u, 0x73u, 0x00u, 0x82u, 0x00u, 0x00u, 0x00u};
 348:.\Generated_Source\PSoC5/cyfitter_cfg.c **** 
 349:.\Generated_Source\PSoC5/cyfitter_cfg.c **** 	/* IOPINS0_6 Address: CYREG_PRT6_DM0 Size (bytes): 8 */
 350:.\Generated_Source\PSoC5/cyfitter_cfg.c **** 	static const uint8 CYCODE BS_IOPINS0_6_VAL[] = {
 351:.\Generated_Source\PSoC5/cyfitter_cfg.c **** 		0x1Fu, 0xF0u, 0xE0u, 0x00u, 0x10u, 0x00u, 0x00u, 0x00u};
 352:.\Generated_Source\PSoC5/cyfitter_cfg.c **** 
 353:.\Generated_Source\PSoC5/cyfitter_cfg.c **** #ifdef CYGlobalIntDisable
 354:.\Generated_Source\PSoC5/cyfitter_cfg.c **** 	/* Disable interrupts by default. Let user enable if/when they want. */
 355:.\Generated_Source\PSoC5/cyfitter_cfg.c **** 	CYGlobalIntDisable
 446              		.loc 1 355 0
 447              	@ 355 ".\Generated_Source\PSoC5\cyfitter_cfg.c" 1
 448 0002 72B6     		CPSID   i
 449              	@ 0 "" 2
 450              	.LVL31:
 451              		.thumb
 452              	.LBB3:
 356:.\Generated_Source\PSoC5/cyfitter_cfg.c **** #endif
ARM GAS  C:\Users\xavieran\AppData\Local\Temp\ccbEwKhF.s 			page 16


 357:.\Generated_Source\PSoC5/cyfitter_cfg.c **** 
 358:.\Generated_Source\PSoC5/cyfitter_cfg.c **** 	{
 359:.\Generated_Source\PSoC5/cyfitter_cfg.c **** 		static const uint32 CYCODE cy_cfg_addr_table[] = {
 360:.\Generated_Source\PSoC5/cyfitter_cfg.c **** 			0x40004503u, /* Base address: 0x40004500 Count: 3 */
 361:.\Generated_Source\PSoC5/cyfitter_cfg.c **** 			0x40004F08u, /* Base address: 0x40004F00 Count: 8 */
 362:.\Generated_Source\PSoC5/cyfitter_cfg.c **** 			0x4000520Eu, /* Base address: 0x40005200 Count: 14 */
 363:.\Generated_Source\PSoC5/cyfitter_cfg.c **** 			0x40006401u, /* Base address: 0x40006400 Count: 1 */
 364:.\Generated_Source\PSoC5/cyfitter_cfg.c **** 			0x40010103u, /* Base address: 0x40010100 Count: 3 */
 365:.\Generated_Source\PSoC5/cyfitter_cfg.c **** 			0x40010304u, /* Base address: 0x40010300 Count: 4 */
 366:.\Generated_Source\PSoC5/cyfitter_cfg.c **** 			0x40010413u, /* Base address: 0x40010400 Count: 19 */
 367:.\Generated_Source\PSoC5/cyfitter_cfg.c **** 			0x4001050Eu, /* Base address: 0x40010500 Count: 14 */
 368:.\Generated_Source\PSoC5/cyfitter_cfg.c **** 			0x40010632u, /* Base address: 0x40010600 Count: 50 */
 369:.\Generated_Source\PSoC5/cyfitter_cfg.c **** 			0x40010718u, /* Base address: 0x40010700 Count: 24 */
 370:.\Generated_Source\PSoC5/cyfitter_cfg.c **** 			0x40010907u, /* Base address: 0x40010900 Count: 7 */
 371:.\Generated_Source\PSoC5/cyfitter_cfg.c **** 			0x40010B03u, /* Base address: 0x40010B00 Count: 3 */
 372:.\Generated_Source\PSoC5/cyfitter_cfg.c **** 			0x40010C04u, /* Base address: 0x40010C00 Count: 4 */
 373:.\Generated_Source\PSoC5/cyfitter_cfg.c **** 			0x40010D0Au, /* Base address: 0x40010D00 Count: 10 */
 374:.\Generated_Source\PSoC5/cyfitter_cfg.c **** 			0x40010E13u, /* Base address: 0x40010E00 Count: 19 */
 375:.\Generated_Source\PSoC5/cyfitter_cfg.c **** 			0x40010F16u, /* Base address: 0x40010F00 Count: 22 */
 376:.\Generated_Source\PSoC5/cyfitter_cfg.c **** 			0x40011503u, /* Base address: 0x40011500 Count: 3 */
 377:.\Generated_Source\PSoC5/cyfitter_cfg.c **** 			0x40011704u, /* Base address: 0x40011700 Count: 4 */
 378:.\Generated_Source\PSoC5/cyfitter_cfg.c **** 			0x40011905u, /* Base address: 0x40011900 Count: 5 */
 379:.\Generated_Source\PSoC5/cyfitter_cfg.c **** 			0x40011A05u, /* Base address: 0x40011A00 Count: 5 */
 380:.\Generated_Source\PSoC5/cyfitter_cfg.c **** 			0x40011B0Au, /* Base address: 0x40011B00 Count: 10 */
 381:.\Generated_Source\PSoC5/cyfitter_cfg.c **** 			0x40014011u, /* Base address: 0x40014000 Count: 17 */
 382:.\Generated_Source\PSoC5/cyfitter_cfg.c **** 			0x40014112u, /* Base address: 0x40014100 Count: 18 */
 383:.\Generated_Source\PSoC5/cyfitter_cfg.c **** 			0x40014219u, /* Base address: 0x40014200 Count: 25 */
 384:.\Generated_Source\PSoC5/cyfitter_cfg.c **** 			0x40014319u, /* Base address: 0x40014300 Count: 25 */
 385:.\Generated_Source\PSoC5/cyfitter_cfg.c **** 			0x4001440Au, /* Base address: 0x40014400 Count: 10 */
 386:.\Generated_Source\PSoC5/cyfitter_cfg.c **** 			0x40014511u, /* Base address: 0x40014500 Count: 17 */
 387:.\Generated_Source\PSoC5/cyfitter_cfg.c **** 			0x40014608u, /* Base address: 0x40014600 Count: 8 */
 388:.\Generated_Source\PSoC5/cyfitter_cfg.c **** 			0x4001470Eu, /* Base address: 0x40014700 Count: 14 */
 389:.\Generated_Source\PSoC5/cyfitter_cfg.c **** 			0x4001480Eu, /* Base address: 0x40014800 Count: 14 */
 390:.\Generated_Source\PSoC5/cyfitter_cfg.c **** 			0x4001490Bu, /* Base address: 0x40014900 Count: 11 */
 391:.\Generated_Source\PSoC5/cyfitter_cfg.c **** 			0x40014C13u, /* Base address: 0x40014C00 Count: 19 */
 392:.\Generated_Source\PSoC5/cyfitter_cfg.c **** 			0x40014D0Eu, /* Base address: 0x40014D00 Count: 14 */
 393:.\Generated_Source\PSoC5/cyfitter_cfg.c **** 			0x40015003u, /* Base address: 0x40015000 Count: 3 */
 394:.\Generated_Source\PSoC5/cyfitter_cfg.c **** 			0x40015104u, /* Base address: 0x40015100 Count: 4 */
 395:.\Generated_Source\PSoC5/cyfitter_cfg.c **** 		};
 396:.\Generated_Source\PSoC5/cyfitter_cfg.c **** 
 397:.\Generated_Source\PSoC5/cyfitter_cfg.c **** 		static const cy_cfg_addrvalue_t CYCODE cy_cfg_data_table[] = {
 398:.\Generated_Source\PSoC5/cyfitter_cfg.c **** 			{0x00u, 0x02u},
 399:.\Generated_Source\PSoC5/cyfitter_cfg.c **** 			{0x60u, 0x02u},
 400:.\Generated_Source\PSoC5/cyfitter_cfg.c **** 			{0x7Eu, 0x02u},
 401:.\Generated_Source\PSoC5/cyfitter_cfg.c **** 			{0x01u, 0x10u},
 402:.\Generated_Source\PSoC5/cyfitter_cfg.c **** 			{0x0Au, 0x4Bu},
 403:.\Generated_Source\PSoC5/cyfitter_cfg.c **** 			{0x0Du, 0x30u},
 404:.\Generated_Source\PSoC5/cyfitter_cfg.c **** 			{0x16u, 0x4Bu},
 405:.\Generated_Source\PSoC5/cyfitter_cfg.c **** 			{0x19u, 0x40u},
 406:.\Generated_Source\PSoC5/cyfitter_cfg.c **** 			{0x22u, 0x4Bu},
 407:.\Generated_Source\PSoC5/cyfitter_cfg.c **** 			{0x25u, 0x20u},
 408:.\Generated_Source\PSoC5/cyfitter_cfg.c **** 			{0x2Eu, 0x4Bu},
 409:.\Generated_Source\PSoC5/cyfitter_cfg.c **** 			{0x00u, 0x40u},
 410:.\Generated_Source\PSoC5/cyfitter_cfg.c **** 			{0x01u, 0xC0u},
 411:.\Generated_Source\PSoC5/cyfitter_cfg.c **** 			{0x04u, 0x03u},
 412:.\Generated_Source\PSoC5/cyfitter_cfg.c **** 			{0x11u, 0x20u},
 413:.\Generated_Source\PSoC5/cyfitter_cfg.c **** 			{0x14u, 0x30u},
ARM GAS  C:\Users\xavieran\AppData\Local\Temp\ccbEwKhF.s 			page 17


 414:.\Generated_Source\PSoC5/cyfitter_cfg.c **** 			{0x20u, 0x03u},
 415:.\Generated_Source\PSoC5/cyfitter_cfg.c **** 			{0x21u, 0x02u},
 416:.\Generated_Source\PSoC5/cyfitter_cfg.c **** 			{0x28u, 0x02u},
 417:.\Generated_Source\PSoC5/cyfitter_cfg.c **** 			{0x29u, 0x80u},
 418:.\Generated_Source\PSoC5/cyfitter_cfg.c **** 			{0x30u, 0x10u},
 419:.\Generated_Source\PSoC5/cyfitter_cfg.c **** 			{0x31u, 0x10u},
 420:.\Generated_Source\PSoC5/cyfitter_cfg.c **** 			{0x78u, 0x08u},
 421:.\Generated_Source\PSoC5/cyfitter_cfg.c **** 			{0x79u, 0x18u},
 422:.\Generated_Source\PSoC5/cyfitter_cfg.c **** 			{0x7Cu, 0x40u},
 423:.\Generated_Source\PSoC5/cyfitter_cfg.c **** 			{0x87u, 0x0Du},
 424:.\Generated_Source\PSoC5/cyfitter_cfg.c **** 			{0x81u, 0x08u},
 425:.\Generated_Source\PSoC5/cyfitter_cfg.c **** 			{0xE0u, 0x80u},
 426:.\Generated_Source\PSoC5/cyfitter_cfg.c **** 			{0xE2u, 0x05u},
 427:.\Generated_Source\PSoC5/cyfitter_cfg.c **** 			{0xA1u, 0x08u},
 428:.\Generated_Source\PSoC5/cyfitter_cfg.c **** 			{0xE8u, 0x05u},
 429:.\Generated_Source\PSoC5/cyfitter_cfg.c **** 			{0xEAu, 0x02u},
 430:.\Generated_Source\PSoC5/cyfitter_cfg.c **** 			{0xECu, 0x08u},
 431:.\Generated_Source\PSoC5/cyfitter_cfg.c **** 			{0xC0u, 0x34u},
 432:.\Generated_Source\PSoC5/cyfitter_cfg.c **** 			{0xC9u, 0xFFu},
 433:.\Generated_Source\PSoC5/cyfitter_cfg.c **** 			{0xCAu, 0xFFu},
 434:.\Generated_Source\PSoC5/cyfitter_cfg.c **** 			{0xCBu, 0xFFu},
 435:.\Generated_Source\PSoC5/cyfitter_cfg.c **** 			{0xCFu, 0x01u},
 436:.\Generated_Source\PSoC5/cyfitter_cfg.c **** 			{0xD0u, 0x18u},
 437:.\Generated_Source\PSoC5/cyfitter_cfg.c **** 			{0xDAu, 0x04u},
 438:.\Generated_Source\PSoC5/cyfitter_cfg.c **** 			{0xDBu, 0x04u},
 439:.\Generated_Source\PSoC5/cyfitter_cfg.c **** 			{0xDDu, 0x06u},
 440:.\Generated_Source\PSoC5/cyfitter_cfg.c **** 			{0xDFu, 0x01u},
 441:.\Generated_Source\PSoC5/cyfitter_cfg.c **** 			{0xE0u, 0x40u},
 442:.\Generated_Source\PSoC5/cyfitter_cfg.c **** 			{0xE2u, 0x40u},
 443:.\Generated_Source\PSoC5/cyfitter_cfg.c **** 			{0xE4u, 0x40u},
 444:.\Generated_Source\PSoC5/cyfitter_cfg.c **** 			{0xE5u, 0x40u},
 445:.\Generated_Source\PSoC5/cyfitter_cfg.c **** 			{0xE6u, 0x80u},
 446:.\Generated_Source\PSoC5/cyfitter_cfg.c **** 			{0xE8u, 0x80u},
 447:.\Generated_Source\PSoC5/cyfitter_cfg.c **** 			{0xEAu, 0x80u},
 448:.\Generated_Source\PSoC5/cyfitter_cfg.c **** 			{0xECu, 0x80u},
 449:.\Generated_Source\PSoC5/cyfitter_cfg.c **** 			{0xEEu, 0x80u},
 450:.\Generated_Source\PSoC5/cyfitter_cfg.c **** 			{0x45u, 0x08u},
 451:.\Generated_Source\PSoC5/cyfitter_cfg.c **** 			{0x46u, 0x40u},
 452:.\Generated_Source\PSoC5/cyfitter_cfg.c **** 			{0x6Du, 0x10u},
 453:.\Generated_Source\PSoC5/cyfitter_cfg.c **** 			{0x6Fu, 0x91u},
 454:.\Generated_Source\PSoC5/cyfitter_cfg.c **** 			{0x75u, 0x40u},
 455:.\Generated_Source\PSoC5/cyfitter_cfg.c **** 			{0x77u, 0x04u},
 456:.\Generated_Source\PSoC5/cyfitter_cfg.c **** 			{0x83u, 0x04u},
 457:.\Generated_Source\PSoC5/cyfitter_cfg.c **** 			{0x89u, 0x40u},
 458:.\Generated_Source\PSoC5/cyfitter_cfg.c **** 			{0x8Fu, 0x80u},
 459:.\Generated_Source\PSoC5/cyfitter_cfg.c **** 			{0x95u, 0x10u},
 460:.\Generated_Source\PSoC5/cyfitter_cfg.c **** 			{0xA1u, 0x08u},
 461:.\Generated_Source\PSoC5/cyfitter_cfg.c **** 			{0xADu, 0x10u},
 462:.\Generated_Source\PSoC5/cyfitter_cfg.c **** 			{0xD0u, 0xC0u},
 463:.\Generated_Source\PSoC5/cyfitter_cfg.c **** 			{0xE2u, 0xC0u},
 464:.\Generated_Source\PSoC5/cyfitter_cfg.c **** 			{0x40u, 0x34u},
 465:.\Generated_Source\PSoC5/cyfitter_cfg.c **** 			{0x49u, 0xFFu},
 466:.\Generated_Source\PSoC5/cyfitter_cfg.c **** 			{0x4Au, 0xFFu},
 467:.\Generated_Source\PSoC5/cyfitter_cfg.c **** 			{0x4Bu, 0xFFu},
 468:.\Generated_Source\PSoC5/cyfitter_cfg.c **** 			{0x4Du, 0x83u},
 469:.\Generated_Source\PSoC5/cyfitter_cfg.c **** 			{0x4Eu, 0x03u},
 470:.\Generated_Source\PSoC5/cyfitter_cfg.c **** 			{0x4Fu, 0x01u},
ARM GAS  C:\Users\xavieran\AppData\Local\Temp\ccbEwKhF.s 			page 18


 471:.\Generated_Source\PSoC5/cyfitter_cfg.c **** 			{0x50u, 0x18u},
 472:.\Generated_Source\PSoC5/cyfitter_cfg.c **** 			{0x5Au, 0x04u},
 473:.\Generated_Source\PSoC5/cyfitter_cfg.c **** 			{0x5Du, 0x06u},
 474:.\Generated_Source\PSoC5/cyfitter_cfg.c **** 			{0x5Fu, 0x01u},
 475:.\Generated_Source\PSoC5/cyfitter_cfg.c **** 			{0x60u, 0x40u},
 476:.\Generated_Source\PSoC5/cyfitter_cfg.c **** 			{0x62u, 0x40u},
 477:.\Generated_Source\PSoC5/cyfitter_cfg.c **** 			{0x64u, 0x40u},
 478:.\Generated_Source\PSoC5/cyfitter_cfg.c **** 			{0x65u, 0x40u},
 479:.\Generated_Source\PSoC5/cyfitter_cfg.c **** 			{0x66u, 0x80u},
 480:.\Generated_Source\PSoC5/cyfitter_cfg.c **** 			{0x68u, 0x80u},
 481:.\Generated_Source\PSoC5/cyfitter_cfg.c **** 			{0x6Au, 0x80u},
 482:.\Generated_Source\PSoC5/cyfitter_cfg.c **** 			{0x6Cu, 0x80u},
 483:.\Generated_Source\PSoC5/cyfitter_cfg.c **** 			{0x6Eu, 0x80u},
 484:.\Generated_Source\PSoC5/cyfitter_cfg.c **** 			{0x82u, 0x01u},
 485:.\Generated_Source\PSoC5/cyfitter_cfg.c **** 			{0x96u, 0x01u},
 486:.\Generated_Source\PSoC5/cyfitter_cfg.c **** 			{0xB6u, 0x01u},
 487:.\Generated_Source\PSoC5/cyfitter_cfg.c **** 			{0xBEu, 0x40u},
 488:.\Generated_Source\PSoC5/cyfitter_cfg.c **** 			{0xC0u, 0x31u},
 489:.\Generated_Source\PSoC5/cyfitter_cfg.c **** 			{0xC5u, 0xECu},
 490:.\Generated_Source\PSoC5/cyfitter_cfg.c **** 			{0xC6u, 0x02u},
 491:.\Generated_Source\PSoC5/cyfitter_cfg.c **** 			{0xC8u, 0x07u},
 492:.\Generated_Source\PSoC5/cyfitter_cfg.c **** 			{0xC9u, 0xFFu},
 493:.\Generated_Source\PSoC5/cyfitter_cfg.c **** 			{0xCAu, 0xFFu},
 494:.\Generated_Source\PSoC5/cyfitter_cfg.c **** 			{0xCBu, 0xFFu},
 495:.\Generated_Source\PSoC5/cyfitter_cfg.c **** 			{0xCDu, 0x83u},
 496:.\Generated_Source\PSoC5/cyfitter_cfg.c **** 			{0xCEu, 0x03u},
 497:.\Generated_Source\PSoC5/cyfitter_cfg.c **** 			{0xCFu, 0x01u},
 498:.\Generated_Source\PSoC5/cyfitter_cfg.c **** 			{0xD0u, 0x18u},
 499:.\Generated_Source\PSoC5/cyfitter_cfg.c **** 			{0xD4u, 0x01u},
 500:.\Generated_Source\PSoC5/cyfitter_cfg.c **** 			{0xD8u, 0x04u},
 501:.\Generated_Source\PSoC5/cyfitter_cfg.c **** 			{0xDAu, 0x04u},
 502:.\Generated_Source\PSoC5/cyfitter_cfg.c **** 			{0xDBu, 0x04u},
 503:.\Generated_Source\PSoC5/cyfitter_cfg.c **** 			{0xDDu, 0x66u},
 504:.\Generated_Source\PSoC5/cyfitter_cfg.c **** 			{0xDFu, 0x01u},
 505:.\Generated_Source\PSoC5/cyfitter_cfg.c **** 			{0xE0u, 0x40u},
 506:.\Generated_Source\PSoC5/cyfitter_cfg.c **** 			{0xE2u, 0x40u},
 507:.\Generated_Source\PSoC5/cyfitter_cfg.c **** 			{0xE4u, 0x40u},
 508:.\Generated_Source\PSoC5/cyfitter_cfg.c **** 			{0xE5u, 0x40u},
 509:.\Generated_Source\PSoC5/cyfitter_cfg.c **** 			{0xE6u, 0x80u},
 510:.\Generated_Source\PSoC5/cyfitter_cfg.c **** 			{0xE8u, 0x80u},
 511:.\Generated_Source\PSoC5/cyfitter_cfg.c **** 			{0xEAu, 0x80u},
 512:.\Generated_Source\PSoC5/cyfitter_cfg.c **** 			{0xECu, 0x80u},
 513:.\Generated_Source\PSoC5/cyfitter_cfg.c **** 			{0xEEu, 0x80u},
 514:.\Generated_Source\PSoC5/cyfitter_cfg.c **** 			{0x02u, 0x40u},
 515:.\Generated_Source\PSoC5/cyfitter_cfg.c **** 			{0x09u, 0x08u},
 516:.\Generated_Source\PSoC5/cyfitter_cfg.c **** 			{0x19u, 0x40u},
 517:.\Generated_Source\PSoC5/cyfitter_cfg.c **** 			{0x41u, 0x08u},
 518:.\Generated_Source\PSoC5/cyfitter_cfg.c **** 			{0x43u, 0x80u},
 519:.\Generated_Source\PSoC5/cyfitter_cfg.c **** 			{0x45u, 0x08u},
 520:.\Generated_Source\PSoC5/cyfitter_cfg.c **** 			{0x46u, 0x40u},
 521:.\Generated_Source\PSoC5/cyfitter_cfg.c **** 			{0x49u, 0x05u},
 522:.\Generated_Source\PSoC5/cyfitter_cfg.c **** 			{0x52u, 0x40u},
 523:.\Generated_Source\PSoC5/cyfitter_cfg.c **** 			{0x53u, 0x80u},
 524:.\Generated_Source\PSoC5/cyfitter_cfg.c **** 			{0x59u, 0x45u},
 525:.\Generated_Source\PSoC5/cyfitter_cfg.c **** 			{0x9Eu, 0x40u},
 526:.\Generated_Source\PSoC5/cyfitter_cfg.c **** 			{0xA1u, 0x08u},
 527:.\Generated_Source\PSoC5/cyfitter_cfg.c **** 			{0xAFu, 0x01u},
ARM GAS  C:\Users\xavieran\AppData\Local\Temp\ccbEwKhF.s 			page 19


 528:.\Generated_Source\PSoC5/cyfitter_cfg.c **** 			{0xB7u, 0x10u},
 529:.\Generated_Source\PSoC5/cyfitter_cfg.c **** 			{0xC0u, 0x08u},
 530:.\Generated_Source\PSoC5/cyfitter_cfg.c **** 			{0xC2u, 0x04u},
 531:.\Generated_Source\PSoC5/cyfitter_cfg.c **** 			{0xD0u, 0xCAu},
 532:.\Generated_Source\PSoC5/cyfitter_cfg.c **** 			{0xD6u, 0x0Bu},
 533:.\Generated_Source\PSoC5/cyfitter_cfg.c **** 			{0xE0u, 0x80u},
 534:.\Generated_Source\PSoC5/cyfitter_cfg.c **** 			{0xE4u, 0x01u},
 535:.\Generated_Source\PSoC5/cyfitter_cfg.c **** 			{0xE8u, 0x04u},
 536:.\Generated_Source\PSoC5/cyfitter_cfg.c **** 			{0xECu, 0x08u},
 537:.\Generated_Source\PSoC5/cyfitter_cfg.c **** 			{0xEEu, 0x42u},
 538:.\Generated_Source\PSoC5/cyfitter_cfg.c **** 			{0xA2u, 0x08u},
 539:.\Generated_Source\PSoC5/cyfitter_cfg.c **** 			{0xAAu, 0x08u},
 540:.\Generated_Source\PSoC5/cyfitter_cfg.c **** 			{0xADu, 0x80u},
 541:.\Generated_Source\PSoC5/cyfitter_cfg.c **** 			{0xAFu, 0x20u},
 542:.\Generated_Source\PSoC5/cyfitter_cfg.c **** 			{0xB5u, 0x02u},
 543:.\Generated_Source\PSoC5/cyfitter_cfg.c **** 			{0xE0u, 0x80u},
 544:.\Generated_Source\PSoC5/cyfitter_cfg.c **** 			{0xE4u, 0x01u},
 545:.\Generated_Source\PSoC5/cyfitter_cfg.c **** 			{0xA1u, 0x80u},
 546:.\Generated_Source\PSoC5/cyfitter_cfg.c **** 			{0xA5u, 0x02u},
 547:.\Generated_Source\PSoC5/cyfitter_cfg.c **** 			{0xA7u, 0x20u},
 548:.\Generated_Source\PSoC5/cyfitter_cfg.c **** 			{0x38u, 0x80u},
 549:.\Generated_Source\PSoC5/cyfitter_cfg.c **** 			{0x3Eu, 0x40u},
 550:.\Generated_Source\PSoC5/cyfitter_cfg.c **** 			{0x58u, 0x04u},
 551:.\Generated_Source\PSoC5/cyfitter_cfg.c **** 			{0x5Fu, 0x01u},
 552:.\Generated_Source\PSoC5/cyfitter_cfg.c **** 			{0x1Du, 0x80u},
 553:.\Generated_Source\PSoC5/cyfitter_cfg.c **** 			{0xA5u, 0x02u},
 554:.\Generated_Source\PSoC5/cyfitter_cfg.c **** 			{0xA7u, 0x20u},
 555:.\Generated_Source\PSoC5/cyfitter_cfg.c **** 			{0xABu, 0x14u},
 556:.\Generated_Source\PSoC5/cyfitter_cfg.c **** 			{0xACu, 0x40u},
 557:.\Generated_Source\PSoC5/cyfitter_cfg.c **** 			{0xAEu, 0x02u},
 558:.\Generated_Source\PSoC5/cyfitter_cfg.c **** 			{0xAFu, 0x08u},
 559:.\Generated_Source\PSoC5/cyfitter_cfg.c **** 			{0xB1u, 0xC0u},
 560:.\Generated_Source\PSoC5/cyfitter_cfg.c **** 			{0xB4u, 0x20u},
 561:.\Generated_Source\PSoC5/cyfitter_cfg.c **** 			{0xEEu, 0x02u},
 562:.\Generated_Source\PSoC5/cyfitter_cfg.c **** 			{0x42u, 0x03u},
 563:.\Generated_Source\PSoC5/cyfitter_cfg.c **** 			{0x47u, 0xE0u},
 564:.\Generated_Source\PSoC5/cyfitter_cfg.c **** 			{0x48u, 0x20u},
 565:.\Generated_Source\PSoC5/cyfitter_cfg.c **** 			{0x49u, 0xFFu},
 566:.\Generated_Source\PSoC5/cyfitter_cfg.c **** 			{0x4Au, 0xFFu},
 567:.\Generated_Source\PSoC5/cyfitter_cfg.c **** 			{0x4Bu, 0xFFu},
 568:.\Generated_Source\PSoC5/cyfitter_cfg.c **** 			{0x4Fu, 0x83u},
 569:.\Generated_Source\PSoC5/cyfitter_cfg.c **** 			{0x5Au, 0x04u},
 570:.\Generated_Source\PSoC5/cyfitter_cfg.c **** 			{0x5Bu, 0x04u},
 571:.\Generated_Source\PSoC5/cyfitter_cfg.c **** 			{0x5Du, 0x08u},
 572:.\Generated_Source\PSoC5/cyfitter_cfg.c **** 			{0x5Fu, 0x21u},
 573:.\Generated_Source\PSoC5/cyfitter_cfg.c **** 			{0xAFu, 0x01u},
 574:.\Generated_Source\PSoC5/cyfitter_cfg.c **** 			{0xB1u, 0x01u},
 575:.\Generated_Source\PSoC5/cyfitter_cfg.c **** 			{0xD2u, 0x80u},
 576:.\Generated_Source\PSoC5/cyfitter_cfg.c **** 			{0xD9u, 0x04u},
 577:.\Generated_Source\PSoC5/cyfitter_cfg.c **** 			{0xDBu, 0x04u},
 578:.\Generated_Source\PSoC5/cyfitter_cfg.c **** 			{0xDCu, 0x80u},
 579:.\Generated_Source\PSoC5/cyfitter_cfg.c **** 			{0xDDu, 0x60u},
 580:.\Generated_Source\PSoC5/cyfitter_cfg.c **** 			{0xDFu, 0x21u},
 581:.\Generated_Source\PSoC5/cyfitter_cfg.c **** 			{0x26u, 0x02u},
 582:.\Generated_Source\PSoC5/cyfitter_cfg.c **** 			{0x2Du, 0x80u},
 583:.\Generated_Source\PSoC5/cyfitter_cfg.c **** 			{0x43u, 0x08u},
 584:.\Generated_Source\PSoC5/cyfitter_cfg.c **** 			{0x52u, 0x01u},
ARM GAS  C:\Users\xavieran\AppData\Local\Temp\ccbEwKhF.s 			page 20


 585:.\Generated_Source\PSoC5/cyfitter_cfg.c **** 			{0x58u, 0x40u},
 586:.\Generated_Source\PSoC5/cyfitter_cfg.c **** 			{0x59u, 0x02u},
 587:.\Generated_Source\PSoC5/cyfitter_cfg.c **** 			{0x5Bu, 0x14u},
 588:.\Generated_Source\PSoC5/cyfitter_cfg.c **** 			{0x60u, 0x28u},
 589:.\Generated_Source\PSoC5/cyfitter_cfg.c **** 			{0x61u, 0x42u},
 590:.\Generated_Source\PSoC5/cyfitter_cfg.c **** 			{0x76u, 0x80u},
 591:.\Generated_Source\PSoC5/cyfitter_cfg.c **** 			{0x7Au, 0x20u},
 592:.\Generated_Source\PSoC5/cyfitter_cfg.c **** 			{0x7Fu, 0x20u},
 593:.\Generated_Source\PSoC5/cyfitter_cfg.c **** 			{0x82u, 0x81u},
 594:.\Generated_Source\PSoC5/cyfitter_cfg.c **** 			{0x89u, 0x02u},
 595:.\Generated_Source\PSoC5/cyfitter_cfg.c **** 			{0x8Cu, 0x08u},
 596:.\Generated_Source\PSoC5/cyfitter_cfg.c **** 			{0x8Eu, 0x20u},
 597:.\Generated_Source\PSoC5/cyfitter_cfg.c **** 			{0xCAu, 0x10u},
 598:.\Generated_Source\PSoC5/cyfitter_cfg.c **** 			{0xD0u, 0x02u},
 599:.\Generated_Source\PSoC5/cyfitter_cfg.c **** 			{0xD6u, 0x0Fu},
 600:.\Generated_Source\PSoC5/cyfitter_cfg.c **** 			{0xD8u, 0x0Fu},
 601:.\Generated_Source\PSoC5/cyfitter_cfg.c **** 			{0xDEu, 0x42u},
 602:.\Generated_Source\PSoC5/cyfitter_cfg.c **** 			{0xE0u, 0x80u},
 603:.\Generated_Source\PSoC5/cyfitter_cfg.c **** 			{0xE2u, 0x01u},
 604:.\Generated_Source\PSoC5/cyfitter_cfg.c **** 			{0xE4u, 0x04u},
 605:.\Generated_Source\PSoC5/cyfitter_cfg.c **** 			{0xEAu, 0x01u},
 606:.\Generated_Source\PSoC5/cyfitter_cfg.c **** 			{0xE4u, 0x80u},
 607:.\Generated_Source\PSoC5/cyfitter_cfg.c **** 			{0xE8u, 0x10u},
 608:.\Generated_Source\PSoC5/cyfitter_cfg.c **** 			{0xEAu, 0x02u},
 609:.\Generated_Source\PSoC5/cyfitter_cfg.c **** 			{0xEEu, 0x0Au},
 610:.\Generated_Source\PSoC5/cyfitter_cfg.c **** 			{0xA2u, 0x08u},
 611:.\Generated_Source\PSoC5/cyfitter_cfg.c **** 			{0xE4u, 0x80u},
 612:.\Generated_Source\PSoC5/cyfitter_cfg.c **** 			{0xE8u, 0x10u},
 613:.\Generated_Source\PSoC5/cyfitter_cfg.c **** 			{0xEAu, 0x02u},
 614:.\Generated_Source\PSoC5/cyfitter_cfg.c **** 			{0xEEu, 0x0Au},
 615:.\Generated_Source\PSoC5/cyfitter_cfg.c **** 			{0x2Eu, 0x01u},
 616:.\Generated_Source\PSoC5/cyfitter_cfg.c **** 			{0x36u, 0x01u},
 617:.\Generated_Source\PSoC5/cyfitter_cfg.c **** 			{0x58u, 0x04u},
 618:.\Generated_Source\PSoC5/cyfitter_cfg.c **** 			{0x5Cu, 0x08u},
 619:.\Generated_Source\PSoC5/cyfitter_cfg.c **** 			{0x5Fu, 0x11u},
 620:.\Generated_Source\PSoC5/cyfitter_cfg.c **** 			{0x10u, 0x02u},
 621:.\Generated_Source\PSoC5/cyfitter_cfg.c **** 			{0x18u, 0x01u},
 622:.\Generated_Source\PSoC5/cyfitter_cfg.c **** 			{0x7Au, 0x08u},
 623:.\Generated_Source\PSoC5/cyfitter_cfg.c **** 			{0x80u, 0x01u},
 624:.\Generated_Source\PSoC5/cyfitter_cfg.c **** 			{0x88u, 0x02u},
 625:.\Generated_Source\PSoC5/cyfitter_cfg.c **** 			{0xA2u, 0x08u},
 626:.\Generated_Source\PSoC5/cyfitter_cfg.c **** 			{0xC4u, 0x01u},
 627:.\Generated_Source\PSoC5/cyfitter_cfg.c **** 			{0xDEu, 0x04u},
 628:.\Generated_Source\PSoC5/cyfitter_cfg.c **** 			{0xE4u, 0x04u},
 629:.\Generated_Source\PSoC5/cyfitter_cfg.c **** 			{0xEAu, 0x01u},
 630:.\Generated_Source\PSoC5/cyfitter_cfg.c **** 			{0x0Au, 0x18u},
 631:.\Generated_Source\PSoC5/cyfitter_cfg.c **** 			{0x0Cu, 0x40u},
 632:.\Generated_Source\PSoC5/cyfitter_cfg.c **** 			{0x0Eu, 0x40u},
 633:.\Generated_Source\PSoC5/cyfitter_cfg.c **** 			{0x33u, 0x81u},
 634:.\Generated_Source\PSoC5/cyfitter_cfg.c **** 			{0x36u, 0x40u},
 635:.\Generated_Source\PSoC5/cyfitter_cfg.c **** 			{0x37u, 0x04u},
 636:.\Generated_Source\PSoC5/cyfitter_cfg.c **** 			{0x3Fu, 0x80u},
 637:.\Generated_Source\PSoC5/cyfitter_cfg.c **** 			{0x55u, 0x40u},
 638:.\Generated_Source\PSoC5/cyfitter_cfg.c **** 			{0x56u, 0x02u},
 639:.\Generated_Source\PSoC5/cyfitter_cfg.c **** 			{0x83u, 0x40u},
 640:.\Generated_Source\PSoC5/cyfitter_cfg.c **** 			{0x8Au, 0x04u},
 641:.\Generated_Source\PSoC5/cyfitter_cfg.c **** 			{0xC2u, 0xF0u},
ARM GAS  C:\Users\xavieran\AppData\Local\Temp\ccbEwKhF.s 			page 21


 642:.\Generated_Source\PSoC5/cyfitter_cfg.c **** 			{0xCCu, 0xF0u},
 643:.\Generated_Source\PSoC5/cyfitter_cfg.c **** 			{0xCEu, 0x20u},
 644:.\Generated_Source\PSoC5/cyfitter_cfg.c **** 			{0xD4u, 0x40u},
 645:.\Generated_Source\PSoC5/cyfitter_cfg.c **** 			{0xD6u, 0x20u},
 646:.\Generated_Source\PSoC5/cyfitter_cfg.c **** 			{0xE2u, 0x20u},
 647:.\Generated_Source\PSoC5/cyfitter_cfg.c **** 			{0x30u, 0x20u},
 648:.\Generated_Source\PSoC5/cyfitter_cfg.c **** 			{0x60u, 0x08u},
 649:.\Generated_Source\PSoC5/cyfitter_cfg.c **** 			{0x61u, 0x80u},
 650:.\Generated_Source\PSoC5/cyfitter_cfg.c **** 			{0x66u, 0x20u},
 651:.\Generated_Source\PSoC5/cyfitter_cfg.c **** 			{0x9Eu, 0x02u},
 652:.\Generated_Source\PSoC5/cyfitter_cfg.c **** 			{0x9Fu, 0x05u},
 653:.\Generated_Source\PSoC5/cyfitter_cfg.c **** 			{0xA0u, 0x20u},
 654:.\Generated_Source\PSoC5/cyfitter_cfg.c **** 			{0xA5u, 0x40u},
 655:.\Generated_Source\PSoC5/cyfitter_cfg.c **** 			{0xA6u, 0x40u},
 656:.\Generated_Source\PSoC5/cyfitter_cfg.c **** 			{0xA7u, 0x80u},
 657:.\Generated_Source\PSoC5/cyfitter_cfg.c **** 			{0xAAu, 0x50u},
 658:.\Generated_Source\PSoC5/cyfitter_cfg.c **** 			{0xACu, 0x60u},
 659:.\Generated_Source\PSoC5/cyfitter_cfg.c **** 			{0xCCu, 0x10u},
 660:.\Generated_Source\PSoC5/cyfitter_cfg.c **** 			{0xD6u, 0x40u},
 661:.\Generated_Source\PSoC5/cyfitter_cfg.c **** 			{0xD8u, 0xC0u},
 662:.\Generated_Source\PSoC5/cyfitter_cfg.c **** 			{0xE8u, 0xA0u},
 663:.\Generated_Source\PSoC5/cyfitter_cfg.c **** 			{0xEAu, 0x40u},
 664:.\Generated_Source\PSoC5/cyfitter_cfg.c **** 			{0xECu, 0x10u},
 665:.\Generated_Source\PSoC5/cyfitter_cfg.c **** 			{0x10u, 0x80u},
 666:.\Generated_Source\PSoC5/cyfitter_cfg.c **** 			{0x12u, 0x80u},
 667:.\Generated_Source\PSoC5/cyfitter_cfg.c **** 			{0x3Eu, 0x10u},
 668:.\Generated_Source\PSoC5/cyfitter_cfg.c **** 			{0x53u, 0x20u},
 669:.\Generated_Source\PSoC5/cyfitter_cfg.c **** 			{0x58u, 0x02u},
 670:.\Generated_Source\PSoC5/cyfitter_cfg.c **** 			{0x5Cu, 0x02u},
 671:.\Generated_Source\PSoC5/cyfitter_cfg.c **** 			{0x63u, 0x40u},
 672:.\Generated_Source\PSoC5/cyfitter_cfg.c **** 			{0x67u, 0x40u},
 673:.\Generated_Source\PSoC5/cyfitter_cfg.c **** 			{0x83u, 0x20u},
 674:.\Generated_Source\PSoC5/cyfitter_cfg.c **** 			{0x8Bu, 0x20u},
 675:.\Generated_Source\PSoC5/cyfitter_cfg.c **** 			{0x8Cu, 0x08u},
 676:.\Generated_Source\PSoC5/cyfitter_cfg.c **** 			{0x9Cu, 0x08u},
 677:.\Generated_Source\PSoC5/cyfitter_cfg.c **** 			{0x9Eu, 0x20u},
 678:.\Generated_Source\PSoC5/cyfitter_cfg.c **** 			{0x9Fu, 0x05u},
 679:.\Generated_Source\PSoC5/cyfitter_cfg.c **** 			{0xA5u, 0xC0u},
 680:.\Generated_Source\PSoC5/cyfitter_cfg.c **** 			{0xA6u, 0x40u},
 681:.\Generated_Source\PSoC5/cyfitter_cfg.c **** 			{0xA7u, 0x80u},
 682:.\Generated_Source\PSoC5/cyfitter_cfg.c **** 			{0xAEu, 0x02u},
 683:.\Generated_Source\PSoC5/cyfitter_cfg.c **** 			{0xC4u, 0x10u},
 684:.\Generated_Source\PSoC5/cyfitter_cfg.c **** 			{0xCEu, 0x20u},
 685:.\Generated_Source\PSoC5/cyfitter_cfg.c **** 			{0xD4u, 0x20u},
 686:.\Generated_Source\PSoC5/cyfitter_cfg.c **** 			{0xD6u, 0xC0u},
 687:.\Generated_Source\PSoC5/cyfitter_cfg.c **** 			{0xD8u, 0xC0u},
 688:.\Generated_Source\PSoC5/cyfitter_cfg.c **** 			{0xE2u, 0x80u},
 689:.\Generated_Source\PSoC5/cyfitter_cfg.c **** 			{0xEEu, 0x10u},
 690:.\Generated_Source\PSoC5/cyfitter_cfg.c **** 			{0x18u, 0x10u},
 691:.\Generated_Source\PSoC5/cyfitter_cfg.c **** 			{0x19u, 0x04u},
 692:.\Generated_Source\PSoC5/cyfitter_cfg.c **** 			{0x1Bu, 0x20u},
 693:.\Generated_Source\PSoC5/cyfitter_cfg.c **** 			{0x1Du, 0x80u},
 694:.\Generated_Source\PSoC5/cyfitter_cfg.c **** 			{0x1Eu, 0x20u},
 695:.\Generated_Source\PSoC5/cyfitter_cfg.c **** 			{0x81u, 0x04u},
 696:.\Generated_Source\PSoC5/cyfitter_cfg.c **** 			{0x8Au, 0x10u},
 697:.\Generated_Source\PSoC5/cyfitter_cfg.c **** 			{0x96u, 0x10u},
 698:.\Generated_Source\PSoC5/cyfitter_cfg.c **** 			{0x9Bu, 0x20u},
ARM GAS  C:\Users\xavieran\AppData\Local\Temp\ccbEwKhF.s 			page 22


 699:.\Generated_Source\PSoC5/cyfitter_cfg.c **** 			{0x9Fu, 0x05u},
 700:.\Generated_Source\PSoC5/cyfitter_cfg.c **** 			{0xA5u, 0x80u},
 701:.\Generated_Source\PSoC5/cyfitter_cfg.c **** 			{0xA6u, 0x40u},
 702:.\Generated_Source\PSoC5/cyfitter_cfg.c **** 			{0xA7u, 0x80u},
 703:.\Generated_Source\PSoC5/cyfitter_cfg.c **** 			{0xA8u, 0x80u},
 704:.\Generated_Source\PSoC5/cyfitter_cfg.c **** 			{0xACu, 0x02u},
 705:.\Generated_Source\PSoC5/cyfitter_cfg.c **** 			{0xADu, 0x40u},
 706:.\Generated_Source\PSoC5/cyfitter_cfg.c **** 			{0xAEu, 0x80u},
 707:.\Generated_Source\PSoC5/cyfitter_cfg.c **** 			{0xAFu, 0x40u},
 708:.\Generated_Source\PSoC5/cyfitter_cfg.c **** 			{0xB6u, 0x20u},
 709:.\Generated_Source\PSoC5/cyfitter_cfg.c **** 			{0xC6u, 0xF0u},
 710:.\Generated_Source\PSoC5/cyfitter_cfg.c **** 			{0xE4u, 0x80u},
 711:.\Generated_Source\PSoC5/cyfitter_cfg.c **** 			{0xE8u, 0x20u},
 712:.\Generated_Source\PSoC5/cyfitter_cfg.c **** 			{0xEAu, 0x40u},
 713:.\Generated_Source\PSoC5/cyfitter_cfg.c **** 			{0xECu, 0x10u},
 714:.\Generated_Source\PSoC5/cyfitter_cfg.c **** 			{0xEEu, 0x40u},
 715:.\Generated_Source\PSoC5/cyfitter_cfg.c **** 			{0x01u, 0x42u},
 716:.\Generated_Source\PSoC5/cyfitter_cfg.c **** 			{0x04u, 0x48u},
 717:.\Generated_Source\PSoC5/cyfitter_cfg.c **** 			{0x08u, 0x04u},
 718:.\Generated_Source\PSoC5/cyfitter_cfg.c **** 			{0x65u, 0x20u},
 719:.\Generated_Source\PSoC5/cyfitter_cfg.c **** 			{0x8Cu, 0x04u},
 720:.\Generated_Source\PSoC5/cyfitter_cfg.c **** 			{0x8Du, 0x40u},
 721:.\Generated_Source\PSoC5/cyfitter_cfg.c **** 			{0xC0u, 0x0Fu},
 722:.\Generated_Source\PSoC5/cyfitter_cfg.c **** 			{0xC2u, 0x08u},
 723:.\Generated_Source\PSoC5/cyfitter_cfg.c **** 			{0xD8u, 0x01u},
 724:.\Generated_Source\PSoC5/cyfitter_cfg.c **** 			{0xE2u, 0x0Au},
 725:.\Generated_Source\PSoC5/cyfitter_cfg.c **** 			{0x00u, 0x08u},
 726:.\Generated_Source\PSoC5/cyfitter_cfg.c **** 			{0x08u, 0x01u},
 727:.\Generated_Source\PSoC5/cyfitter_cfg.c **** 			{0x0Du, 0x02u},
 728:.\Generated_Source\PSoC5/cyfitter_cfg.c **** 			{0x5Bu, 0x08u},
 729:.\Generated_Source\PSoC5/cyfitter_cfg.c **** 			{0x60u, 0x20u},
 730:.\Generated_Source\PSoC5/cyfitter_cfg.c **** 			{0x9Du, 0x20u},
 731:.\Generated_Source\PSoC5/cyfitter_cfg.c **** 			{0xA4u, 0x04u},
 732:.\Generated_Source\PSoC5/cyfitter_cfg.c **** 			{0xACu, 0x04u},
 733:.\Generated_Source\PSoC5/cyfitter_cfg.c **** 			{0xB0u, 0x04u},
 734:.\Generated_Source\PSoC5/cyfitter_cfg.c **** 			{0xB1u, 0x02u},
 735:.\Generated_Source\PSoC5/cyfitter_cfg.c **** 			{0xB4u, 0x40u},
 736:.\Generated_Source\PSoC5/cyfitter_cfg.c **** 			{0xC0u, 0x08u},
 737:.\Generated_Source\PSoC5/cyfitter_cfg.c **** 			{0xC2u, 0x0Cu},
 738:.\Generated_Source\PSoC5/cyfitter_cfg.c **** 			{0xD6u, 0x02u},
 739:.\Generated_Source\PSoC5/cyfitter_cfg.c **** 			{0xD8u, 0x02u},
 740:.\Generated_Source\PSoC5/cyfitter_cfg.c **** 			{0xEAu, 0x03u},
 741:.\Generated_Source\PSoC5/cyfitter_cfg.c **** 			{0xEEu, 0x01u},
 742:.\Generated_Source\PSoC5/cyfitter_cfg.c **** 			{0x04u, 0x01u},
 743:.\Generated_Source\PSoC5/cyfitter_cfg.c **** 			{0x98u, 0x01u},
 744:.\Generated_Source\PSoC5/cyfitter_cfg.c **** 			{0x9Cu, 0x20u},
 745:.\Generated_Source\PSoC5/cyfitter_cfg.c **** 			{0x9Du, 0x20u},
 746:.\Generated_Source\PSoC5/cyfitter_cfg.c **** 			{0x9Fu, 0x08u},
 747:.\Generated_Source\PSoC5/cyfitter_cfg.c **** 			{0xA1u, 0x10u},
 748:.\Generated_Source\PSoC5/cyfitter_cfg.c **** 			{0xB5u, 0x12u},
 749:.\Generated_Source\PSoC5/cyfitter_cfg.c **** 			{0xC0u, 0x04u},
 750:.\Generated_Source\PSoC5/cyfitter_cfg.c **** 			{0x08u, 0x08u},
 751:.\Generated_Source\PSoC5/cyfitter_cfg.c **** 			{0x0Bu, 0x04u},
 752:.\Generated_Source\PSoC5/cyfitter_cfg.c **** 			{0x0Fu, 0x40u},
 753:.\Generated_Source\PSoC5/cyfitter_cfg.c **** 			{0x81u, 0x20u},
 754:.\Generated_Source\PSoC5/cyfitter_cfg.c **** 			{0x89u, 0x02u},
 755:.\Generated_Source\PSoC5/cyfitter_cfg.c **** 			{0x98u, 0x01u},
ARM GAS  C:\Users\xavieran\AppData\Local\Temp\ccbEwKhF.s 			page 23


 756:.\Generated_Source\PSoC5/cyfitter_cfg.c **** 			{0x9Cu, 0x20u},
 757:.\Generated_Source\PSoC5/cyfitter_cfg.c **** 			{0x9Du, 0x20u},
 758:.\Generated_Source\PSoC5/cyfitter_cfg.c **** 			{0x9Fu, 0x08u},
 759:.\Generated_Source\PSoC5/cyfitter_cfg.c **** 			{0xA1u, 0x10u},
 760:.\Generated_Source\PSoC5/cyfitter_cfg.c **** 			{0xB4u, 0x01u},
 761:.\Generated_Source\PSoC5/cyfitter_cfg.c **** 			{0xC2u, 0x0Eu},
 762:.\Generated_Source\PSoC5/cyfitter_cfg.c **** 			{0xE0u, 0x01u},
 763:.\Generated_Source\PSoC5/cyfitter_cfg.c **** 			{0xEEu, 0x08u},
 764:.\Generated_Source\PSoC5/cyfitter_cfg.c **** 			{0x25u, 0x20u},
 765:.\Generated_Source\PSoC5/cyfitter_cfg.c **** 			{0x5Fu, 0x20u},
 766:.\Generated_Source\PSoC5/cyfitter_cfg.c **** 			{0x89u, 0x20u},
 767:.\Generated_Source\PSoC5/cyfitter_cfg.c **** 			{0x96u, 0x10u},
 768:.\Generated_Source\PSoC5/cyfitter_cfg.c **** 			{0x9Bu, 0x20u},
 769:.\Generated_Source\PSoC5/cyfitter_cfg.c **** 			{0x9Fu, 0x04u},
 770:.\Generated_Source\PSoC5/cyfitter_cfg.c **** 			{0xA3u, 0x20u},
 771:.\Generated_Source\PSoC5/cyfitter_cfg.c **** 			{0xAEu, 0x40u},
 772:.\Generated_Source\PSoC5/cyfitter_cfg.c **** 			{0xAFu, 0x81u},
 773:.\Generated_Source\PSoC5/cyfitter_cfg.c **** 			{0xB4u, 0x10u},
 774:.\Generated_Source\PSoC5/cyfitter_cfg.c **** 			{0xC8u, 0x20u},
 775:.\Generated_Source\PSoC5/cyfitter_cfg.c **** 			{0xD6u, 0x20u},
 776:.\Generated_Source\PSoC5/cyfitter_cfg.c **** 			{0xEAu, 0x40u},
 777:.\Generated_Source\PSoC5/cyfitter_cfg.c **** 			{0xEEu, 0x50u},
 778:.\Generated_Source\PSoC5/cyfitter_cfg.c **** 			{0x21u, 0x40u},
 779:.\Generated_Source\PSoC5/cyfitter_cfg.c **** 			{0x79u, 0x80u},
 780:.\Generated_Source\PSoC5/cyfitter_cfg.c **** 			{0x83u, 0x24u},
 781:.\Generated_Source\PSoC5/cyfitter_cfg.c **** 			{0x9Fu, 0x04u},
 782:.\Generated_Source\PSoC5/cyfitter_cfg.c **** 			{0xA3u, 0x20u},
 783:.\Generated_Source\PSoC5/cyfitter_cfg.c **** 			{0xAAu, 0x10u},
 784:.\Generated_Source\PSoC5/cyfitter_cfg.c **** 			{0xC8u, 0x10u},
 785:.\Generated_Source\PSoC5/cyfitter_cfg.c **** 			{0xDCu, 0x80u},
 786:.\Generated_Source\PSoC5/cyfitter_cfg.c **** 			{0xE2u, 0x80u},
 787:.\Generated_Source\PSoC5/cyfitter_cfg.c **** 			{0xE4u, 0x20u},
 788:.\Generated_Source\PSoC5/cyfitter_cfg.c **** 			{0xEAu, 0x80u},
 789:.\Generated_Source\PSoC5/cyfitter_cfg.c **** 			{0x13u, 0x28u},
 790:.\Generated_Source\PSoC5/cyfitter_cfg.c **** 			{0x14u, 0x20u},
 791:.\Generated_Source\PSoC5/cyfitter_cfg.c **** 			{0x72u, 0x20u},
 792:.\Generated_Source\PSoC5/cyfitter_cfg.c **** 			{0x78u, 0x01u},
 793:.\Generated_Source\PSoC5/cyfitter_cfg.c **** 			{0x7Du, 0x20u},
 794:.\Generated_Source\PSoC5/cyfitter_cfg.c **** 			{0x8Au, 0x20u},
 795:.\Generated_Source\PSoC5/cyfitter_cfg.c **** 			{0x98u, 0x81u},
 796:.\Generated_Source\PSoC5/cyfitter_cfg.c **** 			{0x99u, 0x02u},
 797:.\Generated_Source\PSoC5/cyfitter_cfg.c **** 			{0x9Cu, 0x20u},
 798:.\Generated_Source\PSoC5/cyfitter_cfg.c **** 			{0x9Fu, 0x08u},
 799:.\Generated_Source\PSoC5/cyfitter_cfg.c **** 			{0xA1u, 0x10u},
 800:.\Generated_Source\PSoC5/cyfitter_cfg.c **** 			{0xACu, 0x08u},
 801:.\Generated_Source\PSoC5/cyfitter_cfg.c **** 			{0xAFu, 0x44u},
 802:.\Generated_Source\PSoC5/cyfitter_cfg.c **** 			{0xB4u, 0x80u},
 803:.\Generated_Source\PSoC5/cyfitter_cfg.c **** 			{0xC4u, 0x0Eu},
 804:.\Generated_Source\PSoC5/cyfitter_cfg.c **** 			{0xDCu, 0x01u},
 805:.\Generated_Source\PSoC5/cyfitter_cfg.c **** 			{0xDEu, 0x03u},
 806:.\Generated_Source\PSoC5/cyfitter_cfg.c **** 			{0xE4u, 0x01u},
 807:.\Generated_Source\PSoC5/cyfitter_cfg.c **** 			{0xE8u, 0x08u},
 808:.\Generated_Source\PSoC5/cyfitter_cfg.c **** 			{0x0Cu, 0x80u},
 809:.\Generated_Source\PSoC5/cyfitter_cfg.c **** 			{0x57u, 0x80u},
 810:.\Generated_Source\PSoC5/cyfitter_cfg.c **** 			{0x60u, 0x80u},
 811:.\Generated_Source\PSoC5/cyfitter_cfg.c **** 			{0x75u, 0x02u},
 812:.\Generated_Source\PSoC5/cyfitter_cfg.c **** 			{0x83u, 0x80u},
ARM GAS  C:\Users\xavieran\AppData\Local\Temp\ccbEwKhF.s 			page 24


 813:.\Generated_Source\PSoC5/cyfitter_cfg.c **** 			{0x88u, 0x80u},
 814:.\Generated_Source\PSoC5/cyfitter_cfg.c **** 			{0x98u, 0x80u},
 815:.\Generated_Source\PSoC5/cyfitter_cfg.c **** 			{0x99u, 0x02u},
 816:.\Generated_Source\PSoC5/cyfitter_cfg.c **** 			{0xABu, 0x20u},
 817:.\Generated_Source\PSoC5/cyfitter_cfg.c **** 			{0xC2u, 0x01u},
 818:.\Generated_Source\PSoC5/cyfitter_cfg.c **** 			{0xD4u, 0x02u},
 819:.\Generated_Source\PSoC5/cyfitter_cfg.c **** 			{0xD8u, 0x02u},
 820:.\Generated_Source\PSoC5/cyfitter_cfg.c **** 			{0xDEu, 0x04u},
 821:.\Generated_Source\PSoC5/cyfitter_cfg.c **** 			{0xE6u, 0x01u},
 822:.\Generated_Source\PSoC5/cyfitter_cfg.c **** 			{0x00u, 0x40u},
 823:.\Generated_Source\PSoC5/cyfitter_cfg.c **** 			{0x0Au, 0x40u},
 824:.\Generated_Source\PSoC5/cyfitter_cfg.c **** 			{0x0Eu, 0x40u},
 825:.\Generated_Source\PSoC5/cyfitter_cfg.c **** 			{0x00u, 0xEAu},
 826:.\Generated_Source\PSoC5/cyfitter_cfg.c **** 			{0x01u, 0x0Cu},
 827:.\Generated_Source\PSoC5/cyfitter_cfg.c **** 			{0x03u, 0xC0u},
 828:.\Generated_Source\PSoC5/cyfitter_cfg.c **** 			{0x10u, 0x01u},
 829:.\Generated_Source\PSoC5/cyfitter_cfg.c **** 		};
 830:.\Generated_Source\PSoC5/cyfitter_cfg.c **** 
 831:.\Generated_Source\PSoC5/cyfitter_cfg.c **** 
 832:.\Generated_Source\PSoC5/cyfitter_cfg.c **** 
 833:.\Generated_Source\PSoC5/cyfitter_cfg.c **** 		CYPACKED typedef struct {
 834:.\Generated_Source\PSoC5/cyfitter_cfg.c **** 			void CYFAR *address;
 835:.\Generated_Source\PSoC5/cyfitter_cfg.c **** 			uint16 size;
 836:.\Generated_Source\PSoC5/cyfitter_cfg.c **** 		} CYPACKED_ATTR cfg_memset_t;
 837:.\Generated_Source\PSoC5/cyfitter_cfg.c **** 
 838:.\Generated_Source\PSoC5/cyfitter_cfg.c **** 
 839:.\Generated_Source\PSoC5/cyfitter_cfg.c **** 		CYPACKED typedef struct {
 840:.\Generated_Source\PSoC5/cyfitter_cfg.c **** 			void CYFAR *dest;
 841:.\Generated_Source\PSoC5/cyfitter_cfg.c **** 			const void CYCODE *src;
 842:.\Generated_Source\PSoC5/cyfitter_cfg.c **** 			uint16 size;
 843:.\Generated_Source\PSoC5/cyfitter_cfg.c **** 		} CYPACKED_ATTR cfg_memcpy_t;
 844:.\Generated_Source\PSoC5/cyfitter_cfg.c **** 
 845:.\Generated_Source\PSoC5/cyfitter_cfg.c **** 		static const cfg_memset_t CYCODE cfg_memset_list [] = {
 846:.\Generated_Source\PSoC5/cyfitter_cfg.c **** 			/* address, size */
 847:.\Generated_Source\PSoC5/cyfitter_cfg.c **** 			{(void CYFAR *)(CYREG_I2C_XCFG), 25u},
 848:.\Generated_Source\PSoC5/cyfitter_cfg.c **** 			{(void CYFAR *)(CYREG_TMR0_CFG0), 48u},
 849:.\Generated_Source\PSoC5/cyfitter_cfg.c **** 			{(void CYFAR *)(CYREG_PRT1_DR), 16u},
 850:.\Generated_Source\PSoC5/cyfitter_cfg.c **** 			{(void CYFAR *)(CYREG_PRT3_DR), 16u},
 851:.\Generated_Source\PSoC5/cyfitter_cfg.c **** 			{(void CYFAR *)(CYDEV_UCFG_B0_P0_U0_BASE), 4096u},
 852:.\Generated_Source\PSoC5/cyfitter_cfg.c **** 			{(void CYFAR *)(CYDEV_UCFG_B1_P2_U0_BASE), 2048u},
 853:.\Generated_Source\PSoC5/cyfitter_cfg.c **** 			{(void CYFAR *)(CYDEV_UCFG_DSI0_BASE), 2560u},
 854:.\Generated_Source\PSoC5/cyfitter_cfg.c **** 			{(void CYFAR *)(CYDEV_UCFG_DSI12_BASE), 512u},
 855:.\Generated_Source\PSoC5/cyfitter_cfg.c **** 			{(void CYFAR *)(CYREG_BCTL0_MDCLK_EN), 32u},
 856:.\Generated_Source\PSoC5/cyfitter_cfg.c **** 		};
 857:.\Generated_Source\PSoC5/cyfitter_cfg.c **** 
 858:.\Generated_Source\PSoC5/cyfitter_cfg.c **** 		/* IOPORT_7 Address: CYDEV_PRTDSI_PRT12_BASE Size (bytes): 6 */
 859:.\Generated_Source\PSoC5/cyfitter_cfg.c **** 		static const uint8 CYCODE BS_IOPORT_7_VAL[] = {
 860:.\Generated_Source\PSoC5/cyfitter_cfg.c **** 			0x23u, 0x24u, 0x00u, 0x00u, 0x03u, 0x00u};
 861:.\Generated_Source\PSoC5/cyfitter_cfg.c **** 
 862:.\Generated_Source\PSoC5/cyfitter_cfg.c **** 		static const cfg_memcpy_t CYCODE cfg_memcpy_list [] = {
 863:.\Generated_Source\PSoC5/cyfitter_cfg.c **** 			/* dest, src, size */
 864:.\Generated_Source\PSoC5/cyfitter_cfg.c **** 			{(void CYFAR *)(CYDEV_PRTDSI_PRT12_BASE), BS_IOPORT_7_VAL, 6u},
 865:.\Generated_Source\PSoC5/cyfitter_cfg.c **** 		};
 866:.\Generated_Source\PSoC5/cyfitter_cfg.c **** 
 867:.\Generated_Source\PSoC5/cyfitter_cfg.c **** 		uint8 CYDATA i;
 868:.\Generated_Source\PSoC5/cyfitter_cfg.c **** 
 869:.\Generated_Source\PSoC5/cyfitter_cfg.c **** 		/* Zero out critical memory blocks before beginning configuration */
ARM GAS  C:\Users\xavieran\AppData\Local\Temp\ccbEwKhF.s 			page 25


 870:.\Generated_Source\PSoC5/cyfitter_cfg.c **** 		for (i = 0u; i < (sizeof(cfg_memset_list)/sizeof(cfg_memset_list[0])); i++)
 453              		.loc 1 870 0
 454 0004 0024     		movs	r4, #0
 455              	.LBB4:
 871:.\Generated_Source\PSoC5/cyfitter_cfg.c **** 		{
 872:.\Generated_Source\PSoC5/cyfitter_cfg.c **** 			const cfg_memset_t CYCODE * CYDATA ms = &cfg_memset_list[i];
 456              		.loc 1 872 0
 457 0006 3D4D     		ldr	r5, .L29
 458              	.LBE4:
 870:.\Generated_Source\PSoC5/cyfitter_cfg.c **** 		for (i = 0u; i < (sizeof(cfg_memset_list)/sizeof(cfg_memset_list[0])); i++)
 459              		.loc 1 870 0
 460 0008 09E0     		b	.L25
 461              	.LVL32:
 462              	.L26:
 463              	.LBB5:
 464              		.loc 1 872 0 discriminator 2
 465 000a 04EB4403 		add	r3, r4, r4, lsl #1
 466 000e 5B00     		lsls	r3, r3, #1
 467 0010 2B44     		add	r3, r3, r5
 468              	.LVL33:
 873:.\Generated_Source\PSoC5/cyfitter_cfg.c **** 			CYMEMZERO(ms->address, (size_t)(uint32)(ms->size));
 469              		.loc 1 873 0 discriminator 2
 470 0012 1868     		ldr	r0, [r3]	@ unaligned
 471 0014 9988     		ldrh	r1, [r3, #4]
 472 0016 FFF7FEFF 		bl	CYMEMZERO
 473              	.LVL34:
 474              	.LBE5:
 870:.\Generated_Source\PSoC5/cyfitter_cfg.c **** 		for (i = 0u; i < (sizeof(cfg_memset_list)/sizeof(cfg_memset_list[0])); i++)
 475              		.loc 1 870 0 discriminator 2
 476 001a 0134     		adds	r4, r4, #1
 477              	.LVL35:
 478 001c E4B2     		uxtb	r4, r4
 479              	.LVL36:
 480              	.L25:
 870:.\Generated_Source\PSoC5/cyfitter_cfg.c **** 		for (i = 0u; i < (sizeof(cfg_memset_list)/sizeof(cfg_memset_list[0])); i++)
 481              		.loc 1 870 0 is_stmt 0 discriminator 1
 482 001e 082C     		cmp	r4, #8
 483 0020 F3D9     		bls	.L26
 484 0022 0024     		movs	r4, #0
 485              	.LVL37:
 486              	.LBB6:
 874:.\Generated_Source\PSoC5/cyfitter_cfg.c **** 		}
 875:.\Generated_Source\PSoC5/cyfitter_cfg.c **** 
 876:.\Generated_Source\PSoC5/cyfitter_cfg.c **** 		/* Copy device configuration data into registers */
 877:.\Generated_Source\PSoC5/cyfitter_cfg.c **** 		for (i = 0u; i < (sizeof(cfg_memcpy_list)/sizeof(cfg_memcpy_list[0])); i++)
 878:.\Generated_Source\PSoC5/cyfitter_cfg.c **** 		{
 879:.\Generated_Source\PSoC5/cyfitter_cfg.c **** 			const cfg_memcpy_t CYCODE * CYDATA mc = &cfg_memcpy_list[i];
 487              		.loc 1 879 0 is_stmt 1
 488 0024 364D     		ldr	r5, .L29+4
 489 0026 0AE0     		b	.L27
 490              	.LVL38:
 491              	.L28:
 492              		.loc 1 879 0 is_stmt 0 discriminator 2
 493 0028 04EB8403 		add	r3, r4, r4, lsl #2
 494 002c 5B00     		lsls	r3, r3, #1
 495 002e 2B44     		add	r3, r3, r5
 496              	.LVL39:
ARM GAS  C:\Users\xavieran\AppData\Local\Temp\ccbEwKhF.s 			page 26


 880:.\Generated_Source\PSoC5/cyfitter_cfg.c **** 			void * CYDATA destPtr = mc->dest;
 881:.\Generated_Source\PSoC5/cyfitter_cfg.c **** 			const void CYCODE * CYDATA srcPtr = mc->src;
 882:.\Generated_Source\PSoC5/cyfitter_cfg.c **** 			uint16 CYDATA numBytes = mc->size;
 883:.\Generated_Source\PSoC5/cyfitter_cfg.c **** 			CYCONFIGCPYCODE(destPtr, srcPtr, numBytes);
 497              		.loc 1 883 0 is_stmt 1 discriminator 2
 498 0030 1868     		ldr	r0, [r3]	@ unaligned
 499              	.LVL40:
 500 0032 5968     		ldr	r1, [r3, #4]	@ unaligned
 501              	.LVL41:
 502 0034 1A89     		ldrh	r2, [r3, #8]
 503 0036 FFF7FEFF 		bl	CYCONFIGCPYCODE
 504              	.LVL42:
 505              	.LBE6:
 877:.\Generated_Source\PSoC5/cyfitter_cfg.c **** 		for (i = 0u; i < (sizeof(cfg_memcpy_list)/sizeof(cfg_memcpy_list[0])); i++)
 506              		.loc 1 877 0 discriminator 2
 507 003a 0134     		adds	r4, r4, #1
 508              	.LVL43:
 509 003c E4B2     		uxtb	r4, r4
 510              	.LVL44:
 511              	.L27:
 877:.\Generated_Source\PSoC5/cyfitter_cfg.c **** 		for (i = 0u; i < (sizeof(cfg_memcpy_list)/sizeof(cfg_memcpy_list[0])); i++)
 512              		.loc 1 877 0 is_stmt 0 discriminator 1
 513 003e 002C     		cmp	r4, #0
 514 0040 F2D0     		beq	.L28
 884:.\Generated_Source\PSoC5/cyfitter_cfg.c **** 		}
 885:.\Generated_Source\PSoC5/cyfitter_cfg.c **** 
 886:.\Generated_Source\PSoC5/cyfitter_cfg.c **** 		cfg_write_bytes32(cy_cfg_addr_table, cy_cfg_data_table);
 515              		.loc 1 886 0 is_stmt 1
 516 0042 2E4C     		ldr	r4, .L29
 517              	.LVL45:
 518 0044 04F14400 		add	r0, r4, #68
 519 0048 04F1D001 		add	r1, r4, #208
 520 004c FFF7FEFF 		bl	cfg_write_bytes32
 521              	.LVL46:
 887:.\Generated_Source\PSoC5/cyfitter_cfg.c **** 
 888:.\Generated_Source\PSoC5/cyfitter_cfg.c **** 		/* Perform normal device configuration. Order is not critical for these items. */
 889:.\Generated_Source\PSoC5/cyfitter_cfg.c **** 		CYMEMZERO((void CYFAR *)(CYREG_PHUB_CFGMEM0_CFG0), 4u);
 522              		.loc 1 889 0
 523 0050 2C48     		ldr	r0, .L29+8
 524 0052 0421     		movs	r1, #4
 525 0054 FFF7FEFF 		bl	CYMEMZERO
 526              	.LVL47:
 890:.\Generated_Source\PSoC5/cyfitter_cfg.c **** 
 891:.\Generated_Source\PSoC5/cyfitter_cfg.c **** 		/* Enable digital routing */
 892:.\Generated_Source\PSoC5/cyfitter_cfg.c **** 		CY_SET_XTND_REG8((void CYFAR *)CYREG_BCTL0_BANK_CTL, CY_GET_XTND_REG8((void CYFAR *)CYREG_BCTL0_B
 527              		.loc 1 892 0
 528 0058 2B4B     		ldr	r3, .L29+12
 529 005a 1A78     		ldrb	r2, [r3]	@ zero_extendqisi2
 530 005c 42F00202 		orr	r2, r2, #2
 531 0060 1A70     		strb	r2, [r3]
 893:.\Generated_Source\PSoC5/cyfitter_cfg.c **** 		CY_SET_XTND_REG8((void CYFAR *)CYREG_BCTL1_BANK_CTL, CY_GET_XTND_REG8((void CYFAR *)CYREG_BCTL1_B
 532              		.loc 1 893 0
 533 0062 1033     		adds	r3, r3, #16
 534 0064 1A78     		ldrb	r2, [r3]	@ zero_extendqisi2
 535 0066 42F00202 		orr	r2, r2, #2
 536 006a 1A70     		strb	r2, [r3]
 894:.\Generated_Source\PSoC5/cyfitter_cfg.c **** 
ARM GAS  C:\Users\xavieran\AppData\Local\Temp\ccbEwKhF.s 			page 27


 895:.\Generated_Source\PSoC5/cyfitter_cfg.c **** 		/* Enable UDB array */
 896:.\Generated_Source\PSoC5/cyfitter_cfg.c **** 		CY_SET_XTND_REG8((void CYFAR *)CYREG_PM_ACT_CFG0, CY_GET_XTND_REG8((void CYFAR *)CYREG_PM_ACT_CFG
 537              		.loc 1 896 0
 538 006c 274D     		ldr	r5, .L29+16
 539 006e 2B78     		ldrb	r3, [r5]	@ zero_extendqisi2
 540 0070 43F04003 		orr	r3, r3, #64
 541 0074 2B70     		strb	r3, [r5]
 897:.\Generated_Source\PSoC5/cyfitter_cfg.c **** 		CY_SET_XTND_REG8((void CYFAR *)CYREG_PM_AVAIL_CR2, CY_GET_XTND_REG8((void CYFAR *)CYREG_PM_AVAIL_
 542              		.loc 1 897 0
 543 0076 264B     		ldr	r3, .L29+20
 544 0078 1A78     		ldrb	r2, [r3]	@ zero_extendqisi2
 545 007a 42F01002 		orr	r2, r2, #16
 546 007e 1A70     		strb	r2, [r3]
 547              	.LBE3:
 898:.\Generated_Source\PSoC5/cyfitter_cfg.c **** 	}
 899:.\Generated_Source\PSoC5/cyfitter_cfg.c **** 
 900:.\Generated_Source\PSoC5/cyfitter_cfg.c **** 
 901:.\Generated_Source\PSoC5/cyfitter_cfg.c **** 	/* Perform second pass device configuration. These items must be configured in specific order afte
 902:.\Generated_Source\PSoC5/cyfitter_cfg.c **** 	CYCONFIGCPYCODE((void CYFAR *)(CYREG_PRT0_DR), (const void CYCODE *)(BS_IOPINS0_0_VAL), 10u);
 548              		.loc 1 902 0
 549 0080 2448     		ldr	r0, .L29+24
 550 0082 04F58661 		add	r1, r4, #1072
 551 0086 0A22     		movs	r2, #10
 552 0088 FFF7FEFF 		bl	CYCONFIGCPYCODE
 553              	.LVL48:
 903:.\Generated_Source\PSoC5/cyfitter_cfg.c **** 	CYCONFIGCPYCODE((void CYFAR *)(CYREG_PRT12_DR), (const void CYCODE *)(BS_IOPINS0_7_VAL), 10u);
 554              		.loc 1 903 0
 555 008c 2248     		ldr	r0, .L29+28
 556 008e 04F23C41 		addw	r1, r4, #1084
 557 0092 0A22     		movs	r2, #10
 558 0094 FFF7FEFF 		bl	CYCONFIGCPYCODE
 559              	.LVL49:
 904:.\Generated_Source\PSoC5/cyfitter_cfg.c **** 	CYCONFIGCPYCODE((void CYFAR *)(CYREG_PRT15_DR), (const void CYCODE *)(BS_IOPINS0_8_VAL), 10u);
 560              		.loc 1 904 0
 561 0098 2048     		ldr	r0, .L29+32
 562 009a 04F58961 		add	r1, r4, #1096
 563 009e 0A22     		movs	r2, #10
 564 00a0 FFF7FEFF 		bl	CYCONFIGCPYCODE
 565              	.LVL50:
 905:.\Generated_Source\PSoC5/cyfitter_cfg.c **** 	CYCONFIGCPYCODE((void CYFAR *)(CYREG_PRT2_DR), (const void CYCODE *)(BS_IOPINS0_2_VAL), 10u);
 566              		.loc 1 905 0
 567 00a4 1E48     		ldr	r0, .L29+36
 568 00a6 04F25441 		addw	r1, r4, #1108
 569 00aa 0A22     		movs	r2, #10
 570 00ac FFF7FEFF 		bl	CYCONFIGCPYCODE
 571              	.LVL51:
 906:.\Generated_Source\PSoC5/cyfitter_cfg.c **** 	CYCONFIGCPYCODE((void CYFAR *)(CYREG_PRT4_DM0), (const void CYCODE *)(BS_IOPINS0_4_VAL), 8u);
 572              		.loc 1 906 0
 573 00b0 1C48     		ldr	r0, .L29+40
 574 00b2 04F58C61 		add	r1, r4, #1120
 575 00b6 0822     		movs	r2, #8
 576 00b8 FFF7FEFF 		bl	CYCONFIGCPYCODE
 577              	.LVL52:
 907:.\Generated_Source\PSoC5/cyfitter_cfg.c **** 	CYCONFIGCPYCODE((void CYFAR *)(CYREG_PRT5_DM0), (const void CYCODE *)(BS_IOPINS0_5_VAL), 8u);
 578              		.loc 1 907 0
 579 00bc 1A48     		ldr	r0, .L29+44
 580 00be 04F58D61 		add	r1, r4, #1128
ARM GAS  C:\Users\xavieran\AppData\Local\Temp\ccbEwKhF.s 			page 28


 581 00c2 0822     		movs	r2, #8
 582 00c4 FFF7FEFF 		bl	CYCONFIGCPYCODE
 583              	.LVL53:
 908:.\Generated_Source\PSoC5/cyfitter_cfg.c **** 	CYCONFIGCPYCODE((void CYFAR *)(CYREG_PRT6_DM0), (const void CYCODE *)(BS_IOPINS0_6_VAL), 8u);
 584              		.loc 1 908 0
 585 00c8 1848     		ldr	r0, .L29+48
 586 00ca 04F58E61 		add	r1, r4, #1136
 587 00ce 0822     		movs	r2, #8
 588 00d0 FFF7FEFF 		bl	CYCONFIGCPYCODE
 589              	.LVL54:
 909:.\Generated_Source\PSoC5/cyfitter_cfg.c **** 	/* Switch Boost to the precision bandgap reference from its internal reference */
 910:.\Generated_Source\PSoC5/cyfitter_cfg.c **** 	CY_SET_REG8((void CYXDATA *)CYREG_BOOST_CR2, (CY_GET_REG8((void CYXDATA *)CYREG_BOOST_CR2) | 0x08u
 590              		.loc 1 910 0
 591 00d4 164B     		ldr	r3, .L29+52
 592 00d6 1A78     		ldrb	r2, [r3]	@ zero_extendqisi2
 593 00d8 42F00802 		orr	r2, r2, #8
 594 00dc 1A70     		strb	r2, [r3]
 911:.\Generated_Source\PSoC5/cyfitter_cfg.c **** 
 912:.\Generated_Source\PSoC5/cyfitter_cfg.c **** 	/* Set Flash Cycles based on max possible frequency in case a glitch occurs during ClockSetup(). *
 913:.\Generated_Source\PSoC5/cyfitter_cfg.c **** 	CY_SET_XTND_REG8((void CYFAR *)(CYREG_CACHE_CC_CTL), (((CYDEV_INSTRUCT_CACHE_ENABLED) != 0) ? 0x61
 595              		.loc 1 913 0
 596 00de 154C     		ldr	r4, .L29+56
 597 00e0 6123     		movs	r3, #97
 598 00e2 2370     		strb	r3, [r4]
 914:.\Generated_Source\PSoC5/cyfitter_cfg.c **** 	/* Setup clocks based on selections from Clock DWR */
 915:.\Generated_Source\PSoC5/cyfitter_cfg.c **** 	ClockSetup();
 599              		.loc 1 915 0
 600 00e4 FFF7FEFF 		bl	ClockSetup
 601              	.LVL55:
 916:.\Generated_Source\PSoC5/cyfitter_cfg.c **** 	/* Set Flash Cycles based on newly configured 24.00MHz Bus Clock. */
 917:.\Generated_Source\PSoC5/cyfitter_cfg.c **** 	CY_SET_XTND_REG8((void CYFAR *)(CYREG_CACHE_CC_CTL), (((CYDEV_INSTRUCT_CACHE_ENABLED) != 0) ? 0x81
 602              		.loc 1 917 0
 603 00e8 8123     		movs	r3, #129
 604 00ea 2370     		strb	r3, [r4]
 918:.\Generated_Source\PSoC5/cyfitter_cfg.c **** 
 919:.\Generated_Source\PSoC5/cyfitter_cfg.c **** 	/* Perform basic analog initialization to defaults */
 920:.\Generated_Source\PSoC5/cyfitter_cfg.c **** 	AnalogSetDefault();
 605              		.loc 1 920 0
 606 00ec FFF7FEFF 		bl	AnalogSetDefault
 607              	.LVL56:
 921:.\Generated_Source\PSoC5/cyfitter_cfg.c **** 
 922:.\Generated_Source\PSoC5/cyfitter_cfg.c **** 	/* Configure alternate active mode */
 923:.\Generated_Source\PSoC5/cyfitter_cfg.c **** 	CYCONFIGCPY((void CYFAR *)CYDEV_PM_STBY_BASE, (const void CYFAR *)CYDEV_PM_ACT_BASE, 14u);
 608              		.loc 1 923 0
 609 00f0 1148     		ldr	r0, .L29+60
 610 00f2 2946     		mov	r1, r5
 611 00f4 0E22     		movs	r2, #14
 612 00f6 FFF7FEFF 		bl	CYCONFIGCPY
 613              	.LVL57:
 614 00fa 38BD     		pop	{r3, r4, r5, pc}
 615              	.L30:
 616              		.align	2
 617              	.L29:
 618 00fc 00000000 		.word	.LANCHOR0
 619 0100 38000000 		.word	.LANCHOR0+56
 620 0104 00760040 		.word	1073772032
 621 0108 03500140 		.word	1073827843
ARM GAS  C:\Users\xavieran\AppData\Local\Temp\ccbEwKhF.s 			page 29


 622 010c A0430040 		.word	1073759136
 623 0110 C2430040 		.word	1073759170
 624 0114 00510040 		.word	1073762560
 625 0118 C0510040 		.word	1073762752
 626 011c F0510040 		.word	1073762800
 627 0120 20510040 		.word	1073762592
 628 0124 42510040 		.word	1073762626
 629 0128 52510040 		.word	1073762642
 630 012c 62510040 		.word	1073762658
 631 0130 22430040 		.word	1073759010
 632 0134 00480040 		.word	1073760256
 633 0138 B0430040 		.word	1073759152
 634              		.cfi_endproc
 635              	.LFE8:
 636              		.size	cyfitter_cfg, .-cyfitter_cfg
 637              		.section	.rodata
 638              		.align	2
 639              		.set	.LANCHOR0,. + 0
 640              		.type	cfg_memset_list.4897, %object
 641              		.size	cfg_memset_list.4897, 54
 642              	cfg_memset_list.4897:
 643 0000 C8490040 		.word	1073760712
 644 0004 1900     		.short	25
 645 0006 004F0040 		.4byte	1073762048
 646 000a 3000     		.short	48
 647 000c 10510040 		.word	1073762576
 648 0010 1000     		.short	16
 649 0012 30510040 		.4byte	1073762608
 650 0016 1000     		.short	16
 651 0018 00000140 		.word	1073807360
 652 001c 0010     		.short	4096
 653 001e 00140140 		.4byte	1073812480
 654 0022 0008     		.short	2048
 655 0024 00400140 		.word	1073823744
 656 0028 000A     		.short	2560
 657 002a 004C0140 		.4byte	1073826816
 658 002e 0002     		.short	512
 659 0030 00500140 		.word	1073827840
 660 0034 2000     		.short	32
 661 0036 0000     		.space	2
 662              		.type	cfg_memcpy_list.4899, %object
 663              		.size	cfg_memcpy_list.4899, 10
 664              	cfg_memcpy_list.4899:
 665 0038 60520040 		.word	1073762912
 666 003c 78040000 		.word	BS_IOPORT_7_VAL.4898
 667 0040 0600     		.short	6
 668 0042 0000     		.space	2
 669              		.type	cy_cfg_addr_table.4886, %object
 670              		.size	cy_cfg_addr_table.4886, 140
 671              	cy_cfg_addr_table.4886:
 672 0044 03450040 		.word	1073759491
 673 0048 084F0040 		.word	1073762056
 674 004c 0E520040 		.word	1073762830
 675 0050 01640040 		.word	1073767425
 676 0054 03010140 		.word	1073807619
 677 0058 04030140 		.word	1073808132
 678 005c 13040140 		.word	1073808403
ARM GAS  C:\Users\xavieran\AppData\Local\Temp\ccbEwKhF.s 			page 30


 679 0060 0E050140 		.word	1073808654
 680 0064 32060140 		.word	1073808946
 681 0068 18070140 		.word	1073809176
 682 006c 07090140 		.word	1073809671
 683 0070 030B0140 		.word	1073810179
 684 0074 040C0140 		.word	1073810436
 685 0078 0A0D0140 		.word	1073810698
 686 007c 130E0140 		.word	1073810963
 687 0080 160F0140 		.word	1073811222
 688 0084 03150140 		.word	1073812739
 689 0088 04170140 		.word	1073813252
 690 008c 05190140 		.word	1073813765
 691 0090 051A0140 		.word	1073814021
 692 0094 0A1B0140 		.word	1073814282
 693 0098 11400140 		.word	1073823761
 694 009c 12410140 		.word	1073824018
 695 00a0 19420140 		.word	1073824281
 696 00a4 19430140 		.word	1073824537
 697 00a8 0A440140 		.word	1073824778
 698 00ac 11450140 		.word	1073825041
 699 00b0 08460140 		.word	1073825288
 700 00b4 0E470140 		.word	1073825550
 701 00b8 0E480140 		.word	1073825806
 702 00bc 0B490140 		.word	1073826059
 703 00c0 134C0140 		.word	1073826835
 704 00c4 0E4D0140 		.word	1073827086
 705 00c8 03500140 		.word	1073827843
 706 00cc 04510140 		.word	1073828100
 707              		.type	cy_cfg_data_table.4887, %object
 708              		.size	cy_cfg_data_table.4887, 862
 709              	cy_cfg_data_table.4887:
 710 00d0 00       		.byte	0
 711 00d1 02       		.byte	2
 712 00d2 60       		.byte	96
 713 00d3 02       		.byte	2
 714 00d4 7E       		.byte	126
 715 00d5 02       		.byte	2
 716 00d6 01       		.byte	1
 717 00d7 10       		.byte	16
 718 00d8 0A       		.byte	10
 719 00d9 4B       		.byte	75
 720 00da 0D       		.byte	13
 721 00db 30       		.byte	48
 722 00dc 16       		.byte	22
 723 00dd 4B       		.byte	75
 724 00de 19       		.byte	25
 725 00df 40       		.byte	64
 726 00e0 22       		.byte	34
 727 00e1 4B       		.byte	75
 728 00e2 25       		.byte	37
 729 00e3 20       		.byte	32
 730 00e4 2E       		.byte	46
 731 00e5 4B       		.byte	75
 732 00e6 00       		.byte	0
 733 00e7 40       		.byte	64
 734 00e8 01       		.byte	1
 735 00e9 C0       		.byte	-64
ARM GAS  C:\Users\xavieran\AppData\Local\Temp\ccbEwKhF.s 			page 31


 736 00ea 04       		.byte	4
 737 00eb 03       		.byte	3
 738 00ec 11       		.byte	17
 739 00ed 20       		.byte	32
 740 00ee 14       		.byte	20
 741 00ef 30       		.byte	48
 742 00f0 20       		.byte	32
 743 00f1 03       		.byte	3
 744 00f2 21       		.byte	33
 745 00f3 02       		.byte	2
 746 00f4 28       		.byte	40
 747 00f5 02       		.byte	2
 748 00f6 29       		.byte	41
 749 00f7 80       		.byte	-128
 750 00f8 30       		.byte	48
 751 00f9 10       		.byte	16
 752 00fa 31       		.byte	49
 753 00fb 10       		.byte	16
 754 00fc 78       		.byte	120
 755 00fd 08       		.byte	8
 756 00fe 79       		.byte	121
 757 00ff 18       		.byte	24
 758 0100 7C       		.byte	124
 759 0101 40       		.byte	64
 760 0102 87       		.byte	-121
 761 0103 0D       		.byte	13
 762 0104 81       		.byte	-127
 763 0105 08       		.byte	8
 764 0106 E0       		.byte	-32
 765 0107 80       		.byte	-128
 766 0108 E2       		.byte	-30
 767 0109 05       		.byte	5
 768 010a A1       		.byte	-95
 769 010b 08       		.byte	8
 770 010c E8       		.byte	-24
 771 010d 05       		.byte	5
 772 010e EA       		.byte	-22
 773 010f 02       		.byte	2
 774 0110 EC       		.byte	-20
 775 0111 08       		.byte	8
 776 0112 C0       		.byte	-64
 777 0113 34       		.byte	52
 778 0114 C9       		.byte	-55
 779 0115 FF       		.byte	-1
 780 0116 CA       		.byte	-54
 781 0117 FF       		.byte	-1
 782 0118 CB       		.byte	-53
 783 0119 FF       		.byte	-1
 784 011a CF       		.byte	-49
 785 011b 01       		.byte	1
 786 011c D0       		.byte	-48
 787 011d 18       		.byte	24
 788 011e DA       		.byte	-38
 789 011f 04       		.byte	4
 790 0120 DB       		.byte	-37
 791 0121 04       		.byte	4
 792 0122 DD       		.byte	-35
ARM GAS  C:\Users\xavieran\AppData\Local\Temp\ccbEwKhF.s 			page 32


 793 0123 06       		.byte	6
 794 0124 DF       		.byte	-33
 795 0125 01       		.byte	1
 796 0126 E0       		.byte	-32
 797 0127 40       		.byte	64
 798 0128 E2       		.byte	-30
 799 0129 40       		.byte	64
 800 012a E4       		.byte	-28
 801 012b 40       		.byte	64
 802 012c E5       		.byte	-27
 803 012d 40       		.byte	64
 804 012e E6       		.byte	-26
 805 012f 80       		.byte	-128
 806 0130 E8       		.byte	-24
 807 0131 80       		.byte	-128
 808 0132 EA       		.byte	-22
 809 0133 80       		.byte	-128
 810 0134 EC       		.byte	-20
 811 0135 80       		.byte	-128
 812 0136 EE       		.byte	-18
 813 0137 80       		.byte	-128
 814 0138 45       		.byte	69
 815 0139 08       		.byte	8
 816 013a 46       		.byte	70
 817 013b 40       		.byte	64
 818 013c 6D       		.byte	109
 819 013d 10       		.byte	16
 820 013e 6F       		.byte	111
 821 013f 91       		.byte	-111
 822 0140 75       		.byte	117
 823 0141 40       		.byte	64
 824 0142 77       		.byte	119
 825 0143 04       		.byte	4
 826 0144 83       		.byte	-125
 827 0145 04       		.byte	4
 828 0146 89       		.byte	-119
 829 0147 40       		.byte	64
 830 0148 8F       		.byte	-113
 831 0149 80       		.byte	-128
 832 014a 95       		.byte	-107
 833 014b 10       		.byte	16
 834 014c A1       		.byte	-95
 835 014d 08       		.byte	8
 836 014e AD       		.byte	-83
 837 014f 10       		.byte	16
 838 0150 D0       		.byte	-48
 839 0151 C0       		.byte	-64
 840 0152 E2       		.byte	-30
 841 0153 C0       		.byte	-64
 842 0154 40       		.byte	64
 843 0155 34       		.byte	52
 844 0156 49       		.byte	73
 845 0157 FF       		.byte	-1
 846 0158 4A       		.byte	74
 847 0159 FF       		.byte	-1
 848 015a 4B       		.byte	75
 849 015b FF       		.byte	-1
ARM GAS  C:\Users\xavieran\AppData\Local\Temp\ccbEwKhF.s 			page 33


 850 015c 4D       		.byte	77
 851 015d 83       		.byte	-125
 852 015e 4E       		.byte	78
 853 015f 03       		.byte	3
 854 0160 4F       		.byte	79
 855 0161 01       		.byte	1
 856 0162 50       		.byte	80
 857 0163 18       		.byte	24
 858 0164 5A       		.byte	90
 859 0165 04       		.byte	4
 860 0166 5D       		.byte	93
 861 0167 06       		.byte	6
 862 0168 5F       		.byte	95
 863 0169 01       		.byte	1
 864 016a 60       		.byte	96
 865 016b 40       		.byte	64
 866 016c 62       		.byte	98
 867 016d 40       		.byte	64
 868 016e 64       		.byte	100
 869 016f 40       		.byte	64
 870 0170 65       		.byte	101
 871 0171 40       		.byte	64
 872 0172 66       		.byte	102
 873 0173 80       		.byte	-128
 874 0174 68       		.byte	104
 875 0175 80       		.byte	-128
 876 0176 6A       		.byte	106
 877 0177 80       		.byte	-128
 878 0178 6C       		.byte	108
 879 0179 80       		.byte	-128
 880 017a 6E       		.byte	110
 881 017b 80       		.byte	-128
 882 017c 82       		.byte	-126
 883 017d 01       		.byte	1
 884 017e 96       		.byte	-106
 885 017f 01       		.byte	1
 886 0180 B6       		.byte	-74
 887 0181 01       		.byte	1
 888 0182 BE       		.byte	-66
 889 0183 40       		.byte	64
 890 0184 C0       		.byte	-64
 891 0185 31       		.byte	49
 892 0186 C5       		.byte	-59
 893 0187 EC       		.byte	-20
 894 0188 C6       		.byte	-58
 895 0189 02       		.byte	2
 896 018a C8       		.byte	-56
 897 018b 07       		.byte	7
 898 018c C9       		.byte	-55
 899 018d FF       		.byte	-1
 900 018e CA       		.byte	-54
 901 018f FF       		.byte	-1
 902 0190 CB       		.byte	-53
 903 0191 FF       		.byte	-1
 904 0192 CD       		.byte	-51
 905 0193 83       		.byte	-125
 906 0194 CE       		.byte	-50
ARM GAS  C:\Users\xavieran\AppData\Local\Temp\ccbEwKhF.s 			page 34


 907 0195 03       		.byte	3
 908 0196 CF       		.byte	-49
 909 0197 01       		.byte	1
 910 0198 D0       		.byte	-48
 911 0199 18       		.byte	24
 912 019a D4       		.byte	-44
 913 019b 01       		.byte	1
 914 019c D8       		.byte	-40
 915 019d 04       		.byte	4
 916 019e DA       		.byte	-38
 917 019f 04       		.byte	4
 918 01a0 DB       		.byte	-37
 919 01a1 04       		.byte	4
 920 01a2 DD       		.byte	-35
 921 01a3 66       		.byte	102
 922 01a4 DF       		.byte	-33
 923 01a5 01       		.byte	1
 924 01a6 E0       		.byte	-32
 925 01a7 40       		.byte	64
 926 01a8 E2       		.byte	-30
 927 01a9 40       		.byte	64
 928 01aa E4       		.byte	-28
 929 01ab 40       		.byte	64
 930 01ac E5       		.byte	-27
 931 01ad 40       		.byte	64
 932 01ae E6       		.byte	-26
 933 01af 80       		.byte	-128
 934 01b0 E8       		.byte	-24
 935 01b1 80       		.byte	-128
 936 01b2 EA       		.byte	-22
 937 01b3 80       		.byte	-128
 938 01b4 EC       		.byte	-20
 939 01b5 80       		.byte	-128
 940 01b6 EE       		.byte	-18
 941 01b7 80       		.byte	-128
 942 01b8 02       		.byte	2
 943 01b9 40       		.byte	64
 944 01ba 09       		.byte	9
 945 01bb 08       		.byte	8
 946 01bc 19       		.byte	25
 947 01bd 40       		.byte	64
 948 01be 41       		.byte	65
 949 01bf 08       		.byte	8
 950 01c0 43       		.byte	67
 951 01c1 80       		.byte	-128
 952 01c2 45       		.byte	69
 953 01c3 08       		.byte	8
 954 01c4 46       		.byte	70
 955 01c5 40       		.byte	64
 956 01c6 49       		.byte	73
 957 01c7 05       		.byte	5
 958 01c8 52       		.byte	82
 959 01c9 40       		.byte	64
 960 01ca 53       		.byte	83
 961 01cb 80       		.byte	-128
 962 01cc 59       		.byte	89
 963 01cd 45       		.byte	69
ARM GAS  C:\Users\xavieran\AppData\Local\Temp\ccbEwKhF.s 			page 35


 964 01ce 9E       		.byte	-98
 965 01cf 40       		.byte	64
 966 01d0 A1       		.byte	-95
 967 01d1 08       		.byte	8
 968 01d2 AF       		.byte	-81
 969 01d3 01       		.byte	1
 970 01d4 B7       		.byte	-73
 971 01d5 10       		.byte	16
 972 01d6 C0       		.byte	-64
 973 01d7 08       		.byte	8
 974 01d8 C2       		.byte	-62
 975 01d9 04       		.byte	4
 976 01da D0       		.byte	-48
 977 01db CA       		.byte	-54
 978 01dc D6       		.byte	-42
 979 01dd 0B       		.byte	11
 980 01de E0       		.byte	-32
 981 01df 80       		.byte	-128
 982 01e0 E4       		.byte	-28
 983 01e1 01       		.byte	1
 984 01e2 E8       		.byte	-24
 985 01e3 04       		.byte	4
 986 01e4 EC       		.byte	-20
 987 01e5 08       		.byte	8
 988 01e6 EE       		.byte	-18
 989 01e7 42       		.byte	66
 990 01e8 A2       		.byte	-94
 991 01e9 08       		.byte	8
 992 01ea AA       		.byte	-86
 993 01eb 08       		.byte	8
 994 01ec AD       		.byte	-83
 995 01ed 80       		.byte	-128
 996 01ee AF       		.byte	-81
 997 01ef 20       		.byte	32
 998 01f0 B5       		.byte	-75
 999 01f1 02       		.byte	2
 1000 01f2 E0       		.byte	-32
 1001 01f3 80       		.byte	-128
 1002 01f4 E4       		.byte	-28
 1003 01f5 01       		.byte	1
 1004 01f6 A1       		.byte	-95
 1005 01f7 80       		.byte	-128
 1006 01f8 A5       		.byte	-91
 1007 01f9 02       		.byte	2
 1008 01fa A7       		.byte	-89
 1009 01fb 20       		.byte	32
 1010 01fc 38       		.byte	56
 1011 01fd 80       		.byte	-128
 1012 01fe 3E       		.byte	62
 1013 01ff 40       		.byte	64
 1014 0200 58       		.byte	88
 1015 0201 04       		.byte	4
 1016 0202 5F       		.byte	95
 1017 0203 01       		.byte	1
 1018 0204 1D       		.byte	29
 1019 0205 80       		.byte	-128
 1020 0206 A5       		.byte	-91
ARM GAS  C:\Users\xavieran\AppData\Local\Temp\ccbEwKhF.s 			page 36


 1021 0207 02       		.byte	2
 1022 0208 A7       		.byte	-89
 1023 0209 20       		.byte	32
 1024 020a AB       		.byte	-85
 1025 020b 14       		.byte	20
 1026 020c AC       		.byte	-84
 1027 020d 40       		.byte	64
 1028 020e AE       		.byte	-82
 1029 020f 02       		.byte	2
 1030 0210 AF       		.byte	-81
 1031 0211 08       		.byte	8
 1032 0212 B1       		.byte	-79
 1033 0213 C0       		.byte	-64
 1034 0214 B4       		.byte	-76
 1035 0215 20       		.byte	32
 1036 0216 EE       		.byte	-18
 1037 0217 02       		.byte	2
 1038 0218 42       		.byte	66
 1039 0219 03       		.byte	3
 1040 021a 47       		.byte	71
 1041 021b E0       		.byte	-32
 1042 021c 48       		.byte	72
 1043 021d 20       		.byte	32
 1044 021e 49       		.byte	73
 1045 021f FF       		.byte	-1
 1046 0220 4A       		.byte	74
 1047 0221 FF       		.byte	-1
 1048 0222 4B       		.byte	75
 1049 0223 FF       		.byte	-1
 1050 0224 4F       		.byte	79
 1051 0225 83       		.byte	-125
 1052 0226 5A       		.byte	90
 1053 0227 04       		.byte	4
 1054 0228 5B       		.byte	91
 1055 0229 04       		.byte	4
 1056 022a 5D       		.byte	93
 1057 022b 08       		.byte	8
 1058 022c 5F       		.byte	95
 1059 022d 21       		.byte	33
 1060 022e AF       		.byte	-81
 1061 022f 01       		.byte	1
 1062 0230 B1       		.byte	-79
 1063 0231 01       		.byte	1
 1064 0232 D2       		.byte	-46
 1065 0233 80       		.byte	-128
 1066 0234 D9       		.byte	-39
 1067 0235 04       		.byte	4
 1068 0236 DB       		.byte	-37
 1069 0237 04       		.byte	4
 1070 0238 DC       		.byte	-36
 1071 0239 80       		.byte	-128
 1072 023a DD       		.byte	-35
 1073 023b 60       		.byte	96
 1074 023c DF       		.byte	-33
 1075 023d 21       		.byte	33
 1076 023e 26       		.byte	38
 1077 023f 02       		.byte	2
ARM GAS  C:\Users\xavieran\AppData\Local\Temp\ccbEwKhF.s 			page 37


 1078 0240 2D       		.byte	45
 1079 0241 80       		.byte	-128
 1080 0242 43       		.byte	67
 1081 0243 08       		.byte	8
 1082 0244 52       		.byte	82
 1083 0245 01       		.byte	1
 1084 0246 58       		.byte	88
 1085 0247 40       		.byte	64
 1086 0248 59       		.byte	89
 1087 0249 02       		.byte	2
 1088 024a 5B       		.byte	91
 1089 024b 14       		.byte	20
 1090 024c 60       		.byte	96
 1091 024d 28       		.byte	40
 1092 024e 61       		.byte	97
 1093 024f 42       		.byte	66
 1094 0250 76       		.byte	118
 1095 0251 80       		.byte	-128
 1096 0252 7A       		.byte	122
 1097 0253 20       		.byte	32
 1098 0254 7F       		.byte	127
 1099 0255 20       		.byte	32
 1100 0256 82       		.byte	-126
 1101 0257 81       		.byte	-127
 1102 0258 89       		.byte	-119
 1103 0259 02       		.byte	2
 1104 025a 8C       		.byte	-116
 1105 025b 08       		.byte	8
 1106 025c 8E       		.byte	-114
 1107 025d 20       		.byte	32
 1108 025e CA       		.byte	-54
 1109 025f 10       		.byte	16
 1110 0260 D0       		.byte	-48
 1111 0261 02       		.byte	2
 1112 0262 D6       		.byte	-42
 1113 0263 0F       		.byte	15
 1114 0264 D8       		.byte	-40
 1115 0265 0F       		.byte	15
 1116 0266 DE       		.byte	-34
 1117 0267 42       		.byte	66
 1118 0268 E0       		.byte	-32
 1119 0269 80       		.byte	-128
 1120 026a E2       		.byte	-30
 1121 026b 01       		.byte	1
 1122 026c E4       		.byte	-28
 1123 026d 04       		.byte	4
 1124 026e EA       		.byte	-22
 1125 026f 01       		.byte	1
 1126 0270 E4       		.byte	-28
 1127 0271 80       		.byte	-128
 1128 0272 E8       		.byte	-24
 1129 0273 10       		.byte	16
 1130 0274 EA       		.byte	-22
 1131 0275 02       		.byte	2
 1132 0276 EE       		.byte	-18
 1133 0277 0A       		.byte	10
 1134 0278 A2       		.byte	-94
ARM GAS  C:\Users\xavieran\AppData\Local\Temp\ccbEwKhF.s 			page 38


 1135 0279 08       		.byte	8
 1136 027a E4       		.byte	-28
 1137 027b 80       		.byte	-128
 1138 027c E8       		.byte	-24
 1139 027d 10       		.byte	16
 1140 027e EA       		.byte	-22
 1141 027f 02       		.byte	2
 1142 0280 EE       		.byte	-18
 1143 0281 0A       		.byte	10
 1144 0282 2E       		.byte	46
 1145 0283 01       		.byte	1
 1146 0284 36       		.byte	54
 1147 0285 01       		.byte	1
 1148 0286 58       		.byte	88
 1149 0287 04       		.byte	4
 1150 0288 5C       		.byte	92
 1151 0289 08       		.byte	8
 1152 028a 5F       		.byte	95
 1153 028b 11       		.byte	17
 1154 028c 10       		.byte	16
 1155 028d 02       		.byte	2
 1156 028e 18       		.byte	24
 1157 028f 01       		.byte	1
 1158 0290 7A       		.byte	122
 1159 0291 08       		.byte	8
 1160 0292 80       		.byte	-128
 1161 0293 01       		.byte	1
 1162 0294 88       		.byte	-120
 1163 0295 02       		.byte	2
 1164 0296 A2       		.byte	-94
 1165 0297 08       		.byte	8
 1166 0298 C4       		.byte	-60
 1167 0299 01       		.byte	1
 1168 029a DE       		.byte	-34
 1169 029b 04       		.byte	4
 1170 029c E4       		.byte	-28
 1171 029d 04       		.byte	4
 1172 029e EA       		.byte	-22
 1173 029f 01       		.byte	1
 1174 02a0 0A       		.byte	10
 1175 02a1 18       		.byte	24
 1176 02a2 0C       		.byte	12
 1177 02a3 40       		.byte	64
 1178 02a4 0E       		.byte	14
 1179 02a5 40       		.byte	64
 1180 02a6 33       		.byte	51
 1181 02a7 81       		.byte	-127
 1182 02a8 36       		.byte	54
 1183 02a9 40       		.byte	64
 1184 02aa 37       		.byte	55
 1185 02ab 04       		.byte	4
 1186 02ac 3F       		.byte	63
 1187 02ad 80       		.byte	-128
 1188 02ae 55       		.byte	85
 1189 02af 40       		.byte	64
 1190 02b0 56       		.byte	86
 1191 02b1 02       		.byte	2
ARM GAS  C:\Users\xavieran\AppData\Local\Temp\ccbEwKhF.s 			page 39


 1192 02b2 83       		.byte	-125
 1193 02b3 40       		.byte	64
 1194 02b4 8A       		.byte	-118
 1195 02b5 04       		.byte	4
 1196 02b6 C2       		.byte	-62
 1197 02b7 F0       		.byte	-16
 1198 02b8 CC       		.byte	-52
 1199 02b9 F0       		.byte	-16
 1200 02ba CE       		.byte	-50
 1201 02bb 20       		.byte	32
 1202 02bc D4       		.byte	-44
 1203 02bd 40       		.byte	64
 1204 02be D6       		.byte	-42
 1205 02bf 20       		.byte	32
 1206 02c0 E2       		.byte	-30
 1207 02c1 20       		.byte	32
 1208 02c2 30       		.byte	48
 1209 02c3 20       		.byte	32
 1210 02c4 60       		.byte	96
 1211 02c5 08       		.byte	8
 1212 02c6 61       		.byte	97
 1213 02c7 80       		.byte	-128
 1214 02c8 66       		.byte	102
 1215 02c9 20       		.byte	32
 1216 02ca 9E       		.byte	-98
 1217 02cb 02       		.byte	2
 1218 02cc 9F       		.byte	-97
 1219 02cd 05       		.byte	5
 1220 02ce A0       		.byte	-96
 1221 02cf 20       		.byte	32
 1222 02d0 A5       		.byte	-91
 1223 02d1 40       		.byte	64
 1224 02d2 A6       		.byte	-90
 1225 02d3 40       		.byte	64
 1226 02d4 A7       		.byte	-89
 1227 02d5 80       		.byte	-128
 1228 02d6 AA       		.byte	-86
 1229 02d7 50       		.byte	80
 1230 02d8 AC       		.byte	-84
 1231 02d9 60       		.byte	96
 1232 02da CC       		.byte	-52
 1233 02db 10       		.byte	16
 1234 02dc D6       		.byte	-42
 1235 02dd 40       		.byte	64
 1236 02de D8       		.byte	-40
 1237 02df C0       		.byte	-64
 1238 02e0 E8       		.byte	-24
 1239 02e1 A0       		.byte	-96
 1240 02e2 EA       		.byte	-22
 1241 02e3 40       		.byte	64
 1242 02e4 EC       		.byte	-20
 1243 02e5 10       		.byte	16
 1244 02e6 10       		.byte	16
 1245 02e7 80       		.byte	-128
 1246 02e8 12       		.byte	18
 1247 02e9 80       		.byte	-128
 1248 02ea 3E       		.byte	62
ARM GAS  C:\Users\xavieran\AppData\Local\Temp\ccbEwKhF.s 			page 40


 1249 02eb 10       		.byte	16
 1250 02ec 53       		.byte	83
 1251 02ed 20       		.byte	32
 1252 02ee 58       		.byte	88
 1253 02ef 02       		.byte	2
 1254 02f0 5C       		.byte	92
 1255 02f1 02       		.byte	2
 1256 02f2 63       		.byte	99
 1257 02f3 40       		.byte	64
 1258 02f4 67       		.byte	103
 1259 02f5 40       		.byte	64
 1260 02f6 83       		.byte	-125
 1261 02f7 20       		.byte	32
 1262 02f8 8B       		.byte	-117
 1263 02f9 20       		.byte	32
 1264 02fa 8C       		.byte	-116
 1265 02fb 08       		.byte	8
 1266 02fc 9C       		.byte	-100
 1267 02fd 08       		.byte	8
 1268 02fe 9E       		.byte	-98
 1269 02ff 20       		.byte	32
 1270 0300 9F       		.byte	-97
 1271 0301 05       		.byte	5
 1272 0302 A5       		.byte	-91
 1273 0303 C0       		.byte	-64
 1274 0304 A6       		.byte	-90
 1275 0305 40       		.byte	64
 1276 0306 A7       		.byte	-89
 1277 0307 80       		.byte	-128
 1278 0308 AE       		.byte	-82
 1279 0309 02       		.byte	2
 1280 030a C4       		.byte	-60
 1281 030b 10       		.byte	16
 1282 030c CE       		.byte	-50
 1283 030d 20       		.byte	32
 1284 030e D4       		.byte	-44
 1285 030f 20       		.byte	32
 1286 0310 D6       		.byte	-42
 1287 0311 C0       		.byte	-64
 1288 0312 D8       		.byte	-40
 1289 0313 C0       		.byte	-64
 1290 0314 E2       		.byte	-30
 1291 0315 80       		.byte	-128
 1292 0316 EE       		.byte	-18
 1293 0317 10       		.byte	16
 1294 0318 18       		.byte	24
 1295 0319 10       		.byte	16
 1296 031a 19       		.byte	25
 1297 031b 04       		.byte	4
 1298 031c 1B       		.byte	27
 1299 031d 20       		.byte	32
 1300 031e 1D       		.byte	29
 1301 031f 80       		.byte	-128
 1302 0320 1E       		.byte	30
 1303 0321 20       		.byte	32
 1304 0322 81       		.byte	-127
 1305 0323 04       		.byte	4
ARM GAS  C:\Users\xavieran\AppData\Local\Temp\ccbEwKhF.s 			page 41


 1306 0324 8A       		.byte	-118
 1307 0325 10       		.byte	16
 1308 0326 96       		.byte	-106
 1309 0327 10       		.byte	16
 1310 0328 9B       		.byte	-101
 1311 0329 20       		.byte	32
 1312 032a 9F       		.byte	-97
 1313 032b 05       		.byte	5
 1314 032c A5       		.byte	-91
 1315 032d 80       		.byte	-128
 1316 032e A6       		.byte	-90
 1317 032f 40       		.byte	64
 1318 0330 A7       		.byte	-89
 1319 0331 80       		.byte	-128
 1320 0332 A8       		.byte	-88
 1321 0333 80       		.byte	-128
 1322 0334 AC       		.byte	-84
 1323 0335 02       		.byte	2
 1324 0336 AD       		.byte	-83
 1325 0337 40       		.byte	64
 1326 0338 AE       		.byte	-82
 1327 0339 80       		.byte	-128
 1328 033a AF       		.byte	-81
 1329 033b 40       		.byte	64
 1330 033c B6       		.byte	-74
 1331 033d 20       		.byte	32
 1332 033e C6       		.byte	-58
 1333 033f F0       		.byte	-16
 1334 0340 E4       		.byte	-28
 1335 0341 80       		.byte	-128
 1336 0342 E8       		.byte	-24
 1337 0343 20       		.byte	32
 1338 0344 EA       		.byte	-22
 1339 0345 40       		.byte	64
 1340 0346 EC       		.byte	-20
 1341 0347 10       		.byte	16
 1342 0348 EE       		.byte	-18
 1343 0349 40       		.byte	64
 1344 034a 01       		.byte	1
 1345 034b 42       		.byte	66
 1346 034c 04       		.byte	4
 1347 034d 48       		.byte	72
 1348 034e 08       		.byte	8
 1349 034f 04       		.byte	4
 1350 0350 65       		.byte	101
 1351 0351 20       		.byte	32
 1352 0352 8C       		.byte	-116
 1353 0353 04       		.byte	4
 1354 0354 8D       		.byte	-115
 1355 0355 40       		.byte	64
 1356 0356 C0       		.byte	-64
 1357 0357 0F       		.byte	15
 1358 0358 C2       		.byte	-62
 1359 0359 08       		.byte	8
 1360 035a D8       		.byte	-40
 1361 035b 01       		.byte	1
 1362 035c E2       		.byte	-30
ARM GAS  C:\Users\xavieran\AppData\Local\Temp\ccbEwKhF.s 			page 42


 1363 035d 0A       		.byte	10
 1364 035e 00       		.byte	0
 1365 035f 08       		.byte	8
 1366 0360 08       		.byte	8
 1367 0361 01       		.byte	1
 1368 0362 0D       		.byte	13
 1369 0363 02       		.byte	2
 1370 0364 5B       		.byte	91
 1371 0365 08       		.byte	8
 1372 0366 60       		.byte	96
 1373 0367 20       		.byte	32
 1374 0368 9D       		.byte	-99
 1375 0369 20       		.byte	32
 1376 036a A4       		.byte	-92
 1377 036b 04       		.byte	4
 1378 036c AC       		.byte	-84
 1379 036d 04       		.byte	4
 1380 036e B0       		.byte	-80
 1381 036f 04       		.byte	4
 1382 0370 B1       		.byte	-79
 1383 0371 02       		.byte	2
 1384 0372 B4       		.byte	-76
 1385 0373 40       		.byte	64
 1386 0374 C0       		.byte	-64
 1387 0375 08       		.byte	8
 1388 0376 C2       		.byte	-62
 1389 0377 0C       		.byte	12
 1390 0378 D6       		.byte	-42
 1391 0379 02       		.byte	2
 1392 037a D8       		.byte	-40
 1393 037b 02       		.byte	2
 1394 037c EA       		.byte	-22
 1395 037d 03       		.byte	3
 1396 037e EE       		.byte	-18
 1397 037f 01       		.byte	1
 1398 0380 04       		.byte	4
 1399 0381 01       		.byte	1
 1400 0382 98       		.byte	-104
 1401 0383 01       		.byte	1
 1402 0384 9C       		.byte	-100
 1403 0385 20       		.byte	32
 1404 0386 9D       		.byte	-99
 1405 0387 20       		.byte	32
 1406 0388 9F       		.byte	-97
 1407 0389 08       		.byte	8
 1408 038a A1       		.byte	-95
 1409 038b 10       		.byte	16
 1410 038c B5       		.byte	-75
 1411 038d 12       		.byte	18
 1412 038e C0       		.byte	-64
 1413 038f 04       		.byte	4
 1414 0390 08       		.byte	8
 1415 0391 08       		.byte	8
 1416 0392 0B       		.byte	11
 1417 0393 04       		.byte	4
 1418 0394 0F       		.byte	15
 1419 0395 40       		.byte	64
ARM GAS  C:\Users\xavieran\AppData\Local\Temp\ccbEwKhF.s 			page 43


 1420 0396 81       		.byte	-127
 1421 0397 20       		.byte	32
 1422 0398 89       		.byte	-119
 1423 0399 02       		.byte	2
 1424 039a 98       		.byte	-104
 1425 039b 01       		.byte	1
 1426 039c 9C       		.byte	-100
 1427 039d 20       		.byte	32
 1428 039e 9D       		.byte	-99
 1429 039f 20       		.byte	32
 1430 03a0 9F       		.byte	-97
 1431 03a1 08       		.byte	8
 1432 03a2 A1       		.byte	-95
 1433 03a3 10       		.byte	16
 1434 03a4 B4       		.byte	-76
 1435 03a5 01       		.byte	1
 1436 03a6 C2       		.byte	-62
 1437 03a7 0E       		.byte	14
 1438 03a8 E0       		.byte	-32
 1439 03a9 01       		.byte	1
 1440 03aa EE       		.byte	-18
 1441 03ab 08       		.byte	8
 1442 03ac 25       		.byte	37
 1443 03ad 20       		.byte	32
 1444 03ae 5F       		.byte	95
 1445 03af 20       		.byte	32
 1446 03b0 89       		.byte	-119
 1447 03b1 20       		.byte	32
 1448 03b2 96       		.byte	-106
 1449 03b3 10       		.byte	16
 1450 03b4 9B       		.byte	-101
 1451 03b5 20       		.byte	32
 1452 03b6 9F       		.byte	-97
 1453 03b7 04       		.byte	4
 1454 03b8 A3       		.byte	-93
 1455 03b9 20       		.byte	32
 1456 03ba AE       		.byte	-82
 1457 03bb 40       		.byte	64
 1458 03bc AF       		.byte	-81
 1459 03bd 81       		.byte	-127
 1460 03be B4       		.byte	-76
 1461 03bf 10       		.byte	16
 1462 03c0 C8       		.byte	-56
 1463 03c1 20       		.byte	32
 1464 03c2 D6       		.byte	-42
 1465 03c3 20       		.byte	32
 1466 03c4 EA       		.byte	-22
 1467 03c5 40       		.byte	64
 1468 03c6 EE       		.byte	-18
 1469 03c7 50       		.byte	80
 1470 03c8 21       		.byte	33
 1471 03c9 40       		.byte	64
 1472 03ca 79       		.byte	121
 1473 03cb 80       		.byte	-128
 1474 03cc 83       		.byte	-125
 1475 03cd 24       		.byte	36
 1476 03ce 9F       		.byte	-97
ARM GAS  C:\Users\xavieran\AppData\Local\Temp\ccbEwKhF.s 			page 44


 1477 03cf 04       		.byte	4
 1478 03d0 A3       		.byte	-93
 1479 03d1 20       		.byte	32
 1480 03d2 AA       		.byte	-86
 1481 03d3 10       		.byte	16
 1482 03d4 C8       		.byte	-56
 1483 03d5 10       		.byte	16
 1484 03d6 DC       		.byte	-36
 1485 03d7 80       		.byte	-128
 1486 03d8 E2       		.byte	-30
 1487 03d9 80       		.byte	-128
 1488 03da E4       		.byte	-28
 1489 03db 20       		.byte	32
 1490 03dc EA       		.byte	-22
 1491 03dd 80       		.byte	-128
 1492 03de 13       		.byte	19
 1493 03df 28       		.byte	40
 1494 03e0 14       		.byte	20
 1495 03e1 20       		.byte	32
 1496 03e2 72       		.byte	114
 1497 03e3 20       		.byte	32
 1498 03e4 78       		.byte	120
 1499 03e5 01       		.byte	1
 1500 03e6 7D       		.byte	125
 1501 03e7 20       		.byte	32
 1502 03e8 8A       		.byte	-118
 1503 03e9 20       		.byte	32
 1504 03ea 98       		.byte	-104
 1505 03eb 81       		.byte	-127
 1506 03ec 99       		.byte	-103
 1507 03ed 02       		.byte	2
 1508 03ee 9C       		.byte	-100
 1509 03ef 20       		.byte	32
 1510 03f0 9F       		.byte	-97
 1511 03f1 08       		.byte	8
 1512 03f2 A1       		.byte	-95
 1513 03f3 10       		.byte	16
 1514 03f4 AC       		.byte	-84
 1515 03f5 08       		.byte	8
 1516 03f6 AF       		.byte	-81
 1517 03f7 44       		.byte	68
 1518 03f8 B4       		.byte	-76
 1519 03f9 80       		.byte	-128
 1520 03fa C4       		.byte	-60
 1521 03fb 0E       		.byte	14
 1522 03fc DC       		.byte	-36
 1523 03fd 01       		.byte	1
 1524 03fe DE       		.byte	-34
 1525 03ff 03       		.byte	3
 1526 0400 E4       		.byte	-28
 1527 0401 01       		.byte	1
 1528 0402 E8       		.byte	-24
 1529 0403 08       		.byte	8
 1530 0404 0C       		.byte	12
 1531 0405 80       		.byte	-128
 1532 0406 57       		.byte	87
 1533 0407 80       		.byte	-128
ARM GAS  C:\Users\xavieran\AppData\Local\Temp\ccbEwKhF.s 			page 45


 1534 0408 60       		.byte	96
 1535 0409 80       		.byte	-128
 1536 040a 75       		.byte	117
 1537 040b 02       		.byte	2
 1538 040c 83       		.byte	-125
 1539 040d 80       		.byte	-128
 1540 040e 88       		.byte	-120
 1541 040f 80       		.byte	-128
 1542 0410 98       		.byte	-104
 1543 0411 80       		.byte	-128
 1544 0412 99       		.byte	-103
 1545 0413 02       		.byte	2
 1546 0414 AB       		.byte	-85
 1547 0415 20       		.byte	32
 1548 0416 C2       		.byte	-62
 1549 0417 01       		.byte	1
 1550 0418 D4       		.byte	-44
 1551 0419 02       		.byte	2
 1552 041a D8       		.byte	-40
 1553 041b 02       		.byte	2
 1554 041c DE       		.byte	-34
 1555 041d 04       		.byte	4
 1556 041e E6       		.byte	-26
 1557 041f 01       		.byte	1
 1558 0420 00       		.byte	0
 1559 0421 40       		.byte	64
 1560 0422 0A       		.byte	10
 1561 0423 40       		.byte	64
 1562 0424 0E       		.byte	14
 1563 0425 40       		.byte	64
 1564 0426 00       		.byte	0
 1565 0427 EA       		.byte	-22
 1566 0428 01       		.byte	1
 1567 0429 0C       		.byte	12
 1568 042a 03       		.byte	3
 1569 042b C0       		.byte	-64
 1570 042c 10       		.byte	16
 1571 042d 01       		.byte	1
 1572 042e 0000     		.space	2
 1573              		.type	BS_IOPINS0_0_VAL.4879, %object
 1574              		.size	BS_IOPINS0_0_VAL.4879, 10
 1575              	BS_IOPINS0_0_VAL.4879:
 1576 0430 03       		.byte	3
 1577 0431 00       		.byte	0
 1578 0432 00       		.byte	0
 1579 0433 F0       		.byte	-16
 1580 0434 F3       		.byte	-13
 1581 0435 00       		.byte	0
 1582 0436 E0       		.byte	-32
 1583 0437 00       		.byte	0
 1584 0438 00       		.byte	0
 1585 0439 00       		.byte	0
 1586 043a 0000     		.space	2
 1587              		.type	BS_IOPINS0_7_VAL.4880, %object
 1588              		.size	BS_IOPINS0_7_VAL.4880, 10
 1589              	BS_IOPINS0_7_VAL.4880:
 1590 043c 03       		.byte	3
ARM GAS  C:\Users\xavieran\AppData\Local\Temp\ccbEwKhF.s 			page 46


 1591 043d 00       		.byte	0
 1592 043e 80       		.byte	-128
 1593 043f 2C       		.byte	44
 1594 0440 AF       		.byte	-81
 1595 0441 00       		.byte	0
 1596 0442 2C       		.byte	44
 1597 0443 00       		.byte	0
 1598 0444 00       		.byte	0
 1599 0445 00       		.byte	0
 1600 0446 0000     		.space	2
 1601              		.type	BS_IOPINS0_8_VAL.4881, %object
 1602              		.size	BS_IOPINS0_8_VAL.4881, 10
 1603              	BS_IOPINS0_8_VAL.4881:
 1604 0448 00       		.byte	0
 1605 0449 00       		.byte	0
 1606 044a 20       		.byte	32
 1607 044b 18       		.byte	24
 1608 044c 18       		.byte	24
 1609 044d 00       		.byte	0
 1610 044e 18       		.byte	24
 1611 044f 00       		.byte	0
 1612 0450 C0       		.byte	-64
 1613 0451 00       		.byte	0
 1614 0452 0000     		.space	2
 1615              		.type	BS_IOPINS0_2_VAL.4882, %object
 1616              		.size	BS_IOPINS0_2_VAL.4882, 10
 1617              	BS_IOPINS0_2_VAL.4882:
 1618 0454 30       		.byte	48
 1619 0455 00       		.byte	0
 1620 0456 05       		.byte	5
 1621 0457 00       		.byte	0
 1622 0458 30       		.byte	48
 1623 0459 00       		.byte	0
 1624 045a 30       		.byte	48
 1625 045b 00       		.byte	0
 1626 045c 00       		.byte	0
 1627 045d 00       		.byte	0
 1628 045e 0000     		.space	2
 1629              		.type	BS_IOPINS0_4_VAL.4883, %object
 1630              		.size	BS_IOPINS0_4_VAL.4883, 8
 1631              	BS_IOPINS0_4_VAL.4883:
 1632 0460 F0       		.byte	-16
 1633 0461 03       		.byte	3
 1634 0462 03       		.byte	3
 1635 0463 00       		.byte	0
 1636 0464 03       		.byte	3
 1637 0465 00       		.byte	0
 1638 0466 00       		.byte	0
 1639 0467 01       		.byte	1
 1640              		.type	BS_IOPINS0_5_VAL.4884, %object
 1641              		.size	BS_IOPINS0_5_VAL.4884, 8
 1642              	BS_IOPINS0_5_VAL.4884:
 1643 0468 D0       		.byte	-48
 1644 0469 A3       		.byte	-93
 1645 046a 73       		.byte	115
 1646 046b 00       		.byte	0
 1647 046c 82       		.byte	-126
ARM GAS  C:\Users\xavieran\AppData\Local\Temp\ccbEwKhF.s 			page 47


 1648 046d 00       		.byte	0
 1649 046e 00       		.byte	0
 1650 046f 00       		.byte	0
 1651              		.type	BS_IOPINS0_6_VAL.4885, %object
 1652              		.size	BS_IOPINS0_6_VAL.4885, 8
 1653              	BS_IOPINS0_6_VAL.4885:
 1654 0470 1F       		.byte	31
 1655 0471 F0       		.byte	-16
 1656 0472 E0       		.byte	-32
 1657 0473 00       		.byte	0
 1658 0474 10       		.byte	16
 1659 0475 00       		.byte	0
 1660 0476 00       		.byte	0
 1661 0477 00       		.byte	0
 1662              		.type	BS_IOPORT_7_VAL.4898, %object
 1663              		.size	BS_IOPORT_7_VAL.4898, 6
 1664              	BS_IOPORT_7_VAL.4898:
 1665 0478 23       		.byte	35
 1666 0479 24       		.byte	36
 1667 047a 00       		.byte	0
 1668 047b 00       		.byte	0
 1669 047c 03       		.byte	3
 1670 047d 00       		.byte	0
 1671 047e 0000     		.text
 1672              	.Letext0:
 1673              		.file 2 "c:\\program files (x86)\\cypress\\psoc creator\\3.2\\psoc creator\\import\\gnu\\arm\\4.8.
 1674              		.file 3 ".\\Generated_Source\\PSoC5\\cytypes.h"
 1675              		.file 4 ".\\Generated_Source\\PSoC5\\CyLib.h"