ARM GAS  C:\Users\xavieran\AppData\Local\Temp\ccBhYMQA.s 			page 1


   1              		.syntax unified
   2              		.cpu cortex-m3
   3              		.fpu softvfp
   4              		.eabi_attribute 20, 1
   5              		.eabi_attribute 21, 1
   6              		.eabi_attribute 23, 3
   7              		.eabi_attribute 24, 1
   8              		.eabi_attribute 25, 1
   9              		.eabi_attribute 26, 1
  10              		.eabi_attribute 30, 1
  11              		.eabi_attribute 34, 1
  12              		.eabi_attribute 18, 4
  13              		.thumb
  14              		.file	"HC_Timer_PM.c"
  15              		.text
  16              	.Ltext0:
  17              		.cfi_sections	.debug_frame
  18              		.section	.text.HC_Timer_SaveConfig,"ax",%progbits
  19              		.align	2
  20              		.global	HC_Timer_SaveConfig
  21              		.thumb
  22              		.thumb_func
  23              		.type	HC_Timer_SaveConfig, %function
  24              	HC_Timer_SaveConfig:
  25              	.LFB0:
  26              		.file 1 ".\\Generated_Source\\PSoC5\\HC_Timer_PM.c"
   1:.\Generated_Source\PSoC5/HC_Timer_PM.c **** /*******************************************************************************
   2:.\Generated_Source\PSoC5/HC_Timer_PM.c **** * File Name: HC_Timer_PM.c
   3:.\Generated_Source\PSoC5/HC_Timer_PM.c **** * Version 2.70
   4:.\Generated_Source\PSoC5/HC_Timer_PM.c **** *
   5:.\Generated_Source\PSoC5/HC_Timer_PM.c **** *  Description:
   6:.\Generated_Source\PSoC5/HC_Timer_PM.c **** *     This file provides the power management source code to API for the
   7:.\Generated_Source\PSoC5/HC_Timer_PM.c **** *     Timer.
   8:.\Generated_Source\PSoC5/HC_Timer_PM.c **** *
   9:.\Generated_Source\PSoC5/HC_Timer_PM.c **** *   Note:
  10:.\Generated_Source\PSoC5/HC_Timer_PM.c **** *     None
  11:.\Generated_Source\PSoC5/HC_Timer_PM.c **** *
  12:.\Generated_Source\PSoC5/HC_Timer_PM.c **** *******************************************************************************
  13:.\Generated_Source\PSoC5/HC_Timer_PM.c **** * Copyright 2008-2014, Cypress Semiconductor Corporation.  All rights reserved.
  14:.\Generated_Source\PSoC5/HC_Timer_PM.c **** * You may use this file only in accordance with the license, terms, conditions,
  15:.\Generated_Source\PSoC5/HC_Timer_PM.c **** * disclaimers, and limitations in the end user license agreement accompanying
  16:.\Generated_Source\PSoC5/HC_Timer_PM.c **** * the software package with which this file was provided.
  17:.\Generated_Source\PSoC5/HC_Timer_PM.c **** ********************************************************************************/
  18:.\Generated_Source\PSoC5/HC_Timer_PM.c **** 
  19:.\Generated_Source\PSoC5/HC_Timer_PM.c **** #include "HC_Timer.h"
  20:.\Generated_Source\PSoC5/HC_Timer_PM.c **** 
  21:.\Generated_Source\PSoC5/HC_Timer_PM.c **** static HC_Timer_backupStruct HC_Timer_backup;
  22:.\Generated_Source\PSoC5/HC_Timer_PM.c **** 
  23:.\Generated_Source\PSoC5/HC_Timer_PM.c **** 
  24:.\Generated_Source\PSoC5/HC_Timer_PM.c **** /*******************************************************************************
  25:.\Generated_Source\PSoC5/HC_Timer_PM.c **** * Function Name: HC_Timer_SaveConfig
  26:.\Generated_Source\PSoC5/HC_Timer_PM.c **** ********************************************************************************
  27:.\Generated_Source\PSoC5/HC_Timer_PM.c **** *
  28:.\Generated_Source\PSoC5/HC_Timer_PM.c **** * Summary:
  29:.\Generated_Source\PSoC5/HC_Timer_PM.c **** *     Save the current user configuration
  30:.\Generated_Source\PSoC5/HC_Timer_PM.c **** *
  31:.\Generated_Source\PSoC5/HC_Timer_PM.c **** * Parameters:
ARM GAS  C:\Users\xavieran\AppData\Local\Temp\ccBhYMQA.s 			page 2


  32:.\Generated_Source\PSoC5/HC_Timer_PM.c **** *  void
  33:.\Generated_Source\PSoC5/HC_Timer_PM.c **** *
  34:.\Generated_Source\PSoC5/HC_Timer_PM.c **** * Return:
  35:.\Generated_Source\PSoC5/HC_Timer_PM.c **** *  void
  36:.\Generated_Source\PSoC5/HC_Timer_PM.c **** *
  37:.\Generated_Source\PSoC5/HC_Timer_PM.c **** * Global variables:
  38:.\Generated_Source\PSoC5/HC_Timer_PM.c **** *  HC_Timer_backup:  Variables of this global structure are modified to
  39:.\Generated_Source\PSoC5/HC_Timer_PM.c **** *  store the values of non retention configuration registers when Sleep() API is
  40:.\Generated_Source\PSoC5/HC_Timer_PM.c **** *  called.
  41:.\Generated_Source\PSoC5/HC_Timer_PM.c **** *
  42:.\Generated_Source\PSoC5/HC_Timer_PM.c **** *******************************************************************************/
  43:.\Generated_Source\PSoC5/HC_Timer_PM.c **** void HC_Timer_SaveConfig(void) 
  44:.\Generated_Source\PSoC5/HC_Timer_PM.c **** {
  27              		.loc 1 44 0
  28              		.cfi_startproc
  29              		@ args = 0, pretend = 0, frame = 0
  30              		@ frame_needed = 0, uses_anonymous_args = 0
  31 0000 08B5     		push	{r3, lr}
  32              		.cfi_def_cfa_offset 8
  33              		.cfi_offset 3, -8
  34              		.cfi_offset 14, -4
  45:.\Generated_Source\PSoC5/HC_Timer_PM.c ****     #if (!HC_Timer_UsingFixedFunction)
  46:.\Generated_Source\PSoC5/HC_Timer_PM.c ****         HC_Timer_backup.TimerUdb = HC_Timer_ReadCounter();
  35              		.loc 1 46 0
  36 0002 FFF7FEFF 		bl	HC_Timer_ReadCounter
  37              	.LVL0:
  38 0006 034B     		ldr	r3, .L2
  39 0008 5880     		strh	r0, [r3, #2]	@ movhi
  47:.\Generated_Source\PSoC5/HC_Timer_PM.c ****         HC_Timer_backup.InterruptMaskValue = HC_Timer_STATUS_MASK;
  40              		.loc 1 47 0
  41 000a 034A     		ldr	r2, .L2+4
  42 000c 1278     		ldrb	r2, [r2]	@ zero_extendqisi2
  43 000e 1A71     		strb	r2, [r3, #4]
  44 0010 08BD     		pop	{r3, pc}
  45              	.L3:
  46 0012 00BF     		.align	2
  47              	.L2:
  48 0014 00000000 		.word	.LANCHOR0
  49 0018 86650040 		.word	1073767814
  50              		.cfi_endproc
  51              	.LFE0:
  52              		.size	HC_Timer_SaveConfig, .-HC_Timer_SaveConfig
  53              		.section	.text.HC_Timer_RestoreConfig,"ax",%progbits
  54              		.align	2
  55              		.global	HC_Timer_RestoreConfig
  56              		.thumb
  57              		.thumb_func
  58              		.type	HC_Timer_RestoreConfig, %function
  59              	HC_Timer_RestoreConfig:
  60              	.LFB1:
  48:.\Generated_Source\PSoC5/HC_Timer_PM.c ****         #if (HC_Timer_UsingHWCaptureCounter)
  49:.\Generated_Source\PSoC5/HC_Timer_PM.c ****             HC_Timer_backup.TimerCaptureCounter = HC_Timer_ReadCaptureCount();
  50:.\Generated_Source\PSoC5/HC_Timer_PM.c ****         #endif /* Back Up capture counter register  */
  51:.\Generated_Source\PSoC5/HC_Timer_PM.c **** 
  52:.\Generated_Source\PSoC5/HC_Timer_PM.c ****         #if(!HC_Timer_UDB_CONTROL_REG_REMOVED)
  53:.\Generated_Source\PSoC5/HC_Timer_PM.c ****             HC_Timer_backup.TimerControlRegister = HC_Timer_ReadControlRegister();
  54:.\Generated_Source\PSoC5/HC_Timer_PM.c ****         #endif /* Backup the enable state of the Timer component */
ARM GAS  C:\Users\xavieran\AppData\Local\Temp\ccBhYMQA.s 			page 3


  55:.\Generated_Source\PSoC5/HC_Timer_PM.c ****     #endif /* Backup non retention registers in UDB implementation. All fixed function registers ar
  56:.\Generated_Source\PSoC5/HC_Timer_PM.c **** }
  57:.\Generated_Source\PSoC5/HC_Timer_PM.c **** 
  58:.\Generated_Source\PSoC5/HC_Timer_PM.c **** 
  59:.\Generated_Source\PSoC5/HC_Timer_PM.c **** /*******************************************************************************
  60:.\Generated_Source\PSoC5/HC_Timer_PM.c **** * Function Name: HC_Timer_RestoreConfig
  61:.\Generated_Source\PSoC5/HC_Timer_PM.c **** ********************************************************************************
  62:.\Generated_Source\PSoC5/HC_Timer_PM.c **** *
  63:.\Generated_Source\PSoC5/HC_Timer_PM.c **** * Summary:
  64:.\Generated_Source\PSoC5/HC_Timer_PM.c **** *  Restores the current user configuration.
  65:.\Generated_Source\PSoC5/HC_Timer_PM.c **** *
  66:.\Generated_Source\PSoC5/HC_Timer_PM.c **** * Parameters:
  67:.\Generated_Source\PSoC5/HC_Timer_PM.c **** *  void
  68:.\Generated_Source\PSoC5/HC_Timer_PM.c **** *
  69:.\Generated_Source\PSoC5/HC_Timer_PM.c **** * Return:
  70:.\Generated_Source\PSoC5/HC_Timer_PM.c **** *  void
  71:.\Generated_Source\PSoC5/HC_Timer_PM.c **** *
  72:.\Generated_Source\PSoC5/HC_Timer_PM.c **** * Global variables:
  73:.\Generated_Source\PSoC5/HC_Timer_PM.c **** *  HC_Timer_backup:  Variables of this global structure are used to
  74:.\Generated_Source\PSoC5/HC_Timer_PM.c **** *  restore the values of non retention registers on wakeup from sleep mode.
  75:.\Generated_Source\PSoC5/HC_Timer_PM.c **** *
  76:.\Generated_Source\PSoC5/HC_Timer_PM.c **** *******************************************************************************/
  77:.\Generated_Source\PSoC5/HC_Timer_PM.c **** void HC_Timer_RestoreConfig(void) 
  78:.\Generated_Source\PSoC5/HC_Timer_PM.c **** {   
  61              		.loc 1 78 0
  62              		.cfi_startproc
  63              		@ args = 0, pretend = 0, frame = 0
  64              		@ frame_needed = 0, uses_anonymous_args = 0
  65 0000 10B5     		push	{r4, lr}
  66              		.cfi_def_cfa_offset 8
  67              		.cfi_offset 4, -8
  68              		.cfi_offset 14, -4
  79:.\Generated_Source\PSoC5/HC_Timer_PM.c ****     #if (!HC_Timer_UsingFixedFunction)
  80:.\Generated_Source\PSoC5/HC_Timer_PM.c **** 
  81:.\Generated_Source\PSoC5/HC_Timer_PM.c ****         HC_Timer_WriteCounter(HC_Timer_backup.TimerUdb);
  69              		.loc 1 81 0
  70 0002 044C     		ldr	r4, .L5
  71 0004 6088     		ldrh	r0, [r4, #2]
  72 0006 FFF7FEFF 		bl	HC_Timer_WriteCounter
  73              	.LVL1:
  82:.\Generated_Source\PSoC5/HC_Timer_PM.c ****         HC_Timer_STATUS_MASK =HC_Timer_backup.InterruptMaskValue;
  74              		.loc 1 82 0
  75 000a 2279     		ldrb	r2, [r4, #4]	@ zero_extendqisi2
  76 000c 024B     		ldr	r3, .L5+4
  77 000e 1A70     		strb	r2, [r3]
  78 0010 10BD     		pop	{r4, pc}
  79              	.L6:
  80 0012 00BF     		.align	2
  81              	.L5:
  82 0014 00000000 		.word	.LANCHOR0
  83 0018 86650040 		.word	1073767814
  84              		.cfi_endproc
  85              	.LFE1:
  86              		.size	HC_Timer_RestoreConfig, .-HC_Timer_RestoreConfig
  87              		.section	.text.HC_Timer_Sleep,"ax",%progbits
  88              		.align	2
  89              		.global	HC_Timer_Sleep
ARM GAS  C:\Users\xavieran\AppData\Local\Temp\ccBhYMQA.s 			page 4


  90              		.thumb
  91              		.thumb_func
  92              		.type	HC_Timer_Sleep, %function
  93              	HC_Timer_Sleep:
  94              	.LFB2:
  83:.\Generated_Source\PSoC5/HC_Timer_PM.c ****         #if (HC_Timer_UsingHWCaptureCounter)
  84:.\Generated_Source\PSoC5/HC_Timer_PM.c ****             HC_Timer_SetCaptureCount(HC_Timer_backup.TimerCaptureCounter);
  85:.\Generated_Source\PSoC5/HC_Timer_PM.c ****         #endif /* Restore Capture counter register*/
  86:.\Generated_Source\PSoC5/HC_Timer_PM.c **** 
  87:.\Generated_Source\PSoC5/HC_Timer_PM.c ****         #if(!HC_Timer_UDB_CONTROL_REG_REMOVED)
  88:.\Generated_Source\PSoC5/HC_Timer_PM.c ****             HC_Timer_WriteControlRegister(HC_Timer_backup.TimerControlRegister);
  89:.\Generated_Source\PSoC5/HC_Timer_PM.c ****         #endif /* Restore the enable state of the Timer component */
  90:.\Generated_Source\PSoC5/HC_Timer_PM.c ****     #endif /* Restore non retention registers in the UDB implementation only */
  91:.\Generated_Source\PSoC5/HC_Timer_PM.c **** }
  92:.\Generated_Source\PSoC5/HC_Timer_PM.c **** 
  93:.\Generated_Source\PSoC5/HC_Timer_PM.c **** 
  94:.\Generated_Source\PSoC5/HC_Timer_PM.c **** /*******************************************************************************
  95:.\Generated_Source\PSoC5/HC_Timer_PM.c **** * Function Name: HC_Timer_Sleep
  96:.\Generated_Source\PSoC5/HC_Timer_PM.c **** ********************************************************************************
  97:.\Generated_Source\PSoC5/HC_Timer_PM.c **** *
  98:.\Generated_Source\PSoC5/HC_Timer_PM.c **** * Summary:
  99:.\Generated_Source\PSoC5/HC_Timer_PM.c **** *     Stop and Save the user configuration
 100:.\Generated_Source\PSoC5/HC_Timer_PM.c **** *
 101:.\Generated_Source\PSoC5/HC_Timer_PM.c **** * Parameters:
 102:.\Generated_Source\PSoC5/HC_Timer_PM.c **** *  void
 103:.\Generated_Source\PSoC5/HC_Timer_PM.c **** *
 104:.\Generated_Source\PSoC5/HC_Timer_PM.c **** * Return:
 105:.\Generated_Source\PSoC5/HC_Timer_PM.c **** *  void
 106:.\Generated_Source\PSoC5/HC_Timer_PM.c **** *
 107:.\Generated_Source\PSoC5/HC_Timer_PM.c **** * Global variables:
 108:.\Generated_Source\PSoC5/HC_Timer_PM.c **** *  HC_Timer_backup.TimerEnableState:  Is modified depending on the
 109:.\Generated_Source\PSoC5/HC_Timer_PM.c **** *  enable state of the block before entering sleep mode.
 110:.\Generated_Source\PSoC5/HC_Timer_PM.c **** *
 111:.\Generated_Source\PSoC5/HC_Timer_PM.c **** *******************************************************************************/
 112:.\Generated_Source\PSoC5/HC_Timer_PM.c **** void HC_Timer_Sleep(void) 
 113:.\Generated_Source\PSoC5/HC_Timer_PM.c **** {
  95              		.loc 1 113 0
  96              		.cfi_startproc
  97              		@ args = 0, pretend = 0, frame = 0
  98              		@ frame_needed = 0, uses_anonymous_args = 0
  99 0000 08B5     		push	{r3, lr}
 100              		.cfi_def_cfa_offset 8
 101              		.cfi_offset 3, -8
 102              		.cfi_offset 14, -4
 114:.\Generated_Source\PSoC5/HC_Timer_PM.c ****     #if(!HC_Timer_UDB_CONTROL_REG_REMOVED)
 115:.\Generated_Source\PSoC5/HC_Timer_PM.c ****         /* Save Counter's enable state */
 116:.\Generated_Source\PSoC5/HC_Timer_PM.c ****         if(HC_Timer_CTRL_ENABLE == (HC_Timer_CONTROL & HC_Timer_CTRL_ENABLE))
 117:.\Generated_Source\PSoC5/HC_Timer_PM.c ****         {
 118:.\Generated_Source\PSoC5/HC_Timer_PM.c ****             /* Timer is enabled */
 119:.\Generated_Source\PSoC5/HC_Timer_PM.c ****             HC_Timer_backup.TimerEnableState = 1u;
 120:.\Generated_Source\PSoC5/HC_Timer_PM.c ****         }
 121:.\Generated_Source\PSoC5/HC_Timer_PM.c ****         else
 122:.\Generated_Source\PSoC5/HC_Timer_PM.c ****         {
 123:.\Generated_Source\PSoC5/HC_Timer_PM.c ****             /* Timer is disabled */
 124:.\Generated_Source\PSoC5/HC_Timer_PM.c ****             HC_Timer_backup.TimerEnableState = 0u;
 125:.\Generated_Source\PSoC5/HC_Timer_PM.c ****         }
 126:.\Generated_Source\PSoC5/HC_Timer_PM.c ****     #endif /* Back up enable state from the Timer control register */
ARM GAS  C:\Users\xavieran\AppData\Local\Temp\ccBhYMQA.s 			page 5


 127:.\Generated_Source\PSoC5/HC_Timer_PM.c ****     HC_Timer_Stop();
 103              		.loc 1 127 0
 104 0002 FFF7FEFF 		bl	HC_Timer_Stop
 105              	.LVL2:
 128:.\Generated_Source\PSoC5/HC_Timer_PM.c ****     HC_Timer_SaveConfig();
 106              		.loc 1 128 0
 107 0006 FFF7FEFF 		bl	HC_Timer_SaveConfig
 108              	.LVL3:
 109 000a 08BD     		pop	{r3, pc}
 110              		.cfi_endproc
 111              	.LFE2:
 112              		.size	HC_Timer_Sleep, .-HC_Timer_Sleep
 113              		.section	.text.HC_Timer_Wakeup,"ax",%progbits
 114              		.align	2
 115              		.global	HC_Timer_Wakeup
 116              		.thumb
 117              		.thumb_func
 118              		.type	HC_Timer_Wakeup, %function
 119              	HC_Timer_Wakeup:
 120              	.LFB3:
 129:.\Generated_Source\PSoC5/HC_Timer_PM.c **** }
 130:.\Generated_Source\PSoC5/HC_Timer_PM.c **** 
 131:.\Generated_Source\PSoC5/HC_Timer_PM.c **** 
 132:.\Generated_Source\PSoC5/HC_Timer_PM.c **** /*******************************************************************************
 133:.\Generated_Source\PSoC5/HC_Timer_PM.c **** * Function Name: HC_Timer_Wakeup
 134:.\Generated_Source\PSoC5/HC_Timer_PM.c **** ********************************************************************************
 135:.\Generated_Source\PSoC5/HC_Timer_PM.c **** *
 136:.\Generated_Source\PSoC5/HC_Timer_PM.c **** * Summary:
 137:.\Generated_Source\PSoC5/HC_Timer_PM.c **** *  Restores and enables the user configuration
 138:.\Generated_Source\PSoC5/HC_Timer_PM.c **** *
 139:.\Generated_Source\PSoC5/HC_Timer_PM.c **** * Parameters:
 140:.\Generated_Source\PSoC5/HC_Timer_PM.c **** *  void
 141:.\Generated_Source\PSoC5/HC_Timer_PM.c **** *
 142:.\Generated_Source\PSoC5/HC_Timer_PM.c **** * Return:
 143:.\Generated_Source\PSoC5/HC_Timer_PM.c **** *  void
 144:.\Generated_Source\PSoC5/HC_Timer_PM.c **** *
 145:.\Generated_Source\PSoC5/HC_Timer_PM.c **** * Global variables:
 146:.\Generated_Source\PSoC5/HC_Timer_PM.c **** *  HC_Timer_backup.enableState:  Is used to restore the enable state of
 147:.\Generated_Source\PSoC5/HC_Timer_PM.c **** *  block on wakeup from sleep mode.
 148:.\Generated_Source\PSoC5/HC_Timer_PM.c **** *
 149:.\Generated_Source\PSoC5/HC_Timer_PM.c **** *******************************************************************************/
 150:.\Generated_Source\PSoC5/HC_Timer_PM.c **** void HC_Timer_Wakeup(void) 
 151:.\Generated_Source\PSoC5/HC_Timer_PM.c **** {
 121              		.loc 1 151 0
 122              		.cfi_startproc
 123              		@ args = 0, pretend = 0, frame = 0
 124              		@ frame_needed = 0, uses_anonymous_args = 0
 125 0000 08B5     		push	{r3, lr}
 126              		.cfi_def_cfa_offset 8
 127              		.cfi_offset 3, -8
 128              		.cfi_offset 14, -4
 152:.\Generated_Source\PSoC5/HC_Timer_PM.c ****     HC_Timer_RestoreConfig();
 129              		.loc 1 152 0
 130 0002 FFF7FEFF 		bl	HC_Timer_RestoreConfig
 131              	.LVL4:
 132 0006 08BD     		pop	{r3, pc}
 133              		.cfi_endproc
ARM GAS  C:\Users\xavieran\AppData\Local\Temp\ccBhYMQA.s 			page 6


 134              	.LFE3:
 135              		.size	HC_Timer_Wakeup, .-HC_Timer_Wakeup
 136              		.bss
 137              		.align	2
 138              		.set	.LANCHOR0,. + 0
 139              		.type	HC_Timer_backup, %object
 140              		.size	HC_Timer_backup, 6
 141              	HC_Timer_backup:
 142 0000 00000000 		.space	6
 142      0000
 143 0006 0000     		.text
 144              	.Letext0:
 145              		.file 2 ".\\Generated_Source\\PSoC5\\cytypes.h"
 146              		.file 3 ".\\Generated_Source\\PSoC5\\HC_Timer.h"