ARM GAS  C:\Users\xavieran\AppData\Local\Temp\ccINz7JE.s 			page 1


   1              		.syntax unified
   2              		.cpu cortex-m3
   3              		.fpu softvfp
   4              		.eabi_attribute 20, 1
   5              		.eabi_attribute 21, 1
   6              		.eabi_attribute 23, 3
   7              		.eabi_attribute 24, 1
   8              		.eabi_attribute 25, 1
   9              		.eabi_attribute 26, 1
  10              		.eabi_attribute 30, 1
  11              		.eabi_attribute 34, 1
  12              		.eabi_attribute 18, 4
  13              		.thumb
  14              		.file	"main.c"
  15              		.text
  16              	.Ltext0:
  17              		.cfi_sections	.debug_frame
  18              		.section	.text.print,"ax",%progbits
  19              		.align	2
  20              		.global	print
  21              		.thumb
  22              		.thumb_func
  23              		.type	print, %function
  24              	print:
  25              	.LFB63:
  26              		.file 1 ".\\main.c"
   1:.\main.c      **** /* ========================================
   2:.\main.c      ****  *
   3:.\main.c      ****  * Copyright YOUR COMPANY, THE YEAR
   4:.\main.c      ****  * All Rights Reserved
   5:.\main.c      ****  * UNPUBLISHED, LICENSED SOFTWARE.
   6:.\main.c      ****  *
   7:.\main.c      ****  * CONFIDENTIAL AND PROPRIETARY INFORMATION
   8:.\main.c      ****  * WHICH IS THE PROPERTY OF your company.
   9:.\main.c      ****  *
  10:.\main.c      ****  * ========================================
  11:.\main.c      **** */
  12:.\main.c      **** #include <project.h>
  13:.\main.c      **** #include <stdio.h>
  14:.\main.c      **** #include <stdarg.h>
  15:.\main.c      **** #include <math.h>
  16:.\main.c      **** #include <stdlib.h>
  17:.\main.c      **** 
  18:.\main.c      **** #include <mice.h>
  19:.\main.c      **** #include <mouse_a.h>
  20:.\main.c      **** #include <mouse_b.h>
  21:.\main.c      **** #include <motor.h>
  22:.\main.c      **** #include <navigation.h>
  23:.\main.c      **** #include <buttons.h>
  24:.\main.c      **** #include <compass.h>
  25:.\main.c      **** #include <ultrasonic.h>
  26:.\main.c      **** #include <gripper.h>
  27:.\main.c      **** #include <arm.h>
  28:.\main.c      **** 
  29:.\main.c      **** //this is in navigation.c
  30:.\main.c      **** extern struct Position location;
  31:.\main.c      **** 
ARM GAS  C:\Users\xavieran\AppData\Local\Temp\ccINz7JE.s 			page 2


  32:.\main.c      **** //these are in button.c
  33:.\main.c      **** extern volatile uint8 but0_b;
  34:.\main.c      **** extern volatile uint8 but1_b;
  35:.\main.c      **** 
  36:.\main.c      **** //These are in compass.c
  37:.\main.c      **** extern int16 compass_x;
  38:.\main.c      **** extern int16 compass_y;
  39:.\main.c      **** extern int16 compass_z;
  40:.\main.c      **** extern int16 compass_heading;
  41:.\main.c      **** extern volatile uint8 compass_ready;
  42:.\main.c      **** extern int16 original_compass_heading; //We set this to make the angles relative
  43:.\main.c      **** 
  44:.\main.c      **** //This is in ultrasonic.c
  45:.\main.c      **** extern volatile uint16 ultra_distance;
  46:.\main.c      **** 
  47:.\main.c      **** // print() function, works like snprintf(). See: http://www.cplusplus.com/reference/cstdio/snprintf
  48:.\main.c      **** void print(const char *fmt, ...)
  49:.\main.c      **** {
  27              		.loc 1 49 0
  28              		.cfi_startproc
  29              		@ args = 4, pretend = 16, frame = 72
  30              		@ frame_needed = 0, uses_anonymous_args = 1
  31              	.LVL0:
  32 0000 0FB4     		push	{r0, r1, r2, r3}
  33              		.cfi_def_cfa_offset 16
  34              		.cfi_offset 0, -16
  35              		.cfi_offset 1, -12
  36              		.cfi_offset 2, -8
  37              		.cfi_offset 3, -4
  38 0002 00B5     		push	{lr}
  39              		.cfi_def_cfa_offset 20
  40              		.cfi_offset 14, -20
  41 0004 93B0     		sub	sp, sp, #76
  42              		.cfi_def_cfa_offset 96
  50:.\main.c      ****    if(!USB_GetConfiguration()) return;  // Do nothing if the USB cable is not connected.
  43              		.loc 1 50 0
  44 0006 FFF7FEFF 		bl	USB_GetConfiguration
  45              	.LVL1:
  46 000a 68B1     		cbz	r0, .L1
  51:.\main.c      ****    char buffer[64];
  52:.\main.c      ****    va_list args;
  53:.\main.c      ****    va_start(args, fmt);
  47              		.loc 1 53 0
  48 000c 15AB     		add	r3, sp, #84
  49 000e 0193     		str	r3, [sp, #4]
  54:.\main.c      ****    vsnprintf(buffer, sizeof(buffer), fmt, args);
  50              		.loc 1 54 0
  51 0010 02A8     		add	r0, sp, #8
  52 0012 4021     		movs	r1, #64
  53 0014 149A     		ldr	r2, [sp, #80]
  54 0016 FFF7FEFF 		bl	vsnprintf
  55              	.LVL2:
  56              	.L3:
  55:.\main.c      ****    va_end(args);
  56:.\main.c      ****    while(!USB_CDCIsReady());
  57              		.loc 1 56 0 discriminator 1
  58 001a FFF7FEFF 		bl	USB_CDCIsReady
ARM GAS  C:\Users\xavieran\AppData\Local\Temp\ccINz7JE.s 			page 3


  59              	.LVL3:
  60 001e 0028     		cmp	r0, #0
  61 0020 FBD0     		beq	.L3
  57:.\main.c      ****    USB_PutString(buffer);
  62              		.loc 1 57 0
  63 0022 02A8     		add	r0, sp, #8
  64 0024 FFF7FEFF 		bl	USB_PutString
  65              	.LVL4:
  66              	.L1:
  58:.\main.c      **** }
  67              		.loc 1 58 0
  68 0028 13B0     		add	sp, sp, #76
  69              		@ sp needed
  70 002a 5DF804EB 		ldr	lr, [sp], #4
  71 002e 04B0     		add	sp, sp, #16
  72 0030 7047     		bx	lr
  73              		.cfi_endproc
  74              	.LFE63:
  75              		.size	print, .-print
  76 0032 00BF     		.section	.text.main,"ax",%progbits
  77              		.align	2
  78              		.global	main
  79              		.thumb
  80              		.thumb_func
  81              		.type	main, %function
  82              	main:
  83              	.LFB64:
  59:.\main.c      **** 
  60:.\main.c      **** int main()
  61:.\main.c      **** {
  84              		.loc 1 61 0
  85              		.cfi_startproc
  86              		@ args = 0, pretend = 0, frame = 16
  87              		@ frame_needed = 0, uses_anonymous_args = 0
  88 0000 F0B5     		push	{r4, r5, r6, r7, lr}
  89              		.cfi_def_cfa_offset 20
  90              		.cfi_offset 4, -20
  91              		.cfi_offset 5, -16
  92              		.cfi_offset 6, -12
  93              		.cfi_offset 7, -8
  94              		.cfi_offset 14, -4
  95 0002 87B0     		sub	sp, sp, #28
  96              		.cfi_def_cfa_offset 48
  62:.\main.c      ****     /* ** INITIALIZE COMPONENTS ** */
  63:.\main.c      ****     LCD_Start();
  97              		.loc 1 63 0
  98 0004 FFF7FEFF 		bl	LCD_Start
  99              	.LVL5:
  64:.\main.c      ****     Timer_Start();
 100              		.loc 1 64 0
 101 0008 FFF7FEFF 		bl	Timer_Start
 102              	.LVL6:
  65:.\main.c      ****     //USB_Start(0, USB_DWR_VDDD_OPERATION);
  66:.\main.c      ****     //CyDelay(1000); give camera time to boot up
  67:.\main.c      ****     start_buttons();
 103              		.loc 1 67 0
 104 000c FFF7FEFF 		bl	start_buttons
ARM GAS  C:\Users\xavieran\AppData\Local\Temp\ccINz7JE.s 			page 4


 105              	.LVL7:
  68:.\main.c      ****     start_motors();
 106              		.loc 1 68 0
 107 0010 FFF7FEFF 		bl	start_motors
 108              	.LVL8:
  69:.\main.c      ****     calculate_circular_functions();
 109              		.loc 1 69 0
 110 0014 FFF7FEFF 		bl	calculate_circular_functions
 111              	.LVL9:
  70:.\main.c      ****     start_mice();
 112              		.loc 1 70 0
 113 0018 FFF7FEFF 		bl	start_mice
 114              	.LVL10:
  71:.\main.c      ****     
  72:.\main.c      ****     start_navigation();
 115              		.loc 1 72 0
 116 001c FFF7FEFF 		bl	start_navigation
 117              	.LVL11:
  73:.\main.c      ****     
  74:.\main.c      ****     start_compass();
 118              		.loc 1 74 0
 119 0020 FFF7FEFF 		bl	start_compass
 120              	.LVL12:
  75:.\main.c      ****     start_gripper();
 121              		.loc 1 75 0
 122 0024 FFF7FEFF 		bl	start_gripper
 123              	.LVL13:
  76:.\main.c      ****     start_arm();
 124              		.loc 1 76 0
 125 0028 FFF7FEFF 		bl	start_arm
 126              	.LVL14:
  77:.\main.c      ****     start_ultrasonic();
 127              		.loc 1 77 0
 128 002c FFF7FEFF 		bl	start_ultrasonic
 129              	.LVL15:
  78:.\main.c      ****    
  79:.\main.c      ****     
  80:.\main.c      ****     BLUE_Write(1); //For some bizarre reason the blue led is inverted.??
 130              		.loc 1 80 0
 131 0030 0120     		movs	r0, #1
 132 0032 FFF7FEFF 		bl	BLUE_Write
 133              	.LVL16:
  81:.\main.c      ****     
  82:.\main.c      ****     /* ** DECLARE VARIABLES ** */
  83:.\main.c      ****     char outString[16];  // String to hold the ascii result
  84:.\main.c      ****     uint32 time;
  85:.\main.c      ****     extern volatile int32 loc_y_a;
  86:.\main.c      ****     extern volatile int32 loc_y_b;
  87:.\main.c      ****     CyGlobalIntEnable;
 134              		.loc 1 87 0
 135              	@ 87 ".\main.c" 1
 136 0036 62B6     		CPSIE   i
 137              	@ 0 "" 2
  88:.\main.c      ****     /* INFINITE LOOP */
  89:.\main.c      ****     //Wait for compass to be ready for reading
  90:.\main.c      ****     
  91:.\main.c      ****     //while (!compass_ready){;} //!!! NEED TIMEOUT
ARM GAS  C:\Users\xavieran\AppData\Local\Temp\ccINz7JE.s 			page 5


  92:.\main.c      ****     //compass_read();
  93:.\main.c      ****     //compass_ready = 0;
  94:.\main.c      ****     //int state = 0;
  95:.\main.c      ****     //original_compass_heading = compass_heading;
  96:.\main.c      ****     //setHeading(0);
  97:.\main.c      ****     
  98:.\main.c      ****     LCD_PosPrintString(0,0,"STRATING!!!");
 138              		.loc 1 98 0
 139              		.thumb
 140 0038 0020     		movs	r0, #0
 141 003a 0146     		mov	r1, r0
 142 003c FFF7FEFF 		bl	LCD_Position
 143              	.LVL17:
 144 0040 2F48     		ldr	r0, .L13
 145 0042 FFF7FEFF 		bl	LCD_PrintString
 146              	.LVL18:
  99:.\main.c      ****     uint8 alevel = 0;
 100:.\main.c      ****     uint8 pwmvar = 18;
 101:.\main.c      ****     for(;;)
 102:.\main.c      ****     {   
 103:.\main.c      ****         //Update current time
 104:.\main.c      ****         time = Timer_ReadCounter();
 105:.\main.c      ****         //Read the compass when it is ready for reading
 106:.\main.c      ****         if (compass_ready){
 147              		.loc 1 106 0
 148 0046 2F4E     		ldr	r6, .L13+4
 107:.\main.c      ****             compass_read();
 108:.\main.c      ****             compass_ready = 0;
 109:.\main.c      ****         //    print("%d %d %d\n", compass_x, compass_y, compass_z);
 110:.\main.c      ****         }
 111:.\main.c      ****         
 112:.\main.c      ****         //Update the current position
 113:.\main.c      ****         update_position();
 114:.\main.c      ****         
 115:.\main.c      ****         //Execute any motor control
 116:.\main.c      ****         control_motors();
 117:.\main.c      ****         
 118:.\main.c      ****         
 119:.\main.c      ****         
 120:.\main.c      ****         //Handle buttons
 121:.\main.c      ****         if (but1_b){
 149              		.loc 1 121 0
 150 0048 2F4D     		ldr	r5, .L13+8
 122:.\main.c      ****             but1_b = 0;
 123:.\main.c      ****             loc_y_b = 0;          
 124:.\main.c      ****             //drop_puck(); 
 125:.\main.c      ****             //alevel = (alevel + 1) % 6;
 126:.\main.c      ****             //arm_set_level(alevel);
 127:.\main.c      ****             goto_position(4000,4000);
 128:.\main.c      ****         } else if (but0_b){
 129:.\main.c      ****             but0_b = 0;
 130:.\main.c      ****             loc_y_b = 0;
 131:.\main.c      ****             //pickup_puck();
 132:.\main.c      ****            
 133:.\main.c      ****             //alevel = (alevel + 1) % 6;
 134:.\main.c      ****             //arm_set_level(alevel);
 135:.\main.c      ****             goto_position(0,0);
ARM GAS  C:\Users\xavieran\AppData\Local\Temp\ccINz7JE.s 			page 6


 136:.\main.c      ****         }
 137:.\main.c      ****         
 138:.\main.c      ****         //Print some info to the screen
 139:.\main.c      ****         
 140:.\main.c      ****         if ((time % 1000) == 0){
 151              		.loc 1 140 0
 152 004a 304F     		ldr	r7, .L13+12
 153              	.L12:
 104:.\main.c      ****         time = Timer_ReadCounter();
 154              		.loc 1 104 0
 155 004c FFF7FEFF 		bl	Timer_ReadCounter
 156              	.LVL19:
 157 0050 0446     		mov	r4, r0
 158              	.LVL20:
 106:.\main.c      ****         if (compass_ready){
 159              		.loc 1 106 0
 160 0052 3378     		ldrb	r3, [r6]	@ zero_extendqisi2
 161 0054 13F0FF0F 		tst	r3, #255
 162 0058 03D0     		beq	.L7
 107:.\main.c      ****             compass_read();
 163              		.loc 1 107 0
 164 005a FFF7FEFF 		bl	compass_read
 165              	.LVL21:
 108:.\main.c      ****             compass_ready = 0;
 166              		.loc 1 108 0
 167 005e 0023     		movs	r3, #0
 168 0060 3370     		strb	r3, [r6]
 169              	.L7:
 113:.\main.c      ****         update_position();
 170              		.loc 1 113 0
 171 0062 FFF7FEFF 		bl	update_position
 172              	.LVL22:
 116:.\main.c      ****         control_motors();
 173              		.loc 1 116 0
 174 0066 FFF7FEFF 		bl	control_motors
 175              	.LVL23:
 121:.\main.c      ****         if (but1_b){
 176              		.loc 1 121 0
 177 006a 2B78     		ldrb	r3, [r5]	@ zero_extendqisi2
 178 006c 13F0FF0F 		tst	r3, #255
 179 0070 09D0     		beq	.L8
 122:.\main.c      ****             but1_b = 0;
 180              		.loc 1 122 0
 181 0072 0023     		movs	r3, #0
 182 0074 2B70     		strb	r3, [r5]
 123:.\main.c      ****             loc_y_b = 0;          
 183              		.loc 1 123 0
 184 0076 264A     		ldr	r2, .L13+16
 185 0078 1360     		str	r3, [r2]
 127:.\main.c      ****             goto_position(4000,4000);
 186              		.loc 1 127 0
 187 007a 4FF47A60 		mov	r0, #4000
 188 007e 0146     		mov	r1, r0
 189 0080 FFF7FEFF 		bl	goto_position
 190              	.LVL24:
 191 0084 0CE0     		b	.L9
 192              	.L8:
ARM GAS  C:\Users\xavieran\AppData\Local\Temp\ccINz7JE.s 			page 7


 128:.\main.c      ****         } else if (but0_b){
 193              		.loc 1 128 0
 194 0086 234B     		ldr	r3, .L13+20
 195 0088 1B78     		ldrb	r3, [r3]	@ zero_extendqisi2
 196 008a 13F0FF0F 		tst	r3, #255
 197 008e 07D0     		beq	.L9
 129:.\main.c      ****             but0_b = 0;
 198              		.loc 1 129 0
 199 0090 0021     		movs	r1, #0
 200 0092 204B     		ldr	r3, .L13+20
 201 0094 1970     		strb	r1, [r3]
 130:.\main.c      ****             loc_y_b = 0;
 202              		.loc 1 130 0
 203 0096 1E4B     		ldr	r3, .L13+16
 204 0098 1960     		str	r1, [r3]
 135:.\main.c      ****             goto_position(0,0);
 205              		.loc 1 135 0
 206 009a 0846     		mov	r0, r1
 207 009c FFF7FEFF 		bl	goto_position
 208              	.LVL25:
 209              	.L9:
 210              		.loc 1 140 0
 211 00a0 A7FB0423 		umull	r2, r3, r7, r4
 212 00a4 9B09     		lsrs	r3, r3, #6
 213 00a6 4FF47A72 		mov	r2, #1000
 214 00aa 02FB1343 		mls	r3, r2, r3, r4
 215 00ae 002B     		cmp	r3, #0
 216 00b0 CCD1     		bne	.L12
 141:.\main.c      ****             LCD_ClearDisplay();
 217              		.loc 1 141 0
 218 00b2 0120     		movs	r0, #1
 219 00b4 FFF7FEFF 		bl	LCD_WriteControl
 220              	.LVL26:
 142:.\main.c      ****             sprintf(outString, "ly%ld ry%ld", loc_y_a, loc_y_b);
 221              		.loc 1 142 0
 222 00b8 174B     		ldr	r3, .L13+24
 223 00ba 1A68     		ldr	r2, [r3]
 224 00bc 144B     		ldr	r3, .L13+16
 225 00be 1B68     		ldr	r3, [r3]
 226 00c0 02A8     		add	r0, sp, #8
 227 00c2 1649     		ldr	r1, .L13+28
 228 00c4 FFF7FEFF 		bl	sprintf
 229              	.LVL27:
 143:.\main.c      ****             LCD_PosPrintString(0,0,outString);
 230              		.loc 1 143 0
 231 00c8 0020     		movs	r0, #0
 232 00ca 0146     		mov	r1, r0
 233 00cc FFF7FEFF 		bl	LCD_Position
 234              	.LVL28:
 235 00d0 02A8     		add	r0, sp, #8
 236 00d2 FFF7FEFF 		bl	LCD_PrintString
 237              	.LVL29:
 144:.\main.c      ****             
 145:.\main.c      ****             sprintf(outString, "a%d u%d p%d", compass_heading, ultra_distance, pwmvar);
 238              		.loc 1 145 0
 239 00d6 124B     		ldr	r3, .L13+32
 240 00d8 1B88     		ldrh	r3, [r3]
ARM GAS  C:\Users\xavieran\AppData\Local\Temp\ccINz7JE.s 			page 8


 241 00da 124A     		ldr	r2, .L13+36
 242 00dc B2F90020 		ldrsh	r2, [r2]
 243 00e0 1221     		movs	r1, #18
 244 00e2 0091     		str	r1, [sp]
 245 00e4 02A8     		add	r0, sp, #8
 246 00e6 1049     		ldr	r1, .L13+40
 247 00e8 9BB2     		uxth	r3, r3
 248 00ea FFF7FEFF 		bl	sprintf
 249              	.LVL30:
 146:.\main.c      ****             LCD_PosPrintString(1,0,outString);
 250              		.loc 1 146 0
 251 00ee 0120     		movs	r0, #1
 252 00f0 0021     		movs	r1, #0
 253 00f2 FFF7FEFF 		bl	LCD_Position
 254              	.LVL31:
 255 00f6 02A8     		add	r0, sp, #8
 256 00f8 FFF7FEFF 		bl	LCD_PrintString
 257              	.LVL32:
 258 00fc A6E7     		b	.L12
 259              	.L14:
 260 00fe 00BF     		.align	2
 261              	.L13:
 262 0100 00000000 		.word	.LC0
 263 0104 00000000 		.word	compass_ready
 264 0108 00000000 		.word	but1_b
 265 010c D34D6210 		.word	274877907
 266 0110 00000000 		.word	loc_y_b
 267 0114 00000000 		.word	but0_b
 268 0118 00000000 		.word	loc_y_a
 269 011c 0C000000 		.word	.LC1
 270 0120 00000000 		.word	ultra_distance
 271 0124 00000000 		.word	compass_heading
 272 0128 18000000 		.word	.LC2
 273              		.cfi_endproc
 274              	.LFE64:
 275              		.size	main, .-main
 276              		.comm	OV9650_1_framebuffer,50688,4
 277              		.section	.rodata.str1.4,"aMS",%progbits,1
 278              		.align	2
 279              	.LC0:
 280 0000 53545241 		.ascii	"STRATING!!!\000"
 280      54494E47 
 280      21212100 
 281              	.LC1:
 282 000c 6C79256C 		.ascii	"ly%ld ry%ld\000"
 282      64207279 
 282      256C6400 
 283              	.LC2:
 284 0018 61256420 		.ascii	"a%d u%d p%d\000"
 284      75256420 
 284      70256400 
 285              		.text
 286              	.Letext0:
 287              		.file 2 "c:\\program files (x86)\\cypress\\psoc creator\\3.2\\psoc creator\\import\\gnu\\arm\\4.8.
 288              		.file 3 "c:\\program files (x86)\\cypress\\psoc creator\\3.2\\psoc creator\\import\\gnu\\arm\\4.8.
 289              		.file 4 "Generated_Source\\PSoC5/cytypes.h"
 290              		.file 5 "c:\\program files (x86)\\cypress\\psoc creator\\3.2\\psoc creator\\import\\gnu\\arm\\4.8.
ARM GAS  C:\Users\xavieran\AppData\Local\Temp\ccINz7JE.s 			page 9


 291              		.file 6 "c:\\program files (x86)\\cypress\\psoc creator\\3.2\\psoc creator\\import\\gnu\\arm\\4.8.
 292              		.file 7 "Generated_Source\\PSoC5/core_cm3.h"
 293              		.file 8 "Generated_Source\\PSoC5/OV9650_1.h"
 294              		.file 9 "Generated_Source\\PSoC5/USB.h"
 295              		.file 10 "Generated_Source\\PSoC5/USB_cdc.h"
 296              		.file 11 "Generated_Source\\PSoC5/LCD.h"
 297              		.file 12 "Generated_Source\\PSoC5/Timer.h"
 298              		.file 13 "./motor.h"
 299              		.file 14 "./buttons.h"
 300              		.file 15 "./navigation.h"
 301              		.file 16 "./mice.h"
 302              		.file 17 "./compass.h"
 303              		.file 18 "./gripper.h"
 304              		.file 19 "./arm.h"
 305              		.file 20 "./ultrasonic.h"
 306              		.file 21 "Generated_Source\\PSoC5/BLUE.h"
 307              		.file 22 "c:\\program files (x86)\\cypress\\psoc creator\\3.2\\psoc creator\\import\\gnu\\arm\\4.8
 308              		.file 23 "<built-in>"