ARM GAS  C:\Users\xavieran\AppData\Local\Temp\cchDubsT.s 			page 1


   1              		.syntax unified
   2              		.cpu cortex-m3
   3              		.fpu softvfp
   4              		.eabi_attribute 20, 1
   5              		.eabi_attribute 21, 1
   6              		.eabi_attribute 23, 3
   7              		.eabi_attribute 24, 1
   8              		.eabi_attribute 25, 1
   9              		.eabi_attribute 26, 1
  10              		.eabi_attribute 30, 1
  11              		.eabi_attribute 34, 1
  12              		.eabi_attribute 18, 4
  13              		.thumb
  14              		.file	"mice.c"
  15              		.text
  16              	.Ltext0:
  17              		.cfi_sections	.debug_frame
  18              		.section	.text.start_mice,"ax",%progbits
  19              		.align	2
  20              		.global	start_mice
  21              		.thumb
  22              		.thumb_func
  23              		.type	start_mice, %function
  24              	start_mice:
  25              	.LFB63:
  26              		.file 1 ".\\mice.c"
   1:.\mice.c      **** /* ========================================
   2:.\mice.c      ****  *
   3:.\mice.c      ****  * Copyright YOUR COMPANY, THE YEAR
   4:.\mice.c      ****  * All Rights Reserved
   5:.\mice.c      ****  * UNPUBLISHED, LICENSED SOFTWARE.
   6:.\mice.c      ****  *
   7:.\mice.c      ****  * CONFIDENTIAL AND PROPRIETARY INFORMATION
   8:.\mice.c      ****  * WHICH IS THE PROPERTY OF your company.
   9:.\mice.c      ****  *
  10:.\mice.c      ****  * ========================================
  11:.\mice.c      **** */
  12:.\mice.c      **** 
  13:.\mice.c      **** #include <project.h>
  14:.\mice.c      **** #include <mouse_a.h>
  15:.\mice.c      **** #include <mouse_b.h>
  16:.\mice.c      **** 
  17:.\mice.c      **** void start_mice(){
  27              		.loc 1 17 0
  28              		.cfi_startproc
  29              		@ args = 0, pretend = 0, frame = 0
  30              		@ frame_needed = 0, uses_anonymous_args = 0
  31 0000 08B5     		push	{r3, lr}
  32              		.cfi_def_cfa_offset 8
  33              		.cfi_offset 3, -8
  34              		.cfi_offset 14, -4
  18:.\mice.c      ****     sclk_a_isr_Stop();
  35              		.loc 1 18 0
  36 0002 FFF7FEFF 		bl	sclk_a_isr_Stop
  37              	.LVL0:
  19:.\mice.c      ****     sclk_b_isr_Stop();
  38              		.loc 1 19 0
ARM GAS  C:\Users\xavieran\AppData\Local\Temp\cchDubsT.s 			page 2


  39 0006 FFF7FEFF 		bl	sclk_b_isr_Stop
  40              	.LVL1:
  20:.\mice.c      ****     LCD_PosPrintString(0,0,"INIT MOUSE A");
  41              		.loc 1 20 0
  42 000a 0020     		movs	r0, #0
  43 000c 0146     		mov	r1, r0
  44 000e FFF7FEFF 		bl	LCD_Position
  45              	.LVL2:
  46 0012 1148     		ldr	r0, .L2
  47 0014 FFF7FEFF 		bl	LCD_PrintString
  48              	.LVL3:
  21:.\mice.c      ****     mouse_a_init();
  49              		.loc 1 21 0
  50 0018 FFF7FEFF 		bl	mouse_a_init
  51              	.LVL4:
  22:.\mice.c      ****     LCD_PosPrintString(0,0,"INIT MOUSE B");
  52              		.loc 1 22 0
  53 001c 0020     		movs	r0, #0
  54 001e 0146     		mov	r1, r0
  55 0020 FFF7FEFF 		bl	LCD_Position
  56              	.LVL5:
  57 0024 0D48     		ldr	r0, .L2+4
  58 0026 FFF7FEFF 		bl	LCD_PrintString
  59              	.LVL6:
  23:.\mice.c      ****     mouse_b_init();
  60              		.loc 1 23 0
  61 002a FFF7FEFF 		bl	mouse_b_init
  62              	.LVL7:
  24:.\mice.c      ****     
  25:.\mice.c      ****     reset_sclk_a_isr();
  63              		.loc 1 25 0
  64 002e FFF7FEFF 		bl	reset_sclk_a_isr
  65              	.LVL8:
  26:.\mice.c      ****     reset_sclk_b_isr();
  66              		.loc 1 26 0
  67 0032 FFF7FEFF 		bl	reset_sclk_b_isr
  68              	.LVL9:
  27:.\mice.c      ****     
  28:.\mice.c      ****     SCLK_A_ClearInterrupt();
  69              		.loc 1 28 0
  70 0036 FFF7FEFF 		bl	SCLK_A_ClearInterrupt
  71              	.LVL10:
  29:.\mice.c      ****     SCLK_B_ClearInterrupt();
  72              		.loc 1 29 0
  73 003a FFF7FEFF 		bl	SCLK_B_ClearInterrupt
  74              	.LVL11:
  30:.\mice.c      ****     sclk_a_isr_SetPriority(0);
  75              		.loc 1 30 0
  76 003e 0020     		movs	r0, #0
  77 0040 FFF7FEFF 		bl	sclk_a_isr_SetPriority
  78              	.LVL12:
  31:.\mice.c      ****     sclk_b_isr_SetPriority(0);
  79              		.loc 1 31 0
  80 0044 0020     		movs	r0, #0
  81 0046 FFF7FEFF 		bl	sclk_b_isr_SetPriority
  82              	.LVL13:
  32:.\mice.c      ****     sclk_a_isr_StartEx(MY_SCLK_A_ISR);
ARM GAS  C:\Users\xavieran\AppData\Local\Temp\cchDubsT.s 			page 3


  83              		.loc 1 32 0
  84 004a 0548     		ldr	r0, .L2+8
  85 004c FFF7FEFF 		bl	sclk_a_isr_StartEx
  86              	.LVL14:
  33:.\mice.c      ****     sclk_b_isr_StartEx(MY_SCLK_B_ISR);    
  87              		.loc 1 33 0
  88 0050 0448     		ldr	r0, .L2+12
  89 0052 FFF7FEFF 		bl	sclk_b_isr_StartEx
  90              	.LVL15:
  91 0056 08BD     		pop	{r3, pc}
  92              	.L3:
  93              		.align	2
  94              	.L2:
  95 0058 00000000 		.word	.LC0
  96 005c 10000000 		.word	.LC1
  97 0060 00000000 		.word	MY_SCLK_A_ISR
  98 0064 00000000 		.word	MY_SCLK_B_ISR
  99              		.cfi_endproc
 100              	.LFE63:
 101              		.size	start_mice, .-start_mice
 102              		.section	.text.stop_mice,"ax",%progbits
 103              		.align	2
 104              		.global	stop_mice
 105              		.thumb
 106              		.thumb_func
 107              		.type	stop_mice, %function
 108              	stop_mice:
 109              	.LFB64:
  34:.\mice.c      **** }
  35:.\mice.c      **** 
  36:.\mice.c      **** void stop_mice(){
 110              		.loc 1 36 0
 111              		.cfi_startproc
 112              		@ args = 0, pretend = 0, frame = 0
 113              		@ frame_needed = 0, uses_anonymous_args = 0
 114 0000 08B5     		push	{r3, lr}
 115              		.cfi_def_cfa_offset 8
 116              		.cfi_offset 3, -8
 117              		.cfi_offset 14, -4
  37:.\mice.c      ****     sclk_a_isr_Stop();
 118              		.loc 1 37 0
 119 0002 FFF7FEFF 		bl	sclk_a_isr_Stop
 120              	.LVL16:
  38:.\mice.c      ****     sclk_b_isr_Stop();
 121              		.loc 1 38 0
 122 0006 FFF7FEFF 		bl	sclk_b_isr_Stop
 123              	.LVL17:
 124 000a 08BD     		pop	{r3, pc}
 125              		.cfi_endproc
 126              	.LFE64:
 127              		.size	stop_mice, .-stop_mice
 128              		.comm	Camera_framebuffer,50688,4
 129              		.section	.rodata.str1.4,"aMS",%progbits,1
 130              		.align	2
 131              	.LC0:
 132 0000 494E4954 		.ascii	"INIT MOUSE A\000"
 132      204D4F55 
ARM GAS  C:\Users\xavieran\AppData\Local\Temp\cchDubsT.s 			page 4


 132      53452041 
 132      00
 133 000d 000000   		.space	3
 134              	.LC1:
 135 0010 494E4954 		.ascii	"INIT MOUSE B\000"
 135      204D4F55 
 135      53452042 
 135      00
 136 001d 000000   		.text
 137              	.Letext0:
 138              		.file 2 "c:\\program files (x86)\\cypress\\psoc creator\\3.2\\psoc creator\\import\\gnu\\arm\\4.8.
 139              		.file 3 "c:\\program files (x86)\\cypress\\psoc creator\\3.2\\psoc creator\\import\\gnu\\arm\\4.8.
 140              		.file 4 "Generated_Source\\PSoC5/cytypes.h"
 141              		.file 5 "Generated_Source\\PSoC5/core_cm3.h"
 142              		.file 6 "Generated_Source\\PSoC5/Camera.h"
 143              		.file 7 "Generated_Source\\PSoC5/sclk_a_isr.h"
 144              		.file 8 "Generated_Source\\PSoC5/sclk_b_isr.h"
 145              		.file 9 "Generated_Source\\PSoC5/LCD.h"
 146              		.file 10 "./mouse_a.h"
 147              		.file 11 "./mouse_b.h"
 148              		.file 12 "Generated_Source\\PSoC5/SCLK_A.h"
 149              		.file 13 "Generated_Source\\PSoC5/SCLK_B.h"