ARM GAS  C:\Users\xavieran\AppData\Local\Temp\ccPMGYrc.s 			page 1


   1              		.syntax unified
   2              		.cpu cortex-m3
   3              		.fpu softvfp
   4              		.eabi_attribute 20, 1
   5              		.eabi_attribute 21, 1
   6              		.eabi_attribute 23, 3
   7              		.eabi_attribute 24, 1
   8              		.eabi_attribute 25, 1
   9              		.eabi_attribute 26, 1
  10              		.eabi_attribute 30, 1
  11              		.eabi_attribute 34, 1
  12              		.eabi_attribute 18, 4
  13              		.thumb
  14              		.file	"motor.c"
  15              		.text
  16              	.Ltext0:
  17              		.cfi_sections	.debug_frame
  18              		.section	.text.isRotating,"ax",%progbits
  19              		.align	2
  20              		.global	isRotating
  21              		.thumb
  22              		.thumb_func
  23              		.type	isRotating, %function
  24              	isRotating:
  25              	.LFB63:
  26              		.file 1 ".\\motor.c"
   1:.\motor.c     **** /* ========================================
   2:.\motor.c     ****  *
   3:.\motor.c     ****  * Copyright YOUR COMPANY, THE YEAR
   4:.\motor.c     ****  * All Rights Reserved
   5:.\motor.c     ****  * UNPUBLISHED, LICENSED SOFTWARE.
   6:.\motor.c     ****  *
   7:.\motor.c     ****  * CONFIDENTIAL AND PROPRIETARY INFORMATION
   8:.\motor.c     ****  * WHICH IS THE PROPERTY OF your company.
   9:.\motor.c     ****  *
  10:.\motor.c     ****  * ========================================
  11:.\motor.c     **** */
  12:.\motor.c     **** 
  13:.\motor.c     **** #include <math.h>
  14:.\motor.c     **** 
  15:.\motor.c     **** #include <project.h>
  16:.\motor.c     **** #include <motor.h>
  17:.\motor.c     **** #include <navigation.h>
  18:.\motor.c     **** #include <compass.h>
  19:.\motor.c     **** 
  20:.\motor.c     **** #include <mouse_b.h>
  21:.\motor.c     **** 
  22:.\motor.c     **** int32 desired_distance;
  23:.\motor.c     **** int16 desired_heading;
  24:.\motor.c     **** 
  25:.\motor.c     **** //The position before executing a move to order
  26:.\motor.c     **** int32 start_x;
  27:.\motor.c     **** int32 start_y;
  28:.\motor.c     **** //The position we wish to go to
  29:.\motor.c     **** int32 end_x;
  30:.\motor.c     **** int32 end_y;
  31:.\motor.c     **** 
ARM GAS  C:\Users\xavieran\AppData\Local\Temp\ccPMGYrc.s 			page 2


  32:.\motor.c     **** //Hold the current state of the motors
  33:.\motor.c     **** uint8 motor_state;
  34:.\motor.c     **** uint8 just_arrived;
  35:.\motor.c     **** uint8 currently_rotating;
  36:.\motor.c     **** uint8 isRotating(){
  27              		.loc 1 36 0
  28              		.cfi_startproc
  29              		@ args = 0, pretend = 0, frame = 0
  30              		@ frame_needed = 0, uses_anonymous_args = 0
  31              		@ link register save eliminated.
  37:.\motor.c     ****     return currently_rotating;
  38:.\motor.c     **** }
  32              		.loc 1 38 0
  33 0000 014B     		ldr	r3, .L2
  34 0002 1878     		ldrb	r0, [r3]	@ zero_extendqisi2
  35 0004 7047     		bx	lr
  36              	.L3:
  37 0006 00BF     		.align	2
  38              	.L2:
  39 0008 00000000 		.word	currently_rotating
  40              		.cfi_endproc
  41              	.LFE63:
  42              		.size	isRotating, .-isRotating
  43              		.section	.text.clip,"ax",%progbits
  44              		.align	2
  45              		.global	clip
  46              		.thumb
  47              		.thumb_func
  48              		.type	clip, %function
  49              	clip:
  50              	.LFB64:
  39:.\motor.c     **** 
  40:.\motor.c     **** 
  41:.\motor.c     **** // From compass.c
  42:.\motor.c     **** extern int16 compass_heading;
  43:.\motor.c     **** // From mouse_b.c
  44:.\motor.c     **** extern volatile int32 loc_y_b;
  45:.\motor.c     **** // From navigation.c
  46:.\motor.c     **** extern volatile struct Position location;
  47:.\motor.c     **** extern int32 delta_y_distance; 
  48:.\motor.c     **** 
  49:.\motor.c     **** void rotate_left(int speed);
  50:.\motor.c     **** void rotate_right(int speed);
  51:.\motor.c     **** int16 abs2(int16 val);
  52:.\motor.c     **** 
  53:.\motor.c     **** 
  54:.\motor.c     **** uint8 clip(int lower, int var, int upper){
  51              		.loc 1 54 0
  52              		.cfi_startproc
  53              		@ args = 0, pretend = 0, frame = 0
  54              		@ frame_needed = 0, uses_anonymous_args = 0
  55              		@ link register save eliminated.
  56              	.LVL0:
  55:.\motor.c     ****     if (var > upper){
  57              		.loc 1 55 0
  58 0000 9142     		cmp	r1, r2
  59 0002 01DD     		ble	.L5
ARM GAS  C:\Users\xavieran\AppData\Local\Temp\ccPMGYrc.s 			page 3


  56:.\motor.c     ****         return upper;
  60              		.loc 1 56 0
  61 0004 D0B2     		uxtb	r0, r2
  62              	.LVL1:
  63 0006 7047     		bx	lr
  64              	.LVL2:
  65              	.L5:
  57:.\motor.c     ****     } else if (var < lower) {
  66              		.loc 1 57 0
  67 0008 8142     		cmp	r1, r0
  68 000a 01DA     		bge	.L7
  58:.\motor.c     ****         return lower;
  69              		.loc 1 58 0
  70 000c C0B2     		uxtb	r0, r0
  71              	.LVL3:
  72 000e 7047     		bx	lr
  73              	.LVL4:
  74              	.L7:
  59:.\motor.c     ****     } else {
  60:.\motor.c     ****         return var;
  75              		.loc 1 60 0
  76 0010 C8B2     		uxtb	r0, r1
  77              	.LVL5:
  61:.\motor.c     ****     }
  62:.\motor.c     **** }
  78              		.loc 1 62 0
  79 0012 7047     		bx	lr
  80              		.cfi_endproc
  81              	.LFE64:
  82              		.size	clip, .-clip
  83              		.section	.text.go_forward,"ax",%progbits
  84              		.align	2
  85              		.global	go_forward
  86              		.thumb
  87              		.thumb_func
  88              		.type	go_forward, %function
  89              	go_forward:
  90              	.LFB67:
  63:.\motor.c     **** 
  64:.\motor.c     **** /** This function is to be called every time through the main loop 
  65:.\motor.c     ****  * It will 
  66:.\motor.c     ****  */
  67:.\motor.c     **** void control_motors(){
  68:.\motor.c     ****     /* 
  69:.\motor.c     ****      * Step 1. Correct the heading 
  70:.\motor.c     ****      */
  71:.\motor.c     ****     int heading_error = desired_heading - compass_heading;
  72:.\motor.c     ****     //If the error is greater than 180, there is a shorter way around the unit 
  73:.\motor.c     ****     //this correc tthat
  74:.\motor.c     ****     if (abs(heading_error) > 180){ 
  75:.\motor.c     ****         heading_error = -(desired_heading - (360 - compass_heading));
  76:.\motor.c     ****     }
  77:.\motor.c     ****     // We need to correct the heading if the error is greater than 
  78:.\motor.c     ****     if (abs(heading_error) > HEADING_ERROR_LIMIT){ 
  79:.\motor.c     ****         currently_rotating = 1;
  80:.\motor.c     ****         
  81:.\motor.c     ****         // the actual heading is greater than the desired heading
ARM GAS  C:\Users\xavieran\AppData\Local\Temp\ccPMGYrc.s 			page 4


  82:.\motor.c     ****         if (heading_error < 0){ 
  83:.\motor.c     ****             rotate_left(clip(STALL_SPEED, abs(heading_error)*2, MAX_SPEED));
  84:.\motor.c     ****             WHITE_Write(1);
  85:.\motor.c     ****             ORANGE_Write(0);
  86:.\motor.c     ****         } else {
  87:.\motor.c     ****             rotate_right(clip(STALL_SPEED, abs(heading_error)*2, MAX_SPEED));
  88:.\motor.c     ****             WHITE_Write(0);
  89:.\motor.c     ****             ORANGE_Write(1);
  90:.\motor.c     ****         }
  91:.\motor.c     ****         return;
  92:.\motor.c     ****     }
  93:.\motor.c     ****     
  94:.\motor.c     ****     setCoast(MBOTH);
  95:.\motor.c     ****     
  96:.\motor.c     ****     int distance_error;
  97:.\motor.c     ****     
  98:.\motor.c     ****     switch (motor_state){
  99:.\motor.c     ****         case MOTOR_S_STOPPED:
 100:.\motor.c     ****             break; //Do nothing
 101:.\motor.c     ****         case MOTOR_S_FORWARD:
 102:.\motor.c     ****             distance_error = desired_distance - delta_y_distance;
 103:.\motor.c     ****             if (abs2(distance_error) > MOTOR_FORWARD_ERROR_LIMIT && distance_error > 0){
 104:.\motor.c     ****                 // WHAT HAPPENS IF WE OVERSHOOT? WILL IT GET FASTER AND FASTER GOING AWAY FROM THE 
 105:.\motor.c     ****           //if (abs2(distance_error) > MOTOR_FORWARD_ERROR_LIMIT && distance_error > 1)     
 106:.\motor.c     ****                 setSpeed(MBOTH, clip(STALL_SPEED, abs(delta_y_distance - desired_distance)/2, 255))
 107:.\motor.c     ****                 setForward(MBOTH);
 108:.\motor.c     ****                 currently_rotating = 0;
 109:.\motor.c     ****             } else {
 110:.\motor.c     ****                 setSpeed(MBOTH, 0);
 111:.\motor.c     ****                 setCoast(MBOTH);
 112:.\motor.c     ****                 motor_state = MOTOR_S_STOPPED;
 113:.\motor.c     ****             }
 114:.\motor.c     ****             break;
 115:.\motor.c     ****         case MOTOR_S_BACKWARD:           
 116:.\motor.c     ****             distance_error = desired_distance - delta_y_distance;
 117:.\motor.c     ****             if (abs2(distance_error) > MOTOR_FORWARD_ERROR_LIMIT && distance_error < 0){
 118:.\motor.c     ****                 // WHAT HAPPENS IF OVERSHOOT?
 119:.\motor.c     ****                 setSpeed(MBOTH, clip(STALL_SPEED, abs(delta_y_distance - desired_distance)/2, 255))
 120:.\motor.c     ****                 setReverse(MBOTH);
 121:.\motor.c     ****                 currently_rotating = 0;
 122:.\motor.c     ****             } else {
 123:.\motor.c     ****                 setSpeed(MBOTH, 0);
 124:.\motor.c     ****                 setCoast(MBOTH);
 125:.\motor.c     ****                 motor_state = MOTOR_S_STOPPED;
 126:.\motor.c     ****             }
 127:.\motor.c     ****             break;
 128:.\motor.c     ****             break;
 129:.\motor.c     ****     }
 130:.\motor.c     **** }
 131:.\motor.c     **** 
 132:.\motor.c     **** 
 133:.\motor.c     **** /*
 134:.\motor.c     ****  * Makes the robot drive from current location to the specified x, y position
 135:.\motor.c     ****  */
 136:.\motor.c     **** void goto_position(int32 x, int32 y){
 137:.\motor.c     ****     start_x = location.x;
 138:.\motor.c     ****     start_y = location.y;
ARM GAS  C:\Users\xavieran\AppData\Local\Temp\ccPMGYrc.s 			page 5


 139:.\motor.c     ****     end_x = x;
 140:.\motor.c     ****     end_y = y;
 141:.\motor.c     ****     //Calculate the angle of the line we need to run along
 142:.\motor.c     ****     int32 dx = end_x - start_x;
 143:.\motor.c     ****     int32 dy = end_y - start_y;
 144:.\motor.c     ****     setHeading(atan2((double) dy, (double) dx) * 180.0/M_PI + 180.0);
 145:.\motor.c     **** }
 146:.\motor.c     **** 
 147:.\motor.c     **** 
 148:.\motor.c     **** /* 
 149:.\motor.c     ****  * Makes the robot drive forward *distance* centimeters
 150:.\motor.c     ****  */
 151:.\motor.c     **** void go_forward(int32 distance){
  91              		.loc 1 151 0
  92              		.cfi_startproc
  93              		@ args = 0, pretend = 0, frame = 0
  94              		@ frame_needed = 0, uses_anonymous_args = 0
  95              	.LVL6:
  96 0000 10B5     		push	{r4, lr}
  97              		.cfi_def_cfa_offset 8
  98              		.cfi_offset 4, -8
  99              		.cfi_offset 14, -4
 100 0002 0446     		mov	r4, r0
 152:.\motor.c     ****     reset_delta_y_distance();
 101              		.loc 1 152 0
 102 0004 FFF7FEFF 		bl	reset_delta_y_distance
 103              	.LVL7:
 153:.\motor.c     ****     desired_distance = distance;
 104              		.loc 1 153 0
 105 0008 024B     		ldr	r3, .L9
 106 000a 1C60     		str	r4, [r3]
 154:.\motor.c     ****     motor_state = MOTOR_S_FORWARD;
 107              		.loc 1 154 0
 108 000c 0222     		movs	r2, #2
 109 000e 024B     		ldr	r3, .L9+4
 110 0010 1A70     		strb	r2, [r3]
 111 0012 10BD     		pop	{r4, pc}
 112              	.LVL8:
 113              	.L10:
 114              		.align	2
 115              	.L9:
 116 0014 00000000 		.word	desired_distance
 117 0018 00000000 		.word	motor_state
 118              		.cfi_endproc
 119              	.LFE67:
 120              		.size	go_forward, .-go_forward
 121              		.section	.text.go_backward,"ax",%progbits
 122              		.align	2
 123              		.global	go_backward
 124              		.thumb
 125              		.thumb_func
 126              		.type	go_backward, %function
 127              	go_backward:
 128              	.LFB68:
 155:.\motor.c     **** }
 156:.\motor.c     **** 
 157:.\motor.c     **** /*
ARM GAS  C:\Users\xavieran\AppData\Local\Temp\ccPMGYrc.s 			page 6


 158:.\motor.c     ****  * Makes the robot drive backward *distance* centimeters
 159:.\motor.c     ****  */
 160:.\motor.c     **** void go_backward(int32 distance){
 129              		.loc 1 160 0
 130              		.cfi_startproc
 131              		@ args = 0, pretend = 0, frame = 0
 132              		@ frame_needed = 0, uses_anonymous_args = 0
 133              	.LVL9:
 134 0000 10B5     		push	{r4, lr}
 135              		.cfi_def_cfa_offset 8
 136              		.cfi_offset 4, -8
 137              		.cfi_offset 14, -4
 138 0002 0446     		mov	r4, r0
 161:.\motor.c     ****     reset_delta_y_distance();
 139              		.loc 1 161 0
 140 0004 FFF7FEFF 		bl	reset_delta_y_distance
 141              	.LVL10:
 162:.\motor.c     ****     desired_distance = distance;
 142              		.loc 1 162 0
 143 0008 024B     		ldr	r3, .L12
 144 000a 1C60     		str	r4, [r3]
 163:.\motor.c     ****     motor_state = MOTOR_S_BACKWARD;
 145              		.loc 1 163 0
 146 000c 0322     		movs	r2, #3
 147 000e 024B     		ldr	r3, .L12+4
 148 0010 1A70     		strb	r2, [r3]
 149 0012 10BD     		pop	{r4, pc}
 150              	.LVL11:
 151              	.L13:
 152              		.align	2
 153              	.L12:
 154 0014 00000000 		.word	desired_distance
 155 0018 00000000 		.word	motor_state
 156              		.cfi_endproc
 157              	.LFE68:
 158              		.size	go_backward, .-go_backward
 159              		.section	.text.rotate_degrees,"ax",%progbits
 160              		.align	2
 161              		.global	rotate_degrees
 162              		.thumb
 163              		.thumb_func
 164              		.type	rotate_degrees, %function
 165              	rotate_degrees:
 166              	.LFB69:
 164:.\motor.c     **** }
 165:.\motor.c     **** 
 166:.\motor.c     **** /*
 167:.\motor.c     ****  * Makes the robot rotate *angle* degrees.
 168:.\motor.c     ****  * angle > 0 rotates right, angle < 0 rotates left
 169:.\motor.c     ****  */
 170:.\motor.c     **** void rotate_degrees(int16 angle){
 167              		.loc 1 170 0
 168              		.cfi_startproc
 169              		@ args = 0, pretend = 0, frame = 0
 170              		@ frame_needed = 0, uses_anonymous_args = 0
 171              		@ link register save eliminated.
 172              	.LVL12:
ARM GAS  C:\Users\xavieran\AppData\Local\Temp\ccPMGYrc.s 			page 7


 171:.\motor.c     ****     desired_heading += angle;
 173              		.loc 1 171 0
 174 0000 0B4A     		ldr	r2, .L17
 175 0002 1388     		ldrh	r3, [r2]
 176 0004 1844     		add	r0, r0, r3
 177              	.LVL13:
 178 0006 80B2     		uxth	r0, r0
 179 0008 83B2     		uxth	r3, r0
 180 000a 1380     		strh	r3, [r2]	@ movhi
 172:.\motor.c     ****     if (desired_heading > 360){
 181              		.loc 1 172 0
 182 000c 1AB2     		sxth	r2, r3
 183 000e B2F5B47F 		cmp	r2, #360
 184 0012 04DD     		ble	.L15
 173:.\motor.c     ****         desired_heading -= 360;
 185              		.loc 1 173 0
 186 0014 A0F5B470 		sub	r0, r0, #360
 187 0018 054B     		ldr	r3, .L17
 188 001a 1880     		strh	r0, [r3]	@ movhi
 189 001c 7047     		bx	lr
 190              	.L15:
 174:.\motor.c     ****     } else if (desired_heading < 0){
 191              		.loc 1 174 0
 192 001e 13F4004F 		tst	r3, #32768
 193 0022 03D0     		beq	.L14
 175:.\motor.c     ****         desired_heading += 360;
 194              		.loc 1 175 0
 195 0024 00F5B470 		add	r0, r0, #360
 196 0028 014B     		ldr	r3, .L17
 197 002a 1880     		strh	r0, [r3]	@ movhi
 198              	.L14:
 199 002c 7047     		bx	lr
 200              	.L18:
 201 002e 00BF     		.align	2
 202              	.L17:
 203 0030 00000000 		.word	desired_heading
 204              		.cfi_endproc
 205              	.LFE69:
 206              		.size	rotate_degrees, .-rotate_degrees
 207              		.section	.text.setHeading,"ax",%progbits
 208              		.align	2
 209              		.global	setHeading
 210              		.thumb
 211              		.thumb_func
 212              		.type	setHeading, %function
 213              	setHeading:
 214              	.LFB70:
 176:.\motor.c     ****     }
 177:.\motor.c     **** }
 178:.\motor.c     **** 
 179:.\motor.c     **** /* 
 180:.\motor.c     ****  * Sets the robots heading to *new_heading*
 181:.\motor.c     ****  */
 182:.\motor.c     **** void setHeading(int16 new_heading){
 215              		.loc 1 182 0
 216              		.cfi_startproc
 217              		@ args = 0, pretend = 0, frame = 0
ARM GAS  C:\Users\xavieran\AppData\Local\Temp\ccPMGYrc.s 			page 8


 218              		@ frame_needed = 0, uses_anonymous_args = 0
 219              		@ link register save eliminated.
 220              	.LVL14:
 183:.\motor.c     ****     desired_heading = new_heading;
 221              		.loc 1 183 0
 222 0000 014B     		ldr	r3, .L20
 223 0002 1880     		strh	r0, [r3]	@ movhi
 224 0004 7047     		bx	lr
 225              	.L21:
 226 0006 00BF     		.align	2
 227              	.L20:
 228 0008 00000000 		.word	desired_heading
 229              		.cfi_endproc
 230              	.LFE70:
 231              		.size	setHeading, .-setHeading
 232              		.global	__aeabi_i2d
 233              		.global	__aeabi_dmul
 234              		.global	__aeabi_ddiv
 235              		.global	__aeabi_dadd
 236              		.global	__aeabi_d2iz
 237              		.section	.text.goto_position,"ax",%progbits
 238              		.align	2
 239              		.global	goto_position
 240              		.thumb
 241              		.thumb_func
 242              		.type	goto_position, %function
 243              	goto_position:
 244              	.LFB66:
 136:.\motor.c     **** void goto_position(int32 x, int32 y){
 245              		.loc 1 136 0
 246              		.cfi_startproc
 247              		@ args = 0, pretend = 0, frame = 0
 248              		@ frame_needed = 0, uses_anonymous_args = 0
 249              	.LVL15:
 250 0000 70B5     		push	{r4, r5, r6, lr}
 251              		.cfi_def_cfa_offset 16
 252              		.cfi_offset 4, -16
 253              		.cfi_offset 5, -12
 254              		.cfi_offset 6, -8
 255              		.cfi_offset 14, -4
 137:.\motor.c     ****     start_x = location.x;
 256              		.loc 1 137 0
 257 0002 194B     		ldr	r3, .L23+8
 258 0004 1A68     		ldr	r2, [r3]
 259 0006 194C     		ldr	r4, .L23+12
 260 0008 2260     		str	r2, [r4]
 138:.\motor.c     ****     start_y = location.y;
 261              		.loc 1 138 0
 262 000a 5B68     		ldr	r3, [r3, #4]
 263 000c 184C     		ldr	r4, .L23+16
 264 000e 2360     		str	r3, [r4]
 139:.\motor.c     ****     end_x = x;
 265              		.loc 1 139 0
 266 0010 184C     		ldr	r4, .L23+20
 267 0012 2060     		str	r0, [r4]
 140:.\motor.c     ****     end_y = y;
 268              		.loc 1 140 0
ARM GAS  C:\Users\xavieran\AppData\Local\Temp\ccPMGYrc.s 			page 9


 269 0014 184C     		ldr	r4, .L23+24
 270 0016 2160     		str	r1, [r4]
 142:.\motor.c     ****     int32 dx = end_x - start_x;
 271              		.loc 1 142 0
 272 0018 861A     		subs	r6, r0, r2
 273              	.LVL16:
 144:.\motor.c     ****     setHeading(atan2((double) dy, (double) dx) * 180.0/M_PI + 180.0);
 274              		.loc 1 144 0
 275 001a C81A     		subs	r0, r1, r3
 276              	.LVL17:
 277 001c FFF7FEFF 		bl	__aeabi_i2d
 278              	.LVL18:
 279 0020 0446     		mov	r4, r0
 280 0022 0D46     		mov	r5, r1
 281 0024 3046     		mov	r0, r6
 282 0026 FFF7FEFF 		bl	__aeabi_i2d
 283              	.LVL19:
 284 002a 0246     		mov	r2, r0
 285 002c 0B46     		mov	r3, r1
 286 002e 2046     		mov	r0, r4
 287 0030 2946     		mov	r1, r5
 288 0032 FFF7FEFF 		bl	atan2
 289              	.LVL20:
 290 0036 0022     		movs	r2, #0
 291 0038 104B     		ldr	r3, .L23+28
 292 003a FFF7FEFF 		bl	__aeabi_dmul
 293              	.LVL21:
 294 003e 08A3     		adr	r3, .L23
 295 0040 D3E90023 		ldrd	r2, [r3]
 296 0044 FFF7FEFF 		bl	__aeabi_ddiv
 297              	.LVL22:
 298 0048 0022     		movs	r2, #0
 299 004a 0C4B     		ldr	r3, .L23+28
 300 004c FFF7FEFF 		bl	__aeabi_dadd
 301              	.LVL23:
 302 0050 FFF7FEFF 		bl	__aeabi_d2iz
 303              	.LVL24:
 304 0054 00B2     		sxth	r0, r0
 305 0056 FFF7FEFF 		bl	setHeading
 306              	.LVL25:
 307 005a 70BD     		pop	{r4, r5, r6, pc}
 308              	.LVL26:
 309              	.L24:
 310 005c AFF30080 		.align	3
 311              	.L23:
 312 0060 182D4454 		.word	1413754136
 313 0064 FB210940 		.word	1074340347
 314 0068 00000000 		.word	location
 315 006c 00000000 		.word	start_x
 316 0070 00000000 		.word	start_y
 317 0074 00000000 		.word	end_x
 318 0078 00000000 		.word	end_y
 319 007c 00806640 		.word	1080459264
 320              		.cfi_endproc
 321              	.LFE66:
 322              		.size	goto_position, .-goto_position
 323              		.section	.text.start_motors,"ax",%progbits
ARM GAS  C:\Users\xavieran\AppData\Local\Temp\ccPMGYrc.s 			page 10


 324              		.align	2
 325              		.global	start_motors
 326              		.thumb
 327              		.thumb_func
 328              		.type	start_motors, %function
 329              	start_motors:
 330              	.LFB73:
 184:.\motor.c     **** }
 185:.\motor.c     **** 
 186:.\motor.c     **** 
 187:.\motor.c     **** /* 
 188:.\motor.c     ****  * Sets the motors to rotate the robot left
 189:.\motor.c     ****  */
 190:.\motor.c     **** void rotate_left(int speed){
 191:.\motor.c     ****     setForward(MRIGHT);
 192:.\motor.c     ****     setReverse(MLEFT);
 193:.\motor.c     ****     setSpeed(MBOTH, speed);
 194:.\motor.c     **** }
 195:.\motor.c     **** 
 196:.\motor.c     **** /*
 197:.\motor.c     ****  * Sets the motors to rotate the robot right at *speed*
 198:.\motor.c     ****  */
 199:.\motor.c     **** void rotate_right(int speed){
 200:.\motor.c     ****     setForward(MLEFT);
 201:.\motor.c     ****     setReverse(MRIGHT);
 202:.\motor.c     ****     setSpeed(MBOTH, speed);
 203:.\motor.c     **** }
 204:.\motor.c     **** 
 205:.\motor.c     **** 
 206:.\motor.c     **** /*
 207:.\motor.c     ****  * Initializes the motor PWM modules and sets the motors to stopped
 208:.\motor.c     ****  */
 209:.\motor.c     **** void start_motors(){
 331              		.loc 1 209 0
 332              		.cfi_startproc
 333              		@ args = 0, pretend = 0, frame = 0
 334              		@ frame_needed = 0, uses_anonymous_args = 0
 335 0000 08B5     		push	{r3, lr}
 336              		.cfi_def_cfa_offset 8
 337              		.cfi_offset 3, -8
 338              		.cfi_offset 14, -4
 210:.\motor.c     ****     MOTOR_L_Start();
 339              		.loc 1 210 0
 340 0002 FFF7FEFF 		bl	MOTOR_L_Start
 341              	.LVL27:
 211:.\motor.c     ****     MLIN1_Write(0);
 342              		.loc 1 211 0
 343 0006 0020     		movs	r0, #0
 344 0008 FFF7FEFF 		bl	MLIN1_Write
 345              	.LVL28:
 212:.\motor.c     ****     MLIN2_Write(0);
 346              		.loc 1 212 0
 347 000c 0020     		movs	r0, #0
 348 000e FFF7FEFF 		bl	MLIN2_Write
 349              	.LVL29:
 213:.\motor.c     ****     MOTOR_L_WriteCompare(0);
 350              		.loc 1 213 0
ARM GAS  C:\Users\xavieran\AppData\Local\Temp\ccPMGYrc.s 			page 11


 351 0012 0020     		movs	r0, #0
 352 0014 FFF7FEFF 		bl	MOTOR_L_WriteCompare
 353              	.LVL30:
 214:.\motor.c     ****        
 215:.\motor.c     ****     MOTOR_R_Start();
 354              		.loc 1 215 0
 355 0018 FFF7FEFF 		bl	MOTOR_R_Start
 356              	.LVL31:
 216:.\motor.c     ****     MRIN1_Write(0);
 357              		.loc 1 216 0
 358 001c 0020     		movs	r0, #0
 359 001e FFF7FEFF 		bl	MRIN1_Write
 360              	.LVL32:
 217:.\motor.c     ****     MRIN2_Write(0);
 361              		.loc 1 217 0
 362 0022 0020     		movs	r0, #0
 363 0024 FFF7FEFF 		bl	MRIN2_Write
 364              	.LVL33:
 218:.\motor.c     ****     MOTOR_R_WriteCompare(0);
 365              		.loc 1 218 0
 366 0028 0020     		movs	r0, #0
 367 002a FFF7FEFF 		bl	MOTOR_R_WriteCompare
 368              	.LVL34:
 369 002e 08BD     		pop	{r3, pc}
 370              		.cfi_endproc
 371              	.LFE73:
 372              		.size	start_motors, .-start_motors
 373              		.section	.text.setSpeed,"ax",%progbits
 374              		.align	2
 375              		.global	setSpeed
 376              		.thumb
 377              		.thumb_func
 378              		.type	setSpeed, %function
 379              	setSpeed:
 380              	.LFB74:
 219:.\motor.c     **** }
 220:.\motor.c     **** 
 221:.\motor.c     **** 
 222:.\motor.c     **** /*
 223:.\motor.c     ****  * Set *motor* speed to *speed*
 224:.\motor.c     ****  * Speed between 0 and 255. Note that the motors won't start to actually push
 225:.\motor.c     ****  * the robot forward til around 100
 226:.\motor.c     ****  */ 
 227:.\motor.c     **** void setSpeed(uint8 motor, uint8 speed){
 381              		.loc 1 227 0
 382              		.cfi_startproc
 383              		@ args = 0, pretend = 0, frame = 0
 384              		@ frame_needed = 0, uses_anonymous_args = 0
 385              	.LVL35:
 386 0000 38B5     		push	{r3, r4, r5, lr}
 387              		.cfi_def_cfa_offset 16
 388              		.cfi_offset 3, -16
 389              		.cfi_offset 4, -12
 390              		.cfi_offset 5, -8
 391              		.cfi_offset 14, -4
 392 0002 0446     		mov	r4, r0
 393 0004 0D46     		mov	r5, r1
ARM GAS  C:\Users\xavieran\AppData\Local\Temp\ccPMGYrc.s 			page 12


 228:.\motor.c     ****     /* Set bit 1 of motor to select motor 1 
 229:.\motor.c     ****      * Set bit 2 of motor to select motor 2
 230:.\motor.c     ****      */
 231:.\motor.c     ****     if (motor & MLEFT){ //Slow down the left motor because it tends to be faster
 394              		.loc 1 231 0
 395 0006 10F0010F 		tst	r0, #1
 396 000a 02D0     		beq	.L27
 232:.\motor.c     ****         MOTOR_L_WriteCompare(speed - LEFT_MOTOR_SPEED_CORRECTION);
 397              		.loc 1 232 0
 398 000c 0846     		mov	r0, r1
 399              	.LVL36:
 400 000e FFF7FEFF 		bl	MOTOR_L_WriteCompare
 401              	.LVL37:
 402              	.L27:
 233:.\motor.c     ****     }
 234:.\motor.c     ****     
 235:.\motor.c     ****     if (motor & MRIGHT){
 403              		.loc 1 235 0
 404 0012 14F0020F 		tst	r4, #2
 405 0016 02D0     		beq	.L26
 236:.\motor.c     ****         MOTOR_R_WriteCompare(speed);
 406              		.loc 1 236 0
 407 0018 2846     		mov	r0, r5
 408 001a FFF7FEFF 		bl	MOTOR_R_WriteCompare
 409              	.LVL38:
 410              	.L26:
 411 001e 38BD     		pop	{r3, r4, r5, pc}
 412              		.cfi_endproc
 413              	.LFE74:
 414              		.size	setSpeed, .-setSpeed
 415              		.section	.text.setCoast,"ax",%progbits
 416              		.align	2
 417              		.global	setCoast
 418              		.thumb
 419              		.thumb_func
 420              		.type	setCoast, %function
 421              	setCoast:
 422              	.LFB75:
 237:.\motor.c     ****     }
 238:.\motor.c     **** }
 239:.\motor.c     **** 
 240:.\motor.c     **** 
 241:.\motor.c     **** /*
 242:.\motor.c     ****  * Set *motor* to coast
 243:.\motor.c     ****  */ 
 244:.\motor.c     **** void setCoast(uint8 motor){
 423              		.loc 1 244 0
 424              		.cfi_startproc
 425              		@ args = 0, pretend = 0, frame = 0
 426              		@ frame_needed = 0, uses_anonymous_args = 0
 427              	.LVL39:
 428 0000 10B5     		push	{r4, lr}
 429              		.cfi_def_cfa_offset 8
 430              		.cfi_offset 4, -8
 431              		.cfi_offset 14, -4
 432 0002 0446     		mov	r4, r0
 245:.\motor.c     ****         if (motor & MLEFT){
ARM GAS  C:\Users\xavieran\AppData\Local\Temp\ccPMGYrc.s 			page 13


 433              		.loc 1 245 0
 434 0004 10F0010F 		tst	r0, #1
 435 0008 05D0     		beq	.L30
 246:.\motor.c     ****         MLIN1_Write(0);
 436              		.loc 1 246 0
 437 000a 0020     		movs	r0, #0
 438              	.LVL40:
 439 000c FFF7FEFF 		bl	MLIN1_Write
 440              	.LVL41:
 247:.\motor.c     ****         MLIN2_Write(0);
 441              		.loc 1 247 0
 442 0010 0020     		movs	r0, #0
 443 0012 FFF7FEFF 		bl	MLIN2_Write
 444              	.LVL42:
 445              	.L30:
 248:.\motor.c     ****     }
 249:.\motor.c     ****     
 250:.\motor.c     ****     if (motor & MRIGHT){
 446              		.loc 1 250 0
 447 0016 14F0020F 		tst	r4, #2
 448 001a 05D0     		beq	.L29
 251:.\motor.c     ****         MRIN1_Write(0);
 449              		.loc 1 251 0
 450 001c 0020     		movs	r0, #0
 451 001e FFF7FEFF 		bl	MRIN1_Write
 452              	.LVL43:
 252:.\motor.c     ****         MRIN2_Write(0);
 453              		.loc 1 252 0
 454 0022 0020     		movs	r0, #0
 455 0024 FFF7FEFF 		bl	MRIN2_Write
 456              	.LVL44:
 457              	.L29:
 458 0028 10BD     		pop	{r4, pc}
 459              		.cfi_endproc
 460              	.LFE75:
 461              		.size	setCoast, .-setCoast
 462 002a 00BF     		.section	.text.setForward,"ax",%progbits
 463              		.align	2
 464              		.global	setForward
 465              		.thumb
 466              		.thumb_func
 467              		.type	setForward, %function
 468              	setForward:
 469              	.LFB76:
 253:.\motor.c     ****     }
 254:.\motor.c     **** }
 255:.\motor.c     **** 
 256:.\motor.c     **** 
 257:.\motor.c     **** /*
 258:.\motor.c     ****  * Set *motor* to forward drive
 259:.\motor.c     ****  */ 
 260:.\motor.c     **** void setForward(uint8 motor){
 470              		.loc 1 260 0
 471              		.cfi_startproc
 472              		@ args = 0, pretend = 0, frame = 0
 473              		@ frame_needed = 0, uses_anonymous_args = 0
 474              	.LVL45:
ARM GAS  C:\Users\xavieran\AppData\Local\Temp\ccPMGYrc.s 			page 14


 475 0000 10B5     		push	{r4, lr}
 476              		.cfi_def_cfa_offset 8
 477              		.cfi_offset 4, -8
 478              		.cfi_offset 14, -4
 479 0002 0446     		mov	r4, r0
 261:.\motor.c     ****     if (motor & MLEFT){
 480              		.loc 1 261 0
 481 0004 10F0010F 		tst	r0, #1
 482 0008 05D0     		beq	.L33
 262:.\motor.c     ****         MLIN1_Write(1);
 483              		.loc 1 262 0
 484 000a 0120     		movs	r0, #1
 485              	.LVL46:
 486 000c FFF7FEFF 		bl	MLIN1_Write
 487              	.LVL47:
 263:.\motor.c     ****         MLIN2_Write(0);
 488              		.loc 1 263 0
 489 0010 0020     		movs	r0, #0
 490 0012 FFF7FEFF 		bl	MLIN2_Write
 491              	.LVL48:
 492              	.L33:
 264:.\motor.c     ****     }
 265:.\motor.c     ****     
 266:.\motor.c     ****     if (motor & MRIGHT){
 493              		.loc 1 266 0
 494 0016 14F0020F 		tst	r4, #2
 495 001a 05D0     		beq	.L32
 267:.\motor.c     ****         MRIN1_Write(1);
 496              		.loc 1 267 0
 497 001c 0120     		movs	r0, #1
 498 001e FFF7FEFF 		bl	MRIN1_Write
 499              	.LVL49:
 268:.\motor.c     ****         MRIN2_Write(0);
 500              		.loc 1 268 0
 501 0022 0020     		movs	r0, #0
 502 0024 FFF7FEFF 		bl	MRIN2_Write
 503              	.LVL50:
 504              	.L32:
 505 0028 10BD     		pop	{r4, pc}
 506              		.cfi_endproc
 507              	.LFE76:
 508              		.size	setForward, .-setForward
 509 002a 00BF     		.section	.text.setReverse,"ax",%progbits
 510              		.align	2
 511              		.global	setReverse
 512              		.thumb
 513              		.thumb_func
 514              		.type	setReverse, %function
 515              	setReverse:
 516              	.LFB77:
 269:.\motor.c     ****     }
 270:.\motor.c     **** }
 271:.\motor.c     **** 
 272:.\motor.c     **** /*
 273:.\motor.c     ****  * Set *motor* to reverse drive
 274:.\motor.c     ****  */ 
 275:.\motor.c     **** void setReverse(uint8 motor){
ARM GAS  C:\Users\xavieran\AppData\Local\Temp\ccPMGYrc.s 			page 15


 517              		.loc 1 275 0
 518              		.cfi_startproc
 519              		@ args = 0, pretend = 0, frame = 0
 520              		@ frame_needed = 0, uses_anonymous_args = 0
 521              	.LVL51:
 522 0000 10B5     		push	{r4, lr}
 523              		.cfi_def_cfa_offset 8
 524              		.cfi_offset 4, -8
 525              		.cfi_offset 14, -4
 526 0002 0446     		mov	r4, r0
 276:.\motor.c     ****     if (motor & MLEFT){
 527              		.loc 1 276 0
 528 0004 10F0010F 		tst	r0, #1
 529 0008 05D0     		beq	.L36
 277:.\motor.c     ****         MLIN1_Write(0);
 530              		.loc 1 277 0
 531 000a 0020     		movs	r0, #0
 532              	.LVL52:
 533 000c FFF7FEFF 		bl	MLIN1_Write
 534              	.LVL53:
 278:.\motor.c     ****         MLIN2_Write(1);
 535              		.loc 1 278 0
 536 0010 0120     		movs	r0, #1
 537 0012 FFF7FEFF 		bl	MLIN2_Write
 538              	.LVL54:
 539              	.L36:
 279:.\motor.c     ****     }
 280:.\motor.c     ****     
 281:.\motor.c     ****     if (motor & MRIGHT){
 540              		.loc 1 281 0
 541 0016 14F0020F 		tst	r4, #2
 542 001a 05D0     		beq	.L35
 282:.\motor.c     ****         MRIN1_Write(0);
 543              		.loc 1 282 0
 544 001c 0020     		movs	r0, #0
 545 001e FFF7FEFF 		bl	MRIN1_Write
 546              	.LVL55:
 283:.\motor.c     ****         MRIN2_Write(1);
 547              		.loc 1 283 0
 548 0022 0120     		movs	r0, #1
 549 0024 FFF7FEFF 		bl	MRIN2_Write
 550              	.LVL56:
 551              	.L35:
 552 0028 10BD     		pop	{r4, pc}
 553              		.cfi_endproc
 554              	.LFE77:
 555              		.size	setReverse, .-setReverse
 556 002a 00BF     		.section	.text.rotate_left,"ax",%progbits
 557              		.align	2
 558              		.global	rotate_left
 559              		.thumb
 560              		.thumb_func
 561              		.type	rotate_left, %function
 562              	rotate_left:
 563              	.LFB71:
 190:.\motor.c     **** void rotate_left(int speed){
 564              		.loc 1 190 0
ARM GAS  C:\Users\xavieran\AppData\Local\Temp\ccPMGYrc.s 			page 16


 565              		.cfi_startproc
 566              		@ args = 0, pretend = 0, frame = 0
 567              		@ frame_needed = 0, uses_anonymous_args = 0
 568              	.LVL57:
 569 0000 10B5     		push	{r4, lr}
 570              		.cfi_def_cfa_offset 8
 571              		.cfi_offset 4, -8
 572              		.cfi_offset 14, -4
 573 0002 0446     		mov	r4, r0
 191:.\motor.c     ****     setForward(MRIGHT);
 574              		.loc 1 191 0
 575 0004 0220     		movs	r0, #2
 576              	.LVL58:
 577 0006 FFF7FEFF 		bl	setForward
 578              	.LVL59:
 192:.\motor.c     ****     setReverse(MLEFT);
 579              		.loc 1 192 0
 580 000a 0120     		movs	r0, #1
 581 000c FFF7FEFF 		bl	setReverse
 582              	.LVL60:
 193:.\motor.c     ****     setSpeed(MBOTH, speed);
 583              		.loc 1 193 0
 584 0010 0320     		movs	r0, #3
 585 0012 E1B2     		uxtb	r1, r4
 586 0014 FFF7FEFF 		bl	setSpeed
 587              	.LVL61:
 588 0018 10BD     		pop	{r4, pc}
 589              		.cfi_endproc
 590              	.LFE71:
 591              		.size	rotate_left, .-rotate_left
 592 001a 00BF     		.section	.text.rotate_right,"ax",%progbits
 593              		.align	2
 594              		.global	rotate_right
 595              		.thumb
 596              		.thumb_func
 597              		.type	rotate_right, %function
 598              	rotate_right:
 599              	.LFB72:
 199:.\motor.c     **** void rotate_right(int speed){
 600              		.loc 1 199 0
 601              		.cfi_startproc
 602              		@ args = 0, pretend = 0, frame = 0
 603              		@ frame_needed = 0, uses_anonymous_args = 0
 604              	.LVL62:
 605 0000 10B5     		push	{r4, lr}
 606              		.cfi_def_cfa_offset 8
 607              		.cfi_offset 4, -8
 608              		.cfi_offset 14, -4
 609 0002 0446     		mov	r4, r0
 200:.\motor.c     ****     setForward(MLEFT);
 610              		.loc 1 200 0
 611 0004 0120     		movs	r0, #1
 612              	.LVL63:
 613 0006 FFF7FEFF 		bl	setForward
 614              	.LVL64:
 201:.\motor.c     ****     setReverse(MRIGHT);
 615              		.loc 1 201 0
ARM GAS  C:\Users\xavieran\AppData\Local\Temp\ccPMGYrc.s 			page 17


 616 000a 0220     		movs	r0, #2
 617 000c FFF7FEFF 		bl	setReverse
 618              	.LVL65:
 202:.\motor.c     ****     setSpeed(MBOTH, speed);
 619              		.loc 1 202 0
 620 0010 0320     		movs	r0, #3
 621 0012 E1B2     		uxtb	r1, r4
 622 0014 FFF7FEFF 		bl	setSpeed
 623              	.LVL66:
 624 0018 10BD     		pop	{r4, pc}
 625              		.cfi_endproc
 626              	.LFE72:
 627              		.size	rotate_right, .-rotate_right
 628 001a 00BF     		.section	.text.abs2,"ax",%progbits
 629              		.align	2
 630              		.global	abs2
 631              		.thumb
 632              		.thumb_func
 633              		.type	abs2, %function
 634              	abs2:
 635              	.LFB78:
 284:.\motor.c     ****     }
 285:.\motor.c     **** }
 286:.\motor.c     **** 
 287:.\motor.c     **** int16 abs2(int16 val)
 288:.\motor.c     **** {
 636              		.loc 1 288 0
 637              		.cfi_startproc
 638              		@ args = 0, pretend = 0, frame = 0
 639              		@ frame_needed = 0, uses_anonymous_args = 0
 640              		@ link register save eliminated.
 641              	.LVL67:
 289:.\motor.c     ****     return (val > 0) ? val : -val;
 642              		.loc 1 289 0
 643 0000 0028     		cmp	r0, #0
 644 0002 B8BF     		it	lt
 645 0004 4042     		rsblt	r0, r0, #0
 646              	.LVL68:
 290:.\motor.c     **** }
 647              		.loc 1 290 0
 648 0006 00B2     		sxth	r0, r0
 649 0008 7047     		bx	lr
 650              		.cfi_endproc
 651              	.LFE78:
 652              		.size	abs2, .-abs2
 653 000a 00BF     		.section	.text.control_motors,"ax",%progbits
 654              		.align	2
 655              		.global	control_motors
 656              		.thumb
 657              		.thumb_func
 658              		.type	control_motors, %function
 659              	control_motors:
 660              	.LFB65:
  67:.\motor.c     **** void control_motors(){
 661              		.loc 1 67 0
 662              		.cfi_startproc
 663              		@ args = 0, pretend = 0, frame = 0
ARM GAS  C:\Users\xavieran\AppData\Local\Temp\ccPMGYrc.s 			page 18


 664              		@ frame_needed = 0, uses_anonymous_args = 0
 665 0000 70B5     		push	{r4, r5, r6, lr}
 666              		.cfi_def_cfa_offset 16
 667              		.cfi_offset 4, -16
 668              		.cfi_offset 5, -12
 669              		.cfi_offset 6, -8
 670              		.cfi_offset 14, -4
  71:.\motor.c     ****     int heading_error = desired_heading - compass_heading;
 671              		.loc 1 71 0
 672 0002 4D4B     		ldr	r3, .L50
 673 0004 B3F90020 		ldrsh	r2, [r3]
 674 0008 4C4B     		ldr	r3, .L50+4
 675 000a B3F90010 		ldrsh	r1, [r3]
 676 000e 531A     		subs	r3, r2, r1
 677              	.LVL69:
  74:.\motor.c     ****     if (abs(heading_error) > 180){ 
 678              		.loc 1 74 0
 679 0010 83EAE370 		eor	r0, r3, r3, asr #31
 680 0014 A0EBE370 		sub	r0, r0, r3, asr #31
 681 0018 B428     		cmp	r0, #180
 682 001a 02DD     		ble	.L42
  75:.\motor.c     ****         heading_error = -(desired_heading - (360 - compass_heading));
 683              		.loc 1 75 0
 684 001c C1F5B473 		rsb	r3, r1, #360
 685              	.LVL70:
 686 0020 9B1A     		subs	r3, r3, r2
 687              	.LVL71:
 688              	.L42:
  78:.\motor.c     ****     if (abs(heading_error) > HEADING_ERROR_LIMIT){ 
 689              		.loc 1 78 0
 690 0022 83EAE371 		eor	r1, r3, r3, asr #31
 691 0026 A1EBE371 		sub	r1, r1, r3, asr #31
 692 002a 0329     		cmp	r1, #3
 693 002c 20DD     		ble	.L43
  79:.\motor.c     ****         currently_rotating = 1;
 694              		.loc 1 79 0
 695 002e 0120     		movs	r0, #1
 696 0030 434A     		ldr	r2, .L50+8
 697 0032 1070     		strb	r0, [r2]
  82:.\motor.c     ****         if (heading_error < 0){ 
 698              		.loc 1 82 0
 699 0034 002B     		cmp	r3, #0
 700 0036 0DDA     		bge	.L44
  83:.\motor.c     ****             rotate_left(clip(STALL_SPEED, abs(heading_error)*2, MAX_SPEED));
 701              		.loc 1 83 0
 702 0038 3C20     		movs	r0, #60
 703 003a 4900     		lsls	r1, r1, #1
 704 003c 9622     		movs	r2, #150
 705 003e FFF7FEFF 		bl	clip
 706              	.LVL72:
 707 0042 FFF7FEFF 		bl	rotate_left
 708              	.LVL73:
  84:.\motor.c     ****             WHITE_Write(1);
 709              		.loc 1 84 0
 710 0046 0120     		movs	r0, #1
 711 0048 FFF7FEFF 		bl	WHITE_Write
 712              	.LVL74:
ARM GAS  C:\Users\xavieran\AppData\Local\Temp\ccPMGYrc.s 			page 19


  85:.\motor.c     ****             ORANGE_Write(0);
 713              		.loc 1 85 0
 714 004c 0020     		movs	r0, #0
 715 004e FFF7FEFF 		bl	ORANGE_Write
 716              	.LVL75:
 717 0052 70BD     		pop	{r4, r5, r6, pc}
 718              	.LVL76:
 719              	.L44:
  87:.\motor.c     ****             rotate_right(clip(STALL_SPEED, abs(heading_error)*2, MAX_SPEED));
 720              		.loc 1 87 0
 721 0054 3C20     		movs	r0, #60
 722 0056 4900     		lsls	r1, r1, #1
 723 0058 9622     		movs	r2, #150
 724 005a FFF7FEFF 		bl	clip
 725              	.LVL77:
 726 005e FFF7FEFF 		bl	rotate_right
 727              	.LVL78:
  88:.\motor.c     ****             WHITE_Write(0);
 728              		.loc 1 88 0
 729 0062 0020     		movs	r0, #0
 730 0064 FFF7FEFF 		bl	WHITE_Write
 731              	.LVL79:
  89:.\motor.c     ****             ORANGE_Write(1);
 732              		.loc 1 89 0
 733 0068 0120     		movs	r0, #1
 734 006a FFF7FEFF 		bl	ORANGE_Write
 735              	.LVL80:
 736 006e 70BD     		pop	{r4, r5, r6, pc}
 737              	.LVL81:
 738              	.L43:
  94:.\motor.c     ****     setCoast(MBOTH);
 739              		.loc 1 94 0
 740 0070 0320     		movs	r0, #3
 741 0072 FFF7FEFF 		bl	setCoast
 742              	.LVL82:
  98:.\motor.c     ****     switch (motor_state){
 743              		.loc 1 98 0
 744 0076 334B     		ldr	r3, .L50+12
 745 0078 1B78     		ldrb	r3, [r3]	@ zero_extendqisi2
 746 007a 022B     		cmp	r3, #2
 747 007c 02D0     		beq	.L46
 748 007e 032B     		cmp	r3, #3
 749 0080 2DD0     		beq	.L47
 750 0082 70BD     		pop	{r4, r5, r6, pc}
 751              	.L46:
 102:.\motor.c     ****             distance_error = desired_distance - delta_y_distance;
 752              		.loc 1 102 0
 753 0084 304B     		ldr	r3, .L50+16
 754 0086 1D68     		ldr	r5, [r3]
 755 0088 304B     		ldr	r3, .L50+20
 756 008a 1E68     		ldr	r6, [r3]
 757 008c AC1B     		subs	r4, r5, r6
 758              	.LVL83:
 103:.\motor.c     ****             if (abs2(distance_error) > MOTOR_FORWARD_ERROR_LIMIT && distance_error > 0){
 759              		.loc 1 103 0
 760 008e 20B2     		sxth	r0, r4
 761 0090 FFF7FEFF 		bl	abs2
ARM GAS  C:\Users\xavieran\AppData\Local\Temp\ccPMGYrc.s 			page 20


 762              	.LVL84:
 763 0094 6428     		cmp	r0, #100
 764 0096 17DD     		ble	.L48
 103:.\motor.c     ****             if (abs2(distance_error) > MOTOR_FORWARD_ERROR_LIMIT && distance_error > 0){
 765              		.loc 1 103 0 is_stmt 0 discriminator 1
 766 0098 002C     		cmp	r4, #0
 767 009a 15DD     		ble	.L48
 106:.\motor.c     ****                 setSpeed(MBOTH, clip(STALL_SPEED, abs(delta_y_distance - desired_distance)/2, 255))
 768              		.loc 1 106 0 is_stmt 1
 769 009c 751B     		subs	r5, r6, r5
 770 009e 002D     		cmp	r5, #0
 771 00a0 B8BF     		it	lt
 772 00a2 6D42     		rsblt	r5, r5, #0
 773 00a4 05EBD571 		add	r1, r5, r5, lsr #31
 774 00a8 3C20     		movs	r0, #60
 775 00aa 4910     		asrs	r1, r1, #1
 776 00ac FF22     		movs	r2, #255
 777 00ae FFF7FEFF 		bl	clip
 778              	.LVL85:
 779 00b2 0146     		mov	r1, r0
 780 00b4 0320     		movs	r0, #3
 781 00b6 FFF7FEFF 		bl	setSpeed
 782              	.LVL86:
 107:.\motor.c     ****                 setForward(MBOTH);
 783              		.loc 1 107 0
 784 00ba 0320     		movs	r0, #3
 785 00bc FFF7FEFF 		bl	setForward
 786              	.LVL87:
 108:.\motor.c     ****                 currently_rotating = 0;
 787              		.loc 1 108 0
 788 00c0 0022     		movs	r2, #0
 789 00c2 1F4B     		ldr	r3, .L50+8
 790 00c4 1A70     		strb	r2, [r3]
 791 00c6 70BD     		pop	{r4, r5, r6, pc}
 792              	.LVL88:
 793              	.L48:
 110:.\motor.c     ****                 setSpeed(MBOTH, 0);
 794              		.loc 1 110 0
 795 00c8 0320     		movs	r0, #3
 796 00ca 0021     		movs	r1, #0
 797 00cc FFF7FEFF 		bl	setSpeed
 798              	.LVL89:
 111:.\motor.c     ****                 setCoast(MBOTH);
 799              		.loc 1 111 0
 800 00d0 0320     		movs	r0, #3
 801 00d2 FFF7FEFF 		bl	setCoast
 802              	.LVL90:
 112:.\motor.c     ****                 motor_state = MOTOR_S_STOPPED;
 803              		.loc 1 112 0
 804 00d6 0022     		movs	r2, #0
 805 00d8 1A4B     		ldr	r3, .L50+12
 806 00da 1A70     		strb	r2, [r3]
 807 00dc 70BD     		pop	{r4, r5, r6, pc}
 808              	.LVL91:
 809              	.L47:
 116:.\motor.c     ****             distance_error = desired_distance - delta_y_distance;
 810              		.loc 1 116 0
ARM GAS  C:\Users\xavieran\AppData\Local\Temp\ccPMGYrc.s 			page 21


 811 00de 1A4B     		ldr	r3, .L50+16
 812 00e0 1D68     		ldr	r5, [r3]
 813 00e2 1A4B     		ldr	r3, .L50+20
 814 00e4 1E68     		ldr	r6, [r3]
 815 00e6 AC1B     		subs	r4, r5, r6
 816              	.LVL92:
 117:.\motor.c     ****             if (abs2(distance_error) > MOTOR_FORWARD_ERROR_LIMIT && distance_error < 0){
 817              		.loc 1 117 0
 818 00e8 20B2     		sxth	r0, r4
 819 00ea FFF7FEFF 		bl	abs2
 820              	.LVL93:
 821 00ee 6428     		cmp	r0, #100
 822 00f0 17DD     		ble	.L49
 117:.\motor.c     ****             if (abs2(distance_error) > MOTOR_FORWARD_ERROR_LIMIT && distance_error < 0){
 823              		.loc 1 117 0 is_stmt 0 discriminator 1
 824 00f2 002C     		cmp	r4, #0
 825 00f4 15DA     		bge	.L49
 119:.\motor.c     ****                 setSpeed(MBOTH, clip(STALL_SPEED, abs(delta_y_distance - desired_distance)/2, 255))
 826              		.loc 1 119 0 is_stmt 1
 827 00f6 731B     		subs	r3, r6, r5
 828 00f8 002B     		cmp	r3, #0
 829 00fa B8BF     		it	lt
 830 00fc 5B42     		rsblt	r3, r3, #0
 831 00fe 03EBD371 		add	r1, r3, r3, lsr #31
 832 0102 3C20     		movs	r0, #60
 833 0104 4910     		asrs	r1, r1, #1
 834 0106 FF22     		movs	r2, #255
 835 0108 FFF7FEFF 		bl	clip
 836              	.LVL94:
 837 010c 0146     		mov	r1, r0
 838 010e 0320     		movs	r0, #3
 839 0110 FFF7FEFF 		bl	setSpeed
 840              	.LVL95:
 120:.\motor.c     ****                 setReverse(MBOTH);
 841              		.loc 1 120 0
 842 0114 0320     		movs	r0, #3
 843 0116 FFF7FEFF 		bl	setReverse
 844              	.LVL96:
 121:.\motor.c     ****                 currently_rotating = 0;
 845              		.loc 1 121 0
 846 011a 0022     		movs	r2, #0
 847 011c 084B     		ldr	r3, .L50+8
 848 011e 1A70     		strb	r2, [r3]
 849 0120 70BD     		pop	{r4, r5, r6, pc}
 850              	.LVL97:
 851              	.L49:
 123:.\motor.c     ****                 setSpeed(MBOTH, 0);
 852              		.loc 1 123 0
 853 0122 0320     		movs	r0, #3
 854 0124 0021     		movs	r1, #0
 855 0126 FFF7FEFF 		bl	setSpeed
 856              	.LVL98:
 124:.\motor.c     ****                 setCoast(MBOTH);
 857              		.loc 1 124 0
 858 012a 0320     		movs	r0, #3
 859 012c FFF7FEFF 		bl	setCoast
 860              	.LVL99:
ARM GAS  C:\Users\xavieran\AppData\Local\Temp\ccPMGYrc.s 			page 22


 125:.\motor.c     ****                 motor_state = MOTOR_S_STOPPED;
 861              		.loc 1 125 0
 862 0130 0022     		movs	r2, #0
 863 0132 044B     		ldr	r3, .L50+12
 864 0134 1A70     		strb	r2, [r3]
 865 0136 70BD     		pop	{r4, r5, r6, pc}
 866              	.LVL100:
 867              	.L51:
 868              		.align	2
 869              	.L50:
 870 0138 00000000 		.word	desired_heading
 871 013c 00000000 		.word	compass_heading
 872 0140 00000000 		.word	currently_rotating
 873 0144 00000000 		.word	motor_state
 874 0148 00000000 		.word	desired_distance
 875 014c 00000000 		.word	delta_y_distance
 876              		.cfi_endproc
 877              	.LFE65:
 878              		.size	control_motors, .-control_motors
 879              		.comm	currently_rotating,1,1
 880              		.comm	just_arrived,1,1
 881              		.comm	motor_state,1,1
 882              		.comm	end_y,4,4
 883              		.comm	end_x,4,4
 884              		.comm	start_y,4,4
 885              		.comm	start_x,4,4
 886              		.comm	desired_heading,2,2
 887              		.comm	desired_distance,4,4
 888              		.comm	Camera_framebuffer,50688,4
 889              		.text
 890              	.Letext0:
 891              		.file 2 "c:\\program files (x86)\\cypress\\psoc creator\\3.2\\psoc creator\\import\\gnu\\arm\\4.8.
 892              		.file 3 "c:\\program files (x86)\\cypress\\psoc creator\\3.2\\psoc creator\\import\\gnu\\arm\\4.8.
 893              		.file 4 "Generated_Source\\PSoC5/cytypes.h"
 894              		.file 5 "./navigation.h"
 895              		.file 6 "Generated_Source\\PSoC5/core_cm3.h"
 896              		.file 7 "Generated_Source\\PSoC5/Camera.h"
 897              		.file 8 "Generated_Source\\PSoC5/MLIN1.h"
 898              		.file 9 "Generated_Source\\PSoC5/MLIN2.h"
 899              		.file 10 "Generated_Source\\PSoC5/MOTOR_L.h"
 900              		.file 11 "Generated_Source\\PSoC5/MOTOR_R.h"
 901              		.file 12 "Generated_Source\\PSoC5/MRIN1.h"
 902              		.file 13 "Generated_Source\\PSoC5/MRIN2.h"
 903              		.file 14 "Generated_Source\\PSoC5/WHITE.h"
 904              		.file 15 "Generated_Source\\PSoC5/ORANGE.h"
 905              		.file 16 "<built-in>"
 906              		.file 17 "c:\\program files (x86)\\cypress\\psoc creator\\3.2\\psoc creator\\import\\gnu\\arm\\4.8