ARM GAS  C:\Users\xavieran\AppData\Local\Temp\ccEM1sTP.s 			page 1


   1              		.syntax unified
   2              		.cpu cortex-m3
   3              		.fpu softvfp
   4              		.eabi_attribute 20, 1
   5              		.eabi_attribute 21, 1
   6              		.eabi_attribute 23, 3
   7              		.eabi_attribute 24, 1
   8              		.eabi_attribute 25, 1
   9              		.eabi_attribute 26, 1
  10              		.eabi_attribute 30, 1
  11              		.eabi_attribute 34, 1
  12              		.eabi_attribute 18, 4
  13              		.thumb
  14              		.file	"mouse_b.c"
  15              		.text
  16              	.Ltext0:
  17              		.cfi_sections	.debug_frame
  18              		.section	.text.mouse_b_write,"ax",%progbits
  19              		.align	2
  20              		.global	mouse_b_write
  21              		.thumb
  22              		.thumb_func
  23              		.type	mouse_b_write, %function
  24              	mouse_b_write:
  25              	.LFB63:
  26              		.file 1 ".\\mouse_b.c"
   1:.\mouse_b.c   **** /* ========================================
   2:.\mouse_b.c   ****  *
   3:.\mouse_b.c   ****  * Copyright YOUR COMPANY, THE YEAR
   4:.\mouse_b.c   ****  * All Rights Reserved
   5:.\mouse_b.c   ****  * UNPUBLISHED, LICENSED SOFTWARE.
   6:.\mouse_b.c   ****  *
   7:.\mouse_b.c   ****  * CONFIDENTIAL AND PROPRIETARY INFORMATION
   8:.\mouse_b.c   ****  * WHICH IS THE PROPERTY OF your company.
   9:.\mouse_b.c   ****  *
  10:.\mouse_b.c   ****  * ========================================
  11:.\mouse_b.c   **** */
  12:.\mouse_b.c   **** 
  13:.\mouse_b.c   **** #include <project.h>
  14:.\mouse_b.c   **** 
  15:.\mouse_b.c   **** #define S_STAT_START 0
  16:.\mouse_b.c   **** #define S_MOVX_START 1
  17:.\mouse_b.c   **** #define S_MOVY_START 2
  18:.\mouse_b.c   **** 
  19:.\mouse_b.c   **** volatile uint8 state_b;
  20:.\mouse_b.c   **** volatile uint8 bit_count_b;
  21:.\mouse_b.c   **** 
  22:.\mouse_b.c   **** volatile uint8 bit_b;
  23:.\mouse_b.c   **** 
  24:.\mouse_b.c   **** volatile uint8 status_b;
  25:.\mouse_b.c   **** volatile uint8 mov_x_b;
  26:.\mouse_b.c   **** volatile uint8 mov_y_b;
  27:.\mouse_b.c   **** 
  28:.\mouse_b.c   **** extern volatile int32 loc_x_b;
  29:.\mouse_b.c   **** extern volatile int32 loc_y_b;
  30:.\mouse_b.c   **** 
  31:.\mouse_b.c   **** volatile uint8 data_ready_b;
ARM GAS  C:\Users\xavieran\AppData\Local\Temp\ccEM1sTP.s 			page 2


  32:.\mouse_b.c   **** 
  33:.\mouse_b.c   **** volatile uint32 time_prev_b;
  34:.\mouse_b.c   **** 
  35:.\mouse_b.c   **** void mouse_b_write(uint8 data){
  27              		.loc 1 35 0
  28              		.cfi_startproc
  29              		@ args = 0, pretend = 0, frame = 0
  30              		@ frame_needed = 0, uses_anonymous_args = 0
  31              	.LVL0:
  32 0000 F8B5     		push	{r3, r4, r5, r6, r7, lr}
  33              		.cfi_def_cfa_offset 24
  34              		.cfi_offset 3, -24
  35              		.cfi_offset 4, -20
  36              		.cfi_offset 5, -16
  37              		.cfi_offset 6, -12
  38              		.cfi_offset 7, -8
  39              		.cfi_offset 14, -4
  40 0002 0746     		mov	r7, r0
  41              	.LVL1:
  36:.\mouse_b.c   **** 	uint8 i;
  37:.\mouse_b.c   **** 	uint8 parity = 0;
  38:.\mouse_b.c   **** 	
  39:.\mouse_b.c   ****     //Ensure that clock and data are floating
  40:.\mouse_b.c   **** 	SDAT_B_Write(1);
  42              		.loc 1 40 0
  43 0004 0120     		movs	r0, #1
  44              	.LVL2:
  45 0006 FFF7FEFF 		bl	SDAT_B_Write
  46              	.LVL3:
  41:.\mouse_b.c   **** 	SCLK_B_Write(1);
  47              		.loc 1 41 0
  48 000a 0120     		movs	r0, #1
  49 000c FFF7FEFF 		bl	SCLK_B_Write
  50              	.LVL4:
  42:.\mouse_b.c   **** 	CyDelayUs(200);
  51              		.loc 1 42 0
  52 0010 C820     		movs	r0, #200
  53 0012 FFF7FEFF 		bl	CyDelayUs
  54              	.LVL5:
  43:.\mouse_b.c   ****     
  44:.\mouse_b.c   ****     //If the host wants to send data, it must first inhibit communication from the device by pullin
  45:.\mouse_b.c   **** 	SCLK_B_Write(0);
  55              		.loc 1 45 0
  56 0016 0020     		movs	r0, #0
  57 0018 FFF7FEFF 		bl	SCLK_B_Write
  58              	.LVL6:
  46:.\mouse_b.c   **** 	CyDelayUs(200);
  59              		.loc 1 46 0
  60 001c C820     		movs	r0, #200
  61 001e FFF7FEFF 		bl	CyDelayUs
  62              	.LVL7:
  47:.\mouse_b.c   ****     
  48:.\mouse_b.c   ****     //The host then pulls Data low 
  49:.\mouse_b.c   **** 	SDAT_B_Write(0);
  63              		.loc 1 49 0
  64 0022 0020     		movs	r0, #0
  65 0024 FFF7FEFF 		bl	SDAT_B_Write
ARM GAS  C:\Users\xavieran\AppData\Local\Temp\ccEM1sTP.s 			page 3


  66              	.LVL8:
  50:.\mouse_b.c   **** 	CyDelayUs(10);
  67              		.loc 1 50 0
  68 0028 0A20     		movs	r0, #10
  69 002a FFF7FEFF 		bl	CyDelayUs
  70              	.LVL9:
  51:.\mouse_b.c   ****     
  52:.\mouse_b.c   ****     //and releases Clock.  
  53:.\mouse_b.c   ****     //This is the "Request-to-Send" state and signals the device to start generating clock pulses.
  54:.\mouse_b.c   ****     SCLK_B_Write(1);
  71              		.loc 1 54 0
  72 002e 0120     		movs	r0, #1
  73 0030 FFF7FEFF 		bl	SCLK_B_Write
  74              	.LVL10:
  55:.\mouse_b.c   ****     SDAT_B_Write(0);
  75              		.loc 1 55 0
  76 0034 0020     		movs	r0, #0
  77 0036 FFF7FEFF 		bl	SDAT_B_Write
  78              	.LVL11:
  56:.\mouse_b.c   ****     CyDelayUs(10); //The mouse needs this extra time for some reason...
  79              		.loc 1 56 0
  80 003a 0A20     		movs	r0, #10
  81 003c FFF7FEFF 		bl	CyDelayUs
  82              	.LVL12:
  57:.\mouse_b.c   ****     
  58:.\mouse_b.c   **** 	while (SCLK_B_Read() == 1){SDAT_B_Write(0);} /* wait for device to take control of clock */
  83              		.loc 1 58 0
  84 0040 0024     		movs	r4, #0
  85 0042 02E0     		b	.L2
  86              	.L3:
  87              		.loc 1 58 0 is_stmt 0 discriminator 2
  88 0044 2046     		mov	r0, r4
  89 0046 FFF7FEFF 		bl	SDAT_B_Write
  90              	.LVL13:
  91              	.L2:
  92              		.loc 1 58 0 discriminator 1
  93 004a FFF7FEFF 		bl	SCLK_B_Read
  94              	.LVL14:
  95 004e 0128     		cmp	r0, #1
  96 0050 F8D0     		beq	.L3
  97 0052 0026     		movs	r6, #0
  98 0054 3446     		mov	r4, r6
  99 0056 13E0     		b	.L4
 100              	.LVL15:
 101              	.L7:
  59:.\mouse_b.c   ****     
  60:.\mouse_b.c   ****     for (i = 0; i < 8; i++){
  61:.\mouse_b.c   ****         //Write successive bits to the data line
  62:.\mouse_b.c   ****         SDAT_B_Write((data & (1 << i)) != 0);
 102              		.loc 1 62 0 is_stmt 1
 103 0058 47FA04F5 		asr	r5, r7, r4
 104 005c 05F00105 		and	r5, r5, #1
 105 0060 EDB2     		uxtb	r5, r5
 106 0062 2846     		mov	r0, r5
 107 0064 FFF7FEFF 		bl	SDAT_B_Write
 108              	.LVL16:
  63:.\mouse_b.c   ****         parity += ((data & (1 << i)) != 0);
ARM GAS  C:\Users\xavieran\AppData\Local\Temp\ccEM1sTP.s 			page 4


 109              		.loc 1 63 0
 110 0068 2E44     		add	r6, r6, r5
 111              	.LVL17:
 112 006a F6B2     		uxtb	r6, r6
 113              	.LVL18:
 114              	.L5:
  64:.\mouse_b.c   ****         //Wait a clock cycle
  65:.\mouse_b.c   ****         while (SCLK_B_Read() == 0){;}
 115              		.loc 1 65 0 discriminator 1
 116 006c FFF7FEFF 		bl	SCLK_B_Read
 117              	.LVL19:
 118 0070 0028     		cmp	r0, #0
 119 0072 FBD0     		beq	.L5
 120              	.L11:
  66:.\mouse_b.c   ****         while (SCLK_B_Read() == 1){;}
 121              		.loc 1 66 0 discriminator 1
 122 0074 FFF7FEFF 		bl	SCLK_B_Read
 123              	.LVL20:
 124 0078 0128     		cmp	r0, #1
 125 007a FBD0     		beq	.L11
  60:.\mouse_b.c   ****     for (i = 0; i < 8; i++){
 126              		.loc 1 60 0
 127 007c 0134     		adds	r4, r4, #1
 128              	.LVL21:
 129 007e E4B2     		uxtb	r4, r4
 130              	.LVL22:
 131              	.L4:
  60:.\mouse_b.c   ****     for (i = 0; i < 8; i++){
 132              		.loc 1 60 0 is_stmt 0 discriminator 1
 133 0080 072C     		cmp	r4, #7
 134 0082 E9D9     		bls	.L7
  67:.\mouse_b.c   ****     }
  68:.\mouse_b.c   ****     
  69:.\mouse_b.c   ****     //Odd parity 
  70:.\mouse_b.c   ****     SDAT_B_Write((parity % 2) == 0);
 135              		.loc 1 70 0 is_stmt 1
 136 0084 86F00100 		eor	r0, r6, #1
 137 0088 00F00100 		and	r0, r0, #1
 138 008c FFF7FEFF 		bl	SDAT_B_Write
 139              	.LVL23:
 140              	.L8:
  71:.\mouse_b.c   ****     //SDAT_B_Write(1);
  72:.\mouse_b.c   ****     
  73:.\mouse_b.c   ****     //Wait a clock cycle
  74:.\mouse_b.c   ****     while (SCLK_B_Read() == 0){;}
 141              		.loc 1 74 0 discriminator 1
 142 0090 FFF7FEFF 		bl	SCLK_B_Read
 143              	.LVL24:
 144 0094 0028     		cmp	r0, #0
 145 0096 FBD0     		beq	.L8
 146              	.L10:
  75:.\mouse_b.c   ****     while (SCLK_B_Read() == 1){;}
 147              		.loc 1 75 0 discriminator 1
 148 0098 FFF7FEFF 		bl	SCLK_B_Read
 149              	.LVL25:
 150 009c 0128     		cmp	r0, #1
 151 009e FBD0     		beq	.L10
ARM GAS  C:\Users\xavieran\AppData\Local\Temp\ccEM1sTP.s 			page 5


  76:.\mouse_b.c   ****     
  77:.\mouse_b.c   ****     //Release the data and clock lines
  78:.\mouse_b.c   ****     SDAT_B_Write(1);
 152              		.loc 1 78 0
 153 00a0 0120     		movs	r0, #1
 154 00a2 FFF7FEFF 		bl	SDAT_B_Write
 155              	.LVL26:
  79:.\mouse_b.c   ****     SCLK_B_Write(1);
 156              		.loc 1 79 0
 157 00a6 0120     		movs	r0, #1
 158 00a8 FFF7FEFF 		bl	SCLK_B_Write
 159              	.LVL27:
 160 00ac F8BD     		pop	{r3, r4, r5, r6, r7, pc}
 161              		.cfi_endproc
 162              	.LFE63:
 163              		.size	mouse_b_write, .-mouse_b_write
 164 00ae 00BF     		.section	.text.mouse_b_init,"ax",%progbits
 165              		.align	2
 166              		.global	mouse_b_init
 167              		.thumb
 168              		.thumb_func
 169              		.type	mouse_b_init, %function
 170              	mouse_b_init:
 171              	.LFB64:
  80:.\mouse_b.c   **** }
  81:.\mouse_b.c   **** 
  82:.\mouse_b.c   **** void mouse_b_init(){
 172              		.loc 1 82 0
 173              		.cfi_startproc
 174              		@ args = 0, pretend = 0, frame = 0
 175              		@ frame_needed = 0, uses_anonymous_args = 0
 176 0000 08B5     		push	{r3, lr}
 177              		.cfi_def_cfa_offset 8
 178              		.cfi_offset 3, -8
 179              		.cfi_offset 14, -4
  83:.\mouse_b.c   ****     //CHECK_B_Write(1);
  84:.\mouse_b.c   ****     mouse_b_write(0xff);  // reset
 180              		.loc 1 84 0
 181 0002 FF20     		movs	r0, #255
 182 0004 FFF7FEFF 		bl	mouse_b_write
 183              	.LVL28:
  85:.\mouse_b.c   ****     //CHECK_B_Write(0);
  86:.\mouse_b.c   ****     CyDelay(8);//Wait for ACK
 184              		.loc 1 86 0
 185 0008 0820     		movs	r0, #8
 186 000a FFF7FEFF 		bl	CyDelay
 187              	.LVL29:
  87:.\mouse_b.c   ****     
  88:.\mouse_b.c   ****     //CHECK_B_Write(1);
  89:.\mouse_b.c   ****     mouse_b_write(0xf3); //Set Sample Rate
 188              		.loc 1 89 0
 189 000e F320     		movs	r0, #243
 190 0010 FFF7FEFF 		bl	mouse_b_write
 191              	.LVL30:
  90:.\mouse_b.c   ****     //CHECK_B_Write(0);
  91:.\mouse_b.c   ****     
  92:.\mouse_b.c   ****     CyDelay(2);
ARM GAS  C:\Users\xavieran\AppData\Local\Temp\ccEM1sTP.s 			page 6


 192              		.loc 1 92 0
 193 0014 0220     		movs	r0, #2
 194 0016 FFF7FEFF 		bl	CyDelay
 195              	.LVL31:
  93:.\mouse_b.c   ****     
  94:.\mouse_b.c   ****     //CHECK_B_Write(1);
  95:.\mouse_b.c   ****     mouse_b_write(80); //Set sample rate to 80 (DEC)
 196              		.loc 1 95 0
 197 001a 5020     		movs	r0, #80
 198 001c FFF7FEFF 		bl	mouse_b_write
 199              	.LVL32:
  96:.\mouse_b.c   ****     //CHECK_B_Write(0);
  97:.\mouse_b.c   ****     
  98:.\mouse_b.c   ****     CyDelay(2);
 200              		.loc 1 98 0
 201 0020 0220     		movs	r0, #2
 202 0022 FFF7FEFF 		bl	CyDelay
 203              	.LVL33:
  99:.\mouse_b.c   ****     
 100:.\mouse_b.c   ****     //CHECK_B_Write(1);
 101:.\mouse_b.c   ****     mouse_b_write(0xea); //Set  resolution
 204              		.loc 1 101 0
 205 0026 EA20     		movs	r0, #234
 206 0028 FFF7FEFF 		bl	mouse_b_write
 207              	.LVL34:
 102:.\mouse_b.c   ****     //CHECK_B_Write(0);
 103:.\mouse_b.c   ****     
 104:.\mouse_b.c   ****     CyDelay(2);
 208              		.loc 1 104 0
 209 002c 0220     		movs	r0, #2
 210 002e FFF7FEFF 		bl	CyDelay
 211              	.LVL35:
 105:.\mouse_b.c   ****     
 106:.\mouse_b.c   ****     //CHECK_B_Write(1);
 107:.\mouse_b.c   ****     mouse_b_write(0x00); //Set resolution to 1c/mm
 212              		.loc 1 107 0
 213 0032 0020     		movs	r0, #0
 214 0034 FFF7FEFF 		bl	mouse_b_write
 215              	.LVL36:
 108:.\mouse_b.c   ****     //CHECK_B_Write(0);
 109:.\mouse_b.c   ****     
 110:.\mouse_b.c   ****     CyDelay(2);
 216              		.loc 1 110 0
 217 0038 0220     		movs	r0, #2
 218 003a FFF7FEFF 		bl	CyDelay
 219              	.LVL37:
 111:.\mouse_b.c   ****     
 112:.\mouse_b.c   ****     //CHECK_B_Write(1);
 113:.\mouse_b.c   ****     mouse_b_write(0xf4);
 220              		.loc 1 113 0
 221 003e F420     		movs	r0, #244
 222 0040 FFF7FEFF 		bl	mouse_b_write
 223              	.LVL38:
 224 0044 08BD     		pop	{r3, pc}
 225              		.cfi_endproc
 226              	.LFE64:
 227              		.size	mouse_b_init, .-mouse_b_init
ARM GAS  C:\Users\xavieran\AppData\Local\Temp\ccEM1sTP.s 			page 7


 228 0046 00BF     		.section	.text.reset_sclk_b_isr,"ax",%progbits
 229              		.align	2
 230              		.global	reset_sclk_b_isr
 231              		.thumb
 232              		.thumb_func
 233              		.type	reset_sclk_b_isr, %function
 234              	reset_sclk_b_isr:
 235              	.LFB65:
 114:.\mouse_b.c   ****     //CHECK_B_Write(0);
 115:.\mouse_b.c   **** }
 116:.\mouse_b.c   **** 
 117:.\mouse_b.c   **** 
 118:.\mouse_b.c   **** void reset_sclk_b_isr(){
 236              		.loc 1 118 0
 237              		.cfi_startproc
 238              		@ args = 0, pretend = 0, frame = 0
 239              		@ frame_needed = 0, uses_anonymous_args = 0
 240 0000 08B5     		push	{r3, lr}
 241              		.cfi_def_cfa_offset 8
 242              		.cfi_offset 3, -8
 243              		.cfi_offset 14, -4
 119:.\mouse_b.c   ****     state_b = S_STAT_START;
 244              		.loc 1 119 0
 245 0002 0023     		movs	r3, #0
 246 0004 084A     		ldr	r2, .L18
 247 0006 1370     		strb	r3, [r2]
 120:.\mouse_b.c   ****     bit_count_b = 0;
 248              		.loc 1 120 0
 249 0008 084A     		ldr	r2, .L18+4
 250 000a 1370     		strb	r3, [r2]
 121:.\mouse_b.c   ****     mov_x_b = 0;
 251              		.loc 1 121 0
 252 000c 084A     		ldr	r2, .L18+8
 253 000e 1370     		strb	r3, [r2]
 122:.\mouse_b.c   ****     mov_y_b = 0;
 254              		.loc 1 122 0
 255 0010 084A     		ldr	r2, .L18+12
 256 0012 1370     		strb	r3, [r2]
 123:.\mouse_b.c   ****     status_b = 0;
 257              		.loc 1 123 0
 258 0014 084A     		ldr	r2, .L18+16
 259 0016 1370     		strb	r3, [r2]
 124:.\mouse_b.c   ****     data_ready_b = 0;
 260              		.loc 1 124 0
 261 0018 084A     		ldr	r2, .L18+20
 262 001a 1370     		strb	r3, [r2]
 125:.\mouse_b.c   ****     time_prev_b = Timer_ReadCounter();
 263              		.loc 1 125 0
 264 001c FFF7FEFF 		bl	Timer_ReadCounter
 265              	.LVL39:
 266 0020 074B     		ldr	r3, .L18+24
 267 0022 1860     		str	r0, [r3]
 268 0024 08BD     		pop	{r3, pc}
 269              	.L19:
 270 0026 00BF     		.align	2
 271              	.L18:
 272 0028 00000000 		.word	state_b
ARM GAS  C:\Users\xavieran\AppData\Local\Temp\ccEM1sTP.s 			page 8


 273 002c 00000000 		.word	bit_count_b
 274 0030 00000000 		.word	mov_x_b
 275 0034 00000000 		.word	mov_y_b
 276 0038 00000000 		.word	status_b
 277 003c 00000000 		.word	data_ready_b
 278 0040 00000000 		.word	time_prev_b
 279              		.cfi_endproc
 280              	.LFE65:
 281              		.size	reset_sclk_b_isr, .-reset_sclk_b_isr
 282              		.section	.text.MY_SCLK_B_ISR,"ax",%progbits
 283              		.align	2
 284              		.global	MY_SCLK_B_ISR
 285              		.thumb
 286              		.thumb_func
 287              		.type	MY_SCLK_B_ISR, %function
 288              	MY_SCLK_B_ISR:
 289              	.LFB66:
 126:.\mouse_b.c   **** }
 127:.\mouse_b.c   **** 
 128:.\mouse_b.c   **** CY_ISR(MY_SCLK_B_ISR){    
 290              		.loc 1 128 0
 291              		.cfi_startproc
 292              		@ args = 0, pretend = 0, frame = 0
 293              		@ frame_needed = 0, uses_anonymous_args = 0
 294 0000 10B5     		push	{r4, lr}
 295              		.cfi_def_cfa_offset 8
 296              		.cfi_offset 4, -8
 297              		.cfi_offset 14, -4
 129:.\mouse_b.c   ****     //If the clock is high when the *falling* edge interrupt triggers,
 130:.\mouse_b.c   ****     //obviously the interrupt was triggered falsely
 131:.\mouse_b.c   ****     if (SCLK_B_Read() == 1){
 298              		.loc 1 131 0
 299 0002 FFF7FEFF 		bl	SCLK_B_Read
 300              	.LVL40:
 301 0006 0128     		cmp	r0, #1
 302 0008 04D1     		bne	.L21
 132:.\mouse_b.c   ****         reset_sclk_b_isr();
 303              		.loc 1 132 0
 304 000a FFF7FEFF 		bl	reset_sclk_b_isr
 305              	.LVL41:
 133:.\mouse_b.c   ****         SCLK_B_ClearInterrupt();
 306              		.loc 1 133 0
 307 000e FFF7FEFF 		bl	SCLK_B_ClearInterrupt
 308              	.LVL42:
 134:.\mouse_b.c   ****         return;
 309              		.loc 1 134 0
 310 0012 10BD     		pop	{r4, pc}
 311              	.L21:
 135:.\mouse_b.c   ****     }
 136:.\mouse_b.c   ****     
 137:.\mouse_b.c   ****     //Reset if longer than 2*10*100uS has passed... 2ms
 138:.\mouse_b.c   ****     if ((time_prev_b - Timer_ReadCounter()) > 10){
 312              		.loc 1 138 0
 313 0014 774B     		ldr	r3, .L41
 314 0016 1C68     		ldr	r4, [r3]
 315 0018 FFF7FEFF 		bl	Timer_ReadCounter
 316              	.LVL43:
ARM GAS  C:\Users\xavieran\AppData\Local\Temp\ccEM1sTP.s 			page 9


 317 001c 201A     		subs	r0, r4, r0
 318 001e 0A28     		cmp	r0, #10
 319 0020 09D9     		bls	.L23
 139:.\mouse_b.c   ****         reset_sclk_b_isr();
 320              		.loc 1 139 0
 321 0022 FFF7FEFF 		bl	reset_sclk_b_isr
 322              	.LVL44:
 140:.\mouse_b.c   ****         bit_count_b++;
 323              		.loc 1 140 0
 324 0026 744B     		ldr	r3, .L41+4
 325 0028 1A78     		ldrb	r2, [r3]	@ zero_extendqisi2
 326 002a 0132     		adds	r2, r2, #1
 327 002c D2B2     		uxtb	r2, r2
 328 002e 1A70     		strb	r2, [r3]
 141:.\mouse_b.c   ****         SCLK_B_ClearInterrupt();
 329              		.loc 1 141 0
 330 0030 FFF7FEFF 		bl	SCLK_B_ClearInterrupt
 331              	.LVL45:
 142:.\mouse_b.c   ****         return;
 332              		.loc 1 142 0
 333 0034 10BD     		pop	{r4, pc}
 334              	.L23:
 143:.\mouse_b.c   ****     }
 144:.\mouse_b.c   ****     
 145:.\mouse_b.c   ****     //CHECK_B_Write(1); //Indicate start of interrupt - for time measurement purposes
 146:.\mouse_b.c   ****     
 147:.\mouse_b.c   ****     bit_b = SDAT_B_Read();
 335              		.loc 1 147 0
 336 0036 FFF7FEFF 		bl	SDAT_B_Read
 337              	.LVL46:
 338 003a 704B     		ldr	r3, .L41+8
 339 003c 1870     		strb	r0, [r3]
 148:.\mouse_b.c   ****     
 149:.\mouse_b.c   ****     switch (state_b){
 340              		.loc 1 149 0
 341 003e 704B     		ldr	r3, .L41+12
 342 0040 1B78     		ldrb	r3, [r3]	@ zero_extendqisi2
 343 0042 DBB2     		uxtb	r3, r3
 344 0044 012B     		cmp	r3, #1
 345 0046 3CD0     		beq	.L25
 346 0048 13B1     		cbz	r3, .L26
 347 004a 022B     		cmp	r3, #2
 348 004c 71D0     		beq	.L27
 349 004e C9E0     		b	.L24
 350              	.L26:
 150:.\mouse_b.c   ****         case S_STAT_START:
 151:.\mouse_b.c   ****             //First bit should be a 0
 152:.\mouse_b.c   ****             if (bit_count_b == 0){
 351              		.loc 1 152 0
 352 0050 694B     		ldr	r3, .L41+4
 353 0052 1B78     		ldrb	r3, [r3]	@ zero_extendqisi2
 354 0054 13F0FF0F 		tst	r3, #255
 355 0058 05D1     		bne	.L28
 153:.\mouse_b.c   ****                 bit_count_b++;
 356              		.loc 1 153 0
 357 005a 674B     		ldr	r3, .L41+4
 358 005c 1A78     		ldrb	r2, [r3]	@ zero_extendqisi2
ARM GAS  C:\Users\xavieran\AppData\Local\Temp\ccEM1sTP.s 			page 10


 359 005e 0132     		adds	r2, r2, #1
 360 0060 D2B2     		uxtb	r2, r2
 361 0062 1A70     		strb	r2, [r3]
 362 0064 BEE0     		b	.L24
 363              	.L28:
 154:.\mouse_b.c   ****             } else if (bit_count_b < 9){ //Bits 1 to 8 are the data bits
 364              		.loc 1 154 0
 365 0066 644B     		ldr	r3, .L41+4
 366 0068 1B78     		ldrb	r3, [r3]	@ zero_extendqisi2
 367 006a DBB2     		uxtb	r3, r3
 368 006c 082B     		cmp	r3, #8
 369 006e 10D8     		bhi	.L29
 155:.\mouse_b.c   ****                 status_b |= (bit_b << (bit_count_b - 1));
 370              		.loc 1 155 0
 371 0070 624B     		ldr	r3, .L41+8
 372 0072 1978     		ldrb	r1, [r3]	@ zero_extendqisi2
 373 0074 C9B2     		uxtb	r1, r1
 374 0076 604B     		ldr	r3, .L41+4
 375 0078 1A78     		ldrb	r2, [r3]	@ zero_extendqisi2
 376 007a 013A     		subs	r2, r2, #1
 377 007c 9140     		lsls	r1, r1, r2
 378 007e 614A     		ldr	r2, .L41+16
 379 0080 1078     		ldrb	r0, [r2]	@ zero_extendqisi2
 380 0082 0143     		orrs	r1, r1, r0
 381 0084 C9B2     		uxtb	r1, r1
 382 0086 1170     		strb	r1, [r2]
 156:.\mouse_b.c   ****                 bit_count_b++;
 383              		.loc 1 156 0
 384 0088 1A78     		ldrb	r2, [r3]	@ zero_extendqisi2
 385 008a 0132     		adds	r2, r2, #1
 386 008c D2B2     		uxtb	r2, r2
 387 008e 1A70     		strb	r2, [r3]
 388 0090 A8E0     		b	.L24
 389              	.L29:
 157:.\mouse_b.c   ****             } else if (bit_count_b == 9){ //parity bit
 390              		.loc 1 157 0
 391 0092 594B     		ldr	r3, .L41+4
 392 0094 1B78     		ldrb	r3, [r3]	@ zero_extendqisi2
 393 0096 DBB2     		uxtb	r3, r3
 394 0098 092B     		cmp	r3, #9
 395 009a 05D1     		bne	.L30
 158:.\mouse_b.c   ****                 bit_count_b++;
 396              		.loc 1 158 0
 397 009c 564B     		ldr	r3, .L41+4
 398 009e 1A78     		ldrb	r2, [r3]	@ zero_extendqisi2
 399 00a0 0132     		adds	r2, r2, #1
 400 00a2 D2B2     		uxtb	r2, r2
 401 00a4 1A70     		strb	r2, [r3]
 402 00a6 9DE0     		b	.L24
 403              	.L30:
 159:.\mouse_b.c   ****             } else if (bit_count_b == 10){ //stop bit
 404              		.loc 1 159 0
 405 00a8 534B     		ldr	r3, .L41+4
 406 00aa 1B78     		ldrb	r3, [r3]	@ zero_extendqisi2
 407 00ac DBB2     		uxtb	r3, r3
 408 00ae 0A2B     		cmp	r3, #10
 409 00b0 40F09880 		bne	.L24
ARM GAS  C:\Users\xavieran\AppData\Local\Temp\ccEM1sTP.s 			page 11


 160:.\mouse_b.c   ****                 bit_count_b = 0;
 410              		.loc 1 160 0
 411 00b4 0022     		movs	r2, #0
 412 00b6 504B     		ldr	r3, .L41+4
 413 00b8 1A70     		strb	r2, [r3]
 161:.\mouse_b.c   ****                 state_b = S_MOVX_START;
 414              		.loc 1 161 0
 415 00ba 0122     		movs	r2, #1
 416 00bc 504B     		ldr	r3, .L41+12
 417 00be 1A70     		strb	r2, [r3]
 418 00c0 90E0     		b	.L24
 419              	.L25:
 162:.\mouse_b.c   ****             }
 163:.\mouse_b.c   ****             break;
 164:.\mouse_b.c   ****             
 165:.\mouse_b.c   ****         case S_MOVX_START: //We are looking at the movement data
 166:.\mouse_b.c   ****             if (bit_count_b == 0){
 420              		.loc 1 166 0
 421 00c2 4D4B     		ldr	r3, .L41+4
 422 00c4 1B78     		ldrb	r3, [r3]	@ zero_extendqisi2
 423 00c6 13F0FF0F 		tst	r3, #255
 424 00ca 05D1     		bne	.L31
 167:.\mouse_b.c   ****                 bit_count_b++;
 425              		.loc 1 167 0
 426 00cc 4A4B     		ldr	r3, .L41+4
 427 00ce 1A78     		ldrb	r2, [r3]	@ zero_extendqisi2
 428 00d0 0132     		adds	r2, r2, #1
 429 00d2 D2B2     		uxtb	r2, r2
 430 00d4 1A70     		strb	r2, [r3]
 431 00d6 85E0     		b	.L24
 432              	.L31:
 168:.\mouse_b.c   ****             } else if (bit_count_b < 9){
 433              		.loc 1 168 0
 434 00d8 474B     		ldr	r3, .L41+4
 435 00da 1B78     		ldrb	r3, [r3]	@ zero_extendqisi2
 436 00dc DBB2     		uxtb	r3, r3
 437 00de 082B     		cmp	r3, #8
 438 00e0 10D8     		bhi	.L32
 169:.\mouse_b.c   ****                 mov_x_b |= (bit_b << (bit_count_b - 1));
 439              		.loc 1 169 0
 440 00e2 464B     		ldr	r3, .L41+8
 441 00e4 1978     		ldrb	r1, [r3]	@ zero_extendqisi2
 442 00e6 C9B2     		uxtb	r1, r1
 443 00e8 434B     		ldr	r3, .L41+4
 444 00ea 1A78     		ldrb	r2, [r3]	@ zero_extendqisi2
 445 00ec 013A     		subs	r2, r2, #1
 446 00ee 9140     		lsls	r1, r1, r2
 447 00f0 454A     		ldr	r2, .L41+20
 448 00f2 1078     		ldrb	r0, [r2]	@ zero_extendqisi2
 449 00f4 0143     		orrs	r1, r1, r0
 450 00f6 C9B2     		uxtb	r1, r1
 451 00f8 1170     		strb	r1, [r2]
 170:.\mouse_b.c   ****                 bit_count_b++;
 452              		.loc 1 170 0
 453 00fa 1A78     		ldrb	r2, [r3]	@ zero_extendqisi2
 454 00fc 0132     		adds	r2, r2, #1
 455 00fe D2B2     		uxtb	r2, r2
ARM GAS  C:\Users\xavieran\AppData\Local\Temp\ccEM1sTP.s 			page 12


 456 0100 1A70     		strb	r2, [r3]
 457 0102 6FE0     		b	.L24
 458              	.L32:
 171:.\mouse_b.c   ****             } else if (bit_count_b == 9){
 459              		.loc 1 171 0
 460 0104 3C4B     		ldr	r3, .L41+4
 461 0106 1B78     		ldrb	r3, [r3]	@ zero_extendqisi2
 462 0108 DBB2     		uxtb	r3, r3
 463 010a 092B     		cmp	r3, #9
 464 010c 05D1     		bne	.L33
 172:.\mouse_b.c   ****                 bit_count_b++;
 465              		.loc 1 172 0
 466 010e 3A4B     		ldr	r3, .L41+4
 467 0110 1A78     		ldrb	r2, [r3]	@ zero_extendqisi2
 468 0112 0132     		adds	r2, r2, #1
 469 0114 D2B2     		uxtb	r2, r2
 470 0116 1A70     		strb	r2, [r3]
 471 0118 64E0     		b	.L24
 472              	.L33:
 173:.\mouse_b.c   ****             } else if (bit_count_b == 10){
 473              		.loc 1 173 0
 474 011a 374B     		ldr	r3, .L41+4
 475 011c 1B78     		ldrb	r3, [r3]	@ zero_extendqisi2
 476 011e DBB2     		uxtb	r3, r3
 477 0120 0A2B     		cmp	r3, #10
 478 0122 5FD1     		bne	.L24
 174:.\mouse_b.c   ****                 bit_count_b = 0;
 479              		.loc 1 174 0
 480 0124 0022     		movs	r2, #0
 481 0126 344B     		ldr	r3, .L41+4
 482 0128 1A70     		strb	r2, [r3]
 175:.\mouse_b.c   ****                 state_b = S_MOVY_START;
 483              		.loc 1 175 0
 484 012a 0222     		movs	r2, #2
 485 012c 344B     		ldr	r3, .L41+12
 486 012e 1A70     		strb	r2, [r3]
 487 0130 58E0     		b	.L24
 488              	.L27:
 176:.\mouse_b.c   ****             }
 177:.\mouse_b.c   ****             break;
 178:.\mouse_b.c   ****             
 179:.\mouse_b.c   ****         case S_MOVY_START:
 180:.\mouse_b.c   ****              if (bit_count_b == 0){
 489              		.loc 1 180 0
 490 0132 314B     		ldr	r3, .L41+4
 491 0134 1B78     		ldrb	r3, [r3]	@ zero_extendqisi2
 492 0136 13F0FF0F 		tst	r3, #255
 493 013a 05D1     		bne	.L34
 181:.\mouse_b.c   ****                 bit_count_b++;
 494              		.loc 1 181 0
 495 013c 2E4B     		ldr	r3, .L41+4
 496 013e 1A78     		ldrb	r2, [r3]	@ zero_extendqisi2
 497 0140 0132     		adds	r2, r2, #1
 498 0142 D2B2     		uxtb	r2, r2
 499 0144 1A70     		strb	r2, [r3]
 500 0146 4DE0     		b	.L24
 501              	.L34:
ARM GAS  C:\Users\xavieran\AppData\Local\Temp\ccEM1sTP.s 			page 13


 182:.\mouse_b.c   ****             } else if (bit_count_b < 9){
 502              		.loc 1 182 0
 503 0148 2B4B     		ldr	r3, .L41+4
 504 014a 1B78     		ldrb	r3, [r3]	@ zero_extendqisi2
 505 014c DBB2     		uxtb	r3, r3
 506 014e 082B     		cmp	r3, #8
 507 0150 10D8     		bhi	.L35
 183:.\mouse_b.c   ****                 mov_y_b |= (bit_b << (bit_count_b - 1));
 508              		.loc 1 183 0
 509 0152 2A4B     		ldr	r3, .L41+8
 510 0154 1978     		ldrb	r1, [r3]	@ zero_extendqisi2
 511 0156 C9B2     		uxtb	r1, r1
 512 0158 274B     		ldr	r3, .L41+4
 513 015a 1A78     		ldrb	r2, [r3]	@ zero_extendqisi2
 514 015c 013A     		subs	r2, r2, #1
 515 015e 9140     		lsls	r1, r1, r2
 516 0160 2A4A     		ldr	r2, .L41+24
 517 0162 1078     		ldrb	r0, [r2]	@ zero_extendqisi2
 518 0164 0143     		orrs	r1, r1, r0
 519 0166 C9B2     		uxtb	r1, r1
 520 0168 1170     		strb	r1, [r2]
 184:.\mouse_b.c   ****                 bit_count_b++;
 521              		.loc 1 184 0
 522 016a 1A78     		ldrb	r2, [r3]	@ zero_extendqisi2
 523 016c 0132     		adds	r2, r2, #1
 524 016e D2B2     		uxtb	r2, r2
 525 0170 1A70     		strb	r2, [r3]
 526 0172 37E0     		b	.L24
 527              	.L35:
 185:.\mouse_b.c   ****             } else if (bit_count_b == 9){
 528              		.loc 1 185 0
 529 0174 204B     		ldr	r3, .L41+4
 530 0176 1B78     		ldrb	r3, [r3]	@ zero_extendqisi2
 531 0178 DBB2     		uxtb	r3, r3
 532 017a 092B     		cmp	r3, #9
 533 017c 05D1     		bne	.L36
 186:.\mouse_b.c   ****                 bit_count_b++;
 534              		.loc 1 186 0
 535 017e 1E4B     		ldr	r3, .L41+4
 536 0180 1A78     		ldrb	r2, [r3]	@ zero_extendqisi2
 537 0182 0132     		adds	r2, r2, #1
 538 0184 D2B2     		uxtb	r2, r2
 539 0186 1A70     		strb	r2, [r3]
 540 0188 2CE0     		b	.L24
 541              	.L36:
 187:.\mouse_b.c   ****             } else if (bit_count_b == 10){
 542              		.loc 1 187 0
 543 018a 1B4B     		ldr	r3, .L41+4
 544 018c 1B78     		ldrb	r3, [r3]	@ zero_extendqisi2
 545 018e DBB2     		uxtb	r3, r3
 546 0190 0A2B     		cmp	r3, #10
 547 0192 27D1     		bne	.L24
 188:.\mouse_b.c   ****                 if (status_b & 0x10){ //X sign bit is set -- moving left
 548              		.loc 1 188 0
 549 0194 1B4B     		ldr	r3, .L41+16
 550 0196 1B78     		ldrb	r3, [r3]	@ zero_extendqisi2
 551 0198 13F0100F 		tst	r3, #16
ARM GAS  C:\Users\xavieran\AppData\Local\Temp\ccEM1sTP.s 			page 14


 552 019c 07D0     		beq	.L37
 189:.\mouse_b.c   ****                     loc_x_b -= (255 - mov_x_b);
 553              		.loc 1 189 0
 554 019e 1A4B     		ldr	r3, .L41+20
 555 01a0 1978     		ldrb	r1, [r3]	@ zero_extendqisi2
 556 01a2 FF39     		subs	r1, r1, #255
 557 01a4 1A4B     		ldr	r3, .L41+28
 558 01a6 1A68     		ldr	r2, [r3]
 559 01a8 0A44     		add	r2, r2, r1
 560 01aa 1A60     		str	r2, [r3]
 561 01ac 05E0     		b	.L38
 562              	.L37:
 190:.\mouse_b.c   ****                 } else {
 191:.\mouse_b.c   ****                     loc_x_b += mov_x_b;
 563              		.loc 1 191 0
 564 01ae 164B     		ldr	r3, .L41+20
 565 01b0 1978     		ldrb	r1, [r3]	@ zero_extendqisi2
 566 01b2 174B     		ldr	r3, .L41+28
 567 01b4 1A68     		ldr	r2, [r3]
 568 01b6 0A44     		add	r2, r2, r1
 569 01b8 1A60     		str	r2, [r3]
 570              	.L38:
 192:.\mouse_b.c   ****                 }
 193:.\mouse_b.c   ****                 
 194:.\mouse_b.c   ****                 if (status_b & 0x20){ //Y sign bit is set -- moving down
 571              		.loc 1 194 0
 572 01ba 124B     		ldr	r3, .L41+16
 573 01bc 1B78     		ldrb	r3, [r3]	@ zero_extendqisi2
 574 01be 13F0200F 		tst	r3, #32
 575 01c2 07D0     		beq	.L39
 195:.\mouse_b.c   ****                     loc_y_b -= (255 - mov_y_b);
 576              		.loc 1 195 0
 577 01c4 114B     		ldr	r3, .L41+24
 578 01c6 1978     		ldrb	r1, [r3]	@ zero_extendqisi2
 579 01c8 FF39     		subs	r1, r1, #255
 580 01ca 124B     		ldr	r3, .L41+32
 581 01cc 1A68     		ldr	r2, [r3]
 582 01ce 0A44     		add	r2, r2, r1
 583 01d0 1A60     		str	r2, [r3]
 584 01d2 05E0     		b	.L40
 585              	.L39:
 196:.\mouse_b.c   ****                 } else {
 197:.\mouse_b.c   ****                     loc_y_b += mov_y_b;
 586              		.loc 1 197 0
 587 01d4 0D4B     		ldr	r3, .L41+24
 588 01d6 1978     		ldrb	r1, [r3]	@ zero_extendqisi2
 589 01d8 0E4B     		ldr	r3, .L41+32
 590 01da 1A68     		ldr	r2, [r3]
 591 01dc 0A44     		add	r2, r2, r1
 592 01de 1A60     		str	r2, [r3]
 593              	.L40:
 198:.\mouse_b.c   ****                 }
 199:.\mouse_b.c   ****                 
 200:.\mouse_b.c   ****                 reset_sclk_b_isr();
 594              		.loc 1 200 0
 595 01e0 FFF7FEFF 		bl	reset_sclk_b_isr
 596              	.LVL47:
ARM GAS  C:\Users\xavieran\AppData\Local\Temp\ccEM1sTP.s 			page 15


 597              	.L24:
 201:.\mouse_b.c   ****             }
 202:.\mouse_b.c   ****             break;
 203:.\mouse_b.c   ****     }
 204:.\mouse_b.c   ****    
 205:.\mouse_b.c   ****     time_prev_b = Timer_ReadCounter(); 
 598              		.loc 1 205 0
 599 01e4 FFF7FEFF 		bl	Timer_ReadCounter
 600              	.LVL48:
 601 01e8 024B     		ldr	r3, .L41
 602 01ea 1860     		str	r0, [r3]
 206:.\mouse_b.c   ****     SCLK_B_ClearInterrupt();
 603              		.loc 1 206 0
 604 01ec FFF7FEFF 		bl	SCLK_B_ClearInterrupt
 605              	.LVL49:
 606 01f0 10BD     		pop	{r4, pc}
 607              	.L42:
 608 01f2 00BF     		.align	2
 609              	.L41:
 610 01f4 00000000 		.word	time_prev_b
 611 01f8 00000000 		.word	bit_count_b
 612 01fc 00000000 		.word	bit_b
 613 0200 00000000 		.word	state_b
 614 0204 00000000 		.word	status_b
 615 0208 00000000 		.word	mov_x_b
 616 020c 00000000 		.word	mov_y_b
 617 0210 00000000 		.word	loc_x_b
 618 0214 00000000 		.word	loc_y_b
 619              		.cfi_endproc
 620              	.LFE66:
 621              		.size	MY_SCLK_B_ISR, .-MY_SCLK_B_ISR
 622              		.comm	time_prev_b,4,4
 623              		.comm	data_ready_b,1,1
 624              		.comm	mov_y_b,1,1
 625              		.comm	mov_x_b,1,1
 626              		.comm	status_b,1,1
 627              		.comm	bit_b,1,1
 628              		.comm	bit_count_b,1,1
 629              		.comm	state_b,1,1
 630              		.comm	OV9650_1_framebuffer,50688,4
 631              		.text
 632              	.Letext0:
 633              		.file 2 "c:\\program files (x86)\\cypress\\psoc creator\\3.2\\psoc creator\\import\\gnu\\arm\\4.8.
 634              		.file 3 "c:\\program files (x86)\\cypress\\psoc creator\\3.2\\psoc creator\\import\\gnu\\arm\\4.8.
 635              		.file 4 "Generated_Source\\PSoC5/cytypes.h"
 636              		.file 5 "Generated_Source\\PSoC5/core_cm3.h"
 637              		.file 6 "Generated_Source\\PSoC5/OV9650_1.h"
 638              		.file 7 "Generated_Source\\PSoC5/SDAT_B.h"
 639              		.file 8 "Generated_Source\\PSoC5/SCLK_B.h"
 640              		.file 9 "Generated_Source\\PSoC5/CyLib.h"
 641              		.file 10 "Generated_Source\\PSoC5/Timer.h"