ARM GAS  C:\Users\xavieran\AppData\Local\Temp\ccEUgzek.s 			page 1


   1              		.syntax unified
   2              		.cpu cortex-m3
   3              		.fpu softvfp
   4              		.eabi_attribute 20, 1
   5              		.eabi_attribute 21, 1
   6              		.eabi_attribute 23, 3
   7              		.eabi_attribute 24, 1
   8              		.eabi_attribute 25, 1
   9              		.eabi_attribute 26, 1
  10              		.eabi_attribute 30, 1
  11              		.eabi_attribute 34, 1
  12              		.eabi_attribute 18, 4
  13              		.thumb
  14              		.file	"my_camera_functions.c"
  15              		.text
  16              	.Ltext0:
  17              		.cfi_sections	.debug_frame
  18              		.section	.text.init_camera,"ax",%progbits
  19              		.align	2
  20              		.global	init_camera
  21              		.thumb
  22              		.thumb_func
  23              		.type	init_camera, %function
  24              	init_camera:
  25              	.LFB63:
  26              		.file 1 ".\\my_camera_functions.c"
   1:.\my_camera_functions.c **** /* ========================================
   2:.\my_camera_functions.c ****  *
   3:.\my_camera_functions.c ****  * Copyright YOUR COMPANY, THE YEAR
   4:.\my_camera_functions.c ****  * All Rights Reserved
   5:.\my_camera_functions.c ****  * UNPUBLISHED, LICENSED SOFTWARE.
   6:.\my_camera_functions.c ****  *
   7:.\my_camera_functions.c ****  * CONFIDENTIAL AND PROPRIETARY INFORMATION
   8:.\my_camera_functions.c ****  * WHICH IS THE PROPERTY OF your company.
   9:.\my_camera_functions.c ****  *
  10:.\my_camera_functions.c ****  * ========================================
  11:.\my_camera_functions.c **** */
  12:.\my_camera_functions.c **** #include <project.h>
  13:.\my_camera_functions.c **** #include <my_camera_functions.h>
  14:.\my_camera_functions.c **** #include <blob_stats.h>
  15:.\my_camera_functions.c **** 
  16:.\my_camera_functions.c **** 
  17:.\my_camera_functions.c **** uint8 RED_U= 122;//116;
  18:.\my_camera_functions.c **** uint8 RED_V= 150;//140;//162;
  19:.\my_camera_functions.c **** uint8 GREEN_U= 130;//128;
  20:.\my_camera_functions.c **** uint8 GREEN_V= 120;//102;
  21:.\my_camera_functions.c **** uint8 BLUE_U= 140;//138;//162;
  22:.\my_camera_functions.c **** uint8 BLUE_V= 116;//124;//116;
  23:.\my_camera_functions.c **** 
  24:.\my_camera_functions.c **** extern blob *blobs;
  25:.\my_camera_functions.c **** 
  26:.\my_camera_functions.c **** void init_camera()
  27:.\my_camera_functions.c **** {
  27              		.loc 1 27 0
  28              		.cfi_startproc
  29              		@ args = 0, pretend = 0, frame = 0
  30              		@ frame_needed = 0, uses_anonymous_args = 0
ARM GAS  C:\Users\xavieran\AppData\Local\Temp\ccEUgzek.s 			page 2


  31 0000 08B5     		push	{r3, lr}
  32              		.cfi_def_cfa_offset 8
  33              		.cfi_offset 3, -8
  34              		.cfi_offset 14, -4
  28:.\my_camera_functions.c **** 	Camera_Start();
  35              		.loc 1 28 0
  36 0002 FFF7FEFF 		bl	Camera_Start
  37              	.LVL0:
  29:.\my_camera_functions.c ****     LCD_ClearDisplay();
  38              		.loc 1 29 0
  39 0006 0120     		movs	r0, #1
  40 0008 FFF7FEFF 		bl	LCD_WriteControl
  41              	.LVL1:
  30:.\my_camera_functions.c ****     LCD_PosPrintString(0,0,"Camera Actualy");
  42              		.loc 1 30 0
  43 000c 0020     		movs	r0, #0
  44 000e 0146     		mov	r1, r0
  45 0010 FFF7FEFF 		bl	LCD_Position
  46              	.LVL2:
  47 0014 1748     		ldr	r0, .L2
  48 0016 FFF7FEFF 		bl	LCD_PrintString
  49              	.LVL3:
  31:.\my_camera_functions.c ****     Camera_WriteReg(0x1E,0b00000000); //Flip Image
  50              		.loc 1 31 0
  51 001a 1E20     		movs	r0, #30
  52 001c 0021     		movs	r1, #0
  53 001e FFF7FEFF 		bl	Camera_WriteReg
  54              	.LVL4:
  32:.\my_camera_functions.c ****     Camera_WriteReg(0x13,0b11100111); //Enable Auto Gain, WB, Exposure
  55              		.loc 1 32 0
  56 0022 1320     		movs	r0, #19
  57 0024 E721     		movs	r1, #231
  58 0026 FFF7FEFF 		bl	Camera_WriteReg
  59              	.LVL5:
  33:.\my_camera_functions.c ****     Camera_SyncFrame();
  60              		.loc 1 33 0
  61 002a FFF7FEFF 		bl	Camera_SyncFrame
  62              	.LVL6:
  34:.\my_camera_functions.c ****     LCD_PosPrintString(0,0,"Frame Sync Done");
  63              		.loc 1 34 0
  64 002e 0020     		movs	r0, #0
  65 0030 0146     		mov	r1, r0
  66 0032 FFF7FEFF 		bl	LCD_Position
  67              	.LVL7:
  68 0036 1048     		ldr	r0, .L2+4
  69 0038 FFF7FEFF 		bl	LCD_PrintString
  70              	.LVL8:
  35:.\my_camera_functions.c **** 	Camera_GetFrame(); //start frame capture
  71              		.loc 1 35 0
  72 003c FFF7FEFF 		bl	Camera_GetFrame
  73              	.LVL9:
  36:.\my_camera_functions.c ****     LCD_PosPrintString(0,0,"Getting Frame!!");
  74              		.loc 1 36 0
  75 0040 0020     		movs	r0, #0
  76 0042 0146     		mov	r1, r0
  77 0044 FFF7FEFF 		bl	LCD_Position
  78              	.LVL10:
ARM GAS  C:\Users\xavieran\AppData\Local\Temp\ccEUgzek.s 			page 3


  79 0048 0C48     		ldr	r0, .L2+8
  80 004a FFF7FEFF 		bl	LCD_PrintString
  81              	.LVL11:
  37:.\my_camera_functions.c **** 	Camera_SyncFrame(); //wait until frame is fully captured before sending out over USB
  82              		.loc 1 37 0
  83 004e FFF7FEFF 		bl	Camera_SyncFrame
  84              	.LVL12:
  38:.\my_camera_functions.c ****     Camera_WriteReg(0x13,0b11100000);
  85              		.loc 1 38 0
  86 0052 1320     		movs	r0, #19
  87 0054 E021     		movs	r1, #224
  88 0056 FFF7FEFF 		bl	Camera_WriteReg
  89              	.LVL13:
  39:.\my_camera_functions.c **** 	Camera_WriteReg(0x3F,0b00101111); // Edge Enhancement Factor and Threshold
  90              		.loc 1 39 0
  91 005a 3F20     		movs	r0, #63
  92 005c 2F21     		movs	r1, #47
  93 005e FFF7FEFF 		bl	Camera_WriteReg
  94              	.LVL14:
  40:.\my_camera_functions.c ****     Camera_WriteReg(0x3E,0b00000011); // Edge Enhancement Control
  95              		.loc 1 40 0
  96 0062 3E20     		movs	r0, #62
  97 0064 0321     		movs	r1, #3
  98 0066 FFF7FEFF 		bl	Camera_WriteReg
  99              	.LVL15:
  41:.\my_camera_functions.c ****     Camera_WriteReg(0x8C,0b10100000); // Denoise
 100              		.loc 1 41 0
 101 006a 8C20     		movs	r0, #140
 102 006c A021     		movs	r1, #160
 103 006e FFF7FEFF 		bl	Camera_WriteReg
 104              	.LVL16:
 105 0072 08BD     		pop	{r3, pc}
 106              	.L3:
 107              		.align	2
 108              	.L2:
 109 0074 00000000 		.word	.LC0
 110 0078 10000000 		.word	.LC1
 111 007c 20000000 		.word	.LC2
 112              		.cfi_endproc
 113              	.LFE63:
 114              		.size	init_camera, .-init_camera
 115              		.section	.text.capture_image,"ax",%progbits
 116              		.align	2
 117              		.global	capture_image
 118              		.thumb
 119              		.thumb_func
 120              		.type	capture_image, %function
 121              	capture_image:
 122              	.LFB64:
  42:.\my_camera_functions.c **** }
  43:.\my_camera_functions.c **** 
  44:.\my_camera_functions.c **** void capture_image()
  45:.\my_camera_functions.c **** {
 123              		.loc 1 45 0
 124              		.cfi_startproc
 125              		@ args = 0, pretend = 0, frame = 0
 126              		@ frame_needed = 0, uses_anonymous_args = 0
ARM GAS  C:\Users\xavieran\AppData\Local\Temp\ccEUgzek.s 			page 4


 127 0000 08B5     		push	{r3, lr}
 128              		.cfi_def_cfa_offset 8
 129              		.cfi_offset 3, -8
 130              		.cfi_offset 14, -4
  46:.\my_camera_functions.c **** 	Camera_SyncFrame();
 131              		.loc 1 46 0
 132 0002 FFF7FEFF 		bl	Camera_SyncFrame
 133              	.LVL17:
  47:.\my_camera_functions.c **** 	Camera_GetFrame();
 134              		.loc 1 47 0
 135 0006 FFF7FEFF 		bl	Camera_GetFrame
 136              	.LVL18:
  48:.\my_camera_functions.c **** 	Camera_SyncFrame();
 137              		.loc 1 48 0
 138 000a FFF7FEFF 		bl	Camera_SyncFrame
 139              	.LVL19:
 140 000e 08BD     		pop	{r3, pc}
 141              		.cfi_endproc
 142              	.LFE64:
 143              		.size	capture_image, .-capture_image
 144              		.section	.text.set_gain_exposure,"ax",%progbits
 145              		.align	2
 146              		.global	set_gain_exposure
 147              		.thumb
 148              		.thumb_func
 149              		.type	set_gain_exposure, %function
 150              	set_gain_exposure:
 151              	.LFB66:
  49:.\my_camera_functions.c **** }
  50:.\my_camera_functions.c **** 
  51:.\my_camera_functions.c **** void capture_thresh_image()
  52:.\my_camera_functions.c **** {
  53:.\my_camera_functions.c **** 	Camera_SyncFrame();
  54:.\my_camera_functions.c **** 	Camera_GetFrame();
  55:.\my_camera_functions.c **** 	Camera_SyncFrame();
  56:.\my_camera_functions.c **** 	threshold_image();
  57:.\my_camera_functions.c **** 	blob_detect();
  58:.\my_camera_functions.c **** }
  59:.\my_camera_functions.c **** 
  60:.\my_camera_functions.c **** void set_gain_exposure(int setting)
  61:.\my_camera_functions.c **** {
 152              		.loc 1 61 0
 153              		.cfi_startproc
 154              		@ args = 0, pretend = 0, frame = 0
 155              		@ frame_needed = 0, uses_anonymous_args = 0
 156              	.LVL20:
 157 0000 08B5     		push	{r3, lr}
 158              		.cfi_def_cfa_offset 8
 159              		.cfi_offset 3, -8
 160              		.cfi_offset 14, -4
  62:.\my_camera_functions.c **** 	switch(setting)
 161              		.loc 1 62 0
 162 0002 0228     		cmp	r0, #2
 163 0004 0CD0     		beq	.L7
 164 0006 0328     		cmp	r0, #3
 165 0008 13D0     		beq	.L8
 166 000a 0128     		cmp	r0, #1
ARM GAS  C:\Users\xavieran\AppData\Local\Temp\ccEUgzek.s 			page 5


 167 000c 1AD1     		bne	.L11
  63:.\my_camera_functions.c **** 	{
  64:.\my_camera_functions.c **** 		case 1:
  65:.\my_camera_functions.c **** 			// Settings for Instructions
  66:.\my_camera_functions.c **** 			Camera_WriteReg(0x10,65);
 168              		.loc 1 66 0
 169 000e 1020     		movs	r0, #16
 170              	.LVL21:
 171 0010 4121     		movs	r1, #65
 172 0012 FFF7FEFF 		bl	Camera_WriteReg
 173              	.LVL22:
  67:.\my_camera_functions.c **** 			Camera_WriteReg(0x00,60);
 174              		.loc 1 67 0
 175 0016 0020     		movs	r0, #0
 176 0018 3C21     		movs	r1, #60
 177 001a FFF7FEFF 		bl	Camera_WriteReg
 178              	.LVL23:
  68:.\my_camera_functions.c **** 			break;
 179              		.loc 1 68 0
 180 001e 08BD     		pop	{r3, pc}
 181              	.LVL24:
 182              	.L7:
  69:.\my_camera_functions.c **** 		case 2:
  70:.\my_camera_functions.c **** 			// Settings for arena 1
  71:.\my_camera_functions.c **** 			Camera_WriteReg(0x10,30);
 183              		.loc 1 71 0
 184 0020 1020     		movs	r0, #16
 185              	.LVL25:
 186 0022 1E21     		movs	r1, #30
 187 0024 FFF7FEFF 		bl	Camera_WriteReg
 188              	.LVL26:
  72:.\my_camera_functions.c **** 			Camera_WriteReg(0x00,25);
 189              		.loc 1 72 0
 190 0028 0020     		movs	r0, #0
 191 002a 1921     		movs	r1, #25
 192 002c FFF7FEFF 		bl	Camera_WriteReg
 193              	.LVL27:
  73:.\my_camera_functions.c **** 			break;
 194              		.loc 1 73 0
 195 0030 08BD     		pop	{r3, pc}
 196              	.LVL28:
 197              	.L8:
  74:.\my_camera_functions.c **** 		case 3:
  75:.\my_camera_functions.c **** 			// Settings for arena 2
  76:.\my_camera_functions.c **** 			Camera_WriteReg(0x10,48);
 198              		.loc 1 76 0
 199 0032 1020     		movs	r0, #16
 200              	.LVL29:
 201 0034 3021     		movs	r1, #48
 202 0036 FFF7FEFF 		bl	Camera_WriteReg
 203              	.LVL30:
  77:.\my_camera_functions.c **** 			Camera_WriteReg(0x00,25);
 204              		.loc 1 77 0
 205 003a 0020     		movs	r0, #0
 206 003c 1921     		movs	r1, #25
 207 003e FFF7FEFF 		bl	Camera_WriteReg
 208              	.LVL31:
ARM GAS  C:\Users\xavieran\AppData\Local\Temp\ccEUgzek.s 			page 6


  78:.\my_camera_functions.c **** 			break;
 209              		.loc 1 78 0
 210 0042 08BD     		pop	{r3, pc}
 211              	.LVL32:
 212              	.L11:
  79:.\my_camera_functions.c **** 		default:
  80:.\my_camera_functions.c **** 			Camera_WriteReg(0x10,0);
 213              		.loc 1 80 0
 214 0044 1020     		movs	r0, #16
 215              	.LVL33:
 216 0046 0021     		movs	r1, #0
 217 0048 FFF7FEFF 		bl	Camera_WriteReg
 218              	.LVL34:
  81:.\my_camera_functions.c **** 			Camera_WriteReg(0x10,0);
 219              		.loc 1 81 0
 220 004c 1020     		movs	r0, #16
 221 004e 0021     		movs	r1, #0
 222 0050 FFF7FEFF 		bl	Camera_WriteReg
 223              	.LVL35:
 224 0054 08BD     		pop	{r3, pc}
 225              		.cfi_endproc
 226              	.LFE66:
 227              		.size	set_gain_exposure, .-set_gain_exposure
 228 0056 00BF     		.section	.text.PixelColour,"ax",%progbits
 229              		.align	2
 230              		.global	PixelColour
 231              		.thumb
 232              		.thumb_func
 233              		.type	PixelColour, %function
 234              	PixelColour:
 235              	.LFB67:
  82:.\my_camera_functions.c **** 			break;
  83:.\my_camera_functions.c **** 	}
  84:.\my_camera_functions.c **** }
  85:.\my_camera_functions.c **** 
  86:.\my_camera_functions.c ****     
  87:.\my_camera_functions.c ****     
  88:.\my_camera_functions.c **** uint8 PixelColour(uint8 x,uint8 y) //colour of pixel at (x,y)
  89:.\my_camera_functions.c **** {
 236              		.loc 1 89 0
 237              		.cfi_startproc
 238              		@ args = 0, pretend = 0, frame = 0
 239              		@ frame_needed = 0, uses_anonymous_args = 0
 240              		@ link register save eliminated.
 241              	.LVL36:
 242 0000 10B4     		push	{r4}
 243              		.cfi_def_cfa_offset 4
 244              		.cfi_offset 4, -4
  90:.\my_camera_functions.c ****     if(Camera_framebuffer[y][x][0]<RED_U   && Camera_framebuffer[y][x][2]>=RED_V)  return RED;
 245              		.loc 1 90 0
 246 0002 5822     		movs	r2, #88
 247 0004 02FB0102 		mla	r2, r2, r1, r0
 248 0008 1D4B     		ldr	r3, .L20
 249 000a 13F82230 		ldrb	r3, [r3, r2, lsl #2]	@ zero_extendqisi2
 250 000e 1D4A     		ldr	r2, .L20+4
 251 0010 1278     		ldrb	r2, [r2]	@ zero_extendqisi2
 252 0012 9342     		cmp	r3, r2
ARM GAS  C:\Users\xavieran\AppData\Local\Temp\ccEUgzek.s 			page 7


 253 0014 0AD2     		bcs	.L13
 254              		.loc 1 90 0 is_stmt 0 discriminator 1
 255 0016 5822     		movs	r2, #88
 256 0018 02FB0102 		mla	r2, r2, r1, r0
 257 001c 184C     		ldr	r4, .L20
 258 001e 04EB8202 		add	r2, r4, r2, lsl #2
 259 0022 9478     		ldrb	r4, [r2, #2]	@ zero_extendqisi2
 260 0024 174A     		ldr	r2, .L20+4
 261 0026 5278     		ldrb	r2, [r2, #1]	@ zero_extendqisi2
 262 0028 9442     		cmp	r4, r2
 263 002a 1FD2     		bcs	.L16
 264              	.L13:
  91:.\my_camera_functions.c ****     if(Camera_framebuffer[y][x][0]<GREEN_U && Camera_framebuffer[y][x][2]<GREEN_V) return GREEN;
 265              		.loc 1 91 0 is_stmt 1
 266 002c 154A     		ldr	r2, .L20+4
 267 002e 9278     		ldrb	r2, [r2, #2]	@ zero_extendqisi2
 268 0030 9342     		cmp	r3, r2
 269 0032 0AD2     		bcs	.L15
 270              		.loc 1 91 0 is_stmt 0 discriminator 1
 271 0034 5822     		movs	r2, #88
 272 0036 02FB0102 		mla	r2, r2, r1, r0
 273 003a 114C     		ldr	r4, .L20
 274 003c 04EB8202 		add	r2, r4, r2, lsl #2
 275 0040 9478     		ldrb	r4, [r2, #2]	@ zero_extendqisi2
 276 0042 104A     		ldr	r2, .L20+4
 277 0044 D278     		ldrb	r2, [r2, #3]	@ zero_extendqisi2
 278 0046 9442     		cmp	r4, r2
 279 0048 12D3     		bcc	.L17
 280              	.L15:
  92:.\my_camera_functions.c ****     if(Camera_framebuffer[y][x][0]>=BLUE_U && Camera_framebuffer[y][x][2]<BLUE_V)  return BLUE;
 281              		.loc 1 92 0 is_stmt 1
 282 004a 0E4A     		ldr	r2, .L20+4
 283 004c 1279     		ldrb	r2, [r2, #4]	@ zero_extendqisi2
 284 004e 9342     		cmp	r3, r2
 285 0050 10D3     		bcc	.L18
 286              		.loc 1 92 0 is_stmt 0 discriminator 1
 287 0052 5823     		movs	r3, #88
 288 0054 03FB0101 		mla	r1, r3, r1, r0
 289              	.LVL37:
 290 0058 094B     		ldr	r3, .L20
 291 005a 03EB8101 		add	r1, r3, r1, lsl #2
 292 005e 8A78     		ldrb	r2, [r1, #2]	@ zero_extendqisi2
 293 0060 084B     		ldr	r3, .L20+4
 294 0062 5B79     		ldrb	r3, [r3, #5]	@ zero_extendqisi2
 295 0064 9A42     		cmp	r2, r3
 296 0066 07D3     		bcc	.L19
  93:.\my_camera_functions.c ****     return NONE;
 297              		.loc 1 93 0 is_stmt 1
 298 0068 0020     		movs	r0, #0
 299              	.LVL38:
 300 006a 06E0     		b	.L14
 301              	.LVL39:
 302              	.L16:
  90:.\my_camera_functions.c ****     if(Camera_framebuffer[y][x][0]<RED_U   && Camera_framebuffer[y][x][2]>=RED_V)  return RED;
 303              		.loc 1 90 0
 304 006c 0120     		movs	r0, #1
 305              	.LVL40:
ARM GAS  C:\Users\xavieran\AppData\Local\Temp\ccEUgzek.s 			page 8


 306 006e 04E0     		b	.L14
 307              	.LVL41:
 308              	.L17:
  91:.\my_camera_functions.c ****     if(Camera_framebuffer[y][x][0]<GREEN_U && Camera_framebuffer[y][x][2]<GREEN_V) return GREEN;
 309              		.loc 1 91 0
 310 0070 0220     		movs	r0, #2
 311              	.LVL42:
 312 0072 02E0     		b	.L14
 313              	.LVL43:
 314              	.L18:
 315              		.loc 1 93 0
 316 0074 0020     		movs	r0, #0
 317              	.LVL44:
 318 0076 00E0     		b	.L14
 319              	.LVL45:
 320              	.L19:
  92:.\my_camera_functions.c ****     if(Camera_framebuffer[y][x][0]>=BLUE_U && Camera_framebuffer[y][x][2]<BLUE_V)  return BLUE;
 321              		.loc 1 92 0
 322 0078 0320     		movs	r0, #3
 323              	.LVL46:
 324              	.L14:
  94:.\my_camera_functions.c **** }
 325              		.loc 1 94 0
 326 007a 5DF8044B 		ldr	r4, [sp], #4
 327 007e 7047     		bx	lr
 328              	.L21:
 329              		.align	2
 330              	.L20:
 331 0080 00000000 		.word	Camera_framebuffer
 332 0084 00000000 		.word	.LANCHOR0
 333              		.cfi_endproc
 334              	.LFE67:
 335              		.size	PixelColour, .-PixelColour
 336              		.section	.text.threshold_image,"ax",%progbits
 337              		.align	2
 338              		.global	threshold_image
 339              		.thumb
 340              		.thumb_func
 341              		.type	threshold_image, %function
 342              	threshold_image:
 343              	.LFB68:
  95:.\my_camera_functions.c **** 
  96:.\my_camera_functions.c **** 
  97:.\my_camera_functions.c **** 
  98:.\my_camera_functions.c **** //Camera_framebuffer[0][0] 
  99:.\my_camera_functions.c **** void threshold_image()
 100:.\my_camera_functions.c **** {
 344              		.loc 1 100 0
 345              		.cfi_startproc
 346              		@ args = 0, pretend = 0, frame = 32
 347              		@ frame_needed = 0, uses_anonymous_args = 0
 348 0000 2DE9F04F 		push	{r4, r5, r6, r7, r8, r9, r10, fp, lr}
 349              		.cfi_def_cfa_offset 36
 350              		.cfi_offset 4, -36
 351              		.cfi_offset 5, -32
 352              		.cfi_offset 6, -28
 353              		.cfi_offset 7, -24
ARM GAS  C:\Users\xavieran\AppData\Local\Temp\ccEUgzek.s 			page 9


 354              		.cfi_offset 8, -20
 355              		.cfi_offset 9, -16
 356              		.cfi_offset 10, -12
 357              		.cfi_offset 11, -8
 358              		.cfi_offset 14, -4
 359 0004 89B0     		sub	sp, sp, #36
 360              		.cfi_def_cfa_offset 72
 361              	.LVL47:
 101:.\my_camera_functions.c **** 	uint8 locals[8];
 102:.\my_camera_functions.c **** 	uint8 colours[4];
 103:.\my_camera_functions.c **** 	uint8 pixel;
 104:.\my_camera_functions.c ****     int y, x, i;
 105:.\my_camera_functions.c ****     
 106:.\my_camera_functions.c ****     
 107:.\my_camera_functions.c ****     
 108:.\my_camera_functions.c **** 	for(y = 0; y < 144; ++y)
 362              		.loc 1 108 0
 363 0006 0022     		movs	r2, #0
 364 0008 0192     		str	r2, [sp, #4]
 365 000a 1446     		mov	r4, r2
 109:.\my_camera_functions.c **** 	{
 110:.\my_camera_functions.c **** 		for(x = 0; x < 88; ++x)
 111:.\my_camera_functions.c **** 		{
 112:.\my_camera_functions.c ****             if(y == 0 || y == 143 || x == 0 || x == 87)
 113:.\my_camera_functions.c ****             {
 114:.\my_camera_functions.c ****                 Camera_framebuffer[y][x][0] = 127;       
 366              		.loc 1 114 0
 367 000c DFF898A1 		ldr	r10, .L38
 368 0010 4FF07F0B 		mov	fp, #127
 108:.\my_camera_functions.c **** 	for(y = 0; y < 144; ++y)
 369              		.loc 1 108 0
 370 0014 C1E0     		b	.L23
 371              	.LVL48:
 372              	.L35:
 112:.\my_camera_functions.c ****             if(y == 0 || y == 143 || x == 0 || x == 87)
 373              		.loc 1 112 0
 374 0016 019B     		ldr	r3, [sp, #4]
 375 0018 23B1     		cbz	r3, .L24
 112:.\my_camera_functions.c ****             if(y == 0 || y == 143 || x == 0 || x == 87)
 376              		.loc 1 112 0 is_stmt 0 discriminator 1
 377 001a 8F2B     		cmp	r3, #143
 378 001c 02D0     		beq	.L24
 379 001e 0DB1     		cbz	r5, .L24
 380 0020 572D     		cmp	r5, #87
 381 0022 0AD1     		bne	.L25
 382              	.L24:
 383              		.loc 1 114 0 is_stmt 1
 384 0024 039B     		ldr	r3, [sp, #12]
 385 0026 2B44     		add	r3, r3, r5
 386 0028 0AF823B0 		strb	fp, [r10, r3, lsl #2]
 115:.\my_camera_functions.c ****                 Camera_framebuffer[y][x][2] = 127;
 387              		.loc 1 115 0
 388 002c 0AEB8303 		add	r3, r10, r3, lsl #2
 389 0030 83F802B0 		strb	fp, [r3, #2]
 116:.\my_camera_functions.c ****                 Camera_framebuffer[y][x][1] = 0;
 390              		.loc 1 116 0
 391 0034 5C70     		strb	r4, [r3, #1]
ARM GAS  C:\Users\xavieran\AppData\Local\Temp\ccEUgzek.s 			page 10


 117:.\my_camera_functions.c ****                 Camera_framebuffer[y][x][3] = 0;
 392              		.loc 1 117 0
 393 0036 DC70     		strb	r4, [r3, #3]
 394 0038 96E0     		b	.L26
 395              	.L25:
 118:.\my_camera_functions.c ****             }
 119:.\my_camera_functions.c ****             else
 120:.\my_camera_functions.c ****             {
 121:.\my_camera_functions.c **** 			    locals[0] = PixelColour(x-1,y-1);
 396              		.loc 1 121 0
 397 003a EEB2     		uxtb	r6, r5
 398 003c 771E     		subs	r7, r6, #1
 399 003e FFB2     		uxtb	r7, r7
 400 0040 3846     		mov	r0, r7
 401 0042 4946     		mov	r1, r9
 402 0044 FFF7FEFF 		bl	PixelColour
 403              	.LVL49:
 404 0048 8DF81800 		strb	r0, [sp, #24]
 122:.\my_camera_functions.c **** 			    locals[1] = PixelColour(x-1,y);
 405              		.loc 1 122 0
 406 004c 3846     		mov	r0, r7
 407 004e 0299     		ldr	r1, [sp, #8]
 408 0050 FFF7FEFF 		bl	PixelColour
 409              	.LVL50:
 410 0054 8DF81900 		strb	r0, [sp, #25]
 123:.\my_camera_functions.c **** 			    locals[2] = PixelColour(x-1,y+1);
 411              		.loc 1 123 0
 412 0058 3846     		mov	r0, r7
 413 005a 4146     		mov	r1, r8
 414 005c FFF7FEFF 		bl	PixelColour
 415              	.LVL51:
 416 0060 8DF81A00 		strb	r0, [sp, #26]
 124:.\my_camera_functions.c **** 			    locals[3] = PixelColour(x,y-1);
 417              		.loc 1 124 0
 418 0064 3046     		mov	r0, r6
 419 0066 4946     		mov	r1, r9
 420 0068 FFF7FEFF 		bl	PixelColour
 421              	.LVL52:
 422 006c 8DF81B00 		strb	r0, [sp, #27]
 125:.\my_camera_functions.c **** 			    locals[4] = PixelColour(x,y+1);
 423              		.loc 1 125 0
 424 0070 3046     		mov	r0, r6
 425 0072 4146     		mov	r1, r8
 426 0074 FFF7FEFF 		bl	PixelColour
 427              	.LVL53:
 428 0078 8DF81C00 		strb	r0, [sp, #28]
 126:.\my_camera_functions.c **** 			    locals[5] = PixelColour(x+1,y-1);
 429              		.loc 1 126 0
 430 007c 0136     		adds	r6, r6, #1
 431 007e F6B2     		uxtb	r6, r6
 432 0080 3046     		mov	r0, r6
 433 0082 4946     		mov	r1, r9
 434 0084 FFF7FEFF 		bl	PixelColour
 435              	.LVL54:
 436 0088 8DF81D00 		strb	r0, [sp, #29]
 127:.\my_camera_functions.c **** 			    locals[6] = PixelColour(x+1,y);
 437              		.loc 1 127 0
ARM GAS  C:\Users\xavieran\AppData\Local\Temp\ccEUgzek.s 			page 11


 438 008c 3046     		mov	r0, r6
 439 008e 0299     		ldr	r1, [sp, #8]
 440 0090 FFF7FEFF 		bl	PixelColour
 441              	.LVL55:
 442 0094 8DF81E00 		strb	r0, [sp, #30]
 128:.\my_camera_functions.c **** 			    locals[7] = PixelColour(x+1,y+1);
 443              		.loc 1 128 0
 444 0098 3046     		mov	r0, r6
 445 009a 4146     		mov	r1, r8
 446 009c FFF7FEFF 		bl	PixelColour
 447              	.LVL56:
 448 00a0 8DF81F00 		strb	r0, [sp, #31]
 449              	.LVL57:
 129:.\my_camera_functions.c **** 			    for(i = 0; i < 8; ++i)
 450              		.loc 1 129 0
 451 00a4 2346     		mov	r3, r4
 452 00a6 1AE0     		b	.L27
 453              	.LVL58:
 454              	.L28:
 130:.\my_camera_functions.c ****     			{
 131:.\my_camera_functions.c **** 	    			colours[0] += locals[i] == NONE;
 455              		.loc 1 131 0 discriminator 2
 456 00a8 08AA     		add	r2, sp, #32
 457 00aa 1A44     		add	r2, r2, r3
 458 00ac 12F8082C 		ldrb	r2, [r2, #-8]	@ zero_extendqisi2
 132:.\my_camera_functions.c **** 		    		colours[1] += locals[i] == RED;
 459              		.loc 1 132 0 discriminator 2
 460 00b0 9DF81510 		ldrb	r1, [sp, #21]	@ zero_extendqisi2
 461 00b4 012A     		cmp	r2, #1
 462 00b6 08BF     		it	eq
 463 00b8 0131     		addeq	r1, r1, #1
 464 00ba 8DF81510 		strb	r1, [sp, #21]
 133:.\my_camera_functions.c **** 			    	colours[2] += locals[i] == GREEN;
 465              		.loc 1 133 0 discriminator 2
 466 00be 9DF81610 		ldrb	r1, [sp, #22]	@ zero_extendqisi2
 467 00c2 022A     		cmp	r2, #2
 468 00c4 08BF     		it	eq
 469 00c6 0131     		addeq	r1, r1, #1
 470 00c8 8DF81610 		strb	r1, [sp, #22]
 134:.\my_camera_functions.c **** 				    colours[3] += locals[i] == BLUE;
 471              		.loc 1 134 0 discriminator 2
 472 00cc 9DF81710 		ldrb	r1, [sp, #23]	@ zero_extendqisi2
 473 00d0 032A     		cmp	r2, #3
 474 00d2 14BF     		ite	ne
 475 00d4 0A46     		movne	r2, r1
 476 00d6 4A1C     		addeq	r2, r1, #1
 477 00d8 8DF81720 		strb	r2, [sp, #23]
 129:.\my_camera_functions.c **** 			    for(i = 0; i < 8; ++i)
 478              		.loc 1 129 0 discriminator 2
 479 00dc 0133     		adds	r3, r3, #1
 480              	.LVL59:
 481              	.L27:
 129:.\my_camera_functions.c **** 			    for(i = 0; i < 8; ++i)
 482              		.loc 1 129 0 is_stmt 0 discriminator 1
 483 00de 072B     		cmp	r3, #7
 484 00e0 E2DD     		ble	.L28
 135:.\my_camera_functions.c ****     			}
ARM GAS  C:\Users\xavieran\AppData\Local\Temp\ccEUgzek.s 			page 12


 136:.\my_camera_functions.c ****                 Camera_framebuffer[y][x][1] = 127;
 485              		.loc 1 136 0 is_stmt 1
 486 00e2 039B     		ldr	r3, [sp, #12]
 487              	.LVL60:
 488 00e4 2B44     		add	r3, r3, r5
 489 00e6 0AEB8303 		add	r3, r10, r3, lsl #2
 490 00ea 83F801B0 		strb	fp, [r3, #1]
 137:.\my_camera_functions.c ****                 Camera_framebuffer[y][x][3] = 127;
 491              		.loc 1 137 0
 492 00ee 83F803B0 		strb	fp, [r3, #3]
 138:.\my_camera_functions.c **** 			    if(colours[1] >= 4)
 493              		.loc 1 138 0
 494 00f2 9DF81530 		ldrb	r3, [sp, #21]	@ zero_extendqisi2
 495 00f6 032B     		cmp	r3, #3
 496 00f8 09D9     		bls	.L29
 497              	.LVL61:
 139:.\my_camera_functions.c **** 			    {
 140:.\my_camera_functions.c **** 				    pixel = RED;
 141:.\my_camera_functions.c **** 				    Camera_framebuffer[y][x][0] = 0;
 498              		.loc 1 141 0
 499 00fa 039B     		ldr	r3, [sp, #12]
 500 00fc 2B44     		add	r3, r3, r5
 501 00fe 0AF82340 		strb	r4, [r10, r3, lsl #2]
 142:.\my_camera_functions.c ****     				Camera_framebuffer[y][x][2] = 255;
 502              		.loc 1 142 0
 503 0102 0AEB8303 		add	r3, r10, r3, lsl #2
 504 0106 4FF0FF32 		mov	r2, #-1
 505 010a 9A70     		strb	r2, [r3, #2]
 506 010c 18E0     		b	.L30
 507              	.LVL62:
 508              	.L29:
 143:.\my_camera_functions.c ****                 }
 144:.\my_camera_functions.c **** 		    	else if(colours[2] >= 4)
 509              		.loc 1 144 0
 510 010e 9DF81630 		ldrb	r3, [sp, #22]	@ zero_extendqisi2
 511 0112 032B     		cmp	r3, #3
 512 0114 07D9     		bls	.L31
 513              	.LVL63:
 145:.\my_camera_functions.c ****     			{
 146:.\my_camera_functions.c **** 	    			pixel = GREEN;
 147:.\my_camera_functions.c **** 		    		Camera_framebuffer[y][x][0] = 0;
 514              		.loc 1 147 0
 515 0116 039B     		ldr	r3, [sp, #12]
 516 0118 2B44     		add	r3, r3, r5
 517 011a 0AF82340 		strb	r4, [r10, r3, lsl #2]
 148:.\my_camera_functions.c **** 			    	Camera_framebuffer[y][x][2] = 0;
 518              		.loc 1 148 0
 519 011e 0AEB8303 		add	r3, r10, r3, lsl #2
 520 0122 9C70     		strb	r4, [r3, #2]
 521 0124 0CE0     		b	.L30
 522              	.LVL64:
 523              	.L31:
 149:.\my_camera_functions.c **** 	    		}
 150:.\my_camera_functions.c **** 			    else if(colours[3] >= 4)
 524              		.loc 1 150 0
 525 0126 9DF81730 		ldrb	r3, [sp, #23]	@ zero_extendqisi2
 526 012a 032B     		cmp	r3, #3
ARM GAS  C:\Users\xavieran\AppData\Local\Temp\ccEUgzek.s 			page 13


 527 012c 0AD9     		bls	.L32
 528              	.LVL65:
 151:.\my_camera_functions.c **** 			    {
 152:.\my_camera_functions.c ****     				pixel = BLUE;
 153:.\my_camera_functions.c **** 	    			Camera_framebuffer[y][x][0] = 255;
 529              		.loc 1 153 0
 530 012e 039B     		ldr	r3, [sp, #12]
 531 0130 2B44     		add	r3, r3, r5
 532 0132 4FF0FF32 		mov	r2, #-1
 533 0136 0AF82320 		strb	r2, [r10, r3, lsl #2]
 154:.\my_camera_functions.c **** 		    		Camera_framebuffer[y][x][2] = 0;
 534              		.loc 1 154 0
 535 013a 0AEB8303 		add	r3, r10, r3, lsl #2
 536 013e 9C70     		strb	r4, [r3, #2]
 537              	.LVL66:
 538              	.L30:
 129:.\my_camera_functions.c **** 			    for(i = 0; i < 8; ++i)
 539              		.loc 1 129 0 discriminator 1
 540 0140 2346     		mov	r3, r4
 541 0142 0FE0     		b	.L33
 542              	.L32:
 543              	.LVL67:
 155:.\my_camera_functions.c **** 			    }
 156:.\my_camera_functions.c ****     			else //if(colours[0] >= colours[1] && colours[0] >= colours[2] && colours[0] >= colours[3])
 157:.\my_camera_functions.c **** 	    		{
 158:.\my_camera_functions.c **** 		    		pixel = NONE;
 159:.\my_camera_functions.c **** 			    	Camera_framebuffer[y][x][0] = 127;
 544              		.loc 1 159 0
 545 0144 039B     		ldr	r3, [sp, #12]
 546 0146 2B44     		add	r3, r3, r5
 547 0148 0AF823B0 		strb	fp, [r10, r3, lsl #2]
 160:.\my_camera_functions.c **** 				    Camera_framebuffer[y][x][2] = 127;
 548              		.loc 1 160 0
 549 014c 0AEB8303 		add	r3, r10, r3, lsl #2
 550 0150 83F802B0 		strb	fp, [r3, #2]
 161:.\my_camera_functions.c ****                     Camera_framebuffer[y][x][1] = 0;
 551              		.loc 1 161 0
 552 0154 5C70     		strb	r4, [r3, #1]
 162:.\my_camera_functions.c ****                     Camera_framebuffer[y][x][3] = 0;
 553              		.loc 1 162 0
 554 0156 DC70     		strb	r4, [r3, #3]
 555 0158 F2E7     		b	.L30
 556              	.LVL68:
 557              	.L34:
 163:.\my_camera_functions.c **** 		    	}
 164:.\my_camera_functions.c **** 			    for(i = 0; i < 8; ++i)
 165:.\my_camera_functions.c **** 			    {
 166:.\my_camera_functions.c ****     				colours[i] = 0;
 558              		.loc 1 166 0 discriminator 2
 559 015a 08AA     		add	r2, sp, #32
 560 015c 1A44     		add	r2, r2, r3
 561 015e 02F80C4C 		strb	r4, [r2, #-12]
 164:.\my_camera_functions.c **** 			    for(i = 0; i < 8; ++i)
 562              		.loc 1 164 0 discriminator 2
 563 0162 0133     		adds	r3, r3, #1
 564              	.LVL69:
 565              	.L33:
ARM GAS  C:\Users\xavieran\AppData\Local\Temp\ccEUgzek.s 			page 14


 164:.\my_camera_functions.c **** 			    for(i = 0; i < 8; ++i)
 566              		.loc 1 164 0 is_stmt 0 discriminator 1
 567 0164 072B     		cmp	r3, #7
 568 0166 F8DD     		ble	.L34
 569              	.LVL70:
 570              	.L26:
 110:.\my_camera_functions.c **** 		for(x = 0; x < 88; ++x)
 571              		.loc 1 110 0 is_stmt 1
 572 0168 0135     		adds	r5, r5, #1
 573              	.LVL71:
 574 016a 10E0     		b	.L36
 575              	.LVL72:
 576              	.L37:
 577 016c 2546     		mov	r5, r4
 114:.\my_camera_functions.c ****                 Camera_framebuffer[y][x][0] = 127;       
 578              		.loc 1 114 0
 579 016e 5822     		movs	r2, #88
 580 0170 019B     		ldr	r3, [sp, #4]
 581              	.LVL73:
 582 0172 02FB03F3 		mul	r3, r2, r3
 583 0176 0393     		str	r3, [sp, #12]
 121:.\my_camera_functions.c **** 			    locals[0] = PixelColour(x-1,y-1);
 584              		.loc 1 121 0
 585 0178 019B     		ldr	r3, [sp, #4]
 586 017a DBB2     		uxtb	r3, r3
 587 017c 0293     		str	r3, [sp, #8]
 588 017e 03F1FF39 		add	r9, r3, #-1
 589 0182 5FFA89F9 		uxtb	r9, r9
 123:.\my_camera_functions.c **** 			    locals[2] = PixelColour(x-1,y+1);
 590              		.loc 1 123 0
 591 0186 03F10108 		add	r8, r3, #1
 592 018a 5FFA88F8 		uxtb	r8, r8
 593              	.L36:
 594              	.LVL74:
 110:.\my_camera_functions.c **** 		for(x = 0; x < 88; ++x)
 595              		.loc 1 110 0 discriminator 1
 596 018e 572D     		cmp	r5, #87
 597 0190 7FF741AF 		ble	.L35
 108:.\my_camera_functions.c **** 	for(y = 0; y < 144; ++y)
 598              		.loc 1 108 0
 599 0194 019A     		ldr	r2, [sp, #4]
 600 0196 0132     		adds	r2, r2, #1
 601 0198 0192     		str	r2, [sp, #4]
 602              	.LVL75:
 603              	.L23:
 108:.\my_camera_functions.c **** 	for(y = 0; y < 144; ++y)
 604              		.loc 1 108 0 is_stmt 0 discriminator 1
 605 019a 019B     		ldr	r3, [sp, #4]
 606 019c 8F2B     		cmp	r3, #143
 607 019e E5DD     		ble	.L37
 167:.\my_camera_functions.c **** 			    } 
 168:.\my_camera_functions.c ****             }
 169:.\my_camera_functions.c **** 		}
 170:.\my_camera_functions.c **** 	}
 171:.\my_camera_functions.c **** }
 608              		.loc 1 171 0 is_stmt 1
 609 01a0 09B0     		add	sp, sp, #36
ARM GAS  C:\Users\xavieran\AppData\Local\Temp\ccEUgzek.s 			page 15


 610              		@ sp needed
 611 01a2 BDE8F08F 		pop	{r4, r5, r6, r7, r8, r9, r10, fp, pc}
 612              	.LVL76:
 613              	.L39:
 614 01a6 00BF     		.align	2
 615              	.L38:
 616 01a8 00000000 		.word	Camera_framebuffer
 617              		.cfi_endproc
 618              	.LFE68:
 619              		.size	threshold_image, .-threshold_image
 620              		.section	.text.capture_thresh_image,"ax",%progbits
 621              		.align	2
 622              		.global	capture_thresh_image
 623              		.thumb
 624              		.thumb_func
 625              		.type	capture_thresh_image, %function
 626              	capture_thresh_image:
 627              	.LFB65:
  52:.\my_camera_functions.c **** {
 628              		.loc 1 52 0
 629              		.cfi_startproc
 630              		@ args = 0, pretend = 0, frame = 0
 631              		@ frame_needed = 0, uses_anonymous_args = 0
 632 0000 08B5     		push	{r3, lr}
 633              		.cfi_def_cfa_offset 8
 634              		.cfi_offset 3, -8
 635              		.cfi_offset 14, -4
  53:.\my_camera_functions.c **** 	Camera_SyncFrame();
 636              		.loc 1 53 0
 637 0002 FFF7FEFF 		bl	Camera_SyncFrame
 638              	.LVL77:
  54:.\my_camera_functions.c **** 	Camera_GetFrame();
 639              		.loc 1 54 0
 640 0006 FFF7FEFF 		bl	Camera_GetFrame
 641              	.LVL78:
  55:.\my_camera_functions.c **** 	Camera_SyncFrame();
 642              		.loc 1 55 0
 643 000a FFF7FEFF 		bl	Camera_SyncFrame
 644              	.LVL79:
  56:.\my_camera_functions.c **** 	threshold_image();
 645              		.loc 1 56 0
 646 000e FFF7FEFF 		bl	threshold_image
 647              	.LVL80:
  57:.\my_camera_functions.c **** 	blob_detect();
 648              		.loc 1 57 0
 649 0012 FFF7FEFF 		bl	blob_detect
 650              	.LVL81:
 651 0016 08BD     		pop	{r3, pc}
 652              		.cfi_endproc
 653              	.LFE65:
 654              		.size	capture_thresh_image, .-capture_thresh_image
 655              		.global	__aeabi_i2f
 656              		.global	__aeabi_fmul
 657              		.global	__aeabi_fcmpge
 658              		.section	.text.clean_frame,"ax",%progbits
 659              		.align	2
 660              		.global	clean_frame
ARM GAS  C:\Users\xavieran\AppData\Local\Temp\ccEUgzek.s 			page 16


 661              		.thumb
 662              		.thumb_func
 663              		.type	clean_frame, %function
 664              	clean_frame:
 665              	.LFB69:
 172:.\my_camera_functions.c **** 
 173:.\my_camera_functions.c **** 
 174:.\my_camera_functions.c **** void clean_frame(int colour, float proportion, int row_limit)
 175:.\my_camera_functions.c **** {
 666              		.loc 1 175 0
 667              		.cfi_startproc
 668              		@ args = 0, pretend = 0, frame = 8
 669              		@ frame_needed = 0, uses_anonymous_args = 0
 670              	.LVL82:
 671 0000 2DE9F04F 		push	{r4, r5, r6, r7, r8, r9, r10, fp, lr}
 672              		.cfi_def_cfa_offset 36
 673              		.cfi_offset 4, -36
 674              		.cfi_offset 5, -32
 675              		.cfi_offset 6, -28
 676              		.cfi_offset 7, -24
 677              		.cfi_offset 8, -20
 678              		.cfi_offset 9, -16
 679              		.cfi_offset 10, -12
 680              		.cfi_offset 11, -8
 681              		.cfi_offset 14, -4
 682 0004 83B0     		sub	sp, sp, #12
 683              		.cfi_def_cfa_offset 48
 684 0006 0546     		mov	r5, r0
 685 0008 8B46     		mov	fp, r1
 686 000a 9246     		mov	r10, r2
 687              	.LVL83:
 176:.\my_camera_functions.c ****     int y,x,count,index = 0;
 688              		.loc 1 176 0
 689 000c 0023     		movs	r3, #0
 690 000e 0093     		str	r3, [sp]
 177:.\my_camera_functions.c ****     for(y = 0; y <= row_limit; y++)
 691              		.loc 1 177 0
 692 0010 9846     		mov	r8, r3
 693 0012 9946     		mov	r9, r3
 694 0014 0193     		str	r3, [sp, #4]
 695 0016 1FE0     		b	.L42
 696              	.LVL84:
 697              	.L44:
 178:.\my_camera_functions.c ****     {
 179:.\my_camera_functions.c ****         count = 0;
 180:.\my_camera_functions.c ****         for(x = 0; x < 88; x++)
 181:.\my_camera_functions.c ****         {
 182:.\my_camera_functions.c ****             if(PixelColour(x,y) == colour)
 698              		.loc 1 182 0
 699 0018 E0B2     		uxtb	r0, r4
 700 001a 3146     		mov	r1, r6
 701 001c FFF7FEFF 		bl	PixelColour
 702              	.LVL85:
 703 0020 A842     		cmp	r0, r5
 704 0022 00D1     		bne	.L43
 183:.\my_camera_functions.c ****             {
 184:.\my_camera_functions.c ****                 count++;
ARM GAS  C:\Users\xavieran\AppData\Local\Temp\ccEUgzek.s 			page 17


 705              		.loc 1 184 0
 706 0024 0137     		adds	r7, r7, #1
 707              	.LVL86:
 708              	.L43:
 180:.\my_camera_functions.c ****         for(x = 0; x < 88; x++)
 709              		.loc 1 180 0
 710 0026 0134     		adds	r4, r4, #1
 711              	.LVL87:
 712 0028 03E0     		b	.L46
 713              	.LVL88:
 714              	.L52:
 715 002a 4F46     		mov	r7, r9
 716 002c 019C     		ldr	r4, [sp, #4]
 182:.\my_camera_functions.c ****             if(PixelColour(x,y) == colour)
 717              		.loc 1 182 0
 718 002e 5FFA88F6 		uxtb	r6, r8
 719              	.L46:
 720              	.LVL89:
 180:.\my_camera_functions.c ****         for(x = 0; x < 88; x++)
 721              		.loc 1 180 0 discriminator 1
 722 0032 572C     		cmp	r4, #87
 723 0034 F0DD     		ble	.L44
 185:.\my_camera_functions.c ****             }
 186:.\my_camera_functions.c ****         }
 187:.\my_camera_functions.c ****         if(count >= proportion*88)
 724              		.loc 1 187 0
 725 0036 3846     		mov	r0, r7
 726 0038 FFF7FEFF 		bl	__aeabi_i2f
 727              	.LVL90:
 728 003c 0446     		mov	r4, r0
 729              	.LVL91:
 730 003e 5846     		mov	r0, fp
 731 0040 1B49     		ldr	r1, .L54
 732 0042 FFF7FEFF 		bl	__aeabi_fmul
 733              	.LVL92:
 734 0046 0146     		mov	r1, r0
 735 0048 2046     		mov	r0, r4
 736 004a FFF7FEFF 		bl	__aeabi_fcmpge
 737              	.LVL93:
 738 004e 08B1     		cbz	r0, .L45
 188:.\my_camera_functions.c ****         {
 189:.\my_camera_functions.c ****             index = y;
 739              		.loc 1 189 0
 740 0050 CDF80080 		str	r8, [sp]
 741              	.L45:
 177:.\my_camera_functions.c ****     for(y = 0; y <= row_limit; y++)
 742              		.loc 1 177 0
 743 0054 08F10108 		add	r8, r8, #1
 744              	.LVL94:
 745              	.L42:
 177:.\my_camera_functions.c ****     for(y = 0; y <= row_limit; y++)
 746              		.loc 1 177 0 is_stmt 0 discriminator 1
 747 0058 D045     		cmp	r8, r10
 748 005a E6DD     		ble	.L52
 749 005c 4FF0000B 		mov	fp, #0
 750              	.LVL95:
 751 0060 5F46     		mov	r7, fp
ARM GAS  C:\Users\xavieran\AppData\Local\Temp\ccEUgzek.s 			page 18


 190:.\my_camera_functions.c ****         }
 191:.\my_camera_functions.c ****     }
 192:.\my_camera_functions.c ****     for(y = 0; y <= index; y++)
 193:.\my_camera_functions.c ****     {
 194:.\my_camera_functions.c ****         for(x = 0; x < 88; x++)
 195:.\my_camera_functions.c ****             {
 196:.\my_camera_functions.c ****                 if(PixelColour(x,y) == colour)
 197:.\my_camera_functions.c ****                 {
 198:.\my_camera_functions.c ****                     Camera_framebuffer[y][x][0] = 127;
 752              		.loc 1 198 0 is_stmt 1
 753 0062 DFF85090 		ldr	r9, .L54+4
 754 0066 4FF07F08 		mov	r8, #127
 755              	.LVL96:
 756 006a 1BE0     		b	.L47
 757              	.LVL97:
 758              	.L49:
 196:.\my_camera_functions.c ****                 if(PixelColour(x,y) == colour)
 759              		.loc 1 196 0
 760 006c E0B2     		uxtb	r0, r4
 761 006e 3146     		mov	r1, r6
 762 0070 FFF7FEFF 		bl	PixelColour
 763              	.LVL98:
 764 0074 A842     		cmp	r0, r5
 765 0076 09D1     		bne	.L48
 766              		.loc 1 198 0
 767 0078 0AEB0403 		add	r3, r10, r4
 768 007c 09F82380 		strb	r8, [r9, r3, lsl #2]
 199:.\my_camera_functions.c **** 			        Camera_framebuffer[y][x][2] = 127;
 769              		.loc 1 199 0
 770 0080 09EB8303 		add	r3, r9, r3, lsl #2
 771 0084 83F80280 		strb	r8, [r3, #2]
 200:.\my_camera_functions.c ****                     Camera_framebuffer[y][x][1] = 0;
 772              		.loc 1 200 0
 773 0088 5F70     		strb	r7, [r3, #1]
 201:.\my_camera_functions.c ****                     Camera_framebuffer[y][x][3] = 0;
 774              		.loc 1 201 0
 775 008a DF70     		strb	r7, [r3, #3]
 776              	.L48:
 194:.\my_camera_functions.c ****         for(x = 0; x < 88; x++)
 777              		.loc 1 194 0
 778 008c 0134     		adds	r4, r4, #1
 779              	.LVL99:
 780 008e 05E0     		b	.L50
 781              	.LVL100:
 782              	.L53:
 783 0090 3C46     		mov	r4, r7
 196:.\my_camera_functions.c ****                 if(PixelColour(x,y) == colour)
 784              		.loc 1 196 0
 785 0092 5FFA8BF6 		uxtb	r6, fp
 198:.\my_camera_functions.c ****                     Camera_framebuffer[y][x][0] = 127;
 786              		.loc 1 198 0
 787 0096 5823     		movs	r3, #88
 788 0098 03FB0BFA 		mul	r10, r3, fp
 789              	.L50:
 790              	.LVL101:
 194:.\my_camera_functions.c ****         for(x = 0; x < 88; x++)
 791              		.loc 1 194 0 discriminator 1
ARM GAS  C:\Users\xavieran\AppData\Local\Temp\ccEUgzek.s 			page 19


 792 009c 572C     		cmp	r4, #87
 793 009e E5DD     		ble	.L49
 192:.\my_camera_functions.c ****     for(y = 0; y <= index; y++)
 794              		.loc 1 192 0
 795 00a0 0BF1010B 		add	fp, fp, #1
 796              	.LVL102:
 797              	.L47:
 192:.\my_camera_functions.c ****     for(y = 0; y <= index; y++)
 798              		.loc 1 192 0 is_stmt 0 discriminator 1
 799 00a4 009B     		ldr	r3, [sp]
 800 00a6 9B45     		cmp	fp, r3
 801 00a8 F2DD     		ble	.L53
 202:.\my_camera_functions.c ****                 }
 203:.\my_camera_functions.c ****             }
 204:.\my_camera_functions.c ****     }
 205:.\my_camera_functions.c **** }
 802              		.loc 1 205 0 is_stmt 1
 803 00aa 03B0     		add	sp, sp, #12
 804              		@ sp needed
 805 00ac BDE8F08F 		pop	{r4, r5, r6, r7, r8, r9, r10, fp, pc}
 806              	.LVL103:
 807              	.L55:
 808              		.align	2
 809              	.L54:
 810 00b0 0000B042 		.word	1118830592
 811 00b4 00000000 		.word	Camera_framebuffer
 812              		.cfi_endproc
 813              	.LFE69:
 814              		.size	clean_frame, .-clean_frame
 815              		.section	.text.identify_colour_instructions,"ax",%progbits
 816              		.align	2
 817              		.global	identify_colour_instructions
 818              		.thumb
 819              		.thumb_func
 820              		.type	identify_colour_instructions, %function
 821              	identify_colour_instructions:
 822              	.LFB70:
 206:.\my_camera_functions.c **** 
 207:.\my_camera_functions.c **** 
 208:.\my_camera_functions.c **** int identify_colour_instructions(int size)
 209:.\my_camera_functions.c **** {
 823              		.loc 1 209 0
 824              		.cfi_startproc
 825              		@ args = 0, pretend = 0, frame = 0
 826              		@ frame_needed = 0, uses_anonymous_args = 0
 827              		@ link register save eliminated.
 828              	.LVL104:
 829              	.LVL105:
 210:.\my_camera_functions.c ****     int x;
 211:.\my_camera_functions.c ****     x = (blobs[0].size >= size) ? blobs[0].colour : -1;
 212:.\my_camera_functions.c ****     //PixelColour(88/2,144/2);
 213:.\my_camera_functions.c **** }
 830              		.loc 1 213 0
 831 0000 7047     		bx	lr
 832              		.cfi_endproc
 833              	.LFE70:
 834              		.size	identify_colour_instructions, .-identify_colour_instructions
ARM GAS  C:\Users\xavieran\AppData\Local\Temp\ccEUgzek.s 			page 20


 835 0002 00BF     		.section	.text.identify_colour_gripper,"ax",%progbits
 836              		.align	2
 837              		.global	identify_colour_gripper
 838              		.thumb
 839              		.thumb_func
 840              		.type	identify_colour_gripper, %function
 841              	identify_colour_gripper:
 842              	.LFB71:
 214:.\my_camera_functions.c **** 
 215:.\my_camera_functions.c **** int identify_colour_gripper()
 216:.\my_camera_functions.c **** {
 843              		.loc 1 216 0
 844              		.cfi_startproc
 845              		@ args = 0, pretend = 0, frame = 0
 846              		@ frame_needed = 0, uses_anonymous_args = 0
 847 0000 08B5     		push	{r3, lr}
 848              		.cfi_def_cfa_offset 8
 849              		.cfi_offset 3, -8
 850              		.cfi_offset 14, -4
 217:.\my_camera_functions.c ****      return PixelColour(88/2,144);  
 851              		.loc 1 217 0
 852 0002 2C20     		movs	r0, #44
 853 0004 9021     		movs	r1, #144
 854 0006 FFF7FEFF 		bl	PixelColour
 855              	.LVL106:
 218:.\my_camera_functions.c **** }
 856              		.loc 1 218 0
 857 000a 08BD     		pop	{r3, pc}
 858              		.cfi_endproc
 859              	.LFE71:
 860              		.size	identify_colour_gripper, .-identify_colour_gripper
 861              		.section	.text.PixelLuminence,"ax",%progbits
 862              		.align	2
 863              		.global	PixelLuminence
 864              		.thumb
 865              		.thumb_func
 866              		.type	PixelLuminence, %function
 867              	PixelLuminence:
 868              	.LFB72:
 219:.\my_camera_functions.c **** 
 220:.\my_camera_functions.c **** 
 221:.\my_camera_functions.c **** int PixelLuminence(int x, int y)
 222:.\my_camera_functions.c **** {
 869              		.loc 1 222 0
 870              		.cfi_startproc
 871              		@ args = 0, pretend = 0, frame = 0
 872              		@ frame_needed = 0, uses_anonymous_args = 0
 873              		@ link register save eliminated.
 874              	.LVL107:
 223:.\my_camera_functions.c **** 	return (Camera_framebuffer[y][x][1] > 127) && (Camera_framebuffer[y][x][3] > 127);
 875              		.loc 1 223 0
 876 0000 5823     		movs	r3, #88
 877 0002 03FB0103 		mla	r3, r3, r1, r0
 878 0006 0B4A     		ldr	r2, .L62
 879 0008 02EB8303 		add	r3, r2, r3, lsl #2
 880 000c 93F90130 		ldrsb	r3, [r3, #1]
 881 0010 002B     		cmp	r3, #0
ARM GAS  C:\Users\xavieran\AppData\Local\Temp\ccEUgzek.s 			page 21


 882 0012 0ADA     		bge	.L60
 883              		.loc 1 223 0 is_stmt 0 discriminator 1
 884 0014 5823     		movs	r3, #88
 885 0016 03FB0101 		mla	r1, r3, r1, r0
 886              	.LVL108:
 887 001a 02EB8101 		add	r1, r2, r1, lsl #2
 888 001e 91F90330 		ldrsb	r3, [r1, #3]
 889 0022 002B     		cmp	r3, #0
 890 0024 03DB     		blt	.L61
 891              		.loc 1 223 0
 892 0026 0020     		movs	r0, #0
 893              	.LVL109:
 894 0028 7047     		bx	lr
 895              	.LVL110:
 896              	.L60:
 897 002a 0020     		movs	r0, #0
 898              	.LVL111:
 899 002c 7047     		bx	lr
 900              	.LVL112:
 901              	.L61:
 902 002e 0120     		movs	r0, #1
 903              	.LVL113:
 224:.\my_camera_functions.c **** } 
 904              		.loc 1 224 0 is_stmt 1
 905 0030 7047     		bx	lr
 906              	.L63:
 907 0032 00BF     		.align	2
 908              	.L62:
 909 0034 00000000 		.word	Camera_framebuffer
 910              		.cfi_endproc
 911              	.LFE72:
 912              		.size	PixelLuminence, .-PixelLuminence
 913              		.section	.text.threshold_black,"ax",%progbits
 914              		.align	2
 915              		.global	threshold_black
 916              		.thumb
 917              		.thumb_func
 918              		.type	threshold_black, %function
 919              	threshold_black:
 920              	.LFB73:
 225:.\my_camera_functions.c **** 
 226:.\my_camera_functions.c **** 
 227:.\my_camera_functions.c **** void threshold_black()
 228:.\my_camera_functions.c **** {
 921              		.loc 1 228 0
 922              		.cfi_startproc
 923              		@ args = 0, pretend = 0, frame = 0
 924              		@ frame_needed = 0, uses_anonymous_args = 0
 925              		@ link register save eliminated.
 926 0000 2DE9F001 		push	{r4, r5, r6, r7, r8}
 927              		.cfi_def_cfa_offset 20
 928              		.cfi_offset 4, -20
 929              		.cfi_offset 5, -16
 930              		.cfi_offset 6, -12
 931              		.cfi_offset 7, -8
 932              		.cfi_offset 8, -4
 933              	.LVL114:
ARM GAS  C:\Users\xavieran\AppData\Local\Temp\ccEUgzek.s 			page 22


 229:.\my_camera_functions.c **** 	int y,x,k,i;
 230:.\my_camera_functions.c **** 	for(y = 0; y < 144; y++)
 934              		.loc 1 230 0
 935 0004 0026     		movs	r6, #0
 231:.\my_camera_functions.c **** 	{
 232:.\my_camera_functions.c **** 		for(x = 0; x < 88; x++)
 233:.\my_camera_functions.c **** 		{
 234:.\my_camera_functions.c **** 			k = 0;
 235:.\my_camera_functions.c **** 			if(y == 0 || y == 143 || x == 0 || x == 143)
 236:.\my_camera_functions.c **** 			{
 237:.\my_camera_functions.c **** 				for(i = 0; i < 2; i++)
 238:.\my_camera_functions.c **** 				{
 239:.\my_camera_functions.c **** 					Camera_framebuffer[y][x][i] = 127;
 936              		.loc 1 239 0
 937 0006 1D48     		ldr	r0, .L79
 938 0008 7F27     		movs	r7, #127
 240:.\my_camera_functions.c ****                     Camera_framebuffer[y][x][i+1] = 255;
 939              		.loc 1 240 0
 940 000a 4FF0FF08 		mov	r8, #255
 230:.\my_camera_functions.c **** 	for(y = 0; y < 144; y++)
 941              		.loc 1 230 0
 942 000e 30E0     		b	.L65
 943              	.LVL115:
 944              	.L71:
 235:.\my_camera_functions.c **** 			if(y == 0 || y == 143 || x == 0 || x == 143)
 945              		.loc 1 235 0
 946 0010 8EB1     		cbz	r6, .L73
 235:.\my_camera_functions.c **** 			if(y == 0 || y == 143 || x == 0 || x == 143)
 947              		.loc 1 235 0 is_stmt 0 discriminator 1
 948 0012 8F2E     		cmp	r6, #143
 949 0014 11D0     		beq	.L74
 950 0016 92B1     		cbz	r2, .L75
 951 0018 8F2A     		cmp	r2, #143
 952 001a 12D0     		beq	.L76
 953              	.L69:
 954 001c 0023     		movs	r3, #0
 241:.\my_camera_functions.c **** 				}
 242:.\my_camera_functions.c ****             }
 243:.\my_camera_functions.c **** 			else
 244:.\my_camera_functions.c ****             {
 245:.\my_camera_functions.c **** 		    	k += PixelLuminence(x-1,y-1);
 246:.\my_camera_functions.c **** 		    	k += PixelLuminence(x-1,y);
 247:.\my_camera_functions.c **** 		    	k += PixelLuminence(x-1,y+1);
 248:.\my_camera_functions.c **** 		    	k += PixelLuminence(x,y-1);
 249:.\my_camera_functions.c **** 			   	k += PixelLuminence(x,y+1);
 250:.\my_camera_functions.c **** 			   	k += PixelLuminence(x+1,y-1);
 251:.\my_camera_functions.c **** 			   	k += PixelLuminence(x+1,y);
 252:.\my_camera_functions.c **** 			   	k += PixelLuminence(x+1,y+1);
 253:.\my_camera_functions.c **** 			}
 254:.\my_camera_functions.c **** 			for(i = 0; i < 2; i++)
 255:.\my_camera_functions.c **** 			{
 256:.\my_camera_functions.c ****                 Camera_framebuffer[y][x][i] = 127;
 955              		.loc 1 256 0 is_stmt 1 discriminator 1
 956 001e 0CEB0201 		add	r1, ip, r2
 957 0022 8900     		lsls	r1, r1, #2
 257:.\my_camera_functions.c **** 				Camera_framebuffer[y][x][i+1] = 0;
 958              		.loc 1 257 0 discriminator 1
ARM GAS  C:\Users\xavieran\AppData\Local\Temp\ccEUgzek.s 			page 23


 959 0024 1D46     		mov	r5, r3
 960 0026 18E0     		b	.L67
 961              	.LVL116:
 962              	.L68:
 239:.\my_camera_functions.c **** 					Camera_framebuffer[y][x][i] = 127;
 963              		.loc 1 239 0 discriminator 2
 964 0028 CC18     		adds	r4, r1, r3
 965 002a 0755     		strb	r7, [r0, r4]
 240:.\my_camera_functions.c ****                     Camera_framebuffer[y][x][i+1] = 255;
 966              		.loc 1 240 0 discriminator 2
 967 002c 0133     		adds	r3, r3, #1
 968              	.LVL117:
 969 002e CC18     		adds	r4, r1, r3
 970 0030 00F80480 		strb	r8, [r0, r4]
 971              	.LVL118:
 972 0034 09E0     		b	.L78
 973              	.LVL119:
 974              	.L73:
 975 0036 0023     		movs	r3, #0
 976 0038 04E0     		b	.L66
 977              	.L74:
 978 003a 0023     		movs	r3, #0
 979 003c 02E0     		b	.L66
 980              	.L75:
 981 003e 0023     		movs	r3, #0
 982 0040 00E0     		b	.L66
 983              	.L76:
 984 0042 0023     		movs	r3, #0
 985              	.L66:
 239:.\my_camera_functions.c **** 					Camera_framebuffer[y][x][i] = 127;
 986              		.loc 1 239 0 discriminator 1
 987 0044 0CEB0201 		add	r1, ip, r2
 988 0048 8900     		lsls	r1, r1, #2
 989              	.L78:
 990              	.LVL120:
 237:.\my_camera_functions.c **** 				for(i = 0; i < 2; i++)
 991              		.loc 1 237 0 discriminator 1
 992 004a 012B     		cmp	r3, #1
 993 004c ECDD     		ble	.L68
 994 004e E5E7     		b	.L69
 995              	.L70:
 256:.\my_camera_functions.c ****                 Camera_framebuffer[y][x][i] = 127;
 996              		.loc 1 256 0 discriminator 2
 997 0050 CC18     		adds	r4, r1, r3
 998 0052 0755     		strb	r7, [r0, r4]
 999              		.loc 1 257 0 discriminator 2
 1000 0054 0133     		adds	r3, r3, #1
 1001              	.LVL121:
 1002 0056 CC18     		adds	r4, r1, r3
 1003 0058 0555     		strb	r5, [r0, r4]
 1004              	.LVL122:
 1005              	.L67:
 254:.\my_camera_functions.c **** 			for(i = 0; i < 2; i++)
 1006              		.loc 1 254 0 discriminator 1
 1007 005a 012B     		cmp	r3, #1
 1008 005c F8DD     		ble	.L70
 232:.\my_camera_functions.c **** 		for(x = 0; x < 88; x++)
ARM GAS  C:\Users\xavieran\AppData\Local\Temp\ccEUgzek.s 			page 24


 1009              		.loc 1 232 0
 1010 005e 0132     		adds	r2, r2, #1
 1011              	.LVL123:
 1012 0060 04E0     		b	.L72
 1013              	.LVL124:
 1014              	.L77:
 1015 0062 0022     		movs	r2, #0
 239:.\my_camera_functions.c **** 					Camera_framebuffer[y][x][i] = 127;
 1016              		.loc 1 239 0
 1017 0064 4FF0580C 		mov	ip, #88
 1018 0068 06FB0CFC 		mul	ip, r6, ip
 1019              	.L72:
 1020              	.LVL125:
 232:.\my_camera_functions.c **** 		for(x = 0; x < 88; x++)
 1021              		.loc 1 232 0 discriminator 1
 1022 006c 572A     		cmp	r2, #87
 1023 006e CFDD     		ble	.L71
 230:.\my_camera_functions.c **** 	for(y = 0; y < 144; y++)
 1024              		.loc 1 230 0
 1025 0070 0136     		adds	r6, r6, #1
 1026              	.LVL126:
 1027              	.L65:
 230:.\my_camera_functions.c **** 	for(y = 0; y < 144; y++)
 1028              		.loc 1 230 0 is_stmt 0 discriminator 1
 1029 0072 8F2E     		cmp	r6, #143
 1030 0074 F5DD     		ble	.L77
 258:.\my_camera_functions.c **** 			}
 259:.\my_camera_functions.c **** 		}
 260:.\my_camera_functions.c **** 	}
 261:.\my_camera_functions.c **** }
 1031              		.loc 1 261 0 is_stmt 1
 1032 0076 BDE8F001 		pop	{r4, r5, r6, r7, r8}
 1033              	.LVL127:
 1034 007a 7047     		bx	lr
 1035              	.L80:
 1036              		.align	2
 1037              	.L79:
 1038 007c 00000000 		.word	Camera_framebuffer
 1039              		.cfi_endproc
 1040              	.LFE73:
 1041              		.size	threshold_black, .-threshold_black
 1042              		.global	BLUE_V
 1043              		.global	BLUE_U
 1044              		.global	GREEN_V
 1045              		.global	GREEN_U
 1046              		.global	RED_V
 1047              		.global	RED_U
 1048              		.comm	Camera_framebuffer,50688,4
 1049              		.data
 1050              		.set	.LANCHOR0,. + 0
 1051              		.type	RED_U, %object
 1052              		.size	RED_U, 1
 1053              	RED_U:
 1054 0000 7A       		.byte	122
 1055              		.type	RED_V, %object
 1056              		.size	RED_V, 1
 1057              	RED_V:
ARM GAS  C:\Users\xavieran\AppData\Local\Temp\ccEUgzek.s 			page 25


 1058 0001 96       		.byte	-106
 1059              		.type	GREEN_U, %object
 1060              		.size	GREEN_U, 1
 1061              	GREEN_U:
 1062 0002 82       		.byte	-126
 1063              		.type	GREEN_V, %object
 1064              		.size	GREEN_V, 1
 1065              	GREEN_V:
 1066 0003 78       		.byte	120
 1067              		.type	BLUE_U, %object
 1068              		.size	BLUE_U, 1
 1069              	BLUE_U:
 1070 0004 8C       		.byte	-116
 1071              		.type	BLUE_V, %object
 1072              		.size	BLUE_V, 1
 1073              	BLUE_V:
 1074 0005 74       		.byte	116
 1075              		.section	.rodata.str1.4,"aMS",%progbits,1
 1076              		.align	2
 1077              	.LC0:
 1078 0000 43616D65 		.ascii	"Camera Actualy\000"
 1078      72612041 
 1078      63747561 
 1078      6C7900
 1079 000f 00       		.space	1
 1080              	.LC1:
 1081 0010 4672616D 		.ascii	"Frame Sync Done\000"
 1081      65205379 
 1081      6E632044 
 1081      6F6E6500 
 1082              	.LC2:
 1083 0020 47657474 		.ascii	"Getting Frame!!\000"
 1083      696E6720 
 1083      4672616D 
 1083      65212100 
 1084              		.text
 1085              	.Letext0:
 1086              		.file 2 "c:\\program files (x86)\\cypress\\psoc creator\\3.2\\psoc creator\\import\\gnu\\arm\\4.8.
 1087              		.file 3 "c:\\program files (x86)\\cypress\\psoc creator\\3.2\\psoc creator\\import\\gnu\\arm\\4.8.
 1088              		.file 4 "Generated_Source\\PSoC5/cytypes.h"
 1089              		.file 5 "./blob_stats.h"
 1090              		.file 6 "Generated_Source\\PSoC5/core_cm3.h"
 1091              		.file 7 "Generated_Source\\PSoC5/Camera.h"
 1092              		.file 8 "Generated_Source\\PSoC5/LCD.h"
 1093              		.file 9 "./my_camera_functions.h"