ARM GAS  C:\Users\xavieran\AppData\Local\Temp\ccvAwoyE.s 			page 1


   1              		.syntax unified
   2              		.cpu cortex-m3
   3              		.fpu softvfp
   4              		.eabi_attribute 20, 1
   5              		.eabi_attribute 21, 1
   6              		.eabi_attribute 23, 3
   7              		.eabi_attribute 24, 1
   8              		.eabi_attribute 25, 1
   9              		.eabi_attribute 26, 1
  10              		.eabi_attribute 30, 1
  11              		.eabi_attribute 34, 1
  12              		.eabi_attribute 18, 4
  13              		.thumb
  14              		.file	"navigation.c"
  15              		.text
  16              	.Ltext0:
  17              		.cfi_sections	.debug_frame
  18              		.global	__aeabi_dcmpge
  19              		.section	.text.signum,"ax",%progbits
  20              		.align	2
  21              		.global	signum
  22              		.thumb
  23              		.thumb_func
  24              		.type	signum, %function
  25              	signum:
  26              	.LFB63:
  27              		.file 1 ".\\navigation.c"
   1:.\navigation.c **** /* ========================================
   2:.\navigation.c ****  *
   3:.\navigation.c ****  * Copyright YOUR COMPANY, THE YEAR
   4:.\navigation.c ****  * All Rights Reserved
   5:.\navigation.c ****  * UNPUBLISHED, LICENSED SOFTWARE.
   6:.\navigation.c ****  *
   7:.\navigation.c ****  * CONFIDENTIAL AND PROPRIETARY INFORMATION
   8:.\navigation.c ****  * WHICH IS THE PROPERTY OF your company.
   9:.\navigation.c ****  *
  10:.\navigation.c ****  * ========================================
  11:.\navigation.c **** */
  12:.\navigation.c **** 
  13:.\navigation.c **** /******* IMPORTANT ***********
  14:.\navigation.c ****  * The mouse on the _left_ shall be entitled mouse A
  15:.\navigation.c ****  */
  16:.\navigation.c **** 
  17:.\navigation.c **** #include <project.h>
  18:.\navigation.c **** #include <math.h>
  19:.\navigation.c **** #include <stdlib.h>
  20:.\navigation.c **** 
  21:.\navigation.c **** #include <navigation.h>
  22:.\navigation.c **** 
  23:.\navigation.c **** //this is in mouse_a.c
  24:.\navigation.c **** extern volatile int32 loc_x_a;
  25:.\navigation.c **** extern volatile int32 loc_y_a;
  26:.\navigation.c **** extern volatile uint8 data_ready_a;
  27:.\navigation.c **** //this is in mouse_b.c
  28:.\navigation.c **** extern volatile int32 loc_x_b;
  29:.\navigation.c **** extern volatile int32 loc_y_b;
  30:.\navigation.c **** extern volatile uint8 data_ready_b;
ARM GAS  C:\Users\xavieran\AppData\Local\Temp\ccvAwoyE.s 			page 2


  31:.\navigation.c **** 
  32:.\navigation.c **** //We store the navigation info here
  33:.\navigation.c **** struct Position location;
  34:.\navigation.c **** 
  35:.\navigation.c **** struct Position calculate_dposition(double dxl, double dyl, double dxr, double dyr);
  36:.\navigation.c **** 
  37:.\navigation.c **** //9.4cm = 94mm = 94*4 counts/mm = 376.0 counts
  38:.\navigation.c **** #define SEPARATION 400
  39:.\navigation.c **** 
  40:.\navigation.c **** double signum(double x){
  28              		.loc 1 40 0
  29              		.cfi_startproc
  30              		@ args = 0, pretend = 0, frame = 0
  31              		@ frame_needed = 0, uses_anonymous_args = 0
  32              	.LVL0:
  33 0000 08B5     		push	{r3, lr}
  34              		.cfi_def_cfa_offset 8
  35              		.cfi_offset 3, -8
  36              		.cfi_offset 14, -4
  41:.\navigation.c ****     if (x >= 0){
  37              		.loc 1 41 0
  38 0002 0022     		movs	r2, #0
  39 0004 0023     		movs	r3, #0
  40 0006 FFF7FEFF 		bl	__aeabi_dcmpge
  41              	.LVL1:
  42 000a 10B1     		cbz	r0, .L6
  42:.\navigation.c ****         return 1.0; 
  43              		.loc 1 42 0
  44 000c 0020     		movs	r0, #0
  45 000e 0249     		ldr	r1, .L7
  46 0010 08BD     		pop	{r3, pc}
  47              	.L6:
  43:.\navigation.c ****     } else {
  44:.\navigation.c ****         return -1.0;
  48              		.loc 1 44 0
  49 0012 0020     		movs	r0, #0
  50 0014 0149     		ldr	r1, .L7+4
  45:.\navigation.c ****     }
  46:.\navigation.c **** }
  51              		.loc 1 46 0
  52 0016 08BD     		pop	{r3, pc}
  53              	.L8:
  54              		.align	2
  55              	.L7:
  56 0018 0000F03F 		.word	1072693248
  57 001c 0000F0BF 		.word	-1074790400
  58              		.cfi_endproc
  59              	.LFE63:
  60              		.size	signum, .-signum
  61              		.global	__aeabi_dmul
  62              		.global	__aeabi_dcmpeq
  63              		.global	__aeabi_dcmplt
  64              		.global	__aeabi_dcmpgt
  65              		.global	__aeabi_ddiv
  66              		.global	__aeabi_dsub
  67              		.global	__aeabi_dadd
  68              		.section	.text.calculate_dposition,"ax",%progbits
ARM GAS  C:\Users\xavieran\AppData\Local\Temp\ccvAwoyE.s 			page 3


  69              		.align	2
  70              		.global	calculate_dposition
  71              		.thumb
  72              		.thumb_func
  73              		.type	calculate_dposition, %function
  74              	calculate_dposition:
  75              	.LFB65:
  47:.\navigation.c **** 
  48:.\navigation.c **** void refresh_position(){
  49:.\navigation.c ****     //If either mouse has given us more than 5 readings we recalculate position
  50:.\navigation.c ****     if (data_ready_a > 5 || data_ready_b > 5){
  51:.\navigation.c ****         struct Position delta = calculate_dposition((double) loc_x_a, (double) loc_y_a, (double) lo
  52:.\navigation.c ****         
  53:.\navigation.c ****         loc_x_a = 0;
  54:.\navigation.c ****         loc_y_a = 0;
  55:.\navigation.c ****         data_ready_a = 0;
  56:.\navigation.c ****         
  57:.\navigation.c ****         loc_x_b = 0;
  58:.\navigation.c ****         loc_y_b = 0;
  59:.\navigation.c ****         data_ready_b = 0;
  60:.\navigation.c ****             
  61:.\navigation.c ****         double angle = location.angle + atan2(delta.y, delta.x);
  62:.\navigation.c ****         double length = sqrt(delta.x*delta.x + delta.y*delta.y);
  63:.\navigation.c ****         
  64:.\navigation.c ****         location.x += length*cos(angle);
  65:.\navigation.c ****         location.y += length*sin(angle);
  66:.\navigation.c ****         location.angle += delta.angle;
  67:.\navigation.c ****     }
  68:.\navigation.c **** }
  69:.\navigation.c **** 
  70:.\navigation.c **** 
  71:.\navigation.c **** /* Call this every x times per second to calculate the current position and heading*/
  72:.\navigation.c **** struct Position calculate_dposition(double dxl, double dyl, double dxr, double dyr){
  76              		.loc 1 72 0
  77              		.cfi_startproc
  78              		@ args = 24, pretend = 0, frame = 48
  79              		@ frame_needed = 0, uses_anonymous_args = 0
  80              	.LVL2:
  81 0000 2DE9F04D 		push	{r4, r5, r6, r7, r8, r10, fp, lr}
  82              		.cfi_def_cfa_offset 32
  83              		.cfi_offset 4, -32
  84              		.cfi_offset 5, -28
  85              		.cfi_offset 6, -24
  86              		.cfi_offset 7, -20
  87              		.cfi_offset 8, -16
  88              		.cfi_offset 10, -12
  89              		.cfi_offset 11, -8
  90              		.cfi_offset 14, -4
  91 0004 8CB0     		sub	sp, sp, #48
  92              		.cfi_def_cfa_offset 80
  93 0006 8046     		mov	r8, r0
  94 0008 1646     		mov	r6, r2
  95 000a 1F46     		mov	r7, r3
  73:.\navigation.c ****     ISR_CHECKP_Write(1); //for timing purposes
  96              		.loc 1 73 0
  97 000c 0120     		movs	r0, #1
  98              	.LVL3:
ARM GAS  C:\Users\xavieran\AppData\Local\Temp\ccvAwoyE.s 			page 4


  99 000e FFF7FEFF 		bl	ISR_CHECKP_Write
 100              	.LVL4:
  74:.\navigation.c ****     //Let the A mouse be LEFT and the B mouse be RIGHT
  75:.\navigation.c ****     double rl, ll, rr, lr, al, ar;
  76:.\navigation.c ****     double xpl, xpr, ypl, ypr;
  77:.\navigation.c ****     
  78:.\navigation.c ****     struct Position delta = {.x = 0,.y = 0, .angle = 0};
 101              		.loc 1 78 0
 102 0012 0024     		movs	r4, #0
 103 0014 0025     		movs	r5, #0
 104 0016 C8E90045 		strd	r4, [r8]
 105 001a C8E90245 		strd	r4, [r8, #8]
 106 001e C8E90445 		strd	r4, [r8, #16]
  79:.\navigation.c ****     
  80:.\navigation.c ****     // Correct for error in y
  81:.\navigation.c ****     dyl *= 1.089;
 107              		.loc 1 81 0
 108 0022 DDE91401 		ldrd	r0, [sp, #80]
 109 0026 4AA3     		adr	r3, .L37
 110 0028 D3E90023 		ldrd	r2, [r3]
 111 002c FFF7FEFF 		bl	__aeabi_dmul
 112              	.LVL5:
 113 0030 CDE90801 		strd	r0, [sp, #32]
 114              	.LVL6:
  82:.\navigation.c ****     dxl *= 1.089;
 115              		.loc 1 82 0
 116 0034 3046     		mov	r0, r6
 117              	.LVL7:
 118 0036 3946     		mov	r1, r7
 119 0038 45A3     		adr	r3, .L37
 120 003a D3E90023 		ldrd	r2, [r3]
 121 003e FFF7FEFF 		bl	__aeabi_dmul
 122              	.LVL8:
 123 0042 0646     		mov	r6, r0
 124 0044 0F46     		mov	r7, r1
 125              	.LVL9:
  83:.\navigation.c ****     
  84:.\navigation.c ****     //If no change, don't bother going through this whole routine
  85:.\navigation.c ****     if (dxl == 0 && dyl == 0 && dxr == 0 && dyr == 0){
 126              		.loc 1 85 0
 127 0046 2246     		mov	r2, r4
 128 0048 2B46     		mov	r3, r5
 129 004a FFF7FEFF 		bl	__aeabi_dcmpeq
 130              	.LVL10:
 131 004e C0B1     		cbz	r0, .L10
 132              		.loc 1 85 0 is_stmt 0 discriminator 1
 133 0050 DDE90801 		ldrd	r0, [sp, #32]
 134 0054 2246     		mov	r2, r4
 135 0056 2B46     		mov	r3, r5
 136 0058 FFF7FEFF 		bl	__aeabi_dcmpeq
 137              	.LVL11:
 138 005c 88B1     		cbz	r0, .L10
 139 005e DDE91601 		ldrd	r0, [sp, #88]
 140 0062 2246     		mov	r2, r4
 141 0064 2B46     		mov	r3, r5
 142 0066 FFF7FEFF 		bl	__aeabi_dcmpeq
 143              	.LVL12:
ARM GAS  C:\Users\xavieran\AppData\Local\Temp\ccvAwoyE.s 			page 5


 144 006a 50B1     		cbz	r0, .L10
 145 006c DDE91801 		ldrd	r0, [sp, #96]
 146 0070 2246     		mov	r2, r4
 147 0072 2B46     		mov	r3, r5
 148 0074 FFF7FEFF 		bl	__aeabi_dcmpeq
 149              	.LVL13:
 150 0078 18B1     		cbz	r0, .L10
  86:.\navigation.c ****         //nav_clock_ClearPending();
  87:.\navigation.c ****         ISR_CHECKP_Write(0);
 151              		.loc 1 87 0 is_stmt 1
 152 007a 0020     		movs	r0, #0
 153 007c FFF7FEFF 		bl	ISR_CHECKP_Write
 154              	.LVL14:
  88:.\navigation.c ****         return delta;
 155              		.loc 1 88 0
 156 0080 8AE1     		b	.L9
 157              	.L10:
  89:.\navigation.c ****     }
  90:.\navigation.c ****     
  91:.\navigation.c ****     //We ignore x noise
  92:.\navigation.c ****     if (fabs(dxl) < 4 && fabs(dxr) < 4){
 158              		.loc 1 92 0
 159 0082 B246     		mov	r10, r6
 160 0084 27F0004B 		bic	fp, r7, #-2147483648
 161 0088 3046     		mov	r0, r6
 162 008a 5946     		mov	r1, fp
 163 008c 0022     		movs	r2, #0
 164 008e 344B     		ldr	r3, .L37+16
 165 0090 FFF7FEFF 		bl	__aeabi_dcmplt
 166              	.LVL15:
 167 0094 C0B1     		cbz	r0, .L16
 168              		.loc 1 92 0 is_stmt 0 discriminator 1
 169 0096 1698     		ldr	r0, [sp, #88]
 170 0098 179A     		ldr	r2, [sp, #92]
 171 009a 22F00041 		bic	r1, r2, #-2147483648
 172 009e 0022     		movs	r2, #0
 173 00a0 2F4B     		ldr	r3, .L37+16
 174 00a2 FFF7FEFF 		bl	__aeabi_dcmplt
 175              	.LVL16:
 176 00a6 78B1     		cbz	r0, .L16
  93:.\navigation.c ****         //And correct the y axis values accordingly
  94:.\navigation.c ****         if (dyl > dyr){
 177              		.loc 1 94 0 is_stmt 1
 178 00a8 DDE90801 		ldrd	r0, [sp, #32]
 179 00ac DDE91823 		ldrd	r2, [sp, #96]
 180 00b0 FFF7FEFF 		bl	__aeabi_dcmpgt
 181              	.LVL17:
 182 00b4 20B1     		cbz	r0, .L35
  95:.\navigation.c ****             dyr = dyl;
 183              		.loc 1 95 0
 184 00b6 DDE90823 		ldrd	r2, [sp, #32]
 185 00ba CDE91823 		strd	r2, [sp, #96]
 186 00be 03E0     		b	.L16
 187              	.L35:
  96:.\navigation.c ****         } else {
  97:.\navigation.c ****             dyl = dyr;
 188              		.loc 1 97 0
ARM GAS  C:\Users\xavieran\AppData\Local\Temp\ccvAwoyE.s 			page 6


 189 00c0 DDE91823 		ldrd	r2, [sp, #96]
 190 00c4 CDE90823 		strd	r2, [sp, #32]
 191              	.LVL18:
 192              	.L16:
  98:.\navigation.c ****         }
  99:.\navigation.c ****     }
 100:.\navigation.c ****     
 101:.\navigation.c ****     //calculate new values for location_x and location_y using dloc_x and dloc_y
 102:.\navigation.c ****     //Using the method in the italian paper (Bonarini, Matteucci, Restelli)
 103:.\navigation.c ****     //alpha a and alpha b
 104:.\navigation.c ****     al = atan2(dyl, dxl); // Note that atan2 handles x = 0 correctly
 193              		.loc 1 104 0
 194 00c8 DDE90801 		ldrd	r0, [sp, #32]
 195 00cc 3246     		mov	r2, r6
 196 00ce 3B46     		mov	r3, r7
 197 00d0 FFF7FEFF 		bl	atan2
 198              	.LVL19:
 199 00d4 CDE90401 		strd	r0, [sp, #16]
 200              	.LVL20:
 105:.\navigation.c ****     ar = atan2(dyr, dxr);
 201              		.loc 1 105 0
 202 00d8 DDE91801 		ldrd	r0, [sp, #96]
 203              	.LVL21:
 204 00dc DDE91623 		ldrd	r2, [sp, #88]
 205 00e0 FFF7FEFF 		bl	atan2
 206              	.LVL22:
 207 00e4 CDE90A01 		strd	r0, [sp, #40]
 208              	.LVL23:
 106:.\navigation.c ****     
 107:.\navigation.c ****     //radius of arc a and b
 108:.\navigation.c ****     if (al == 0 || al == M_PI){
 209              		.loc 1 108 0
 210 00e8 DDE90401 		ldrd	r0, [sp, #16]
 211              	.LVL24:
 212 00ec 0022     		movs	r2, #0
 213 00ee 0023     		movs	r3, #0
 214 00f0 FFF7FEFF 		bl	__aeabi_dcmpeq
 215              	.LVL25:
 216 00f4 98B9     		cbnz	r0, .L20
 217              		.loc 1 108 0 is_stmt 0 discriminator 1
 218 00f6 DDE90401 		ldrd	r0, [sp, #16]
 219 00fa 17A3     		adr	r3, .L37+8
 220 00fc D3E90023 		ldrd	r2, [r3]
 221 0100 FFF7FEFF 		bl	__aeabi_dcmpeq
 222              	.LVL26:
 223 0104 58B9     		cbnz	r0, .L20
 109:.\navigation.c ****         ll = fabs(dxl);
 110:.\navigation.c ****     } else {
 111:.\navigation.c ****         ll = dyl/sin(al);
 224              		.loc 1 111 0 is_stmt 1
 225 0106 DDE90401 		ldrd	r0, [sp, #16]
 226 010a FFF7FEFF 		bl	sin
 227              	.LVL27:
 228 010e 0246     		mov	r2, r0
 229 0110 0B46     		mov	r3, r1
 230 0112 DDE90801 		ldrd	r0, [sp, #32]
 231 0116 FFF7FEFF 		bl	__aeabi_ddiv
ARM GAS  C:\Users\xavieran\AppData\Local\Temp\ccvAwoyE.s 			page 7


 232              	.LVL28:
 233 011a 8246     		mov	r10, r0
 234 011c 8B46     		mov	fp, r1
 235              	.LVL29:
 236              	.L20:
 112:.\navigation.c ****     }    
 113:.\navigation.c ****     
 114:.\navigation.c ****     if (ar == 0 || ar == M_PI){
 237              		.loc 1 114 0
 238 011e DDE90A01 		ldrd	r0, [sp, #40]
 239 0122 0022     		movs	r2, #0
 240 0124 0023     		movs	r3, #0
 241 0126 FFF7FEFF 		bl	__aeabi_dcmpeq
 242              	.LVL30:
 243 012a 38B9     		cbnz	r0, .L21
 244              		.loc 1 114 0 is_stmt 0 discriminator 1
 245 012c DDE90A01 		ldrd	r0, [sp, #40]
 246 0130 09A3     		adr	r3, .L37+8
 247 0132 D3E90023 		ldrd	r2, [r3]
 248 0136 FFF7FEFF 		bl	__aeabi_dcmpeq
 249              	.LVL31:
 250 013a 98B1     		cbz	r0, .L36
 251              	.L21:
 115:.\navigation.c ****         lr =fabs(dxr);
 252              		.loc 1 115 0 is_stmt 1
 253 013c 169B     		ldr	r3, [sp, #88]
 254 013e 0093     		str	r3, [sp]
 255 0140 179A     		ldr	r2, [sp, #92]
 256 0142 22F00042 		bic	r2, r2, #-2147483648
 257 0146 0192     		str	r2, [sp, #4]
 258              	.LVL32:
 259 0148 18E0     		b	.L24
 260              	.L38:
 261 014a 00BFAFF3 		.align	3
 261      0080
 262              	.L37:
 263 0150 06819543 		.word	1133871366
 264 0154 8B6CF13F 		.word	1072786571
 265 0158 182D4454 		.word	1413754136
 266 015c FB210940 		.word	1074340347
 267 0160 00001040 		.word	1074790400
 268              	.LVL33:
 269              	.L36:
 116:.\navigation.c ****     } else {
 117:.\navigation.c ****         lr = dyr/sin(ar);
 270              		.loc 1 117 0
 271 0164 DDE90A01 		ldrd	r0, [sp, #40]
 272 0168 FFF7FEFF 		bl	sin
 273              	.LVL34:
 274 016c 0246     		mov	r2, r0
 275 016e 0B46     		mov	r3, r1
 276 0170 DDE91801 		ldrd	r0, [sp, #96]
 277 0174 FFF7FEFF 		bl	__aeabi_ddiv
 278              	.LVL35:
 279 0178 CDE90001 		strd	r0, [sp]
 280              	.LVL36:
 281              	.L24:
ARM GAS  C:\Users\xavieran\AppData\Local\Temp\ccvAwoyE.s 			page 8


 118:.\navigation.c ****     }  
 119:.\navigation.c ****     
 120:.\navigation.c ****     //Take the absolute value of alpha a - alpha b to get gamma
 121:.\navigation.c ****     double gamma = fabs(al - ar);
 282              		.loc 1 121 0
 283 017c DDE90401 		ldrd	r0, [sp, #16]
 284 0180 DDE90A23 		ldrd	r2, [sp, #40]
 285 0184 FFF7FEFF 		bl	__aeabi_dsub
 286              	.LVL37:
 287 0188 0446     		mov	r4, r0
 288 018a 21F00045 		bic	r5, r1, #-2147483648
 289              	.LVL38:
 122:.\navigation.c ****     
 123:.\navigation.c ****     double dtheta = signum(dyr - dyl)*sqrt(ll*ll + lr*lr - 2.0*cos(gamma)*ll*lr) / SEPARATION;
 290              		.loc 1 123 0
 291 018e DDE91801 		ldrd	r0, [sp, #96]
 292 0192 DDE90823 		ldrd	r2, [sp, #32]
 293 0196 FFF7FEFF 		bl	__aeabi_dsub
 294              	.LVL39:
 295 019a FFF7FEFF 		bl	signum
 296              	.LVL40:
 297 019e CDE90201 		strd	r0, [sp, #8]
 298 01a2 5046     		mov	r0, r10
 299 01a4 5946     		mov	r1, fp
 300 01a6 5246     		mov	r2, r10
 301 01a8 5B46     		mov	r3, fp
 302 01aa FFF7FEFF 		bl	__aeabi_dmul
 303              	.LVL41:
 304 01ae 0646     		mov	r6, r0
 305              	.LVL42:
 306 01b0 0F46     		mov	r7, r1
 307 01b2 DDE90001 		ldrd	r0, [sp]
 308 01b6 0246     		mov	r2, r0
 309 01b8 0B46     		mov	r3, r1
 310 01ba FFF7FEFF 		bl	__aeabi_dmul
 311              	.LVL43:
 312 01be 0246     		mov	r2, r0
 313 01c0 0B46     		mov	r3, r1
 314 01c2 3046     		mov	r0, r6
 315 01c4 3946     		mov	r1, r7
 316 01c6 FFF7FEFF 		bl	__aeabi_dadd
 317              	.LVL44:
 318 01ca 0646     		mov	r6, r0
 319 01cc 0F46     		mov	r7, r1
 320 01ce 2046     		mov	r0, r4
 321 01d0 2946     		mov	r1, r5
 322 01d2 FFF7FEFF 		bl	cos
 323              	.LVL45:
 324 01d6 0246     		mov	r2, r0
 325 01d8 0B46     		mov	r3, r1
 326 01da FFF7FEFF 		bl	__aeabi_dadd
 327              	.LVL46:
 328 01de 5246     		mov	r2, r10
 329 01e0 5B46     		mov	r3, fp
 330 01e2 FFF7FEFF 		bl	__aeabi_dmul
 331              	.LVL47:
 332 01e6 DDE90023 		ldrd	r2, [sp]
ARM GAS  C:\Users\xavieran\AppData\Local\Temp\ccvAwoyE.s 			page 9


 333 01ea FFF7FEFF 		bl	__aeabi_dmul
 334              	.LVL48:
 335 01ee 0446     		mov	r4, r0
 336              	.LVL49:
 337 01f0 0D46     		mov	r5, r1
 338 01f2 3046     		mov	r0, r6
 339 01f4 3946     		mov	r1, r7
 340 01f6 2246     		mov	r2, r4
 341 01f8 2B46     		mov	r3, r5
 342 01fa FFF7FEFF 		bl	__aeabi_dsub
 343              	.LVL50:
 344 01fe FFF7FEFF 		bl	sqrt
 345              	.LVL51:
 346 0202 0246     		mov	r2, r0
 347 0204 0B46     		mov	r3, r1
 348 0206 DDE90201 		ldrd	r0, [sp, #8]
 349 020a FFF7FEFF 		bl	__aeabi_dmul
 350              	.LVL52:
 351 020e 0022     		movs	r2, #0
 352 0210 654B     		ldr	r3, .L39+8
 353 0212 FFF7FEFF 		bl	__aeabi_ddiv
 354              	.LVL53:
 355 0216 0646     		mov	r6, r0
 356 0218 0F46     		mov	r7, r1
 357              	.LVL54:
 124:.\navigation.c ****     
 125:.\navigation.c ****     if (fabs(dtheta) < .00001){ //dtheta == 0...
 358              		.loc 1 125 0
 359 021a 21F00045 		bic	r5, r1, #-2147483648
 360 021e 2946     		mov	r1, r5
 361 0220 5FA3     		adr	r3, .L39
 362 0222 D3E90023 		ldrd	r2, [r3]
 363 0226 FFF7FEFF 		bl	__aeabi_dcmplt
 364              	.LVL55:
 365 022a 0028     		cmp	r0, #0
 366 022c 40F09380 		bne	.L27
 367              	.LBB2:
 126:.\navigation.c ****         xpr = 0;
 127:.\navigation.c ****         xpl = 0;
 128:.\navigation.c ****         ypl = ll;
 129:.\navigation.c ****         ypr = lr;
 130:.\navigation.c ****     } else { //dtheta != 0...
 131:.\navigation.c ****         rl = ll / fabs(dtheta);
 368              		.loc 1 131 0
 369 0230 5046     		mov	r0, r10
 370 0232 5946     		mov	r1, fp
 371 0234 3246     		mov	r2, r6
 372 0236 2B46     		mov	r3, r5
 373 0238 FFF7FEFF 		bl	__aeabi_ddiv
 374              	.LVL56:
 375 023c 8246     		mov	r10, r0
 376              	.LVL57:
 377 023e 8B46     		mov	fp, r1
 378              	.LVL58:
 132:.\navigation.c ****         rr = lr / fabs(dtheta);
 379              		.loc 1 132 0
 380 0240 DDE90001 		ldrd	r0, [sp]
ARM GAS  C:\Users\xavieran\AppData\Local\Temp\ccvAwoyE.s 			page 10


 381 0244 3246     		mov	r2, r6
 382 0246 2B46     		mov	r3, r5
 383 0248 FFF7FEFF 		bl	__aeabi_ddiv
 384              	.LVL59:
 385 024c CDE90801 		strd	r0, [sp, #32]
 386              	.LVL60:
 133:.\navigation.c ****         
 134:.\navigation.c ****         double sdtheta = signum(dtheta);
 387              		.loc 1 134 0
 388 0250 3046     		mov	r0, r6
 389              	.LVL61:
 390 0252 3946     		mov	r1, r7
 391 0254 FFF7FEFF 		bl	signum
 392              	.LVL62:
 393 0258 CDE90001 		strd	r0, [sp]
 394              	.LVL63:
 135:.\navigation.c ****     
 136:.\navigation.c ****         xpl = rl*(sin(al + dtheta) - sin(al))*sdtheta - SEPARATION/2;
 395              		.loc 1 136 0
 396 025c DDE90401 		ldrd	r0, [sp, #16]
 397              	.LVL64:
 398 0260 3246     		mov	r2, r6
 399 0262 3B46     		mov	r3, r7
 400 0264 FFF7FEFF 		bl	__aeabi_dadd
 401              	.LVL65:
 402 0268 CDE90601 		strd	r0, [sp, #24]
 403 026c FFF7FEFF 		bl	sin
 404              	.LVL66:
 405 0270 0446     		mov	r4, r0
 406 0272 0D46     		mov	r5, r1
 407 0274 DDE90401 		ldrd	r0, [sp, #16]
 408 0278 FFF7FEFF 		bl	sin
 409              	.LVL67:
 410 027c 0246     		mov	r2, r0
 411 027e 0B46     		mov	r3, r1
 412 0280 2046     		mov	r0, r4
 413 0282 2946     		mov	r1, r5
 414 0284 FFF7FEFF 		bl	__aeabi_dsub
 415              	.LVL68:
 416 0288 5246     		mov	r2, r10
 417 028a 5B46     		mov	r3, fp
 418 028c FFF7FEFF 		bl	__aeabi_dmul
 419              	.LVL69:
 420 0290 DDE90023 		ldrd	r2, [sp]
 421 0294 FFF7FEFF 		bl	__aeabi_dmul
 422              	.LVL70:
 423 0298 0022     		movs	r2, #0
 424 029a 444B     		ldr	r3, .L39+12
 425 029c FFF7FEFF 		bl	__aeabi_dsub
 426              	.LVL71:
 427 02a0 CDE90201 		strd	r0, [sp, #8]
 428              	.LVL72:
 137:.\navigation.c ****         ypl = rl*(cos(al) - cos(al + dtheta))*sdtheta;
 429              		.loc 1 137 0
 430 02a4 DDE90401 		ldrd	r0, [sp, #16]
 431              	.LVL73:
 432 02a8 FFF7FEFF 		bl	cos
ARM GAS  C:\Users\xavieran\AppData\Local\Temp\ccvAwoyE.s 			page 11


 433              	.LVL74:
 434 02ac 0446     		mov	r4, r0
 435 02ae 0D46     		mov	r5, r1
 436 02b0 DDE90601 		ldrd	r0, [sp, #24]
 437 02b4 FFF7FEFF 		bl	cos
 438              	.LVL75:
 439 02b8 0246     		mov	r2, r0
 440 02ba 0B46     		mov	r3, r1
 441 02bc 2046     		mov	r0, r4
 442 02be 2946     		mov	r1, r5
 443 02c0 FFF7FEFF 		bl	__aeabi_dsub
 444              	.LVL76:
 445 02c4 5246     		mov	r2, r10
 446 02c6 5B46     		mov	r3, fp
 447 02c8 FFF7FEFF 		bl	__aeabi_dmul
 448              	.LVL77:
 449 02cc DDE90023 		ldrd	r2, [sp]
 450 02d0 FFF7FEFF 		bl	__aeabi_dmul
 451              	.LVL78:
 452 02d4 8246     		mov	r10, r0
 453              	.LVL79:
 454 02d6 8B46     		mov	fp, r1
 455              	.LVL80:
 138:.\navigation.c ****         
 139:.\navigation.c ****         xpr = rr*(sin(ar + dtheta) - sin(ar))*sdtheta + SEPARATION/2;
 456              		.loc 1 139 0
 457 02d8 DDE90A01 		ldrd	r0, [sp, #40]
 458 02dc 3246     		mov	r2, r6
 459 02de 3B46     		mov	r3, r7
 460 02e0 FFF7FEFF 		bl	__aeabi_dadd
 461              	.LVL81:
 462 02e4 CDE90601 		strd	r0, [sp, #24]
 463 02e8 FFF7FEFF 		bl	sin
 464              	.LVL82:
 465 02ec 0446     		mov	r4, r0
 466 02ee 0D46     		mov	r5, r1
 467 02f0 DDE90A01 		ldrd	r0, [sp, #40]
 468 02f4 FFF7FEFF 		bl	sin
 469              	.LVL83:
 470 02f8 0246     		mov	r2, r0
 471 02fa 0B46     		mov	r3, r1
 472 02fc 2046     		mov	r0, r4
 473 02fe 2946     		mov	r1, r5
 474 0300 FFF7FEFF 		bl	__aeabi_dsub
 475              	.LVL84:
 476 0304 DDE90823 		ldrd	r2, [sp, #32]
 477 0308 FFF7FEFF 		bl	__aeabi_dmul
 478              	.LVL85:
 479 030c DDE90023 		ldrd	r2, [sp]
 480 0310 FFF7FEFF 		bl	__aeabi_dmul
 481              	.LVL86:
 482 0314 0022     		movs	r2, #0
 483 0316 254B     		ldr	r3, .L39+12
 484 0318 FFF7FEFF 		bl	__aeabi_dadd
 485              	.LVL87:
 486 031c 0446     		mov	r4, r0
 487 031e 0D46     		mov	r5, r1
ARM GAS  C:\Users\xavieran\AppData\Local\Temp\ccvAwoyE.s 			page 12


 488              	.LVL88:
 140:.\navigation.c ****         ypr = rr*(cos(ar) - cos(ar + dtheta))*sdtheta;
 489              		.loc 1 140 0
 490 0320 DDE90A01 		ldrd	r0, [sp, #40]
 491 0324 FFF7FEFF 		bl	cos
 492              	.LVL89:
 493 0328 CDE90401 		strd	r0, [sp, #16]
 494              	.LVL90:
 495 032c DDE90601 		ldrd	r0, [sp, #24]
 496 0330 FFF7FEFF 		bl	cos
 497              	.LVL91:
 498 0334 0246     		mov	r2, r0
 499 0336 0B46     		mov	r3, r1
 500 0338 DDE90401 		ldrd	r0, [sp, #16]
 501 033c FFF7FEFF 		bl	__aeabi_dsub
 502              	.LVL92:
 503 0340 DDE90823 		ldrd	r2, [sp, #32]
 504 0344 FFF7FEFF 		bl	__aeabi_dmul
 505              	.LVL93:
 506 0348 DDE90023 		ldrd	r2, [sp]
 507 034c FFF7FEFF 		bl	__aeabi_dmul
 508              	.LVL94:
 509 0350 CDE90001 		strd	r0, [sp]
 510              	.LVL95:
 511 0354 03E0     		b	.L25
 512              	.LVL96:
 513              	.L27:
 514              	.LBE2:
 126:.\navigation.c ****         xpr = 0;
 515              		.loc 1 126 0
 516 0356 0024     		movs	r4, #0
 517 0358 0025     		movs	r5, #0
 127:.\navigation.c ****         xpl = 0;
 518              		.loc 1 127 0
 519 035a CDE90245 		strd	r4, [sp, #8]
 520              	.LVL97:
 521              	.L25:
 141:.\navigation.c ****     }
 142:.\navigation.c ****     
 143:.\navigation.c ****     
 144:.\navigation.c ****     delta.x = (xpr + xpl)/2.0;
 522              		.loc 1 144 0
 523 035e 2046     		mov	r0, r4
 524 0360 2946     		mov	r1, r5
 525 0362 DDE90223 		ldrd	r2, [sp, #8]
 526 0366 FFF7FEFF 		bl	__aeabi_dadd
 527              	.LVL98:
 528 036a 0022     		movs	r2, #0
 529 036c 104B     		ldr	r3, .L39+16
 530 036e FFF7FEFF 		bl	__aeabi_dmul
 531              	.LVL99:
 532 0372 C8E90001 		strd	r0, [r8]
 145:.\navigation.c ****     delta.y = (ypr + ypl)/2.0;
 533              		.loc 1 145 0
 534 0376 DDE90001 		ldrd	r0, [sp]
 535 037a 5246     		mov	r2, r10
 536 037c 5B46     		mov	r3, fp
ARM GAS  C:\Users\xavieran\AppData\Local\Temp\ccvAwoyE.s 			page 13


 537 037e FFF7FEFF 		bl	__aeabi_dadd
 538              	.LVL100:
 539 0382 0022     		movs	r2, #0
 540 0384 0A4B     		ldr	r3, .L39+16
 541 0386 FFF7FEFF 		bl	__aeabi_dmul
 542              	.LVL101:
 543 038a C8E90201 		strd	r0, [r8, #8]
 146:.\navigation.c ****     delta.angle = dtheta;
 544              		.loc 1 146 0
 545 038e C8E90467 		strd	r6, [r8, #16]
 147:.\navigation.c ****     
 148:.\navigation.c ****     ISR_CHECKP_Write(0); 
 546              		.loc 1 148 0
 547 0392 0020     		movs	r0, #0
 548 0394 FFF7FEFF 		bl	ISR_CHECKP_Write
 549              	.LVL102:
 550              	.L9:
 149:.\navigation.c ****     return delta;
 150:.\navigation.c **** }
 551              		.loc 1 150 0
 552 0398 4046     		mov	r0, r8
 553 039a 0CB0     		add	sp, sp, #48
 554              		@ sp needed
 555 039c BDE8F08D 		pop	{r4, r5, r6, r7, r8, r10, fp, pc}
 556              	.LVL103:
 557              	.L40:
 558              		.align	3
 559              	.L39:
 560 03a0 F168E388 		.word	-1998362383
 561 03a4 B5F8E43E 		.word	1055193269
 562 03a8 00007940 		.word	1081671680
 563 03ac 00006940 		.word	1080623104
 564 03b0 0000E03F 		.word	1071644672
 565              		.cfi_endproc
 566              	.LFE65:
 567              		.size	calculate_dposition, .-calculate_dposition
 568              		.global	__aeabi_i2d
 569 03b4 AFF30080 		.section	.text.refresh_position,"ax",%progbits
 570              		.align	2
 571              		.global	refresh_position
 572              		.thumb
 573              		.thumb_func
 574              		.type	refresh_position, %function
 575              	refresh_position:
 576              	.LFB64:
  48:.\navigation.c **** void refresh_position(){
 577              		.loc 1 48 0
 578              		.cfi_startproc
 579              		@ args = 0, pretend = 0, frame = 32
 580              		@ frame_needed = 0, uses_anonymous_args = 0
 581 0000 2DE9F04F 		push	{r4, r5, r6, r7, r8, r9, r10, fp, lr}
 582              		.cfi_def_cfa_offset 36
 583              		.cfi_offset 4, -36
 584              		.cfi_offset 5, -32
 585              		.cfi_offset 6, -28
 586              		.cfi_offset 7, -24
 587              		.cfi_offset 8, -20
ARM GAS  C:\Users\xavieran\AppData\Local\Temp\ccvAwoyE.s 			page 14


 588              		.cfi_offset 9, -16
 589              		.cfi_offset 10, -12
 590              		.cfi_offset 11, -8
 591              		.cfi_offset 14, -4
 592 0004 8FB0     		sub	sp, sp, #60
 593              		.cfi_def_cfa_offset 96
  50:.\navigation.c ****     if (data_ready_a > 5 || data_ready_b > 5){
 594              		.loc 1 50 0
 595 0006 4D4B     		ldr	r3, .L44
 596 0008 1B78     		ldrb	r3, [r3]	@ zero_extendqisi2
 597 000a DBB2     		uxtb	r3, r3
 598 000c 052B     		cmp	r3, #5
 599 000e 05D8     		bhi	.L42
  50:.\navigation.c ****     if (data_ready_a > 5 || data_ready_b > 5){
 600              		.loc 1 50 0 is_stmt 0 discriminator 1
 601 0010 4B4B     		ldr	r3, .L44+4
 602 0012 1B78     		ldrb	r3, [r3]	@ zero_extendqisi2
 603 0014 DBB2     		uxtb	r3, r3
 604 0016 052B     		cmp	r3, #5
 605 0018 40F28C80 		bls	.L41
 606              	.L42:
 607              	.LBB3:
  51:.\navigation.c ****         struct Position delta = calculate_dposition((double) loc_x_a, (double) loc_y_a, (double) lo
 608              		.loc 1 51 0 is_stmt 1
 609 001c DFF824B1 		ldr	fp, .L44+8
 610 0020 DBF80000 		ldr	r0, [fp]
 611 0024 FFF7FEFF 		bl	__aeabi_i2d
 612              	.LVL104:
 613 0028 CDE90601 		strd	r0, [sp, #24]
 614 002c DFF818A1 		ldr	r10, .L44+12
 615 0030 DAF80000 		ldr	r0, [r10]
 616 0034 FFF7FEFF 		bl	__aeabi_i2d
 617              	.LVL105:
 618 0038 0646     		mov	r6, r0
 619 003a 0F46     		mov	r7, r1
 620 003c DFF80C91 		ldr	r9, .L44+16
 621 0040 D9F80000 		ldr	r0, [r9]
 622 0044 FFF7FEFF 		bl	__aeabi_i2d
 623              	.LVL106:
 624 0048 0446     		mov	r4, r0
 625 004a 0D46     		mov	r5, r1
 626 004c DFF80081 		ldr	r8, .L44+20
 627 0050 D8F80000 		ldr	r0, [r8]
 628 0054 FFF7FEFF 		bl	__aeabi_i2d
 629              	.LVL107:
 630 0058 CDE90067 		strd	r6, [sp]
 631 005c CDE90245 		strd	r4, [sp, #8]
 632 0060 CDE90401 		strd	r0, [sp, #16]
 633 0064 08A8     		add	r0, sp, #32
 634 0066 DDE90623 		ldrd	r2, [sp, #24]
 635 006a FFF7FEFF 		bl	calculate_dposition
 636              	.LVL108:
  53:.\navigation.c ****         loc_x_a = 0;
 637              		.loc 1 53 0
 638 006e 0023     		movs	r3, #0
 639 0070 CBF80030 		str	r3, [fp]
  54:.\navigation.c ****         loc_y_a = 0;
ARM GAS  C:\Users\xavieran\AppData\Local\Temp\ccvAwoyE.s 			page 15


 640              		.loc 1 54 0
 641 0074 CAF80030 		str	r3, [r10]
  55:.\navigation.c ****         data_ready_a = 0;
 642              		.loc 1 55 0
 643 0078 304A     		ldr	r2, .L44
 644 007a 1370     		strb	r3, [r2]
  57:.\navigation.c ****         loc_x_b = 0;
 645              		.loc 1 57 0
 646 007c C9F80030 		str	r3, [r9]
  58:.\navigation.c ****         loc_y_b = 0;
 647              		.loc 1 58 0
 648 0080 C8F80030 		str	r3, [r8]
  59:.\navigation.c ****         data_ready_b = 0;
 649              		.loc 1 59 0
 650 0084 2E4A     		ldr	r2, .L44+4
 651 0086 1370     		strb	r3, [r2]
  61:.\navigation.c ****         double angle = location.angle + atan2(delta.y, delta.x);
 652              		.loc 1 61 0
 653 0088 DFF8C8A0 		ldr	r10, .L44+24
 654 008c DAE90467 		ldrd	r6, [r10, #16]
 655 0090 DDE90A45 		ldrd	r4, [sp, #40]
 656 0094 DDE90889 		ldrd	r8, [sp, #32]
 657 0098 2046     		mov	r0, r4
 658 009a 2946     		mov	r1, r5
 659 009c 4246     		mov	r2, r8
 660 009e 4B46     		mov	r3, r9
 661 00a0 FFF7FEFF 		bl	atan2
 662              	.LVL109:
 663 00a4 0246     		mov	r2, r0
 664 00a6 0B46     		mov	r3, r1
 665 00a8 3046     		mov	r0, r6
 666 00aa 3946     		mov	r1, r7
 667 00ac FFF7FEFF 		bl	__aeabi_dadd
 668              	.LVL110:
 669 00b0 0646     		mov	r6, r0
 670 00b2 0F46     		mov	r7, r1
 671              	.LVL111:
  62:.\navigation.c ****         double length = sqrt(delta.x*delta.x + delta.y*delta.y);
 672              		.loc 1 62 0
 673 00b4 4046     		mov	r0, r8
 674 00b6 4946     		mov	r1, r9
 675 00b8 4246     		mov	r2, r8
 676 00ba 4B46     		mov	r3, r9
 677 00bc FFF7FEFF 		bl	__aeabi_dmul
 678              	.LVL112:
 679 00c0 8046     		mov	r8, r0
 680 00c2 8946     		mov	r9, r1
 681 00c4 2046     		mov	r0, r4
 682 00c6 2946     		mov	r1, r5
 683 00c8 2246     		mov	r2, r4
 684 00ca 2B46     		mov	r3, r5
 685 00cc FFF7FEFF 		bl	__aeabi_dmul
 686              	.LVL113:
 687 00d0 0246     		mov	r2, r0
 688 00d2 0B46     		mov	r3, r1
 689 00d4 4046     		mov	r0, r8
 690 00d6 4946     		mov	r1, r9
ARM GAS  C:\Users\xavieran\AppData\Local\Temp\ccvAwoyE.s 			page 16


 691 00d8 FFF7FEFF 		bl	__aeabi_dadd
 692              	.LVL114:
 693 00dc FFF7FEFF 		bl	sqrt
 694              	.LVL115:
 695 00e0 0446     		mov	r4, r0
 696 00e2 0D46     		mov	r5, r1
 697              	.LVL116:
  64:.\navigation.c ****         location.x += length*cos(angle);
 698              		.loc 1 64 0
 699 00e4 3046     		mov	r0, r6
 700 00e6 3946     		mov	r1, r7
 701 00e8 FFF7FEFF 		bl	cos
 702              	.LVL117:
 703 00ec 2246     		mov	r2, r4
 704 00ee 2B46     		mov	r3, r5
 705 00f0 FFF7FEFF 		bl	__aeabi_dmul
 706              	.LVL118:
 707 00f4 0246     		mov	r2, r0
 708 00f6 0B46     		mov	r3, r1
 709 00f8 DAE90001 		ldrd	r0, [r10]
 710 00fc FFF7FEFF 		bl	__aeabi_dadd
 711              	.LVL119:
 712 0100 CAE90001 		strd	r0, [r10]
  65:.\navigation.c ****         location.y += length*sin(angle);
 713              		.loc 1 65 0
 714 0104 3046     		mov	r0, r6
 715 0106 3946     		mov	r1, r7
 716 0108 FFF7FEFF 		bl	sin
 717              	.LVL120:
 718 010c 2246     		mov	r2, r4
 719 010e 2B46     		mov	r3, r5
 720 0110 FFF7FEFF 		bl	__aeabi_dmul
 721              	.LVL121:
 722 0114 0246     		mov	r2, r0
 723 0116 0B46     		mov	r3, r1
 724 0118 DAE90201 		ldrd	r0, [r10, #8]
 725 011c FFF7FEFF 		bl	__aeabi_dadd
 726              	.LVL122:
 727 0120 CAE90201 		strd	r0, [r10, #8]
  66:.\navigation.c ****         location.angle += delta.angle;
 728              		.loc 1 66 0
 729 0124 DAE90401 		ldrd	r0, [r10, #16]
 730 0128 DDE90C23 		ldrd	r2, [sp, #48]
 731 012c FFF7FEFF 		bl	__aeabi_dadd
 732              	.LVL123:
 733 0130 CAE90401 		strd	r0, [r10, #16]
 734              	.LVL124:
 735              	.L41:
 736              	.LBE3:
  68:.\navigation.c **** }
 737              		.loc 1 68 0
 738 0134 0FB0     		add	sp, sp, #60
 739              		@ sp needed
 740 0136 BDE8F08F 		pop	{r4, r5, r6, r7, r8, r9, r10, fp, pc}
 741              	.L45:
 742 013a 00BF     		.align	2
 743              	.L44:
ARM GAS  C:\Users\xavieran\AppData\Local\Temp\ccvAwoyE.s 			page 17


 744 013c 00000000 		.word	data_ready_a
 745 0140 00000000 		.word	data_ready_b
 746 0144 00000000 		.word	loc_x_a
 747 0148 00000000 		.word	loc_y_a
 748 014c 00000000 		.word	loc_x_b
 749 0150 00000000 		.word	loc_y_b
 750 0154 00000000 		.word	location
 751              		.cfi_endproc
 752              	.LFE64:
 753              		.size	refresh_position, .-refresh_position
 754              		.section	.text.reset_navigation,"ax",%progbits
 755              		.align	2
 756              		.global	reset_navigation
 757              		.thumb
 758              		.thumb_func
 759              		.type	reset_navigation, %function
 760              	reset_navigation:
 761              	.LFB66:
 151:.\navigation.c **** 
 152:.\navigation.c **** void reset_navigation(){
 762              		.loc 1 152 0
 763              		.cfi_startproc
 764              		@ args = 0, pretend = 0, frame = 0
 765              		@ frame_needed = 0, uses_anonymous_args = 0
 766              		@ link register save eliminated.
 153:.\navigation.c ****     loc_x_a = 0;
 767              		.loc 1 153 0
 768 0000 0023     		movs	r3, #0
 769 0002 0B4A     		ldr	r2, .L47
 770 0004 1360     		str	r3, [r2]
 154:.\navigation.c ****     loc_y_a = 0;
 771              		.loc 1 154 0
 772 0006 0B4A     		ldr	r2, .L47+4
 773 0008 1360     		str	r3, [r2]
 155:.\navigation.c ****     data_ready_a = 0;
 774              		.loc 1 155 0
 775 000a 0B4A     		ldr	r2, .L47+8
 776 000c 1370     		strb	r3, [r2]
 156:.\navigation.c ****     loc_x_b = 0;
 777              		.loc 1 156 0
 778 000e 0B4A     		ldr	r2, .L47+12
 779 0010 1360     		str	r3, [r2]
 157:.\navigation.c ****     loc_y_b = 0;
 780              		.loc 1 157 0
 781 0012 0B4A     		ldr	r2, .L47+16
 782 0014 1360     		str	r3, [r2]
 158:.\navigation.c ****     data_ready_b = 0;
 783              		.loc 1 158 0
 784 0016 0B4A     		ldr	r2, .L47+20
 785 0018 1370     		strb	r3, [r2]
 159:.\navigation.c ****     
 160:.\navigation.c ****     location.x = 0.0;
 786              		.loc 1 160 0
 787 001a 0B49     		ldr	r1, .L47+24
 788 001c 0022     		movs	r2, #0
 789 001e 0023     		movs	r3, #0
 790 0020 C1E90023 		strd	r2, [r1]
ARM GAS  C:\Users\xavieran\AppData\Local\Temp\ccvAwoyE.s 			page 18


 161:.\navigation.c ****     location.y = 0.0;
 791              		.loc 1 161 0
 792 0024 C1E90223 		strd	r2, [r1, #8]
 162:.\navigation.c ****     location.angle = 0.0;
 793              		.loc 1 162 0
 794 0028 C1E90423 		strd	r2, [r1, #16]
 795 002c 7047     		bx	lr
 796              	.L48:
 797 002e 00BF     		.align	2
 798              	.L47:
 799 0030 00000000 		.word	loc_x_a
 800 0034 00000000 		.word	loc_y_a
 801 0038 00000000 		.word	data_ready_a
 802 003c 00000000 		.word	loc_x_b
 803 0040 00000000 		.word	loc_y_b
 804 0044 00000000 		.word	data_ready_b
 805 0048 00000000 		.word	location
 806              		.cfi_endproc
 807              	.LFE66:
 808              		.size	reset_navigation, .-reset_navigation
 809              		.section	.text.init_navigation,"ax",%progbits
 810              		.align	2
 811              		.global	init_navigation
 812              		.thumb
 813              		.thumb_func
 814              		.type	init_navigation, %function
 815              	init_navigation:
 816              	.LFB67:
 163:.\navigation.c **** }
 164:.\navigation.c **** 
 165:.\navigation.c **** void init_navigation(){
 817              		.loc 1 165 0
 818              		.cfi_startproc
 819              		@ args = 0, pretend = 0, frame = 0
 820              		@ frame_needed = 0, uses_anonymous_args = 0
 821 0000 08B5     		push	{r3, lr}
 822              		.cfi_def_cfa_offset 8
 823              		.cfi_offset 3, -8
 824              		.cfi_offset 14, -4
 166:.\navigation.c ****     reset_navigation();
 825              		.loc 1 166 0
 826 0002 FFF7FEFF 		bl	reset_navigation
 827              	.LVL125:
 828 0006 08BD     		pop	{r3, pc}
 829              		.cfi_endproc
 830              	.LFE67:
 831              		.size	init_navigation, .-init_navigation
 832              		.comm	location,24,8
 833              		.comm	OV9650_1_framebuffer,50688,4
 834              		.text
 835              	.Letext0:
 836              		.file 2 "c:\\program files (x86)\\cypress\\psoc creator\\3.2\\psoc creator\\import\\gnu\\arm\\4.8.
 837              		.file 3 "c:\\program files (x86)\\cypress\\psoc creator\\3.2\\psoc creator\\import\\gnu\\arm\\4.8.
 838              		.file 4 "Generated_Source\\PSoC5/cytypes.h"
 839              		.file 5 "./navigation.h"
 840              		.file 6 "Generated_Source\\PSoC5/core_cm3.h"
 841              		.file 7 "Generated_Source\\PSoC5/OV9650_1.h"
ARM GAS  C:\Users\xavieran\AppData\Local\Temp\ccvAwoyE.s 			page 19


 842              		.file 8 "c:\\program files (x86)\\cypress\\psoc creator\\3.2\\psoc creator\\import\\gnu\\arm\\4.8.
 843              		.file 9 "Generated_Source\\PSoC5/ISR_CHECKP.h"