ARM GAS  C:\Users\xavieran\AppData\Local\Temp\ccQw3gue.s 			page 1


   1              		.syntax unified
   2              		.cpu cortex-m3
   3              		.fpu softvfp
   4              		.eabi_attribute 20, 1
   5              		.eabi_attribute 21, 1
   6              		.eabi_attribute 23, 3
   7              		.eabi_attribute 24, 1
   8              		.eabi_attribute 25, 1
   9              		.eabi_attribute 26, 1
  10              		.eabi_attribute 30, 1
  11              		.eabi_attribute 34, 1
  12              		.eabi_attribute 18, 4
  13              		.thumb
  14              		.file	"ultrasonic.c"
  15              		.text
  16              	.Ltext0:
  17              		.cfi_sections	.debug_frame
  18              		.global	__aeabi_ui2d
  19              		.global	__aeabi_ddiv
  20              		.global	__aeabi_d2uiz
  21              		.section	.text.HC_TRIG_ISR,"ax",%progbits
  22              		.align	2
  23              		.global	HC_TRIG_ISR
  24              		.thumb
  25              		.thumb_func
  26              		.type	HC_TRIG_ISR, %function
  27              	HC_TRIG_ISR:
  28              	.LFB63:
  29              		.file 1 ".\\ultrasonic.c"
   1:.\ultrasonic.c **** /* ========================================
   2:.\ultrasonic.c ****  *
   3:.\ultrasonic.c ****  * Copyright YOUR COMPANY, THE YEAR
   4:.\ultrasonic.c ****  * All Rights Reserved
   5:.\ultrasonic.c ****  * UNPUBLISHED, LICENSED SOFTWARE.
   6:.\ultrasonic.c ****  *
   7:.\ultrasonic.c ****  * CONFIDENTIAL AND PROPRIETARY INFORMATION
   8:.\ultrasonic.c ****  * WHICH IS THE PROPERTY OF your company.
   9:.\ultrasonic.c ****  *
  10:.\ultrasonic.c ****  * ========================================
  11:.\ultrasonic.c **** */
  12:.\ultrasonic.c **** #include <project.h>
  13:.\ultrasonic.c **** 
  14:.\ultrasonic.c **** #define MAX_COUNT 50000u
  15:.\ultrasonic.c **** //d = vt, v=340m/s=340mm/ms=.34mm/us
  16:.\ultrasonic.c **** //t=pulse/2, d = 1.7cm/us*pulse
  17:.\ultrasonic.c **** #define DIST_CORRECTION 58.0
  18:.\ultrasonic.c **** 
  19:.\ultrasonic.c **** volatile uint16 ultra_distance;
  20:.\ultrasonic.c **** 
  21:.\ultrasonic.c **** /* ** How to use this module ** 
  22:.\ultrasonic.c ****  * 1. Start the library with start_ultrasonic();
  23:.\ultrasonic.c ****  * 2. The module functions automatically through an ISR, so 
  24:.\ultrasonic.c ****  *    just monitor ultra_distance which will give the distance from the
  25:.\ultrasonic.c ****  *    device to the obstacle in cm
  26:.\ultrasonic.c ****  */
  27:.\ultrasonic.c **** 
  28:.\ultrasonic.c **** 
ARM GAS  C:\Users\xavieran\AppData\Local\Temp\ccQw3gue.s 			page 2


  29:.\ultrasonic.c **** CY_ISR(HC_TRIG_ISR){
  30              		.loc 1 29 0
  31              		.cfi_startproc
  32              		@ args = 0, pretend = 0, frame = 0
  33              		@ frame_needed = 0, uses_anonymous_args = 0
  34 0000 08B5     		push	{r3, lr}
  35              		.cfi_def_cfa_offset 8
  36              		.cfi_offset 3, -8
  37              		.cfi_offset 14, -4
  30:.\ultrasonic.c ****     ultra_distance = (MAX_COUNT - HC_Timer_ReadCounter()) / DIST_CORRECTION;
  38              		.loc 1 30 0
  39 0002 FFF7FEFF 		bl	HC_Timer_ReadCounter
  40              	.LVL0:
  41 0006 C0F54340 		rsb	r0, r0, #49920
  42 000a 5030     		adds	r0, r0, #80
  43 000c FFF7FEFF 		bl	__aeabi_ui2d
  44              	.LVL1:
  45 0010 0022     		movs	r2, #0
  46 0012 054B     		ldr	r3, .L2
  47 0014 FFF7FEFF 		bl	__aeabi_ddiv
  48              	.LVL2:
  49 0018 FFF7FEFF 		bl	__aeabi_d2uiz
  50              	.LVL3:
  51 001c 80B2     		uxth	r0, r0
  52 001e 034B     		ldr	r3, .L2+4
  53 0020 1880     		strh	r0, [r3]	@ movhi
  31:.\ultrasonic.c ****     HC_ISR_ClearPending();
  54              		.loc 1 31 0
  55 0022 FFF7FEFF 		bl	HC_ISR_ClearPending
  56              	.LVL4:
  57 0026 08BD     		pop	{r3, pc}
  58              	.L3:
  59              		.align	2
  60              	.L2:
  61 0028 00004D40 		.word	1078788096
  62 002c 00000000 		.word	ultra_distance
  63              		.cfi_endproc
  64              	.LFE63:
  65              		.size	HC_TRIG_ISR, .-HC_TRIG_ISR
  66              		.section	.text.start_ultrasonic,"ax",%progbits
  67              		.align	2
  68              		.global	start_ultrasonic
  69              		.thumb
  70              		.thumb_func
  71              		.type	start_ultrasonic, %function
  72              	start_ultrasonic:
  73              	.LFB64:
  32:.\ultrasonic.c **** }
  33:.\ultrasonic.c **** 
  34:.\ultrasonic.c **** void start_ultrasonic(){
  74              		.loc 1 34 0
  75              		.cfi_startproc
  76              		@ args = 0, pretend = 0, frame = 0
  77              		@ frame_needed = 0, uses_anonymous_args = 0
  78 0000 08B5     		push	{r3, lr}
  79              		.cfi_def_cfa_offset 8
  80              		.cfi_offset 3, -8
ARM GAS  C:\Users\xavieran\AppData\Local\Temp\ccQw3gue.s 			page 3


  81              		.cfi_offset 14, -4
  35:.\ultrasonic.c ****     ultra_distance = 0;
  82              		.loc 1 35 0
  83 0002 0022     		movs	r2, #0
  84 0004 044B     		ldr	r3, .L5
  85 0006 1A80     		strh	r2, [r3]	@ movhi
  36:.\ultrasonic.c ****     HC_Timer_Start();
  86              		.loc 1 36 0
  87 0008 FFF7FEFF 		bl	HC_Timer_Start
  88              	.LVL5:
  37:.\ultrasonic.c ****     HC_PWM_Start();
  89              		.loc 1 37 0
  90 000c FFF7FEFF 		bl	HC_PWM_Start
  91              	.LVL6:
  38:.\ultrasonic.c ****     HC_ISR_StartEx(HC_TRIG_ISR);
  92              		.loc 1 38 0
  93 0010 0248     		ldr	r0, .L5+4
  94 0012 FFF7FEFF 		bl	HC_ISR_StartEx
  95              	.LVL7:
  96 0016 08BD     		pop	{r3, pc}
  97              	.L6:
  98              		.align	2
  99              	.L5:
 100 0018 00000000 		.word	ultra_distance
 101 001c 00000000 		.word	HC_TRIG_ISR
 102              		.cfi_endproc
 103              	.LFE64:
 104              		.size	start_ultrasonic, .-start_ultrasonic
 105              		.section	.text.stop_ultrasonic,"ax",%progbits
 106              		.align	2
 107              		.global	stop_ultrasonic
 108              		.thumb
 109              		.thumb_func
 110              		.type	stop_ultrasonic, %function
 111              	stop_ultrasonic:
 112              	.LFB65:
  39:.\ultrasonic.c **** }
  40:.\ultrasonic.c **** 
  41:.\ultrasonic.c **** void stop_ultrasonic(){
 113              		.loc 1 41 0
 114              		.cfi_startproc
 115              		@ args = 0, pretend = 0, frame = 0
 116              		@ frame_needed = 0, uses_anonymous_args = 0
 117 0000 08B5     		push	{r3, lr}
 118              		.cfi_def_cfa_offset 8
 119              		.cfi_offset 3, -8
 120              		.cfi_offset 14, -4
  42:.\ultrasonic.c ****     HC_Timer_Stop();
 121              		.loc 1 42 0
 122 0002 FFF7FEFF 		bl	HC_Timer_Stop
 123              	.LVL8:
  43:.\ultrasonic.c ****     HC_PWM_Stop();
 124              		.loc 1 43 0
 125 0006 FFF7FEFF 		bl	HC_PWM_Stop
 126              	.LVL9:
  44:.\ultrasonic.c ****     HC_ISR_Stop();
 127              		.loc 1 44 0
ARM GAS  C:\Users\xavieran\AppData\Local\Temp\ccQw3gue.s 			page 4


 128 000a FFF7FEFF 		bl	HC_ISR_Stop
 129              	.LVL10:
 130 000e 08BD     		pop	{r3, pc}
 131              		.cfi_endproc
 132              	.LFE65:
 133              		.size	stop_ultrasonic, .-stop_ultrasonic
 134              		.comm	ultra_distance,2,2
 135              		.comm	Camera_framebuffer,50688,4
 136              		.text
 137              	.Letext0:
 138              		.file 2 "c:\\program files (x86)\\cypress\\psoc creator\\3.2\\psoc creator\\import\\gnu\\arm\\4.8.
 139              		.file 3 "c:\\program files (x86)\\cypress\\psoc creator\\3.2\\psoc creator\\import\\gnu\\arm\\4.8.
 140              		.file 4 "Generated_Source\\PSoC5/cytypes.h"
 141              		.file 5 "Generated_Source\\PSoC5/core_cm3.h"
 142              		.file 6 "Generated_Source\\PSoC5/Camera.h"
 143              		.file 7 "Generated_Source\\PSoC5/HC_ISR.h"
 144              		.file 8 "Generated_Source\\PSoC5/HC_Timer.h"
 145              		.file 9 "Generated_Source\\PSoC5/HC_PWM.h"